ARM GAS  /tmp/ccbXU7U4.s 			page 1


   1              		.syntax unified
   2              		.cpu cortex-m4
   3              		.fpu softvfp
   4              		.eabi_attribute 20, 1
   5              		.eabi_attribute 21, 1
   6              		.eabi_attribute 23, 3
   7              		.eabi_attribute 24, 1
   8              		.eabi_attribute 25, 1
   9              		.eabi_attribute 26, 1
  10              		.eabi_attribute 30, 6
  11              		.eabi_attribute 34, 1
  12              		.eabi_attribute 18, 4
  13              		.thumb
  14              		.file	"board.c"
  15              		.text
  16              	.Ltext0:
  17              		.cfi_sections	.debug_frame
  18              		.global	pal_default_config
  19              		.section	.rodata
  20              		.align	2
  21              		.type	pal_default_config, %object
  22              		.size	pal_default_config, 288
  23              	pal_default_config:
  24 0000 73ABFFEB 		.word	-335565965
  25 0004 00000000 		.word	0
  26 0008 C0FCF0C3 		.word	-1007616832
  27 000c 08000028 		.word	671088648
  28 0010 FFFF0000 		.word	65535
  29 0014 00005055 		.word	1431306240
  30 0018 B0000000 		.word	176
  31 001c 00000000 		.word	0
  32 0020 00000000 		.word	0
  33 0024 D4AFFCB9 		.word	-1174622252
  34 0028 00000000 		.word	0
  35 002c 3F3C0FCF 		.word	-821085121
  36 0030 02000A00 		.word	655362
  37 0034 FFFF0000 		.word	65535
  38 0038 00000006 		.word	100663296
  39 003c 00005B50 		.word	1348141056
  40 0040 00000000 		.word	0
  41 0044 00000000 		.word	0
  42 0048 ECF1FF0E 		.word	251654636
  43 004c 00000000 		.word	0
  44 0050 3CCFC30F 		.word	264490812
  45 0054 22080000 		.word	2082
  46 0058 FFFD0000 		.word	65023
  47 005c 00060000 		.word	1536
  48 0060 00000800 		.word	524288
  49 0064 00000000 		.word	0
  50 0068 00000000 		.word	0
  51 006c EFFFFFFF 		.word	-17
  52 0070 00000000 		.word	0
  53 0074 FFFFFFFF 		.word	-1
  54 0078 00000000 		.word	0
  55 007c FEFF0000 		.word	65534
  56 0080 00080000 		.word	2048
  57 0084 00000000 		.word	0
ARM GAS  /tmp/ccbXU7U4.s 			page 2


  58 0088 00000000 		.word	0
  59 008c 00000000 		.word	0
  60 0090 FFFFFFFF 		.word	-1
  61 0094 00000000 		.word	0
  62 0098 FFFFFFFF 		.word	-1
  63 009c 09005055 		.word	1431306249
  64 00a0 FFFE0000 		.word	65279
  65 00a4 000DDD6D 		.word	1843203328
  66 00a8 60AAAAAA 		.word	-1431655840
  67 00ac 00000000 		.word	0
  68 00b0 00000000 		.word	0
  69 00b4 FFFFFFFF 		.word	-1
  70 00b8 00000000 		.word	0
  71 00bc FFFFFFFF 		.word	-1
  72 00c0 00000000 		.word	0
  73 00c4 FFFF0000 		.word	65535
  74 00c8 00000000 		.word	0
  75 00cc 00000000 		.word	0
  76 00d0 00000000 		.word	0
  77 00d4 00000000 		.word	0
  78 00d8 FFFFFFFD 		.word	-33554433
  79 00dc 00000000 		.word	0
  80 00e0 00000000 		.word	0
  81 00e4 00000000 		.word	0
  82 00e8 FFFF0000 		.word	65535
  83 00ec 00000000 		.word	0
  84 00f0 00000000 		.word	0
  85 00f4 00000000 		.word	0
  86 00f8 00000000 		.word	0
  87 00fc FDFFFFFF 		.word	-3
  88 0100 00000000 		.word	0
  89 0104 03000000 		.word	3
  90 0108 00000000 		.word	0
  91 010c FFFF0000 		.word	65535
  92 0110 00000000 		.word	0
  93 0114 00000000 		.word	0
  94 0118 00000000 		.word	0
  95 011c 00000000 		.word	0
  96              		.text
  97              		.align	2
  98              		.p2align 4,,15
  99              		.global	__early_init
 100              		.thumb
 101              		.thumb_func
 102              		.type	__early_init, %function
 103              	__early_init:
 104              	.LFB267:
 105              		.file 1 "../../ChibiOS/os/hal/boards/ST_SENSORTILE/board.c"
 106              		.loc 1 80 0
 107              		.cfi_startproc
 108              		@ args = 0, pretend = 0, frame = 0
 109              		@ frame_needed = 0, uses_anonymous_args = 0
 110 0000 08B5     		push	{r3, lr}
 111              		.cfi_def_cfa_offset 8
 112              		.cfi_offset 3, -8
 113              		.cfi_offset 14, -4
 114              		.loc 1 82 0
ARM GAS  /tmp/ccbXU7U4.s 			page 3


 115 0002 FFF7FEFF 		bl	stm32_clock_init
 116              		.loc 1 83 0
 117 0006 08BD     		pop	{r3, pc}
 118              		.cfi_endproc
 119              	.LFE267:
 120              		.size	__early_init, .-__early_init
 121              		.align	2
 122 0008 AFF30080 		.p2align 4,,15
 122      AFF30080 
 123              		.global	sdc_lld_is_card_inserted
 124              		.thumb
 125              		.thumb_func
 126              		.type	sdc_lld_is_card_inserted, %function
 127              	sdc_lld_is_card_inserted:
 128              	.LFB268:
 129              		.loc 1 89 0
 130              		.cfi_startproc
 131              		@ args = 0, pretend = 0, frame = 8
 132              		@ frame_needed = 0, uses_anonymous_args = 0
 133              		@ link register save eliminated.
 134 0010 82B0     		sub	sp, sp, #8
 135              		.cfi_def_cfa_offset 8
 136 0012 0190     		str	r0, [sp, #4]
 137              		.loc 1 93 0
 138 0014 0123     		movs	r3, #1
 139              		.loc 1 94 0
 140 0016 1846     		mov	r0, r3
 141 0018 02B0     		add	sp, sp, #8
 142              		@ sp needed
 143 001a 7047     		bx	lr
 144              		.cfi_endproc
 145              	.LFE268:
 146              		.size	sdc_lld_is_card_inserted, .-sdc_lld_is_card_inserted
 147              		.align	2
 148 001c AFF30080 		.p2align 4,,15
 149              		.global	sdc_lld_is_write_protected
 150              		.thumb
 151              		.thumb_func
 152              		.type	sdc_lld_is_write_protected, %function
 153              	sdc_lld_is_write_protected:
 154              	.LFB269:
 155              		.loc 1 99 0
 156              		.cfi_startproc
 157              		@ args = 0, pretend = 0, frame = 8
 158              		@ frame_needed = 0, uses_anonymous_args = 0
 159              		@ link register save eliminated.
 160 0020 82B0     		sub	sp, sp, #8
 161              		.cfi_def_cfa_offset 8
 162 0022 0190     		str	r0, [sp, #4]
 163              		.loc 1 103 0
 164 0024 0023     		movs	r3, #0
 165              		.loc 1 104 0
 166 0026 1846     		mov	r0, r3
 167 0028 02B0     		add	sp, sp, #8
 168              		@ sp needed
 169 002a 7047     		bx	lr
 170              		.cfi_endproc
ARM GAS  /tmp/ccbXU7U4.s 			page 4


 171              	.LFE269:
 172              		.size	sdc_lld_is_write_protected, .-sdc_lld_is_write_protected
 173              		.align	2
 174 002c AFF30080 		.p2align 4,,15
 175              		.global	boardInit
 176              		.thumb
 177              		.thumb_func
 178              		.type	boardInit, %function
 179              	boardInit:
 180              	.LFB270:
 181              		.loc 1 133 0
 182              		.cfi_startproc
 183              		@ args = 0, pretend = 0, frame = 0
 184              		@ frame_needed = 0, uses_anonymous_args = 0
 185              		@ link register save eliminated.
 186              		.loc 1 134 0
 187 0030 7047     		bx	lr
 188              		.cfi_endproc
 189              	.LFE270:
 190              		.size	boardInit, .-boardInit
 191              	.Letext0:
 192              		.file 2 "/nfs/nfs5/home/research/hardware/arm2/gcc-arm-embedded/gcc-arm-none-eabi-4_8-2014q2/lib/g
 193              		.file 3 "/nfs/nfs5/home/research/hardware/arm2/gcc-arm-embedded/gcc-arm-none-eabi-4_8-2014q2/arm-n
 194              		.file 4 "/nfs/nfs5/home/research/hardware/arm2/gcc-arm-embedded/gcc-arm-none-eabi-4_8-2014q2/arm-n
 195              		.file 5 "../../ChibiOS/os/rt/ports/ARMCMx/compilers/GCC/chtypes.h"
 196              		.file 6 "../../ChibiOS/os/rt/include/chsystypes.h"
 197              		.file 7 "../../ChibiOS/os/rt/include/chschd.h"
 198              		.file 8 "../../ChibiOS/os/ext/CMSIS/ST/STM32L4xx/stm32l476xx.h"
 199              		.file 9 "../../ChibiOS/os/rt/ports/ARMCMx/chcore.h"
 200              		.file 10 "../../ChibiOS/os/rt/ports/ARMCMx/chcore_v7m.h"
 201              		.file 11 "../../ChibiOS/os/rt/include/chtm.h"
 202              		.file 12 "../../ChibiOS/os/rt/include/chsem.h"
 203              		.file 13 "../../ChibiOS/os/rt/include/chmtx.h"
 204              		.file 14 "../../ChibiOS/os/hal/ports/STM32/LLD/DMAv1/stm32_dma.h"
 205              		.file 15 "../../ChibiOS/os/hal/include/hal_ioblock.h"
 206              		.file 16 "../../ChibiOS/os/hal/ports/STM32/LLD/GPIOv3/pal_lld.h"
 207              		.file 17 "../../ChibiOS/os/hal/include/sdc.h"
 208              		.file 18 "../../ChibiOS/os/hal/ports/STM32/LLD/SDMMCv1/sdc_lld.h"
 209              		.file 19 "../../ChibiOS/os/ext/CMSIS/include/core_cm4.h"
 210 0032 00BFAFF3 		.section	.debug_info,"",%progbits
 210      0080AFF3 
 210      0080AFF3 
 210      0080
 211              	.Ldebug_info0:
 212 0000 EF0C0000 		.4byte	0xcef
 213 0004 0400     		.2byte	0x4
 214 0006 00000000 		.4byte	.Ldebug_abbrev0
 215 000a 04       		.byte	0x4
 216 000b 01       		.uleb128 0x1
 217 000c 4B000000 		.4byte	.LASF200
 218 0010 01       		.byte	0x1
 219 0011 18060000 		.4byte	.LASF201
 220 0015 3D010000 		.4byte	.LASF202
 221 0019 00000000 		.4byte	.Ltext0
 222 001d 32000000 		.4byte	.Letext0-.Ltext0
 223 0021 00000000 		.4byte	.Ldebug_line0
 224 0025 02       		.uleb128 0x2
ARM GAS  /tmp/ccbXU7U4.s 			page 5


 225 0026 04       		.byte	0x4
 226 0027 05       		.byte	0x5
 227 0028 696E7400 		.ascii	"int\000"
 228 002c 03       		.uleb128 0x3
 229 002d 35000000 		.4byte	.LASF2
 230 0031 02       		.byte	0x2
 231 0032 D4       		.byte	0xd4
 232 0033 37000000 		.4byte	0x37
 233 0037 04       		.uleb128 0x4
 234 0038 04       		.byte	0x4
 235 0039 07       		.byte	0x7
 236 003a 47030000 		.4byte	.LASF0
 237 003e 04       		.uleb128 0x4
 238 003f 01       		.byte	0x1
 239 0040 06       		.byte	0x6
 240 0041 19020000 		.4byte	.LASF1
 241 0045 03       		.uleb128 0x3
 242 0046 08010000 		.4byte	.LASF3
 243 004a 03       		.byte	0x3
 244 004b 1C       		.byte	0x1c
 245 004c 50000000 		.4byte	0x50
 246 0050 04       		.uleb128 0x4
 247 0051 01       		.byte	0x1
 248 0052 08       		.byte	0x8
 249 0053 E3050000 		.4byte	.LASF4
 250 0057 04       		.uleb128 0x4
 251 0058 02       		.byte	0x2
 252 0059 05       		.byte	0x5
 253 005a 0E060000 		.4byte	.LASF5
 254 005e 04       		.uleb128 0x4
 255 005f 02       		.byte	0x2
 256 0060 07       		.byte	0x7
 257 0061 B2030000 		.4byte	.LASF6
 258 0065 03       		.uleb128 0x3
 259 0066 61040000 		.4byte	.LASF7
 260 006a 03       		.byte	0x3
 261 006b 37       		.byte	0x37
 262 006c 70000000 		.4byte	0x70
 263 0070 04       		.uleb128 0x4
 264 0071 04       		.byte	0x4
 265 0072 05       		.byte	0x5
 266 0073 92020000 		.4byte	.LASF8
 267 0077 03       		.uleb128 0x3
 268 0078 7D070000 		.4byte	.LASF9
 269 007c 03       		.byte	0x3
 270 007d 38       		.byte	0x38
 271 007e 82000000 		.4byte	0x82
 272 0082 04       		.uleb128 0x4
 273 0083 04       		.byte	0x4
 274 0084 07       		.byte	0x7
 275 0085 3F020000 		.4byte	.LASF10
 276 0089 04       		.uleb128 0x4
 277 008a 08       		.byte	0x8
 278 008b 05       		.byte	0x5
 279 008c 0B020000 		.4byte	.LASF11
 280 0090 03       		.uleb128 0x3
 281 0091 5D050000 		.4byte	.LASF12
ARM GAS  /tmp/ccbXU7U4.s 			page 6


 282 0095 03       		.byte	0x3
 283 0096 4E       		.byte	0x4e
 284 0097 9B000000 		.4byte	0x9b
 285 009b 04       		.uleb128 0x4
 286 009c 08       		.byte	0x8
 287 009d 07       		.byte	0x7
 288 009e 84010000 		.4byte	.LASF13
 289 00a2 03       		.uleb128 0x3
 290 00a3 40080000 		.4byte	.LASF14
 291 00a7 04       		.byte	0x4
 292 00a8 2A       		.byte	0x2a
 293 00a9 45000000 		.4byte	0x45
 294 00ad 03       		.uleb128 0x3
 295 00ae DB050000 		.4byte	.LASF15
 296 00b2 04       		.byte	0x4
 297 00b3 41       		.byte	0x41
 298 00b4 65000000 		.4byte	0x65
 299 00b8 03       		.uleb128 0x3
 300 00b9 F1060000 		.4byte	.LASF16
 301 00bd 04       		.byte	0x4
 302 00be 42       		.byte	0x42
 303 00bf 77000000 		.4byte	0x77
 304 00c3 03       		.uleb128 0x3
 305 00c4 F5000000 		.4byte	.LASF17
 306 00c8 04       		.byte	0x4
 307 00c9 4E       		.byte	0x4e
 308 00ca 90000000 		.4byte	0x90
 309 00ce 03       		.uleb128 0x3
 310 00cf CD070000 		.4byte	.LASF18
 311 00d3 05       		.byte	0x5
 312 00d4 39       		.byte	0x39
 313 00d5 B8000000 		.4byte	0xb8
 314 00d9 03       		.uleb128 0x3
 315 00da 87060000 		.4byte	.LASF19
 316 00de 05       		.byte	0x5
 317 00df 3C       		.byte	0x3c
 318 00e0 A2000000 		.4byte	0xa2
 319 00e4 03       		.uleb128 0x3
 320 00e5 A9020000 		.4byte	.LASF20
 321 00e9 05       		.byte	0x5
 322 00ea 3D       		.byte	0x3d
 323 00eb A2000000 		.4byte	0xa2
 324 00ef 03       		.uleb128 0x3
 325 00f0 70050000 		.4byte	.LASF21
 326 00f4 05       		.byte	0x5
 327 00f5 3E       		.byte	0x3e
 328 00f6 A2000000 		.4byte	0xa2
 329 00fa 03       		.uleb128 0x3
 330 00fb 72020000 		.4byte	.LASF22
 331 00ff 05       		.byte	0x5
 332 0100 3F       		.byte	0x3f
 333 0101 A2000000 		.4byte	0xa2
 334 0105 03       		.uleb128 0x3
 335 0106 B6050000 		.4byte	.LASF23
 336 010a 05       		.byte	0x5
 337 010b 40       		.byte	0x40
 338 010c B8000000 		.4byte	0xb8
ARM GAS  /tmp/ccbXU7U4.s 			page 7


 339 0110 03       		.uleb128 0x3
 340 0111 FC030000 		.4byte	.LASF24
 341 0115 05       		.byte	0x5
 342 0116 41       		.byte	0x41
 343 0117 AD000000 		.4byte	0xad
 344 011b 03       		.uleb128 0x3
 345 011c 55040000 		.4byte	.LASF25
 346 0120 05       		.byte	0x5
 347 0121 43       		.byte	0x43
 348 0122 B8000000 		.4byte	0xb8
 349 0126 03       		.uleb128 0x3
 350 0127 41030000 		.4byte	.LASF26
 351 012b 05       		.byte	0x5
 352 012c 45       		.byte	0x45
 353 012d AD000000 		.4byte	0xad
 354 0131 03       		.uleb128 0x3
 355 0132 5F070000 		.4byte	.LASF27
 356 0136 06       		.byte	0x6
 357 0137 33       		.byte	0x33
 358 0138 B8000000 		.4byte	0xb8
 359 013c 03       		.uleb128 0x3
 360 013d 4F070000 		.4byte	.LASF28
 361 0141 06       		.byte	0x6
 362 0142 3F       		.byte	0x3f
 363 0143 47010000 		.4byte	0x147
 364 0147 05       		.uleb128 0x5
 365 0148 D7030000 		.4byte	.LASF49
 366 014c 44       		.byte	0x44
 367 014d 07       		.byte	0x7
 368 014e C2       		.byte	0xc2
 369 014f 40020000 		.4byte	0x240
 370 0153 06       		.uleb128 0x6
 371 0154 80060000 		.4byte	.LASF29
 372 0158 07       		.byte	0x7
 373 0159 C3       		.byte	0xc3
 374 015a 4B020000 		.4byte	0x24b
 375 015e 00       		.byte	0
 376 015f 06       		.uleb128 0x6
 377 0160 9C050000 		.4byte	.LASF30
 378 0164 07       		.byte	0x7
 379 0165 C5       		.byte	0xc5
 380 0166 4B020000 		.4byte	0x24b
 381 016a 04       		.byte	0x4
 382 016b 06       		.uleb128 0x6
 383 016c 04020000 		.4byte	.LASF31
 384 0170 07       		.byte	0x7
 385 0171 C7       		.byte	0xc7
 386 0172 05010000 		.4byte	0x105
 387 0176 08       		.byte	0x8
 388 0177 06       		.uleb128 0x6
 389 0178 BD080000 		.4byte	.LASF32
 390 017c 07       		.byte	0x7
 391 017d C8       		.byte	0xc8
 392 017e 49060000 		.4byte	0x649
 393 0182 0C       		.byte	0xc
 394 0183 06       		.uleb128 0x6
 395 0184 C0020000 		.4byte	.LASF33
ARM GAS  /tmp/ccbXU7U4.s 			page 8


 396 0188 07       		.byte	0x7
 397 0189 CA       		.byte	0xca
 398 018a 4B020000 		.4byte	0x24b
 399 018e 10       		.byte	0x10
 400 018f 06       		.uleb128 0x6
 401 0190 0E050000 		.4byte	.LASF34
 402 0194 07       		.byte	0x7
 403 0195 CB       		.byte	0xcb
 404 0196 4B020000 		.4byte	0x24b
 405 019a 14       		.byte	0x14
 406 019b 06       		.uleb128 0x6
 407 019c 9C060000 		.4byte	.LASF35
 408 01a0 07       		.byte	0x7
 409 01a1 D2       		.byte	0xd2
 410 01a2 C8070000 		.4byte	0x7c8
 411 01a6 18       		.byte	0x18
 412 01a7 06       		.uleb128 0x6
 413 01a8 FC050000 		.4byte	.LASF36
 414 01ac 07       		.byte	0x7
 415 01ad DD       		.byte	0xdd
 416 01ae E4000000 		.4byte	0xe4
 417 01b2 1C       		.byte	0x1c
 418 01b3 06       		.uleb128 0x6
 419 01b4 80080000 		.4byte	.LASF37
 420 01b8 07       		.byte	0x7
 421 01b9 E1       		.byte	0xe1
 422 01ba D9000000 		.4byte	0xd9
 423 01be 1D       		.byte	0x1d
 424 01bf 06       		.uleb128 0x6
 425 01c0 18080000 		.4byte	.LASF38
 426 01c4 07       		.byte	0x7
 427 01c5 E6       		.byte	0xe6
 428 01c6 EF000000 		.4byte	0xef
 429 01ca 1E       		.byte	0x1e
 430 01cb 06       		.uleb128 0x6
 431 01cc 56060000 		.4byte	.LASF39
 432 01d0 07       		.byte	0x7
 433 01d1 EC       		.byte	0xec
 434 01d2 FA000000 		.4byte	0xfa
 435 01d6 1F       		.byte	0x1f
 436 01d7 07       		.uleb128 0x7
 437 01d8 705F7500 		.ascii	"p_u\000"
 438 01dc 07       		.byte	0x7
 439 01dd 3101     		.2byte	0x131
 440 01df 03070000 		.4byte	0x703
 441 01e3 20       		.byte	0x20
 442 01e4 08       		.uleb128 0x8
 443 01e5 A4040000 		.4byte	.LASF40
 444 01e9 07       		.byte	0x7
 445 01ea 3601     		.2byte	0x136
 446 01ec 51020000 		.4byte	0x251
 447 01f0 24       		.byte	0x24
 448 01f1 08       		.uleb128 0x8
 449 01f2 68030000 		.4byte	.LASF41
 450 01f6 07       		.byte	0x7
 451 01f7 3C01     		.2byte	0x13c
 452 01f9 75020000 		.4byte	0x275
ARM GAS  /tmp/ccbXU7U4.s 			page 9


 453 01fd 28       		.byte	0x28
 454 01fe 08       		.uleb128 0x8
 455 01ff 92080000 		.4byte	.LASF42
 456 0203 07       		.byte	0x7
 457 0204 4001     		.2byte	0x140
 458 0206 10010000 		.4byte	0x110
 459 020a 30       		.byte	0x30
 460 020b 08       		.uleb128 0x8
 461 020c E6060000 		.4byte	.LASF43
 462 0210 07       		.byte	0x7
 463 0211 4601     		.2byte	0x146
 464 0213 1B010000 		.4byte	0x11b
 465 0217 34       		.byte	0x34
 466 0218 08       		.uleb128 0x8
 467 0219 04060000 		.4byte	.LASF44
 468 021d 07       		.byte	0x7
 469 021e 4D01     		.2byte	0x14d
 470 0220 C2070000 		.4byte	0x7c2
 471 0224 38       		.byte	0x38
 472 0225 08       		.uleb128 0x8
 473 0226 69070000 		.4byte	.LASF45
 474 022a 07       		.byte	0x7
 475 022b 5101     		.2byte	0x151
 476 022d 05010000 		.4byte	0x105
 477 0231 3C       		.byte	0x3c
 478 0232 08       		.uleb128 0x8
 479 0233 51020000 		.4byte	.LASF46
 480 0237 07       		.byte	0x7
 481 0238 5801     		.2byte	0x158
 482 023a 28030000 		.4byte	0x328
 483 023e 40       		.byte	0x40
 484 023f 00       		.byte	0
 485 0240 03       		.uleb128 0x3
 486 0241 C3040000 		.4byte	.LASF47
 487 0245 06       		.byte	0x6
 488 0246 44       		.byte	0x44
 489 0247 4B020000 		.4byte	0x24b
 490 024b 09       		.uleb128 0x9
 491 024c 04       		.byte	0x4
 492 024d 3C010000 		.4byte	0x13c
 493 0251 03       		.uleb128 0x3
 494 0252 7D040000 		.4byte	.LASF48
 495 0256 06       		.byte	0x6
 496 0257 49       		.byte	0x49
 497 0258 5C020000 		.4byte	0x25c
 498 025c 05       		.uleb128 0x5
 499 025d 12070000 		.4byte	.LASF50
 500 0261 04       		.byte	0x4
 501 0262 07       		.byte	0x7
 502 0263 B0       		.byte	0xb0
 503 0264 75020000 		.4byte	0x275
 504 0268 06       		.uleb128 0x6
 505 0269 80060000 		.4byte	.LASF29
 506 026d 07       		.byte	0x7
 507 026e B1       		.byte	0xb1
 508 026f 4B020000 		.4byte	0x24b
 509 0273 00       		.byte	0
ARM GAS  /tmp/ccbXU7U4.s 			page 10


 510 0274 00       		.byte	0
 511 0275 03       		.uleb128 0x3
 512 0276 FF070000 		.4byte	.LASF51
 513 027a 06       		.byte	0x6
 514 027b 50       		.byte	0x50
 515 027c 80020000 		.4byte	0x280
 516 0280 05       		.uleb128 0x5
 517 0281 F3010000 		.4byte	.LASF52
 518 0285 08       		.byte	0x8
 519 0286 07       		.byte	0x7
 520 0287 B7       		.byte	0xb7
 521 0288 A5020000 		.4byte	0x2a5
 522 028c 06       		.uleb128 0x6
 523 028d 80060000 		.4byte	.LASF29
 524 0291 07       		.byte	0x7
 525 0292 B8       		.byte	0xb8
 526 0293 4B020000 		.4byte	0x24b
 527 0297 00       		.byte	0
 528 0298 06       		.uleb128 0x6
 529 0299 9C050000 		.4byte	.LASF30
 530 029d 07       		.byte	0x7
 531 029e B9       		.byte	0xb9
 532 029f 4B020000 		.4byte	0x24b
 533 02a3 04       		.byte	0x4
 534 02a4 00       		.byte	0
 535 02a5 03       		.uleb128 0x3
 536 02a6 28000000 		.4byte	.LASF53
 537 02aa 06       		.byte	0x6
 538 02ab 57       		.byte	0x57
 539 02ac B0020000 		.4byte	0x2b0
 540 02b0 0A       		.uleb128 0xa
 541 02b1 47040000 		.4byte	.LASF54
 542 02b5 1C       		.byte	0x1c
 543 02b6 07       		.byte	0x7
 544 02b7 9001     		.2byte	0x190
 545 02b9 0C030000 		.4byte	0x30c
 546 02bd 08       		.uleb128 0x8
 547 02be 01070000 		.4byte	.LASF55
 548 02c2 07       		.byte	0x7
 549 02c3 9101     		.2byte	0x191
 550 02c5 75020000 		.4byte	0x275
 551 02c9 00       		.byte	0
 552 02ca 08       		.uleb128 0x8
 553 02cb 60060000 		.4byte	.LASF56
 554 02cf 07       		.byte	0x7
 555 02d0 9201     		.2byte	0x192
 556 02d2 05010000 		.4byte	0x105
 557 02d6 08       		.byte	0x8
 558 02d7 08       		.uleb128 0x8
 559 02d8 22050000 		.4byte	.LASF57
 560 02dc 07       		.byte	0x7
 561 02dd 9401     		.2byte	0x194
 562 02df 49060000 		.4byte	0x649
 563 02e3 0C       		.byte	0xc
 564 02e4 08       		.uleb128 0x8
 565 02e5 E4020000 		.4byte	.LASF58
 566 02e9 07       		.byte	0x7
ARM GAS  /tmp/ccbXU7U4.s 			page 11


 567 02ea 9701     		.2byte	0x197
 568 02ec 4B020000 		.4byte	0x24b
 569 02f0 10       		.byte	0x10
 570 02f1 08       		.uleb128 0x8
 571 02f2 55050000 		.4byte	.LASF59
 572 02f6 07       		.byte	0x7
 573 02f7 9801     		.2byte	0x198
 574 02f9 4B020000 		.4byte	0x24b
 575 02fd 14       		.byte	0x14
 576 02fe 08       		.uleb128 0x8
 577 02ff 4B050000 		.4byte	.LASF60
 578 0303 07       		.byte	0x7
 579 0304 9B01     		.2byte	0x19b
 580 0306 4B020000 		.4byte	0x24b
 581 030a 18       		.byte	0x18
 582 030b 00       		.byte	0
 583 030c 03       		.uleb128 0x3
 584 030d 74070000 		.4byte	.LASF61
 585 0311 06       		.byte	0x6
 586 0312 5C       		.byte	0x5c
 587 0313 17030000 		.4byte	0x317
 588 0317 09       		.uleb128 0x9
 589 0318 04       		.byte	0x4
 590 0319 1D030000 		.4byte	0x31d
 591 031d 0B       		.uleb128 0xb
 592 031e 28030000 		.4byte	0x328
 593 0322 0C       		.uleb128 0xc
 594 0323 28030000 		.4byte	0x328
 595 0327 00       		.byte	0
 596 0328 0D       		.uleb128 0xd
 597 0329 04       		.byte	0x4
 598 032a 03       		.uleb128 0x3
 599 032b 8C050000 		.4byte	.LASF62
 600 032f 06       		.byte	0x6
 601 0330 61       		.byte	0x61
 602 0331 35030000 		.4byte	0x335
 603 0335 0A       		.uleb128 0xa
 604 0336 B6060000 		.4byte	.LASF63
 605 033a 14       		.byte	0x14
 606 033b 07       		.byte	0x7
 607 033c 6B01     		.2byte	0x16b
 608 033e 84030000 		.4byte	0x384
 609 0342 08       		.uleb128 0x8
 610 0343 54030000 		.4byte	.LASF64
 611 0347 07       		.byte	0x7
 612 0348 6C01     		.2byte	0x16c
 613 034a DA070000 		.4byte	0x7da
 614 034e 00       		.byte	0
 615 034f 08       		.uleb128 0x8
 616 0350 F5020000 		.4byte	.LASF65
 617 0354 07       		.byte	0x7
 618 0355 6D01     		.2byte	0x16d
 619 0357 DA070000 		.4byte	0x7da
 620 035b 04       		.byte	0x4
 621 035c 08       		.uleb128 0x8
 622 035d 09070000 		.4byte	.LASF66
 623 0361 07       		.byte	0x7
ARM GAS  /tmp/ccbXU7U4.s 			page 12


 624 0362 6E01     		.2byte	0x16e
 625 0364 31010000 		.4byte	0x131
 626 0368 08       		.byte	0x8
 627 0369 08       		.uleb128 0x8
 628 036a C3080000 		.4byte	.LASF67
 629 036e 07       		.byte	0x7
 630 036f 6F01     		.2byte	0x16f
 631 0371 0C030000 		.4byte	0x30c
 632 0375 0C       		.byte	0xc
 633 0376 08       		.uleb128 0x8
 634 0377 EC070000 		.4byte	.LASF68
 635 037b 07       		.byte	0x7
 636 037c 7101     		.2byte	0x171
 637 037e 28030000 		.4byte	0x328
 638 0382 10       		.byte	0x10
 639 0383 00       		.byte	0
 640 0384 03       		.uleb128 0x3
 641 0385 C5010000 		.4byte	.LASF69
 642 0389 06       		.byte	0x6
 643 038a 66       		.byte	0x66
 644 038b 8F030000 		.4byte	0x38f
 645 038f 0A       		.uleb128 0xa
 646 0390 D6040000 		.4byte	.LASF70
 647 0394 10       		.byte	0x10
 648 0395 07       		.byte	0x7
 649 0396 7B01     		.2byte	0x17b
 650 0398 D1030000 		.4byte	0x3d1
 651 039c 08       		.uleb128 0x8
 652 039d 54030000 		.4byte	.LASF64
 653 03a1 07       		.byte	0x7
 654 03a2 7C01     		.2byte	0x17c
 655 03a4 DA070000 		.4byte	0x7da
 656 03a8 00       		.byte	0
 657 03a9 08       		.uleb128 0x8
 658 03aa F5020000 		.4byte	.LASF65
 659 03ae 07       		.byte	0x7
 660 03af 7E01     		.2byte	0x17e
 661 03b1 DA070000 		.4byte	0x7da
 662 03b5 04       		.byte	0x4
 663 03b6 08       		.uleb128 0x8
 664 03b7 09070000 		.4byte	.LASF66
 665 03bb 07       		.byte	0x7
 666 03bc 8001     		.2byte	0x180
 667 03be 31010000 		.4byte	0x131
 668 03c2 08       		.byte	0x8
 669 03c3 08       		.uleb128 0x8
 670 03c4 75080000 		.4byte	.LASF71
 671 03c8 07       		.byte	0x7
 672 03c9 8201     		.2byte	0x182
 673 03cb E0070000 		.4byte	0x7e0
 674 03cf 0C       		.byte	0xc
 675 03d0 00       		.byte	0
 676 03d1 03       		.uleb128 0x3
 677 03d2 1E010000 		.4byte	.LASF72
 678 03d6 06       		.byte	0x6
 679 03d7 6B       		.byte	0x6b
 680 03d8 DC030000 		.4byte	0x3dc
ARM GAS  /tmp/ccbXU7U4.s 			page 13


 681 03dc 0A       		.uleb128 0xa
 682 03dd C5050000 		.4byte	.LASF73
 683 03e1 04       		.byte	0x4
 684 03e2 07       		.byte	0x7
 685 03e3 A201     		.2byte	0x1a2
 686 03e5 F7030000 		.4byte	0x3f7
 687 03e9 08       		.uleb128 0x8
 688 03ea 8F070000 		.4byte	.LASF74
 689 03ee 07       		.byte	0x7
 690 03ef AA01     		.2byte	0x1aa
 691 03f1 E5070000 		.4byte	0x7e5
 692 03f5 00       		.byte	0
 693 03f6 00       		.byte	0
 694 03f7 03       		.uleb128 0x3
 695 03f8 B6070000 		.4byte	.LASF75
 696 03fc 06       		.byte	0x6
 697 03fd 70       		.byte	0x70
 698 03fe 02040000 		.4byte	0x402
 699 0402 0E       		.uleb128 0xe
 700 0403 88020000 		.4byte	.LASF76
 701 0407 5001     		.2byte	0x150
 702 0409 07       		.byte	0x7
 703 040a C201     		.2byte	0x1c2
 704 040c 5E040000 		.4byte	0x45e
 705 0410 08       		.uleb128 0x8
 706 0411 3A080000 		.4byte	.LASF77
 707 0415 07       		.byte	0x7
 708 0416 C601     		.2byte	0x1c6
 709 0418 A5020000 		.4byte	0x2a5
 710 041c 00       		.byte	0
 711 041d 08       		.uleb128 0x8
 712 041e FD020000 		.4byte	.LASF78
 713 0422 07       		.byte	0x7
 714 0423 CA01     		.2byte	0x1ca
 715 0425 84030000 		.4byte	0x384
 716 0429 1C       		.byte	0x1c
 717 042a 07       		.uleb128 0x7
 718 042b 64626700 		.ascii	"dbg\000"
 719 042f 07       		.byte	0x7
 720 0430 CE01     		.2byte	0x1ce
 721 0432 D1030000 		.4byte	0x3d1
 722 0436 2C       		.byte	0x2c
 723 0437 08       		.uleb128 0x8
 724 0438 B1010000 		.4byte	.LASF79
 725 043c 07       		.byte	0x7
 726 043d D201     		.2byte	0x1d2
 727 043f 3C010000 		.4byte	0x13c
 728 0443 30       		.byte	0x30
 729 0444 07       		.uleb128 0x7
 730 0445 746D00   		.ascii	"tm\000"
 731 0448 07       		.byte	0x7
 732 0449 D701     		.2byte	0x1d7
 733 044b F8060000 		.4byte	0x6f8
 734 044f 74       		.byte	0x74
 735 0450 08       		.uleb128 0x8
 736 0451 26030000 		.4byte	.LASF80
 737 0455 07       		.byte	0x7
ARM GAS  /tmp/ccbXU7U4.s 			page 14


 738 0456 E301     		.2byte	0x1e3
 739 0458 EA070000 		.4byte	0x7ea
 740 045c 78       		.byte	0x78
 741 045d 00       		.byte	0
 742 045e 04       		.uleb128 0x4
 743 045f 04       		.byte	0x4
 744 0460 07       		.byte	0x7
 745 0461 BA040000 		.4byte	.LASF81
 746 0465 0F       		.uleb128 0xf
 747 0466 B8000000 		.4byte	0xb8
 748 046a 10       		.uleb128 0x10
 749 046b 65040000 		.4byte	0x465
 750 046f 11       		.uleb128 0x11
 751 0470 B8000000 		.4byte	0xb8
 752 0474 7F040000 		.4byte	0x47f
 753 0478 12       		.uleb128 0x12
 754 0479 5E040000 		.4byte	0x45e
 755 047d 01       		.byte	0x1
 756 047e 00       		.byte	0
 757 047f 11       		.uleb128 0x11
 758 0480 B8000000 		.4byte	0xb8
 759 0484 8F040000 		.4byte	0x48f
 760 0488 12       		.uleb128 0x12
 761 0489 5E040000 		.4byte	0x45e
 762 048d 03       		.byte	0x3
 763 048e 00       		.byte	0
 764 048f 13       		.uleb128 0x13
 765 0490 10       		.byte	0x10
 766 0491 08       		.byte	0x8
 767 0492 A701     		.2byte	0x1a7
 768 0494 CD040000 		.4byte	0x4cd
 769 0498 07       		.uleb128 0x7
 770 0499 43435200 		.ascii	"CCR\000"
 771 049d 08       		.byte	0x8
 772 049e A901     		.2byte	0x1a9
 773 04a0 65040000 		.4byte	0x465
 774 04a4 00       		.byte	0
 775 04a5 08       		.uleb128 0x8
 776 04a6 1F080000 		.4byte	.LASF82
 777 04aa 08       		.byte	0x8
 778 04ab AA01     		.2byte	0x1aa
 779 04ad 65040000 		.4byte	0x465
 780 04b1 04       		.byte	0x4
 781 04b2 08       		.uleb128 0x8
 782 04b3 63030000 		.4byte	.LASF83
 783 04b7 08       		.byte	0x8
 784 04b8 AB01     		.2byte	0x1ab
 785 04ba 65040000 		.4byte	0x465
 786 04be 08       		.byte	0x8
 787 04bf 08       		.uleb128 0x8
 788 04c0 25080000 		.4byte	.LASF84
 789 04c4 08       		.byte	0x8
 790 04c5 AC01     		.2byte	0x1ac
 791 04c7 65040000 		.4byte	0x465
 792 04cb 0C       		.byte	0xc
 793 04cc 00       		.byte	0
 794 04cd 14       		.uleb128 0x14
ARM GAS  /tmp/ccbXU7U4.s 			page 15


 795 04ce 7B030000 		.4byte	.LASF85
 796 04d2 08       		.byte	0x8
 797 04d3 AD01     		.2byte	0x1ad
 798 04d5 8F040000 		.4byte	0x48f
 799 04d9 13       		.uleb128 0x13
 800 04da 08       		.byte	0x8
 801 04db 08       		.byte	0x8
 802 04dc AF01     		.2byte	0x1af
 803 04de FD040000 		.4byte	0x4fd
 804 04e2 07       		.uleb128 0x7
 805 04e3 49535200 		.ascii	"ISR\000"
 806 04e7 08       		.byte	0x8
 807 04e8 B101     		.2byte	0x1b1
 808 04ea 65040000 		.4byte	0x465
 809 04ee 00       		.byte	0
 810 04ef 08       		.uleb128 0x8
 811 04f0 22070000 		.4byte	.LASF86
 812 04f4 08       		.byte	0x8
 813 04f5 B201     		.2byte	0x1b2
 814 04f7 65040000 		.4byte	0x465
 815 04fb 04       		.byte	0x4
 816 04fc 00       		.byte	0
 817 04fd 14       		.uleb128 0x14
 818 04fe 35030000 		.4byte	.LASF87
 819 0502 08       		.byte	0x8
 820 0503 B301     		.2byte	0x1b3
 821 0505 D9040000 		.4byte	0x4d9
 822 0509 13       		.uleb128 0x13
 823 050a 84       		.byte	0x84
 824 050b 08       		.byte	0x8
 825 050c 4103     		.2byte	0x341
 826 050e 17060000 		.4byte	0x617
 827 0512 08       		.uleb128 0x8
 828 0513 08050000 		.4byte	.LASF88
 829 0517 08       		.byte	0x8
 830 0518 4303     		.2byte	0x343
 831 051a 65040000 		.4byte	0x465
 832 051e 00       		.byte	0
 833 051f 08       		.uleb128 0x8
 834 0520 2A080000 		.4byte	.LASF89
 835 0524 08       		.byte	0x8
 836 0525 4403     		.2byte	0x344
 837 0527 65040000 		.4byte	0x465
 838 052b 04       		.byte	0x4
 839 052c 07       		.uleb128 0x7
 840 052d 41524700 		.ascii	"ARG\000"
 841 0531 08       		.byte	0x8
 842 0532 4503     		.2byte	0x345
 843 0534 65040000 		.4byte	0x465
 844 0538 08       		.byte	0x8
 845 0539 07       		.uleb128 0x7
 846 053a 434D4400 		.ascii	"CMD\000"
 847 053e 08       		.byte	0x8
 848 053f 4603     		.2byte	0x346
 849 0541 65040000 		.4byte	0x465
 850 0545 0C       		.byte	0xc
 851 0546 08       		.uleb128 0x8
ARM GAS  /tmp/ccbXU7U4.s 			page 16


 852 0547 68050000 		.4byte	.LASF90
 853 054b 08       		.byte	0x8
 854 054c 4703     		.2byte	0x347
 855 054e 6A040000 		.4byte	0x46a
 856 0552 10       		.byte	0x10
 857 0553 08       		.uleb128 0x8
 858 0554 10000000 		.4byte	.LASF91
 859 0558 08       		.byte	0x8
 860 0559 4803     		.2byte	0x348
 861 055b 6A040000 		.4byte	0x46a
 862 055f 14       		.byte	0x14
 863 0560 08       		.uleb128 0x8
 864 0561 16000000 		.4byte	.LASF92
 865 0565 08       		.byte	0x8
 866 0566 4903     		.2byte	0x349
 867 0568 6A040000 		.4byte	0x46a
 868 056c 18       		.byte	0x18
 869 056d 08       		.uleb128 0x8
 870 056e 1C000000 		.4byte	.LASF93
 871 0572 08       		.byte	0x8
 872 0573 4A03     		.2byte	0x34a
 873 0575 6A040000 		.4byte	0x46a
 874 0579 1C       		.byte	0x1c
 875 057a 08       		.uleb128 0x8
 876 057b 22000000 		.4byte	.LASF94
 877 057f 08       		.byte	0x8
 878 0580 4B03     		.2byte	0x34b
 879 0582 6A040000 		.4byte	0x46a
 880 0586 20       		.byte	0x20
 881 0587 08       		.uleb128 0x8
 882 0588 88070000 		.4byte	.LASF95
 883 058c 08       		.byte	0x8
 884 058d 4C03     		.2byte	0x34c
 885 058f 65040000 		.4byte	0x465
 886 0593 24       		.byte	0x24
 887 0594 08       		.uleb128 0x8
 888 0595 8C040000 		.4byte	.LASF96
 889 0599 08       		.byte	0x8
 890 059a 4D03     		.2byte	0x34d
 891 059c 65040000 		.4byte	0x465
 892 05a0 28       		.byte	0x28
 893 05a1 08       		.uleb128 0x8
 894 05a2 28050000 		.4byte	.LASF97
 895 05a6 08       		.byte	0x8
 896 05a7 4E03     		.2byte	0x34e
 897 05a9 65040000 		.4byte	0x465
 898 05ad 2C       		.byte	0x2c
 899 05ae 08       		.uleb128 0x8
 900 05af A2020000 		.4byte	.LASF98
 901 05b3 08       		.byte	0x8
 902 05b4 4F03     		.2byte	0x34f
 903 05b6 6A040000 		.4byte	0x46a
 904 05ba 30       		.byte	0x30
 905 05bb 07       		.uleb128 0x7
 906 05bc 53544100 		.ascii	"STA\000"
 907 05c0 08       		.byte	0x8
 908 05c1 5003     		.2byte	0x350
ARM GAS  /tmp/ccbXU7U4.s 			page 17


 909 05c3 6A040000 		.4byte	0x46a
 910 05c7 34       		.byte	0x34
 911 05c8 07       		.uleb128 0x7
 912 05c9 49435200 		.ascii	"ICR\000"
 913 05cd 08       		.byte	0x8
 914 05ce 5103     		.2byte	0x351
 915 05d0 65040000 		.4byte	0x465
 916 05d4 38       		.byte	0x38
 917 05d5 08       		.uleb128 0x8
 918 05d6 B2020000 		.4byte	.LASF99
 919 05da 08       		.byte	0x8
 920 05db 5203     		.2byte	0x352
 921 05dd 65040000 		.4byte	0x465
 922 05e1 3C       		.byte	0x3c
 923 05e2 08       		.uleb128 0x8
 924 05e3 78050000 		.4byte	.LASF100
 925 05e7 08       		.byte	0x8
 926 05e8 5303     		.2byte	0x353
 927 05ea 6F040000 		.4byte	0x46f
 928 05ee 40       		.byte	0x40
 929 05ef 08       		.uleb128 0x8
 930 05f0 ED040000 		.4byte	.LASF101
 931 05f4 08       		.byte	0x8
 932 05f5 5403     		.2byte	0x354
 933 05f7 6A040000 		.4byte	0x46a
 934 05fb 48       		.byte	0x48
 935 05fc 08       		.uleb128 0x8
 936 05fd 82050000 		.4byte	.LASF102
 937 0601 08       		.byte	0x8
 938 0602 5503     		.2byte	0x355
 939 0604 17060000 		.4byte	0x617
 940 0608 4C       		.byte	0x4c
 941 0609 08       		.uleb128 0x8
 942 060a 69080000 		.4byte	.LASF103
 943 060e 08       		.byte	0x8
 944 060f 5603     		.2byte	0x356
 945 0611 65040000 		.4byte	0x465
 946 0615 80       		.byte	0x80
 947 0616 00       		.byte	0
 948 0617 11       		.uleb128 0x11
 949 0618 B8000000 		.4byte	0xb8
 950 061c 27060000 		.4byte	0x627
 951 0620 12       		.uleb128 0x12
 952 0621 5E040000 		.4byte	0x45e
 953 0625 0C       		.byte	0xc
 954 0626 00       		.byte	0
 955 0627 14       		.uleb128 0x14
 956 0628 A4030000 		.4byte	.LASF104
 957 062c 08       		.byte	0x8
 958 062d 5703     		.2byte	0x357
 959 062f 09050000 		.4byte	0x509
 960 0633 03       		.uleb128 0x3
 961 0634 EC020000 		.4byte	.LASF105
 962 0638 09       		.byte	0x9
 963 0639 65       		.byte	0x65
 964 063a 28030000 		.4byte	0x328
 965 063e 03       		.uleb128 0x3
ARM GAS  /tmp/ccbXU7U4.s 			page 18


 966 063f 72040000 		.4byte	.LASF106
 967 0643 09       		.byte	0x9
 968 0644 6D       		.byte	0x6d
 969 0645 C3000000 		.4byte	0xc3
 970 0649 05       		.uleb128 0x5
 971 064a AE070000 		.4byte	.LASF107
 972 064e 04       		.byte	0x4
 973 064f 09       		.byte	0x9
 974 0650 89       		.byte	0x89
 975 0651 62060000 		.4byte	0x662
 976 0655 15       		.uleb128 0x15
 977 0656 72313300 		.ascii	"r13\000"
 978 065a 09       		.byte	0x9
 979 065b 8A       		.byte	0x8a
 980 065c DD060000 		.4byte	0x6dd
 981 0660 00       		.byte	0
 982 0661 00       		.byte	0
 983 0662 05       		.uleb128 0x5
 984 0663 12010000 		.4byte	.LASF108
 985 0667 24       		.byte	0x24
 986 0668 0A       		.byte	0xa
 987 0669 FD       		.byte	0xfd
 988 066a DD060000 		.4byte	0x6dd
 989 066e 07       		.uleb128 0x7
 990 066f 723400   		.ascii	"r4\000"
 991 0672 0A       		.byte	0xa
 992 0673 1001     		.2byte	0x110
 993 0675 33060000 		.4byte	0x633
 994 0679 00       		.byte	0
 995 067a 07       		.uleb128 0x7
 996 067b 723500   		.ascii	"r5\000"
 997 067e 0A       		.byte	0xa
 998 067f 1101     		.2byte	0x111
 999 0681 33060000 		.4byte	0x633
 1000 0685 04       		.byte	0x4
 1001 0686 07       		.uleb128 0x7
 1002 0687 723600   		.ascii	"r6\000"
 1003 068a 0A       		.byte	0xa
 1004 068b 1201     		.2byte	0x112
 1005 068d 33060000 		.4byte	0x633
 1006 0691 08       		.byte	0x8
 1007 0692 07       		.uleb128 0x7
 1008 0693 723700   		.ascii	"r7\000"
 1009 0696 0A       		.byte	0xa
 1010 0697 1301     		.2byte	0x113
 1011 0699 33060000 		.4byte	0x633
 1012 069d 0C       		.byte	0xc
 1013 069e 07       		.uleb128 0x7
 1014 069f 723800   		.ascii	"r8\000"
 1015 06a2 0A       		.byte	0xa
 1016 06a3 1401     		.2byte	0x114
 1017 06a5 33060000 		.4byte	0x633
 1018 06a9 10       		.byte	0x10
 1019 06aa 07       		.uleb128 0x7
 1020 06ab 723900   		.ascii	"r9\000"
 1021 06ae 0A       		.byte	0xa
 1022 06af 1501     		.2byte	0x115
ARM GAS  /tmp/ccbXU7U4.s 			page 19


 1023 06b1 33060000 		.4byte	0x633
 1024 06b5 14       		.byte	0x14
 1025 06b6 07       		.uleb128 0x7
 1026 06b7 72313000 		.ascii	"r10\000"
 1027 06bb 0A       		.byte	0xa
 1028 06bc 1601     		.2byte	0x116
 1029 06be 33060000 		.4byte	0x633
 1030 06c2 18       		.byte	0x18
 1031 06c3 07       		.uleb128 0x7
 1032 06c4 72313100 		.ascii	"r11\000"
 1033 06c8 0A       		.byte	0xa
 1034 06c9 1701     		.2byte	0x117
 1035 06cb 33060000 		.4byte	0x633
 1036 06cf 1C       		.byte	0x1c
 1037 06d0 07       		.uleb128 0x7
 1038 06d1 6C7200   		.ascii	"lr\000"
 1039 06d4 0A       		.byte	0xa
 1040 06d5 1801     		.2byte	0x118
 1041 06d7 33060000 		.4byte	0x633
 1042 06db 20       		.byte	0x20
 1043 06dc 00       		.byte	0
 1044 06dd 09       		.uleb128 0x9
 1045 06de 04       		.byte	0x4
 1046 06df 62060000 		.4byte	0x662
 1047 06e3 16       		.uleb128 0x16
 1048 06e4 04       		.byte	0x4
 1049 06e5 0B       		.byte	0xb
 1050 06e6 38       		.byte	0x38
 1051 06e7 F8060000 		.4byte	0x6f8
 1052 06eb 06       		.uleb128 0x6
 1053 06ec 99070000 		.4byte	.LASF109
 1054 06f0 0B       		.byte	0xb
 1055 06f1 3C       		.byte	0x3c
 1056 06f2 CE000000 		.4byte	0xce
 1057 06f6 00       		.byte	0
 1058 06f7 00       		.byte	0
 1059 06f8 03       		.uleb128 0x3
 1060 06f9 2E050000 		.4byte	.LASF110
 1061 06fd 0B       		.byte	0xb
 1062 06fe 3D       		.byte	0x3d
 1063 06ff E3060000 		.4byte	0x6e3
 1064 0703 17       		.uleb128 0x17
 1065 0704 04       		.byte	0x4
 1066 0705 07       		.byte	0x7
 1067 0706 FA       		.byte	0xfa
 1068 0707 60070000 		.4byte	0x760
 1069 070b 18       		.uleb128 0x18
 1070 070c 44000000 		.4byte	.LASF111
 1071 0710 07       		.byte	0x7
 1072 0711 0101     		.2byte	0x101
 1073 0713 10010000 		.4byte	0x110
 1074 0717 18       		.uleb128 0x18
 1075 0718 A1010000 		.4byte	.LASF112
 1076 071c 07       		.byte	0x7
 1077 071d 0801     		.2byte	0x108
 1078 071f 10010000 		.4byte	0x110
 1079 0723 18       		.uleb128 0x18
ARM GAS  /tmp/ccbXU7U4.s 			page 20


 1080 0724 62080000 		.4byte	.LASF113
 1081 0728 07       		.byte	0x7
 1082 0729 0F01     		.2byte	0x10f
 1083 072b 28030000 		.4byte	0x328
 1084 072f 18       		.uleb128 0x18
 1085 0730 F5040000 		.4byte	.LASF114
 1086 0734 07       		.byte	0x7
 1087 0735 1601     		.2byte	0x116
 1088 0737 60070000 		.4byte	0x760
 1089 073b 18       		.uleb128 0x18
 1090 073c 5C030000 		.4byte	.LASF115
 1091 0740 07       		.byte	0x7
 1092 0741 1E01     		.2byte	0x11e
 1093 0743 8B070000 		.4byte	0x78b
 1094 0747 18       		.uleb128 0x18
 1095 0748 FA060000 		.4byte	.LASF116
 1096 074c 07       		.byte	0x7
 1097 074d 2701     		.2byte	0x127
 1098 074f C2070000 		.4byte	0x7c2
 1099 0753 18       		.uleb128 0x18
 1100 0754 79060000 		.4byte	.LASF117
 1101 0758 07       		.byte	0x7
 1102 0759 2F01     		.2byte	0x12f
 1103 075b 1B010000 		.4byte	0x11b
 1104 075f 00       		.byte	0
 1105 0760 09       		.uleb128 0x9
 1106 0761 04       		.byte	0x4
 1107 0762 40020000 		.4byte	0x240
 1108 0766 05       		.uleb128 0x5
 1109 0767 D1060000 		.4byte	.LASF118
 1110 076b 0C       		.byte	0xc
 1111 076c 0C       		.byte	0xc
 1112 076d 34       		.byte	0x34
 1113 076e 8B070000 		.4byte	0x78b
 1114 0772 06       		.uleb128 0x6
 1115 0773 CE020000 		.4byte	.LASF119
 1116 0777 0C       		.byte	0xc
 1117 0778 35       		.byte	0x35
 1118 0779 75020000 		.4byte	0x275
 1119 077d 00       		.byte	0
 1120 077e 06       		.uleb128 0x6
 1121 077f F6050000 		.4byte	.LASF120
 1122 0783 0C       		.byte	0xc
 1123 0784 37       		.byte	0x37
 1124 0785 26010000 		.4byte	0x126
 1125 0789 08       		.byte	0x8
 1126 078a 00       		.byte	0
 1127 078b 09       		.uleb128 0x9
 1128 078c 04       		.byte	0x4
 1129 078d 66070000 		.4byte	0x766
 1130 0791 05       		.uleb128 0x5
 1131 0792 0F080000 		.4byte	.LASF121
 1132 0796 10       		.byte	0x10
 1133 0797 0D       		.byte	0xd
 1134 0798 39       		.byte	0x39
 1135 0799 C2070000 		.4byte	0x7c2
 1136 079d 06       		.uleb128 0x6
ARM GAS  /tmp/ccbXU7U4.s 			page 21


 1137 079e 59020000 		.4byte	.LASF122
 1138 07a2 0D       		.byte	0xd
 1139 07a3 3A       		.byte	0x3a
 1140 07a4 75020000 		.4byte	0x275
 1141 07a8 00       		.byte	0
 1142 07a9 06       		.uleb128 0x6
 1143 07aa A2080000 		.4byte	.LASF123
 1144 07ae 0D       		.byte	0xd
 1145 07af 3C       		.byte	0x3c
 1146 07b0 4B020000 		.4byte	0x24b
 1147 07b4 08       		.byte	0x8
 1148 07b5 06       		.uleb128 0x6
 1149 07b6 58070000 		.4byte	.LASF124
 1150 07ba 0D       		.byte	0xd
 1151 07bb 3E       		.byte	0x3e
 1152 07bc 05080000 		.4byte	0x805
 1153 07c0 0C       		.byte	0xc
 1154 07c1 00       		.byte	0
 1155 07c2 09       		.uleb128 0x9
 1156 07c3 04       		.byte	0x4
 1157 07c4 91070000 		.4byte	0x791
 1158 07c8 09       		.uleb128 0x9
 1159 07c9 04       		.byte	0x4
 1160 07ca CE070000 		.4byte	0x7ce
 1161 07ce 10       		.uleb128 0x10
 1162 07cf D3070000 		.4byte	0x7d3
 1163 07d3 04       		.uleb128 0x4
 1164 07d4 01       		.byte	0x1
 1165 07d5 08       		.byte	0x8
 1166 07d6 2C070000 		.4byte	.LASF125
 1167 07da 09       		.uleb128 0x9
 1168 07db 04       		.byte	0x4
 1169 07dc 2A030000 		.4byte	0x32a
 1170 07e0 0F       		.uleb128 0xf
 1171 07e1 31010000 		.4byte	0x131
 1172 07e5 0F       		.uleb128 0xf
 1173 07e6 C8070000 		.4byte	0x7c8
 1174 07ea 11       		.uleb128 0x11
 1175 07eb 3E060000 		.4byte	0x63e
 1176 07ef FA070000 		.4byte	0x7fa
 1177 07f3 12       		.uleb128 0x12
 1178 07f4 5E040000 		.4byte	0x45e
 1179 07f8 1A       		.byte	0x1a
 1180 07f9 00       		.byte	0
 1181 07fa 03       		.uleb128 0x3
 1182 07fb 17030000 		.4byte	.LASF126
 1183 07ff 0D       		.byte	0xd
 1184 0800 34       		.byte	0x34
 1185 0801 91070000 		.4byte	0x791
 1186 0805 09       		.uleb128 0x9
 1187 0806 04       		.byte	0x4
 1188 0807 FA070000 		.4byte	0x7fa
 1189 080b 09       		.uleb128 0x9
 1190 080c 04       		.byte	0x4
 1191 080d A2000000 		.4byte	0xa2
 1192 0811 09       		.uleb128 0x9
 1193 0812 04       		.byte	0x4
ARM GAS  /tmp/ccbXU7U4.s 			page 22


 1194 0813 17080000 		.4byte	0x817
 1195 0817 10       		.uleb128 0x10
 1196 0818 A2000000 		.4byte	0xa2
 1197 081c 16       		.uleb128 0x16
 1198 081d 14       		.byte	0x14
 1199 081e 0E       		.byte	0xe
 1200 081f E4       		.byte	0xe4
 1201 0820 79080000 		.4byte	0x879
 1202 0824 15       		.uleb128 0x15
 1203 0825 646D6100 		.ascii	"dma\000"
 1204 0829 0E       		.byte	0xe
 1205 082a E5       		.byte	0xe5
 1206 082b 79080000 		.4byte	0x879
 1207 082f 00       		.byte	0
 1208 0830 06       		.uleb128 0x6
 1209 0831 AE060000 		.4byte	.LASF127
 1210 0835 0E       		.byte	0xe
 1211 0836 E6       		.byte	0xe6
 1212 0837 7F080000 		.4byte	0x87f
 1213 083b 04       		.byte	0x4
 1214 083c 06       		.uleb128 0x6
 1215 083d F9070000 		.4byte	.LASF128
 1216 0841 0E       		.byte	0xe
 1217 0842 E7       		.byte	0xe7
 1218 0843 B8000000 		.4byte	0xb8
 1219 0847 08       		.byte	0x8
 1220 0848 06       		.uleb128 0x6
 1221 0849 7C020000 		.4byte	.LASF129
 1222 084d 0E       		.byte	0xe
 1223 084e E9       		.byte	0xe9
 1224 084f 85080000 		.4byte	0x885
 1225 0853 0C       		.byte	0xc
 1226 0854 06       		.uleb128 0x6
 1227 0855 C8020000 		.4byte	.LASF130
 1228 0859 0E       		.byte	0xe
 1229 085a EA       		.byte	0xea
 1230 085b A2000000 		.4byte	0xa2
 1231 085f 10       		.byte	0x10
 1232 0860 06       		.uleb128 0x6
 1233 0861 E2070000 		.4byte	.LASF131
 1234 0865 0E       		.byte	0xe
 1235 0866 EC       		.byte	0xec
 1236 0867 A2000000 		.4byte	0xa2
 1237 086b 11       		.byte	0x11
 1238 086c 06       		.uleb128 0x6
 1239 086d AA010000 		.4byte	.LASF132
 1240 0871 0E       		.byte	0xe
 1241 0872 ED       		.byte	0xed
 1242 0873 A2000000 		.4byte	0xa2
 1243 0877 12       		.byte	0x12
 1244 0878 00       		.byte	0
 1245 0879 09       		.uleb128 0x9
 1246 087a 04       		.byte	0x4
 1247 087b FD040000 		.4byte	0x4fd
 1248 087f 09       		.uleb128 0x9
 1249 0880 04       		.byte	0x4
 1250 0881 CD040000 		.4byte	0x4cd
ARM GAS  /tmp/ccbXU7U4.s 			page 23


 1251 0885 09       		.uleb128 0x9
 1252 0886 04       		.byte	0x4
 1253 0887 65040000 		.4byte	0x465
 1254 088b 03       		.uleb128 0x3
 1255 088c A3050000 		.4byte	.LASF133
 1256 0890 0E       		.byte	0xe
 1257 0891 EE       		.byte	0xee
 1258 0892 1C080000 		.4byte	0x81c
 1259 0896 19       		.uleb128 0x19
 1260 0897 01       		.byte	0x1
 1261 0898 0F       		.byte	0xf
 1262 0899 28       		.byte	0x28
 1263 089a D5080000 		.4byte	0x8d5
 1264 089e 1A       		.uleb128 0x1a
 1265 089f A3060000 		.4byte	.LASF134
 1266 08a3 00       		.sleb128 0
 1267 08a4 1A       		.uleb128 0x1a
 1268 08a5 B7020000 		.4byte	.LASF135
 1269 08a9 01       		.sleb128 1
 1270 08aa 1A       		.uleb128 0x1a
 1271 08ab CC030000 		.4byte	.LASF136
 1272 08af 02       		.sleb128 2
 1273 08b0 1A       		.uleb128 0x1a
 1274 08b1 02040000 		.4byte	.LASF137
 1275 08b5 03       		.sleb128 3
 1276 08b6 1A       		.uleb128 0x1a
 1277 08b7 31070000 		.4byte	.LASF138
 1278 08bb 04       		.sleb128 4
 1279 08bc 1A       		.uleb128 0x1a
 1280 08bd 3D040000 		.4byte	.LASF139
 1281 08c1 05       		.sleb128 5
 1282 08c2 1A       		.uleb128 0x1a
 1283 08c3 AE040000 		.4byte	.LASF140
 1284 08c7 06       		.sleb128 6
 1285 08c8 1A       		.uleb128 0x1a
 1286 08c9 4A060000 		.4byte	.LASF141
 1287 08cd 07       		.sleb128 7
 1288 08ce 1A       		.uleb128 0x1a
 1289 08cf 16050000 		.4byte	.LASF142
 1290 08d3 08       		.sleb128 8
 1291 08d4 00       		.byte	0
 1292 08d5 03       		.uleb128 0x3
 1293 08d6 E8010000 		.4byte	.LASF143
 1294 08da 0F       		.byte	0xf
 1295 08db 32       		.byte	0x32
 1296 08dc 96080000 		.4byte	0x896
 1297 08e0 16       		.uleb128 0x16
 1298 08e1 08       		.byte	0x8
 1299 08e2 0F       		.byte	0xf
 1300 08e3 37       		.byte	0x37
 1301 08e4 01090000 		.4byte	0x901
 1302 08e8 06       		.uleb128 0x6
 1303 08e9 04030000 		.4byte	.LASF144
 1304 08ed 0F       		.byte	0xf
 1305 08ee 38       		.byte	0x38
 1306 08ef B8000000 		.4byte	0xb8
 1307 08f3 00       		.byte	0
ARM GAS  /tmp/ccbXU7U4.s 			page 24


 1308 08f4 06       		.uleb128 0x6
 1309 08f5 3C000000 		.4byte	.LASF145
 1310 08f9 0F       		.byte	0xf
 1311 08fa 39       		.byte	0x39
 1312 08fb B8000000 		.4byte	0xb8
 1313 08ff 04       		.byte	0x4
 1314 0900 00       		.byte	0
 1315 0901 03       		.uleb128 0x3
 1316 0902 00000000 		.4byte	.LASF146
 1317 0906 0F       		.byte	0xf
 1318 0907 3A       		.byte	0x3a
 1319 0908 E0080000 		.4byte	0x8e0
 1320 090c 1B       		.uleb128 0x1b
 1321 090d 1B090000 		.4byte	0x91b
 1322 0911 1B090000 		.4byte	0x91b
 1323 0915 0C       		.uleb128 0xc
 1324 0916 28030000 		.4byte	0x328
 1325 091a 00       		.byte	0
 1326 091b 04       		.uleb128 0x4
 1327 091c 01       		.byte	0x1
 1328 091d 02       		.byte	0x2
 1329 091e D5050000 		.4byte	.LASF147
 1330 0922 09       		.uleb128 0x9
 1331 0923 04       		.byte	0x4
 1332 0924 0C090000 		.4byte	0x90c
 1333 0928 1B       		.uleb128 0x1b
 1334 0929 1B090000 		.4byte	0x91b
 1335 092d 46090000 		.4byte	0x946
 1336 0931 0C       		.uleb128 0xc
 1337 0932 28030000 		.4byte	0x328
 1338 0936 0C       		.uleb128 0xc
 1339 0937 B8000000 		.4byte	0xb8
 1340 093b 0C       		.uleb128 0xc
 1341 093c 0B080000 		.4byte	0x80b
 1342 0940 0C       		.uleb128 0xc
 1343 0941 B8000000 		.4byte	0xb8
 1344 0945 00       		.byte	0
 1345 0946 09       		.uleb128 0x9
 1346 0947 04       		.byte	0x4
 1347 0948 28090000 		.4byte	0x928
 1348 094c 1B       		.uleb128 0x1b
 1349 094d 1B090000 		.4byte	0x91b
 1350 0951 6A090000 		.4byte	0x96a
 1351 0955 0C       		.uleb128 0xc
 1352 0956 28030000 		.4byte	0x328
 1353 095a 0C       		.uleb128 0xc
 1354 095b B8000000 		.4byte	0xb8
 1355 095f 0C       		.uleb128 0xc
 1356 0960 11080000 		.4byte	0x811
 1357 0964 0C       		.uleb128 0xc
 1358 0965 B8000000 		.4byte	0xb8
 1359 0969 00       		.byte	0
 1360 096a 09       		.uleb128 0x9
 1361 096b 04       		.byte	0x4
 1362 096c 4C090000 		.4byte	0x94c
 1363 0970 1B       		.uleb128 0x1b
 1364 0971 1B090000 		.4byte	0x91b
ARM GAS  /tmp/ccbXU7U4.s 			page 25


 1365 0975 84090000 		.4byte	0x984
 1366 0979 0C       		.uleb128 0xc
 1367 097a 28030000 		.4byte	0x328
 1368 097e 0C       		.uleb128 0xc
 1369 097f 84090000 		.4byte	0x984
 1370 0983 00       		.byte	0
 1371 0984 09       		.uleb128 0x9
 1372 0985 04       		.byte	0x4
 1373 0986 01090000 		.4byte	0x901
 1374 098a 09       		.uleb128 0x9
 1375 098b 04       		.byte	0x4
 1376 098c 70090000 		.4byte	0x970
 1377 0990 16       		.uleb128 0x16
 1378 0991 24       		.byte	0x24
 1379 0992 10       		.byte	0x10
 1380 0993 FD       		.byte	0xfd
 1381 0994 0D0A0000 		.4byte	0xa0d
 1382 0998 06       		.uleb128 0x6
 1383 0999 6C020000 		.4byte	.LASF148
 1384 099d 10       		.byte	0x10
 1385 099e FF       		.byte	0xff
 1386 099f B8000000 		.4byte	0xb8
 1387 09a3 00       		.byte	0
 1388 09a4 08       		.uleb128 0x8
 1389 09a5 8F030000 		.4byte	.LASF149
 1390 09a9 10       		.byte	0x10
 1391 09aa 0101     		.2byte	0x101
 1392 09ac B8000000 		.4byte	0xb8
 1393 09b0 04       		.byte	0x4
 1394 09b1 08       		.uleb128 0x8
 1395 09b2 73030000 		.4byte	.LASF150
 1396 09b6 10       		.byte	0x10
 1397 09b7 0301     		.2byte	0x103
 1398 09b9 B8000000 		.4byte	0xb8
 1399 09bd 08       		.byte	0x8
 1400 09be 08       		.uleb128 0x8
 1401 09bf 9B010000 		.4byte	.LASF151
 1402 09c3 10       		.byte	0x10
 1403 09c4 0501     		.2byte	0x105
 1404 09c6 B8000000 		.4byte	0xb8
 1405 09ca 0C       		.byte	0xc
 1406 09cb 07       		.uleb128 0x7
 1407 09cc 6F647200 		.ascii	"odr\000"
 1408 09d0 10       		.byte	0x10
 1409 09d1 0701     		.2byte	0x107
 1410 09d3 B8000000 		.4byte	0xb8
 1411 09d7 10       		.byte	0x10
 1412 09d8 08       		.uleb128 0x8
 1413 09d9 F1050000 		.4byte	.LASF152
 1414 09dd 10       		.byte	0x10
 1415 09de 0901     		.2byte	0x109
 1416 09e0 B8000000 		.4byte	0xb8
 1417 09e4 14       		.byte	0x14
 1418 09e5 08       		.uleb128 0x8
 1419 09e6 3F050000 		.4byte	.LASF153
 1420 09ea 10       		.byte	0x10
 1421 09eb 0B01     		.2byte	0x10b
ARM GAS  /tmp/ccbXU7U4.s 			page 26


 1422 09ed B8000000 		.4byte	0xb8
 1423 09f1 18       		.byte	0x18
 1424 09f2 08       		.uleb128 0x8
 1425 09f3 D6020000 		.4byte	.LASF154
 1426 09f7 10       		.byte	0x10
 1427 09f8 0D01     		.2byte	0x10d
 1428 09fa B8000000 		.4byte	0xb8
 1429 09fe 1C       		.byte	0x1c
 1430 09ff 08       		.uleb128 0x8
 1431 0a00 FB040000 		.4byte	.LASF155
 1432 0a04 10       		.byte	0x10
 1433 0a05 0F01     		.2byte	0x10f
 1434 0a07 B8000000 		.4byte	0xb8
 1435 0a0b 20       		.byte	0x20
 1436 0a0c 00       		.byte	0
 1437 0a0d 14       		.uleb128 0x14
 1438 0a0e 11040000 		.4byte	.LASF156
 1439 0a12 10       		.byte	0x10
 1440 0a13 1001     		.2byte	0x110
 1441 0a15 90090000 		.4byte	0x990
 1442 0a19 1C       		.uleb128 0x1c
 1443 0a1a 2001     		.2byte	0x120
 1444 0a1c 10       		.byte	0x10
 1445 0a1d 1901     		.2byte	0x119
 1446 0a1f 8C0A0000 		.4byte	0xa8c
 1447 0a23 08       		.uleb128 0x8
 1448 0a24 72060000 		.4byte	.LASF157
 1449 0a28 10       		.byte	0x10
 1450 0a29 1C01     		.2byte	0x11c
 1451 0a2b 0D0A0000 		.4byte	0xa0d
 1452 0a2f 00       		.byte	0
 1453 0a30 08       		.uleb128 0x8
 1454 0a31 1F030000 		.4byte	.LASF158
 1455 0a35 10       		.byte	0x10
 1456 0a36 2001     		.2byte	0x120
 1457 0a38 0D0A0000 		.4byte	0xa0d
 1458 0a3c 24       		.byte	0x24
 1459 0a3d 08       		.uleb128 0x8
 1460 0a3e 6E080000 		.4byte	.LASF159
 1461 0a42 10       		.byte	0x10
 1462 0a43 2401     		.2byte	0x124
 1463 0a45 0D0A0000 		.4byte	0xa0d
 1464 0a49 48       		.byte	0x48
 1465 0a4a 08       		.uleb128 0x8
 1466 0a4b 44050000 		.4byte	.LASF160
 1467 0a4f 10       		.byte	0x10
 1468 0a50 2801     		.2byte	0x128
 1469 0a52 0D0A0000 		.4byte	0xa0d
 1470 0a56 6C       		.byte	0x6c
 1471 0a57 08       		.uleb128 0x8
 1472 0a58 9B020000 		.4byte	.LASF161
 1473 0a5c 10       		.byte	0x10
 1474 0a5d 2C01     		.2byte	0x12c
 1475 0a5f 0D0A0000 		.4byte	0xa0d
 1476 0a63 90       		.byte	0x90
 1477 0a64 08       		.uleb128 0x8
 1478 0a65 C5030000 		.4byte	.LASF162
ARM GAS  /tmp/ccbXU7U4.s 			page 27


 1479 0a69 10       		.byte	0x10
 1480 0a6a 3001     		.2byte	0x130
 1481 0a6c 0D0A0000 		.4byte	0xa0d
 1482 0a70 B4       		.byte	0xb4
 1483 0a71 08       		.uleb128 0x8
 1484 0a72 6B040000 		.4byte	.LASF163
 1485 0a76 10       		.byte	0x10
 1486 0a77 3401     		.2byte	0x134
 1487 0a79 0D0A0000 		.4byte	0xa0d
 1488 0a7d D8       		.byte	0xd8
 1489 0a7e 08       		.uleb128 0x8
 1490 0a7f 36010000 		.4byte	.LASF164
 1491 0a83 10       		.byte	0x10
 1492 0a84 3801     		.2byte	0x138
 1493 0a86 0D0A0000 		.4byte	0xa0d
 1494 0a8a FC       		.byte	0xfc
 1495 0a8b 00       		.byte	0
 1496 0a8c 14       		.uleb128 0x14
 1497 0a8d 98080000 		.4byte	.LASF165
 1498 0a91 10       		.byte	0x10
 1499 0a92 4601     		.2byte	0x146
 1500 0a94 190A0000 		.4byte	0xa19
 1501 0a98 19       		.uleb128 0x19
 1502 0a99 01       		.byte	0x1
 1503 0a9a 11       		.byte	0x11
 1504 0a9b 6C       		.byte	0x6c
 1505 0a9c B30A0000 		.4byte	0xab3
 1506 0aa0 1A       		.uleb128 0x1a
 1507 0aa1 25020000 		.4byte	.LASF166
 1508 0aa5 00       		.sleb128 0
 1509 0aa6 1A       		.uleb128 0x1a
 1510 0aa7 A0070000 		.4byte	.LASF167
 1511 0aab 01       		.sleb128 1
 1512 0aac 1A       		.uleb128 0x1a
 1513 0aad 96030000 		.4byte	.LASF168
 1514 0ab1 02       		.sleb128 2
 1515 0ab2 00       		.byte	0
 1516 0ab3 03       		.uleb128 0x3
 1517 0ab4 97040000 		.4byte	.LASF169
 1518 0ab8 11       		.byte	0x11
 1519 0ab9 70       		.byte	0x70
 1520 0aba 980A0000 		.4byte	0xa98
 1521 0abe 03       		.uleb128 0x3
 1522 0abf 0D030000 		.4byte	.LASF170
 1523 0ac3 12       		.byte	0x12
 1524 0ac4 88       		.byte	0x88
 1525 0ac5 B8000000 		.4byte	0xb8
 1526 0ac9 03       		.uleb128 0x3
 1527 0aca C2070000 		.4byte	.LASF171
 1528 0ace 12       		.byte	0x12
 1529 0acf 8D       		.byte	0x8d
 1530 0ad0 B8000000 		.4byte	0xb8
 1531 0ad4 03       		.uleb128 0x3
 1532 0ad5 FE000000 		.4byte	.LASF172
 1533 0ad9 12       		.byte	0x12
 1534 0ada 92       		.byte	0x92
 1535 0adb DF0A0000 		.4byte	0xadf
ARM GAS  /tmp/ccbXU7U4.s 			page 28


 1536 0adf 05       		.uleb128 0x5
 1537 0ae0 FE000000 		.4byte	.LASF172
 1538 0ae4 4C       		.byte	0x4c
 1539 0ae5 12       		.byte	0x12
 1540 0ae6 BB       		.byte	0xbb
 1541 0ae7 880B0000 		.4byte	0xb88
 1542 0aeb 15       		.uleb128 0x15
 1543 0aec 766D7400 		.ascii	"vmt\000"
 1544 0af0 12       		.byte	0x12
 1545 0af1 BF       		.byte	0xbf
 1546 0af2 210C0000 		.4byte	0xc21
 1547 0af6 00       		.byte	0
 1548 0af7 06       		.uleb128 0x6
 1549 0af8 82020000 		.4byte	.LASF173
 1550 0afc 12       		.byte	0x12
 1551 0afd C0       		.byte	0xc0
 1552 0afe D5080000 		.4byte	0x8d5
 1553 0b02 04       		.byte	0x4
 1554 0b03 15       		.uleb128 0x15
 1555 0b04 63696400 		.ascii	"cid\000"
 1556 0b08 12       		.byte	0x12
 1557 0b09 C0       		.byte	0xc0
 1558 0b0a 7F040000 		.4byte	0x47f
 1559 0b0e 08       		.byte	0x8
 1560 0b0f 15       		.uleb128 0x15
 1561 0b10 63736400 		.ascii	"csd\000"
 1562 0b14 12       		.byte	0x12
 1563 0b15 C0       		.byte	0xc0
 1564 0b16 7F040000 		.4byte	0x47f
 1565 0b1a 18       		.byte	0x18
 1566 0b1b 06       		.uleb128 0x6
 1567 0b1c 2D010000 		.4byte	.LASF174
 1568 0b20 12       		.byte	0x12
 1569 0b21 C0       		.byte	0xc0
 1570 0b22 B8000000 		.4byte	0xb8
 1571 0b26 28       		.byte	0x28
 1572 0b27 06       		.uleb128 0x6
 1573 0b28 43070000 		.4byte	.LASF175
 1574 0b2c 12       		.byte	0x12
 1575 0b2d C4       		.byte	0xc4
 1576 0b2e 2C0C0000 		.4byte	0xc2c
 1577 0b32 2C       		.byte	0x2c
 1578 0b33 06       		.uleb128 0x6
 1579 0b34 BC010000 		.4byte	.LASF176
 1580 0b38 12       		.byte	0x12
 1581 0b39 C8       		.byte	0xc8
 1582 0b3a BE0A0000 		.4byte	0xabe
 1583 0b3e 30       		.byte	0x30
 1584 0b3f 06       		.uleb128 0x6
 1585 0b40 01050000 		.4byte	.LASF177
 1586 0b44 12       		.byte	0x12
 1587 0b45 CC       		.byte	0xcc
 1588 0b46 C90A0000 		.4byte	0xac9
 1589 0b4a 34       		.byte	0x34
 1590 0b4b 15       		.uleb128 0x15
 1591 0b4c 72636100 		.ascii	"rca\000"
 1592 0b50 12       		.byte	0x12
ARM GAS  /tmp/ccbXU7U4.s 			page 29


 1593 0b51 D0       		.byte	0xd0
 1594 0b52 B8000000 		.4byte	0xb8
 1595 0b56 38       		.byte	0x38
 1596 0b57 06       		.uleb128 0x6
 1597 0b58 BE050000 		.4byte	.LASF178
 1598 0b5c 12       		.byte	0x12
 1599 0b5d D5       		.byte	0xd5
 1600 0b5e 40020000 		.4byte	0x240
 1601 0b62 3C       		.byte	0x3c
 1602 0b63 06       		.uleb128 0x6
 1603 0b64 5A080000 		.4byte	.LASF179
 1604 0b68 12       		.byte	0x12
 1605 0b69 D9       		.byte	0xd9
 1606 0b6a B8000000 		.4byte	0xb8
 1607 0b6e 40       		.byte	0x40
 1608 0b6f 15       		.uleb128 0x15
 1609 0b70 646D6100 		.ascii	"dma\000"
 1610 0b74 12       		.byte	0x12
 1611 0b75 DD       		.byte	0xdd
 1612 0b76 370C0000 		.4byte	0xc37
 1613 0b7a 44       		.byte	0x44
 1614 0b7b 06       		.uleb128 0x6
 1615 0b7c F3070000 		.4byte	.LASF180
 1616 0b80 12       		.byte	0x12
 1617 0b81 E2       		.byte	0xe2
 1618 0b82 420C0000 		.4byte	0xc42
 1619 0b86 48       		.byte	0x48
 1620 0b87 00       		.byte	0
 1621 0b88 16       		.uleb128 0x16
 1622 0b89 08       		.byte	0x8
 1623 0b8a 12       		.byte	0x12
 1624 0b8b 98       		.byte	0x98
 1625 0b8c A90B0000 		.4byte	0xba9
 1626 0b90 06       		.uleb128 0x6
 1627 0b91 67060000 		.4byte	.LASF181
 1628 0b95 12       		.byte	0x12
 1629 0b96 A1       		.byte	0xa1
 1630 0b97 0B080000 		.4byte	0x80b
 1631 0b9b 00       		.byte	0
 1632 0b9c 06       		.uleb128 0x6
 1633 0b9d 88080000 		.4byte	.LASF182
 1634 0ba1 12       		.byte	0x12
 1635 0ba2 A5       		.byte	0xa5
 1636 0ba3 B30A0000 		.4byte	0xab3
 1637 0ba7 04       		.byte	0x4
 1638 0ba8 00       		.byte	0
 1639 0ba9 03       		.uleb128 0x3
 1640 0baa C7060000 		.4byte	.LASF183
 1641 0bae 12       		.byte	0x12
 1642 0baf A7       		.byte	0xa7
 1643 0bb0 880B0000 		.4byte	0xb88
 1644 0bb4 05       		.uleb128 0x5
 1645 0bb5 8F060000 		.4byte	.LASF184
 1646 0bb9 20       		.byte	0x20
 1647 0bba 12       		.byte	0x12
 1648 0bbb B4       		.byte	0xb4
 1649 0bbc 210C0000 		.4byte	0xc21
ARM GAS  /tmp/ccbXU7U4.s 			page 30


 1650 0bc0 06       		.uleb128 0x6
 1651 0bc1 33020000 		.4byte	.LASF185
 1652 0bc5 12       		.byte	0x12
 1653 0bc6 B5       		.byte	0xb5
 1654 0bc7 22090000 		.4byte	0x922
 1655 0bcb 00       		.byte	0
 1656 0bcc 06       		.uleb128 0x6
 1657 0bcd D5070000 		.4byte	.LASF186
 1658 0bd1 12       		.byte	0x12
 1659 0bd2 B5       		.byte	0xb5
 1660 0bd3 22090000 		.4byte	0x922
 1661 0bd7 04       		.byte	0x4
 1662 0bd8 06       		.uleb128 0x6
 1663 0bd9 DE060000 		.4byte	.LASF187
 1664 0bdd 12       		.byte	0x12
 1665 0bde B5       		.byte	0xb5
 1666 0bdf 22090000 		.4byte	0x922
 1667 0be3 08       		.byte	0x8
 1668 0be4 06       		.uleb128 0x6
 1669 0be5 61020000 		.4byte	.LASF188
 1670 0be9 12       		.byte	0x12
 1671 0bea B5       		.byte	0xb5
 1672 0beb 22090000 		.4byte	0x922
 1673 0bef 0C       		.byte	0xc
 1674 0bf0 06       		.uleb128 0x6
 1675 0bf1 27070000 		.4byte	.LASF189
 1676 0bf5 12       		.byte	0x12
 1677 0bf6 B5       		.byte	0xb5
 1678 0bf7 46090000 		.4byte	0x946
 1679 0bfb 10       		.byte	0x10
 1680 0bfc 06       		.uleb128 0x6
 1681 0bfd 91040000 		.4byte	.LASF190
 1682 0c01 12       		.byte	0x12
 1683 0c02 B5       		.byte	0xb5
 1684 0c03 6A090000 		.4byte	0x96a
 1685 0c07 14       		.byte	0x14
 1686 0c08 06       		.uleb128 0x6
 1687 0c09 55080000 		.4byte	.LASF191
 1688 0c0d 12       		.byte	0x12
 1689 0c0e B5       		.byte	0xb5
 1690 0c0f 22090000 		.4byte	0x922
 1691 0c13 18       		.byte	0x18
 1692 0c14 06       		.uleb128 0x6
 1693 0c15 DB020000 		.4byte	.LASF192
 1694 0c19 12       		.byte	0x12
 1695 0c1a B5       		.byte	0xb5
 1696 0c1b 8A090000 		.4byte	0x98a
 1697 0c1f 1C       		.byte	0x1c
 1698 0c20 00       		.byte	0
 1699 0c21 09       		.uleb128 0x9
 1700 0c22 04       		.byte	0x4
 1701 0c23 270C0000 		.4byte	0xc27
 1702 0c27 10       		.uleb128 0x10
 1703 0c28 B40B0000 		.4byte	0xbb4
 1704 0c2c 09       		.uleb128 0x9
 1705 0c2d 04       		.byte	0x4
 1706 0c2e 320C0000 		.4byte	0xc32
ARM GAS  /tmp/ccbXU7U4.s 			page 31


 1707 0c32 10       		.uleb128 0x10
 1708 0c33 A90B0000 		.4byte	0xba9
 1709 0c37 09       		.uleb128 0x9
 1710 0c38 04       		.byte	0x4
 1711 0c39 3D0C0000 		.4byte	0xc3d
 1712 0c3d 10       		.uleb128 0x10
 1713 0c3e 8B080000 		.4byte	0x88b
 1714 0c42 09       		.uleb128 0x9
 1715 0c43 04       		.byte	0x4
 1716 0c44 27060000 		.4byte	0x627
 1717 0c48 1D       		.uleb128 0x1d
 1718 0c49 48080000 		.4byte	.LASF196
 1719 0c4d 01       		.byte	0x1
 1720 0c4e 50       		.byte	0x50
 1721 0c4f 00000000 		.4byte	.LFB267
 1722 0c53 08000000 		.4byte	.LFE267-.LFB267
 1723 0c57 01       		.uleb128 0x1
 1724 0c58 9C       		.byte	0x9c
 1725 0c59 1E       		.uleb128 0x1e
 1726 0c5a 24040000 		.4byte	.LASF193
 1727 0c5e 01       		.byte	0x1
 1728 0c5f 59       		.byte	0x59
 1729 0c60 1B090000 		.4byte	0x91b
 1730 0c64 10000000 		.4byte	.LFB268
 1731 0c68 0C000000 		.4byte	.LFE268-.LFB268
 1732 0c6c 01       		.uleb128 0x1
 1733 0c6d 9C       		.byte	0x9c
 1734 0c6e 810C0000 		.4byte	0xc81
 1735 0c72 1F       		.uleb128 0x1f
 1736 0c73 4A070000 		.4byte	.LASF195
 1737 0c77 01       		.byte	0x1
 1738 0c78 59       		.byte	0x59
 1739 0c79 810C0000 		.4byte	0xc81
 1740 0c7d 02       		.uleb128 0x2
 1741 0c7e 91       		.byte	0x91
 1742 0c7f 7C       		.sleb128 -4
 1743 0c80 00       		.byte	0
 1744 0c81 09       		.uleb128 0x9
 1745 0c82 04       		.byte	0x4
 1746 0c83 D40A0000 		.4byte	0xad4
 1747 0c87 1E       		.uleb128 0x1e
 1748 0c88 E1030000 		.4byte	.LASF194
 1749 0c8c 01       		.byte	0x1
 1750 0c8d 63       		.byte	0x63
 1751 0c8e 1B090000 		.4byte	0x91b
 1752 0c92 20000000 		.4byte	.LFB269
 1753 0c96 0C000000 		.4byte	.LFE269-.LFB269
 1754 0c9a 01       		.uleb128 0x1
 1755 0c9b 9C       		.byte	0x9c
 1756 0c9c AF0C0000 		.4byte	0xcaf
 1757 0ca0 1F       		.uleb128 0x1f
 1758 0ca1 4A070000 		.4byte	.LASF195
 1759 0ca5 01       		.byte	0x1
 1760 0ca6 63       		.byte	0x63
 1761 0ca7 810C0000 		.4byte	0xc81
 1762 0cab 02       		.uleb128 0x2
 1763 0cac 91       		.byte	0x91
ARM GAS  /tmp/ccbXU7U4.s 			page 32


 1764 0cad 7C       		.sleb128 -4
 1765 0cae 00       		.byte	0
 1766 0caf 20       		.uleb128 0x20
 1767 0cb0 30080000 		.4byte	.LASF197
 1768 0cb4 01       		.byte	0x1
 1769 0cb5 85       		.byte	0x85
 1770 0cb6 30000000 		.4byte	.LFB270
 1771 0cba 02000000 		.4byte	.LFE270-.LFB270
 1772 0cbe 01       		.uleb128 0x1
 1773 0cbf 9C       		.byte	0x9c
 1774 0cc0 21       		.uleb128 0x21
 1775 0cc1 DB010000 		.4byte	.LASF198
 1776 0cc5 13       		.byte	0x13
 1777 0cc6 FA06     		.2byte	0x6fa
 1778 0cc8 CC0C0000 		.4byte	0xccc
 1779 0ccc 0F       		.uleb128 0xf
 1780 0ccd AD000000 		.4byte	0xad
 1781 0cd1 22       		.uleb128 0x22
 1782 0cd2 636800   		.ascii	"ch\000"
 1783 0cd5 07       		.byte	0x7
 1784 0cd6 0902     		.2byte	0x209
 1785 0cd8 F7030000 		.4byte	0x3f7
 1786 0cdc 23       		.uleb128 0x23
 1787 0cdd AA080000 		.4byte	.LASF199
 1788 0ce1 01       		.byte	0x1
 1789 0ce2 1E       		.byte	0x1e
 1790 0ce3 ED0C0000 		.4byte	0xced
 1791 0ce7 05       		.uleb128 0x5
 1792 0ce8 03       		.byte	0x3
 1793 0ce9 00000000 		.4byte	pal_default_config
 1794 0ced 10       		.uleb128 0x10
 1795 0cee 8C0A0000 		.4byte	0xa8c
 1796 0cf2 00       		.byte	0
 1797              		.section	.debug_abbrev,"",%progbits
 1798              	.Ldebug_abbrev0:
 1799 0000 01       		.uleb128 0x1
 1800 0001 11       		.uleb128 0x11
 1801 0002 01       		.byte	0x1
 1802 0003 25       		.uleb128 0x25
 1803 0004 0E       		.uleb128 0xe
 1804 0005 13       		.uleb128 0x13
 1805 0006 0B       		.uleb128 0xb
 1806 0007 03       		.uleb128 0x3
 1807 0008 0E       		.uleb128 0xe
 1808 0009 1B       		.uleb128 0x1b
 1809 000a 0E       		.uleb128 0xe
 1810 000b 11       		.uleb128 0x11
 1811 000c 01       		.uleb128 0x1
 1812 000d 12       		.uleb128 0x12
 1813 000e 06       		.uleb128 0x6
 1814 000f 10       		.uleb128 0x10
 1815 0010 17       		.uleb128 0x17
 1816 0011 00       		.byte	0
 1817 0012 00       		.byte	0
 1818 0013 02       		.uleb128 0x2
 1819 0014 24       		.uleb128 0x24
 1820 0015 00       		.byte	0
ARM GAS  /tmp/ccbXU7U4.s 			page 33


 1821 0016 0B       		.uleb128 0xb
 1822 0017 0B       		.uleb128 0xb
 1823 0018 3E       		.uleb128 0x3e
 1824 0019 0B       		.uleb128 0xb
 1825 001a 03       		.uleb128 0x3
 1826 001b 08       		.uleb128 0x8
 1827 001c 00       		.byte	0
 1828 001d 00       		.byte	0
 1829 001e 03       		.uleb128 0x3
 1830 001f 16       		.uleb128 0x16
 1831 0020 00       		.byte	0
 1832 0021 03       		.uleb128 0x3
 1833 0022 0E       		.uleb128 0xe
 1834 0023 3A       		.uleb128 0x3a
 1835 0024 0B       		.uleb128 0xb
 1836 0025 3B       		.uleb128 0x3b
 1837 0026 0B       		.uleb128 0xb
 1838 0027 49       		.uleb128 0x49
 1839 0028 13       		.uleb128 0x13
 1840 0029 00       		.byte	0
 1841 002a 00       		.byte	0
 1842 002b 04       		.uleb128 0x4
 1843 002c 24       		.uleb128 0x24
 1844 002d 00       		.byte	0
 1845 002e 0B       		.uleb128 0xb
 1846 002f 0B       		.uleb128 0xb
 1847 0030 3E       		.uleb128 0x3e
 1848 0031 0B       		.uleb128 0xb
 1849 0032 03       		.uleb128 0x3
 1850 0033 0E       		.uleb128 0xe
 1851 0034 00       		.byte	0
 1852 0035 00       		.byte	0
 1853 0036 05       		.uleb128 0x5
 1854 0037 13       		.uleb128 0x13
 1855 0038 01       		.byte	0x1
 1856 0039 03       		.uleb128 0x3
 1857 003a 0E       		.uleb128 0xe
 1858 003b 0B       		.uleb128 0xb
 1859 003c 0B       		.uleb128 0xb
 1860 003d 3A       		.uleb128 0x3a
 1861 003e 0B       		.uleb128 0xb
 1862 003f 3B       		.uleb128 0x3b
 1863 0040 0B       		.uleb128 0xb
 1864 0041 01       		.uleb128 0x1
 1865 0042 13       		.uleb128 0x13
 1866 0043 00       		.byte	0
 1867 0044 00       		.byte	0
 1868 0045 06       		.uleb128 0x6
 1869 0046 0D       		.uleb128 0xd
 1870 0047 00       		.byte	0
 1871 0048 03       		.uleb128 0x3
 1872 0049 0E       		.uleb128 0xe
 1873 004a 3A       		.uleb128 0x3a
 1874 004b 0B       		.uleb128 0xb
 1875 004c 3B       		.uleb128 0x3b
 1876 004d 0B       		.uleb128 0xb
 1877 004e 49       		.uleb128 0x49
ARM GAS  /tmp/ccbXU7U4.s 			page 34


 1878 004f 13       		.uleb128 0x13
 1879 0050 38       		.uleb128 0x38
 1880 0051 0B       		.uleb128 0xb
 1881 0052 00       		.byte	0
 1882 0053 00       		.byte	0
 1883 0054 07       		.uleb128 0x7
 1884 0055 0D       		.uleb128 0xd
 1885 0056 00       		.byte	0
 1886 0057 03       		.uleb128 0x3
 1887 0058 08       		.uleb128 0x8
 1888 0059 3A       		.uleb128 0x3a
 1889 005a 0B       		.uleb128 0xb
 1890 005b 3B       		.uleb128 0x3b
 1891 005c 05       		.uleb128 0x5
 1892 005d 49       		.uleb128 0x49
 1893 005e 13       		.uleb128 0x13
 1894 005f 38       		.uleb128 0x38
 1895 0060 0B       		.uleb128 0xb
 1896 0061 00       		.byte	0
 1897 0062 00       		.byte	0
 1898 0063 08       		.uleb128 0x8
 1899 0064 0D       		.uleb128 0xd
 1900 0065 00       		.byte	0
 1901 0066 03       		.uleb128 0x3
 1902 0067 0E       		.uleb128 0xe
 1903 0068 3A       		.uleb128 0x3a
 1904 0069 0B       		.uleb128 0xb
 1905 006a 3B       		.uleb128 0x3b
 1906 006b 05       		.uleb128 0x5
 1907 006c 49       		.uleb128 0x49
 1908 006d 13       		.uleb128 0x13
 1909 006e 38       		.uleb128 0x38
 1910 006f 0B       		.uleb128 0xb
 1911 0070 00       		.byte	0
 1912 0071 00       		.byte	0
 1913 0072 09       		.uleb128 0x9
 1914 0073 0F       		.uleb128 0xf
 1915 0074 00       		.byte	0
 1916 0075 0B       		.uleb128 0xb
 1917 0076 0B       		.uleb128 0xb
 1918 0077 49       		.uleb128 0x49
 1919 0078 13       		.uleb128 0x13
 1920 0079 00       		.byte	0
 1921 007a 00       		.byte	0
 1922 007b 0A       		.uleb128 0xa
 1923 007c 13       		.uleb128 0x13
 1924 007d 01       		.byte	0x1
 1925 007e 03       		.uleb128 0x3
 1926 007f 0E       		.uleb128 0xe
 1927 0080 0B       		.uleb128 0xb
 1928 0081 0B       		.uleb128 0xb
 1929 0082 3A       		.uleb128 0x3a
 1930 0083 0B       		.uleb128 0xb
 1931 0084 3B       		.uleb128 0x3b
 1932 0085 05       		.uleb128 0x5
 1933 0086 01       		.uleb128 0x1
 1934 0087 13       		.uleb128 0x13
ARM GAS  /tmp/ccbXU7U4.s 			page 35


 1935 0088 00       		.byte	0
 1936 0089 00       		.byte	0
 1937 008a 0B       		.uleb128 0xb
 1938 008b 15       		.uleb128 0x15
 1939 008c 01       		.byte	0x1
 1940 008d 27       		.uleb128 0x27
 1941 008e 19       		.uleb128 0x19
 1942 008f 01       		.uleb128 0x1
 1943 0090 13       		.uleb128 0x13
 1944 0091 00       		.byte	0
 1945 0092 00       		.byte	0
 1946 0093 0C       		.uleb128 0xc
 1947 0094 05       		.uleb128 0x5
 1948 0095 00       		.byte	0
 1949 0096 49       		.uleb128 0x49
 1950 0097 13       		.uleb128 0x13
 1951 0098 00       		.byte	0
 1952 0099 00       		.byte	0
 1953 009a 0D       		.uleb128 0xd
 1954 009b 0F       		.uleb128 0xf
 1955 009c 00       		.byte	0
 1956 009d 0B       		.uleb128 0xb
 1957 009e 0B       		.uleb128 0xb
 1958 009f 00       		.byte	0
 1959 00a0 00       		.byte	0
 1960 00a1 0E       		.uleb128 0xe
 1961 00a2 13       		.uleb128 0x13
 1962 00a3 01       		.byte	0x1
 1963 00a4 03       		.uleb128 0x3
 1964 00a5 0E       		.uleb128 0xe
 1965 00a6 0B       		.uleb128 0xb
 1966 00a7 05       		.uleb128 0x5
 1967 00a8 3A       		.uleb128 0x3a
 1968 00a9 0B       		.uleb128 0xb
 1969 00aa 3B       		.uleb128 0x3b
 1970 00ab 05       		.uleb128 0x5
 1971 00ac 01       		.uleb128 0x1
 1972 00ad 13       		.uleb128 0x13
 1973 00ae 00       		.byte	0
 1974 00af 00       		.byte	0
 1975 00b0 0F       		.uleb128 0xf
 1976 00b1 35       		.uleb128 0x35
 1977 00b2 00       		.byte	0
 1978 00b3 49       		.uleb128 0x49
 1979 00b4 13       		.uleb128 0x13
 1980 00b5 00       		.byte	0
 1981 00b6 00       		.byte	0
 1982 00b7 10       		.uleb128 0x10
 1983 00b8 26       		.uleb128 0x26
 1984 00b9 00       		.byte	0
 1985 00ba 49       		.uleb128 0x49
 1986 00bb 13       		.uleb128 0x13
 1987 00bc 00       		.byte	0
 1988 00bd 00       		.byte	0
 1989 00be 11       		.uleb128 0x11
 1990 00bf 01       		.uleb128 0x1
 1991 00c0 01       		.byte	0x1
ARM GAS  /tmp/ccbXU7U4.s 			page 36


 1992 00c1 49       		.uleb128 0x49
 1993 00c2 13       		.uleb128 0x13
 1994 00c3 01       		.uleb128 0x1
 1995 00c4 13       		.uleb128 0x13
 1996 00c5 00       		.byte	0
 1997 00c6 00       		.byte	0
 1998 00c7 12       		.uleb128 0x12
 1999 00c8 21       		.uleb128 0x21
 2000 00c9 00       		.byte	0
 2001 00ca 49       		.uleb128 0x49
 2002 00cb 13       		.uleb128 0x13
 2003 00cc 2F       		.uleb128 0x2f
 2004 00cd 0B       		.uleb128 0xb
 2005 00ce 00       		.byte	0
 2006 00cf 00       		.byte	0
 2007 00d0 13       		.uleb128 0x13
 2008 00d1 13       		.uleb128 0x13
 2009 00d2 01       		.byte	0x1
 2010 00d3 0B       		.uleb128 0xb
 2011 00d4 0B       		.uleb128 0xb
 2012 00d5 3A       		.uleb128 0x3a
 2013 00d6 0B       		.uleb128 0xb
 2014 00d7 3B       		.uleb128 0x3b
 2015 00d8 05       		.uleb128 0x5
 2016 00d9 01       		.uleb128 0x1
 2017 00da 13       		.uleb128 0x13
 2018 00db 00       		.byte	0
 2019 00dc 00       		.byte	0
 2020 00dd 14       		.uleb128 0x14
 2021 00de 16       		.uleb128 0x16
 2022 00df 00       		.byte	0
 2023 00e0 03       		.uleb128 0x3
 2024 00e1 0E       		.uleb128 0xe
 2025 00e2 3A       		.uleb128 0x3a
 2026 00e3 0B       		.uleb128 0xb
 2027 00e4 3B       		.uleb128 0x3b
 2028 00e5 05       		.uleb128 0x5
 2029 00e6 49       		.uleb128 0x49
 2030 00e7 13       		.uleb128 0x13
 2031 00e8 00       		.byte	0
 2032 00e9 00       		.byte	0
 2033 00ea 15       		.uleb128 0x15
 2034 00eb 0D       		.uleb128 0xd
 2035 00ec 00       		.byte	0
 2036 00ed 03       		.uleb128 0x3
 2037 00ee 08       		.uleb128 0x8
 2038 00ef 3A       		.uleb128 0x3a
 2039 00f0 0B       		.uleb128 0xb
 2040 00f1 3B       		.uleb128 0x3b
 2041 00f2 0B       		.uleb128 0xb
 2042 00f3 49       		.uleb128 0x49
 2043 00f4 13       		.uleb128 0x13
 2044 00f5 38       		.uleb128 0x38
 2045 00f6 0B       		.uleb128 0xb
 2046 00f7 00       		.byte	0
 2047 00f8 00       		.byte	0
 2048 00f9 16       		.uleb128 0x16
ARM GAS  /tmp/ccbXU7U4.s 			page 37


 2049 00fa 13       		.uleb128 0x13
 2050 00fb 01       		.byte	0x1
 2051 00fc 0B       		.uleb128 0xb
 2052 00fd 0B       		.uleb128 0xb
 2053 00fe 3A       		.uleb128 0x3a
 2054 00ff 0B       		.uleb128 0xb
 2055 0100 3B       		.uleb128 0x3b
 2056 0101 0B       		.uleb128 0xb
 2057 0102 01       		.uleb128 0x1
 2058 0103 13       		.uleb128 0x13
 2059 0104 00       		.byte	0
 2060 0105 00       		.byte	0
 2061 0106 17       		.uleb128 0x17
 2062 0107 17       		.uleb128 0x17
 2063 0108 01       		.byte	0x1
 2064 0109 0B       		.uleb128 0xb
 2065 010a 0B       		.uleb128 0xb
 2066 010b 3A       		.uleb128 0x3a
 2067 010c 0B       		.uleb128 0xb
 2068 010d 3B       		.uleb128 0x3b
 2069 010e 0B       		.uleb128 0xb
 2070 010f 01       		.uleb128 0x1
 2071 0110 13       		.uleb128 0x13
 2072 0111 00       		.byte	0
 2073 0112 00       		.byte	0
 2074 0113 18       		.uleb128 0x18
 2075 0114 0D       		.uleb128 0xd
 2076 0115 00       		.byte	0
 2077 0116 03       		.uleb128 0x3
 2078 0117 0E       		.uleb128 0xe
 2079 0118 3A       		.uleb128 0x3a
 2080 0119 0B       		.uleb128 0xb
 2081 011a 3B       		.uleb128 0x3b
 2082 011b 05       		.uleb128 0x5
 2083 011c 49       		.uleb128 0x49
 2084 011d 13       		.uleb128 0x13
 2085 011e 00       		.byte	0
 2086 011f 00       		.byte	0
 2087 0120 19       		.uleb128 0x19
 2088 0121 04       		.uleb128 0x4
 2089 0122 01       		.byte	0x1
 2090 0123 0B       		.uleb128 0xb
 2091 0124 0B       		.uleb128 0xb
 2092 0125 3A       		.uleb128 0x3a
 2093 0126 0B       		.uleb128 0xb
 2094 0127 3B       		.uleb128 0x3b
 2095 0128 0B       		.uleb128 0xb
 2096 0129 01       		.uleb128 0x1
 2097 012a 13       		.uleb128 0x13
 2098 012b 00       		.byte	0
 2099 012c 00       		.byte	0
 2100 012d 1A       		.uleb128 0x1a
 2101 012e 28       		.uleb128 0x28
 2102 012f 00       		.byte	0
 2103 0130 03       		.uleb128 0x3
 2104 0131 0E       		.uleb128 0xe
 2105 0132 1C       		.uleb128 0x1c
ARM GAS  /tmp/ccbXU7U4.s 			page 38


 2106 0133 0D       		.uleb128 0xd
 2107 0134 00       		.byte	0
 2108 0135 00       		.byte	0
 2109 0136 1B       		.uleb128 0x1b
 2110 0137 15       		.uleb128 0x15
 2111 0138 01       		.byte	0x1
 2112 0139 27       		.uleb128 0x27
 2113 013a 19       		.uleb128 0x19
 2114 013b 49       		.uleb128 0x49
 2115 013c 13       		.uleb128 0x13
 2116 013d 01       		.uleb128 0x1
 2117 013e 13       		.uleb128 0x13
 2118 013f 00       		.byte	0
 2119 0140 00       		.byte	0
 2120 0141 1C       		.uleb128 0x1c
 2121 0142 13       		.uleb128 0x13
 2122 0143 01       		.byte	0x1
 2123 0144 0B       		.uleb128 0xb
 2124 0145 05       		.uleb128 0x5
 2125 0146 3A       		.uleb128 0x3a
 2126 0147 0B       		.uleb128 0xb
 2127 0148 3B       		.uleb128 0x3b
 2128 0149 05       		.uleb128 0x5
 2129 014a 01       		.uleb128 0x1
 2130 014b 13       		.uleb128 0x13
 2131 014c 00       		.byte	0
 2132 014d 00       		.byte	0
 2133 014e 1D       		.uleb128 0x1d
 2134 014f 2E       		.uleb128 0x2e
 2135 0150 00       		.byte	0
 2136 0151 3F       		.uleb128 0x3f
 2137 0152 19       		.uleb128 0x19
 2138 0153 03       		.uleb128 0x3
 2139 0154 0E       		.uleb128 0xe
 2140 0155 3A       		.uleb128 0x3a
 2141 0156 0B       		.uleb128 0xb
 2142 0157 3B       		.uleb128 0x3b
 2143 0158 0B       		.uleb128 0xb
 2144 0159 27       		.uleb128 0x27
 2145 015a 19       		.uleb128 0x19
 2146 015b 11       		.uleb128 0x11
 2147 015c 01       		.uleb128 0x1
 2148 015d 12       		.uleb128 0x12
 2149 015e 06       		.uleb128 0x6
 2150 015f 40       		.uleb128 0x40
 2151 0160 18       		.uleb128 0x18
 2152 0161 9642     		.uleb128 0x2116
 2153 0163 19       		.uleb128 0x19
 2154 0164 00       		.byte	0
 2155 0165 00       		.byte	0
 2156 0166 1E       		.uleb128 0x1e
 2157 0167 2E       		.uleb128 0x2e
 2158 0168 01       		.byte	0x1
 2159 0169 3F       		.uleb128 0x3f
 2160 016a 19       		.uleb128 0x19
 2161 016b 03       		.uleb128 0x3
 2162 016c 0E       		.uleb128 0xe
ARM GAS  /tmp/ccbXU7U4.s 			page 39


 2163 016d 3A       		.uleb128 0x3a
 2164 016e 0B       		.uleb128 0xb
 2165 016f 3B       		.uleb128 0x3b
 2166 0170 0B       		.uleb128 0xb
 2167 0171 27       		.uleb128 0x27
 2168 0172 19       		.uleb128 0x19
 2169 0173 49       		.uleb128 0x49
 2170 0174 13       		.uleb128 0x13
 2171 0175 11       		.uleb128 0x11
 2172 0176 01       		.uleb128 0x1
 2173 0177 12       		.uleb128 0x12
 2174 0178 06       		.uleb128 0x6
 2175 0179 40       		.uleb128 0x40
 2176 017a 18       		.uleb128 0x18
 2177 017b 9742     		.uleb128 0x2117
 2178 017d 19       		.uleb128 0x19
 2179 017e 01       		.uleb128 0x1
 2180 017f 13       		.uleb128 0x13
 2181 0180 00       		.byte	0
 2182 0181 00       		.byte	0
 2183 0182 1F       		.uleb128 0x1f
 2184 0183 05       		.uleb128 0x5
 2185 0184 00       		.byte	0
 2186 0185 03       		.uleb128 0x3
 2187 0186 0E       		.uleb128 0xe
 2188 0187 3A       		.uleb128 0x3a
 2189 0188 0B       		.uleb128 0xb
 2190 0189 3B       		.uleb128 0x3b
 2191 018a 0B       		.uleb128 0xb
 2192 018b 49       		.uleb128 0x49
 2193 018c 13       		.uleb128 0x13
 2194 018d 02       		.uleb128 0x2
 2195 018e 18       		.uleb128 0x18
 2196 018f 00       		.byte	0
 2197 0190 00       		.byte	0
 2198 0191 20       		.uleb128 0x20
 2199 0192 2E       		.uleb128 0x2e
 2200 0193 00       		.byte	0
 2201 0194 3F       		.uleb128 0x3f
 2202 0195 19       		.uleb128 0x19
 2203 0196 03       		.uleb128 0x3
 2204 0197 0E       		.uleb128 0xe
 2205 0198 3A       		.uleb128 0x3a
 2206 0199 0B       		.uleb128 0xb
 2207 019a 3B       		.uleb128 0x3b
 2208 019b 0B       		.uleb128 0xb
 2209 019c 27       		.uleb128 0x27
 2210 019d 19       		.uleb128 0x19
 2211 019e 11       		.uleb128 0x11
 2212 019f 01       		.uleb128 0x1
 2213 01a0 12       		.uleb128 0x12
 2214 01a1 06       		.uleb128 0x6
 2215 01a2 40       		.uleb128 0x40
 2216 01a3 18       		.uleb128 0x18
 2217 01a4 9742     		.uleb128 0x2117
 2218 01a6 19       		.uleb128 0x19
 2219 01a7 00       		.byte	0
ARM GAS  /tmp/ccbXU7U4.s 			page 40


 2220 01a8 00       		.byte	0
 2221 01a9 21       		.uleb128 0x21
 2222 01aa 34       		.uleb128 0x34
 2223 01ab 00       		.byte	0
 2224 01ac 03       		.uleb128 0x3
 2225 01ad 0E       		.uleb128 0xe
 2226 01ae 3A       		.uleb128 0x3a
 2227 01af 0B       		.uleb128 0xb
 2228 01b0 3B       		.uleb128 0x3b
 2229 01b1 05       		.uleb128 0x5
 2230 01b2 49       		.uleb128 0x49
 2231 01b3 13       		.uleb128 0x13
 2232 01b4 3F       		.uleb128 0x3f
 2233 01b5 19       		.uleb128 0x19
 2234 01b6 3C       		.uleb128 0x3c
 2235 01b7 19       		.uleb128 0x19
 2236 01b8 00       		.byte	0
 2237 01b9 00       		.byte	0
 2238 01ba 22       		.uleb128 0x22
 2239 01bb 34       		.uleb128 0x34
 2240 01bc 00       		.byte	0
 2241 01bd 03       		.uleb128 0x3
 2242 01be 08       		.uleb128 0x8
 2243 01bf 3A       		.uleb128 0x3a
 2244 01c0 0B       		.uleb128 0xb
 2245 01c1 3B       		.uleb128 0x3b
 2246 01c2 05       		.uleb128 0x5
 2247 01c3 49       		.uleb128 0x49
 2248 01c4 13       		.uleb128 0x13
 2249 01c5 3F       		.uleb128 0x3f
 2250 01c6 19       		.uleb128 0x19
 2251 01c7 3C       		.uleb128 0x3c
 2252 01c8 19       		.uleb128 0x19
 2253 01c9 00       		.byte	0
 2254 01ca 00       		.byte	0
 2255 01cb 23       		.uleb128 0x23
 2256 01cc 34       		.uleb128 0x34
 2257 01cd 00       		.byte	0
 2258 01ce 03       		.uleb128 0x3
 2259 01cf 0E       		.uleb128 0xe
 2260 01d0 3A       		.uleb128 0x3a
 2261 01d1 0B       		.uleb128 0xb
 2262 01d2 3B       		.uleb128 0x3b
 2263 01d3 0B       		.uleb128 0xb
 2264 01d4 49       		.uleb128 0x49
 2265 01d5 13       		.uleb128 0x13
 2266 01d6 3F       		.uleb128 0x3f
 2267 01d7 19       		.uleb128 0x19
 2268 01d8 02       		.uleb128 0x2
 2269 01d9 18       		.uleb128 0x18
 2270 01da 00       		.byte	0
 2271 01db 00       		.byte	0
 2272 01dc 00       		.byte	0
 2273              		.section	.debug_aranges,"",%progbits
 2274 0000 1C000000 		.4byte	0x1c
 2275 0004 0200     		.2byte	0x2
 2276 0006 00000000 		.4byte	.Ldebug_info0
ARM GAS  /tmp/ccbXU7U4.s 			page 41


 2277 000a 04       		.byte	0x4
 2278 000b 00       		.byte	0
 2279 000c 0000     		.2byte	0
 2280 000e 0000     		.2byte	0
 2281 0010 00000000 		.4byte	.Ltext0
 2282 0014 32000000 		.4byte	.Letext0-.Ltext0
 2283 0018 00000000 		.4byte	0
 2284 001c 00000000 		.4byte	0
 2285              		.section	.debug_line,"",%progbits
 2286              	.Ldebug_line0:
 2287 0000 09040000 		.section	.debug_str,"MS",%progbits,1
 2287      0200E703 
 2287      00000201 
 2287      FB0E0D00 
 2287      01010101 
 2288              	.LASF146:
 2289 0000 426C6F63 		.ascii	"BlockDeviceInfo\000"
 2289      6B446576 
 2289      69636549 
 2289      6E666F00 
 2290              	.LASF91:
 2291 0010 52455350 		.ascii	"RESP1\000"
 2291      3100
 2292              	.LASF92:
 2293 0016 52455350 		.ascii	"RESP2\000"
 2293      3200
 2294              	.LASF93:
 2295 001c 52455350 		.ascii	"RESP3\000"
 2295      3300
 2296              	.LASF94:
 2297 0022 52455350 		.ascii	"RESP4\000"
 2297      3400
 2298              	.LASF53:
 2299 0028 72656164 		.ascii	"ready_list_t\000"
 2299      795F6C69 
 2299      73745F74 
 2299      00
 2300              	.LASF2:
 2301 0035 73697A65 		.ascii	"size_t\000"
 2301      5F7400
 2302              	.LASF145:
 2303 003c 626C6B5F 		.ascii	"blk_num\000"
 2303      6E756D00 
 2304              	.LASF111:
 2305 0044 7264796D 		.ascii	"rdymsg\000"
 2305      736700
 2306              	.LASF200:
 2307 004b 474E5520 		.ascii	"GNU C 4.8.4 20140526 (release) [ARM/embedded-4_8-br"
 2307      4320342E 
 2307      382E3420 
 2307      32303134 
 2307      30353236 
 2308 007e 616E6368 		.ascii	"anch revision 211358] -mcpu=cortex-m4 -mno-thumb-in"
 2308      20726576 
 2308      6973696F 
 2308      6E203231 
 2308      31333538 
ARM GAS  /tmp/ccbXU7U4.s 			page 42


 2309 00b1 74657277 		.ascii	"terwork -mthumb -ggdb -O0 -fomit-frame-pointer -fal"
 2309      6F726B20 
 2309      2D6D7468 
 2309      756D6220 
 2309      2D676764 
 2310 00e4 69676E2D 		.ascii	"ign-functions=16\000"
 2310      66756E63 
 2310      74696F6E 
 2310      733D3136 
 2310      00
 2311              	.LASF17:
 2312 00f5 75696E74 		.ascii	"uint64_t\000"
 2312      36345F74 
 2312      00
 2313              	.LASF172:
 2314 00fe 53444344 		.ascii	"SDCDriver\000"
 2314      72697665 
 2314      7200
 2315              	.LASF3:
 2316 0108 5F5F7569 		.ascii	"__uint8_t\000"
 2316      6E74385F 
 2316      7400
 2317              	.LASF108:
 2318 0112 706F7274 		.ascii	"port_intctx\000"
 2318      5F696E74 
 2318      63747800 
 2319              	.LASF72:
 2320 011e 73797374 		.ascii	"system_debug_t\000"
 2320      656D5F64 
 2320      65627567 
 2320      5F7400
 2321              	.LASF174:
 2322 012d 63617061 		.ascii	"capacity\000"
 2322      63697479 
 2322      00
 2323              	.LASF164:
 2324 0136 50484461 		.ascii	"PHData\000"
 2324      746100
 2325              	.LASF202:
 2326 013d 2F6E6673 		.ascii	"/nfs/nfs7/home/vvedanta/P442/p442-submissions/senso"
 2326      2F6E6673 
 2326      372F686F 
 2326      6D652F76 
 2326      76656461 
 2327 0170 7274696C 		.ascii	"rtile/final_project\000"
 2327      652F6669 
 2327      6E616C5F 
 2327      70726F6A 
 2327      65637400 
 2328              	.LASF13:
 2329 0184 6C6F6E67 		.ascii	"long long unsigned int\000"
 2329      206C6F6E 
 2329      6720756E 
 2329      7369676E 
 2329      65642069 
 2330              	.LASF151:
 2331 019b 70757064 		.ascii	"pupdr\000"
ARM GAS  /tmp/ccbXU7U4.s 			page 43


 2331      7200
 2332              	.LASF112:
 2333 01a1 65786974 		.ascii	"exitcode\000"
 2333      636F6465 
 2333      00
 2334              	.LASF132:
 2335 01aa 76656374 		.ascii	"vector\000"
 2335      6F7200
 2336              	.LASF79:
 2337 01b1 6D61696E 		.ascii	"mainthread\000"
 2337      74687265 
 2337      616400
 2338              	.LASF176:
 2339 01bc 63617264 		.ascii	"cardmode\000"
 2339      6D6F6465 
 2339      00
 2340              	.LASF69:
 2341 01c5 76697274 		.ascii	"virtual_timers_list_t\000"
 2341      75616C5F 
 2341      74696D65 
 2341      72735F6C 
 2341      6973745F 
 2342              	.LASF198:
 2343 01db 49544D5F 		.ascii	"ITM_RxBuffer\000"
 2343      52784275 
 2343      66666572 
 2343      00
 2344              	.LASF143:
 2345 01e8 626C6B73 		.ascii	"blkstate_t\000"
 2345      74617465 
 2345      5F7400
 2346              	.LASF52:
 2347 01f3 63685F74 		.ascii	"ch_threads_queue\000"
 2347      68726561 
 2347      64735F71 
 2347      75657565 
 2347      00
 2348              	.LASF31:
 2349 0204 705F7072 		.ascii	"p_prio\000"
 2349      696F00
 2350              	.LASF11:
 2351 020b 6C6F6E67 		.ascii	"long long int\000"
 2351      206C6F6E 
 2351      6720696E 
 2351      7400
 2352              	.LASF1:
 2353 0219 7369676E 		.ascii	"signed char\000"
 2353      65642063 
 2353      68617200 
 2354              	.LASF166:
 2355 0225 5344435F 		.ascii	"SDC_MODE_1BIT\000"
 2355      4D4F4445 
 2355      5F314249 
 2355      5400
 2356              	.LASF185:
 2357 0233 69735F69 		.ascii	"is_inserted\000"
 2357      6E736572 
ARM GAS  /tmp/ccbXU7U4.s 			page 44


 2357      74656400 
 2358              	.LASF10:
 2359 023f 6C6F6E67 		.ascii	"long unsigned int\000"
 2359      20756E73 
 2359      69676E65 
 2359      6420696E 
 2359      7400
 2360              	.LASF46:
 2361 0251 705F6D70 		.ascii	"p_mpool\000"
 2361      6F6F6C00 
 2362              	.LASF122:
 2363 0259 6D5F7175 		.ascii	"m_queue\000"
 2363      65756500 
 2364              	.LASF188:
 2365 0261 64697363 		.ascii	"disconnect\000"
 2365      6F6E6E65 
 2365      637400
 2366              	.LASF148:
 2367 026c 6D6F6465 		.ascii	"moder\000"
 2367      7200
 2368              	.LASF22:
 2369 0272 74736C69 		.ascii	"tslices_t\000"
 2369      6365735F 
 2369      7400
 2370              	.LASF129:
 2371 027c 6373656C 		.ascii	"cselr\000"
 2371      7200
 2372              	.LASF173:
 2373 0282 73746174 		.ascii	"state\000"
 2373      6500
 2374              	.LASF76:
 2375 0288 63685F73 		.ascii	"ch_system\000"
 2375      79737465 
 2375      6D00
 2376              	.LASF8:
 2377 0292 6C6F6E67 		.ascii	"long int\000"
 2377      20696E74 
 2377      00
 2378              	.LASF161:
 2379 029b 50454461 		.ascii	"PEData\000"
 2379      746100
 2380              	.LASF98:
 2381 02a2 44434F55 		.ascii	"DCOUNT\000"
 2381      4E5400
 2382              	.LASF20:
 2383 02a9 74737461 		.ascii	"tstate_t\000"
 2383      74655F74 
 2383      00
 2384              	.LASF99:
 2385 02b2 4D41534B 		.ascii	"MASK\000"
 2385      00
 2386              	.LASF135:
 2387 02b7 424C4B5F 		.ascii	"BLK_STOP\000"
 2387      53544F50 
 2387      00
 2388              	.LASF33:
 2389 02c0 705F6E65 		.ascii	"p_newer\000"
ARM GAS  /tmp/ccbXU7U4.s 			page 45


 2389      77657200 
 2390              	.LASF130:
 2391 02c8 73686966 		.ascii	"shift\000"
 2391      7400
 2392              	.LASF119:
 2393 02ce 735F7175 		.ascii	"s_queue\000"
 2393      65756500 
 2394              	.LASF154:
 2395 02d6 61736372 		.ascii	"ascr\000"
 2395      00
 2396              	.LASF192:
 2397 02db 6765745F 		.ascii	"get_info\000"
 2397      696E666F 
 2397      00
 2398              	.LASF58:
 2399 02e4 725F6E65 		.ascii	"r_newer\000"
 2399      77657200 
 2400              	.LASF105:
 2401 02ec 72656761 		.ascii	"regarm_t\000"
 2401      726D5F74 
 2401      00
 2402              	.LASF65:
 2403 02f5 76745F70 		.ascii	"vt_prev\000"
 2403      72657600 
 2404              	.LASF78:
 2405 02fd 76746C69 		.ascii	"vtlist\000"
 2405      737400
 2406              	.LASF144:
 2407 0304 626C6B5F 		.ascii	"blk_size\000"
 2407      73697A65 
 2407      00
 2408              	.LASF170:
 2409 030d 7364636D 		.ascii	"sdcmode_t\000"
 2409      6F64655F 
 2409      7400
 2410              	.LASF126:
 2411 0317 6D757465 		.ascii	"mutex_t\000"
 2411      785F7400 
 2412              	.LASF158:
 2413 031f 50424461 		.ascii	"PBData\000"
 2413      746100
 2414              	.LASF80:
 2415 0326 69646C65 		.ascii	"idle_thread_wa\000"
 2415      5F746872 
 2415      6561645F 
 2415      776100
 2416              	.LASF87:
 2417 0335 444D415F 		.ascii	"DMA_TypeDef\000"
 2417      54797065 
 2417      44656600 
 2418              	.LASF26:
 2419 0341 636E745F 		.ascii	"cnt_t\000"
 2419      7400
 2420              	.LASF0:
 2421 0347 756E7369 		.ascii	"unsigned int\000"
 2421      676E6564 
 2421      20696E74 
ARM GAS  /tmp/ccbXU7U4.s 			page 46


 2421      00
 2422              	.LASF64:
 2423 0354 76745F6E 		.ascii	"vt_next\000"
 2423      65787400 
 2424              	.LASF115:
 2425 035c 77747365 		.ascii	"wtsemp\000"
 2425      6D7000
 2426              	.LASF83:
 2427 0363 43504152 		.ascii	"CPAR\000"
 2427      00
 2428              	.LASF41:
 2429 0368 705F6D73 		.ascii	"p_msgqueue\000"
 2429      67717565 
 2429      756500
 2430              	.LASF150:
 2431 0373 6F737065 		.ascii	"ospeedr\000"
 2431      65647200 
 2432              	.LASF85:
 2433 037b 444D415F 		.ascii	"DMA_Channel_TypeDef\000"
 2433      4368616E 
 2433      6E656C5F 
 2433      54797065 
 2433      44656600 
 2434              	.LASF149:
 2435 038f 6F747970 		.ascii	"otyper\000"
 2435      657200
 2436              	.LASF168:
 2437 0396 5344435F 		.ascii	"SDC_MODE_8BIT\000"
 2437      4D4F4445 
 2437      5F384249 
 2437      5400
 2438              	.LASF104:
 2439 03a4 53444D4D 		.ascii	"SDMMC_TypeDef\000"
 2439      435F5479 
 2439      70654465 
 2439      6600
 2440              	.LASF6:
 2441 03b2 73686F72 		.ascii	"short unsigned int\000"
 2441      7420756E 
 2441      7369676E 
 2441      65642069 
 2441      6E7400
 2442              	.LASF162:
 2443 03c5 50464461 		.ascii	"PFData\000"
 2443      746100
 2444              	.LASF136:
 2445 03cc 424C4B5F 		.ascii	"BLK_ACTIVE\000"
 2445      41435449 
 2445      564500
 2446              	.LASF49:
 2447 03d7 63685F74 		.ascii	"ch_thread\000"
 2447      68726561 
 2447      6400
 2448              	.LASF194:
 2449 03e1 7364635F 		.ascii	"sdc_lld_is_write_protected\000"
 2449      6C6C645F 
 2449      69735F77 
ARM GAS  /tmp/ccbXU7U4.s 			page 47


 2449      72697465 
 2449      5F70726F 
 2450              	.LASF24:
 2451 03fc 6D73675F 		.ascii	"msg_t\000"
 2451      7400
 2452              	.LASF137:
 2453 0402 424C4B5F 		.ascii	"BLK_CONNECTING\000"
 2453      434F4E4E 
 2453      45435449 
 2453      4E4700
 2454              	.LASF156:
 2455 0411 73746D33 		.ascii	"stm32_gpio_setup_t\000"
 2455      325F6770 
 2455      696F5F73 
 2455      65747570 
 2455      5F7400
 2456              	.LASF193:
 2457 0424 7364635F 		.ascii	"sdc_lld_is_card_inserted\000"
 2457      6C6C645F 
 2457      69735F63 
 2457      6172645F 
 2457      696E7365 
 2458              	.LASF139:
 2459 043d 424C4B5F 		.ascii	"BLK_READY\000"
 2459      52454144 
 2459      5900
 2460              	.LASF54:
 2461 0447 63685F72 		.ascii	"ch_ready_list\000"
 2461      65616479 
 2461      5F6C6973 
 2461      7400
 2462              	.LASF25:
 2463 0455 6576656E 		.ascii	"eventmask_t\000"
 2463      746D6173 
 2463      6B5F7400 
 2464              	.LASF7:
 2465 0461 5F5F696E 		.ascii	"__int32_t\000"
 2465      7433325F 
 2465      7400
 2466              	.LASF163:
 2467 046b 50474461 		.ascii	"PGData\000"
 2467      746100
 2468              	.LASF106:
 2469 0472 73746B61 		.ascii	"stkalign_t\000"
 2469      6C69676E 
 2469      5F7400
 2470              	.LASF48:
 2471 047d 74687265 		.ascii	"threads_list_t\000"
 2471      6164735F 
 2471      6C697374 
 2471      5F7400
 2472              	.LASF96:
 2473 048c 444C454E 		.ascii	"DLEN\000"
 2473      00
 2474              	.LASF190:
 2475 0491 77726974 		.ascii	"write\000"
 2475      6500
ARM GAS  /tmp/ccbXU7U4.s 			page 48


 2476              	.LASF169:
 2477 0497 73646362 		.ascii	"sdcbusmode_t\000"
 2477      75736D6F 
 2477      64655F74 
 2477      00
 2478              	.LASF40:
 2479 04a4 705F7761 		.ascii	"p_waiting\000"
 2479      6974696E 
 2479      6700
 2480              	.LASF140:
 2481 04ae 424C4B5F 		.ascii	"BLK_READING\000"
 2481      52454144 
 2481      494E4700 
 2482              	.LASF81:
 2483 04ba 73697A65 		.ascii	"sizetype\000"
 2483      74797065 
 2483      00
 2484              	.LASF47:
 2485 04c3 74687265 		.ascii	"thread_reference_t\000"
 2485      61645F72 
 2485      65666572 
 2485      656E6365 
 2485      5F7400
 2486              	.LASF70:
 2487 04d6 63685F76 		.ascii	"ch_virtual_timers_list\000"
 2487      69727475 
 2487      616C5F74 
 2487      696D6572 
 2487      735F6C69 
 2488              	.LASF101:
 2489 04ed 4649464F 		.ascii	"FIFOCNT\000"
 2489      434E5400 
 2490              	.LASF114:
 2491 04f5 77747472 		.ascii	"wttrp\000"
 2491      7000
 2492              	.LASF155:
 2493 04fb 6C6F636B 		.ascii	"lockr\000"
 2493      7200
 2494              	.LASF177:
 2495 0501 6572726F 		.ascii	"errors\000"
 2495      727300
 2496              	.LASF88:
 2497 0508 504F5745 		.ascii	"POWER\000"
 2497      5200
 2498              	.LASF34:
 2499 050e 705F6F6C 		.ascii	"p_older\000"
 2499      64657200 
 2500              	.LASF142:
 2501 0516 424C4B5F 		.ascii	"BLK_SYNCING\000"
 2501      53594E43 
 2501      494E4700 
 2502              	.LASF57:
 2503 0522 725F6374 		.ascii	"r_ctx\000"
 2503      7800
 2504              	.LASF97:
 2505 0528 44435452 		.ascii	"DCTRL\000"
 2505      4C00
ARM GAS  /tmp/ccbXU7U4.s 			page 49


 2506              	.LASF110:
 2507 052e 746D5F63 		.ascii	"tm_calibration_t\000"
 2507      616C6962 
 2507      72617469 
 2507      6F6E5F74 
 2507      00
 2508              	.LASF153:
 2509 053f 61667268 		.ascii	"afrh\000"
 2509      00
 2510              	.LASF160:
 2511 0544 50444461 		.ascii	"PDData\000"
 2511      746100
 2512              	.LASF60:
 2513 054b 725F6375 		.ascii	"r_current\000"
 2513      7272656E 
 2513      7400
 2514              	.LASF59:
 2515 0555 725F6F6C 		.ascii	"r_older\000"
 2515      64657200 
 2516              	.LASF12:
 2517 055d 5F5F7569 		.ascii	"__uint64_t\000"
 2517      6E743634 
 2517      5F7400
 2518              	.LASF90:
 2519 0568 52455350 		.ascii	"RESPCMD\000"
 2519      434D4400 
 2520              	.LASF21:
 2521 0570 74726566 		.ascii	"trefs_t\000"
 2521      735F7400 
 2522              	.LASF100:
 2523 0578 52455345 		.ascii	"RESERVED0\000"
 2523      52564544 
 2523      3000
 2524              	.LASF102:
 2525 0582 52455345 		.ascii	"RESERVED1\000"
 2525      52564544 
 2525      3100
 2526              	.LASF62:
 2527 058c 76697274 		.ascii	"virtual_timer_t\000"
 2527      75616C5F 
 2527      74696D65 
 2527      725F7400 
 2528              	.LASF30:
 2529 059c 705F7072 		.ascii	"p_prev\000"
 2529      657600
 2530              	.LASF133:
 2531 05a3 73746D33 		.ascii	"stm32_dma_stream_t\000"
 2531      325F646D 
 2531      615F7374 
 2531      7265616D 
 2531      5F7400
 2532              	.LASF23:
 2533 05b6 74707269 		.ascii	"tprio_t\000"
 2533      6F5F7400 
 2534              	.LASF178:
 2535 05be 74687265 		.ascii	"thread\000"
 2535      616400
ARM GAS  /tmp/ccbXU7U4.s 			page 50


 2536              	.LASF73:
 2537 05c5 63685F73 		.ascii	"ch_system_debug\000"
 2537      79737465 
 2537      6D5F6465 
 2537      62756700 
 2538              	.LASF147:
 2539 05d5 5F426F6F 		.ascii	"_Bool\000"
 2539      6C00
 2540              	.LASF15:
 2541 05db 696E7433 		.ascii	"int32_t\000"
 2541      325F7400 
 2542              	.LASF4:
 2543 05e3 756E7369 		.ascii	"unsigned char\000"
 2543      676E6564 
 2543      20636861 
 2543      7200
 2544              	.LASF152:
 2545 05f1 6166726C 		.ascii	"afrl\000"
 2545      00
 2546              	.LASF120:
 2547 05f6 735F636E 		.ascii	"s_cnt\000"
 2547      7400
 2548              	.LASF36:
 2549 05fc 705F7374 		.ascii	"p_state\000"
 2549      61746500 
 2550              	.LASF44:
 2551 0604 705F6D74 		.ascii	"p_mtxlist\000"
 2551      786C6973 
 2551      7400
 2552              	.LASF5:
 2553 060e 73686F72 		.ascii	"short int\000"
 2553      7420696E 
 2553      7400
 2554              	.LASF201:
 2555 0618 2E2E2F2E 		.ascii	"../../ChibiOS/os/hal/boards/ST_SENSORTILE/board.c\000"
 2555      2E2F4368 
 2555      6962694F 
 2555      532F6F73 
 2555      2F68616C 
 2556              	.LASF141:
 2557 064a 424C4B5F 		.ascii	"BLK_WRITING\000"
 2557      57524954 
 2557      494E4700 
 2558              	.LASF39:
 2559 0656 705F7072 		.ascii	"p_preempt\000"
 2559      65656D70 
 2559      7400
 2560              	.LASF56:
 2561 0660 725F7072 		.ascii	"r_prio\000"
 2561      696F00
 2562              	.LASF181:
 2563 0667 73637261 		.ascii	"scratchpad\000"
 2563      74636870 
 2563      616400
 2564              	.LASF157:
 2565 0672 50414461 		.ascii	"PAData\000"
 2565      746100
ARM GAS  /tmp/ccbXU7U4.s 			page 51


 2566              	.LASF117:
 2567 0679 65776D61 		.ascii	"ewmask\000"
 2567      736B00
 2568              	.LASF29:
 2569 0680 705F6E65 		.ascii	"p_next\000"
 2569      787400
 2570              	.LASF19:
 2571 0687 746D6F64 		.ascii	"tmode_t\000"
 2571      655F7400 
 2572              	.LASF184:
 2573 068f 53444344 		.ascii	"SDCDriverVMT\000"
 2573      72697665 
 2573      72564D54 
 2573      00
 2574              	.LASF35:
 2575 069c 705F6E61 		.ascii	"p_name\000"
 2575      6D6500
 2576              	.LASF134:
 2577 06a3 424C4B5F 		.ascii	"BLK_UNINIT\000"
 2577      554E494E 
 2577      495400
 2578              	.LASF127:
 2579 06ae 6368616E 		.ascii	"channel\000"
 2579      6E656C00 
 2580              	.LASF63:
 2581 06b6 63685F76 		.ascii	"ch_virtual_timer\000"
 2581      69727475 
 2581      616C5F74 
 2581      696D6572 
 2581      00
 2582              	.LASF183:
 2583 06c7 53444343 		.ascii	"SDCConfig\000"
 2583      6F6E6669 
 2583      6700
 2584              	.LASF118:
 2585 06d1 63685F73 		.ascii	"ch_semaphore\000"
 2585      656D6170 
 2585      686F7265 
 2585      00
 2586              	.LASF187:
 2587 06de 636F6E6E 		.ascii	"connect\000"
 2587      65637400 
 2588              	.LASF43:
 2589 06e6 705F6570 		.ascii	"p_epending\000"
 2589      656E6469 
 2589      6E6700
 2590              	.LASF16:
 2591 06f1 75696E74 		.ascii	"uint32_t\000"
 2591      33325F74 
 2591      00
 2592              	.LASF116:
 2593 06fa 77746D74 		.ascii	"wtmtxp\000"
 2593      787000
 2594              	.LASF55:
 2595 0701 725F7175 		.ascii	"r_queue\000"
 2595      65756500 
 2596              	.LASF66:
ARM GAS  /tmp/ccbXU7U4.s 			page 52


 2597 0709 76745F64 		.ascii	"vt_delta\000"
 2597      656C7461 
 2597      00
 2598              	.LASF50:
 2599 0712 63685F74 		.ascii	"ch_threads_list\000"
 2599      68726561 
 2599      64735F6C 
 2599      69737400 
 2600              	.LASF86:
 2601 0722 49464352 		.ascii	"IFCR\000"
 2601      00
 2602              	.LASF189:
 2603 0727 72656164 		.ascii	"read\000"
 2603      00
 2604              	.LASF125:
 2605 072c 63686172 		.ascii	"char\000"
 2605      00
 2606              	.LASF138:
 2607 0731 424C4B5F 		.ascii	"BLK_DISCONNECTING\000"
 2607      44495343 
 2607      4F4E4E45 
 2607      4354494E 
 2607      4700
 2608              	.LASF175:
 2609 0743 636F6E66 		.ascii	"config\000"
 2609      696700
 2610              	.LASF195:
 2611 074a 73646370 		.ascii	"sdcp\000"
 2611      00
 2612              	.LASF28:
 2613 074f 74687265 		.ascii	"thread_t\000"
 2613      61645F74 
 2613      00
 2614              	.LASF124:
 2615 0758 6D5F6E65 		.ascii	"m_next\000"
 2615      787400
 2616              	.LASF27:
 2617 075f 73797374 		.ascii	"systime_t\000"
 2617      696D655F 
 2617      7400
 2618              	.LASF45:
 2619 0769 705F7265 		.ascii	"p_realprio\000"
 2619      616C7072 
 2619      696F00
 2620              	.LASF61:
 2621 0774 76746675 		.ascii	"vtfunc_t\000"
 2621      6E635F74 
 2621      00
 2622              	.LASF9:
 2623 077d 5F5F7569 		.ascii	"__uint32_t\000"
 2623      6E743332 
 2623      5F7400
 2624              	.LASF95:
 2625 0788 4454494D 		.ascii	"DTIMER\000"
 2625      455200
 2626              	.LASF74:
 2627 078f 70616E69 		.ascii	"panic_msg\000"
ARM GAS  /tmp/ccbXU7U4.s 			page 53


 2627      635F6D73 
 2627      6700
 2628              	.LASF109:
 2629 0799 6F666673 		.ascii	"offset\000"
 2629      657400
 2630              	.LASF167:
 2631 07a0 5344435F 		.ascii	"SDC_MODE_4BIT\000"
 2631      4D4F4445 
 2631      5F344249 
 2631      5400
 2632              	.LASF107:
 2633 07ae 636F6E74 		.ascii	"context\000"
 2633      65787400 
 2634              	.LASF75:
 2635 07b6 63685F73 		.ascii	"ch_system_t\000"
 2635      79737465 
 2635      6D5F7400 
 2636              	.LASF171:
 2637 07c2 73646366 		.ascii	"sdcflags_t\000"
 2637      6C616773 
 2637      5F7400
 2638              	.LASF18:
 2639 07cd 7274636E 		.ascii	"rtcnt_t\000"
 2639      745F7400 
 2640              	.LASF186:
 2641 07d5 69735F70 		.ascii	"is_protected\000"
 2641      726F7465 
 2641      63746564 
 2641      00
 2642              	.LASF131:
 2643 07e2 73656C66 		.ascii	"selfindex\000"
 2643      696E6465 
 2643      7800
 2644              	.LASF68:
 2645 07ec 76745F70 		.ascii	"vt_par\000"
 2645      617200
 2646              	.LASF180:
 2647 07f3 73646D6D 		.ascii	"sdmmc\000"
 2647      6300
 2648              	.LASF128:
 2649 07f9 636D6173 		.ascii	"cmask\000"
 2649      6B00
 2650              	.LASF51:
 2651 07ff 74687265 		.ascii	"threads_queue_t\000"
 2651      6164735F 
 2651      71756575 
 2651      655F7400 
 2652              	.LASF121:
 2653 080f 63685F6D 		.ascii	"ch_mutex\000"
 2653      75746578 
 2653      00
 2654              	.LASF38:
 2655 0818 705F7265 		.ascii	"p_refs\000"
 2655      667300
 2656              	.LASF82:
 2657 081f 434E4454 		.ascii	"CNDTR\000"
 2657      5200
ARM GAS  /tmp/ccbXU7U4.s 			page 54


 2658              	.LASF84:
 2659 0825 434D4152 		.ascii	"CMAR\000"
 2659      00
 2660              	.LASF89:
 2661 082a 434C4B43 		.ascii	"CLKCR\000"
 2661      5200
 2662              	.LASF197:
 2663 0830 626F6172 		.ascii	"boardInit\000"
 2663      64496E69 
 2663      7400
 2664              	.LASF77:
 2665 083a 726C6973 		.ascii	"rlist\000"
 2665      7400
 2666              	.LASF14:
 2667 0840 75696E74 		.ascii	"uint8_t\000"
 2667      385F7400 
 2668              	.LASF196:
 2669 0848 5F5F6561 		.ascii	"__early_init\000"
 2669      726C795F 
 2669      696E6974 
 2669      00
 2670              	.LASF191:
 2671 0855 73796E63 		.ascii	"sync\000"
 2671      00
 2672              	.LASF179:
 2673 085a 646D616D 		.ascii	"dmamode\000"
 2673      6F646500 
 2674              	.LASF113:
 2675 0862 77746F62 		.ascii	"wtobjp\000"
 2675      6A7000
 2676              	.LASF103:
 2677 0869 4649464F 		.ascii	"FIFO\000"
 2677      00
 2678              	.LASF159:
 2679 086e 50434461 		.ascii	"PCData\000"
 2679      746100
 2680              	.LASF71:
 2681 0875 76745F73 		.ascii	"vt_systime\000"
 2681      79737469 
 2681      6D6500
 2682              	.LASF37:
 2683 0880 705F666C 		.ascii	"p_flags\000"
 2683      61677300 
 2684              	.LASF182:
 2685 0888 6275735F 		.ascii	"bus_width\000"
 2685      77696474 
 2685      6800
 2686              	.LASF42:
 2687 0892 705F6D73 		.ascii	"p_msg\000"
 2687      6700
 2688              	.LASF165:
 2689 0898 50414C43 		.ascii	"PALConfig\000"
 2689      6F6E6669 
 2689      6700
 2690              	.LASF123:
 2691 08a2 6D5F6F77 		.ascii	"m_owner\000"
 2691      6E657200 
ARM GAS  /tmp/ccbXU7U4.s 			page 55


 2692              	.LASF199:
 2693 08aa 70616C5F 		.ascii	"pal_default_config\000"
 2693      64656661 
 2693      756C745F 
 2693      636F6E66 
 2693      696700
 2694              	.LASF32:
 2695 08bd 705F6374 		.ascii	"p_ctx\000"
 2695      7800
 2696              	.LASF67:
 2697 08c3 76745F66 		.ascii	"vt_func\000"
 2697      756E6300 
 2698              		.ident	"GCC: (GNU Tools for ARM Embedded Processors) 4.8.4 20140526 (release) [ARM/embedded-4_8-br
ARM GAS  /tmp/ccbXU7U4.s 			page 56


DEFINED SYMBOLS
                            *ABS*:00000000 board.c
     /tmp/ccbXU7U4.s:23     .rodata:00000000 pal_default_config
     /tmp/ccbXU7U4.s:20     .rodata:00000000 $d
     /tmp/ccbXU7U4.s:97     .text:00000000 $t
     /tmp/ccbXU7U4.s:103    .text:00000000 __early_init
     /tmp/ccbXU7U4.s:127    .text:00000010 sdc_lld_is_card_inserted
     /tmp/ccbXU7U4.s:153    .text:00000020 sdc_lld_is_write_protected
     /tmp/ccbXU7U4.s:179    .text:00000030 boardInit
                     .debug_frame:00000010 $d

UNDEFINED SYMBOLS
stm32_clock_init
