ARM GAS  /tmp/ccwJpLLF.s 			page 1


   1              		.syntax unified
   2              		.cpu cortex-m4
   3              		.fpu softvfp
   4              		.eabi_attribute 20, 1
   5              		.eabi_attribute 21, 1
   6              		.eabi_attribute 23, 3
   7              		.eabi_attribute 24, 1
   8              		.eabi_attribute 25, 1
   9              		.eabi_attribute 26, 1
  10              		.eabi_attribute 30, 6
  11              		.eabi_attribute 34, 1
  12              		.eabi_attribute 18, 4
  13              		.thumb
  14              		.file	"chcond.c"
  15              		.text
  16              	.Ltext0:
  17              		.cfi_sections	.debug_frame
  18              		.align	2
  19              		.p2align 4,,15
  20              		.thumb
  21              		.thumb_func
  22              		.type	port_lock, %function
  23              	port_lock:
  24              	.LFB127:
  25              		.file 1 "../../ChibiOS/os/rt/ports/ARMCMx/chcore_v7m.h"
  26              		.loc 1 456 0
  27              		.cfi_startproc
  28              		@ args = 0, pretend = 0, frame = 8
  29              		@ frame_needed = 0, uses_anonymous_args = 0
  30              		@ link register save eliminated.
  31 0000 82B0     		sub	sp, sp, #8
  32              		.cfi_def_cfa_offset 8
  33 0002 2023     		movs	r3, #32
  34 0004 0193     		str	r3, [sp, #4]
  35              	.LBB6:
  36              	.LBB7:
  37              		.file 2 "../../ChibiOS/os/ext/CMSIS/include/core_cmFunc.h"
  38              		.loc 2 548 0
  39 0006 019B     		ldr	r3, [sp, #4]
  40              	@ 548 "../../ChibiOS/os/ext/CMSIS/include/core_cmFunc.h" 1
  41 0008 83F31188 		MSR basepri, r3
  42              	@ 0 "" 2
  43              		.thumb
  44              	.LBE7:
  45              	.LBE6:
  46              		.loc 1 473 0
  47 000c 02B0     		add	sp, sp, #8
  48              		@ sp needed
  49 000e 7047     		bx	lr
  50              		.cfi_endproc
  51              	.LFE127:
  52              		.size	port_lock, .-port_lock
  53              		.align	2
  54              		.p2align 4,,15
  55              		.thumb
  56              		.thumb_func
  57              		.type	port_unlock, %function
ARM GAS  /tmp/ccwJpLLF.s 			page 2


  58              	port_unlock:
  59              	.LFB128:
  60              		.loc 1 480 0
  61              		.cfi_startproc
  62              		@ args = 0, pretend = 0, frame = 8
  63              		@ frame_needed = 0, uses_anonymous_args = 0
  64              		@ link register save eliminated.
  65 0010 82B0     		sub	sp, sp, #8
  66              		.cfi_def_cfa_offset 8
  67 0012 0023     		movs	r3, #0
  68 0014 0193     		str	r3, [sp, #4]
  69              	.LBB8:
  70              	.LBB9:
  71              		.loc 2 548 0
  72 0016 019B     		ldr	r3, [sp, #4]
  73              	@ 548 "../../ChibiOS/os/ext/CMSIS/include/core_cmFunc.h" 1
  74 0018 83F31188 		MSR basepri, r3
  75              	@ 0 "" 2
  76              		.thumb
  77              	.LBE9:
  78              	.LBE8:
  79              		.loc 1 487 0
  80 001c 02B0     		add	sp, sp, #8
  81              		@ sp needed
  82 001e 7047     		bx	lr
  83              		.cfi_endproc
  84              	.LFE128:
  85              		.size	port_unlock, .-port_unlock
  86              		.align	2
  87              		.p2align 4,,15
  88              		.thumb
  89              		.thumb_func
  90              		.type	queue_init, %function
  91              	queue_init:
  92              	.LFB139:
  93              		.file 3 "../../ChibiOS/os/rt/include/chschd.h"
  94              		.loc 3 602 0
  95              		.cfi_startproc
  96              		@ args = 0, pretend = 0, frame = 8
  97              		@ frame_needed = 0, uses_anonymous_args = 0
  98              		@ link register save eliminated.
  99 0020 82B0     		sub	sp, sp, #8
 100              		.cfi_def_cfa_offset 8
 101 0022 0190     		str	r0, [sp, #4]
 102              		.loc 3 604 0
 103 0024 019B     		ldr	r3, [sp, #4]
 104 0026 019A     		ldr	r2, [sp, #4]
 105 0028 1A60     		str	r2, [r3]
 106              		.loc 3 605 0
 107 002a 019B     		ldr	r3, [sp, #4]
 108 002c 019A     		ldr	r2, [sp, #4]
 109 002e 5A60     		str	r2, [r3, #4]
 110              		.loc 3 606 0
 111 0030 02B0     		add	sp, sp, #8
 112              		@ sp needed
 113 0032 7047     		bx	lr
 114              		.cfi_endproc
ARM GAS  /tmp/ccwJpLLF.s 			page 3


 115              	.LFE139:
 116              		.size	queue_init, .-queue_init
 117              		.align	2
 118 0034 AFF30080 		.p2align 4,,15
 118      AFF30080 
 118      AFF30080 
 119              		.thumb
 120              		.thumb_func
 121              		.type	queue_notempty, %function
 122              	queue_notempty:
 123              	.LFB141:
 124              		.loc 3 629 0
 125              		.cfi_startproc
 126              		@ args = 0, pretend = 0, frame = 8
 127              		@ frame_needed = 0, uses_anonymous_args = 0
 128              		@ link register save eliminated.
 129 0040 82B0     		sub	sp, sp, #8
 130              		.cfi_def_cfa_offset 8
 131 0042 0190     		str	r0, [sp, #4]
 132              		.loc 3 631 0
 133 0044 019B     		ldr	r3, [sp, #4]
 134 0046 1A68     		ldr	r2, [r3]
 135 0048 019B     		ldr	r3, [sp, #4]
 136 004a 9A42     		cmp	r2, r3
 137 004c 0CBF     		ite	eq
 138 004e 0023     		moveq	r3, #0
 139 0050 0123     		movne	r3, #1
 140 0052 DBB2     		uxtb	r3, r3
 141              		.loc 3 632 0
 142 0054 1846     		mov	r0, r3
 143 0056 02B0     		add	sp, sp, #8
 144              		@ sp needed
 145 0058 7047     		bx	lr
 146              		.cfi_endproc
 147              	.LFE141:
 148              		.size	queue_notempty, .-queue_notempty
 149 005a 00BF     		.align	2
 150 005c AFF30080 		.p2align 4,,15
 151              		.thumb
 152              		.thumb_func
 153              		.type	queue_prio_insert, %function
 154              	queue_prio_insert:
 155              	.LFB144:
 156              		.loc 3 651 0
 157              		.cfi_startproc
 158              		@ args = 0, pretend = 0, frame = 16
 159              		@ frame_needed = 0, uses_anonymous_args = 0
 160              		@ link register save eliminated.
 161 0060 84B0     		sub	sp, sp, #16
 162              		.cfi_def_cfa_offset 16
 163 0062 0190     		str	r0, [sp, #4]
 164 0064 0091     		str	r1, [sp]
 165              		.loc 3 653 0
 166 0066 009B     		ldr	r3, [sp]
 167 0068 0393     		str	r3, [sp, #12]
 168              	.L8:
 169              		.loc 3 655 0 discriminator 1
ARM GAS  /tmp/ccwJpLLF.s 			page 4


 170 006a 039B     		ldr	r3, [sp, #12]
 171 006c 1B68     		ldr	r3, [r3]
 172 006e 0393     		str	r3, [sp, #12]
 173              		.loc 3 656 0 discriminator 1
 174 0070 039A     		ldr	r2, [sp, #12]
 175 0072 009B     		ldr	r3, [sp]
 176 0074 9A42     		cmp	r2, r3
 177 0076 05D0     		beq	.L7
 178 0078 039B     		ldr	r3, [sp, #12]
 179 007a 9A68     		ldr	r2, [r3, #8]
 180 007c 019B     		ldr	r3, [sp, #4]
 181 007e 9B68     		ldr	r3, [r3, #8]
 182 0080 9A42     		cmp	r2, r3
 183 0082 F2D2     		bcs	.L8
 184              	.L7:
 185              		.loc 3 657 0
 186 0084 019B     		ldr	r3, [sp, #4]
 187 0086 039A     		ldr	r2, [sp, #12]
 188 0088 1A60     		str	r2, [r3]
 189              		.loc 3 658 0
 190 008a 039B     		ldr	r3, [sp, #12]
 191 008c 5A68     		ldr	r2, [r3, #4]
 192 008e 019B     		ldr	r3, [sp, #4]
 193 0090 5A60     		str	r2, [r3, #4]
 194              		.loc 3 659 0
 195 0092 019B     		ldr	r3, [sp, #4]
 196 0094 5B68     		ldr	r3, [r3, #4]
 197 0096 019A     		ldr	r2, [sp, #4]
 198 0098 1A60     		str	r2, [r3]
 199              		.loc 3 660 0
 200 009a 039B     		ldr	r3, [sp, #12]
 201 009c 019A     		ldr	r2, [sp, #4]
 202 009e 5A60     		str	r2, [r3, #4]
 203              		.loc 3 661 0
 204 00a0 04B0     		add	sp, sp, #16
 205              		@ sp needed
 206 00a2 7047     		bx	lr
 207              		.cfi_endproc
 208              	.LFE144:
 209              		.size	queue_prio_insert, .-queue_prio_insert
 210              		.align	2
 211 00a4 AFF30080 		.p2align 4,,15
 211      AFF30080 
 211      AFF30080 
 212              		.thumb
 213              		.thumb_func
 214              		.type	queue_fifo_remove, %function
 215              	queue_fifo_remove:
 216              	.LFB146:
 217              		.loc 3 671 0
 218              		.cfi_startproc
 219              		@ args = 0, pretend = 0, frame = 16
 220              		@ frame_needed = 0, uses_anonymous_args = 0
 221              		@ link register save eliminated.
 222 00b0 84B0     		sub	sp, sp, #16
 223              		.cfi_def_cfa_offset 16
 224 00b2 0190     		str	r0, [sp, #4]
ARM GAS  /tmp/ccwJpLLF.s 			page 5


 225              		.loc 3 672 0
 226 00b4 019B     		ldr	r3, [sp, #4]
 227 00b6 1B68     		ldr	r3, [r3]
 228 00b8 0393     		str	r3, [sp, #12]
 229              		.loc 3 674 0
 230 00ba 039B     		ldr	r3, [sp, #12]
 231 00bc 1A68     		ldr	r2, [r3]
 232 00be 019B     		ldr	r3, [sp, #4]
 233 00c0 1A60     		str	r2, [r3]
 234              		.loc 3 675 0
 235 00c2 019B     		ldr	r3, [sp, #4]
 236 00c4 1B68     		ldr	r3, [r3]
 237 00c6 019A     		ldr	r2, [sp, #4]
 238 00c8 5A60     		str	r2, [r3, #4]
 239              		.loc 3 677 0
 240 00ca 039B     		ldr	r3, [sp, #12]
 241              		.loc 3 678 0
 242 00cc 1846     		mov	r0, r3
 243 00ce 04B0     		add	sp, sp, #16
 244              		@ sp needed
 245 00d0 7047     		bx	lr
 246              		.cfi_endproc
 247              	.LFE146:
 248              		.size	queue_fifo_remove, .-queue_fifo_remove
 249 00d2 00BF     		.align	2
 250 00d4 AFF30080 		.p2align 4,,15
 250      AFF30080 
 250      AFF30080 
 251              		.thumb
 252              		.thumb_func
 253              		.type	chSysLock, %function
 254              	chSysLock:
 255              	.LFB156:
 256              		.file 4 "../../ChibiOS/os/rt/include/chsys.h"
 257              		.loc 4 346 0
 258              		.cfi_startproc
 259              		@ args = 0, pretend = 0, frame = 0
 260              		@ frame_needed = 0, uses_anonymous_args = 0
 261 00e0 08B5     		push	{r3, lr}
 262              		.cfi_def_cfa_offset 8
 263              		.cfi_offset 3, -8
 264              		.cfi_offset 14, -4
 265              		.loc 4 348 0
 266 00e2 FFF78DFF 		bl	port_lock
 267              		.loc 4 351 0
 268 00e6 08BD     		pop	{r3, pc}
 269              		.cfi_endproc
 270              	.LFE156:
 271              		.size	chSysLock, .-chSysLock
 272              		.align	2
 273 00e8 AFF30080 		.p2align 4,,15
 273      AFF30080 
 274              		.thumb
 275              		.thumb_func
 276              		.type	chSysUnlock, %function
 277              	chSysUnlock:
 278              	.LFB157:
ARM GAS  /tmp/ccwJpLLF.s 			page 6


 279              		.loc 4 358 0
 280              		.cfi_startproc
 281              		@ args = 0, pretend = 0, frame = 0
 282              		@ frame_needed = 0, uses_anonymous_args = 0
 283 00f0 08B5     		push	{r3, lr}
 284              		.cfi_def_cfa_offset 8
 285              		.cfi_offset 3, -8
 286              		.cfi_offset 14, -4
 287              		.loc 4 371 0
 288 00f2 FFF78DFF 		bl	port_unlock
 289              		.loc 4 372 0
 290 00f6 08BD     		pop	{r3, pc}
 291              		.cfi_endproc
 292              	.LFE157:
 293              		.size	chSysUnlock, .-chSysUnlock
 294              		.align	2
 295 00f8 AFF30080 		.p2align 4,,15
 295      AFF30080 
 296              		.thumb
 297              		.thumb_func
 298              		.type	chThdGetSelfX, %function
 299              	chThdGetSelfX:
 300              	.LFB178:
 301              		.file 5 "../../ChibiOS/os/rt/include/chthreads.h"
 302              		.loc 5 174 0
 303              		.cfi_startproc
 304              		@ args = 0, pretend = 0, frame = 0
 305              		@ frame_needed = 0, uses_anonymous_args = 0
 306              		@ link register save eliminated.
 307              		.loc 5 176 0
 308 0100 014B     		ldr	r3, .L15
 309 0102 9B69     		ldr	r3, [r3, #24]
 310              		.loc 5 177 0
 311 0104 1846     		mov	r0, r3
 312 0106 7047     		bx	lr
 313              	.L16:
 314              		.align	2
 315              	.L15:
 316 0108 00000000 		.word	ch
 317              		.cfi_endproc
 318              	.LFE178:
 319              		.size	chThdGetSelfX, .-chThdGetSelfX
 320              		.align	2
 321 010c AFF30080 		.p2align 4,,15
 322              		.thumb
 323              		.thumb_func
 324              		.type	chMtxGetNextMutexS, %function
 325              	chMtxGetNextMutexS:
 326              	.LFB204:
 327              		.file 6 "../../ChibiOS/os/rt/include/chmtx.h"
 328              		.loc 6 143 0
 329              		.cfi_startproc
 330              		@ args = 0, pretend = 0, frame = 0
 331              		@ frame_needed = 0, uses_anonymous_args = 0
 332 0110 08B5     		push	{r3, lr}
 333              		.cfi_def_cfa_offset 8
 334              		.cfi_offset 3, -8
ARM GAS  /tmp/ccwJpLLF.s 			page 7


 335              		.cfi_offset 14, -4
 336              		.loc 6 145 0
 337 0112 FFF7F5FF 		bl	chThdGetSelfX
 338 0116 0346     		mov	r3, r0
 339 0118 9B6B     		ldr	r3, [r3, #56]
 340              		.loc 6 146 0
 341 011a 1846     		mov	r0, r3
 342 011c 08BD     		pop	{r3, pc}
 343              		.cfi_endproc
 344              	.LFE204:
 345              		.size	chMtxGetNextMutexS, .-chMtxGetNextMutexS
 346 011e 00BF     		.align	2
 347              		.p2align 4,,15
 348              		.global	chCondObjectInit
 349              		.thumb
 350              		.thumb_func
 351              		.type	chCondObjectInit, %function
 352              	chCondObjectInit:
 353              	.LFB230:
 354              		.file 7 "../../ChibiOS/os/rt/src/chcond.c"
 355              		.loc 7 75 0
 356              		.cfi_startproc
 357              		@ args = 0, pretend = 0, frame = 8
 358              		@ frame_needed = 0, uses_anonymous_args = 0
 359 0120 00B5     		push	{lr}
 360              		.cfi_def_cfa_offset 4
 361              		.cfi_offset 14, -4
 362 0122 83B0     		sub	sp, sp, #12
 363              		.cfi_def_cfa_offset 16
 364 0124 0190     		str	r0, [sp, #4]
 365              		.loc 7 79 0
 366 0126 019B     		ldr	r3, [sp, #4]
 367 0128 1846     		mov	r0, r3
 368 012a FFF779FF 		bl	queue_init
 369              		.loc 7 80 0
 370 012e 03B0     		add	sp, sp, #12
 371              		@ sp needed
 372 0130 5DF804FB 		ldr	pc, [sp], #4
 373              		.cfi_endproc
 374              	.LFE230:
 375              		.size	chCondObjectInit, .-chCondObjectInit
 376              		.align	2
 377 0134 AFF30080 		.p2align 4,,15
 377      AFF30080 
 377      AFF30080 
 378              		.global	chCondSignal
 379              		.thumb
 380              		.thumb_func
 381              		.type	chCondSignal, %function
 382              	chCondSignal:
 383              	.LFB231:
 384              		.loc 7 89 0
 385              		.cfi_startproc
 386              		@ args = 0, pretend = 0, frame = 8
 387              		@ frame_needed = 0, uses_anonymous_args = 0
 388 0140 00B5     		push	{lr}
 389              		.cfi_def_cfa_offset 4
ARM GAS  /tmp/ccwJpLLF.s 			page 8


 390              		.cfi_offset 14, -4
 391 0142 83B0     		sub	sp, sp, #12
 392              		.cfi_def_cfa_offset 16
 393 0144 0190     		str	r0, [sp, #4]
 394              		.loc 7 93 0
 395 0146 FFF7CBFF 		bl	chSysLock
 396              		.loc 7 94 0
 397 014a 019B     		ldr	r3, [sp, #4]
 398 014c 1846     		mov	r0, r3
 399 014e FFF777FF 		bl	queue_notempty
 400 0152 0346     		mov	r3, r0
 401 0154 002B     		cmp	r3, #0
 402 0156 08D0     		beq	.L21
 403              		.loc 7 95 0
 404 0158 019B     		ldr	r3, [sp, #4]
 405 015a 1846     		mov	r0, r3
 406 015c FFF7A8FF 		bl	queue_fifo_remove
 407 0160 0346     		mov	r3, r0
 408 0162 1846     		mov	r0, r3
 409 0164 0021     		movs	r1, #0
 410 0166 FFF7FEFF 		bl	chSchWakeupS
 411              	.L21:
 412              		.loc 7 97 0
 413 016a FFF7C1FF 		bl	chSysUnlock
 414              		.loc 7 98 0
 415 016e 03B0     		add	sp, sp, #12
 416              		@ sp needed
 417 0170 5DF804FB 		ldr	pc, [sp], #4
 418              		.cfi_endproc
 419              	.LFE231:
 420              		.size	chCondSignal, .-chCondSignal
 421              		.align	2
 422 0174 AFF30080 		.p2align 4,,15
 422      AFF30080 
 422      AFF30080 
 423              		.global	chCondSignalI
 424              		.thumb
 425              		.thumb_func
 426              		.type	chCondSignalI, %function
 427              	chCondSignalI:
 428              	.LFB232:
 429              		.loc 7 111 0
 430              		.cfi_startproc
 431              		@ args = 0, pretend = 0, frame = 16
 432              		@ frame_needed = 0, uses_anonymous_args = 0
 433 0180 00B5     		push	{lr}
 434              		.cfi_def_cfa_offset 4
 435              		.cfi_offset 14, -4
 436 0182 85B0     		sub	sp, sp, #20
 437              		.cfi_def_cfa_offset 24
 438 0184 0190     		str	r0, [sp, #4]
 439              		.loc 7 116 0
 440 0186 019B     		ldr	r3, [sp, #4]
 441 0188 1846     		mov	r0, r3
 442 018a FFF759FF 		bl	queue_notempty
 443 018e 0346     		mov	r3, r0
 444 0190 002B     		cmp	r3, #0
ARM GAS  /tmp/ccwJpLLF.s 			page 9


 445 0192 0AD0     		beq	.L22
 446              	.LBB10:
 447              		.loc 7 117 0
 448 0194 019B     		ldr	r3, [sp, #4]
 449 0196 1846     		mov	r0, r3
 450 0198 FFF78AFF 		bl	queue_fifo_remove
 451 019c 0390     		str	r0, [sp, #12]
 452              		.loc 7 118 0
 453 019e 039B     		ldr	r3, [sp, #12]
 454 01a0 0022     		movs	r2, #0
 455 01a2 1A62     		str	r2, [r3, #32]
 456              		.loc 7 119 0
 457 01a4 0398     		ldr	r0, [sp, #12]
 458 01a6 FFF7FEFF 		bl	chSchReadyI
 459              	.L22:
 460              	.LBE10:
 461              		.loc 7 121 0
 462 01aa 05B0     		add	sp, sp, #20
 463              		@ sp needed
 464 01ac 5DF804FB 		ldr	pc, [sp], #4
 465              		.cfi_endproc
 466              	.LFE232:
 467              		.size	chCondSignalI, .-chCondSignalI
 468              		.align	2
 469              		.p2align 4,,15
 470              		.global	chCondBroadcast
 471              		.thumb
 472              		.thumb_func
 473              		.type	chCondBroadcast, %function
 474              	chCondBroadcast:
 475              	.LFB233:
 476              		.loc 7 130 0
 477              		.cfi_startproc
 478              		@ args = 0, pretend = 0, frame = 8
 479              		@ frame_needed = 0, uses_anonymous_args = 0
 480 01b0 00B5     		push	{lr}
 481              		.cfi_def_cfa_offset 4
 482              		.cfi_offset 14, -4
 483 01b2 83B0     		sub	sp, sp, #12
 484              		.cfi_def_cfa_offset 16
 485 01b4 0190     		str	r0, [sp, #4]
 486              		.loc 7 132 0
 487 01b6 FFF793FF 		bl	chSysLock
 488              		.loc 7 133 0
 489 01ba 0198     		ldr	r0, [sp, #4]
 490 01bc FFF7FEFF 		bl	chCondBroadcastI
 491              		.loc 7 134 0
 492 01c0 FFF7FEFF 		bl	chSchRescheduleS
 493              		.loc 7 135 0
 494 01c4 FFF794FF 		bl	chSysUnlock
 495              		.loc 7 136 0
 496 01c8 03B0     		add	sp, sp, #12
 497              		@ sp needed
 498 01ca 5DF804FB 		ldr	pc, [sp], #4
 499              		.cfi_endproc
 500              	.LFE233:
 501              		.size	chCondBroadcast, .-chCondBroadcast
ARM GAS  /tmp/ccwJpLLF.s 			page 10


 502 01ce 00BF     		.align	2
 503              		.p2align 4,,15
 504              		.global	chCondBroadcastI
 505              		.thumb
 506              		.thumb_func
 507              		.type	chCondBroadcastI, %function
 508              	chCondBroadcastI:
 509              	.LFB234:
 510              		.loc 7 149 0
 511              		.cfi_startproc
 512              		@ args = 0, pretend = 0, frame = 8
 513              		@ frame_needed = 0, uses_anonymous_args = 0
 514 01d0 00B5     		push	{lr}
 515              		.cfi_def_cfa_offset 4
 516              		.cfi_offset 14, -4
 517 01d2 83B0     		sub	sp, sp, #12
 518              		.cfi_def_cfa_offset 16
 519 01d4 0190     		str	r0, [sp, #4]
 520              		.loc 7 157 0
 521 01d6 0BE0     		b	.L26
 522              	.L27:
 523              		.loc 7 158 0
 524 01d8 019B     		ldr	r3, [sp, #4]
 525 01da 1846     		mov	r0, r3
 526 01dc FFF768FF 		bl	queue_fifo_remove
 527 01e0 0346     		mov	r3, r0
 528 01e2 1846     		mov	r0, r3
 529 01e4 FFF7FEFF 		bl	chSchReadyI
 530 01e8 0346     		mov	r3, r0
 531 01ea 6FF00102 		mvn	r2, #1
 532 01ee 1A62     		str	r2, [r3, #32]
 533              	.L26:
 534              		.loc 7 157 0 discriminator 1
 535 01f0 019B     		ldr	r3, [sp, #4]
 536 01f2 1846     		mov	r0, r3
 537 01f4 FFF724FF 		bl	queue_notempty
 538 01f8 0346     		mov	r3, r0
 539 01fa 002B     		cmp	r3, #0
 540 01fc ECD1     		bne	.L27
 541              		.loc 7 160 0
 542 01fe 03B0     		add	sp, sp, #12
 543              		@ sp needed
 544 0200 5DF804FB 		ldr	pc, [sp], #4
 545              		.cfi_endproc
 546              	.LFE234:
 547              		.size	chCondBroadcastI, .-chCondBroadcastI
 548              		.align	2
 549 0204 AFF30080 		.p2align 4,,15
 549      AFF30080 
 549      AFF30080 
 550              		.global	chCondWait
 551              		.thumb
 552              		.thumb_func
 553              		.type	chCondWait, %function
 554              	chCondWait:
 555              	.LFB235:
 556              		.loc 7 179 0
ARM GAS  /tmp/ccwJpLLF.s 			page 11


 557              		.cfi_startproc
 558              		@ args = 0, pretend = 0, frame = 16
 559              		@ frame_needed = 0, uses_anonymous_args = 0
 560 0210 00B5     		push	{lr}
 561              		.cfi_def_cfa_offset 4
 562              		.cfi_offset 14, -4
 563 0212 85B0     		sub	sp, sp, #20
 564              		.cfi_def_cfa_offset 24
 565 0214 0190     		str	r0, [sp, #4]
 566              		.loc 7 182 0
 567 0216 FFF763FF 		bl	chSysLock
 568              		.loc 7 183 0
 569 021a 0198     		ldr	r0, [sp, #4]
 570 021c FFF7FEFF 		bl	chCondWaitS
 571 0220 0390     		str	r0, [sp, #12]
 572              		.loc 7 184 0
 573 0222 FFF765FF 		bl	chSysUnlock
 574              		.loc 7 185 0
 575 0226 039B     		ldr	r3, [sp, #12]
 576              		.loc 7 186 0
 577 0228 1846     		mov	r0, r3
 578 022a 05B0     		add	sp, sp, #20
 579              		@ sp needed
 580 022c 5DF804FB 		ldr	pc, [sp], #4
 581              		.cfi_endproc
 582              	.LFE235:
 583              		.size	chCondWait, .-chCondWait
 584              		.align	2
 585              		.p2align 4,,15
 586              		.global	chCondWaitS
 587              		.thumb
 588              		.thumb_func
 589              		.type	chCondWaitS, %function
 590              	chCondWaitS:
 591              	.LFB236:
 592              		.loc 7 205 0
 593              		.cfi_startproc
 594              		@ args = 0, pretend = 0, frame = 24
 595              		@ frame_needed = 0, uses_anonymous_args = 0
 596 0230 00B5     		push	{lr}
 597              		.cfi_def_cfa_offset 4
 598              		.cfi_offset 14, -4
 599 0232 87B0     		sub	sp, sp, #28
 600              		.cfi_def_cfa_offset 32
 601 0234 0190     		str	r0, [sp, #4]
 602              		.loc 7 206 0
 603 0236 0F4B     		ldr	r3, .L32
 604 0238 9B69     		ldr	r3, [r3, #24]
 605 023a 0593     		str	r3, [sp, #20]
 606              		.loc 7 215 0
 607 023c FFF768FF 		bl	chMtxGetNextMutexS
 608 0240 0490     		str	r0, [sp, #16]
 609              		.loc 7 216 0
 610 0242 0498     		ldr	r0, [sp, #16]
 611 0244 FFF7FEFF 		bl	chMtxUnlockS
 612              		.loc 7 220 0
 613 0248 059B     		ldr	r3, [sp, #20]
ARM GAS  /tmp/ccwJpLLF.s 			page 12


 614 024a 019A     		ldr	r2, [sp, #4]
 615 024c 1A62     		str	r2, [r3, #32]
 616              		.loc 7 221 0
 617 024e 019B     		ldr	r3, [sp, #4]
 618 0250 0598     		ldr	r0, [sp, #20]
 619 0252 1946     		mov	r1, r3
 620 0254 FFF704FF 		bl	queue_prio_insert
 621              		.loc 7 222 0
 622 0258 0720     		movs	r0, #7
 623 025a FFF7FEFF 		bl	chSchGoSleepS
 624              		.loc 7 223 0
 625 025e 059B     		ldr	r3, [sp, #20]
 626 0260 1B6A     		ldr	r3, [r3, #32]
 627 0262 0393     		str	r3, [sp, #12]
 628              		.loc 7 224 0
 629 0264 0498     		ldr	r0, [sp, #16]
 630 0266 FFF7FEFF 		bl	chMtxLockS
 631              		.loc 7 226 0
 632 026a 039B     		ldr	r3, [sp, #12]
 633              		.loc 7 227 0
 634 026c 1846     		mov	r0, r3
 635 026e 07B0     		add	sp, sp, #28
 636              		@ sp needed
 637 0270 5DF804FB 		ldr	pc, [sp], #4
 638              	.L33:
 639              		.align	2
 640              	.L32:
 641 0274 00000000 		.word	ch
 642              		.cfi_endproc
 643              	.LFE236:
 644              		.size	chCondWaitS, .-chCondWaitS
 645              		.align	2
 646 0278 AFF30080 		.p2align 4,,15
 646      AFF30080 
 647              		.global	chCondWaitTimeout
 648              		.thumb
 649              		.thumb_func
 650              		.type	chCondWaitTimeout, %function
 651              	chCondWaitTimeout:
 652              	.LFB237:
 653              		.loc 7 258 0
 654              		.cfi_startproc
 655              		@ args = 0, pretend = 0, frame = 16
 656              		@ frame_needed = 0, uses_anonymous_args = 0
 657 0280 00B5     		push	{lr}
 658              		.cfi_def_cfa_offset 4
 659              		.cfi_offset 14, -4
 660 0282 85B0     		sub	sp, sp, #20
 661              		.cfi_def_cfa_offset 24
 662 0284 0190     		str	r0, [sp, #4]
 663 0286 0091     		str	r1, [sp]
 664              		.loc 7 261 0
 665 0288 FFF72AFF 		bl	chSysLock
 666              		.loc 7 262 0
 667 028c 0198     		ldr	r0, [sp, #4]
 668 028e 0099     		ldr	r1, [sp]
 669 0290 FFF7FEFF 		bl	chCondWaitTimeoutS
ARM GAS  /tmp/ccwJpLLF.s 			page 13


 670 0294 0390     		str	r0, [sp, #12]
 671              		.loc 7 263 0
 672 0296 FFF72BFF 		bl	chSysUnlock
 673              		.loc 7 265 0
 674 029a 039B     		ldr	r3, [sp, #12]
 675              		.loc 7 266 0
 676 029c 1846     		mov	r0, r3
 677 029e 05B0     		add	sp, sp, #20
 678              		@ sp needed
 679 02a0 5DF804FB 		ldr	pc, [sp], #4
 680              		.cfi_endproc
 681              	.LFE237:
 682              		.size	chCondWaitTimeout, .-chCondWaitTimeout
 683              		.align	2
 684 02a4 AFF30080 		.p2align 4,,15
 684      AFF30080 
 684      AFF30080 
 685              		.global	chCondWaitTimeoutS
 686              		.thumb
 687              		.thumb_func
 688              		.type	chCondWaitTimeoutS, %function
 689              	chCondWaitTimeoutS:
 690              	.LFB238:
 691              		.loc 7 296 0
 692              		.cfi_startproc
 693              		@ args = 0, pretend = 0, frame = 16
 694              		@ frame_needed = 0, uses_anonymous_args = 0
 695 02b0 00B5     		push	{lr}
 696              		.cfi_def_cfa_offset 4
 697              		.cfi_offset 14, -4
 698 02b2 85B0     		sub	sp, sp, #20
 699              		.cfi_def_cfa_offset 24
 700 02b4 0190     		str	r0, [sp, #4]
 701 02b6 0091     		str	r1, [sp]
 702              		.loc 7 305 0
 703 02b8 FFF72AFF 		bl	chMtxGetNextMutexS
 704 02bc 0390     		str	r0, [sp, #12]
 705              		.loc 7 306 0
 706 02be 0398     		ldr	r0, [sp, #12]
 707 02c0 FFF7FEFF 		bl	chMtxUnlockS
 708              		.loc 7 310 0
 709 02c4 0D4B     		ldr	r3, .L39
 710 02c6 9B69     		ldr	r3, [r3, #24]
 711 02c8 019A     		ldr	r2, [sp, #4]
 712 02ca 1A62     		str	r2, [r3, #32]
 713              		.loc 7 311 0
 714 02cc 0B4B     		ldr	r3, .L39
 715 02ce 9A69     		ldr	r2, [r3, #24]
 716 02d0 019B     		ldr	r3, [sp, #4]
 717 02d2 1046     		mov	r0, r2
 718 02d4 1946     		mov	r1, r3
 719 02d6 FFF7C3FE 		bl	queue_prio_insert
 720              		.loc 7 312 0
 721 02da 0720     		movs	r0, #7
 722 02dc 0099     		ldr	r1, [sp]
 723 02de FFF7FEFF 		bl	chSchGoSleepTimeoutS
 724 02e2 0290     		str	r0, [sp, #8]
ARM GAS  /tmp/ccwJpLLF.s 			page 14


 725              		.loc 7 313 0
 726 02e4 029B     		ldr	r3, [sp, #8]
 727 02e6 B3F1FF3F 		cmp	r3, #-1
 728 02ea 02D0     		beq	.L37
 729              		.loc 7 314 0
 730 02ec 0398     		ldr	r0, [sp, #12]
 731 02ee FFF7FEFF 		bl	chMtxLockS
 732              	.L37:
 733              		.loc 7 317 0
 734 02f2 029B     		ldr	r3, [sp, #8]
 735              		.loc 7 318 0
 736 02f4 1846     		mov	r0, r3
 737 02f6 05B0     		add	sp, sp, #20
 738              		@ sp needed
 739 02f8 5DF804FB 		ldr	pc, [sp], #4
 740              	.L40:
 741              		.align	2
 742              	.L39:
 743 02fc 00000000 		.word	ch
 744              		.cfi_endproc
 745              	.LFE238:
 746              		.size	chCondWaitTimeoutS, .-chCondWaitTimeoutS
 747              	.Letext0:
 748              		.file 8 "/nfs/nfs5/home/research/hardware/arm2/gcc-arm-embedded/gcc-arm-none-eabi-4_8-2014q2/arm-n
 749              		.file 9 "/nfs/nfs5/home/research/hardware/arm2/gcc-arm-embedded/gcc-arm-none-eabi-4_8-2014q2/arm-n
 750              		.file 10 "../../ChibiOS/os/rt/ports/ARMCMx/compilers/GCC/chtypes.h"
 751              		.file 11 "../../ChibiOS/os/rt/include/chsystypes.h"
 752              		.file 12 "../../ChibiOS/os/rt/ports/ARMCMx/chcore.h"
 753              		.file 13 "../../ChibiOS/os/rt/include/chtm.h"
 754              		.file 14 "../../ChibiOS/os/rt/include/chsem.h"
 755              		.file 15 "../../ChibiOS/os/rt/include/chcond.h"
 756              		.file 16 "../../ChibiOS/os/ext/CMSIS/include/core_cm4.h"
 757              		.section	.debug_info,"",%progbits
 758              	.Ldebug_info0:
 759 0000 BD0A0000 		.4byte	0xabd
 760 0004 0400     		.2byte	0x4
 761 0006 00000000 		.4byte	.Ldebug_abbrev0
 762 000a 04       		.byte	0x4
 763 000b 01       		.uleb128 0x1
 764 000c 90020000 		.4byte	.LASF128
 765 0010 01       		.byte	0x1
 766 0011 52010000 		.4byte	.LASF129
 767 0015 6E000000 		.4byte	.LASF130
 768 0019 00000000 		.4byte	.Ltext0
 769 001d 00030000 		.4byte	.Letext0-.Ltext0
 770 0021 00000000 		.4byte	.Ldebug_line0
 771 0025 02       		.uleb128 0x2
 772 0026 04       		.byte	0x4
 773 0027 05       		.byte	0x5
 774 0028 696E7400 		.ascii	"int\000"
 775 002c 03       		.uleb128 0x3
 776 002d 04       		.byte	0x4
 777 002e 07       		.byte	0x7
 778 002f 2C020000 		.4byte	.LASF0
 779 0033 03       		.uleb128 0x3
 780 0034 01       		.byte	0x1
 781 0035 06       		.byte	0x6
ARM GAS  /tmp/ccwJpLLF.s 			page 15


 782 0036 29010000 		.4byte	.LASF1
 783 003a 04       		.uleb128 0x4
 784 003b 23000000 		.4byte	.LASF5
 785 003f 08       		.byte	0x8
 786 0040 1C       		.byte	0x1c
 787 0041 45000000 		.4byte	0x45
 788 0045 03       		.uleb128 0x3
 789 0046 01       		.byte	0x1
 790 0047 08       		.byte	0x8
 791 0048 76040000 		.4byte	.LASF2
 792 004c 03       		.uleb128 0x3
 793 004d 02       		.byte	0x2
 794 004e 05       		.byte	0x5
 795 004f 8E040000 		.4byte	.LASF3
 796 0053 03       		.uleb128 0x3
 797 0054 02       		.byte	0x2
 798 0055 07       		.byte	0x7
 799 0056 59020000 		.4byte	.LASF4
 800 005a 04       		.uleb128 0x4
 801 005b 54030000 		.4byte	.LASF6
 802 005f 08       		.byte	0x8
 803 0060 37       		.byte	0x37
 804 0061 65000000 		.4byte	0x65
 805 0065 03       		.uleb128 0x3
 806 0066 04       		.byte	0x4
 807 0067 05       		.byte	0x5
 808 0068 A2010000 		.4byte	.LASF7
 809 006c 04       		.uleb128 0x4
 810 006d B3050000 		.4byte	.LASF8
 811 0071 08       		.byte	0x8
 812 0072 38       		.byte	0x38
 813 0073 77000000 		.4byte	0x77
 814 0077 03       		.uleb128 0x3
 815 0078 04       		.byte	0x4
 816 0079 07       		.byte	0x7
 817 007a 4F050000 		.4byte	.LASF9
 818 007e 03       		.uleb128 0x3
 819 007f 08       		.byte	0x8
 820 0080 05       		.byte	0x5
 821 0081 1B010000 		.4byte	.LASF10
 822 0085 04       		.uleb128 0x4
 823 0086 28040000 		.4byte	.LASF11
 824 008a 08       		.byte	0x8
 825 008b 4E       		.byte	0x4e
 826 008c 90000000 		.4byte	0x90
 827 0090 03       		.uleb128 0x3
 828 0091 08       		.byte	0x8
 829 0092 07       		.byte	0x7
 830 0093 B5000000 		.4byte	.LASF12
 831 0097 04       		.uleb128 0x4
 832 0098 3C060000 		.4byte	.LASF13
 833 009c 09       		.byte	0x9
 834 009d 2A       		.byte	0x2a
 835 009e 3A000000 		.4byte	0x3a
 836 00a2 04       		.uleb128 0x4
 837 00a3 6E040000 		.4byte	.LASF14
 838 00a7 09       		.byte	0x9
ARM GAS  /tmp/ccwJpLLF.s 			page 16


 839 00a8 41       		.byte	0x41
 840 00a9 5A000000 		.4byte	0x5a
 841 00ad 04       		.uleb128 0x4
 842 00ae 1E050000 		.4byte	.LASF15
 843 00b2 09       		.byte	0x9
 844 00b3 42       		.byte	0x42
 845 00b4 6C000000 		.4byte	0x6c
 846 00b8 04       		.uleb128 0x4
 847 00b9 1A000000 		.4byte	.LASF16
 848 00bd 09       		.byte	0x9
 849 00be 4E       		.byte	0x4e
 850 00bf 85000000 		.4byte	0x85
 851 00c3 04       		.uleb128 0x4
 852 00c4 E5050000 		.4byte	.LASF17
 853 00c8 0A       		.byte	0xa
 854 00c9 39       		.byte	0x39
 855 00ca AD000000 		.4byte	0xad
 856 00ce 04       		.uleb128 0x4
 857 00cf 88020000 		.4byte	.LASF18
 858 00d3 0A       		.byte	0xa
 859 00d4 3C       		.byte	0x3c
 860 00d5 97000000 		.4byte	0x97
 861 00d9 04       		.uleb128 0x4
 862 00da AB010000 		.4byte	.LASF19
 863 00de 0A       		.byte	0xa
 864 00df 3D       		.byte	0x3d
 865 00e0 97000000 		.4byte	0x97
 866 00e4 04       		.uleb128 0x4
 867 00e5 33040000 		.4byte	.LASF20
 868 00e9 0A       		.byte	0xa
 869 00ea 3E       		.byte	0x3e
 870 00eb 97000000 		.4byte	0x97
 871 00ef 04       		.uleb128 0x4
 872 00f0 8E010000 		.4byte	.LASF21
 873 00f4 0A       		.byte	0xa
 874 00f5 3F       		.byte	0x3f
 875 00f6 97000000 		.4byte	0x97
 876 00fa 04       		.uleb128 0x4
 877 00fb 52040000 		.4byte	.LASF22
 878 00ff 0A       		.byte	0xa
 879 0100 40       		.byte	0x40
 880 0101 AD000000 		.4byte	0xad
 881 0105 04       		.uleb128 0x4
 882 0106 76020000 		.4byte	.LASF23
 883 010a 0A       		.byte	0xa
 884 010b 41       		.byte	0x41
 885 010c A2000000 		.4byte	0xa2
 886 0110 04       		.uleb128 0x4
 887 0111 48030000 		.4byte	.LASF24
 888 0115 0A       		.byte	0xa
 889 0116 43       		.byte	0x43
 890 0117 AD000000 		.4byte	0xad
 891 011b 04       		.uleb128 0x4
 892 011c 26020000 		.4byte	.LASF25
 893 0120 0A       		.byte	0xa
 894 0121 45       		.byte	0x45
 895 0122 A2000000 		.4byte	0xa2
ARM GAS  /tmp/ccwJpLLF.s 			page 17


 896 0126 04       		.uleb128 0x4
 897 0127 95050000 		.4byte	.LASF26
 898 012b 0B       		.byte	0xb
 899 012c 33       		.byte	0x33
 900 012d AD000000 		.4byte	0xad
 901 0131 04       		.uleb128 0x4
 902 0132 1F060000 		.4byte	.LASF27
 903 0136 0B       		.byte	0xb
 904 0137 3F       		.byte	0x3f
 905 0138 3C010000 		.4byte	0x13c
 906 013c 05       		.uleb128 0x5
 907 013d 6C020000 		.4byte	.LASF48
 908 0141 44       		.byte	0x44
 909 0142 03       		.byte	0x3
 910 0143 C2       		.byte	0xc2
 911 0144 35020000 		.4byte	0x235
 912 0148 06       		.uleb128 0x6
 913 0149 B8040000 		.4byte	.LASF28
 914 014d 03       		.byte	0x3
 915 014e C3       		.byte	0xc3
 916 014f 40020000 		.4byte	0x240
 917 0153 00       		.byte	0
 918 0154 06       		.uleb128 0x6
 919 0155 4B040000 		.4byte	.LASF29
 920 0159 03       		.byte	0x3
 921 015a C5       		.byte	0xc5
 922 015b 40020000 		.4byte	0x240
 923 015f 04       		.byte	0x4
 924 0160 06       		.uleb128 0x6
 925 0161 14010000 		.4byte	.LASF30
 926 0165 03       		.byte	0x3
 927 0166 C7       		.byte	0xc7
 928 0167 FA000000 		.4byte	0xfa
 929 016b 08       		.byte	0x8
 930 016c 06       		.uleb128 0x6
 931 016d 9B060000 		.4byte	.LASF31
 932 0171 03       		.byte	0x3
 933 0172 C8       		.byte	0xc8
 934 0173 70040000 		.4byte	0x470
 935 0177 0C       		.byte	0xc
 936 0178 06       		.uleb128 0x6
 937 0179 C3010000 		.4byte	.LASF32
 938 017d 03       		.byte	0x3
 939 017e CA       		.byte	0xca
 940 017f 40020000 		.4byte	0x240
 941 0183 10       		.byte	0x10
 942 0184 06       		.uleb128 0x6
 943 0185 DB030000 		.4byte	.LASF33
 944 0189 03       		.byte	0x3
 945 018a CB       		.byte	0xcb
 946 018b 40020000 		.4byte	0x240
 947 018f 14       		.byte	0x14
 948 0190 06       		.uleb128 0x6
 949 0191 4B060000 		.4byte	.LASF34
 950 0195 03       		.byte	0x3
 951 0196 D2       		.byte	0xd2
 952 0197 EF050000 		.4byte	0x5ef
ARM GAS  /tmp/ccwJpLLF.s 			page 18


 953 019b 18       		.byte	0x18
 954 019c 06       		.uleb128 0x6
 955 019d 98040000 		.4byte	.LASF35
 956 01a1 03       		.byte	0x3
 957 01a2 DD       		.byte	0xdd
 958 01a3 D9000000 		.4byte	0xd9
 959 01a7 1C       		.byte	0x1c
 960 01a8 06       		.uleb128 0x6
 961 01a9 BF040000 		.4byte	.LASF36
 962 01ad 03       		.byte	0x3
 963 01ae E1       		.byte	0xe1
 964 01af CE000000 		.4byte	0xce
 965 01b3 1D       		.byte	0x1d
 966 01b4 06       		.uleb128 0x6
 967 01b5 18060000 		.4byte	.LASF37
 968 01b9 03       		.byte	0x3
 969 01ba E6       		.byte	0xe6
 970 01bb E4000000 		.4byte	0xe4
 971 01bf 1E       		.byte	0x1e
 972 01c0 06       		.uleb128 0x6
 973 01c1 A0040000 		.4byte	.LASF38
 974 01c5 03       		.byte	0x3
 975 01c6 EC       		.byte	0xec
 976 01c7 EF000000 		.4byte	0xef
 977 01cb 1F       		.byte	0x1f
 978 01cc 07       		.uleb128 0x7
 979 01cd 705F7500 		.ascii	"p_u\000"
 980 01d1 03       		.byte	0x3
 981 01d2 3101     		.2byte	0x131
 982 01d4 2A050000 		.4byte	0x52a
 983 01d8 20       		.byte	0x20
 984 01d9 08       		.uleb128 0x8
 985 01da 78030000 		.4byte	.LASF39
 986 01de 03       		.byte	0x3
 987 01df 3601     		.2byte	0x136
 988 01e1 46020000 		.4byte	0x246
 989 01e5 24       		.byte	0x24
 990 01e6 08       		.uleb128 0x8
 991 01e7 48020000 		.4byte	.LASF40
 992 01eb 03       		.byte	0x3
 993 01ec 3C01     		.2byte	0x13c
 994 01ee 6A020000 		.4byte	0x26a
 995 01f2 28       		.byte	0x28
 996 01f3 08       		.uleb128 0x8
 997 01f4 7B060000 		.4byte	.LASF41
 998 01f8 03       		.byte	0x3
 999 01f9 4001     		.2byte	0x140
 1000 01fb 05010000 		.4byte	0x105
 1001 01ff 30       		.byte	0x30
 1002 0200 08       		.uleb128 0x8
 1003 0201 00050000 		.4byte	.LASF42
 1004 0205 03       		.byte	0x3
 1005 0206 4601     		.2byte	0x146
 1006 0208 10010000 		.4byte	0x110
 1007 020c 34       		.byte	0x34
 1008 020d 08       		.uleb128 0x8
 1009 020e 84040000 		.4byte	.LASF43
ARM GAS  /tmp/ccwJpLLF.s 			page 19


 1010 0212 03       		.byte	0x3
 1011 0213 4D01     		.2byte	0x14d
 1012 0215 E9050000 		.4byte	0x5e9
 1013 0219 38       		.byte	0x38
 1014 021a 08       		.uleb128 0x8
 1015 021b 9F050000 		.4byte	.LASF44
 1016 021f 03       		.byte	0x3
 1017 0220 5101     		.2byte	0x151
 1018 0222 FA000000 		.4byte	0xfa
 1019 0226 3C       		.byte	0x3c
 1020 0227 08       		.uleb128 0x8
 1021 0228 4A010000 		.4byte	.LASF45
 1022 022c 03       		.byte	0x3
 1023 022d 5801     		.2byte	0x158
 1024 022f 1D030000 		.4byte	0x31d
 1025 0233 40       		.byte	0x40
 1026 0234 00       		.byte	0
 1027 0235 04       		.uleb128 0x4
 1028 0236 8B030000 		.4byte	.LASF46
 1029 023a 0B       		.byte	0xb
 1030 023b 44       		.byte	0x44
 1031 023c 40020000 		.4byte	0x240
 1032 0240 09       		.uleb128 0x9
 1033 0241 04       		.byte	0x4
 1034 0242 31010000 		.4byte	0x131
 1035 0246 04       		.uleb128 0x4
 1036 0247 69030000 		.4byte	.LASF47
 1037 024b 0B       		.byte	0xb
 1038 024c 49       		.byte	0x49
 1039 024d 51020000 		.4byte	0x251
 1040 0251 05       		.uleb128 0x5
 1041 0252 3F050000 		.4byte	.LASF49
 1042 0256 04       		.byte	0x4
 1043 0257 03       		.byte	0x3
 1044 0258 B0       		.byte	0xb0
 1045 0259 6A020000 		.4byte	0x26a
 1046 025d 06       		.uleb128 0x6
 1047 025e B8040000 		.4byte	.LASF28
 1048 0262 03       		.byte	0x3
 1049 0263 B1       		.byte	0xb1
 1050 0264 40020000 		.4byte	0x240
 1051 0268 00       		.byte	0
 1052 0269 00       		.byte	0
 1053 026a 04       		.uleb128 0x4
 1054 026b FF050000 		.4byte	.LASF50
 1055 026f 0B       		.byte	0xb
 1056 0270 50       		.byte	0x50
 1057 0271 75020000 		.4byte	0x275
 1058 0275 05       		.uleb128 0x5
 1059 0276 03010000 		.4byte	.LASF51
 1060 027a 08       		.byte	0x8
 1061 027b 03       		.byte	0x3
 1062 027c B7       		.byte	0xb7
 1063 027d 9A020000 		.4byte	0x29a
 1064 0281 06       		.uleb128 0x6
 1065 0282 B8040000 		.4byte	.LASF28
 1066 0286 03       		.byte	0x3
ARM GAS  /tmp/ccwJpLLF.s 			page 20


 1067 0287 B8       		.byte	0xb8
 1068 0288 40020000 		.4byte	0x240
 1069 028c 00       		.byte	0
 1070 028d 06       		.uleb128 0x6
 1071 028e 4B040000 		.4byte	.LASF29
 1072 0292 03       		.byte	0x3
 1073 0293 B9       		.byte	0xb9
 1074 0294 40020000 		.4byte	0x240
 1075 0298 04       		.byte	0x4
 1076 0299 00       		.byte	0
 1077 029a 04       		.uleb128 0x4
 1078 029b 00000000 		.4byte	.LASF52
 1079 029f 0B       		.byte	0xb
 1080 02a0 57       		.byte	0x57
 1081 02a1 A5020000 		.4byte	0x2a5
 1082 02a5 0A       		.uleb128 0xa
 1083 02a6 3A030000 		.4byte	.LASF53
 1084 02aa 1C       		.byte	0x1c
 1085 02ab 03       		.byte	0x3
 1086 02ac 9001     		.2byte	0x190
 1087 02ae 01030000 		.4byte	0x301
 1088 02b2 08       		.uleb128 0x8
 1089 02b3 2E050000 		.4byte	.LASF54
 1090 02b7 03       		.byte	0x3
 1091 02b8 9101     		.2byte	0x191
 1092 02ba 6A020000 		.4byte	0x26a
 1093 02be 00       		.byte	0
 1094 02bf 08       		.uleb128 0x8
 1095 02c0 AA040000 		.4byte	.LASF55
 1096 02c4 03       		.byte	0x3
 1097 02c5 9201     		.2byte	0x192
 1098 02c7 FA000000 		.4byte	0xfa
 1099 02cb 08       		.byte	0x8
 1100 02cc 08       		.uleb128 0x8
 1101 02cd E3030000 		.4byte	.LASF56
 1102 02d1 03       		.byte	0x3
 1103 02d2 9401     		.2byte	0x194
 1104 02d4 70040000 		.4byte	0x470
 1105 02d8 0C       		.byte	0xc
 1106 02d9 08       		.uleb128 0x8
 1107 02da D3010000 		.4byte	.LASF57
 1108 02de 03       		.byte	0x3
 1109 02df 9701     		.2byte	0x197
 1110 02e1 40020000 		.4byte	0x240
 1111 02e5 10       		.byte	0x10
 1112 02e6 08       		.uleb128 0x8
 1113 02e7 10040000 		.4byte	.LASF58
 1114 02eb 03       		.byte	0x3
 1115 02ec 9801     		.2byte	0x198
 1116 02ee 40020000 		.4byte	0x240
 1117 02f2 14       		.byte	0x14
 1118 02f3 08       		.uleb128 0x8
 1119 02f4 06040000 		.4byte	.LASF59
 1120 02f8 03       		.byte	0x3
 1121 02f9 9B01     		.2byte	0x19b
 1122 02fb 40020000 		.4byte	0x240
 1123 02ff 18       		.byte	0x18
ARM GAS  /tmp/ccwJpLLF.s 			page 21


 1124 0300 00       		.byte	0
 1125 0301 04       		.uleb128 0x4
 1126 0302 AA050000 		.4byte	.LASF60
 1127 0306 0B       		.byte	0xb
 1128 0307 5C       		.byte	0x5c
 1129 0308 0C030000 		.4byte	0x30c
 1130 030c 09       		.uleb128 0x9
 1131 030d 04       		.byte	0x4
 1132 030e 12030000 		.4byte	0x312
 1133 0312 0B       		.uleb128 0xb
 1134 0313 1D030000 		.4byte	0x31d
 1135 0317 0C       		.uleb128 0xc
 1136 0318 1D030000 		.4byte	0x31d
 1137 031c 00       		.byte	0
 1138 031d 0D       		.uleb128 0xd
 1139 031e 04       		.byte	0x4
 1140 031f 04       		.uleb128 0x4
 1141 0320 3B040000 		.4byte	.LASF61
 1142 0324 0B       		.byte	0xb
 1143 0325 61       		.byte	0x61
 1144 0326 2A030000 		.4byte	0x32a
 1145 032a 0A       		.uleb128 0xa
 1146 032b DA040000 		.4byte	.LASF62
 1147 032f 14       		.byte	0x14
 1148 0330 03       		.byte	0x3
 1149 0331 6B01     		.2byte	0x16b
 1150 0333 79030000 		.4byte	0x379
 1151 0337 08       		.uleb128 0x8
 1152 0338 39020000 		.4byte	.LASF63
 1153 033c 03       		.byte	0x3
 1154 033d 6C01     		.2byte	0x16c
 1155 033f 01060000 		.4byte	0x601
 1156 0343 00       		.byte	0
 1157 0344 08       		.uleb128 0x8
 1158 0345 E4010000 		.4byte	.LASF64
 1159 0349 03       		.byte	0x3
 1160 034a 6D01     		.2byte	0x16d
 1161 034c 01060000 		.4byte	0x601
 1162 0350 04       		.byte	0x4
 1163 0351 08       		.uleb128 0x8
 1164 0352 36050000 		.4byte	.LASF65
 1165 0356 03       		.byte	0x3
 1166 0357 6E01     		.2byte	0x16e
 1167 0359 26010000 		.4byte	0x126
 1168 035d 08       		.byte	0x8
 1169 035e 08       		.uleb128 0x8
 1170 035f A1060000 		.4byte	.LASF66
 1171 0363 03       		.byte	0x3
 1172 0364 6F01     		.2byte	0x16f
 1173 0366 01030000 		.4byte	0x301
 1174 036a 0C       		.byte	0xc
 1175 036b 08       		.uleb128 0x8
 1176 036c F8050000 		.4byte	.LASF67
 1177 0370 03       		.byte	0x3
 1178 0371 7101     		.2byte	0x171
 1179 0373 1D030000 		.4byte	0x31d
 1180 0377 10       		.byte	0x10
ARM GAS  /tmp/ccwJpLLF.s 			page 22


 1181 0378 00       		.byte	0
 1182 0379 04       		.uleb128 0x4
 1183 037a E0000000 		.4byte	.LASF68
 1184 037e 0B       		.byte	0xb
 1185 037f 66       		.byte	0x66
 1186 0380 84030000 		.4byte	0x384
 1187 0384 0A       		.uleb128 0xa
 1188 0385 9E030000 		.4byte	.LASF69
 1189 0389 10       		.byte	0x10
 1190 038a 03       		.byte	0x3
 1191 038b 7B01     		.2byte	0x17b
 1192 038d C6030000 		.4byte	0x3c6
 1193 0391 08       		.uleb128 0x8
 1194 0392 39020000 		.4byte	.LASF63
 1195 0396 03       		.byte	0x3
 1196 0397 7C01     		.2byte	0x17c
 1197 0399 01060000 		.4byte	0x601
 1198 039d 00       		.byte	0
 1199 039e 08       		.uleb128 0x8
 1200 039f E4010000 		.4byte	.LASF64
 1201 03a3 03       		.byte	0x3
 1202 03a4 7E01     		.2byte	0x17e
 1203 03a6 01060000 		.4byte	0x601
 1204 03aa 04       		.byte	0x4
 1205 03ab 08       		.uleb128 0x8
 1206 03ac 36050000 		.4byte	.LASF65
 1207 03b0 03       		.byte	0x3
 1208 03b1 8001     		.2byte	0x180
 1209 03b3 26010000 		.4byte	0x126
 1210 03b7 08       		.byte	0x8
 1211 03b8 08       		.uleb128 0x8
 1212 03b9 64060000 		.4byte	.LASF70
 1213 03bd 03       		.byte	0x3
 1214 03be 8201     		.2byte	0x182
 1215 03c0 07060000 		.4byte	0x607
 1216 03c4 0C       		.byte	0xc
 1217 03c5 00       		.byte	0
 1218 03c6 04       		.uleb128 0x4
 1219 03c7 39000000 		.4byte	.LASF71
 1220 03cb 0B       		.byte	0xb
 1221 03cc 6B       		.byte	0x6b
 1222 03cd D1030000 		.4byte	0x3d1
 1223 03d1 0A       		.uleb128 0xa
 1224 03d2 EC010000 		.4byte	.LASF72
 1225 03d6 04       		.byte	0x4
 1226 03d7 03       		.byte	0x3
 1227 03d8 A201     		.2byte	0x1a2
 1228 03da EC030000 		.4byte	0x3ec
 1229 03de 08       		.uleb128 0x8
 1230 03df CC050000 		.4byte	.LASF73
 1231 03e3 03       		.byte	0x3
 1232 03e4 AA01     		.2byte	0x1aa
 1233 03e6 0C060000 		.4byte	0x60c
 1234 03ea 00       		.byte	0
 1235 03eb 00       		.byte	0
 1236 03ec 04       		.uleb128 0x4
 1237 03ed 7C020000 		.4byte	.LASF74
ARM GAS  /tmp/ccwJpLLF.s 			page 23


 1238 03f1 0B       		.byte	0xb
 1239 03f2 70       		.byte	0x70
 1240 03f3 F7030000 		.4byte	0x3f7
 1241 03f7 0E       		.uleb128 0xe
 1242 03f8 98010000 		.4byte	.LASF75
 1243 03fc 5001     		.2byte	0x150
 1244 03fe 03       		.byte	0x3
 1245 03ff C201     		.2byte	0x1c2
 1246 0401 53040000 		.4byte	0x453
 1247 0405 08       		.uleb128 0x8
 1248 0406 28060000 		.4byte	.LASF76
 1249 040a 03       		.byte	0x3
 1250 040b C601     		.2byte	0x1c6
 1251 040d 9A020000 		.4byte	0x29a
 1252 0411 00       		.byte	0
 1253 0412 08       		.uleb128 0x8
 1254 0413 7B010000 		.4byte	.LASF77
 1255 0417 03       		.byte	0x3
 1256 0418 CA01     		.2byte	0x1ca
 1257 041a 79030000 		.4byte	0x379
 1258 041e 1C       		.byte	0x1c
 1259 041f 07       		.uleb128 0x7
 1260 0420 64626700 		.ascii	"dbg\000"
 1261 0424 03       		.byte	0x3
 1262 0425 CE01     		.2byte	0x1ce
 1263 0427 C6030000 		.4byte	0x3c6
 1264 042b 2C       		.byte	0x2c
 1265 042c 08       		.uleb128 0x8
 1266 042d D5000000 		.4byte	.LASF78
 1267 0431 03       		.byte	0x3
 1268 0432 D201     		.2byte	0x1d2
 1269 0434 31010000 		.4byte	0x131
 1270 0438 30       		.byte	0x30
 1271 0439 07       		.uleb128 0x7
 1272 043a 746D00   		.ascii	"tm\000"
 1273 043d 03       		.byte	0x3
 1274 043e D701     		.2byte	0x1d7
 1275 0440 1F050000 		.4byte	0x51f
 1276 0444 74       		.byte	0x74
 1277 0445 08       		.uleb128 0x8
 1278 0446 17020000 		.4byte	.LASF79
 1279 044a 03       		.byte	0x3
 1280 044b E301     		.2byte	0x1e3
 1281 044d 11060000 		.4byte	0x611
 1282 0451 78       		.byte	0x78
 1283 0452 00       		.byte	0
 1284 0453 03       		.uleb128 0x3
 1285 0454 04       		.byte	0x4
 1286 0455 07       		.byte	0x7
 1287 0456 82030000 		.4byte	.LASF80
 1288 045a 04       		.uleb128 0x4
 1289 045b DB010000 		.4byte	.LASF81
 1290 045f 0C       		.byte	0xc
 1291 0460 65       		.byte	0x65
 1292 0461 1D030000 		.4byte	0x31d
 1293 0465 04       		.uleb128 0x4
 1294 0466 5E030000 		.4byte	.LASF82
ARM GAS  /tmp/ccwJpLLF.s 			page 24


 1295 046a 0C       		.byte	0xc
 1296 046b 6D       		.byte	0x6d
 1297 046c B8000000 		.4byte	0xb8
 1298 0470 05       		.uleb128 0x5
 1299 0471 DD050000 		.4byte	.LASF83
 1300 0475 04       		.byte	0x4
 1301 0476 0C       		.byte	0xc
 1302 0477 89       		.byte	0x89
 1303 0478 89040000 		.4byte	0x489
 1304 047c 0F       		.uleb128 0xf
 1305 047d 72313300 		.ascii	"r13\000"
 1306 0481 0C       		.byte	0xc
 1307 0482 8A       		.byte	0x8a
 1308 0483 04050000 		.4byte	0x504
 1309 0487 00       		.byte	0
 1310 0488 00       		.byte	0
 1311 0489 05       		.uleb128 0x5
 1312 048a 2D000000 		.4byte	.LASF84
 1313 048e 24       		.byte	0x24
 1314 048f 01       		.byte	0x1
 1315 0490 FD       		.byte	0xfd
 1316 0491 04050000 		.4byte	0x504
 1317 0495 07       		.uleb128 0x7
 1318 0496 723400   		.ascii	"r4\000"
 1319 0499 01       		.byte	0x1
 1320 049a 1001     		.2byte	0x110
 1321 049c 5A040000 		.4byte	0x45a
 1322 04a0 00       		.byte	0
 1323 04a1 07       		.uleb128 0x7
 1324 04a2 723500   		.ascii	"r5\000"
 1325 04a5 01       		.byte	0x1
 1326 04a6 1101     		.2byte	0x111
 1327 04a8 5A040000 		.4byte	0x45a
 1328 04ac 04       		.byte	0x4
 1329 04ad 07       		.uleb128 0x7
 1330 04ae 723600   		.ascii	"r6\000"
 1331 04b1 01       		.byte	0x1
 1332 04b2 1201     		.2byte	0x112
 1333 04b4 5A040000 		.4byte	0x45a
 1334 04b8 08       		.byte	0x8
 1335 04b9 07       		.uleb128 0x7
 1336 04ba 723700   		.ascii	"r7\000"
 1337 04bd 01       		.byte	0x1
 1338 04be 1301     		.2byte	0x113
 1339 04c0 5A040000 		.4byte	0x45a
 1340 04c4 0C       		.byte	0xc
 1341 04c5 07       		.uleb128 0x7
 1342 04c6 723800   		.ascii	"r8\000"
 1343 04c9 01       		.byte	0x1
 1344 04ca 1401     		.2byte	0x114
 1345 04cc 5A040000 		.4byte	0x45a
 1346 04d0 10       		.byte	0x10
 1347 04d1 07       		.uleb128 0x7
 1348 04d2 723900   		.ascii	"r9\000"
 1349 04d5 01       		.byte	0x1
 1350 04d6 1501     		.2byte	0x115
 1351 04d8 5A040000 		.4byte	0x45a
ARM GAS  /tmp/ccwJpLLF.s 			page 25


 1352 04dc 14       		.byte	0x14
 1353 04dd 07       		.uleb128 0x7
 1354 04de 72313000 		.ascii	"r10\000"
 1355 04e2 01       		.byte	0x1
 1356 04e3 1601     		.2byte	0x116
 1357 04e5 5A040000 		.4byte	0x45a
 1358 04e9 18       		.byte	0x18
 1359 04ea 07       		.uleb128 0x7
 1360 04eb 72313100 		.ascii	"r11\000"
 1361 04ef 01       		.byte	0x1
 1362 04f0 1701     		.2byte	0x117
 1363 04f2 5A040000 		.4byte	0x45a
 1364 04f6 1C       		.byte	0x1c
 1365 04f7 07       		.uleb128 0x7
 1366 04f8 6C7200   		.ascii	"lr\000"
 1367 04fb 01       		.byte	0x1
 1368 04fc 1801     		.2byte	0x118
 1369 04fe 5A040000 		.4byte	0x45a
 1370 0502 20       		.byte	0x20
 1371 0503 00       		.byte	0
 1372 0504 09       		.uleb128 0x9
 1373 0505 04       		.byte	0x4
 1374 0506 89040000 		.4byte	0x489
 1375 050a 10       		.uleb128 0x10
 1376 050b 04       		.byte	0x4
 1377 050c 0D       		.byte	0xd
 1378 050d 38       		.byte	0x38
 1379 050e 1F050000 		.4byte	0x51f
 1380 0512 06       		.uleb128 0x6
 1381 0513 D6050000 		.4byte	.LASF85
 1382 0517 0D       		.byte	0xd
 1383 0518 3C       		.byte	0x3c
 1384 0519 C3000000 		.4byte	0xc3
 1385 051d 00       		.byte	0
 1386 051e 00       		.byte	0
 1387 051f 04       		.uleb128 0x4
 1388 0520 E9030000 		.4byte	.LASF86
 1389 0524 0D       		.byte	0xd
 1390 0525 3D       		.byte	0x3d
 1391 0526 0A050000 		.4byte	0x50a
 1392 052a 11       		.uleb128 0x11
 1393 052b 04       		.byte	0x4
 1394 052c 03       		.byte	0x3
 1395 052d FA       		.byte	0xfa
 1396 052e 87050000 		.4byte	0x587
 1397 0532 12       		.uleb128 0x12
 1398 0533 13000000 		.4byte	.LASF87
 1399 0537 03       		.byte	0x3
 1400 0538 0101     		.2byte	0x101
 1401 053a 05010000 		.4byte	0x105
 1402 053e 12       		.uleb128 0x12
 1403 053f CC000000 		.4byte	.LASF88
 1404 0543 03       		.byte	0x3
 1405 0544 0801     		.2byte	0x108
 1406 0546 05010000 		.4byte	0x105
 1407 054a 12       		.uleb128 0x12
 1408 054b 44060000 		.4byte	.LASF89
ARM GAS  /tmp/ccwJpLLF.s 			page 26


 1409 054f 03       		.byte	0x3
 1410 0550 0F01     		.2byte	0x10f
 1411 0552 1D030000 		.4byte	0x31d
 1412 0556 12       		.uleb128 0x12
 1413 0557 0D000000 		.4byte	.LASF90
 1414 055b 03       		.byte	0x3
 1415 055c 1601     		.2byte	0x116
 1416 055e 87050000 		.4byte	0x587
 1417 0562 12       		.uleb128 0x12
 1418 0563 41020000 		.4byte	.LASF91
 1419 0567 03       		.byte	0x3
 1420 0568 1E01     		.2byte	0x11e
 1421 056a B2050000 		.4byte	0x5b2
 1422 056e 12       		.uleb128 0x12
 1423 056f 27050000 		.4byte	.LASF92
 1424 0573 03       		.byte	0x3
 1425 0574 2701     		.2byte	0x127
 1426 0576 E9050000 		.4byte	0x5e9
 1427 057a 12       		.uleb128 0x12
 1428 057b B1040000 		.4byte	.LASF93
 1429 057f 03       		.byte	0x3
 1430 0580 2F01     		.2byte	0x12f
 1431 0582 10010000 		.4byte	0x110
 1432 0586 00       		.byte	0
 1433 0587 09       		.uleb128 0x9
 1434 0588 04       		.byte	0x4
 1435 0589 35020000 		.4byte	0x235
 1436 058d 05       		.uleb128 0x5
 1437 058e F3040000 		.4byte	.LASF94
 1438 0592 0C       		.byte	0xc
 1439 0593 0E       		.byte	0xe
 1440 0594 34       		.byte	0x34
 1441 0595 B2050000 		.4byte	0x5b2
 1442 0599 06       		.uleb128 0x6
 1443 059a CB010000 		.4byte	.LASF95
 1444 059e 0E       		.byte	0xe
 1445 059f 35       		.byte	0x35
 1446 05a0 6A020000 		.4byte	0x26a
 1447 05a4 00       		.byte	0
 1448 05a5 06       		.uleb128 0x6
 1449 05a6 53020000 		.4byte	.LASF96
 1450 05aa 0E       		.byte	0xe
 1451 05ab 37       		.byte	0x37
 1452 05ac 1B010000 		.4byte	0x11b
 1453 05b0 08       		.byte	0x8
 1454 05b1 00       		.byte	0
 1455 05b2 09       		.uleb128 0x9
 1456 05b3 04       		.byte	0x4
 1457 05b4 8D050000 		.4byte	0x58d
 1458 05b8 05       		.uleb128 0x5
 1459 05b9 0F060000 		.4byte	.LASF97
 1460 05bd 10       		.byte	0x10
 1461 05be 06       		.byte	0x6
 1462 05bf 39       		.byte	0x39
 1463 05c0 E9050000 		.4byte	0x5e9
 1464 05c4 06       		.uleb128 0x6
 1465 05c5 73010000 		.4byte	.LASF98
ARM GAS  /tmp/ccwJpLLF.s 			page 27


 1466 05c9 06       		.byte	0x6
 1467 05ca 3A       		.byte	0x3a
 1468 05cb 6A020000 		.4byte	0x26a
 1469 05cf 00       		.byte	0
 1470 05d0 06       		.uleb128 0x6
 1471 05d1 93060000 		.4byte	.LASF99
 1472 05d5 06       		.byte	0x6
 1473 05d6 3C       		.byte	0x3c
 1474 05d7 40020000 		.4byte	0x240
 1475 05db 08       		.byte	0x8
 1476 05dc 06       		.uleb128 0x6
 1477 05dd FA030000 		.4byte	.LASF100
 1478 05e1 06       		.byte	0x6
 1479 05e2 3E       		.byte	0x3e
 1480 05e3 2C060000 		.4byte	0x62c
 1481 05e7 0C       		.byte	0xc
 1482 05e8 00       		.byte	0
 1483 05e9 09       		.uleb128 0x9
 1484 05ea 04       		.byte	0x4
 1485 05eb B8050000 		.4byte	0x5b8
 1486 05ef 09       		.uleb128 0x9
 1487 05f0 04       		.byte	0x4
 1488 05f1 F5050000 		.4byte	0x5f5
 1489 05f5 13       		.uleb128 0x13
 1490 05f6 FA050000 		.4byte	0x5fa
 1491 05fa 03       		.uleb128 0x3
 1492 05fb 01       		.byte	0x1
 1493 05fc 08       		.byte	0x8
 1494 05fd 61050000 		.4byte	.LASF101
 1495 0601 09       		.uleb128 0x9
 1496 0602 04       		.byte	0x4
 1497 0603 1F030000 		.4byte	0x31f
 1498 0607 14       		.uleb128 0x14
 1499 0608 26010000 		.4byte	0x126
 1500 060c 14       		.uleb128 0x14
 1501 060d EF050000 		.4byte	0x5ef
 1502 0611 15       		.uleb128 0x15
 1503 0612 65040000 		.4byte	0x465
 1504 0616 21060000 		.4byte	0x621
 1505 061a 16       		.uleb128 0x16
 1506 061b 53040000 		.4byte	0x453
 1507 061f 1A       		.byte	0x1a
 1508 0620 00       		.byte	0
 1509 0621 04       		.uleb128 0x4
 1510 0622 FC010000 		.4byte	.LASF102
 1511 0626 06       		.byte	0x6
 1512 0627 34       		.byte	0x34
 1513 0628 B8050000 		.4byte	0x5b8
 1514 062c 09       		.uleb128 0x9
 1515 062d 04       		.byte	0x4
 1516 062e 21060000 		.4byte	0x621
 1517 0632 05       		.uleb128 0x5
 1518 0633 B5030000 		.4byte	.LASF103
 1519 0637 08       		.byte	0x8
 1520 0638 0F       		.byte	0xf
 1521 0639 3B       		.byte	0x3b
 1522 063a 4B060000 		.4byte	0x64b
ARM GAS  /tmp/ccwJpLLF.s 			page 28


 1523 063e 06       		.uleb128 0x6
 1524 063f EB040000 		.4byte	.LASF104
 1525 0643 0F       		.byte	0xf
 1526 0644 3C       		.byte	0x3c
 1527 0645 6A020000 		.4byte	0x26a
 1528 0649 00       		.byte	0
 1529 064a 00       		.byte	0
 1530 064b 04       		.uleb128 0x4
 1531 064c 35010000 		.4byte	.LASF105
 1532 0650 0F       		.byte	0xf
 1533 0651 3E       		.byte	0x3e
 1534 0652 32060000 		.4byte	0x632
 1535 0656 17       		.uleb128 0x17
 1536 0657 BE050000 		.4byte	.LASF131
 1537 065b 02       		.byte	0x2
 1538 065c 2202     		.2byte	0x222
 1539 065e 03       		.byte	0x3
 1540 065f 70060000 		.4byte	0x670
 1541 0663 18       		.uleb128 0x18
 1542 0664 04020000 		.4byte	.LASF132
 1543 0668 02       		.byte	0x2
 1544 0669 2202     		.2byte	0x222
 1545 066b AD000000 		.4byte	0xad
 1546 066f 00       		.byte	0
 1547 0670 19       		.uleb128 0x19
 1548 0671 64000000 		.4byte	.LASF106
 1549 0675 01       		.byte	0x1
 1550 0676 C801     		.2byte	0x1c8
 1551 0678 00000000 		.4byte	.LFB127
 1552 067c 10000000 		.4byte	.LFE127-.LFB127
 1553 0680 01       		.uleb128 0x1
 1554 0681 9C       		.byte	0x9c
 1555 0682 A0060000 		.4byte	0x6a0
 1556 0686 1A       		.uleb128 0x1a
 1557 0687 56060000 		.4byte	0x656
 1558 068b 06000000 		.4byte	.LBB6
 1559 068f 06000000 		.4byte	.LBE6-.LBB6
 1560 0693 01       		.byte	0x1
 1561 0694 D001     		.2byte	0x1d0
 1562 0696 1B       		.uleb128 0x1b
 1563 0697 63060000 		.4byte	0x663
 1564 069b 02       		.uleb128 0x2
 1565 069c 91       		.byte	0x91
 1566 069d 7C       		.sleb128 -4
 1567 069e 00       		.byte	0
 1568 069f 00       		.byte	0
 1569 06a0 19       		.uleb128 0x19
 1570 06a1 82010000 		.4byte	.LASF107
 1571 06a5 01       		.byte	0x1
 1572 06a6 E001     		.2byte	0x1e0
 1573 06a8 10000000 		.4byte	.LFB128
 1574 06ac 10000000 		.4byte	.LFE128-.LFB128
 1575 06b0 01       		.uleb128 0x1
 1576 06b1 9C       		.byte	0x9c
 1577 06b2 D0060000 		.4byte	0x6d0
 1578 06b6 1A       		.uleb128 0x1a
 1579 06b7 56060000 		.4byte	0x656
ARM GAS  /tmp/ccwJpLLF.s 			page 29


 1580 06bb 16000000 		.4byte	.LBB8
 1581 06bf 06000000 		.4byte	.LBE8-.LBB8
 1582 06c3 01       		.byte	0x1
 1583 06c4 E301     		.2byte	0x1e3
 1584 06c6 1B       		.uleb128 0x1b
 1585 06c7 63060000 		.4byte	0x663
 1586 06cb 02       		.uleb128 0x2
 1587 06cc 91       		.byte	0x91
 1588 06cd 7C       		.sleb128 -4
 1589 06ce 00       		.byte	0
 1590 06cf 00       		.byte	0
 1591 06d0 19       		.uleb128 0x19
 1592 06d1 59000000 		.4byte	.LASF108
 1593 06d5 03       		.byte	0x3
 1594 06d6 5A02     		.2byte	0x25a
 1595 06d8 20000000 		.4byte	.LFB139
 1596 06dc 14000000 		.4byte	.LFE139-.LFB139
 1597 06e0 01       		.uleb128 0x1
 1598 06e1 9C       		.byte	0x9c
 1599 06e2 F6060000 		.4byte	0x6f6
 1600 06e6 1C       		.uleb128 0x1c
 1601 06e7 74717000 		.ascii	"tqp\000"
 1602 06eb 03       		.byte	0x3
 1603 06ec 5A02     		.2byte	0x25a
 1604 06ee F6060000 		.4byte	0x6f6
 1605 06f2 02       		.uleb128 0x2
 1606 06f3 91       		.byte	0x91
 1607 06f4 7C       		.sleb128 -4
 1608 06f5 00       		.byte	0
 1609 06f6 09       		.uleb128 0x9
 1610 06f7 04       		.byte	0x4
 1611 06f8 6A020000 		.4byte	0x26a
 1612 06fc 1D       		.uleb128 0x1d
 1613 06fd B4010000 		.4byte	.LASF111
 1614 0701 03       		.byte	0x3
 1615 0702 7502     		.2byte	0x275
 1616 0704 26070000 		.4byte	0x726
 1617 0708 40000000 		.4byte	.LFB141
 1618 070c 1A000000 		.4byte	.LFE141-.LFB141
 1619 0710 01       		.uleb128 0x1
 1620 0711 9C       		.byte	0x9c
 1621 0712 26070000 		.4byte	0x726
 1622 0716 1C       		.uleb128 0x1c
 1623 0717 74717000 		.ascii	"tqp\000"
 1624 071b 03       		.byte	0x3
 1625 071c 7502     		.2byte	0x275
 1626 071e 2D070000 		.4byte	0x72d
 1627 0722 02       		.uleb128 0x2
 1628 0723 91       		.byte	0x91
 1629 0724 7C       		.sleb128 -4
 1630 0725 00       		.byte	0
 1631 0726 03       		.uleb128 0x3
 1632 0727 01       		.byte	0x1
 1633 0728 02       		.byte	0x2
 1634 0729 68040000 		.4byte	.LASF109
 1635 072d 09       		.uleb128 0x9
 1636 072e 04       		.byte	0x4
ARM GAS  /tmp/ccwJpLLF.s 			page 30


 1637 072f 33070000 		.4byte	0x733
 1638 0733 13       		.uleb128 0x13
 1639 0734 6A020000 		.4byte	0x26a
 1640 0738 19       		.uleb128 0x19
 1641 0739 81060000 		.4byte	.LASF110
 1642 073d 03       		.byte	0x3
 1643 073e 8B02     		.2byte	0x28b
 1644 0740 60000000 		.4byte	.LFB144
 1645 0744 44000000 		.4byte	.LFE144-.LFB144
 1646 0748 01       		.uleb128 0x1
 1647 0749 9C       		.byte	0x9c
 1648 074a 7A070000 		.4byte	0x77a
 1649 074e 1C       		.uleb128 0x1c
 1650 074f 747000   		.ascii	"tp\000"
 1651 0752 03       		.byte	0x3
 1652 0753 8B02     		.2byte	0x28b
 1653 0755 40020000 		.4byte	0x240
 1654 0759 02       		.uleb128 0x2
 1655 075a 91       		.byte	0x91
 1656 075b 74       		.sleb128 -12
 1657 075c 1C       		.uleb128 0x1c
 1658 075d 74717000 		.ascii	"tqp\000"
 1659 0761 03       		.byte	0x3
 1660 0762 8B02     		.2byte	0x28b
 1661 0764 F6060000 		.4byte	0x6f6
 1662 0768 02       		.uleb128 0x2
 1663 0769 91       		.byte	0x91
 1664 076a 70       		.sleb128 -16
 1665 076b 1E       		.uleb128 0x1e
 1666 076c 637000   		.ascii	"cp\000"
 1667 076f 03       		.byte	0x3
 1668 0770 8D02     		.2byte	0x28d
 1669 0772 40020000 		.4byte	0x240
 1670 0776 02       		.uleb128 0x2
 1671 0777 91       		.byte	0x91
 1672 0778 7C       		.sleb128 -4
 1673 0779 00       		.byte	0
 1674 077a 1D       		.uleb128 0x1d
 1675 077b 83050000 		.4byte	.LASF112
 1676 077f 03       		.byte	0x3
 1677 0780 9F02     		.2byte	0x29f
 1678 0782 40020000 		.4byte	0x240
 1679 0786 B0000000 		.4byte	.LFB146
 1680 078a 22000000 		.4byte	.LFE146-.LFB146
 1681 078e 01       		.uleb128 0x1
 1682 078f 9C       		.byte	0x9c
 1683 0790 B2070000 		.4byte	0x7b2
 1684 0794 1C       		.uleb128 0x1c
 1685 0795 74717000 		.ascii	"tqp\000"
 1686 0799 03       		.byte	0x3
 1687 079a 9F02     		.2byte	0x29f
 1688 079c F6060000 		.4byte	0x6f6
 1689 07a0 02       		.uleb128 0x2
 1690 07a1 91       		.byte	0x91
 1691 07a2 74       		.sleb128 -12
 1692 07a3 1E       		.uleb128 0x1e
 1693 07a4 747000   		.ascii	"tp\000"
ARM GAS  /tmp/ccwJpLLF.s 			page 31


 1694 07a7 03       		.byte	0x3
 1695 07a8 A002     		.2byte	0x2a0
 1696 07aa 40020000 		.4byte	0x240
 1697 07ae 02       		.uleb128 0x2
 1698 07af 91       		.byte	0x91
 1699 07b0 7C       		.sleb128 -4
 1700 07b1 00       		.byte	0
 1701 07b2 1F       		.uleb128 0x1f
 1702 07b3 D0040000 		.4byte	.LASF133
 1703 07b7 04       		.byte	0x4
 1704 07b8 5A01     		.2byte	0x15a
 1705 07ba E0000000 		.4byte	.LFB156
 1706 07be 08000000 		.4byte	.LFE156-.LFB156
 1707 07c2 01       		.uleb128 0x1
 1708 07c3 9C       		.byte	0x9c
 1709 07c4 20       		.uleb128 0x20
 1710 07c5 6F060000 		.4byte	.LASF113
 1711 07c9 04       		.byte	0x4
 1712 07ca 6601     		.2byte	0x166
 1713 07cc F0000000 		.4byte	.LFB157
 1714 07d0 08000000 		.4byte	.LFE157-.LFB157
 1715 07d4 01       		.uleb128 0x1
 1716 07d5 9C       		.byte	0x9c
 1717 07d6 E4070000 		.4byte	0x7e4
 1718 07da 21       		.uleb128 0x21
 1719 07db C7040000 		.4byte	.LASF116
 1720 07df F4070000 		.4byte	0x7f4
 1721 07e3 00       		.byte	0
 1722 07e4 15       		.uleb128 0x15
 1723 07e5 FA050000 		.4byte	0x5fa
 1724 07e9 F4070000 		.4byte	0x7f4
 1725 07ed 16       		.uleb128 0x16
 1726 07ee 53040000 		.4byte	0x453
 1727 07f2 0B       		.byte	0xb
 1728 07f3 00       		.byte	0
 1729 07f4 13       		.uleb128 0x13
 1730 07f5 E4070000 		.4byte	0x7e4
 1731 07f9 22       		.uleb128 0x22
 1732 07fa 2E060000 		.4byte	.LASF114
 1733 07fe 05       		.byte	0x5
 1734 07ff AE       		.byte	0xae
 1735 0800 40020000 		.4byte	0x240
 1736 0804 00010000 		.4byte	.LFB178
 1737 0808 0C000000 		.4byte	.LFE178-.LFB178
 1738 080c 01       		.uleb128 0x1
 1739 080d 9C       		.byte	0x9c
 1740 080e 23       		.uleb128 0x23
 1741 080f 0B050000 		.4byte	.LASF115
 1742 0813 06       		.byte	0x6
 1743 0814 8F       		.byte	0x8f
 1744 0815 2C060000 		.4byte	0x62c
 1745 0819 10010000 		.4byte	.LFB204
 1746 081d 0E000000 		.4byte	.LFE204-.LFB204
 1747 0821 01       		.uleb128 0x1
 1748 0822 9C       		.byte	0x9c
 1749 0823 24       		.uleb128 0x24
 1750 0824 72050000 		.4byte	.LASF117
ARM GAS  /tmp/ccwJpLLF.s 			page 32


 1751 0828 07       		.byte	0x7
 1752 0829 4B       		.byte	0x4b
 1753 082a 20010000 		.4byte	.LFB230
 1754 082e 14000000 		.4byte	.LFE230-.LFB230
 1755 0832 01       		.uleb128 0x1
 1756 0833 9C       		.byte	0x9c
 1757 0834 4F080000 		.4byte	0x84f
 1758 0838 25       		.uleb128 0x25
 1759 0839 637000   		.ascii	"cp\000"
 1760 083c 07       		.byte	0x7
 1761 083d 4B       		.byte	0x4b
 1762 083e 4F080000 		.4byte	0x84f
 1763 0842 02       		.uleb128 0x2
 1764 0843 91       		.byte	0x91
 1765 0844 74       		.sleb128 -12
 1766 0845 21       		.uleb128 0x21
 1767 0846 C7040000 		.4byte	.LASF116
 1768 084a 65080000 		.4byte	0x865
 1769 084e 00       		.byte	0
 1770 084f 09       		.uleb128 0x9
 1771 0850 04       		.byte	0x4
 1772 0851 4B060000 		.4byte	0x64b
 1773 0855 15       		.uleb128 0x15
 1774 0856 FA050000 		.4byte	0x5fa
 1775 085a 65080000 		.4byte	0x865
 1776 085e 16       		.uleb128 0x16
 1777 085f 53040000 		.4byte	0x453
 1778 0863 10       		.byte	0x10
 1779 0864 00       		.byte	0
 1780 0865 13       		.uleb128 0x13
 1781 0866 55080000 		.4byte	0x855
 1782 086a 24       		.uleb128 0x24
 1783 086b 0A020000 		.4byte	.LASF118
 1784 086f 07       		.byte	0x7
 1785 0870 59       		.byte	0x59
 1786 0871 40010000 		.4byte	.LFB231
 1787 0875 34000000 		.4byte	.LFE231-.LFB231
 1788 0879 01       		.uleb128 0x1
 1789 087a 9C       		.byte	0x9c
 1790 087b 96080000 		.4byte	0x896
 1791 087f 25       		.uleb128 0x25
 1792 0880 637000   		.ascii	"cp\000"
 1793 0883 07       		.byte	0x7
 1794 0884 59       		.byte	0x59
 1795 0885 4F080000 		.4byte	0x84f
 1796 0889 02       		.uleb128 0x2
 1797 088a 91       		.byte	0x91
 1798 088b 74       		.sleb128 -12
 1799 088c 21       		.uleb128 0x21
 1800 088d C7040000 		.4byte	.LASF116
 1801 0891 A6080000 		.4byte	0x8a6
 1802 0895 00       		.byte	0
 1803 0896 15       		.uleb128 0x15
 1804 0897 FA050000 		.4byte	0x5fa
 1805 089b A6080000 		.4byte	0x8a6
 1806 089f 16       		.uleb128 0x16
 1807 08a0 53040000 		.4byte	0x453
ARM GAS  /tmp/ccwJpLLF.s 			page 33


 1808 08a4 0C       		.byte	0xc
 1809 08a5 00       		.byte	0
 1810 08a6 13       		.uleb128 0x13
 1811 08a7 96080000 		.4byte	0x896
 1812 08ab 24       		.uleb128 0x24
 1813 08ac 5A040000 		.4byte	.LASF119
 1814 08b0 07       		.byte	0x7
 1815 08b1 6F       		.byte	0x6f
 1816 08b2 80010000 		.4byte	.LFB232
 1817 08b6 30000000 		.4byte	.LFE232-.LFB232
 1818 08ba 01       		.uleb128 0x1
 1819 08bb 9C       		.byte	0x9c
 1820 08bc EE080000 		.4byte	0x8ee
 1821 08c0 25       		.uleb128 0x25
 1822 08c1 637000   		.ascii	"cp\000"
 1823 08c4 07       		.byte	0x7
 1824 08c5 6F       		.byte	0x6f
 1825 08c6 4F080000 		.4byte	0x84f
 1826 08ca 02       		.uleb128 0x2
 1827 08cb 91       		.byte	0x91
 1828 08cc 6C       		.sleb128 -20
 1829 08cd 21       		.uleb128 0x21
 1830 08ce C7040000 		.4byte	.LASF116
 1831 08d2 FE080000 		.4byte	0x8fe
 1832 08d6 26       		.uleb128 0x26
 1833 08d7 94010000 		.4byte	.LBB10
 1834 08db 16000000 		.4byte	.LBE10-.LBB10
 1835 08df 27       		.uleb128 0x27
 1836 08e0 747000   		.ascii	"tp\000"
 1837 08e3 07       		.byte	0x7
 1838 08e4 75       		.byte	0x75
 1839 08e5 40020000 		.4byte	0x240
 1840 08e9 02       		.uleb128 0x2
 1841 08ea 91       		.byte	0x91
 1842 08eb 74       		.sleb128 -12
 1843 08ec 00       		.byte	0
 1844 08ed 00       		.byte	0
 1845 08ee 15       		.uleb128 0x15
 1846 08ef FA050000 		.4byte	0x5fa
 1847 08f3 FE080000 		.4byte	0x8fe
 1848 08f7 16       		.uleb128 0x16
 1849 08f8 53040000 		.4byte	0x453
 1850 08fc 0D       		.byte	0xd
 1851 08fd 00       		.byte	0
 1852 08fe 13       		.uleb128 0x13
 1853 08ff EE080000 		.4byte	0x8ee
 1854 0903 24       		.uleb128 0x24
 1855 0904 18040000 		.4byte	.LASF120
 1856 0908 07       		.byte	0x7
 1857 0909 82       		.byte	0x82
 1858 090a B0010000 		.4byte	.LFB233
 1859 090e 1E000000 		.4byte	.LFE233-.LFB233
 1860 0912 01       		.uleb128 0x1
 1861 0913 9C       		.byte	0x9c
 1862 0914 26090000 		.4byte	0x926
 1863 0918 25       		.uleb128 0x25
 1864 0919 637000   		.ascii	"cp\000"
ARM GAS  /tmp/ccwJpLLF.s 			page 34


 1865 091c 07       		.byte	0x7
 1866 091d 82       		.byte	0x82
 1867 091e 4F080000 		.4byte	0x84f
 1868 0922 02       		.uleb128 0x2
 1869 0923 91       		.byte	0x91
 1870 0924 74       		.sleb128 -12
 1871 0925 00       		.byte	0
 1872 0926 24       		.uleb128 0x24
 1873 0927 48000000 		.4byte	.LASF121
 1874 092b 07       		.byte	0x7
 1875 092c 95       		.byte	0x95
 1876 092d D0010000 		.4byte	.LFB234
 1877 0931 34000000 		.4byte	.LFE234-.LFB234
 1878 0935 01       		.uleb128 0x1
 1879 0936 9C       		.byte	0x9c
 1880 0937 52090000 		.4byte	0x952
 1881 093b 25       		.uleb128 0x25
 1882 093c 637000   		.ascii	"cp\000"
 1883 093f 07       		.byte	0x7
 1884 0940 95       		.byte	0x95
 1885 0941 4F080000 		.4byte	0x84f
 1886 0945 02       		.uleb128 0x2
 1887 0946 91       		.byte	0x91
 1888 0947 74       		.sleb128 -12
 1889 0948 21       		.uleb128 0x21
 1890 0949 C7040000 		.4byte	.LASF116
 1891 094d 52090000 		.4byte	0x952
 1892 0951 00       		.byte	0
 1893 0952 13       		.uleb128 0x13
 1894 0953 55080000 		.4byte	0x855
 1895 0957 28       		.uleb128 0x28
 1896 0958 ED050000 		.4byte	.LASF122
 1897 095c 07       		.byte	0x7
 1898 095d B3       		.byte	0xb3
 1899 095e 05010000 		.4byte	0x105
 1900 0962 10020000 		.4byte	.LFB235
 1901 0966 20000000 		.4byte	.LFE235-.LFB235
 1902 096a 01       		.uleb128 0x1
 1903 096b 9C       		.byte	0x9c
 1904 096c 8C090000 		.4byte	0x98c
 1905 0970 25       		.uleb128 0x25
 1906 0971 637000   		.ascii	"cp\000"
 1907 0974 07       		.byte	0x7
 1908 0975 B3       		.byte	0xb3
 1909 0976 4F080000 		.4byte	0x84f
 1910 097a 02       		.uleb128 0x2
 1911 097b 91       		.byte	0x91
 1912 097c 6C       		.sleb128 -20
 1913 097d 27       		.uleb128 0x27
 1914 097e 6D736700 		.ascii	"msg\000"
 1915 0982 07       		.byte	0x7
 1916 0983 B4       		.byte	0xb4
 1917 0984 05010000 		.4byte	0x105
 1918 0988 02       		.uleb128 0x2
 1919 0989 91       		.byte	0x91
 1920 098a 74       		.sleb128 -12
 1921 098b 00       		.byte	0
ARM GAS  /tmp/ccwJpLLF.s 			page 35


 1922 098c 28       		.uleb128 0x28
 1923 098d 66050000 		.4byte	.LASF123
 1924 0991 07       		.byte	0x7
 1925 0992 CD       		.byte	0xcd
 1926 0993 05010000 		.4byte	0x105
 1927 0997 30020000 		.4byte	.LFB236
 1928 099b 48000000 		.4byte	.LFE236-.LFB236
 1929 099f 01       		.uleb128 0x1
 1930 09a0 9C       		.byte	0x9c
 1931 09a1 E5090000 		.4byte	0x9e5
 1932 09a5 25       		.uleb128 0x25
 1933 09a6 637000   		.ascii	"cp\000"
 1934 09a9 07       		.byte	0x7
 1935 09aa CD       		.byte	0xcd
 1936 09ab 4F080000 		.4byte	0x84f
 1937 09af 02       		.uleb128 0x2
 1938 09b0 91       		.byte	0x91
 1939 09b1 64       		.sleb128 -28
 1940 09b2 27       		.uleb128 0x27
 1941 09b3 63747000 		.ascii	"ctp\000"
 1942 09b7 07       		.byte	0x7
 1943 09b8 CE       		.byte	0xce
 1944 09b9 40020000 		.4byte	0x240
 1945 09bd 02       		.uleb128 0x2
 1946 09be 91       		.byte	0x91
 1947 09bf 74       		.sleb128 -12
 1948 09c0 27       		.uleb128 0x27
 1949 09c1 6D7000   		.ascii	"mp\000"
 1950 09c4 07       		.byte	0x7
 1951 09c5 CF       		.byte	0xcf
 1952 09c6 2C060000 		.4byte	0x62c
 1953 09ca 02       		.uleb128 0x2
 1954 09cb 91       		.byte	0x91
 1955 09cc 70       		.sleb128 -16
 1956 09cd 27       		.uleb128 0x27
 1957 09ce 6D736700 		.ascii	"msg\000"
 1958 09d2 07       		.byte	0x7
 1959 09d3 D0       		.byte	0xd0
 1960 09d4 05010000 		.4byte	0x105
 1961 09d8 02       		.uleb128 0x2
 1962 09d9 91       		.byte	0x91
 1963 09da 6C       		.sleb128 -20
 1964 09db 21       		.uleb128 0x21
 1965 09dc C7040000 		.4byte	.LASF116
 1966 09e0 E5090000 		.4byte	0x9e5
 1967 09e4 00       		.byte	0
 1968 09e5 13       		.uleb128 0x13
 1969 09e6 E4070000 		.4byte	0x7e4
 1970 09ea 29       		.uleb128 0x29
 1971 09eb 52060000 		.4byte	.LASF124
 1972 09ef 07       		.byte	0x7
 1973 09f0 0201     		.2byte	0x102
 1974 09f2 05010000 		.4byte	0x105
 1975 09f6 80020000 		.4byte	.LFB237
 1976 09fa 24000000 		.4byte	.LFE237-.LFB237
 1977 09fe 01       		.uleb128 0x1
 1978 09ff 9C       		.byte	0x9c
ARM GAS  /tmp/ccwJpLLF.s 			page 36


 1979 0a00 310A0000 		.4byte	0xa31
 1980 0a04 1C       		.uleb128 0x1c
 1981 0a05 637000   		.ascii	"cp\000"
 1982 0a08 07       		.byte	0x7
 1983 0a09 0201     		.2byte	0x102
 1984 0a0b 4F080000 		.4byte	0x84f
 1985 0a0f 02       		.uleb128 0x2
 1986 0a10 91       		.byte	0x91
 1987 0a11 6C       		.sleb128 -20
 1988 0a12 2A       		.uleb128 0x2a
 1989 0a13 01040000 		.4byte	.LASF125
 1990 0a17 07       		.byte	0x7
 1991 0a18 0201     		.2byte	0x102
 1992 0a1a 26010000 		.4byte	0x126
 1993 0a1e 02       		.uleb128 0x2
 1994 0a1f 91       		.byte	0x91
 1995 0a20 68       		.sleb128 -24
 1996 0a21 1E       		.uleb128 0x1e
 1997 0a22 6D736700 		.ascii	"msg\000"
 1998 0a26 07       		.byte	0x7
 1999 0a27 0301     		.2byte	0x103
 2000 0a29 05010000 		.4byte	0x105
 2001 0a2d 02       		.uleb128 0x2
 2002 0a2e 91       		.byte	0x91
 2003 0a2f 74       		.sleb128 -12
 2004 0a30 00       		.byte	0
 2005 0a31 29       		.uleb128 0x29
 2006 0a32 C8030000 		.4byte	.LASF126
 2007 0a36 07       		.byte	0x7
 2008 0a37 2801     		.2byte	0x128
 2009 0a39 05010000 		.4byte	0x105
 2010 0a3d B0020000 		.4byte	.LFB238
 2011 0a41 50000000 		.4byte	.LFE238-.LFB238
 2012 0a45 01       		.uleb128 0x1
 2013 0a46 9C       		.byte	0x9c
 2014 0a47 8F0A0000 		.4byte	0xa8f
 2015 0a4b 1C       		.uleb128 0x1c
 2016 0a4c 637000   		.ascii	"cp\000"
 2017 0a4f 07       		.byte	0x7
 2018 0a50 2801     		.2byte	0x128
 2019 0a52 4F080000 		.4byte	0x84f
 2020 0a56 02       		.uleb128 0x2
 2021 0a57 91       		.byte	0x91
 2022 0a58 6C       		.sleb128 -20
 2023 0a59 2A       		.uleb128 0x2a
 2024 0a5a 01040000 		.4byte	.LASF125
 2025 0a5e 07       		.byte	0x7
 2026 0a5f 2801     		.2byte	0x128
 2027 0a61 26010000 		.4byte	0x126
 2028 0a65 02       		.uleb128 0x2
 2029 0a66 91       		.byte	0x91
 2030 0a67 68       		.sleb128 -24
 2031 0a68 1E       		.uleb128 0x1e
 2032 0a69 6D7000   		.ascii	"mp\000"
 2033 0a6c 07       		.byte	0x7
 2034 0a6d 2901     		.2byte	0x129
 2035 0a6f 2C060000 		.4byte	0x62c
ARM GAS  /tmp/ccwJpLLF.s 			page 37


 2036 0a73 02       		.uleb128 0x2
 2037 0a74 91       		.byte	0x91
 2038 0a75 74       		.sleb128 -12
 2039 0a76 1E       		.uleb128 0x1e
 2040 0a77 6D736700 		.ascii	"msg\000"
 2041 0a7b 07       		.byte	0x7
 2042 0a7c 2A01     		.2byte	0x12a
 2043 0a7e 05010000 		.4byte	0x105
 2044 0a82 02       		.uleb128 0x2
 2045 0a83 91       		.byte	0x91
 2046 0a84 70       		.sleb128 -16
 2047 0a85 21       		.uleb128 0x21
 2048 0a86 C7040000 		.4byte	.LASF116
 2049 0a8a 9F0A0000 		.4byte	0xa9f
 2050 0a8e 00       		.byte	0
 2051 0a8f 15       		.uleb128 0x15
 2052 0a90 FA050000 		.4byte	0x5fa
 2053 0a94 9F0A0000 		.4byte	0xa9f
 2054 0a98 16       		.uleb128 0x16
 2055 0a99 53040000 		.4byte	0x453
 2056 0a9d 12       		.byte	0x12
 2057 0a9e 00       		.byte	0
 2058 0a9f 13       		.uleb128 0x13
 2059 0aa0 8F0A0000 		.4byte	0xa8f
 2060 0aa4 2B       		.uleb128 0x2b
 2061 0aa5 F6000000 		.4byte	.LASF127
 2062 0aa9 10       		.byte	0x10
 2063 0aaa FA06     		.2byte	0x6fa
 2064 0aac B00A0000 		.4byte	0xab0
 2065 0ab0 14       		.uleb128 0x14
 2066 0ab1 A2000000 		.4byte	0xa2
 2067 0ab5 2C       		.uleb128 0x2c
 2068 0ab6 636800   		.ascii	"ch\000"
 2069 0ab9 03       		.byte	0x3
 2070 0aba 0902     		.2byte	0x209
 2071 0abc EC030000 		.4byte	0x3ec
 2072 0ac0 00       		.byte	0
 2073              		.section	.debug_abbrev,"",%progbits
 2074              	.Ldebug_abbrev0:
 2075 0000 01       		.uleb128 0x1
 2076 0001 11       		.uleb128 0x11
 2077 0002 01       		.byte	0x1
 2078 0003 25       		.uleb128 0x25
 2079 0004 0E       		.uleb128 0xe
 2080 0005 13       		.uleb128 0x13
 2081 0006 0B       		.uleb128 0xb
 2082 0007 03       		.uleb128 0x3
 2083 0008 0E       		.uleb128 0xe
 2084 0009 1B       		.uleb128 0x1b
 2085 000a 0E       		.uleb128 0xe
 2086 000b 11       		.uleb128 0x11
 2087 000c 01       		.uleb128 0x1
 2088 000d 12       		.uleb128 0x12
 2089 000e 06       		.uleb128 0x6
 2090 000f 10       		.uleb128 0x10
 2091 0010 17       		.uleb128 0x17
 2092 0011 00       		.byte	0
ARM GAS  /tmp/ccwJpLLF.s 			page 38


 2093 0012 00       		.byte	0
 2094 0013 02       		.uleb128 0x2
 2095 0014 24       		.uleb128 0x24
 2096 0015 00       		.byte	0
 2097 0016 0B       		.uleb128 0xb
 2098 0017 0B       		.uleb128 0xb
 2099 0018 3E       		.uleb128 0x3e
 2100 0019 0B       		.uleb128 0xb
 2101 001a 03       		.uleb128 0x3
 2102 001b 08       		.uleb128 0x8
 2103 001c 00       		.byte	0
 2104 001d 00       		.byte	0
 2105 001e 03       		.uleb128 0x3
 2106 001f 24       		.uleb128 0x24
 2107 0020 00       		.byte	0
 2108 0021 0B       		.uleb128 0xb
 2109 0022 0B       		.uleb128 0xb
 2110 0023 3E       		.uleb128 0x3e
 2111 0024 0B       		.uleb128 0xb
 2112 0025 03       		.uleb128 0x3
 2113 0026 0E       		.uleb128 0xe
 2114 0027 00       		.byte	0
 2115 0028 00       		.byte	0
 2116 0029 04       		.uleb128 0x4
 2117 002a 16       		.uleb128 0x16
 2118 002b 00       		.byte	0
 2119 002c 03       		.uleb128 0x3
 2120 002d 0E       		.uleb128 0xe
 2121 002e 3A       		.uleb128 0x3a
 2122 002f 0B       		.uleb128 0xb
 2123 0030 3B       		.uleb128 0x3b
 2124 0031 0B       		.uleb128 0xb
 2125 0032 49       		.uleb128 0x49
 2126 0033 13       		.uleb128 0x13
 2127 0034 00       		.byte	0
 2128 0035 00       		.byte	0
 2129 0036 05       		.uleb128 0x5
 2130 0037 13       		.uleb128 0x13
 2131 0038 01       		.byte	0x1
 2132 0039 03       		.uleb128 0x3
 2133 003a 0E       		.uleb128 0xe
 2134 003b 0B       		.uleb128 0xb
 2135 003c 0B       		.uleb128 0xb
 2136 003d 3A       		.uleb128 0x3a
 2137 003e 0B       		.uleb128 0xb
 2138 003f 3B       		.uleb128 0x3b
 2139 0040 0B       		.uleb128 0xb
 2140 0041 01       		.uleb128 0x1
 2141 0042 13       		.uleb128 0x13
 2142 0043 00       		.byte	0
 2143 0044 00       		.byte	0
 2144 0045 06       		.uleb128 0x6
 2145 0046 0D       		.uleb128 0xd
 2146 0047 00       		.byte	0
 2147 0048 03       		.uleb128 0x3
 2148 0049 0E       		.uleb128 0xe
 2149 004a 3A       		.uleb128 0x3a
ARM GAS  /tmp/ccwJpLLF.s 			page 39


 2150 004b 0B       		.uleb128 0xb
 2151 004c 3B       		.uleb128 0x3b
 2152 004d 0B       		.uleb128 0xb
 2153 004e 49       		.uleb128 0x49
 2154 004f 13       		.uleb128 0x13
 2155 0050 38       		.uleb128 0x38
 2156 0051 0B       		.uleb128 0xb
 2157 0052 00       		.byte	0
 2158 0053 00       		.byte	0
 2159 0054 07       		.uleb128 0x7
 2160 0055 0D       		.uleb128 0xd
 2161 0056 00       		.byte	0
 2162 0057 03       		.uleb128 0x3
 2163 0058 08       		.uleb128 0x8
 2164 0059 3A       		.uleb128 0x3a
 2165 005a 0B       		.uleb128 0xb
 2166 005b 3B       		.uleb128 0x3b
 2167 005c 05       		.uleb128 0x5
 2168 005d 49       		.uleb128 0x49
 2169 005e 13       		.uleb128 0x13
 2170 005f 38       		.uleb128 0x38
 2171 0060 0B       		.uleb128 0xb
 2172 0061 00       		.byte	0
 2173 0062 00       		.byte	0
 2174 0063 08       		.uleb128 0x8
 2175 0064 0D       		.uleb128 0xd
 2176 0065 00       		.byte	0
 2177 0066 03       		.uleb128 0x3
 2178 0067 0E       		.uleb128 0xe
 2179 0068 3A       		.uleb128 0x3a
 2180 0069 0B       		.uleb128 0xb
 2181 006a 3B       		.uleb128 0x3b
 2182 006b 05       		.uleb128 0x5
 2183 006c 49       		.uleb128 0x49
 2184 006d 13       		.uleb128 0x13
 2185 006e 38       		.uleb128 0x38
 2186 006f 0B       		.uleb128 0xb
 2187 0070 00       		.byte	0
 2188 0071 00       		.byte	0
 2189 0072 09       		.uleb128 0x9
 2190 0073 0F       		.uleb128 0xf
 2191 0074 00       		.byte	0
 2192 0075 0B       		.uleb128 0xb
 2193 0076 0B       		.uleb128 0xb
 2194 0077 49       		.uleb128 0x49
 2195 0078 13       		.uleb128 0x13
 2196 0079 00       		.byte	0
 2197 007a 00       		.byte	0
 2198 007b 0A       		.uleb128 0xa
 2199 007c 13       		.uleb128 0x13
 2200 007d 01       		.byte	0x1
 2201 007e 03       		.uleb128 0x3
 2202 007f 0E       		.uleb128 0xe
 2203 0080 0B       		.uleb128 0xb
 2204 0081 0B       		.uleb128 0xb
 2205 0082 3A       		.uleb128 0x3a
 2206 0083 0B       		.uleb128 0xb
ARM GAS  /tmp/ccwJpLLF.s 			page 40


 2207 0084 3B       		.uleb128 0x3b
 2208 0085 05       		.uleb128 0x5
 2209 0086 01       		.uleb128 0x1
 2210 0087 13       		.uleb128 0x13
 2211 0088 00       		.byte	0
 2212 0089 00       		.byte	0
 2213 008a 0B       		.uleb128 0xb
 2214 008b 15       		.uleb128 0x15
 2215 008c 01       		.byte	0x1
 2216 008d 27       		.uleb128 0x27
 2217 008e 19       		.uleb128 0x19
 2218 008f 01       		.uleb128 0x1
 2219 0090 13       		.uleb128 0x13
 2220 0091 00       		.byte	0
 2221 0092 00       		.byte	0
 2222 0093 0C       		.uleb128 0xc
 2223 0094 05       		.uleb128 0x5
 2224 0095 00       		.byte	0
 2225 0096 49       		.uleb128 0x49
 2226 0097 13       		.uleb128 0x13
 2227 0098 00       		.byte	0
 2228 0099 00       		.byte	0
 2229 009a 0D       		.uleb128 0xd
 2230 009b 0F       		.uleb128 0xf
 2231 009c 00       		.byte	0
 2232 009d 0B       		.uleb128 0xb
 2233 009e 0B       		.uleb128 0xb
 2234 009f 00       		.byte	0
 2235 00a0 00       		.byte	0
 2236 00a1 0E       		.uleb128 0xe
 2237 00a2 13       		.uleb128 0x13
 2238 00a3 01       		.byte	0x1
 2239 00a4 03       		.uleb128 0x3
 2240 00a5 0E       		.uleb128 0xe
 2241 00a6 0B       		.uleb128 0xb
 2242 00a7 05       		.uleb128 0x5
 2243 00a8 3A       		.uleb128 0x3a
 2244 00a9 0B       		.uleb128 0xb
 2245 00aa 3B       		.uleb128 0x3b
 2246 00ab 05       		.uleb128 0x5
 2247 00ac 01       		.uleb128 0x1
 2248 00ad 13       		.uleb128 0x13
 2249 00ae 00       		.byte	0
 2250 00af 00       		.byte	0
 2251 00b0 0F       		.uleb128 0xf
 2252 00b1 0D       		.uleb128 0xd
 2253 00b2 00       		.byte	0
 2254 00b3 03       		.uleb128 0x3
 2255 00b4 08       		.uleb128 0x8
 2256 00b5 3A       		.uleb128 0x3a
 2257 00b6 0B       		.uleb128 0xb
 2258 00b7 3B       		.uleb128 0x3b
 2259 00b8 0B       		.uleb128 0xb
 2260 00b9 49       		.uleb128 0x49
 2261 00ba 13       		.uleb128 0x13
 2262 00bb 38       		.uleb128 0x38
 2263 00bc 0B       		.uleb128 0xb
ARM GAS  /tmp/ccwJpLLF.s 			page 41


 2264 00bd 00       		.byte	0
 2265 00be 00       		.byte	0
 2266 00bf 10       		.uleb128 0x10
 2267 00c0 13       		.uleb128 0x13
 2268 00c1 01       		.byte	0x1
 2269 00c2 0B       		.uleb128 0xb
 2270 00c3 0B       		.uleb128 0xb
 2271 00c4 3A       		.uleb128 0x3a
 2272 00c5 0B       		.uleb128 0xb
 2273 00c6 3B       		.uleb128 0x3b
 2274 00c7 0B       		.uleb128 0xb
 2275 00c8 01       		.uleb128 0x1
 2276 00c9 13       		.uleb128 0x13
 2277 00ca 00       		.byte	0
 2278 00cb 00       		.byte	0
 2279 00cc 11       		.uleb128 0x11
 2280 00cd 17       		.uleb128 0x17
 2281 00ce 01       		.byte	0x1
 2282 00cf 0B       		.uleb128 0xb
 2283 00d0 0B       		.uleb128 0xb
 2284 00d1 3A       		.uleb128 0x3a
 2285 00d2 0B       		.uleb128 0xb
 2286 00d3 3B       		.uleb128 0x3b
 2287 00d4 0B       		.uleb128 0xb
 2288 00d5 01       		.uleb128 0x1
 2289 00d6 13       		.uleb128 0x13
 2290 00d7 00       		.byte	0
 2291 00d8 00       		.byte	0
 2292 00d9 12       		.uleb128 0x12
 2293 00da 0D       		.uleb128 0xd
 2294 00db 00       		.byte	0
 2295 00dc 03       		.uleb128 0x3
 2296 00dd 0E       		.uleb128 0xe
 2297 00de 3A       		.uleb128 0x3a
 2298 00df 0B       		.uleb128 0xb
 2299 00e0 3B       		.uleb128 0x3b
 2300 00e1 05       		.uleb128 0x5
 2301 00e2 49       		.uleb128 0x49
 2302 00e3 13       		.uleb128 0x13
 2303 00e4 00       		.byte	0
 2304 00e5 00       		.byte	0
 2305 00e6 13       		.uleb128 0x13
 2306 00e7 26       		.uleb128 0x26
 2307 00e8 00       		.byte	0
 2308 00e9 49       		.uleb128 0x49
 2309 00ea 13       		.uleb128 0x13
 2310 00eb 00       		.byte	0
 2311 00ec 00       		.byte	0
 2312 00ed 14       		.uleb128 0x14
 2313 00ee 35       		.uleb128 0x35
 2314 00ef 00       		.byte	0
 2315 00f0 49       		.uleb128 0x49
 2316 00f1 13       		.uleb128 0x13
 2317 00f2 00       		.byte	0
 2318 00f3 00       		.byte	0
 2319 00f4 15       		.uleb128 0x15
 2320 00f5 01       		.uleb128 0x1
ARM GAS  /tmp/ccwJpLLF.s 			page 42


 2321 00f6 01       		.byte	0x1
 2322 00f7 49       		.uleb128 0x49
 2323 00f8 13       		.uleb128 0x13
 2324 00f9 01       		.uleb128 0x1
 2325 00fa 13       		.uleb128 0x13
 2326 00fb 00       		.byte	0
 2327 00fc 00       		.byte	0
 2328 00fd 16       		.uleb128 0x16
 2329 00fe 21       		.uleb128 0x21
 2330 00ff 00       		.byte	0
 2331 0100 49       		.uleb128 0x49
 2332 0101 13       		.uleb128 0x13
 2333 0102 2F       		.uleb128 0x2f
 2334 0103 0B       		.uleb128 0xb
 2335 0104 00       		.byte	0
 2336 0105 00       		.byte	0
 2337 0106 17       		.uleb128 0x17
 2338 0107 2E       		.uleb128 0x2e
 2339 0108 01       		.byte	0x1
 2340 0109 03       		.uleb128 0x3
 2341 010a 0E       		.uleb128 0xe
 2342 010b 3A       		.uleb128 0x3a
 2343 010c 0B       		.uleb128 0xb
 2344 010d 3B       		.uleb128 0x3b
 2345 010e 05       		.uleb128 0x5
 2346 010f 27       		.uleb128 0x27
 2347 0110 19       		.uleb128 0x19
 2348 0111 20       		.uleb128 0x20
 2349 0112 0B       		.uleb128 0xb
 2350 0113 01       		.uleb128 0x1
 2351 0114 13       		.uleb128 0x13
 2352 0115 00       		.byte	0
 2353 0116 00       		.byte	0
 2354 0117 18       		.uleb128 0x18
 2355 0118 05       		.uleb128 0x5
 2356 0119 00       		.byte	0
 2357 011a 03       		.uleb128 0x3
 2358 011b 0E       		.uleb128 0xe
 2359 011c 3A       		.uleb128 0x3a
 2360 011d 0B       		.uleb128 0xb
 2361 011e 3B       		.uleb128 0x3b
 2362 011f 05       		.uleb128 0x5
 2363 0120 49       		.uleb128 0x49
 2364 0121 13       		.uleb128 0x13
 2365 0122 00       		.byte	0
 2366 0123 00       		.byte	0
 2367 0124 19       		.uleb128 0x19
 2368 0125 2E       		.uleb128 0x2e
 2369 0126 01       		.byte	0x1
 2370 0127 03       		.uleb128 0x3
 2371 0128 0E       		.uleb128 0xe
 2372 0129 3A       		.uleb128 0x3a
 2373 012a 0B       		.uleb128 0xb
 2374 012b 3B       		.uleb128 0x3b
 2375 012c 05       		.uleb128 0x5
 2376 012d 27       		.uleb128 0x27
 2377 012e 19       		.uleb128 0x19
ARM GAS  /tmp/ccwJpLLF.s 			page 43


 2378 012f 11       		.uleb128 0x11
 2379 0130 01       		.uleb128 0x1
 2380 0131 12       		.uleb128 0x12
 2381 0132 06       		.uleb128 0x6
 2382 0133 40       		.uleb128 0x40
 2383 0134 18       		.uleb128 0x18
 2384 0135 9742     		.uleb128 0x2117
 2385 0137 19       		.uleb128 0x19
 2386 0138 01       		.uleb128 0x1
 2387 0139 13       		.uleb128 0x13
 2388 013a 00       		.byte	0
 2389 013b 00       		.byte	0
 2390 013c 1A       		.uleb128 0x1a
 2391 013d 1D       		.uleb128 0x1d
 2392 013e 01       		.byte	0x1
 2393 013f 31       		.uleb128 0x31
 2394 0140 13       		.uleb128 0x13
 2395 0141 11       		.uleb128 0x11
 2396 0142 01       		.uleb128 0x1
 2397 0143 12       		.uleb128 0x12
 2398 0144 06       		.uleb128 0x6
 2399 0145 58       		.uleb128 0x58
 2400 0146 0B       		.uleb128 0xb
 2401 0147 59       		.uleb128 0x59
 2402 0148 05       		.uleb128 0x5
 2403 0149 00       		.byte	0
 2404 014a 00       		.byte	0
 2405 014b 1B       		.uleb128 0x1b
 2406 014c 05       		.uleb128 0x5
 2407 014d 00       		.byte	0
 2408 014e 31       		.uleb128 0x31
 2409 014f 13       		.uleb128 0x13
 2410 0150 02       		.uleb128 0x2
 2411 0151 18       		.uleb128 0x18
 2412 0152 00       		.byte	0
 2413 0153 00       		.byte	0
 2414 0154 1C       		.uleb128 0x1c
 2415 0155 05       		.uleb128 0x5
 2416 0156 00       		.byte	0
 2417 0157 03       		.uleb128 0x3
 2418 0158 08       		.uleb128 0x8
 2419 0159 3A       		.uleb128 0x3a
 2420 015a 0B       		.uleb128 0xb
 2421 015b 3B       		.uleb128 0x3b
 2422 015c 05       		.uleb128 0x5
 2423 015d 49       		.uleb128 0x49
 2424 015e 13       		.uleb128 0x13
 2425 015f 02       		.uleb128 0x2
 2426 0160 18       		.uleb128 0x18
 2427 0161 00       		.byte	0
 2428 0162 00       		.byte	0
 2429 0163 1D       		.uleb128 0x1d
 2430 0164 2E       		.uleb128 0x2e
 2431 0165 01       		.byte	0x1
 2432 0166 03       		.uleb128 0x3
 2433 0167 0E       		.uleb128 0xe
 2434 0168 3A       		.uleb128 0x3a
ARM GAS  /tmp/ccwJpLLF.s 			page 44


 2435 0169 0B       		.uleb128 0xb
 2436 016a 3B       		.uleb128 0x3b
 2437 016b 05       		.uleb128 0x5
 2438 016c 27       		.uleb128 0x27
 2439 016d 19       		.uleb128 0x19
 2440 016e 49       		.uleb128 0x49
 2441 016f 13       		.uleb128 0x13
 2442 0170 11       		.uleb128 0x11
 2443 0171 01       		.uleb128 0x1
 2444 0172 12       		.uleb128 0x12
 2445 0173 06       		.uleb128 0x6
 2446 0174 40       		.uleb128 0x40
 2447 0175 18       		.uleb128 0x18
 2448 0176 9742     		.uleb128 0x2117
 2449 0178 19       		.uleb128 0x19
 2450 0179 01       		.uleb128 0x1
 2451 017a 13       		.uleb128 0x13
 2452 017b 00       		.byte	0
 2453 017c 00       		.byte	0
 2454 017d 1E       		.uleb128 0x1e
 2455 017e 34       		.uleb128 0x34
 2456 017f 00       		.byte	0
 2457 0180 03       		.uleb128 0x3
 2458 0181 08       		.uleb128 0x8
 2459 0182 3A       		.uleb128 0x3a
 2460 0183 0B       		.uleb128 0xb
 2461 0184 3B       		.uleb128 0x3b
 2462 0185 05       		.uleb128 0x5
 2463 0186 49       		.uleb128 0x49
 2464 0187 13       		.uleb128 0x13
 2465 0188 02       		.uleb128 0x2
 2466 0189 18       		.uleb128 0x18
 2467 018a 00       		.byte	0
 2468 018b 00       		.byte	0
 2469 018c 1F       		.uleb128 0x1f
 2470 018d 2E       		.uleb128 0x2e
 2471 018e 00       		.byte	0
 2472 018f 03       		.uleb128 0x3
 2473 0190 0E       		.uleb128 0xe
 2474 0191 3A       		.uleb128 0x3a
 2475 0192 0B       		.uleb128 0xb
 2476 0193 3B       		.uleb128 0x3b
 2477 0194 05       		.uleb128 0x5
 2478 0195 27       		.uleb128 0x27
 2479 0196 19       		.uleb128 0x19
 2480 0197 11       		.uleb128 0x11
 2481 0198 01       		.uleb128 0x1
 2482 0199 12       		.uleb128 0x12
 2483 019a 06       		.uleb128 0x6
 2484 019b 40       		.uleb128 0x40
 2485 019c 18       		.uleb128 0x18
 2486 019d 9642     		.uleb128 0x2116
 2487 019f 19       		.uleb128 0x19
 2488 01a0 00       		.byte	0
 2489 01a1 00       		.byte	0
 2490 01a2 20       		.uleb128 0x20
 2491 01a3 2E       		.uleb128 0x2e
ARM GAS  /tmp/ccwJpLLF.s 			page 45


 2492 01a4 01       		.byte	0x1
 2493 01a5 03       		.uleb128 0x3
 2494 01a6 0E       		.uleb128 0xe
 2495 01a7 3A       		.uleb128 0x3a
 2496 01a8 0B       		.uleb128 0xb
 2497 01a9 3B       		.uleb128 0x3b
 2498 01aa 05       		.uleb128 0x5
 2499 01ab 27       		.uleb128 0x27
 2500 01ac 19       		.uleb128 0x19
 2501 01ad 11       		.uleb128 0x11
 2502 01ae 01       		.uleb128 0x1
 2503 01af 12       		.uleb128 0x12
 2504 01b0 06       		.uleb128 0x6
 2505 01b1 40       		.uleb128 0x40
 2506 01b2 18       		.uleb128 0x18
 2507 01b3 9642     		.uleb128 0x2116
 2508 01b5 19       		.uleb128 0x19
 2509 01b6 01       		.uleb128 0x1
 2510 01b7 13       		.uleb128 0x13
 2511 01b8 00       		.byte	0
 2512 01b9 00       		.byte	0
 2513 01ba 21       		.uleb128 0x21
 2514 01bb 34       		.uleb128 0x34
 2515 01bc 00       		.byte	0
 2516 01bd 03       		.uleb128 0x3
 2517 01be 0E       		.uleb128 0xe
 2518 01bf 49       		.uleb128 0x49
 2519 01c0 13       		.uleb128 0x13
 2520 01c1 34       		.uleb128 0x34
 2521 01c2 19       		.uleb128 0x19
 2522 01c3 00       		.byte	0
 2523 01c4 00       		.byte	0
 2524 01c5 22       		.uleb128 0x22
 2525 01c6 2E       		.uleb128 0x2e
 2526 01c7 00       		.byte	0
 2527 01c8 03       		.uleb128 0x3
 2528 01c9 0E       		.uleb128 0xe
 2529 01ca 3A       		.uleb128 0x3a
 2530 01cb 0B       		.uleb128 0xb
 2531 01cc 3B       		.uleb128 0x3b
 2532 01cd 0B       		.uleb128 0xb
 2533 01ce 27       		.uleb128 0x27
 2534 01cf 19       		.uleb128 0x19
 2535 01d0 49       		.uleb128 0x49
 2536 01d1 13       		.uleb128 0x13
 2537 01d2 11       		.uleb128 0x11
 2538 01d3 01       		.uleb128 0x1
 2539 01d4 12       		.uleb128 0x12
 2540 01d5 06       		.uleb128 0x6
 2541 01d6 40       		.uleb128 0x40
 2542 01d7 18       		.uleb128 0x18
 2543 01d8 9742     		.uleb128 0x2117
 2544 01da 19       		.uleb128 0x19
 2545 01db 00       		.byte	0
 2546 01dc 00       		.byte	0
 2547 01dd 23       		.uleb128 0x23
 2548 01de 2E       		.uleb128 0x2e
ARM GAS  /tmp/ccwJpLLF.s 			page 46


 2549 01df 00       		.byte	0
 2550 01e0 03       		.uleb128 0x3
 2551 01e1 0E       		.uleb128 0xe
 2552 01e2 3A       		.uleb128 0x3a
 2553 01e3 0B       		.uleb128 0xb
 2554 01e4 3B       		.uleb128 0x3b
 2555 01e5 0B       		.uleb128 0xb
 2556 01e6 27       		.uleb128 0x27
 2557 01e7 19       		.uleb128 0x19
 2558 01e8 49       		.uleb128 0x49
 2559 01e9 13       		.uleb128 0x13
 2560 01ea 11       		.uleb128 0x11
 2561 01eb 01       		.uleb128 0x1
 2562 01ec 12       		.uleb128 0x12
 2563 01ed 06       		.uleb128 0x6
 2564 01ee 40       		.uleb128 0x40
 2565 01ef 18       		.uleb128 0x18
 2566 01f0 9642     		.uleb128 0x2116
 2567 01f2 19       		.uleb128 0x19
 2568 01f3 00       		.byte	0
 2569 01f4 00       		.byte	0
 2570 01f5 24       		.uleb128 0x24
 2571 01f6 2E       		.uleb128 0x2e
 2572 01f7 01       		.byte	0x1
 2573 01f8 3F       		.uleb128 0x3f
 2574 01f9 19       		.uleb128 0x19
 2575 01fa 03       		.uleb128 0x3
 2576 01fb 0E       		.uleb128 0xe
 2577 01fc 3A       		.uleb128 0x3a
 2578 01fd 0B       		.uleb128 0xb
 2579 01fe 3B       		.uleb128 0x3b
 2580 01ff 0B       		.uleb128 0xb
 2581 0200 27       		.uleb128 0x27
 2582 0201 19       		.uleb128 0x19
 2583 0202 11       		.uleb128 0x11
 2584 0203 01       		.uleb128 0x1
 2585 0204 12       		.uleb128 0x12
 2586 0205 06       		.uleb128 0x6
 2587 0206 40       		.uleb128 0x40
 2588 0207 18       		.uleb128 0x18
 2589 0208 9642     		.uleb128 0x2116
 2590 020a 19       		.uleb128 0x19
 2591 020b 01       		.uleb128 0x1
 2592 020c 13       		.uleb128 0x13
 2593 020d 00       		.byte	0
 2594 020e 00       		.byte	0
 2595 020f 25       		.uleb128 0x25
 2596 0210 05       		.uleb128 0x5
 2597 0211 00       		.byte	0
 2598 0212 03       		.uleb128 0x3
 2599 0213 08       		.uleb128 0x8
 2600 0214 3A       		.uleb128 0x3a
 2601 0215 0B       		.uleb128 0xb
 2602 0216 3B       		.uleb128 0x3b
 2603 0217 0B       		.uleb128 0xb
 2604 0218 49       		.uleb128 0x49
 2605 0219 13       		.uleb128 0x13
ARM GAS  /tmp/ccwJpLLF.s 			page 47


 2606 021a 02       		.uleb128 0x2
 2607 021b 18       		.uleb128 0x18
 2608 021c 00       		.byte	0
 2609 021d 00       		.byte	0
 2610 021e 26       		.uleb128 0x26
 2611 021f 0B       		.uleb128 0xb
 2612 0220 01       		.byte	0x1
 2613 0221 11       		.uleb128 0x11
 2614 0222 01       		.uleb128 0x1
 2615 0223 12       		.uleb128 0x12
 2616 0224 06       		.uleb128 0x6
 2617 0225 00       		.byte	0
 2618 0226 00       		.byte	0
 2619 0227 27       		.uleb128 0x27
 2620 0228 34       		.uleb128 0x34
 2621 0229 00       		.byte	0
 2622 022a 03       		.uleb128 0x3
 2623 022b 08       		.uleb128 0x8
 2624 022c 3A       		.uleb128 0x3a
 2625 022d 0B       		.uleb128 0xb
 2626 022e 3B       		.uleb128 0x3b
 2627 022f 0B       		.uleb128 0xb
 2628 0230 49       		.uleb128 0x49
 2629 0231 13       		.uleb128 0x13
 2630 0232 02       		.uleb128 0x2
 2631 0233 18       		.uleb128 0x18
 2632 0234 00       		.byte	0
 2633 0235 00       		.byte	0
 2634 0236 28       		.uleb128 0x28
 2635 0237 2E       		.uleb128 0x2e
 2636 0238 01       		.byte	0x1
 2637 0239 3F       		.uleb128 0x3f
 2638 023a 19       		.uleb128 0x19
 2639 023b 03       		.uleb128 0x3
 2640 023c 0E       		.uleb128 0xe
 2641 023d 3A       		.uleb128 0x3a
 2642 023e 0B       		.uleb128 0xb
 2643 023f 3B       		.uleb128 0x3b
 2644 0240 0B       		.uleb128 0xb
 2645 0241 27       		.uleb128 0x27
 2646 0242 19       		.uleb128 0x19
 2647 0243 49       		.uleb128 0x49
 2648 0244 13       		.uleb128 0x13
 2649 0245 11       		.uleb128 0x11
 2650 0246 01       		.uleb128 0x1
 2651 0247 12       		.uleb128 0x12
 2652 0248 06       		.uleb128 0x6
 2653 0249 40       		.uleb128 0x40
 2654 024a 18       		.uleb128 0x18
 2655 024b 9642     		.uleb128 0x2116
 2656 024d 19       		.uleb128 0x19
 2657 024e 01       		.uleb128 0x1
 2658 024f 13       		.uleb128 0x13
 2659 0250 00       		.byte	0
 2660 0251 00       		.byte	0
 2661 0252 29       		.uleb128 0x29
 2662 0253 2E       		.uleb128 0x2e
ARM GAS  /tmp/ccwJpLLF.s 			page 48


 2663 0254 01       		.byte	0x1
 2664 0255 3F       		.uleb128 0x3f
 2665 0256 19       		.uleb128 0x19
 2666 0257 03       		.uleb128 0x3
 2667 0258 0E       		.uleb128 0xe
 2668 0259 3A       		.uleb128 0x3a
 2669 025a 0B       		.uleb128 0xb
 2670 025b 3B       		.uleb128 0x3b
 2671 025c 05       		.uleb128 0x5
 2672 025d 27       		.uleb128 0x27
 2673 025e 19       		.uleb128 0x19
 2674 025f 49       		.uleb128 0x49
 2675 0260 13       		.uleb128 0x13
 2676 0261 11       		.uleb128 0x11
 2677 0262 01       		.uleb128 0x1
 2678 0263 12       		.uleb128 0x12
 2679 0264 06       		.uleb128 0x6
 2680 0265 40       		.uleb128 0x40
 2681 0266 18       		.uleb128 0x18
 2682 0267 9642     		.uleb128 0x2116
 2683 0269 19       		.uleb128 0x19
 2684 026a 01       		.uleb128 0x1
 2685 026b 13       		.uleb128 0x13
 2686 026c 00       		.byte	0
 2687 026d 00       		.byte	0
 2688 026e 2A       		.uleb128 0x2a
 2689 026f 05       		.uleb128 0x5
 2690 0270 00       		.byte	0
 2691 0271 03       		.uleb128 0x3
 2692 0272 0E       		.uleb128 0xe
 2693 0273 3A       		.uleb128 0x3a
 2694 0274 0B       		.uleb128 0xb
 2695 0275 3B       		.uleb128 0x3b
 2696 0276 05       		.uleb128 0x5
 2697 0277 49       		.uleb128 0x49
 2698 0278 13       		.uleb128 0x13
 2699 0279 02       		.uleb128 0x2
 2700 027a 18       		.uleb128 0x18
 2701 027b 00       		.byte	0
 2702 027c 00       		.byte	0
 2703 027d 2B       		.uleb128 0x2b
 2704 027e 34       		.uleb128 0x34
 2705 027f 00       		.byte	0
 2706 0280 03       		.uleb128 0x3
 2707 0281 0E       		.uleb128 0xe
 2708 0282 3A       		.uleb128 0x3a
 2709 0283 0B       		.uleb128 0xb
 2710 0284 3B       		.uleb128 0x3b
 2711 0285 05       		.uleb128 0x5
 2712 0286 49       		.uleb128 0x49
 2713 0287 13       		.uleb128 0x13
 2714 0288 3F       		.uleb128 0x3f
 2715 0289 19       		.uleb128 0x19
 2716 028a 3C       		.uleb128 0x3c
 2717 028b 19       		.uleb128 0x19
 2718 028c 00       		.byte	0
 2719 028d 00       		.byte	0
ARM GAS  /tmp/ccwJpLLF.s 			page 49


 2720 028e 2C       		.uleb128 0x2c
 2721 028f 34       		.uleb128 0x34
 2722 0290 00       		.byte	0
 2723 0291 03       		.uleb128 0x3
 2724 0292 08       		.uleb128 0x8
 2725 0293 3A       		.uleb128 0x3a
 2726 0294 0B       		.uleb128 0xb
 2727 0295 3B       		.uleb128 0x3b
 2728 0296 05       		.uleb128 0x5
 2729 0297 49       		.uleb128 0x49
 2730 0298 13       		.uleb128 0x13
 2731 0299 3F       		.uleb128 0x3f
 2732 029a 19       		.uleb128 0x19
 2733 029b 3C       		.uleb128 0x3c
 2734 029c 19       		.uleb128 0x19
 2735 029d 00       		.byte	0
 2736 029e 00       		.byte	0
 2737 029f 00       		.byte	0
 2738              		.section	.debug_aranges,"",%progbits
 2739 0000 1C000000 		.4byte	0x1c
 2740 0004 0200     		.2byte	0x2
 2741 0006 00000000 		.4byte	.Ldebug_info0
 2742 000a 04       		.byte	0x4
 2743 000b 00       		.byte	0
 2744 000c 0000     		.2byte	0
 2745 000e 0000     		.2byte	0
 2746 0010 00000000 		.4byte	.Ltext0
 2747 0014 00030000 		.4byte	.Letext0-.Ltext0
 2748 0018 00000000 		.4byte	0
 2749 001c 00000000 		.4byte	0
 2750              		.section	.debug_line,"",%progbits
 2751              	.Ldebug_line0:
 2752 0000 37030000 		.section	.debug_str,"MS",%progbits,1
 2752      02006C02 
 2752      00000201 
 2752      FB0E0D00 
 2752      01010101 
 2753              	.LASF52:
 2754 0000 72656164 		.ascii	"ready_list_t\000"
 2754      795F6C69 
 2754      73745F74 
 2754      00
 2755              	.LASF90:
 2756 000d 77747472 		.ascii	"wttrp\000"
 2756      7000
 2757              	.LASF87:
 2758 0013 7264796D 		.ascii	"rdymsg\000"
 2758      736700
 2759              	.LASF16:
 2760 001a 75696E74 		.ascii	"uint64_t\000"
 2760      36345F74 
 2760      00
 2761              	.LASF5:
 2762 0023 5F5F7569 		.ascii	"__uint8_t\000"
 2762      6E74385F 
 2762      7400
 2763              	.LASF84:
ARM GAS  /tmp/ccwJpLLF.s 			page 50


 2764 002d 706F7274 		.ascii	"port_intctx\000"
 2764      5F696E74 
 2764      63747800 
 2765              	.LASF71:
 2766 0039 73797374 		.ascii	"system_debug_t\000"
 2766      656D5F64 
 2766      65627567 
 2766      5F7400
 2767              	.LASF121:
 2768 0048 6368436F 		.ascii	"chCondBroadcastI\000"
 2768      6E644272 
 2768      6F616463 
 2768      61737449 
 2768      00
 2769              	.LASF108:
 2770 0059 71756575 		.ascii	"queue_init\000"
 2770      655F696E 
 2770      697400
 2771              	.LASF106:
 2772 0064 706F7274 		.ascii	"port_lock\000"
 2772      5F6C6F63 
 2772      6B00
 2773              	.LASF130:
 2774 006e 2F6E6673 		.ascii	"/nfs/nfs7/home/vvedanta/P442/p442-submissions/senso"
 2774      2F6E6673 
 2774      372F686F 
 2774      6D652F76 
 2774      76656461 
 2775 00a1 7274696C 		.ascii	"rtile/final_project\000"
 2775      652F6669 
 2775      6E616C5F 
 2775      70726F6A 
 2775      65637400 
 2776              	.LASF12:
 2777 00b5 6C6F6E67 		.ascii	"long long unsigned int\000"
 2777      206C6F6E 
 2777      6720756E 
 2777      7369676E 
 2777      65642069 
 2778              	.LASF88:
 2779 00cc 65786974 		.ascii	"exitcode\000"
 2779      636F6465 
 2779      00
 2780              	.LASF78:
 2781 00d5 6D61696E 		.ascii	"mainthread\000"
 2781      74687265 
 2781      616400
 2782              	.LASF68:
 2783 00e0 76697274 		.ascii	"virtual_timers_list_t\000"
 2783      75616C5F 
 2783      74696D65 
 2783      72735F6C 
 2783      6973745F 
 2784              	.LASF127:
 2785 00f6 49544D5F 		.ascii	"ITM_RxBuffer\000"
 2785      52784275 
 2785      66666572 
ARM GAS  /tmp/ccwJpLLF.s 			page 51


 2785      00
 2786              	.LASF51:
 2787 0103 63685F74 		.ascii	"ch_threads_queue\000"
 2787      68726561 
 2787      64735F71 
 2787      75657565 
 2787      00
 2788              	.LASF30:
 2789 0114 705F7072 		.ascii	"p_prio\000"
 2789      696F00
 2790              	.LASF10:
 2791 011b 6C6F6E67 		.ascii	"long long int\000"
 2791      206C6F6E 
 2791      6720696E 
 2791      7400
 2792              	.LASF1:
 2793 0129 7369676E 		.ascii	"signed char\000"
 2793      65642063 
 2793      68617200 
 2794              	.LASF105:
 2795 0135 636F6E64 		.ascii	"condition_variable_t\000"
 2795      6974696F 
 2795      6E5F7661 
 2795      72696162 
 2795      6C655F74 
 2796              	.LASF45:
 2797 014a 705F6D70 		.ascii	"p_mpool\000"
 2797      6F6F6C00 
 2798              	.LASF129:
 2799 0152 2E2E2F2E 		.ascii	"../../ChibiOS/os/rt/src/chcond.c\000"
 2799      2E2F4368 
 2799      6962694F 
 2799      532F6F73 
 2799      2F72742F 
 2800              	.LASF98:
 2801 0173 6D5F7175 		.ascii	"m_queue\000"
 2801      65756500 
 2802              	.LASF77:
 2803 017b 76746C69 		.ascii	"vtlist\000"
 2803      737400
 2804              	.LASF107:
 2805 0182 706F7274 		.ascii	"port_unlock\000"
 2805      5F756E6C 
 2805      6F636B00 
 2806              	.LASF21:
 2807 018e 74736C69 		.ascii	"tslices_t\000"
 2807      6365735F 
 2807      7400
 2808              	.LASF75:
 2809 0198 63685F73 		.ascii	"ch_system\000"
 2809      79737465 
 2809      6D00
 2810              	.LASF7:
 2811 01a2 6C6F6E67 		.ascii	"long int\000"
 2811      20696E74 
 2811      00
 2812              	.LASF19:
ARM GAS  /tmp/ccwJpLLF.s 			page 52


 2813 01ab 74737461 		.ascii	"tstate_t\000"
 2813      74655F74 
 2813      00
 2814              	.LASF111:
 2815 01b4 71756575 		.ascii	"queue_notempty\000"
 2815      655F6E6F 
 2815      74656D70 
 2815      747900
 2816              	.LASF32:
 2817 01c3 705F6E65 		.ascii	"p_newer\000"
 2817      77657200 
 2818              	.LASF95:
 2819 01cb 735F7175 		.ascii	"s_queue\000"
 2819      65756500 
 2820              	.LASF57:
 2821 01d3 725F6E65 		.ascii	"r_newer\000"
 2821      77657200 
 2822              	.LASF81:
 2823 01db 72656761 		.ascii	"regarm_t\000"
 2823      726D5F74 
 2823      00
 2824              	.LASF64:
 2825 01e4 76745F70 		.ascii	"vt_prev\000"
 2825      72657600 
 2826              	.LASF72:
 2827 01ec 63685F73 		.ascii	"ch_system_debug\000"
 2827      79737465 
 2827      6D5F6465 
 2827      62756700 
 2828              	.LASF102:
 2829 01fc 6D757465 		.ascii	"mutex_t\000"
 2829      785F7400 
 2830              	.LASF132:
 2831 0204 76616C75 		.ascii	"value\000"
 2831      6500
 2832              	.LASF118:
 2833 020a 6368436F 		.ascii	"chCondSignal\000"
 2833      6E645369 
 2833      676E616C 
 2833      00
 2834              	.LASF79:
 2835 0217 69646C65 		.ascii	"idle_thread_wa\000"
 2835      5F746872 
 2835      6561645F 
 2835      776100
 2836              	.LASF25:
 2837 0226 636E745F 		.ascii	"cnt_t\000"
 2837      7400
 2838              	.LASF0:
 2839 022c 756E7369 		.ascii	"unsigned int\000"
 2839      676E6564 
 2839      20696E74 
 2839      00
 2840              	.LASF63:
 2841 0239 76745F6E 		.ascii	"vt_next\000"
 2841      65787400 
 2842              	.LASF91:
ARM GAS  /tmp/ccwJpLLF.s 			page 53


 2843 0241 77747365 		.ascii	"wtsemp\000"
 2843      6D7000
 2844              	.LASF40:
 2845 0248 705F6D73 		.ascii	"p_msgqueue\000"
 2845      67717565 
 2845      756500
 2846              	.LASF96:
 2847 0253 735F636E 		.ascii	"s_cnt\000"
 2847      7400
 2848              	.LASF4:
 2849 0259 73686F72 		.ascii	"short unsigned int\000"
 2849      7420756E 
 2849      7369676E 
 2849      65642069 
 2849      6E7400
 2850              	.LASF48:
 2851 026c 63685F74 		.ascii	"ch_thread\000"
 2851      68726561 
 2851      6400
 2852              	.LASF23:
 2853 0276 6D73675F 		.ascii	"msg_t\000"
 2853      7400
 2854              	.LASF74:
 2855 027c 63685F73 		.ascii	"ch_system_t\000"
 2855      79737465 
 2855      6D5F7400 
 2856              	.LASF18:
 2857 0288 746D6F64 		.ascii	"tmode_t\000"
 2857      655F7400 
 2858              	.LASF128:
 2859 0290 474E5520 		.ascii	"GNU C 4.8.4 20140526 (release) [ARM/embedded-4_8-br"
 2859      4320342E 
 2859      382E3420 
 2859      32303134 
 2859      30353236 
 2860 02c3 616E6368 		.ascii	"anch revision 211358] -mcpu=cortex-m4 -mno-thumb-in"
 2860      20726576 
 2860      6973696F 
 2860      6E203231 
 2860      31333538 
 2861 02f6 74657277 		.ascii	"terwork -mthumb -ggdb -O0 -fomit-frame-pointer -fal"
 2861      6F726B20 
 2861      2D6D7468 
 2861      756D6220 
 2861      2D676764 
 2862 0329 69676E2D 		.ascii	"ign-functions=16\000"
 2862      66756E63 
 2862      74696F6E 
 2862      733D3136 
 2862      00
 2863              	.LASF53:
 2864 033a 63685F72 		.ascii	"ch_ready_list\000"
 2864      65616479 
 2864      5F6C6973 
 2864      7400
 2865              	.LASF24:
 2866 0348 6576656E 		.ascii	"eventmask_t\000"
ARM GAS  /tmp/ccwJpLLF.s 			page 54


 2866      746D6173 
 2866      6B5F7400 
 2867              	.LASF6:
 2868 0354 5F5F696E 		.ascii	"__int32_t\000"
 2868      7433325F 
 2868      7400
 2869              	.LASF82:
 2870 035e 73746B61 		.ascii	"stkalign_t\000"
 2870      6C69676E 
 2870      5F7400
 2871              	.LASF47:
 2872 0369 74687265 		.ascii	"threads_list_t\000"
 2872      6164735F 
 2872      6C697374 
 2872      5F7400
 2873              	.LASF39:
 2874 0378 705F7761 		.ascii	"p_waiting\000"
 2874      6974696E 
 2874      6700
 2875              	.LASF80:
 2876 0382 73697A65 		.ascii	"sizetype\000"
 2876      74797065 
 2876      00
 2877              	.LASF46:
 2878 038b 74687265 		.ascii	"thread_reference_t\000"
 2878      61645F72 
 2878      65666572 
 2878      656E6365 
 2878      5F7400
 2879              	.LASF69:
 2880 039e 63685F76 		.ascii	"ch_virtual_timers_list\000"
 2880      69727475 
 2880      616C5F74 
 2880      696D6572 
 2880      735F6C69 
 2881              	.LASF103:
 2882 03b5 636F6E64 		.ascii	"condition_variable\000"
 2882      6974696F 
 2882      6E5F7661 
 2882      72696162 
 2882      6C6500
 2883              	.LASF126:
 2884 03c8 6368436F 		.ascii	"chCondWaitTimeoutS\000"
 2884      6E645761 
 2884      69745469 
 2884      6D656F75 
 2884      745300
 2885              	.LASF33:
 2886 03db 705F6F6C 		.ascii	"p_older\000"
 2886      64657200 
 2887              	.LASF56:
 2888 03e3 725F6374 		.ascii	"r_ctx\000"
 2888      7800
 2889              	.LASF86:
 2890 03e9 746D5F63 		.ascii	"tm_calibration_t\000"
 2890      616C6962 
 2890      72617469 
ARM GAS  /tmp/ccwJpLLF.s 			page 55


 2890      6F6E5F74 
 2890      00
 2891              	.LASF100:
 2892 03fa 6D5F6E65 		.ascii	"m_next\000"
 2892      787400
 2893              	.LASF125:
 2894 0401 74696D65 		.ascii	"time\000"
 2894      00
 2895              	.LASF59:
 2896 0406 725F6375 		.ascii	"r_current\000"
 2896      7272656E 
 2896      7400
 2897              	.LASF58:
 2898 0410 725F6F6C 		.ascii	"r_older\000"
 2898      64657200 
 2899              	.LASF120:
 2900 0418 6368436F 		.ascii	"chCondBroadcast\000"
 2900      6E644272 
 2900      6F616463 
 2900      61737400 
 2901              	.LASF11:
 2902 0428 5F5F7569 		.ascii	"__uint64_t\000"
 2902      6E743634 
 2902      5F7400
 2903              	.LASF20:
 2904 0433 74726566 		.ascii	"trefs_t\000"
 2904      735F7400 
 2905              	.LASF61:
 2906 043b 76697274 		.ascii	"virtual_timer_t\000"
 2906      75616C5F 
 2906      74696D65 
 2906      725F7400 
 2907              	.LASF29:
 2908 044b 705F7072 		.ascii	"p_prev\000"
 2908      657600
 2909              	.LASF22:
 2910 0452 74707269 		.ascii	"tprio_t\000"
 2910      6F5F7400 
 2911              	.LASF119:
 2912 045a 6368436F 		.ascii	"chCondSignalI\000"
 2912      6E645369 
 2912      676E616C 
 2912      4900
 2913              	.LASF109:
 2914 0468 5F426F6F 		.ascii	"_Bool\000"
 2914      6C00
 2915              	.LASF14:
 2916 046e 696E7433 		.ascii	"int32_t\000"
 2916      325F7400 
 2917              	.LASF2:
 2918 0476 756E7369 		.ascii	"unsigned char\000"
 2918      676E6564 
 2918      20636861 
 2918      7200
 2919              	.LASF43:
 2920 0484 705F6D74 		.ascii	"p_mtxlist\000"
 2920      786C6973 
ARM GAS  /tmp/ccwJpLLF.s 			page 56


 2920      7400
 2921              	.LASF3:
 2922 048e 73686F72 		.ascii	"short int\000"
 2922      7420696E 
 2922      7400
 2923              	.LASF35:
 2924 0498 705F7374 		.ascii	"p_state\000"
 2924      61746500 
 2925              	.LASF38:
 2926 04a0 705F7072 		.ascii	"p_preempt\000"
 2926      65656D70 
 2926      7400
 2927              	.LASF55:
 2928 04aa 725F7072 		.ascii	"r_prio\000"
 2928      696F00
 2929              	.LASF93:
 2930 04b1 65776D61 		.ascii	"ewmask\000"
 2930      736B00
 2931              	.LASF28:
 2932 04b8 705F6E65 		.ascii	"p_next\000"
 2932      787400
 2933              	.LASF36:
 2934 04bf 705F666C 		.ascii	"p_flags\000"
 2934      61677300 
 2935              	.LASF116:
 2936 04c7 5F5F6675 		.ascii	"__func__\000"
 2936      6E635F5F 
 2936      00
 2937              	.LASF133:
 2938 04d0 63685379 		.ascii	"chSysLock\000"
 2938      734C6F63 
 2938      6B00
 2939              	.LASF62:
 2940 04da 63685F76 		.ascii	"ch_virtual_timer\000"
 2940      69727475 
 2940      616C5F74 
 2940      696D6572 
 2940      00
 2941              	.LASF104:
 2942 04eb 635F7175 		.ascii	"c_queue\000"
 2942      65756500 
 2943              	.LASF94:
 2944 04f3 63685F73 		.ascii	"ch_semaphore\000"
 2944      656D6170 
 2944      686F7265 
 2944      00
 2945              	.LASF42:
 2946 0500 705F6570 		.ascii	"p_epending\000"
 2946      656E6469 
 2946      6E6700
 2947              	.LASF115:
 2948 050b 63684D74 		.ascii	"chMtxGetNextMutexS\000"
 2948      78476574 
 2948      4E657874 
 2948      4D757465 
 2948      785300
 2949              	.LASF15:
ARM GAS  /tmp/ccwJpLLF.s 			page 57


 2950 051e 75696E74 		.ascii	"uint32_t\000"
 2950      33325F74 
 2950      00
 2951              	.LASF92:
 2952 0527 77746D74 		.ascii	"wtmtxp\000"
 2952      787000
 2953              	.LASF54:
 2954 052e 725F7175 		.ascii	"r_queue\000"
 2954      65756500 
 2955              	.LASF65:
 2956 0536 76745F64 		.ascii	"vt_delta\000"
 2956      656C7461 
 2956      00
 2957              	.LASF49:
 2958 053f 63685F74 		.ascii	"ch_threads_list\000"
 2958      68726561 
 2958      64735F6C 
 2958      69737400 
 2959              	.LASF9:
 2960 054f 6C6F6E67 		.ascii	"long unsigned int\000"
 2960      20756E73 
 2960      69676E65 
 2960      6420696E 
 2960      7400
 2961              	.LASF101:
 2962 0561 63686172 		.ascii	"char\000"
 2962      00
 2963              	.LASF123:
 2964 0566 6368436F 		.ascii	"chCondWaitS\000"
 2964      6E645761 
 2964      69745300 
 2965              	.LASF117:
 2966 0572 6368436F 		.ascii	"chCondObjectInit\000"
 2966      6E644F62 
 2966      6A656374 
 2966      496E6974 
 2966      00
 2967              	.LASF112:
 2968 0583 71756575 		.ascii	"queue_fifo_remove\000"
 2968      655F6669 
 2968      666F5F72 
 2968      656D6F76 
 2968      6500
 2969              	.LASF26:
 2970 0595 73797374 		.ascii	"systime_t\000"
 2970      696D655F 
 2970      7400
 2971              	.LASF44:
 2972 059f 705F7265 		.ascii	"p_realprio\000"
 2972      616C7072 
 2972      696F00
 2973              	.LASF60:
 2974 05aa 76746675 		.ascii	"vtfunc_t\000"
 2974      6E635F74 
 2974      00
 2975              	.LASF8:
 2976 05b3 5F5F7569 		.ascii	"__uint32_t\000"
ARM GAS  /tmp/ccwJpLLF.s 			page 58


 2976      6E743332 
 2976      5F7400
 2977              	.LASF131:
 2978 05be 5F5F7365 		.ascii	"__set_BASEPRI\000"
 2978      745F4241 
 2978      53455052 
 2978      4900
 2979              	.LASF73:
 2980 05cc 70616E69 		.ascii	"panic_msg\000"
 2980      635F6D73 
 2980      6700
 2981              	.LASF85:
 2982 05d6 6F666673 		.ascii	"offset\000"
 2982      657400
 2983              	.LASF83:
 2984 05dd 636F6E74 		.ascii	"context\000"
 2984      65787400 
 2985              	.LASF17:
 2986 05e5 7274636E 		.ascii	"rtcnt_t\000"
 2986      745F7400 
 2987              	.LASF122:
 2988 05ed 6368436F 		.ascii	"chCondWait\000"
 2988      6E645761 
 2988      697400
 2989              	.LASF67:
 2990 05f8 76745F70 		.ascii	"vt_par\000"
 2990      617200
 2991              	.LASF50:
 2992 05ff 74687265 		.ascii	"threads_queue_t\000"
 2992      6164735F 
 2992      71756575 
 2992      655F7400 
 2993              	.LASF97:
 2994 060f 63685F6D 		.ascii	"ch_mutex\000"
 2994      75746578 
 2994      00
 2995              	.LASF37:
 2996 0618 705F7265 		.ascii	"p_refs\000"
 2996      667300
 2997              	.LASF27:
 2998 061f 74687265 		.ascii	"thread_t\000"
 2998      61645F74 
 2998      00
 2999              	.LASF76:
 3000 0628 726C6973 		.ascii	"rlist\000"
 3000      7400
 3001              	.LASF114:
 3002 062e 63685468 		.ascii	"chThdGetSelfX\000"
 3002      64476574 
 3002      53656C66 
 3002      5800
 3003              	.LASF13:
 3004 063c 75696E74 		.ascii	"uint8_t\000"
 3004      385F7400 
 3005              	.LASF89:
 3006 0644 77746F62 		.ascii	"wtobjp\000"
 3006      6A7000
ARM GAS  /tmp/ccwJpLLF.s 			page 59


 3007              	.LASF34:
 3008 064b 705F6E61 		.ascii	"p_name\000"
 3008      6D6500
 3009              	.LASF124:
 3010 0652 6368436F 		.ascii	"chCondWaitTimeout\000"
 3010      6E645761 
 3010      69745469 
 3010      6D656F75 
 3010      7400
 3011              	.LASF70:
 3012 0664 76745F73 		.ascii	"vt_systime\000"
 3012      79737469 
 3012      6D6500
 3013              	.LASF113:
 3014 066f 63685379 		.ascii	"chSysUnlock\000"
 3014      73556E6C 
 3014      6F636B00 
 3015              	.LASF41:
 3016 067b 705F6D73 		.ascii	"p_msg\000"
 3016      6700
 3017              	.LASF110:
 3018 0681 71756575 		.ascii	"queue_prio_insert\000"
 3018      655F7072 
 3018      696F5F69 
 3018      6E736572 
 3018      7400
 3019              	.LASF99:
 3020 0693 6D5F6F77 		.ascii	"m_owner\000"
 3020      6E657200 
 3021              	.LASF31:
 3022 069b 705F6374 		.ascii	"p_ctx\000"
 3022      7800
 3023              	.LASF66:
 3024 06a1 76745F66 		.ascii	"vt_func\000"
 3024      756E6300 
 3025              		.ident	"GCC: (GNU Tools for ARM Embedded Processors) 4.8.4 20140526 (release) [ARM/embedded-4_8-br
ARM GAS  /tmp/ccwJpLLF.s 			page 60


DEFINED SYMBOLS
                            *ABS*:00000000 chcond.c
     /tmp/ccwJpLLF.s:18     .text:00000000 $t
     /tmp/ccwJpLLF.s:23     .text:00000000 port_lock
     /tmp/ccwJpLLF.s:58     .text:00000010 port_unlock
     /tmp/ccwJpLLF.s:91     .text:00000020 queue_init
     /tmp/ccwJpLLF.s:122    .text:00000040 queue_notempty
     /tmp/ccwJpLLF.s:154    .text:00000060 queue_prio_insert
     /tmp/ccwJpLLF.s:215    .text:000000b0 queue_fifo_remove
     /tmp/ccwJpLLF.s:254    .text:000000e0 chSysLock
     /tmp/ccwJpLLF.s:277    .text:000000f0 chSysUnlock
     /tmp/ccwJpLLF.s:299    .text:00000100 chThdGetSelfX
     /tmp/ccwJpLLF.s:316    .text:00000108 $d
     /tmp/ccwJpLLF.s:320    .text:0000010c $t
     /tmp/ccwJpLLF.s:325    .text:00000110 chMtxGetNextMutexS
     /tmp/ccwJpLLF.s:352    .text:00000120 chCondObjectInit
     /tmp/ccwJpLLF.s:382    .text:00000140 chCondSignal
     /tmp/ccwJpLLF.s:427    .text:00000180 chCondSignalI
     /tmp/ccwJpLLF.s:474    .text:000001b0 chCondBroadcast
     /tmp/ccwJpLLF.s:508    .text:000001d0 chCondBroadcastI
     /tmp/ccwJpLLF.s:554    .text:00000210 chCondWait
     /tmp/ccwJpLLF.s:590    .text:00000230 chCondWaitS
     /tmp/ccwJpLLF.s:641    .text:00000274 $d
     /tmp/ccwJpLLF.s:645    .text:00000278 $t
     /tmp/ccwJpLLF.s:651    .text:00000280 chCondWaitTimeout
     /tmp/ccwJpLLF.s:689    .text:000002b0 chCondWaitTimeoutS
     /tmp/ccwJpLLF.s:743    .text:000002fc $d
                     .debug_frame:00000010 $d

UNDEFINED SYMBOLS
ch
chSchWakeupS
chSchReadyI
chSchRescheduleS
chMtxUnlockS
chSchGoSleepS
chMtxLockS
chSchGoSleepTimeoutS
