ARM GAS  /tmp/ccjraraf.s 			page 1


   1              		.syntax unified
   2              		.cpu cortex-m4
   3              		.fpu softvfp
   4              		.eabi_attribute 20, 1
   5              		.eabi_attribute 21, 1
   6              		.eabi_attribute 23, 3
   7              		.eabi_attribute 24, 1
   8              		.eabi_attribute 25, 1
   9              		.eabi_attribute 26, 1
  10              		.eabi_attribute 30, 6
  11              		.eabi_attribute 34, 1
  12              		.eabi_attribute 18, 4
  13              		.thumb
  14              		.file	"chcore_v7m.c"
  15              		.text
  16              	.Ltext0:
  17              		.cfi_sections	.debug_frame
  18              		.align	2
  19              		.p2align 4,,15
  20              		.thumb
  21              		.thumb_func
  22              		.type	port_lock, %function
  23              	port_lock:
  24              	.LFB127:
  25              		.file 1 "../../ChibiOS/os/rt/ports/ARMCMx/chcore_v7m.h"
  26              		.loc 1 456 0
  27              		.cfi_startproc
  28              		@ args = 0, pretend = 0, frame = 8
  29              		@ frame_needed = 0, uses_anonymous_args = 0
  30              		@ link register save eliminated.
  31 0000 82B0     		sub	sp, sp, #8
  32              		.cfi_def_cfa_offset 8
  33 0002 2023     		movs	r3, #32
  34 0004 0193     		str	r3, [sp, #4]
  35              	.LBB15:
  36              	.LBB16:
  37              		.file 2 "../../ChibiOS/os/ext/CMSIS/include/core_cmFunc.h"
  38              		.loc 2 548 0
  39 0006 019B     		ldr	r3, [sp, #4]
  40              	@ 548 "../../ChibiOS/os/ext/CMSIS/include/core_cmFunc.h" 1
  41 0008 83F31188 		MSR basepri, r3
  42              	@ 0 "" 2
  43              		.thumb
  44              	.LBE16:
  45              	.LBE15:
  46              		.loc 1 473 0
  47 000c 02B0     		add	sp, sp, #8
  48              		@ sp needed
  49 000e 7047     		bx	lr
  50              		.cfi_endproc
  51              	.LFE127:
  52              		.size	port_lock, .-port_lock
  53              		.align	2
  54              		.p2align 4,,15
  55              		.thumb
  56              		.thumb_func
  57              		.type	port_unlock, %function
ARM GAS  /tmp/ccjraraf.s 			page 2


  58              	port_unlock:
  59              	.LFB128:
  60              		.loc 1 480 0
  61              		.cfi_startproc
  62              		@ args = 0, pretend = 0, frame = 8
  63              		@ frame_needed = 0, uses_anonymous_args = 0
  64              		@ link register save eliminated.
  65 0010 82B0     		sub	sp, sp, #8
  66              		.cfi_def_cfa_offset 8
  67 0012 0023     		movs	r3, #0
  68 0014 0193     		str	r3, [sp, #4]
  69              	.LBB17:
  70              	.LBB18:
  71              		.loc 2 548 0
  72 0016 019B     		ldr	r3, [sp, #4]
  73              	@ 548 "../../ChibiOS/os/ext/CMSIS/include/core_cmFunc.h" 1
  74 0018 83F31188 		MSR basepri, r3
  75              	@ 0 "" 2
  76              		.thumb
  77              	.LBE18:
  78              	.LBE17:
  79              		.loc 1 487 0
  80 001c 02B0     		add	sp, sp, #8
  81              		@ sp needed
  82 001e 7047     		bx	lr
  83              		.cfi_endproc
  84              	.LFE128:
  85              		.size	port_unlock, .-port_unlock
  86              		.align	2
  87              		.p2align 4,,15
  88              		.thumb
  89              		.thumb_func
  90              		.type	port_lock_from_isr, %function
  91              	port_lock_from_isr:
  92              	.LFB129:
  93              		.loc 1 495 0
  94              		.cfi_startproc
  95              		@ args = 0, pretend = 0, frame = 0
  96              		@ frame_needed = 0, uses_anonymous_args = 0
  97 0020 08B5     		push	{r3, lr}
  98              		.cfi_def_cfa_offset 8
  99              		.cfi_offset 3, -8
 100              		.cfi_offset 14, -4
 101              		.loc 1 497 0
 102 0022 FFF7EDFF 		bl	port_lock
 103              		.loc 1 498 0
 104 0026 08BD     		pop	{r3, pc}
 105              		.cfi_endproc
 106              	.LFE129:
 107              		.size	port_lock_from_isr, .-port_lock_from_isr
 108              		.align	2
 109 0028 AFF30080 		.p2align 4,,15
 109      AFF30080 
 110              		.thumb
 111              		.thumb_func
 112              		.type	port_unlock_from_isr, %function
 113              	port_unlock_from_isr:
ARM GAS  /tmp/ccjraraf.s 			page 3


 114              	.LFB130:
 115              		.loc 1 506 0
 116              		.cfi_startproc
 117              		@ args = 0, pretend = 0, frame = 0
 118              		@ frame_needed = 0, uses_anonymous_args = 0
 119 0030 08B5     		push	{r3, lr}
 120              		.cfi_def_cfa_offset 8
 121              		.cfi_offset 3, -8
 122              		.cfi_offset 14, -4
 123              		.loc 1 508 0
 124 0032 FFF7EDFF 		bl	port_unlock
 125              		.loc 1 509 0
 126 0036 08BD     		pop	{r3, pc}
 127              		.cfi_endproc
 128              	.LFE130:
 129              		.size	port_unlock_from_isr, .-port_unlock_from_isr
 130              		.align	2
 131 0038 AFF30080 		.p2align 4,,15
 131      AFF30080 
 132              		.global	SVC_Handler
 133              		.thumb
 134              		.thumb_func
 135              		.type	SVC_Handler, %function
 136              	SVC_Handler:
 137              	.LFB230:
 138              		.file 3 "../../ChibiOS/os/rt/ports/ARMCMx/chcore_v7m.c"
 139              		.loc 3 62 0
 140              		.cfi_startproc
 141              		@ args = 0, pretend = 0, frame = 8
 142              		@ frame_needed = 0, uses_anonymous_args = 0
 143 0040 10B5     		push	{r4, lr}
 144              		.cfi_def_cfa_offset 8
 145              		.cfi_offset 4, -8
 146              		.cfi_offset 14, -4
 147 0042 82B0     		sub	sp, sp, #8
 148              		.cfi_def_cfa_offset 16
 149              	.LBB19:
 150              	.LBB20:
 151              		.loc 2 430 0
 152              	@ 430 "../../ChibiOS/os/ext/CMSIS/include/core_cmFunc.h" 1
 153 0044 EFF30983 		MRS r3, psp
 154              	
 155              	@ 0 "" 2
 156              		.thumb
 157 0048 1C46     		mov	r4, r3
 158              		.loc 2 431 0
 159 004a 2346     		mov	r3, r4
 160              	.LBE20:
 161              	.LBE19:
 162              		.loc 3 72 0
 163 004c 0193     		str	r3, [sp, #4]
 164              		.loc 3 76 0
 165 004e 019B     		ldr	r3, [sp, #4]
 166 0050 2033     		adds	r3, r3, #32
 167 0052 0193     		str	r3, [sp, #4]
 168              		.loc 3 79 0
 169 0054 019B     		ldr	r3, [sp, #4]
ARM GAS  /tmp/ccjraraf.s 			page 4


 170 0056 0093     		str	r3, [sp]
 171              	.LBB21:
 172              	.LBB22:
 173              		.loc 2 443 0
 174 0058 009B     		ldr	r3, [sp]
 175              	@ 443 "../../ChibiOS/os/ext/CMSIS/include/core_cmFunc.h" 1
 176 005a 83F30988 		MSR psp, r3
 177              	
 178              	@ 0 "" 2
 179              		.thumb
 180              	.LBE22:
 181              	.LBE21:
 182              		.loc 3 82 0
 183 005e FFF7E7FF 		bl	port_unlock_from_isr
 184              		.loc 3 83 0
 185 0062 02B0     		add	sp, sp, #8
 186              		@ sp needed
 187 0064 10BD     		pop	{r4, pc}
 188              		.cfi_endproc
 189              	.LFE230:
 190              		.size	SVC_Handler, .-SVC_Handler
 191 0066 00BF     		.align	2
 192 0068 AFF30080 		.p2align 4,,15
 192      AFF30080 
 193              		.global	_port_irq_epilogue
 194              		.thumb
 195              		.thumb_func
 196              		.type	_port_irq_epilogue, %function
 197              	_port_irq_epilogue:
 198              	.LFB231:
 199              		.loc 3 122 0
 200              		.cfi_startproc
 201              		@ args = 0, pretend = 0, frame = 8
 202              		@ frame_needed = 0, uses_anonymous_args = 0
 203 0070 10B5     		push	{r4, lr}
 204              		.cfi_def_cfa_offset 8
 205              		.cfi_offset 4, -8
 206              		.cfi_offset 14, -4
 207 0072 82B0     		sub	sp, sp, #8
 208              		.cfi_def_cfa_offset 16
 209              		.loc 3 124 0
 210 0074 FFF7D4FF 		bl	port_lock_from_isr
 211              		.loc 3 125 0
 212 0078 134B     		ldr	r3, .L13
 213 007a 5B68     		ldr	r3, [r3, #4]
 214 007c 03F40063 		and	r3, r3, #2048
 215 0080 002B     		cmp	r3, #0
 216 0082 1DD0     		beq	.L8
 217              	.LBB23:
 218              	.LBB24:
 219              	.LBB25:
 220              		.loc 2 430 0
 221              	@ 430 "../../ChibiOS/os/ext/CMSIS/include/core_cmFunc.h" 1
 222 0084 EFF30983 		MRS r3, psp
 223              	
 224              	@ 0 "" 2
 225              		.thumb
ARM GAS  /tmp/ccjraraf.s 			page 5


 226 0088 1C46     		mov	r4, r3
 227              		.loc 2 431 0
 228 008a 2346     		mov	r3, r4
 229              	.LBE25:
 230              	.LBE24:
 231              		.loc 3 134 0
 232 008c 0193     		str	r3, [sp, #4]
 233              		.loc 3 138 0
 234 008e 019B     		ldr	r3, [sp, #4]
 235 0090 203B     		subs	r3, r3, #32
 236 0092 0193     		str	r3, [sp, #4]
 237              		.loc 3 141 0
 238 0094 019B     		ldr	r3, [sp, #4]
 239 0096 4FF08072 		mov	r2, #16777216
 240 009a DA61     		str	r2, [r3, #28]
 241              		.loc 3 147 0
 242 009c 019B     		ldr	r3, [sp, #4]
 243 009e 0093     		str	r3, [sp]
 244              	.LBB26:
 245              	.LBB27:
 246              		.loc 2 443 0
 247 00a0 009B     		ldr	r3, [sp]
 248              	@ 443 "../../ChibiOS/os/ext/CMSIS/include/core_cmFunc.h" 1
 249 00a2 83F30988 		MSR psp, r3
 250              	
 251              	@ 0 "" 2
 252              		.thumb
 253              	.LBE27:
 254              	.LBE26:
 255              		.loc 3 151 0
 256 00a6 FFF7FEFF 		bl	chSchIsPreemptionRequired
 257 00aa 0346     		mov	r3, r0
 258 00ac 002B     		cmp	r3, #0
 259 00ae 03D0     		beq	.L10
 260              		.loc 3 153 0
 261 00b0 019B     		ldr	r3, [sp, #4]
 262 00b2 064A     		ldr	r2, .L13+4
 263 00b4 9A61     		str	r2, [r3, #24]
 264              		.loc 3 163 0
 265 00b6 05E0     		b	.L7
 266              	.L10:
 267              		.loc 3 158 0
 268 00b8 019B     		ldr	r3, [sp, #4]
 269 00ba 054A     		ldr	r2, .L13+8
 270 00bc 9A61     		str	r2, [r3, #24]
 271              		.loc 3 163 0
 272 00be 01E0     		b	.L7
 273              	.L8:
 274              	.LBE23:
 275              		.loc 3 165 0
 276 00c0 FFF7B6FF 		bl	port_unlock_from_isr
 277              	.L7:
 278              		.loc 3 166 0
 279 00c4 02B0     		add	sp, sp, #8
 280              		@ sp needed
 281 00c6 10BD     		pop	{r4, pc}
 282              	.L14:
ARM GAS  /tmp/ccjraraf.s 			page 6


 283              		.align	2
 284              	.L13:
 285 00c8 00ED00E0 		.word	-536810240
 286 00cc 00000000 		.word	_port_switch_from_isr
 287 00d0 00000000 		.word	_port_exit_from_isr
 288              		.cfi_endproc
 289              	.LFE231:
 290              		.size	_port_irq_epilogue, .-_port_irq_epilogue
 291              	.Letext0:
 292              		.file 4 "/nfs/nfs5/home/research/hardware/arm2/gcc-arm-embedded/gcc-arm-none-eabi-4_8-2014q2/arm-n
 293              		.file 5 "/nfs/nfs5/home/research/hardware/arm2/gcc-arm-embedded/gcc-arm-none-eabi-4_8-2014q2/arm-n
 294              		.file 6 "../../ChibiOS/os/rt/ports/ARMCMx/compilers/GCC/chtypes.h"
 295              		.file 7 "../../ChibiOS/os/rt/include/chsystypes.h"
 296              		.file 8 "../../ChibiOS/os/rt/include/chschd.h"
 297              		.file 9 "../../ChibiOS/os/ext/CMSIS/include/core_cm4.h"
 298              		.file 10 "../../ChibiOS/os/rt/ports/ARMCMx/chcore.h"
 299              		.file 11 "../../ChibiOS/os/rt/include/chtm.h"
 300              		.file 12 "../../ChibiOS/os/rt/include/chsem.h"
 301              		.file 13 "../../ChibiOS/os/rt/include/chmtx.h"