ARM GAS  /tmp/ccwJpLLF.s 			page 1


   1              		.syntax unified
   2              		.cpu cortex-m4
   3              		.fpu softvfp
   4              		.eabi_attribute 20, 1
   5              		.eabi_attribute 21, 1
   6              		.eabi_attribute 23, 3
   7              		.eabi_attribute 24, 1
   8              		.eabi_attribute 25, 1
   9              		.eabi_attribute 26, 1
  10              		.eabi_attribute 30, 6
  11              		.eabi_attribute 34, 1
  12              		.eabi_attribute 18, 4
  13              		.thumb
  14              		.file	"chcond.c"
  15              		.text
  16              	.Ltext0:
  17              		.cfi_sections	.debug_frame
  18              		.align	2
  19              		.p2align 4,,15
  20              		.thumb
  21              		.thumb_func
  22              		.type	port_lock, %function
  23              	port_lock:
  24              	.LFB127:
  25              		.file 1 "../../ChibiOS/os/rt/ports/ARMCMx/chcore_v7m.h"
  26              		.loc 1 456 0
  27              		.cfi_startproc
  28              		@ args = 0, pretend = 0, frame = 8
  29              		@ frame_needed = 0, uses_anonymous_args = 0
  30              		@ link register save eliminated.
  31 0000 82B0     		sub	sp, sp, #8
  32              		.cfi_def_cfa_offset 8
  33 0002 2023     		movs	r3, #32
  34 0004 0193     		str	r3, [sp, #4]
  35              	.LBB6:
  36              	.LBB7:
  37              		.file 2 "../../ChibiOS/os/ext/CMSIS/include/core_cmFunc.h"
  38              		.loc 2 548 0
  39 0006 019B     		ldr	r3, [sp, #4]
  40              	@ 548 "../../ChibiOS/os/ext/CMSIS/include/core_cmFunc.h" 1
  41 0008 83F31188 		MSR basepri, r3
  42              	@ 0 "" 2
  43              		.thumb
  44              	.LBE7:
  45              	.LBE6:
  46              		.loc 1 473 0
  47 000c 02B0     		add	sp, sp, #8
  48              		@ sp needed
  49 000e 7047     		bx	lr
  50              		.cfi_endproc
  51              	.LFE127:
  52              		.size	port_lock, .-port_lock
  53              		.align	2
  54              		.p2align 4,,15
  55              		.thumb
  56              		.thumb_func
  57              		.type	port_unlock, %function
ARM GAS  /tmp/ccwJpLLF.s 			page 2


  58              	port_unlock:
  59              	.LFB128:
  60              		.loc 1 480 0
  61              		.cfi_startproc
  62              		@ args = 0, pretend = 0, frame = 8
  63              		@ frame_needed = 0, uses_anonymous_args = 0
  64              		@ link register save eliminated.
  65 0010 82B0     		sub	sp, sp, #8
  66              		.cfi_def_cfa_offset 8
  67 0012 0023     		movs	r3, #0
  68 0014 0193     		str	r3, [sp, #4]
  69              	.LBB8:
  70              	.LBB9:
  71              		.loc 2 548 0
  72 0016 019B     		ldr	r3, [sp, #4]
  73              	@ 548 "../../ChibiOS/os/ext/CMSIS/include/core_cmFunc.h" 1
  74 0018 83F31188 		MSR basepri, r3
  75              	@ 0 "" 2
  76              		.thumb
  77              	.LBE9:
  78              	.LBE8:
  79              		.loc 1 487 0
  80 001c 02B0     		add	sp, sp, #8
  81              		@ sp needed
  82 001e 7047     		bx	lr
  83              		.cfi_endproc
  84              	.LFE128:
  85              		.size	port_unlock, .-port_unlock
  86              		.align	2
  87              		.p2align 4,,15
  88              		.thumb
  89              		.thumb_func
  90              		.type	queue_init, %function
  91              	queue_init:
  92              	.LFB139:
  93              		.file 3 "../../ChibiOS/os/rt/include/chschd.h"
  94              		.loc 3 602 0
  95              		.cfi_startproc
  96              		@ args = 0, pretend = 0, frame = 8
  97              		@ frame_needed = 0, uses_anonymous_args = 0
  98              		@ link register save eliminated.
  99 0020 82B0     		sub	sp, sp, #8
 100              		.cfi_def_cfa_offset 8
 101 0022 0190     		str	r0, [sp, #4]
 102              		.loc 3 604 0
 103 0024 019B     		ldr	r3, [sp, #4]
 104 0026 019A     		ldr	r2, [sp, #4]
 105 0028 1A60     		str	r2, [r3]
 106              		.loc 3 605 0
 107 002a 019B     		ldr	r3, [sp, #4]
 108 002c 019A     		ldr	r2, [sp, #4]
 109 002e 5A60     		str	r2, [r3, #4]
 110              		.loc 3 606 0
 111 0030 02B0     		add	sp, sp, #8
 112              		@ sp needed
 113 0032 7047     		bx	lr
 114              		.cfi_endproc
ARM GAS  /tmp/ccwJpLLF.s 			page 3


 115              	.LFE139:
 116              		.size	queue_init, .-queue_init
 117              		.align	2
 118 0034 AFF30080 		.p2align 4,,15
 118      AFF30080 
 118      AFF30080 
 119              		.thumb
 120              		.thumb_func
 121              		.type	queue_notempty, %function
 122              	queue_notempty:
 123              	.LFB141:
 124              		.loc 3 629 0
 125              		.cfi_startproc
 126              		@ args = 0, pretend = 0, frame = 8
 127              		@ frame_needed = 0, uses_anonymous_args = 0
 128              		@ link register save eliminated.
 129 0040 82B0     		sub	sp, sp, #8
 130              		.cfi_def_cfa_offset 8
 131 0042 0190     		str	r0, [sp, #4]
 132              		.loc 3 631 0
 133 0044 019B     		ldr	r3, [sp, #4]
 134 0046 1A68     		ldr	r2, [r3]
 135 0048 019B     		ldr	r3, [sp, #4]
 136 004a 9A42     		cmp	r2, r3
 137 004c 0CBF     		ite	eq
 138 004e 0023     		moveq	r3, #0
 139 0050 0123     		movne	r3, #1
 140 0052 DBB2     		uxtb	r3, r3
 141              		.loc 3 632 0
 142 0054 1846     		mov	r0, r3
 143 0056 02B0     		add	sp, sp, #8
 144              		@ sp needed
 145 0058 7047     		bx	lr
 146              		.cfi_endproc
 147              	.LFE141:
 148              		.size	queue_notempty, .-queue_notempty
 149 005a 00BF     		.align	2
 150 005c AFF30080 		.p2align 4,,15
 151              		.thumb
 152              		.thumb_func
 153              		.type	queue_prio_insert, %function
 154              	queue_prio_insert:
 155              	.LFB144:
 156              		.loc 3 651 0
 157              		.cfi_startproc
 158              		@ args = 0, pretend = 0, frame = 16
 159              		@ frame_needed = 0, uses_anonymous_args = 0
 160              		@ link register save eliminated.
 161 0060 84B0     		sub	sp, sp, #16
 162              		.cfi_def_cfa_offset 16
 163 0062 0190     		str	r0, [sp, #4]
 164 0064 0091     		str	r1, [sp]
 165              		.loc 3 653 0
 166 0066 009B     		ldr	r3, [sp]
 167 0068 0393     		str	r3, [sp, #12]
 168              	.L8:
 169              		.loc 3 655 0 discriminator 1
ARM GAS  /tmp/ccwJpLLF.s 			page 4


 170 006a 039B     		ldr	r3, [sp, #12]
 171 006c 1B68     		ldr	r3, [r3]
 172 006e 0393     		str	r3, [sp, #12]
 173              		.loc 3 656 0 discriminator 1
 174 0070 039A     		ldr	r2, [sp, #12]
 175 0072 009B     		ldr	r3, [sp]
 176 0074 9A42     		cmp	r2, r3
 177 0076 05D0     		beq	.L7
 178 0078 039B     		ldr	r3, [sp, #12]
 179 007a 9A68     		ldr	r2, [r3, #8]
 180 007c 019B     		ldr	r3, [sp, #4]
 181 007e 9B68     		ldr	r3, [r3, #8]
 182 0080 9A42     		cmp	r2, r3
 183 0082 F2D2     		bcs	.L8
 184              	.L7:
 185              		.loc 3 657 0
 186 0084 019B     		ldr	r3, [sp, #4]
 187 0086 039A     		ldr	r2, [sp, #12]
 188 0088 1A60     		str	r2, [r3]
 189              		.loc 3 658 0
 190 008a 039B     		ldr	r3, [sp, #12]
 191 008c 5A68     		ldr	r2, [r3, #4]
 192 008e 019B     		ldr	r3, [sp, #4]
 193 0090 5A60     		str	r2, [r3, #4]
 194              		.loc 3 659 0
 195 0092 019B     		ldr	r3, [sp, #4]
 196 0094 5B68     		ldr	r3, [r3, #4]
 197 0096 019A     		ldr	r2, [sp, #4]
 198 0098 1A60     		str	r2, [r3]
 199              		.loc 3 660 0
 200 009a 039B     		ldr	r3, [sp, #12]
 201 009c 019A     		ldr	r2, [sp, #4]
 202 009e 5A60     		str	r2, [r3, #4]
 203              		.loc 3 661 0
 204 00a0 04B0     		add	sp, sp, #16
 205              		@ sp needed
 206 00a2 7047     		bx	lr
 207              		.cfi_endproc
 208              	.LFE144:
 209              		.size	queue_prio_insert, .-queue_prio_insert
 210              		.align	2
 211 00a4 AFF30080 		.p2align 4,,15
 211      AFF30080 
 211      AFF30080 
 212              		.thumb
 213              		.thumb_func
 214              		.type	queue_fifo_remove, %function
 215              	queue_fifo_remove:
 216              	.LFB146:
 217              		.loc 3 671 0
 218              		.cfi_startproc
 219              		@ args = 0, pretend = 0, frame = 16
 220              		@ frame_needed = 0, uses_anonymous_args = 0
 221              		@ link register save eliminated.
 222 00b0 84B0     		sub	sp, sp, #16
 223              		.cfi_def_cfa_offset 16
 224 00b2 0190     		str	r0, [sp, #4]
ARM GAS  /tmp/ccwJpLLF.s 			page 5


 225              		.loc 3 672 0
 226 00b4 019B     		ldr	r3, [sp, #4]
 227 00b6 1B68     		ldr	r3, [r3]
 228 00b8 0393     		str	r3, [sp, #12]
 229              		.loc 3 674 0
 230 00ba 039B     		ldr	r3, [sp, #12]
 231 00bc 1A68     		ldr	r2, [r3]
 232 00be 019B     		ldr	r3, [sp, #4]
 233 00c0 1A60     		str	r2, [r3]
 234              		.loc 3 675 0
 235 00c2 019B     		ldr	r3, [sp, #4]
 236 00c4 1B68     		ldr	r3, [r3]
 237 00c6 019A     		ldr	r2, [sp, #4]
 238 00c8 5A60     		str	r2, [r3, #4]
 239              		.loc 3 677 0
 240 00ca 039B     		ldr	r3, [sp, #12]
 241              		.loc 3 678 0
 242 00cc 1846     		mov	r0, r3
 243 00ce 04B0     		add	sp, sp, #16
 244              		@ sp needed
 245 00d0 7047     		bx	lr
 246              		.cfi_endproc
 247              	.LFE146:
 248              		.size	queue_fifo_remove, .-queue_fifo_remove
 249 00d2 00BF     		.align	2
 250 00d4 AFF30080 		.p2align 4,,15
 250      AFF30080 
 250      AFF30080 
 251              		.thumb
 252              		.thumb_func
 253              		.type	chSysLock, %function
 254              	chSysLock:
 255              	.LFB156:
 256              		.file 4 "../../ChibiOS/os/rt/include/chsys.h"
 257              		.loc 4 346 0
 258              		.cfi_startproc
 259              		@ args = 0, pretend = 0, frame = 0
 260              		@ frame_needed = 0, uses_anonymous_args = 0
 261 00e0 08B5     		push	{r3, lr}
 262              		.cfi_def_cfa_offset 8
 263              		.cfi_offset 3, -8
 264              		.cfi_offset 14, -4
 265              		.loc 4 348 0
 266 00e2 FFF78DFF 		bl	port_lock
 267              		.loc 4 351 0
 268 00e6 08BD     		pop	{r3, pc}
 269              		.cfi_endproc
 270              	.LFE156:
 271              		.size	chSysLock, .-chSysLock
 272              		.align	2
 273 00e8 AFF30080 		.p2align 4,,15
 273      AFF30080 
 274              		.thumb
 275              		.thumb_func
 276              		.type	chSysUnlock, %function
 277              	chSysUnlock:
 278              	.LFB157:
ARM GAS  /tmp/ccwJpLLF.s 			page 6


 279              		.loc 4 358 0
 280              		.cfi_startproc
 281              		@ args = 0, pretend = 0, frame = 0
 282              		@ frame_needed = 0, uses_anonymous_args = 0
 283 00f0 08B5     		push	{r3, lr}
 284              		.cfi_def_cfa_offset 8
 285              		.cfi_offset 3, -8
 286              		.cfi_offset 14, -4
 287              		.loc 4 371 0
 288 00f2 FFF78DFF 		bl	port_unlock
 289              		.loc 4 372 0
 290 00f6 08BD     		pop	{r3, pc}
 291              		.cfi_endproc
 292              	.LFE157:
 293              		.size	chSysUnlock, .-chSysUnlock
 294              		.align	2
 295 00f8 AFF30080 		.p2align 4,,15
 295      AFF30080 
 296              		.thumb
 297              		.thumb_func
 298              		.type	chThdGetSelfX, %function
 299              	chThdGetSelfX:
 300              	.LFB178:
 301              		.file 5 "../../ChibiOS/os/rt/include/chthreads.h"
 302              		.loc 5 174 0
 303              		.cfi_startproc
 304              		@ args = 0, pretend = 0, frame = 0
 305              		@ frame_needed = 0, uses_anonymous_args = 0
 306              		@ link register save eliminated.
 307              		.loc 5 176 0
 308 0100 014B     		ldr	r3, .L15
 309 0102 9B69     		ldr	r3, [r3, #24]
 310              		.loc 5 177 0
 311 0104 1846     		mov	r0, r3
 312 0106 7047     		bx	lr
 313              	.L16:
 314              		.align	2
 315              	.L15:
 316 0108 00000000 		.word	ch
 317              		.cfi_endproc
 318              	.LFE178:
 319              		.size	chThdGetSelfX, .-chThdGetSelfX
 320              		.align	2
 321 010c AFF30080 		.p2align 4,,15
 322              		.thumb
 323              		.thumb_func
 324              		.type	chMtxGetNextMutexS, %function
 325              	chMtxGetNextMutexS:
 326              	.LFB204:
 327              		.file 6 "../../ChibiOS/os/rt/include/chmtx.h"
 328              		.loc 6 143 0
 329              		.cfi_startproc
 330              		@ args = 0, pretend = 0, frame = 0
 331              		@ frame_needed = 0, uses_anonymous_args = 0
 332 0110 08B5     		push	{r3, lr}
 333              		.cfi_def_cfa_offset 8
 334              		.cfi_offset 3, -8
ARM GAS  /tmp/ccwJpLLF.s 			page 7


 335              		.cfi_offset 14, -4
 336              		.loc 6 145 0
 337 0112 FFF7F5FF 		bl	chThdGetSelfX
 338 0116 0346     		mov	r3, r0
 339 0118 9B6B     		ldr	r3, [r3, #56]
 340              		.loc 6 146 0
 341 011a 1846     		mov	r0, r3
 342 011c 08BD     		pop	{r3, pc}
 343              		.cfi_endproc
 344              	.LFE204:
 345              		.size	chMtxGetNextMutexS, .-chMtxGetNextMutexS
 346 011e 00BF     		.align	2
 347              		.p2align 4,,15
 348              		.global	chCondObjectInit
 349              		.thumb
 350              		.thumb_func
 351              		.type	chCondObjectInit, %function
 352              	chCondObjectInit:
 353              	.LFB230:
 354              		.file 7 "../../ChibiOS/os/rt/src/chcond.c"
 355              		.loc 7 75 0
 356              		.cfi_startproc
 357              		@ args = 0, pretend = 0, frame = 8
 358              		@ frame_needed = 0, uses_anonymous_args = 0
 359 0120 00B5     		push	{lr}
 360              		.cfi_def_cfa_offset 4
 361              		.cfi_offset 14, -4
 362 0122 83B0     		sub	sp, sp, #12
 363              		.cfi_def_cfa_offset 16
 364 0124 0190     		str	r0, [sp, #4]
 365              		.loc 7 79 0
 366 0126 019B     		ldr	r3, [sp, #4]
 367 0128 1846     		mov	r0, r3
 368 012a FFF779FF 		bl	queue_init
 369              		.loc 7 80 0
 370 012e 03B0     		add	sp, sp, #12
 371              		@ sp needed
 372 0130 5DF804FB 		ldr	pc, [sp], #4
 373              		.cfi_endproc
 374              	.LFE230:
 375              		.size	chCondObjectInit, .-chCondObjectInit
 376              		.align	2
 377 0134 AFF30080 		.p2align 4,,15
 377      AFF30080 
 377      AFF30080 
 378              		.global	chCondSignal
 379              		.thumb
 380              		.thumb_func
 381              		.type	chCondSignal, %function
 382              	chCondSignal:
 383              	.LFB231:
 384              		.loc 7 89 0
 385              		.cfi_startproc
 386              		@ args = 0, pretend = 0, frame = 8
 387              		@ frame_needed = 0, uses_anonymous_args = 0
 388 0140 00B5     		push	{lr}
 389              		.cfi_def_cfa_offset 4
ARM GAS  /tmp/ccwJpLLF.s 			page 8


 390              		.cfi_offset 14, -4
 391 0142 83B0     		sub	sp, sp, #12
 392              		.cfi_def_cfa_offset 16
 393 0144 0190     		str	r0, [sp, #4]
 394              		.loc 7 93 0
 395 0146 FFF7CBFF 		bl	chSysLock
 396              		.loc 7 94 0
 397 014a 019B     		ldr	r3, [sp, #4]
 398 014c 1846     		mov	r0, r3
 399 014e FFF777FF 		bl	queue_notempty
 400 0152 0346     		mov	r3, r0
 401 0154 002B     		cmp	r3, #0
 402 0156 08D0     		beq	.L21
 403              		.loc 7 95 0
 404 0158 019B     		ldr	r3, [sp, #4]
 405 015a 1846     		mov	r0, r3
 406 015c FFF7A8FF 		bl	queue_fifo_remove
 407 0160 0346     		mov	r3, r0
 408 0162 1846     		mov	r0, r3
 409 0164 0021     		movs	r1, #0
 410 0166 FFF7FEFF 		bl	chSchWakeupS
 411              	.L21:
 412              		.loc 7 97 0
 413 016a FFF7C1FF 		bl	chSysUnlock
 414              		.loc 7 98 0
 415 016e 03B0     		add	sp, sp, #12
 416              		@ sp needed
 417 0170 5DF804FB 		ldr	pc, [sp], #4
 418              		.cfi_endproc
 419              	.LFE231:
 420              		.size	chCondSignal, .-chCondSignal
 421              		.align	2
 422 0174 AFF30080 		.p2align 4,,15
 422      AFF30080 
 422      AFF30080 
 423              		.global	chCondSignalI
 424              		.thumb
 425              		.thumb_func
 426              		.type	chCondSignalI, %function
 427              	chCondSignalI:
 428              	.LFB232:
 429              		.loc 7 111 0
 430              		.cfi_startproc
 431              		@ args = 0, pretend = 0, frame = 16
 432              		@ frame_needed = 0, uses_anonymous_args = 0
 433 0180 00B5     		push	{lr}
 434              		.cfi_def_cfa_offset 4
 435              		.cfi_offset 14, -4
 436 0182 85B0     		sub	sp, sp, #20
 437              		.cfi_def_cfa_offset 24
 438 0184 0190     		str	r0, [sp, #4]
 439              		.loc 7 116 0
 440 0186 019B     		ldr	r3, [sp, #4]
 441 0188 1846     		mov	r0, r3
 442 018a FFF759FF 		bl	queue_notempty
 443 018e 0346     		mov	r3, r0
 444 0190 002B     		cmp	r3, #0
ARM GAS  /tmp/ccwJpLLF.s 			page 9


 445 0192 0AD0     		beq	.L22
 446              	.LBB10:
 447              		.loc 7 117 0
 448 0194 019B     		ldr	r3, [sp, #4]
 449 0196 1846     		mov	r0, r3
 450 0198 FFF78AFF 		bl	queue_fifo_remove
 451 019c 0390     		str	r0, [sp, #12]
 452              		.loc 7 118 0
 453 019e 039B     		ldr	r3, [sp, #12]
 454 01a0 0022     		movs	r2, #0
 455 01a2 1A62     		str	r2, [r3, #32]
 456              		.loc 7 119 0
 457 01a4 0398     		ldr	r0, [sp, #12]
 458 01a6 FFF7FEFF 		bl	chSchReadyI
 459              	.L22:
 460              	.LBE10:
 461              		.loc 7 121 0
 462 01aa 05B0     		add	sp, sp, #20
 463              		@ sp needed
 464 01ac 5DF804FB 		ldr	pc, [sp], #4
 465              		.cfi_endproc
 466              	.LFE232:
 467              		.size	chCondSignalI, .-chCondSignalI
 468              		.align	2
 469              		.p2align 4,,15
 470              		.global	chCondBroadcast
 471              		.thumb
 472              		.thumb_func
 473              		.type	chCondBroadcast, %function
 474              	chCondBroadcast:
 475              	.LFB233:
 476              		.loc 7 130 0
 477              		.cfi_startproc
 478              		@ args = 0, pretend = 0, frame = 8
 479              		@ frame_needed = 0, uses_anonymous_args = 0
 480 01b0 00B5     		push	{lr}
 481              		.cfi_def_cfa_offset 4
 482              		.cfi_offset 14, -4
 483 01b2 83B0     		sub	sp, sp, #12
 484              		.cfi_def_cfa_offset 16
 485 01b4 0190     		str	r0, [sp, #4]
 486              		.loc 7 132 0
 487 01b6 FFF793FF 		bl	chSysLock
 488              		.loc 7 133 0
 489 01ba 0198     		ldr	r0, [sp, #4]
 490 01bc FFF7FEFF 		bl	chCondBroadcastI
 491              		.loc 7 134 0
 492 01c0 FFF7FEFF 		bl	chSchRescheduleS
 493              		.loc 7 135 0
 494 01c4 FFF794FF 		bl	chSysUnlock
 495              		.loc 7 136 0
 496 01c8 03B0     		add	sp, sp, #12
 497              		@ sp needed
 498 01ca 5DF804FB 		ldr	pc, [sp], #4
 499              		.cfi_endproc
 500              	.LFE233:
 501              		.size	chCondBroadcast, .-chCondBroadcast
ARM GAS  /tmp/ccwJpLLF.s 			page 10


 502 01ce 00BF     		.align	2
 503              		.p2align 4,,15
 504              		.global	chCondBroadcastI
 505              		.thumb
 506              		.thumb_func
 507              		.type	chCondBroadcastI, %function
 508              	chCondBroadcastI:
 509              	.LFB234:
 510              		.loc 7 149 0
 511              		.cfi_startproc
 512              		@ args = 0, pretend = 0, frame = 8
 513              		@ frame_needed = 0, uses_anonymous_args = 0
 514 01d0 00B5     		push	{lr}
 515              		.cfi_def_cfa_offset 4
 516              		.cfi_offset 14, -4
 517 01d2 83B0     		sub	sp, sp, #12
 518              		.cfi_def_cfa_offset 16
 519 01d4 0190     		str	r0, [sp, #4]
 520              		.loc 7 157 0
 521 01d6 0BE0     		b	.L26
 522              	.L27:
 523              		.loc 7 158 0
 524 01d8 019B     		ldr	r3, [sp, #4]
 525 01da 1846     		mov	r0, r3
 526 01dc FFF768FF 		bl	queue_fifo_remove
 527 01e0 0346     		mov	r3, r0
 528 01e2 1846     		mov	r0, r3
 529 01e4 FFF7FEFF 		bl	chSchReadyI
 530 01e8 0346     		mov	r3, r0
 531 01ea 6FF00102 		mvn	r2, #1
 532 01ee 1A62     		str	r2, [r3, #32]
 533              	.L26:
 534              		.loc 7 157 0 discriminator 1
 535 01f0 019B     		ldr	r3, [sp, #4]
 536 01f2 1846     		mov	r0, r3
 537 01f4 FFF724FF 		bl	queue_notempty
 538 01f8 0346     		mov	r3, r0
 539 01fa 002B     		cmp	r3, #0
 540 01fc ECD1     		bne	.L27
 541              		.loc 7 160 0
 542 01fe 03B0     		add	sp, sp, #12
 543              		@ sp needed
 544 0200 5DF804FB 		ldr	pc, [sp], #4
 545              		.cfi_endproc
 546              	.LFE234:
 547              		.size	chCondBroadcastI, .-chCondBroadcastI
 548              		.align	2
 549 0204 AFF30080 		.p2align 4,,15
 549      AFF30080 
 549      AFF30080 
 550              		.global	chCondWait
 551              		.thumb
 552              		.thumb_func
 553              		.type	chCondWait, %function
 554              	chCondWait:
 555              	.LFB235:
 556              		.loc 7 179 0
ARM GAS  /tmp/ccwJpLLF.s 			page 11


 557              		.cfi_startproc
 558              		@ args = 0, pretend = 0, frame = 16
 559              		@ frame_needed = 0, uses_anonymous_args = 0
 560 0210 00B5     		push	{lr}
 561              		.cfi_def_cfa_offset 4
 562              		.cfi_offset 14, -4
 563 0212 85B0     		sub	sp, sp, #20
 564              		.cfi_def_cfa_offset 24
 565 0214 0190     		str	r0, [sp, #4]
 566              		.loc 7 182 0
 567 0216 FFF763FF 		bl	chSysLock
 568              		.loc 7 183 0
 569 021a 0198     		ldr	r0, [sp, #4]
 570 021c FFF7FEFF 		bl	chCondWaitS
 571 0220 0390     		str	r0, [sp, #12]
 572              		.loc 7 184 0
 573 0222 FFF765FF 		bl	chSysUnlock
 574              		.loc 7 185 0
 575 0226 039B     		ldr	r3, [sp, #12]
 576              		.loc 7 186 0
 577 0228 1846     		mov	r0, r3
 578 022a 05B0     		add	sp, sp, #20
 579              		@ sp needed
 580 022c 5DF804FB 		ldr	pc, [sp], #4
 581              		.cfi_endproc
 582              	.LFE235:
 583              		.size	chCondWait, .-chCondWait
 584              		.align	2
 585              		.p2align 4,,15
 586              		.global	chCondWaitS
 587              		.thumb
 588              		.thumb_func
 589              		.type	chCondWaitS, %function
 590              	chCondWaitS:
 591              	.LFB236:
 592              		.loc 7 205 0
 593              		.cfi_startproc
 594              		@ args = 0, pretend = 0, frame = 24
 595              		@ frame_needed = 0, uses_anonymous_args = 0
 596 0230 00B5     		push	{lr}
 597              		.cfi_def_cfa_offset 4
 598              		.cfi_offset 14, -4
 599 0232 87B0     		sub	sp, sp, #28
 600              		.cfi_def_cfa_offset 32
 601 0234 0190     		str	r0, [sp, #4]
 602              		.loc 7 206 0
 603 0236 0F4B     		ldr	r3, .L32
 604 0238 9B69     		ldr	r3, [r3, #24]
 605 023a 0593     		str	r3, [sp, #20]
 606              		.loc 7 215 0
 607 023c FFF768FF 		bl	chMtxGetNextMutexS
 608 0240 0490     		str	r0, [sp, #16]
 609              		.loc 7 216 0
 610 0242 0498     		ldr	r0, [sp, #16]
 611 0244 FFF7FEFF 		bl	chMtxUnlockS
 612              		.loc 7 220 0
 613 0248 059B     		ldr	r3, [sp, #20]
ARM GAS  /tmp/ccwJpLLF.s 			page 12


 614 024a 019A     		ldr	r2, [sp, #4]
 615 024c 1A62     		str	r2, [r3, #32]
 616              		.loc 7 221 0
 617 024e 019B     		ldr	r3, [sp, #4]
 618 0250 0598     		ldr	r0, [sp, #20]
 619 0252 1946     		mov	r1, r3
 620 0254 FFF704FF 		bl	queue_prio_insert
 621              		.loc 7 222 0
 622 0258 0720     		movs	r0, #7
 623 025a FFF7FEFF 		bl	chSchGoSleepS
 624              		.loc 7 223 0
 625 025e 059B     		ldr	r3, [sp, #20]
 626 0260 1B6A     		ldr	r3, [r3, #32]
 627 0262 0393     		str	r3, [sp, #12]
 628              		.loc 7 224 0
 629 0264 0498     		ldr	r0, [sp, #16]
 630 0266 FFF7FEFF 		bl	chMtxLockS
 631              		.loc 7 226 0
 632 026a 039B     		ldr	r3, [sp, #12]
 633              		.loc 7 227 0
 634 026c 1846     		mov	r0, r3
 635 026e 07B0     		add	sp, sp, #28
 636              		@ sp needed
 637 0270 5DF804FB 		ldr	pc, [sp], #4
 638              	.L33:
 639              		.align	2
 640              	.L32:
 641 0274 00000000 		.word	ch
 642              		.cfi_endproc
 643              	.LFE236:
 644              		.size	chCondWaitS, .-chCondWaitS
 645              		.align	2
 646 0278 AFF30080 		.p2align 4,,15
 646      AFF30080 
 647              		.global	chCondWaitTimeout
 648              		.thumb
 649              		.thumb_func
 650              		.type	chCondWaitTimeout, %function
 651              	chCondWaitTimeout:
 652              	.LFB237:
 653              		.loc 7 258 0
 654              		.cfi_startproc
 655              		@ args = 0, pretend = 0, frame = 16
 656              		@ frame_needed = 0, uses_anonymous_args = 0
 657 0280 00B5     		push	{lr}
 658              		.cfi_def_cfa_offset 4
 659              		.cfi_offset 14, -4
 660 0282 85B0     		sub	sp, sp, #20
 661              		.cfi_def_cfa_offset 24
 662 0284 0190     		str	r0, [sp, #4]
 663 0286 0091     		str	r1, [sp]
 664              		.loc 7 261 0
 665 0288 FFF72AFF 		bl	chSysLock
 666              		.loc 7 262 0
 667 028c 0198     		ldr	r0, [sp, #4]
 668 028e 0099     		ldr	r1, [sp]
 669 0290 FFF7FEFF 		bl	chCondWaitTimeoutS
ARM GAS  /tmp/ccwJpLLF.s 			page 13


 670 0294 0390     		str	r0, [sp, #12]
 671              		.loc 7 263 0
 672 0296 FFF72BFF 		bl	chSysUnlock
 673              		.loc 7 265 0
 674 029a 039B     		ldr	r3, [sp, #12]
 675              		.loc 7 266 0
 676 029c 1846     		mov	r0, r3
 677 029e 05B0     		add	sp, sp, #20
 678              		@ sp needed
 679 02a0 5DF804FB 		ldr	pc, [sp], #4
 680              		.cfi_endproc
 681              	.LFE237:
 682              		.size	chCondWaitTimeout, .-chCondWaitTimeout
 683              		.align	2
 684 02a4 AFF30080 		.p2align 4,,15
 684      AFF30080 
 684      AFF30080 
 685              		.global	chCondWaitTimeoutS
 686              		.thumb
 687              		.thumb_func
 688              		.type	chCondWaitTimeoutS, %function
 689              	chCondWaitTimeoutS:
 690              	.LFB238:
 691              		.loc 7 296 0
 692              		.cfi_startproc
 693              		@ args = 0, pretend = 0, frame = 16
 694              		@ frame_needed = 0, uses_anonymous_args = 0
 695 02b0 00B5     		push	{lr}
 696              		.cfi_def_cfa_offset 4
 697              		.cfi_offset 14, -4
 698 02b2 85B0     		sub	sp, sp, #20
 699              		.cfi_def_cfa_offset 24
 700 02b4 0190     		str	r0, [sp, #4]
 701 02b6 0091     		str	r1, [sp]
 702              		.loc 7 305 0
 703 02b8 FFF72AFF 		bl	chMtxGetNextMutexS
 704 02bc 0390     		str	r0, [sp, #12]
 705              		.loc 7 306 0
 706 02be 0398     		ldr	r0, [sp, #12]
 707 02c0 FFF7FEFF 		bl	chMtxUnlockS
 708              		.loc 7 310 0
 709 02c4 0D4B     		ldr	r3, .L39
 710 02c6 9B69     		ldr	r3, [r3, #24]
 711 02c8 019A     		ldr	r2, [sp, #4]
 712 02ca 1A62     		str	r2, [r3, #32]
 713              		.loc 7 311 0
 714 02cc 0B4B     		ldr	r3, .L39
 715 02ce 9A69     		ldr	r2, [r3, #24]
 716 02d0 019B     		ldr	r3, [sp, #4]
 717 02d2 1046     		mov	r0, r2
 718 02d4 1946     		mov	r1, r3
 719 02d6 FFF7C3FE 		bl	queue_prio_insert
 720              		.loc 7 312 0
 721 02da 0720     		movs	r0, #7
 722 02dc 0099     		ldr	r1, [sp]
 723 02de FFF7FEFF 		bl	chSchGoSleepTimeoutS
 724 02e2 0290     		str	r0, [sp, #8]
ARM GAS  /tmp/ccwJpLLF.s 			page 14


 725              		.loc 7 313 0
 726 02e4 029B     		ldr	r3, [sp, #8]
 727 02e6 B3F1FF3F 		cmp	r3, #-1
 728 02ea 02D0     		beq	.L37
 729              		.loc 7 314 0
 730 02ec 0398     		ldr	r0, [sp, #12]
 731 02ee FFF7FEFF 		bl	chMtxLockS
 732              	.L37:
 733              		.loc 7 317 0
 734 02f2 029B     		ldr	r3, [sp, #8]
 735              		.loc 7 318 0
 736 02f4 1846     		mov	r0, r3
 737 02f6 05B0     		add	sp, sp, #20
 738              		@ sp needed
 739 02f8 5DF804FB 		ldr	pc, [sp], #4
 740              	.L40:
 741              		.align	2
 742              	.L39:
 743 02fc 00000000 		.word	ch
 744              		.cfi_endproc
 745              	.LFE238:
 746              		.size	chCondWaitTimeoutS, .-chCondWaitTimeoutS
 747              	.Letext0:
 748              		.file 8 "/nfs/nfs5/home/research/hardware/arm2/gcc-arm-embedded/gcc-arm-none-eabi-4_8-2014q2/arm-n
 749              		.file 9 "/nfs/nfs5/home/research/hardware/arm2/gcc-arm-embedded/gcc-arm-none-eabi-4_8-2014q2/arm-n
 750              		.file 10 "../../ChibiOS/os/rt/ports/ARMCMx/compilers/GCC/chtypes.h"
 751              		.file 11 "../../ChibiOS/os/rt/include/chsystypes.h"
 752              		.file 12 "../../ChibiOS/os/rt/ports/ARMCMx/chcore.h"
 753              		.file 13 "../../ChibiOS/os/rt/include/chtm.h"
 754              		.file 14 "../../ChibiOS/os/rt/include/chsem.h"
 755              		.file 15 "../../ChibiOS/os/rt/include/chcond.h"
 756              		.file 16 "../../ChibiOS/os/ext/CMSIS/include/core_cm4.h"