ARM GAS  /tmp/ccPm1Q7j.s 			page 1


   1              		.syntax unified
   2              		.cpu cortex-m4
   3              		.fpu softvfp
   4              		.eabi_attribute 20, 1
   5              		.eabi_attribute 21, 1
   6              		.eabi_attribute 23, 3
   7              		.eabi_attribute 24, 1
   8              		.eabi_attribute 25, 1
   9              		.eabi_attribute 26, 1
  10              		.eabi_attribute 30, 6
  11              		.eabi_attribute 34, 1
  12              		.eabi_attribute 18, 4
  13              		.thumb
  14              		.file	"chdynamic.c"
  15              		.text
  16              	.Ltext0:
  17              		.cfi_sections	.debug_frame
  18              		.align	2
  19              		.p2align 4,,15
  20              		.thumb
  21              		.thumb_func
  22              		.type	port_lock, %function
  23              	port_lock:
  24              	.LFB127:
  25              		.file 1 "../../ChibiOS/os/rt/ports/ARMCMx/chcore_v7m.h"
  26              		.loc 1 456 0
  27              		.cfi_startproc
  28              		@ args = 0, pretend = 0, frame = 8
  29              		@ frame_needed = 0, uses_anonymous_args = 0
  30              		@ link register save eliminated.
  31 0000 82B0     		sub	sp, sp, #8
  32              		.cfi_def_cfa_offset 8
  33 0002 2023     		movs	r3, #32
  34 0004 0193     		str	r3, [sp, #4]
  35              	.LBB6:
  36              	.LBB7:
  37              		.file 2 "../../ChibiOS/os/ext/CMSIS/include/core_cmFunc.h"
  38              		.loc 2 548 0
  39 0006 019B     		ldr	r3, [sp, #4]
  40              	@ 548 "../../ChibiOS/os/ext/CMSIS/include/core_cmFunc.h" 1
  41 0008 83F31188 		MSR basepri, r3
  42              	@ 0 "" 2
  43              		.thumb
  44              	.LBE7:
  45              	.LBE6:
  46              		.loc 1 473 0
  47 000c 02B0     		add	sp, sp, #8
  48              		@ sp needed
  49 000e 7047     		bx	lr
  50              		.cfi_endproc
  51              	.LFE127:
  52              		.size	port_lock, .-port_lock
  53              		.align	2
  54              		.p2align 4,,15
  55              		.thumb
  56              		.thumb_func
  57              		.type	port_unlock, %function
ARM GAS  /tmp/ccPm1Q7j.s 			page 2


  58              	port_unlock:
  59              	.LFB128:
  60              		.loc 1 480 0
  61              		.cfi_startproc
  62              		@ args = 0, pretend = 0, frame = 8
  63              		@ frame_needed = 0, uses_anonymous_args = 0
  64              		@ link register save eliminated.
  65 0010 82B0     		sub	sp, sp, #8
  66              		.cfi_def_cfa_offset 8
  67 0012 0023     		movs	r3, #0
  68 0014 0193     		str	r3, [sp, #4]
  69              	.LBB8:
  70              	.LBB9:
  71              		.loc 2 548 0
  72 0016 019B     		ldr	r3, [sp, #4]
  73              	@ 548 "../../ChibiOS/os/ext/CMSIS/include/core_cmFunc.h" 1
  74 0018 83F31188 		MSR basepri, r3
  75              	@ 0 "" 2
  76              		.thumb
  77              	.LBE9:
  78              	.LBE8:
  79              		.loc 1 487 0
  80 001c 02B0     		add	sp, sp, #8
  81              		@ sp needed
  82 001e 7047     		bx	lr
  83              		.cfi_endproc
  84              	.LFE128:
  85              		.size	port_unlock, .-port_unlock
  86              		.align	2
  87              		.p2align 4,,15
  88              		.thumb
  89              		.thumb_func
  90              		.type	chSysLock, %function
  91              	chSysLock:
  92              	.LFB156:
  93              		.file 3 "../../ChibiOS/os/rt/include/chsys.h"
  94              		.loc 3 346 0
  95              		.cfi_startproc
  96              		@ args = 0, pretend = 0, frame = 0
  97              		@ frame_needed = 0, uses_anonymous_args = 0
  98 0020 08B5     		push	{r3, lr}
  99              		.cfi_def_cfa_offset 8
 100              		.cfi_offset 3, -8
 101              		.cfi_offset 14, -4
 102              		.loc 3 348 0
 103 0022 FFF7EDFF 		bl	port_lock
 104              		.loc 3 351 0
 105 0026 08BD     		pop	{r3, pc}
 106              		.cfi_endproc
 107              	.LFE156:
 108              		.size	chSysLock, .-chSysLock
 109              		.align	2
 110 0028 AFF30080 		.p2align 4,,15
 110      AFF30080 
 111              		.thumb
 112              		.thumb_func
 113              		.type	chSysUnlock, %function
ARM GAS  /tmp/ccPm1Q7j.s 			page 3


 114              	chSysUnlock:
 115              	.LFB157:
 116              		.loc 3 358 0
 117              		.cfi_startproc
 118              		@ args = 0, pretend = 0, frame = 0
 119              		@ frame_needed = 0, uses_anonymous_args = 0
 120 0030 08B5     		push	{r3, lr}
 121              		.cfi_def_cfa_offset 8
 122              		.cfi_offset 3, -8
 123              		.cfi_offset 14, -4
 124              		.loc 3 371 0
 125 0032 FFF7EDFF 		bl	port_unlock
 126              		.loc 3 372 0
 127 0036 08BD     		pop	{r3, pc}
 128              		.cfi_endproc
 129              	.LFE157:
 130              		.size	chSysUnlock, .-chSysUnlock
 131              		.align	2
 132 0038 AFF30080 		.p2align 4,,15
 132      AFF30080 
 133              		.global	chThdAddRef
 134              		.thumb
 135              		.thumb_func
 136              		.type	chThdAddRef, %function
 137              	chThdAddRef:
 138              	.LFB230:
 139              		.file 4 "../../ChibiOS/os/rt/src/chdynamic.c"
 140              		.loc 4 68 0
 141              		.cfi_startproc
 142              		@ args = 0, pretend = 0, frame = 8
 143              		@ frame_needed = 0, uses_anonymous_args = 0
 144 0040 00B5     		push	{lr}
 145              		.cfi_def_cfa_offset 4
 146              		.cfi_offset 14, -4
 147 0042 83B0     		sub	sp, sp, #12
 148              		.cfi_def_cfa_offset 16
 149 0044 0190     		str	r0, [sp, #4]
 150              		.loc 4 70 0
 151 0046 FFF7EBFF 		bl	chSysLock
 152              		.loc 4 72 0
 153 004a 019B     		ldr	r3, [sp, #4]
 154 004c 9B7F     		ldrb	r3, [r3, #30]	@ zero_extendqisi2
 155 004e 0133     		adds	r3, r3, #1
 156 0050 DAB2     		uxtb	r2, r3
 157 0052 019B     		ldr	r3, [sp, #4]
 158 0054 9A77     		strb	r2, [r3, #30]
 159              		.loc 4 73 0
 160 0056 FFF7EBFF 		bl	chSysUnlock
 161              		.loc 4 75 0
 162 005a 019B     		ldr	r3, [sp, #4]
 163              		.loc 4 76 0
 164 005c 1846     		mov	r0, r3
 165 005e 03B0     		add	sp, sp, #12
 166              		@ sp needed
 167 0060 5DF804FB 		ldr	pc, [sp], #4
 168              		.cfi_endproc
 169              	.LFE230:
ARM GAS  /tmp/ccPm1Q7j.s 			page 4


 170              		.size	chThdAddRef, .-chThdAddRef
 171              		.align	2
 172 0064 AFF30080 		.p2align 4,,15
 172      AFF30080 
 172      AFF30080 
 173              		.global	chThdRelease
 174              		.thumb
 175              		.thumb_func
 176              		.type	chThdRelease, %function
 177              	chThdRelease:
 178              	.LFB231:
 179              		.loc 4 91 0
 180              		.cfi_startproc
 181              		@ args = 0, pretend = 0, frame = 16
 182              		@ frame_needed = 0, uses_anonymous_args = 0
 183 0070 00B5     		push	{lr}
 184              		.cfi_def_cfa_offset 4
 185              		.cfi_offset 14, -4
 186 0072 85B0     		sub	sp, sp, #20
 187              		.cfi_def_cfa_offset 24
 188 0074 0190     		str	r0, [sp, #4]
 189              		.loc 4 94 0
 190 0076 FFF7D3FF 		bl	chSysLock
 191              		.loc 4 96 0
 192 007a 019B     		ldr	r3, [sp, #4]
 193 007c 9B7F     		ldrb	r3, [r3, #30]	@ zero_extendqisi2
 194 007e 013B     		subs	r3, r3, #1
 195 0080 DAB2     		uxtb	r2, r3
 196 0082 019B     		ldr	r3, [sp, #4]
 197 0084 9A77     		strb	r2, [r3, #30]
 198              		.loc 4 97 0
 199 0086 019B     		ldr	r3, [sp, #4]
 200 0088 9B7F     		ldrb	r3, [r3, #30]
 201 008a 8DF80F30 		strb	r3, [sp, #15]
 202              		.loc 4 102 0
 203 008e 9DF80F30 		ldrb	r3, [sp, #15]	@ zero_extendqisi2
 204 0092 002B     		cmp	r3, #0
 205 0094 2FD1     		bne	.L8
 206              		.loc 4 102 0 is_stmt 0 discriminator 1
 207 0096 019B     		ldr	r3, [sp, #4]
 208 0098 1B7F     		ldrb	r3, [r3, #28]	@ zero_extendqisi2
 209 009a 0F2B     		cmp	r3, #15
 210 009c 2BD1     		bne	.L8
 211              		.loc 4 103 0 is_stmt 1
 212 009e 019B     		ldr	r3, [sp, #4]
 213 00a0 5B7F     		ldrb	r3, [r3, #29]	@ zero_extendqisi2
 214 00a2 03F00303 		and	r3, r3, #3
 215 00a6 012B     		cmp	r3, #1
 216 00a8 02D0     		beq	.L10
 217 00aa 022B     		cmp	r3, #2
 218 00ac 10D0     		beq	.L11
 219              		.loc 4 125 0
 220 00ae 22E0     		b	.L8
 221              	.L10:
 222              		.loc 4 107 0
 223 00b0 019B     		ldr	r3, [sp, #4]
 224 00b2 5B69     		ldr	r3, [r3, #20]
ARM GAS  /tmp/ccPm1Q7j.s 			page 5


 225 00b4 019A     		ldr	r2, [sp, #4]
 226 00b6 1269     		ldr	r2, [r2, #16]
 227 00b8 1A61     		str	r2, [r3, #16]
 228 00ba 019B     		ldr	r3, [sp, #4]
 229 00bc 1B69     		ldr	r3, [r3, #16]
 230 00be 019A     		ldr	r2, [sp, #4]
 231 00c0 5269     		ldr	r2, [r2, #20]
 232 00c2 5A61     		str	r2, [r3, #20]
 233              		.loc 4 109 0
 234 00c4 FFF7B4FF 		bl	chSysUnlock
 235              		.loc 4 110 0
 236 00c8 0198     		ldr	r0, [sp, #4]
 237 00ca FFF7FEFF 		bl	chHeapFree
 238              		.loc 4 111 0
 239 00ce 14E0     		b	.L7
 240              	.L11:
 241              		.loc 4 116 0
 242 00d0 019B     		ldr	r3, [sp, #4]
 243 00d2 5B69     		ldr	r3, [r3, #20]
 244 00d4 019A     		ldr	r2, [sp, #4]
 245 00d6 1269     		ldr	r2, [r2, #16]
 246 00d8 1A61     		str	r2, [r3, #16]
 247 00da 019B     		ldr	r3, [sp, #4]
 248 00dc 1B69     		ldr	r3, [r3, #16]
 249 00de 019A     		ldr	r2, [sp, #4]
 250 00e0 5269     		ldr	r2, [r2, #20]
 251 00e2 5A61     		str	r2, [r3, #20]
 252              		.loc 4 118 0
 253 00e4 FFF7A4FF 		bl	chSysUnlock
 254              		.loc 4 119 0
 255 00e8 019B     		ldr	r3, [sp, #4]
 256 00ea 1B6C     		ldr	r3, [r3, #64]
 257 00ec 1846     		mov	r0, r3
 258 00ee 0199     		ldr	r1, [sp, #4]
 259 00f0 FFF7FEFF 		bl	chPoolFree
 260              		.loc 4 120 0
 261 00f4 01E0     		b	.L7
 262              	.L8:
 263              		.loc 4 128 0
 264 00f6 FFF79BFF 		bl	chSysUnlock
 265              	.L7:
 266              		.loc 4 129 0
 267 00fa 05B0     		add	sp, sp, #20
 268              		@ sp needed
 269 00fc 5DF804FB 		ldr	pc, [sp], #4
 270              		.cfi_endproc
 271              	.LFE231:
 272              		.size	chThdRelease, .-chThdRelease
 273              		.align	2
 274              		.p2align 4,,15
 275              		.global	chThdCreateFromHeap
 276              		.thumb
 277              		.thumb_func
 278              		.type	chThdCreateFromHeap, %function
 279              	chThdCreateFromHeap:
 280              	.LFB232:
 281              		.loc 4 155 0
ARM GAS  /tmp/ccPm1Q7j.s 			page 6


 282              		.cfi_startproc
 283              		@ args = 4, pretend = 0, frame = 24
 284              		@ frame_needed = 0, uses_anonymous_args = 0
 285 0100 00B5     		push	{lr}
 286              		.cfi_def_cfa_offset 4
 287              		.cfi_offset 14, -4
 288 0102 89B0     		sub	sp, sp, #36
 289              		.cfi_def_cfa_offset 40
 290 0104 0590     		str	r0, [sp, #20]
 291 0106 0491     		str	r1, [sp, #16]
 292 0108 0392     		str	r2, [sp, #12]
 293 010a 0293     		str	r3, [sp, #8]
 294              		.loc 4 159 0
 295 010c 0598     		ldr	r0, [sp, #20]
 296 010e 0499     		ldr	r1, [sp, #16]
 297 0110 FFF7FEFF 		bl	chHeapAlloc
 298 0114 0790     		str	r0, [sp, #28]
 299              		.loc 4 160 0
 300 0116 079B     		ldr	r3, [sp, #28]
 301 0118 002B     		cmp	r3, #0
 302 011a 01D1     		bne	.L14
 303              		.loc 4 161 0
 304 011c 0023     		movs	r3, #0
 305 011e 14E0     		b	.L15
 306              	.L14:
 307              		.loc 4 173 0
 308 0120 FFF77EFF 		bl	chSysLock
 309              		.loc 4 174 0
 310 0124 0A9B     		ldr	r3, [sp, #40]
 311 0126 0093     		str	r3, [sp]
 312 0128 0798     		ldr	r0, [sp, #28]
 313 012a 0499     		ldr	r1, [sp, #16]
 314 012c 039A     		ldr	r2, [sp, #12]
 315 012e 029B     		ldr	r3, [sp, #8]
 316 0130 FFF7FEFF 		bl	chThdCreateI
 317 0134 0690     		str	r0, [sp, #24]
 318              		.loc 4 175 0
 319 0136 069B     		ldr	r3, [sp, #24]
 320 0138 0122     		movs	r2, #1
 321 013a 5A77     		strb	r2, [r3, #29]
 322              		.loc 4 176 0
 323 013c 0698     		ldr	r0, [sp, #24]
 324 013e 0021     		movs	r1, #0
 325 0140 FFF7FEFF 		bl	chSchWakeupS
 326              		.loc 4 177 0
 327 0144 FFF774FF 		bl	chSysUnlock
 328              		.loc 4 179 0
 329 0148 069B     		ldr	r3, [sp, #24]
 330              	.L15:
 331              		.loc 4 180 0
 332 014a 1846     		mov	r0, r3
 333 014c 09B0     		add	sp, sp, #36
 334              		@ sp needed
 335 014e 5DF804FB 		ldr	pc, [sp], #4
 336              		.cfi_endproc
 337              	.LFE232:
 338              		.size	chThdCreateFromHeap, .-chThdCreateFromHeap
ARM GAS  /tmp/ccPm1Q7j.s 			page 7


 339 0152 00BF     		.align	2
 340 0154 AFF30080 		.p2align 4,,15
 340      AFF30080 
 340      AFF30080 
 341              		.global	chThdCreateFromMemoryPool
 342              		.thumb
 343              		.thumb_func
 344              		.type	chThdCreateFromMemoryPool, %function
 345              	chThdCreateFromMemoryPool:
 346              	.LFB233:
 347              		.loc 4 207 0
 348              		.cfi_startproc
 349              		@ args = 0, pretend = 0, frame = 24
 350              		@ frame_needed = 0, uses_anonymous_args = 0
 351 0160 00B5     		push	{lr}
 352              		.cfi_def_cfa_offset 4
 353              		.cfi_offset 14, -4
 354 0162 89B0     		sub	sp, sp, #36
 355              		.cfi_def_cfa_offset 40
 356 0164 0590     		str	r0, [sp, #20]
 357 0166 0491     		str	r1, [sp, #16]
 358 0168 0392     		str	r2, [sp, #12]
 359 016a 0293     		str	r3, [sp, #8]
 360              		.loc 4 213 0
 361 016c 0598     		ldr	r0, [sp, #20]
 362 016e FFF7FEFF 		bl	chPoolAlloc
 363 0172 0790     		str	r0, [sp, #28]
 364              		.loc 4 214 0
 365 0174 079B     		ldr	r3, [sp, #28]
 366 0176 002B     		cmp	r3, #0
 367 0178 01D1     		bne	.L17
 368              		.loc 4 215 0
 369 017a 0023     		movs	r3, #0
 370 017c 19E0     		b	.L18
 371              	.L17:
 372              		.loc 4 227 0
 373 017e FFF74FFF 		bl	chSysLock
 374              		.loc 4 228 0
 375 0182 059B     		ldr	r3, [sp, #20]
 376 0184 5B68     		ldr	r3, [r3, #4]
 377 0186 029A     		ldr	r2, [sp, #8]
 378 0188 0092     		str	r2, [sp]
 379 018a 0798     		ldr	r0, [sp, #28]
 380 018c 1946     		mov	r1, r3
 381 018e 049A     		ldr	r2, [sp, #16]
 382 0190 039B     		ldr	r3, [sp, #12]
 383 0192 FFF7FEFF 		bl	chThdCreateI
 384 0196 0690     		str	r0, [sp, #24]
 385              		.loc 4 229 0
 386 0198 069B     		ldr	r3, [sp, #24]
 387 019a 0222     		movs	r2, #2
 388 019c 5A77     		strb	r2, [r3, #29]
 389              		.loc 4 230 0
 390 019e 069B     		ldr	r3, [sp, #24]
 391 01a0 059A     		ldr	r2, [sp, #20]
 392 01a2 1A64     		str	r2, [r3, #64]
 393              		.loc 4 231 0
ARM GAS  /tmp/ccPm1Q7j.s 			page 8


 394 01a4 0698     		ldr	r0, [sp, #24]
 395 01a6 0021     		movs	r1, #0
 396 01a8 FFF7FEFF 		bl	chSchWakeupS
 397              		.loc 4 232 0
 398 01ac FFF740FF 		bl	chSysUnlock
 399              		.loc 4 234 0
 400 01b0 069B     		ldr	r3, [sp, #24]
 401              	.L18:
 402              		.loc 4 235 0
 403 01b2 1846     		mov	r0, r3
 404 01b4 09B0     		add	sp, sp, #36
 405              		@ sp needed
 406 01b6 5DF804FB 		ldr	pc, [sp], #4
 407              		.cfi_endproc
 408              	.LFE233:
 409              		.size	chThdCreateFromMemoryPool, .-chThdCreateFromMemoryPool
 410              	.Letext0:
 411              		.file 5 "/nfs/nfs5/home/research/hardware/arm2/gcc-arm-embedded/gcc-arm-none-eabi-4_8-2014q2/lib/g
 412              		.file 6 "/nfs/nfs5/home/research/hardware/arm2/gcc-arm-embedded/gcc-arm-none-eabi-4_8-2014q2/arm-n
 413              		.file 7 "/nfs/nfs5/home/research/hardware/arm2/gcc-arm-embedded/gcc-arm-none-eabi-4_8-2014q2/arm-n
 414              		.file 8 "../../ChibiOS/os/rt/ports/ARMCMx/compilers/GCC/chtypes.h"
 415              		.file 9 "../../ChibiOS/os/rt/include/chsystypes.h"
 416              		.file 10 "../../ChibiOS/os/rt/include/chschd.h"
 417              		.file 11 "../../ChibiOS/os/rt/ports/ARMCMx/chcore.h"
 418              		.file 12 "../../ChibiOS/os/rt/include/chtm.h"
 419              		.file 13 "../../ChibiOS/os/rt/include/chsem.h"
 420              		.file 14 "../../ChibiOS/os/rt/include/chmtx.h"
 421              		.file 15 "../../ChibiOS/os/rt/include/chthreads.h"
 422              		.file 16 "../../ChibiOS/os/rt/include/chmemcore.h"
 423              		.file 17 "../../ChibiOS/os/rt/include/chheap.h"
 424              		.file 18 "../../ChibiOS/os/rt/include/chmempools.h"
 425              		.file 19 "../../ChibiOS/os/ext/CMSIS/include/core_cm4.h"