ARM GAS  /tmp/cc4a4OYN.s 			page 1


   1              		.syntax unified
   2              		.cpu cortex-m4
   3              		.fpu softvfp
   4              		.eabi_attribute 20, 1
   5              		.eabi_attribute 21, 1
   6              		.eabi_attribute 23, 3
   7              		.eabi_attribute 24, 1
   8              		.eabi_attribute 25, 1
   9              		.eabi_attribute 26, 1
  10              		.eabi_attribute 30, 6
  11              		.eabi_attribute 34, 1
  12              		.eabi_attribute 18, 4
  13              		.thumb
  14              		.file	"chevents.c"
  15              		.text
  16              	.Ltext0:
  17              		.cfi_sections	.debug_frame
  18              		.align	2
  19              		.p2align 4,,15
  20              		.thumb
  21              		.thumb_func
  22              		.type	port_lock, %function
  23              	port_lock:
  24              	.LFB127:
  25              		.file 1 "../../ChibiOS/os/rt/ports/ARMCMx/chcore_v7m.h"
  26              		.loc 1 456 0
  27              		.cfi_startproc
  28              		@ args = 0, pretend = 0, frame = 8
  29              		@ frame_needed = 0, uses_anonymous_args = 0
  30              		@ link register save eliminated.
  31 0000 82B0     		sub	sp, sp, #8
  32              		.cfi_def_cfa_offset 8
  33 0002 2023     		movs	r3, #32
  34 0004 0193     		str	r3, [sp, #4]
  35              	.LBB6:
  36              	.LBB7:
  37              		.file 2 "../../ChibiOS/os/ext/CMSIS/include/core_cmFunc.h"
  38              		.loc 2 548 0
  39 0006 019B     		ldr	r3, [sp, #4]
  40              	@ 548 "../../ChibiOS/os/ext/CMSIS/include/core_cmFunc.h" 1
  41 0008 83F31188 		MSR basepri, r3
  42              	@ 0 "" 2
  43              		.thumb
  44              	.LBE7:
  45              	.LBE6:
  46              		.loc 1 473 0
  47 000c 02B0     		add	sp, sp, #8
  48              		@ sp needed
  49 000e 7047     		bx	lr
  50              		.cfi_endproc
  51              	.LFE127:
  52              		.size	port_lock, .-port_lock
  53              		.align	2
  54              		.p2align 4,,15
  55              		.thumb
  56              		.thumb_func
  57              		.type	port_unlock, %function
ARM GAS  /tmp/cc4a4OYN.s 			page 2


  58              	port_unlock:
  59              	.LFB128:
  60              		.loc 1 480 0
  61              		.cfi_startproc
  62              		@ args = 0, pretend = 0, frame = 8
  63              		@ frame_needed = 0, uses_anonymous_args = 0
  64              		@ link register save eliminated.
  65 0010 82B0     		sub	sp, sp, #8
  66              		.cfi_def_cfa_offset 8
  67 0012 0023     		movs	r3, #0
  68 0014 0193     		str	r3, [sp, #4]
  69              	.LBB8:
  70              	.LBB9:
  71              		.loc 2 548 0
  72 0016 019B     		ldr	r3, [sp, #4]
  73              	@ 548 "../../ChibiOS/os/ext/CMSIS/include/core_cmFunc.h" 1
  74 0018 83F31188 		MSR basepri, r3
  75              	@ 0 "" 2
  76              		.thumb
  77              	.LBE9:
  78              	.LBE8:
  79              		.loc 1 487 0
  80 001c 02B0     		add	sp, sp, #8
  81              		@ sp needed
  82 001e 7047     		bx	lr
  83              		.cfi_endproc
  84              	.LFE128:
  85              		.size	port_unlock, .-port_unlock
  86              		.align	2
  87              		.p2align 4,,15
  88              		.thumb
  89              		.thumb_func
  90              		.type	chSysLock, %function
  91              	chSysLock:
  92              	.LFB156:
  93              		.file 3 "../../ChibiOS/os/rt/include/chsys.h"
  94              		.loc 3 346 0
  95              		.cfi_startproc
  96              		@ args = 0, pretend = 0, frame = 0
  97              		@ frame_needed = 0, uses_anonymous_args = 0
  98 0020 08B5     		push	{r3, lr}
  99              		.cfi_def_cfa_offset 8
 100              		.cfi_offset 3, -8
 101              		.cfi_offset 14, -4
 102              		.loc 3 348 0
 103 0022 FFF7EDFF 		bl	port_lock
 104              		.loc 3 351 0
 105 0026 08BD     		pop	{r3, pc}
 106              		.cfi_endproc
 107              	.LFE156:
 108              		.size	chSysLock, .-chSysLock
 109              		.align	2
 110 0028 AFF30080 		.p2align 4,,15
 110      AFF30080 
 111              		.thumb
 112              		.thumb_func
 113              		.type	chSysUnlock, %function
ARM GAS  /tmp/cc4a4OYN.s 			page 3


 114              	chSysUnlock:
 115              	.LFB157:
 116              		.loc 3 358 0
 117              		.cfi_startproc
 118              		@ args = 0, pretend = 0, frame = 0
 119              		@ frame_needed = 0, uses_anonymous_args = 0
 120 0030 08B5     		push	{r3, lr}
 121              		.cfi_def_cfa_offset 8
 122              		.cfi_offset 3, -8
 123              		.cfi_offset 14, -4
 124              		.loc 3 371 0
 125 0032 FFF7EDFF 		bl	port_unlock
 126              		.loc 3 372 0
 127 0036 08BD     		pop	{r3, pc}
 128              		.cfi_endproc
 129              	.LFE157:
 130              		.size	chSysUnlock, .-chSysUnlock
 131              		.align	2
 132 0038 AFF30080 		.p2align 4,,15
 132      AFF30080 
 133              		.global	chEvtRegisterMaskWithFlags
 134              		.thumb
 135              		.thumb_func
 136              		.type	chEvtRegisterMaskWithFlags, %function
 137              	chEvtRegisterMaskWithFlags:
 138              	.LFB230:
 139              		.file 4 "../../ChibiOS/os/rt/src/chevents.c"
 140              		.loc 4 106 0
 141              		.cfi_startproc
 142              		@ args = 0, pretend = 0, frame = 16
 143              		@ frame_needed = 0, uses_anonymous_args = 0
 144 0040 00B5     		push	{lr}
 145              		.cfi_def_cfa_offset 4
 146              		.cfi_offset 14, -4
 147 0042 85B0     		sub	sp, sp, #20
 148              		.cfi_def_cfa_offset 24
 149 0044 0390     		str	r0, [sp, #12]
 150 0046 0291     		str	r1, [sp, #8]
 151 0048 0192     		str	r2, [sp, #4]
 152 004a 0093     		str	r3, [sp]
 153              		.loc 4 110 0
 154 004c FFF7E8FF 		bl	chSysLock
 155              		.loc 4 111 0
 156 0050 039B     		ldr	r3, [sp, #12]
 157 0052 1A68     		ldr	r2, [r3]
 158 0054 029B     		ldr	r3, [sp, #8]
 159 0056 1A60     		str	r2, [r3]
 160              		.loc 4 112 0
 161 0058 039B     		ldr	r3, [sp, #12]
 162 005a 029A     		ldr	r2, [sp, #8]
 163 005c 1A60     		str	r2, [r3]
 164              		.loc 4 113 0
 165 005e 094B     		ldr	r3, .L6
 166 0060 9A69     		ldr	r2, [r3, #24]
 167 0062 029B     		ldr	r3, [sp, #8]
 168 0064 5A60     		str	r2, [r3, #4]
 169              		.loc 4 114 0
ARM GAS  /tmp/cc4a4OYN.s 			page 4


 170 0066 029B     		ldr	r3, [sp, #8]
 171 0068 019A     		ldr	r2, [sp, #4]
 172 006a 9A60     		str	r2, [r3, #8]
 173              		.loc 4 115 0
 174 006c 029B     		ldr	r3, [sp, #8]
 175 006e 0022     		movs	r2, #0
 176 0070 DA60     		str	r2, [r3, #12]
 177              		.loc 4 116 0
 178 0072 029B     		ldr	r3, [sp, #8]
 179 0074 009A     		ldr	r2, [sp]
 180 0076 1A61     		str	r2, [r3, #16]
 181              		.loc 4 117 0
 182 0078 FFF7DAFF 		bl	chSysUnlock
 183              		.loc 4 118 0
 184 007c 05B0     		add	sp, sp, #20
 185              		@ sp needed
 186 007e 5DF804FB 		ldr	pc, [sp], #4
 187              	.L7:
 188 0082 00BF     		.align	2
 189              	.L6:
 190 0084 00000000 		.word	ch
 191              		.cfi_endproc
 192              	.LFE230:
 193              		.size	chEvtRegisterMaskWithFlags, .-chEvtRegisterMaskWithFlags
 194              		.align	2
 195 0088 AFF30080 		.p2align 4,,15
 195      AFF30080 
 196              		.global	chEvtUnregister
 197              		.thumb
 198              		.thumb_func
 199              		.type	chEvtUnregister, %function
 200              	chEvtUnregister:
 201              	.LFB231:
 202              		.loc 4 133 0
 203              		.cfi_startproc
 204              		@ args = 0, pretend = 0, frame = 16
 205              		@ frame_needed = 0, uses_anonymous_args = 0
 206 0090 00B5     		push	{lr}
 207              		.cfi_def_cfa_offset 4
 208              		.cfi_offset 14, -4
 209 0092 85B0     		sub	sp, sp, #20
 210              		.cfi_def_cfa_offset 24
 211 0094 0190     		str	r0, [sp, #4]
 212 0096 0091     		str	r1, [sp]
 213              		.loc 4 139 0
 214 0098 019B     		ldr	r3, [sp, #4]
 215 009a 0393     		str	r3, [sp, #12]
 216              		.loc 4 141 0
 217 009c FFF7C0FF 		bl	chSysLock
 218              		.loc 4 143 0
 219 00a0 0CE0     		b	.L9
 220              	.L12:
 221              		.loc 4 145 0
 222 00a2 039B     		ldr	r3, [sp, #12]
 223 00a4 1A68     		ldr	r2, [r3]
 224 00a6 009B     		ldr	r3, [sp]
 225 00a8 9A42     		cmp	r2, r3
ARM GAS  /tmp/cc4a4OYN.s 			page 5


 226 00aa 04D1     		bne	.L10
 227              		.loc 4 146 0
 228 00ac 009B     		ldr	r3, [sp]
 229 00ae 1A68     		ldr	r2, [r3]
 230 00b0 039B     		ldr	r3, [sp, #12]
 231 00b2 1A60     		str	r2, [r3]
 232              		.loc 4 147 0
 233 00b4 07E0     		b	.L11
 234              	.L10:
 235              		.loc 4 149 0
 236 00b6 039B     		ldr	r3, [sp, #12]
 237 00b8 1B68     		ldr	r3, [r3]
 238 00ba 0393     		str	r3, [sp, #12]
 239              	.L9:
 240              		.loc 4 143 0 discriminator 1
 241 00bc 039B     		ldr	r3, [sp, #12]
 242 00be 1A68     		ldr	r2, [r3]
 243 00c0 019B     		ldr	r3, [sp, #4]
 244 00c2 9A42     		cmp	r2, r3
 245 00c4 EDD1     		bne	.L12
 246              	.L11:
 247              		.loc 4 151 0
 248 00c6 FFF7B3FF 		bl	chSysUnlock
 249              		.loc 4 152 0
 250 00ca 05B0     		add	sp, sp, #20
 251              		@ sp needed
 252 00cc 5DF804FB 		ldr	pc, [sp], #4
 253              		.cfi_endproc
 254              	.LFE231:
 255              		.size	chEvtUnregister, .-chEvtUnregister
 256              		.align	2
 257              		.p2align 4,,15
 258              		.global	chEvtGetAndClearEvents
 259              		.thumb
 260              		.thumb_func
 261              		.type	chEvtGetAndClearEvents, %function
 262              	chEvtGetAndClearEvents:
 263              	.LFB232:
 264              		.loc 4 162 0
 265              		.cfi_startproc
 266              		@ args = 0, pretend = 0, frame = 16
 267              		@ frame_needed = 0, uses_anonymous_args = 0
 268 00d0 00B5     		push	{lr}
 269              		.cfi_def_cfa_offset 4
 270              		.cfi_offset 14, -4
 271 00d2 85B0     		sub	sp, sp, #20
 272              		.cfi_def_cfa_offset 24
 273 00d4 0190     		str	r0, [sp, #4]
 274              		.loc 4 165 0
 275 00d6 FFF7A3FF 		bl	chSysLock
 276              		.loc 4 166 0
 277 00da 0B4B     		ldr	r3, .L15
 278 00dc 9B69     		ldr	r3, [r3, #24]
 279 00de 5A6B     		ldr	r2, [r3, #52]
 280 00e0 019B     		ldr	r3, [sp, #4]
 281 00e2 1340     		ands	r3, r3, r2
 282 00e4 0393     		str	r3, [sp, #12]
ARM GAS  /tmp/cc4a4OYN.s 			page 6


 283              		.loc 4 167 0
 284 00e6 084B     		ldr	r3, .L15
 285 00e8 9B69     		ldr	r3, [r3, #24]
 286 00ea 074A     		ldr	r2, .L15
 287 00ec 9269     		ldr	r2, [r2, #24]
 288 00ee 516B     		ldr	r1, [r2, #52]
 289 00f0 019A     		ldr	r2, [sp, #4]
 290 00f2 D243     		mvns	r2, r2
 291 00f4 0A40     		ands	r2, r2, r1
 292 00f6 5A63     		str	r2, [r3, #52]
 293              		.loc 4 168 0
 294 00f8 FFF79AFF 		bl	chSysUnlock
 295              		.loc 4 170 0
 296 00fc 039B     		ldr	r3, [sp, #12]
 297              		.loc 4 171 0
 298 00fe 1846     		mov	r0, r3
 299 0100 05B0     		add	sp, sp, #20
 300              		@ sp needed
 301 0102 5DF804FB 		ldr	pc, [sp], #4
 302              	.L16:
 303 0106 00BF     		.align	2
 304              	.L15:
 305 0108 00000000 		.word	ch
 306              		.cfi_endproc
 307              	.LFE232:
 308              		.size	chEvtGetAndClearEvents, .-chEvtGetAndClearEvents
 309              		.align	2
 310 010c AFF30080 		.p2align 4,,15
 311              		.global	chEvtAddEvents
 312              		.thumb
 313              		.thumb_func
 314              		.type	chEvtAddEvents, %function
 315              	chEvtAddEvents:
 316              	.LFB233:
 317              		.loc 4 182 0
 318              		.cfi_startproc
 319              		@ args = 0, pretend = 0, frame = 8
 320              		@ frame_needed = 0, uses_anonymous_args = 0
 321 0110 00B5     		push	{lr}
 322              		.cfi_def_cfa_offset 4
 323              		.cfi_offset 14, -4
 324 0112 83B0     		sub	sp, sp, #12
 325              		.cfi_def_cfa_offset 16
 326 0114 0190     		str	r0, [sp, #4]
 327              		.loc 4 184 0
 328 0116 FFF783FF 		bl	chSysLock
 329              		.loc 4 185 0
 330 011a 094B     		ldr	r3, .L19
 331 011c 9B69     		ldr	r3, [r3, #24]
 332 011e 084A     		ldr	r2, .L19
 333 0120 9269     		ldr	r2, [r2, #24]
 334 0122 516B     		ldr	r1, [r2, #52]
 335 0124 019A     		ldr	r2, [sp, #4]
 336 0126 0A43     		orrs	r2, r2, r1
 337 0128 5A63     		str	r2, [r3, #52]
 338              		.loc 4 186 0
 339 012a 054B     		ldr	r3, .L19
ARM GAS  /tmp/cc4a4OYN.s 			page 7


 340 012c 9B69     		ldr	r3, [r3, #24]
 341 012e 5B6B     		ldr	r3, [r3, #52]
 342 0130 0193     		str	r3, [sp, #4]
 343              		.loc 4 187 0
 344 0132 FFF77DFF 		bl	chSysUnlock
 345              		.loc 4 189 0
 346 0136 019B     		ldr	r3, [sp, #4]
 347              		.loc 4 190 0
 348 0138 1846     		mov	r0, r3
 349 013a 03B0     		add	sp, sp, #12
 350              		@ sp needed
 351 013c 5DF804FB 		ldr	pc, [sp], #4
 352              	.L20:
 353              		.align	2
 354              	.L19:
 355 0140 00000000 		.word	ch
 356              		.cfi_endproc
 357              	.LFE233:
 358              		.size	chEvtAddEvents, .-chEvtAddEvents
 359              		.align	2
 360 0144 AFF30080 		.p2align 4,,15
 360      AFF30080 
 360      AFF30080 
 361              		.global	chEvtBroadcastFlagsI
 362              		.thumb
 363              		.thumb_func
 364              		.type	chEvtBroadcastFlagsI, %function
 365              	chEvtBroadcastFlagsI:
 366              	.LFB234:
 367              		.loc 4 209 0
 368              		.cfi_startproc
 369              		@ args = 0, pretend = 0, frame = 16
 370              		@ frame_needed = 0, uses_anonymous_args = 0
 371 0150 00B5     		push	{lr}
 372              		.cfi_def_cfa_offset 4
 373              		.cfi_offset 14, -4
 374 0152 85B0     		sub	sp, sp, #20
 375              		.cfi_def_cfa_offset 24
 376 0154 0190     		str	r0, [sp, #4]
 377 0156 0091     		str	r1, [sp]
 378              		.loc 4 215 0
 379 0158 019B     		ldr	r3, [sp, #4]
 380 015a 1B68     		ldr	r3, [r3]
 381 015c 0393     		str	r3, [sp, #12]
 382              		.loc 4 217 0
 383 015e 1AE0     		b	.L22
 384              	.L25:
 385              		.loc 4 219 0
 386 0160 039B     		ldr	r3, [sp, #12]
 387 0162 DA68     		ldr	r2, [r3, #12]
 388 0164 009B     		ldr	r3, [sp]
 389 0166 1A43     		orrs	r2, r2, r3
 390 0168 039B     		ldr	r3, [sp, #12]
 391 016a DA60     		str	r2, [r3, #12]
 392              		.loc 4 222 0
 393 016c 009B     		ldr	r3, [sp]
 394 016e 002B     		cmp	r3, #0
ARM GAS  /tmp/cc4a4OYN.s 			page 8


 395 0170 06D0     		beq	.L23
 396              		.loc 4 223 0 discriminator 1
 397 0172 039B     		ldr	r3, [sp, #12]
 398 0174 DA68     		ldr	r2, [r3, #12]
 399 0176 039B     		ldr	r3, [sp, #12]
 400 0178 1B69     		ldr	r3, [r3, #16]
 401 017a 1340     		ands	r3, r3, r2
 402              		.loc 4 222 0 discriminator 1
 403 017c 002B     		cmp	r3, #0
 404 017e 07D0     		beq	.L24
 405              	.L23:
 406              		.loc 4 224 0
 407 0180 039B     		ldr	r3, [sp, #12]
 408 0182 5A68     		ldr	r2, [r3, #4]
 409 0184 039B     		ldr	r3, [sp, #12]
 410 0186 9B68     		ldr	r3, [r3, #8]
 411 0188 1046     		mov	r0, r2
 412 018a 1946     		mov	r1, r3
 413 018c FFF7FEFF 		bl	chEvtSignalI
 414              	.L24:
 415              		.loc 4 226 0
 416 0190 039B     		ldr	r3, [sp, #12]
 417 0192 1B68     		ldr	r3, [r3]
 418 0194 0393     		str	r3, [sp, #12]
 419              	.L22:
 420              		.loc 4 217 0 discriminator 1
 421 0196 039A     		ldr	r2, [sp, #12]
 422 0198 019B     		ldr	r3, [sp, #4]
 423 019a 9A42     		cmp	r2, r3
 424 019c E0D1     		bne	.L25
 425              		.loc 4 228 0
 426 019e 05B0     		add	sp, sp, #20
 427              		@ sp needed
 428 01a0 5DF804FB 		ldr	pc, [sp], #4
 429              		.cfi_endproc
 430              	.LFE234:
 431              		.size	chEvtBroadcastFlagsI, .-chEvtBroadcastFlagsI
 432              		.align	2
 433 01a4 AFF30080 		.p2align 4,,15
 433      AFF30080 
 433      AFF30080 
 434              		.global	chEvtGetAndClearFlags
 435              		.thumb
 436              		.thumb_func
 437              		.type	chEvtGetAndClearFlags, %function
 438              	chEvtGetAndClearFlags:
 439              	.LFB235:
 440              		.loc 4 241 0
 441              		.cfi_startproc
 442              		@ args = 0, pretend = 0, frame = 16
 443              		@ frame_needed = 0, uses_anonymous_args = 0
 444 01b0 00B5     		push	{lr}
 445              		.cfi_def_cfa_offset 4
 446              		.cfi_offset 14, -4
 447 01b2 85B0     		sub	sp, sp, #20
 448              		.cfi_def_cfa_offset 24
 449 01b4 0190     		str	r0, [sp, #4]
ARM GAS  /tmp/cc4a4OYN.s 			page 9


 450              		.loc 4 244 0
 451 01b6 FFF733FF 		bl	chSysLock
 452              		.loc 4 245 0
 453 01ba 019B     		ldr	r3, [sp, #4]
 454 01bc DB68     		ldr	r3, [r3, #12]
 455 01be 0393     		str	r3, [sp, #12]
 456              		.loc 4 246 0
 457 01c0 019B     		ldr	r3, [sp, #4]
 458 01c2 0022     		movs	r2, #0
 459 01c4 DA60     		str	r2, [r3, #12]
 460              		.loc 4 247 0
 461 01c6 FFF733FF 		bl	chSysUnlock
 462              		.loc 4 249 0
 463 01ca 039B     		ldr	r3, [sp, #12]
 464              		.loc 4 250 0
 465 01cc 1846     		mov	r0, r3
 466 01ce 05B0     		add	sp, sp, #20
 467              		@ sp needed
 468 01d0 5DF804FB 		ldr	pc, [sp], #4
 469              		.cfi_endproc
 470              	.LFE235:
 471              		.size	chEvtGetAndClearFlags, .-chEvtGetAndClearFlags
 472              		.align	2
 473 01d4 AFF30080 		.p2align 4,,15
 473      AFF30080 
 473      AFF30080 
 474              		.global	chEvtSignal
 475              		.thumb
 476              		.thumb_func
 477              		.type	chEvtSignal, %function
 478              	chEvtSignal:
 479              	.LFB236:
 480              		.loc 4 260 0
 481              		.cfi_startproc
 482              		@ args = 0, pretend = 0, frame = 8
 483              		@ frame_needed = 0, uses_anonymous_args = 0
 484 01e0 00B5     		push	{lr}
 485              		.cfi_def_cfa_offset 4
 486              		.cfi_offset 14, -4
 487 01e2 83B0     		sub	sp, sp, #12
 488              		.cfi_def_cfa_offset 16
 489 01e4 0190     		str	r0, [sp, #4]
 490 01e6 0091     		str	r1, [sp]
 491              		.loc 4 264 0
 492 01e8 FFF71AFF 		bl	chSysLock
 493              		.loc 4 265 0
 494 01ec 0198     		ldr	r0, [sp, #4]
 495 01ee 0099     		ldr	r1, [sp]
 496 01f0 FFF7FEFF 		bl	chEvtSignalI
 497              		.loc 4 266 0
 498 01f4 FFF7FEFF 		bl	chSchRescheduleS
 499              		.loc 4 267 0
 500 01f8 FFF71AFF 		bl	chSysUnlock
 501              		.loc 4 268 0
 502 01fc 03B0     		add	sp, sp, #12
 503              		@ sp needed
 504 01fe 5DF804FB 		ldr	pc, [sp], #4
ARM GAS  /tmp/cc4a4OYN.s 			page 10


 505              		.cfi_endproc
 506              	.LFE236:
 507              		.size	chEvtSignal, .-chEvtSignal
 508 0202 00BF     		.align	2
 509 0204 AFF30080 		.p2align 4,,15
 509      AFF30080 
 509      AFF30080 
 510              		.global	chEvtSignalI
 511              		.thumb
 512              		.thumb_func
 513              		.type	chEvtSignalI, %function
 514              	chEvtSignalI:
 515              	.LFB237:
 516              		.loc 4 282 0
 517              		.cfi_startproc
 518              		@ args = 0, pretend = 0, frame = 8
 519              		@ frame_needed = 0, uses_anonymous_args = 0
 520 0210 00B5     		push	{lr}
 521              		.cfi_def_cfa_offset 4
 522              		.cfi_offset 14, -4
 523 0212 83B0     		sub	sp, sp, #12
 524              		.cfi_def_cfa_offset 16
 525 0214 0190     		str	r0, [sp, #4]
 526 0216 0091     		str	r1, [sp]
 527              		.loc 4 287 0
 528 0218 019B     		ldr	r3, [sp, #4]
 529 021a 5A6B     		ldr	r2, [r3, #52]
 530 021c 009B     		ldr	r3, [sp]
 531 021e 1A43     		orrs	r2, r2, r3
 532 0220 019B     		ldr	r3, [sp, #4]
 533 0222 5A63     		str	r2, [r3, #52]
 534              		.loc 4 289 0
 535 0224 019B     		ldr	r3, [sp, #4]
 536 0226 1B7F     		ldrb	r3, [r3, #28]	@ zero_extendqisi2
 537 0228 0A2B     		cmp	r3, #10
 538 022a 06D1     		bne	.L30
 539              		.loc 4 290 0 discriminator 1
 540 022c 019B     		ldr	r3, [sp, #4]
 541 022e 5A6B     		ldr	r2, [r3, #52]
 542 0230 019B     		ldr	r3, [sp, #4]
 543 0232 1B6A     		ldr	r3, [r3, #32]
 544 0234 1340     		ands	r3, r3, r2
 545              		.loc 4 289 0 discriminator 1
 546 0236 002B     		cmp	r3, #0
 547 0238 0CD1     		bne	.L31
 548              	.L30:
 549              		.loc 4 291 0
 550 023a 019B     		ldr	r3, [sp, #4]
 551 023c 1B7F     		ldrb	r3, [r3, #28]	@ zero_extendqisi2
 552              		.loc 4 290 0
 553 023e 0B2B     		cmp	r3, #11
 554 0240 0ED1     		bne	.L29
 555              		.loc 4 292 0
 556 0242 019B     		ldr	r3, [sp, #4]
 557 0244 5A6B     		ldr	r2, [r3, #52]
 558 0246 019B     		ldr	r3, [sp, #4]
 559 0248 1B6A     		ldr	r3, [r3, #32]
ARM GAS  /tmp/cc4a4OYN.s 			page 11


 560 024a 1A40     		ands	r2, r2, r3
 561 024c 019B     		ldr	r3, [sp, #4]
 562 024e 1B6A     		ldr	r3, [r3, #32]
 563              		.loc 4 291 0
 564 0250 9A42     		cmp	r2, r3
 565 0252 05D1     		bne	.L29
 566              	.L31:
 567              		.loc 4 293 0
 568 0254 019B     		ldr	r3, [sp, #4]
 569 0256 0022     		movs	r2, #0
 570 0258 1A62     		str	r2, [r3, #32]
 571              		.loc 4 294 0
 572 025a 0198     		ldr	r0, [sp, #4]
 573 025c FFF7FEFF 		bl	chSchReadyI
 574              	.L29:
 575              		.loc 4 296 0
 576 0260 03B0     		add	sp, sp, #12
 577              		@ sp needed
 578 0262 5DF804FB 		ldr	pc, [sp], #4
 579              		.cfi_endproc
 580              	.LFE237:
 581              		.size	chEvtSignalI, .-chEvtSignalI
 582 0266 00BF     		.align	2
 583 0268 AFF30080 		.p2align 4,,15
 583      AFF30080 
 584              		.global	chEvtBroadcastFlags
 585              		.thumb
 586              		.thumb_func
 587              		.type	chEvtBroadcastFlags, %function
 588              	chEvtBroadcastFlags:
 589              	.LFB238:
 590              		.loc 4 311 0
 591              		.cfi_startproc
 592              		@ args = 0, pretend = 0, frame = 8
 593              		@ frame_needed = 0, uses_anonymous_args = 0
 594 0270 00B5     		push	{lr}
 595              		.cfi_def_cfa_offset 4
 596              		.cfi_offset 14, -4
 597 0272 83B0     		sub	sp, sp, #12
 598              		.cfi_def_cfa_offset 16
 599 0274 0190     		str	r0, [sp, #4]
 600 0276 0091     		str	r1, [sp]
 601              		.loc 4 313 0
 602 0278 FFF7D2FE 		bl	chSysLock
 603              		.loc 4 314 0
 604 027c 0198     		ldr	r0, [sp, #4]
 605 027e 0099     		ldr	r1, [sp]
 606 0280 FFF7FEFF 		bl	chEvtBroadcastFlagsI
 607              		.loc 4 315 0
 608 0284 FFF7FEFF 		bl	chSchRescheduleS
 609              		.loc 4 316 0
 610 0288 FFF7D2FE 		bl	chSysUnlock
 611              		.loc 4 317 0
 612 028c 03B0     		add	sp, sp, #12
 613              		@ sp needed
 614 028e 5DF804FB 		ldr	pc, [sp], #4
 615              		.cfi_endproc
ARM GAS  /tmp/cc4a4OYN.s 			page 12


 616              	.LFE238:
 617              		.size	chEvtBroadcastFlags, .-chEvtBroadcastFlags
 618 0292 00BF     		.align	2
 619 0294 AFF30080 		.p2align 4,,15
 619      AFF30080 
 619      AFF30080 
 620              		.global	chEvtGetAndClearFlagsI
 621              		.thumb
 622              		.thumb_func
 623              		.type	chEvtGetAndClearFlagsI, %function
 624              	chEvtGetAndClearFlagsI:
 625              	.LFB239:
 626              		.loc 4 330 0
 627              		.cfi_startproc
 628              		@ args = 0, pretend = 0, frame = 16
 629              		@ frame_needed = 0, uses_anonymous_args = 0
 630              		@ link register save eliminated.
 631 02a0 84B0     		sub	sp, sp, #16
 632              		.cfi_def_cfa_offset 16
 633 02a2 0190     		str	r0, [sp, #4]
 634              		.loc 4 333 0
 635 02a4 019B     		ldr	r3, [sp, #4]
 636 02a6 DB68     		ldr	r3, [r3, #12]
 637 02a8 0393     		str	r3, [sp, #12]
 638              		.loc 4 334 0
 639 02aa 019B     		ldr	r3, [sp, #4]
 640 02ac 0022     		movs	r2, #0
 641 02ae DA60     		str	r2, [r3, #12]
 642              		.loc 4 336 0
 643 02b0 039B     		ldr	r3, [sp, #12]
 644              		.loc 4 337 0
 645 02b2 1846     		mov	r0, r3
 646 02b4 04B0     		add	sp, sp, #16
 647              		@ sp needed
 648 02b6 7047     		bx	lr
 649              		.cfi_endproc
 650              	.LFE239:
 651              		.size	chEvtGetAndClearFlagsI, .-chEvtGetAndClearFlagsI
 652              		.align	2
 653 02b8 AFF30080 		.p2align 4,,15
 653      AFF30080 
 654              		.global	chEvtDispatch
 655              		.thumb
 656              		.thumb_func
 657              		.type	chEvtDispatch, %function
 658              	chEvtDispatch:
 659              	.LFB240:
 660              		.loc 4 348 0
 661              		.cfi_startproc
 662              		@ args = 0, pretend = 0, frame = 16
 663              		@ frame_needed = 0, uses_anonymous_args = 0
 664 02c0 00B5     		push	{lr}
 665              		.cfi_def_cfa_offset 4
 666              		.cfi_offset 14, -4
 667 02c2 85B0     		sub	sp, sp, #20
 668              		.cfi_def_cfa_offset 24
 669 02c4 0190     		str	r0, [sp, #4]
ARM GAS  /tmp/cc4a4OYN.s 			page 13


 670 02c6 0091     		str	r1, [sp]
 671              		.loc 4 353 0
 672 02c8 0023     		movs	r3, #0
 673 02ca 0393     		str	r3, [sp, #12]
 674              		.loc 4 354 0
 675 02cc 19E0     		b	.L37
 676              	.L39:
 677              		.loc 4 355 0
 678 02ce 009A     		ldr	r2, [sp]
 679 02d0 039B     		ldr	r3, [sp, #12]
 680 02d2 22FA03F3 		lsr	r3, r2, r3
 681 02d6 03F00103 		and	r3, r3, #1
 682 02da 002B     		cmp	r3, #0
 683 02dc 0ED0     		beq	.L38
 684              		.loc 4 357 0
 685 02de 0122     		movs	r2, #1
 686 02e0 039B     		ldr	r3, [sp, #12]
 687 02e2 02FA03F3 		lsl	r3, r2, r3
 688 02e6 DB43     		mvns	r3, r3
 689 02e8 009A     		ldr	r2, [sp]
 690 02ea 1340     		ands	r3, r3, r2
 691 02ec 0093     		str	r3, [sp]
 692              		.loc 4 358 0
 693 02ee 039B     		ldr	r3, [sp, #12]
 694 02f0 9B00     		lsls	r3, r3, #2
 695 02f2 019A     		ldr	r2, [sp, #4]
 696 02f4 1344     		add	r3, r3, r2
 697 02f6 1B68     		ldr	r3, [r3]
 698 02f8 0398     		ldr	r0, [sp, #12]
 699 02fa 9847     		blx	r3
 700              	.L38:
 701              		.loc 4 360 0
 702 02fc 039B     		ldr	r3, [sp, #12]
 703 02fe 0133     		adds	r3, r3, #1
 704 0300 0393     		str	r3, [sp, #12]
 705              	.L37:
 706              		.loc 4 354 0 discriminator 1
 707 0302 009B     		ldr	r3, [sp]
 708 0304 002B     		cmp	r3, #0
 709 0306 E2D1     		bne	.L39
 710              		.loc 4 362 0
 711 0308 05B0     		add	sp, sp, #20
 712              		@ sp needed
 713 030a 5DF804FB 		ldr	pc, [sp], #4
 714              		.cfi_endproc
 715              	.LFE240:
 716              		.size	chEvtDispatch, .-chEvtDispatch
 717 030e 00BF     		.align	2
 718              		.p2align 4,,15
 719              		.global	chEvtWaitOne
 720              		.thumb
 721              		.thumb_func
 722              		.type	chEvtWaitOne, %function
 723              	chEvtWaitOne:
 724              	.LFB241:
 725              		.loc 4 383 0
 726              		.cfi_startproc
ARM GAS  /tmp/cc4a4OYN.s 			page 14


 727              		@ args = 0, pretend = 0, frame = 16
 728              		@ frame_needed = 0, uses_anonymous_args = 0
 729 0310 00B5     		push	{lr}
 730              		.cfi_def_cfa_offset 4
 731              		.cfi_offset 14, -4
 732 0312 85B0     		sub	sp, sp, #20
 733              		.cfi_def_cfa_offset 24
 734 0314 0190     		str	r0, [sp, #4]
 735              		.loc 4 384 0
 736 0316 154B     		ldr	r3, .L43
 737 0318 9B69     		ldr	r3, [r3, #24]
 738 031a 0293     		str	r3, [sp, #8]
 739              		.loc 4 387 0
 740 031c FFF780FE 		bl	chSysLock
 741              		.loc 4 388 0
 742 0320 029B     		ldr	r3, [sp, #8]
 743 0322 5A6B     		ldr	r2, [r3, #52]
 744 0324 019B     		ldr	r3, [sp, #4]
 745 0326 1340     		ands	r3, r3, r2
 746 0328 0393     		str	r3, [sp, #12]
 747              		.loc 4 389 0
 748 032a 039B     		ldr	r3, [sp, #12]
 749 032c 002B     		cmp	r3, #0
 750 032e 0AD1     		bne	.L41
 751              		.loc 4 390 0
 752 0330 029B     		ldr	r3, [sp, #8]
 753 0332 019A     		ldr	r2, [sp, #4]
 754 0334 1A62     		str	r2, [r3, #32]
 755              		.loc 4 391 0
 756 0336 0A20     		movs	r0, #10
 757 0338 FFF7FEFF 		bl	chSchGoSleepS
 758              		.loc 4 392 0
 759 033c 029B     		ldr	r3, [sp, #8]
 760 033e 5A6B     		ldr	r2, [r3, #52]
 761 0340 019B     		ldr	r3, [sp, #4]
 762 0342 1340     		ands	r3, r3, r2
 763 0344 0393     		str	r3, [sp, #12]
 764              	.L41:
 765              		.loc 4 394 0
 766 0346 039B     		ldr	r3, [sp, #12]
 767 0348 5B42     		negs	r3, r3
 768 034a 039A     		ldr	r2, [sp, #12]
 769 034c 1340     		ands	r3, r3, r2
 770 034e 0393     		str	r3, [sp, #12]
 771              		.loc 4 395 0
 772 0350 029B     		ldr	r3, [sp, #8]
 773 0352 5A6B     		ldr	r2, [r3, #52]
 774 0354 039B     		ldr	r3, [sp, #12]
 775 0356 DB43     		mvns	r3, r3
 776 0358 1A40     		ands	r2, r2, r3
 777 035a 029B     		ldr	r3, [sp, #8]
 778 035c 5A63     		str	r2, [r3, #52]
 779              		.loc 4 396 0
 780 035e FFF767FE 		bl	chSysUnlock
 781              		.loc 4 398 0
 782 0362 039B     		ldr	r3, [sp, #12]
 783              		.loc 4 399 0
ARM GAS  /tmp/cc4a4OYN.s 			page 15


 784 0364 1846     		mov	r0, r3
 785 0366 05B0     		add	sp, sp, #20
 786              		@ sp needed
 787 0368 5DF804FB 		ldr	pc, [sp], #4
 788              	.L44:
 789              		.align	2
 790              	.L43:
 791 036c 00000000 		.word	ch
 792              		.cfi_endproc
 793              	.LFE241:
 794              		.size	chEvtWaitOne, .-chEvtWaitOne
 795              		.align	2
 796              		.p2align 4,,15
 797              		.global	chEvtWaitAny
 798              		.thumb
 799              		.thumb_func
 800              		.type	chEvtWaitAny, %function
 801              	chEvtWaitAny:
 802              	.LFB242:
 803              		.loc 4 413 0
 804              		.cfi_startproc
 805              		@ args = 0, pretend = 0, frame = 16
 806              		@ frame_needed = 0, uses_anonymous_args = 0
 807 0370 00B5     		push	{lr}
 808              		.cfi_def_cfa_offset 4
 809              		.cfi_offset 14, -4
 810 0372 85B0     		sub	sp, sp, #20
 811              		.cfi_def_cfa_offset 24
 812 0374 0190     		str	r0, [sp, #4]
 813              		.loc 4 414 0
 814 0376 134B     		ldr	r3, .L48
 815 0378 9B69     		ldr	r3, [r3, #24]
 816 037a 0293     		str	r3, [sp, #8]
 817              		.loc 4 417 0
 818 037c FFF750FE 		bl	chSysLock
 819              		.loc 4 418 0
 820 0380 029B     		ldr	r3, [sp, #8]
 821 0382 5A6B     		ldr	r2, [r3, #52]
 822 0384 019B     		ldr	r3, [sp, #4]
 823 0386 1340     		ands	r3, r3, r2
 824 0388 0393     		str	r3, [sp, #12]
 825              		.loc 4 419 0
 826 038a 039B     		ldr	r3, [sp, #12]
 827 038c 002B     		cmp	r3, #0
 828 038e 0AD1     		bne	.L46
 829              		.loc 4 420 0
 830 0390 029B     		ldr	r3, [sp, #8]
 831 0392 019A     		ldr	r2, [sp, #4]
 832 0394 1A62     		str	r2, [r3, #32]
 833              		.loc 4 421 0
 834 0396 0A20     		movs	r0, #10
 835 0398 FFF7FEFF 		bl	chSchGoSleepS
 836              		.loc 4 422 0
 837 039c 029B     		ldr	r3, [sp, #8]
 838 039e 5A6B     		ldr	r2, [r3, #52]
 839 03a0 019B     		ldr	r3, [sp, #4]
 840 03a2 1340     		ands	r3, r3, r2
ARM GAS  /tmp/cc4a4OYN.s 			page 16


 841 03a4 0393     		str	r3, [sp, #12]
 842              	.L46:
 843              		.loc 4 424 0
 844 03a6 029B     		ldr	r3, [sp, #8]
 845 03a8 5A6B     		ldr	r2, [r3, #52]
 846 03aa 039B     		ldr	r3, [sp, #12]
 847 03ac DB43     		mvns	r3, r3
 848 03ae 1A40     		ands	r2, r2, r3
 849 03b0 029B     		ldr	r3, [sp, #8]
 850 03b2 5A63     		str	r2, [r3, #52]
 851              		.loc 4 425 0
 852 03b4 FFF73CFE 		bl	chSysUnlock
 853              		.loc 4 427 0
 854 03b8 039B     		ldr	r3, [sp, #12]
 855              		.loc 4 428 0
 856 03ba 1846     		mov	r0, r3
 857 03bc 05B0     		add	sp, sp, #20
 858              		@ sp needed
 859 03be 5DF804FB 		ldr	pc, [sp], #4
 860              	.L49:
 861 03c2 00BF     		.align	2
 862              	.L48:
 863 03c4 00000000 		.word	ch
 864              		.cfi_endproc
 865              	.LFE242:
 866              		.size	chEvtWaitAny, .-chEvtWaitAny
 867              		.align	2
 868 03c8 AFF30080 		.p2align 4,,15
 868      AFF30080 
 869              		.global	chEvtWaitAll
 870              		.thumb
 871              		.thumb_func
 872              		.type	chEvtWaitAll, %function
 873              	chEvtWaitAll:
 874              	.LFB243:
 875              		.loc 4 441 0
 876              		.cfi_startproc
 877              		@ args = 0, pretend = 0, frame = 16
 878              		@ frame_needed = 0, uses_anonymous_args = 0
 879 03d0 00B5     		push	{lr}
 880              		.cfi_def_cfa_offset 4
 881              		.cfi_offset 14, -4
 882 03d2 85B0     		sub	sp, sp, #20
 883              		.cfi_def_cfa_offset 24
 884 03d4 0190     		str	r0, [sp, #4]
 885              		.loc 4 442 0
 886 03d6 104B     		ldr	r3, .L53
 887 03d8 9B69     		ldr	r3, [r3, #24]
 888 03da 0393     		str	r3, [sp, #12]
 889              		.loc 4 444 0
 890 03dc FFF720FE 		bl	chSysLock
 891              		.loc 4 445 0
 892 03e0 039B     		ldr	r3, [sp, #12]
 893 03e2 5A6B     		ldr	r2, [r3, #52]
 894 03e4 019B     		ldr	r3, [sp, #4]
 895 03e6 1A40     		ands	r2, r2, r3
 896 03e8 019B     		ldr	r3, [sp, #4]
ARM GAS  /tmp/cc4a4OYN.s 			page 17


 897 03ea 9A42     		cmp	r2, r3
 898 03ec 05D0     		beq	.L51
 899              		.loc 4 446 0
 900 03ee 039B     		ldr	r3, [sp, #12]
 901 03f0 019A     		ldr	r2, [sp, #4]
 902 03f2 1A62     		str	r2, [r3, #32]
 903              		.loc 4 447 0
 904 03f4 0B20     		movs	r0, #11
 905 03f6 FFF7FEFF 		bl	chSchGoSleepS
 906              	.L51:
 907              		.loc 4 449 0
 908 03fa 039B     		ldr	r3, [sp, #12]
 909 03fc 5A6B     		ldr	r2, [r3, #52]
 910 03fe 019B     		ldr	r3, [sp, #4]
 911 0400 DB43     		mvns	r3, r3
 912 0402 1A40     		ands	r2, r2, r3
 913 0404 039B     		ldr	r3, [sp, #12]
 914 0406 5A63     		str	r2, [r3, #52]
 915              		.loc 4 450 0
 916 0408 FFF712FE 		bl	chSysUnlock
 917              		.loc 4 452 0
 918 040c 019B     		ldr	r3, [sp, #4]
 919              		.loc 4 453 0
 920 040e 1846     		mov	r0, r3
 921 0410 05B0     		add	sp, sp, #20
 922              		@ sp needed
 923 0412 5DF804FB 		ldr	pc, [sp], #4
 924              	.L54:
 925 0416 00BF     		.align	2
 926              	.L53:
 927 0418 00000000 		.word	ch
 928              		.cfi_endproc
 929              	.LFE243:
 930              		.size	chEvtWaitAll, .-chEvtWaitAll
 931              		.align	2
 932 041c AFF30080 		.p2align 4,,15
 933              		.global	chEvtWaitOneTimeout
 934              		.thumb
 935              		.thumb_func
 936              		.type	chEvtWaitOneTimeout, %function
 937              	chEvtWaitOneTimeout:
 938              	.LFB244:
 939              		.loc 4 479 0
 940              		.cfi_startproc
 941              		@ args = 0, pretend = 0, frame = 16
 942              		@ frame_needed = 0, uses_anonymous_args = 0
 943 0420 00B5     		push	{lr}
 944              		.cfi_def_cfa_offset 4
 945              		.cfi_offset 14, -4
 946 0422 85B0     		sub	sp, sp, #20
 947              		.cfi_def_cfa_offset 24
 948 0424 0190     		str	r0, [sp, #4]
 949 0426 0091     		str	r1, [sp]
 950              		.loc 4 480 0
 951 0428 1C4B     		ldr	r3, .L60
 952 042a 9B69     		ldr	r3, [r3, #24]
 953 042c 0293     		str	r3, [sp, #8]
ARM GAS  /tmp/cc4a4OYN.s 			page 18


 954              		.loc 4 483 0
 955 042e FFF7F7FD 		bl	chSysLock
 956              		.loc 4 484 0
 957 0432 029B     		ldr	r3, [sp, #8]
 958 0434 5A6B     		ldr	r2, [r3, #52]
 959 0436 019B     		ldr	r3, [sp, #4]
 960 0438 1340     		ands	r3, r3, r2
 961 043a 0393     		str	r3, [sp, #12]
 962              		.loc 4 485 0
 963 043c 039B     		ldr	r3, [sp, #12]
 964 043e 002B     		cmp	r3, #0
 965 0440 19D1     		bne	.L56
 966              		.loc 4 486 0
 967 0442 009B     		ldr	r3, [sp]
 968 0444 002B     		cmp	r3, #0
 969 0446 03D1     		bne	.L57
 970              		.loc 4 487 0
 971 0448 FFF7F2FD 		bl	chSysUnlock
 972              		.loc 4 488 0
 973 044c 0023     		movs	r3, #0
 974 044e 21E0     		b	.L58
 975              	.L57:
 976              		.loc 4 490 0
 977 0450 029B     		ldr	r3, [sp, #8]
 978 0452 019A     		ldr	r2, [sp, #4]
 979 0454 1A62     		str	r2, [r3, #32]
 980              		.loc 4 491 0
 981 0456 0A20     		movs	r0, #10
 982 0458 0099     		ldr	r1, [sp]
 983 045a FFF7FEFF 		bl	chSchGoSleepTimeoutS
 984 045e 0346     		mov	r3, r0
 985 0460 002B     		cmp	r3, #0
 986 0462 03DA     		bge	.L59
 987              		.loc 4 492 0
 988 0464 FFF7E4FD 		bl	chSysUnlock
 989              		.loc 4 493 0
 990 0468 0023     		movs	r3, #0
 991 046a 13E0     		b	.L58
 992              	.L59:
 993              		.loc 4 495 0
 994 046c 029B     		ldr	r3, [sp, #8]
 995 046e 5A6B     		ldr	r2, [r3, #52]
 996 0470 019B     		ldr	r3, [sp, #4]
 997 0472 1340     		ands	r3, r3, r2
 998 0474 0393     		str	r3, [sp, #12]
 999              	.L56:
 1000              		.loc 4 497 0
 1001 0476 039B     		ldr	r3, [sp, #12]
 1002 0478 5B42     		negs	r3, r3
 1003 047a 039A     		ldr	r2, [sp, #12]
 1004 047c 1340     		ands	r3, r3, r2
 1005 047e 0393     		str	r3, [sp, #12]
 1006              		.loc 4 498 0
 1007 0480 029B     		ldr	r3, [sp, #8]
 1008 0482 5A6B     		ldr	r2, [r3, #52]
 1009 0484 039B     		ldr	r3, [sp, #12]
 1010 0486 DB43     		mvns	r3, r3
ARM GAS  /tmp/cc4a4OYN.s 			page 19


 1011 0488 1A40     		ands	r2, r2, r3
 1012 048a 029B     		ldr	r3, [sp, #8]
 1013 048c 5A63     		str	r2, [r3, #52]
 1014              		.loc 4 499 0
 1015 048e FFF7CFFD 		bl	chSysUnlock
 1016              		.loc 4 501 0
 1017 0492 039B     		ldr	r3, [sp, #12]
 1018              	.L58:
 1019              		.loc 4 502 0
 1020 0494 1846     		mov	r0, r3
 1021 0496 05B0     		add	sp, sp, #20
 1022              		@ sp needed
 1023 0498 5DF804FB 		ldr	pc, [sp], #4
 1024              	.L61:
 1025              		.align	2
 1026              	.L60:
 1027 049c 00000000 		.word	ch
 1028              		.cfi_endproc
 1029              	.LFE244:
 1030              		.size	chEvtWaitOneTimeout, .-chEvtWaitOneTimeout
 1031              		.align	2
 1032              		.p2align 4,,15
 1033              		.global	chEvtWaitAnyTimeout
 1034              		.thumb
 1035              		.thumb_func
 1036              		.type	chEvtWaitAnyTimeout, %function
 1037              	chEvtWaitAnyTimeout:
 1038              	.LFB245:
 1039              		.loc 4 522 0
 1040              		.cfi_startproc
 1041              		@ args = 0, pretend = 0, frame = 16
 1042              		@ frame_needed = 0, uses_anonymous_args = 0
 1043 04a0 00B5     		push	{lr}
 1044              		.cfi_def_cfa_offset 4
 1045              		.cfi_offset 14, -4
 1046 04a2 85B0     		sub	sp, sp, #20
 1047              		.cfi_def_cfa_offset 24
 1048 04a4 0190     		str	r0, [sp, #4]
 1049 04a6 0091     		str	r1, [sp]
 1050              		.loc 4 523 0
 1051 04a8 1A4B     		ldr	r3, .L67
 1052 04aa 9B69     		ldr	r3, [r3, #24]
 1053 04ac 0293     		str	r3, [sp, #8]
 1054              		.loc 4 526 0
 1055 04ae FFF7B7FD 		bl	chSysLock
 1056              		.loc 4 527 0
 1057 04b2 029B     		ldr	r3, [sp, #8]
 1058 04b4 5A6B     		ldr	r2, [r3, #52]
 1059 04b6 019B     		ldr	r3, [sp, #4]
 1060 04b8 1340     		ands	r3, r3, r2
 1061 04ba 0393     		str	r3, [sp, #12]
 1062              		.loc 4 528 0
 1063 04bc 039B     		ldr	r3, [sp, #12]
 1064 04be 002B     		cmp	r3, #0
 1065 04c0 19D1     		bne	.L63
 1066              		.loc 4 529 0
 1067 04c2 009B     		ldr	r3, [sp]
ARM GAS  /tmp/cc4a4OYN.s 			page 20


 1068 04c4 002B     		cmp	r3, #0
 1069 04c6 03D1     		bne	.L64
 1070              		.loc 4 530 0
 1071 04c8 FFF7B2FD 		bl	chSysUnlock
 1072              		.loc 4 531 0
 1073 04cc 0023     		movs	r3, #0
 1074 04ce 1CE0     		b	.L65
 1075              	.L64:
 1076              		.loc 4 533 0
 1077 04d0 029B     		ldr	r3, [sp, #8]
 1078 04d2 019A     		ldr	r2, [sp, #4]
 1079 04d4 1A62     		str	r2, [r3, #32]
 1080              		.loc 4 534 0
 1081 04d6 0A20     		movs	r0, #10
 1082 04d8 0099     		ldr	r1, [sp]
 1083 04da FFF7FEFF 		bl	chSchGoSleepTimeoutS
 1084 04de 0346     		mov	r3, r0
 1085 04e0 002B     		cmp	r3, #0
 1086 04e2 03DA     		bge	.L66
 1087              		.loc 4 535 0
 1088 04e4 FFF7A4FD 		bl	chSysUnlock
 1089              		.loc 4 536 0
 1090 04e8 0023     		movs	r3, #0
 1091 04ea 0EE0     		b	.L65
 1092              	.L66:
 1093              		.loc 4 538 0
 1094 04ec 029B     		ldr	r3, [sp, #8]
 1095 04ee 5A6B     		ldr	r2, [r3, #52]
 1096 04f0 019B     		ldr	r3, [sp, #4]
 1097 04f2 1340     		ands	r3, r3, r2
 1098 04f4 0393     		str	r3, [sp, #12]
 1099              	.L63:
 1100              		.loc 4 540 0
 1101 04f6 029B     		ldr	r3, [sp, #8]
 1102 04f8 5A6B     		ldr	r2, [r3, #52]
 1103 04fa 039B     		ldr	r3, [sp, #12]
 1104 04fc DB43     		mvns	r3, r3
 1105 04fe 1A40     		ands	r2, r2, r3
 1106 0500 029B     		ldr	r3, [sp, #8]
 1107 0502 5A63     		str	r2, [r3, #52]
 1108              		.loc 4 541 0
 1109 0504 FFF794FD 		bl	chSysUnlock
 1110              		.loc 4 543 0
 1111 0508 039B     		ldr	r3, [sp, #12]
 1112              	.L65:
 1113              		.loc 4 544 0
 1114 050a 1846     		mov	r0, r3
 1115 050c 05B0     		add	sp, sp, #20
 1116              		@ sp needed
 1117 050e 5DF804FB 		ldr	pc, [sp], #4
 1118              	.L68:
 1119 0512 00BF     		.align	2
 1120              	.L67:
 1121 0514 00000000 		.word	ch
 1122              		.cfi_endproc
 1123              	.LFE245:
 1124              		.size	chEvtWaitAnyTimeout, .-chEvtWaitAnyTimeout
ARM GAS  /tmp/cc4a4OYN.s 			page 21


 1125              		.align	2
 1126 0518 AFF30080 		.p2align 4,,15
 1126      AFF30080 
 1127              		.global	chEvtWaitAllTimeout
 1128              		.thumb
 1129              		.thumb_func
 1130              		.type	chEvtWaitAllTimeout, %function
 1131              	chEvtWaitAllTimeout:
 1132              	.LFB246:
 1133              		.loc 4 563 0
 1134              		.cfi_startproc
 1135              		@ args = 0, pretend = 0, frame = 16
 1136              		@ frame_needed = 0, uses_anonymous_args = 0
 1137 0520 00B5     		push	{lr}
 1138              		.cfi_def_cfa_offset 4
 1139              		.cfi_offset 14, -4
 1140 0522 85B0     		sub	sp, sp, #20
 1141              		.cfi_def_cfa_offset 24
 1142 0524 0190     		str	r0, [sp, #4]
 1143 0526 0091     		str	r1, [sp]
 1144              		.loc 4 564 0
 1145 0528 174B     		ldr	r3, .L73
 1146 052a 9B69     		ldr	r3, [r3, #24]
 1147 052c 0393     		str	r3, [sp, #12]
 1148              		.loc 4 566 0
 1149 052e FFF777FD 		bl	chSysLock
 1150              		.loc 4 567 0
 1151 0532 039B     		ldr	r3, [sp, #12]
 1152 0534 5A6B     		ldr	r2, [r3, #52]
 1153 0536 019B     		ldr	r3, [sp, #4]
 1154 0538 1A40     		ands	r2, r2, r3
 1155 053a 019B     		ldr	r3, [sp, #4]
 1156 053c 9A42     		cmp	r2, r3
 1157 053e 14D0     		beq	.L70
 1158              		.loc 4 568 0
 1159 0540 009B     		ldr	r3, [sp]
 1160 0542 002B     		cmp	r3, #0
 1161 0544 03D1     		bne	.L71
 1162              		.loc 4 569 0
 1163 0546 FFF773FD 		bl	chSysUnlock
 1164              		.loc 4 570 0
 1165 054a 0023     		movs	r3, #0
 1166 054c 17E0     		b	.L72
 1167              	.L71:
 1168              		.loc 4 572 0
 1169 054e 039B     		ldr	r3, [sp, #12]
 1170 0550 019A     		ldr	r2, [sp, #4]
 1171 0552 1A62     		str	r2, [r3, #32]
 1172              		.loc 4 573 0
 1173 0554 0B20     		movs	r0, #11
 1174 0556 0099     		ldr	r1, [sp]
 1175 0558 FFF7FEFF 		bl	chSchGoSleepTimeoutS
 1176 055c 0346     		mov	r3, r0
 1177 055e 002B     		cmp	r3, #0
 1178 0560 03DA     		bge	.L70
 1179              		.loc 4 574 0
 1180 0562 FFF765FD 		bl	chSysUnlock
ARM GAS  /tmp/cc4a4OYN.s 			page 22


 1181              		.loc 4 575 0
 1182 0566 0023     		movs	r3, #0
 1183 0568 09E0     		b	.L72
 1184              	.L70:
 1185              		.loc 4 578 0
 1186 056a 039B     		ldr	r3, [sp, #12]
 1187 056c 5A6B     		ldr	r2, [r3, #52]
 1188 056e 019B     		ldr	r3, [sp, #4]
 1189 0570 DB43     		mvns	r3, r3
 1190 0572 1A40     		ands	r2, r2, r3
 1191 0574 039B     		ldr	r3, [sp, #12]
 1192 0576 5A63     		str	r2, [r3, #52]
 1193              		.loc 4 579 0
 1194 0578 FFF75AFD 		bl	chSysUnlock
 1195              		.loc 4 581 0
 1196 057c 019B     		ldr	r3, [sp, #4]
 1197              	.L72:
 1198              		.loc 4 582 0
 1199 057e 1846     		mov	r0, r3
 1200 0580 05B0     		add	sp, sp, #20
 1201              		@ sp needed
 1202 0582 5DF804FB 		ldr	pc, [sp], #4
 1203              	.L74:
 1204 0586 00BF     		.align	2
 1205              	.L73:
 1206 0588 00000000 		.word	ch
 1207              		.cfi_endproc
 1208              	.LFE246:
 1209              		.size	chEvtWaitAllTimeout, .-chEvtWaitAllTimeout
 1210              	.Letext0:
 1211              		.file 5 "/nfs/nfs5/home/research/hardware/arm2/gcc-arm-embedded/gcc-arm-none-eabi-4_8-2014q2/arm-n
 1212              		.file 6 "/nfs/nfs5/home/research/hardware/arm2/gcc-arm-embedded/gcc-arm-none-eabi-4_8-2014q2/arm-n
 1213              		.file 7 "../../ChibiOS/os/rt/ports/ARMCMx/compilers/GCC/chtypes.h"
 1214              		.file 8 "../../ChibiOS/os/rt/include/chsystypes.h"
 1215              		.file 9 "../../ChibiOS/os/rt/include/chschd.h"
 1216              		.file 10 "../../ChibiOS/os/rt/ports/ARMCMx/chcore.h"
 1217              		.file 11 "../../ChibiOS/os/rt/include/chtm.h"
 1218              		.file 12 "../../ChibiOS/os/rt/include/chsem.h"
 1219              		.file 13 "../../ChibiOS/os/rt/include/chmtx.h"
 1220              		.file 14 "../../ChibiOS/os/rt/include/chevents.h"
 1221              		.file 15 "../../ChibiOS/os/ext/CMSIS/include/core_cm4.h"