ARM GAS  /tmp/ccay08Dh.s 			page 1


   1              		.syntax unified
   2              		.cpu cortex-m4
   3              		.fpu softvfp
   4              		.eabi_attribute 20, 1
   5              		.eabi_attribute 21, 1
   6              		.eabi_attribute 23, 3
   7              		.eabi_attribute 24, 1
   8              		.eabi_attribute 25, 1
   9              		.eabi_attribute 26, 1
  10              		.eabi_attribute 30, 6
  11              		.eabi_attribute 34, 1
  12              		.eabi_attribute 18, 4
  13              		.thumb
  14              		.file	"chmempools.c"
  15              		.text
  16              	.Ltext0:
  17              		.cfi_sections	.debug_frame
  18              		.align	2
  19              		.p2align 4,,15
  20              		.thumb
  21              		.thumb_func
  22              		.type	port_lock, %function
  23              	port_lock:
  24              	.LFB127:
  25              		.file 1 "../../ChibiOS/os/rt/ports/ARMCMx/chcore_v7m.h"
  26              		.loc 1 456 0
  27              		.cfi_startproc
  28              		@ args = 0, pretend = 0, frame = 8
  29              		@ frame_needed = 0, uses_anonymous_args = 0
  30              		@ link register save eliminated.
  31 0000 82B0     		sub	sp, sp, #8
  32              		.cfi_def_cfa_offset 8
  33 0002 2023     		movs	r3, #32
  34 0004 0193     		str	r3, [sp, #4]
  35              	.LBB6:
  36              	.LBB7:
  37              		.file 2 "../../ChibiOS/os/ext/CMSIS/include/core_cmFunc.h"
  38              		.loc 2 548 0
  39 0006 019B     		ldr	r3, [sp, #4]
  40              	@ 548 "../../ChibiOS/os/ext/CMSIS/include/core_cmFunc.h" 1
  41 0008 83F31188 		MSR basepri, r3
  42              	@ 0 "" 2
  43              		.thumb
  44              	.LBE7:
  45              	.LBE6:
  46              		.loc 1 473 0
  47 000c 02B0     		add	sp, sp, #8
  48              		@ sp needed
  49 000e 7047     		bx	lr
  50              		.cfi_endproc
  51              	.LFE127:
  52              		.size	port_lock, .-port_lock
  53              		.align	2
  54              		.p2align 4,,15
  55              		.thumb
  56              		.thumb_func
  57              		.type	port_unlock, %function
ARM GAS  /tmp/ccay08Dh.s 			page 2


  58              	port_unlock:
  59              	.LFB128:
  60              		.loc 1 480 0
  61              		.cfi_startproc
  62              		@ args = 0, pretend = 0, frame = 8
  63              		@ frame_needed = 0, uses_anonymous_args = 0
  64              		@ link register save eliminated.
  65 0010 82B0     		sub	sp, sp, #8
  66              		.cfi_def_cfa_offset 8
  67 0012 0023     		movs	r3, #0
  68 0014 0193     		str	r3, [sp, #4]
  69              	.LBB8:
  70              	.LBB9:
  71              		.loc 2 548 0
  72 0016 019B     		ldr	r3, [sp, #4]
  73              	@ 548 "../../ChibiOS/os/ext/CMSIS/include/core_cmFunc.h" 1
  74 0018 83F31188 		MSR basepri, r3
  75              	@ 0 "" 2
  76              		.thumb
  77              	.LBE9:
  78              	.LBE8:
  79              		.loc 1 487 0
  80 001c 02B0     		add	sp, sp, #8
  81              		@ sp needed
  82 001e 7047     		bx	lr
  83              		.cfi_endproc
  84              	.LFE128:
  85              		.size	port_unlock, .-port_unlock
  86              		.align	2
  87              		.p2align 4,,15
  88              		.thumb
  89              		.thumb_func
  90              		.type	chSysLock, %function
  91              	chSysLock:
  92              	.LFB156:
  93              		.file 3 "../../ChibiOS/os/rt/include/chsys.h"
  94              		.loc 3 346 0
  95              		.cfi_startproc
  96              		@ args = 0, pretend = 0, frame = 0
  97              		@ frame_needed = 0, uses_anonymous_args = 0
  98 0020 08B5     		push	{r3, lr}
  99              		.cfi_def_cfa_offset 8
 100              		.cfi_offset 3, -8
 101              		.cfi_offset 14, -4
 102              		.loc 3 348 0
 103 0022 FFF7EDFF 		bl	port_lock
 104              		.loc 3 351 0
 105 0026 08BD     		pop	{r3, pc}
 106              		.cfi_endproc
 107              	.LFE156:
 108              		.size	chSysLock, .-chSysLock
 109              		.align	2
 110 0028 AFF30080 		.p2align 4,,15
 110      AFF30080 
 111              		.thumb
 112              		.thumb_func
 113              		.type	chSysUnlock, %function
ARM GAS  /tmp/ccay08Dh.s 			page 3


 114              	chSysUnlock:
 115              	.LFB157:
 116              		.loc 3 358 0
 117              		.cfi_startproc
 118              		@ args = 0, pretend = 0, frame = 0
 119              		@ frame_needed = 0, uses_anonymous_args = 0
 120 0030 08B5     		push	{r3, lr}
 121              		.cfi_def_cfa_offset 8
 122              		.cfi_offset 3, -8
 123              		.cfi_offset 14, -4
 124              		.loc 3 371 0
 125 0032 FFF7EDFF 		bl	port_unlock
 126              		.loc 3 372 0
 127 0036 08BD     		pop	{r3, pc}
 128              		.cfi_endproc
 129              	.LFE157:
 130              		.size	chSysUnlock, .-chSysUnlock
 131              		.align	2
 132 0038 AFF30080 		.p2align 4,,15
 132      AFF30080 
 133              		.thumb
 134              		.thumb_func
 135              		.type	chPoolAdd, %function
 136              	chPoolAdd:
 137              	.LFB218:
 138              		.file 4 "../../ChibiOS/os/rt/include/chmempools.h"
 139              		.loc 4 137 0
 140              		.cfi_startproc
 141              		@ args = 0, pretend = 0, frame = 8
 142              		@ frame_needed = 0, uses_anonymous_args = 0
 143 0040 00B5     		push	{lr}
 144              		.cfi_def_cfa_offset 4
 145              		.cfi_offset 14, -4
 146 0042 83B0     		sub	sp, sp, #12
 147              		.cfi_def_cfa_offset 16
 148 0044 0190     		str	r0, [sp, #4]
 149 0046 0091     		str	r1, [sp]
 150              		.loc 4 139 0
 151 0048 0198     		ldr	r0, [sp, #4]
 152 004a 0099     		ldr	r1, [sp]
 153 004c FFF7FEFF 		bl	chPoolFree
 154              		.loc 4 140 0
 155 0050 03B0     		add	sp, sp, #12
 156              		@ sp needed
 157 0052 5DF804FB 		ldr	pc, [sp], #4
 158              		.cfi_endproc
 159              	.LFE218:
 160              		.size	chPoolAdd, .-chPoolAdd
 161 0056 00BF     		.align	2
 162 0058 AFF30080 		.p2align 4,,15
 162      AFF30080 
 163              		.global	chPoolObjectInit
 164              		.thumb
 165              		.thumb_func
 166              		.type	chPoolObjectInit, %function
 167              	chPoolObjectInit:
 168              	.LFB230:
ARM GAS  /tmp/ccay08Dh.s 			page 4


 169              		.file 5 "../../ChibiOS/os/rt/src/chmempools.c"
 170              		.loc 5 75 0
 171              		.cfi_startproc
 172              		@ args = 0, pretend = 0, frame = 16
 173              		@ frame_needed = 0, uses_anonymous_args = 0
 174              		@ link register save eliminated.
 175 0060 84B0     		sub	sp, sp, #16
 176              		.cfi_def_cfa_offset 16
 177 0062 0390     		str	r0, [sp, #12]
 178 0064 0291     		str	r1, [sp, #8]
 179 0066 0192     		str	r2, [sp, #4]
 180              		.loc 5 79 0
 181 0068 039B     		ldr	r3, [sp, #12]
 182 006a 0022     		movs	r2, #0
 183 006c 1A60     		str	r2, [r3]
 184              		.loc 5 80 0
 185 006e 039B     		ldr	r3, [sp, #12]
 186 0070 029A     		ldr	r2, [sp, #8]
 187 0072 5A60     		str	r2, [r3, #4]
 188              		.loc 5 81 0
 189 0074 039B     		ldr	r3, [sp, #12]
 190 0076 019A     		ldr	r2, [sp, #4]
 191 0078 9A60     		str	r2, [r3, #8]
 192              		.loc 5 82 0
 193 007a 04B0     		add	sp, sp, #16
 194              		@ sp needed
 195 007c 7047     		bx	lr
 196              		.cfi_endproc
 197              	.LFE230:
 198              		.size	chPoolObjectInit, .-chPoolObjectInit
 199 007e 00BF     		.align	2
 200              		.p2align 4,,15
 201              		.global	chPoolLoadArray
 202              		.thumb
 203              		.thumb_func
 204              		.type	chPoolLoadArray, %function
 205              	chPoolLoadArray:
 206              	.LFB231:
 207              		.loc 5 97 0
 208              		.cfi_startproc
 209              		@ args = 0, pretend = 0, frame = 16
 210              		@ frame_needed = 0, uses_anonymous_args = 0
 211 0080 00B5     		push	{lr}
 212              		.cfi_def_cfa_offset 4
 213              		.cfi_offset 14, -4
 214 0082 85B0     		sub	sp, sp, #20
 215              		.cfi_def_cfa_offset 24
 216 0084 0390     		str	r0, [sp, #12]
 217 0086 0291     		str	r1, [sp, #8]
 218 0088 0192     		str	r2, [sp, #4]
 219              		.loc 5 101 0
 220 008a 0BE0     		b	.L8
 221              	.L9:
 222              		.loc 5 102 0
 223 008c 0398     		ldr	r0, [sp, #12]
 224 008e 0299     		ldr	r1, [sp, #8]
 225 0090 FFF7D6FF 		bl	chPoolAdd
ARM GAS  /tmp/ccay08Dh.s 			page 5


 226              		.loc 5 104 0
 227 0094 039B     		ldr	r3, [sp, #12]
 228 0096 5B68     		ldr	r3, [r3, #4]
 229 0098 029A     		ldr	r2, [sp, #8]
 230 009a 1344     		add	r3, r3, r2
 231 009c 0293     		str	r3, [sp, #8]
 232              		.loc 5 106 0
 233 009e 019B     		ldr	r3, [sp, #4]
 234 00a0 013B     		subs	r3, r3, #1
 235 00a2 0193     		str	r3, [sp, #4]
 236              	.L8:
 237              		.loc 5 101 0 discriminator 1
 238 00a4 019B     		ldr	r3, [sp, #4]
 239 00a6 002B     		cmp	r3, #0
 240 00a8 F0D1     		bne	.L9
 241              		.loc 5 108 0
 242 00aa 05B0     		add	sp, sp, #20
 243              		@ sp needed
 244 00ac 5DF804FB 		ldr	pc, [sp], #4
 245              		.cfi_endproc
 246              	.LFE231:
 247              		.size	chPoolLoadArray, .-chPoolLoadArray
 248              		.align	2
 249              		.p2align 4,,15
 250              		.global	chPoolAllocI
 251              		.thumb
 252              		.thumb_func
 253              		.type	chPoolAllocI, %function
 254              	chPoolAllocI:
 255              	.LFB232:
 256              		.loc 5 120 0
 257              		.cfi_startproc
 258              		@ args = 0, pretend = 0, frame = 16
 259              		@ frame_needed = 0, uses_anonymous_args = 0
 260 00b0 00B5     		push	{lr}
 261              		.cfi_def_cfa_offset 4
 262              		.cfi_offset 14, -4
 263 00b2 85B0     		sub	sp, sp, #20
 264              		.cfi_def_cfa_offset 24
 265 00b4 0190     		str	r0, [sp, #4]
 266              		.loc 5 126 0
 267 00b6 019B     		ldr	r3, [sp, #4]
 268 00b8 1B68     		ldr	r3, [r3]
 269 00ba 0393     		str	r3, [sp, #12]
 270              		.loc 5 128 0
 271 00bc 039B     		ldr	r3, [sp, #12]
 272 00be 002B     		cmp	r3, #0
 273 00c0 05D0     		beq	.L11
 274              		.loc 5 129 0
 275 00c2 019B     		ldr	r3, [sp, #4]
 276 00c4 1B68     		ldr	r3, [r3]
 277 00c6 1A68     		ldr	r2, [r3]
 278 00c8 019B     		ldr	r3, [sp, #4]
 279 00ca 1A60     		str	r2, [r3]
 280 00cc 0AE0     		b	.L12
 281              	.L11:
 282              		.loc 5 131 0
ARM GAS  /tmp/ccay08Dh.s 			page 6


 283 00ce 019B     		ldr	r3, [sp, #4]
 284 00d0 9B68     		ldr	r3, [r3, #8]
 285 00d2 002B     		cmp	r3, #0
 286 00d4 06D0     		beq	.L12
 287              		.loc 5 132 0
 288 00d6 019B     		ldr	r3, [sp, #4]
 289 00d8 9B68     		ldr	r3, [r3, #8]
 290 00da 019A     		ldr	r2, [sp, #4]
 291 00dc 5268     		ldr	r2, [r2, #4]
 292 00de 1046     		mov	r0, r2
 293 00e0 9847     		blx	r3
 294 00e2 0390     		str	r0, [sp, #12]
 295              	.L12:
 296              		.loc 5 136 0
 297 00e4 039B     		ldr	r3, [sp, #12]
 298              		.loc 5 137 0
 299 00e6 1846     		mov	r0, r3
 300 00e8 05B0     		add	sp, sp, #20
 301              		@ sp needed
 302 00ea 5DF804FB 		ldr	pc, [sp], #4
 303              		.cfi_endproc
 304              	.LFE232:
 305              		.size	chPoolAllocI, .-chPoolAllocI
 306 00ee 00BF     		.align	2
 307              		.p2align 4,,15
 308              		.global	chPoolAlloc
 309              		.thumb
 310              		.thumb_func
 311              		.type	chPoolAlloc, %function
 312              	chPoolAlloc:
 313              	.LFB233:
 314              		.loc 5 149 0
 315              		.cfi_startproc
 316              		@ args = 0, pretend = 0, frame = 16
 317              		@ frame_needed = 0, uses_anonymous_args = 0
 318 00f0 00B5     		push	{lr}
 319              		.cfi_def_cfa_offset 4
 320              		.cfi_offset 14, -4
 321 00f2 85B0     		sub	sp, sp, #20
 322              		.cfi_def_cfa_offset 24
 323 00f4 0190     		str	r0, [sp, #4]
 324              		.loc 5 152 0
 325 00f6 FFF793FF 		bl	chSysLock
 326              		.loc 5 153 0
 327 00fa 0198     		ldr	r0, [sp, #4]
 328 00fc FFF7FEFF 		bl	chPoolAllocI
 329 0100 0390     		str	r0, [sp, #12]
 330              		.loc 5 154 0
 331 0102 FFF795FF 		bl	chSysUnlock
 332              		.loc 5 156 0
 333 0106 039B     		ldr	r3, [sp, #12]
 334              		.loc 5 157 0
 335 0108 1846     		mov	r0, r3
 336 010a 05B0     		add	sp, sp, #20
 337              		@ sp needed
 338 010c 5DF804FB 		ldr	pc, [sp], #4
 339              		.cfi_endproc
ARM GAS  /tmp/ccay08Dh.s 			page 7


 340              	.LFE233:
 341              		.size	chPoolAlloc, .-chPoolAlloc
 342              		.align	2
 343              		.p2align 4,,15
 344              		.global	chPoolFreeI
 345              		.thumb
 346              		.thumb_func
 347              		.type	chPoolFreeI, %function
 348              	chPoolFreeI:
 349              	.LFB234:
 350              		.loc 5 171 0
 351              		.cfi_startproc
 352              		@ args = 0, pretend = 0, frame = 16
 353              		@ frame_needed = 0, uses_anonymous_args = 0
 354              		@ link register save eliminated.
 355 0110 84B0     		sub	sp, sp, #16
 356              		.cfi_def_cfa_offset 16
 357 0112 0190     		str	r0, [sp, #4]
 358 0114 0091     		str	r1, [sp]
 359              		.loc 5 172 0
 360 0116 009B     		ldr	r3, [sp]
 361 0118 0393     		str	r3, [sp, #12]
 362              		.loc 5 177 0
 363 011a 019B     		ldr	r3, [sp, #4]
 364 011c 1A68     		ldr	r2, [r3]
 365 011e 039B     		ldr	r3, [sp, #12]
 366 0120 1A60     		str	r2, [r3]
 367              		.loc 5 178 0
 368 0122 019B     		ldr	r3, [sp, #4]
 369 0124 039A     		ldr	r2, [sp, #12]
 370 0126 1A60     		str	r2, [r3]
 371              		.loc 5 179 0
 372 0128 04B0     		add	sp, sp, #16
 373              		@ sp needed
 374 012a 7047     		bx	lr
 375              		.cfi_endproc
 376              	.LFE234:
 377              		.size	chPoolFreeI, .-chPoolFreeI
 378              		.align	2
 379 012c AFF30080 		.p2align 4,,15
 380              		.global	chPoolFree
 381              		.thumb
 382              		.thumb_func
 383              		.type	chPoolFree, %function
 384              	chPoolFree:
 385              	.LFB235:
 386              		.loc 5 193 0
 387              		.cfi_startproc
 388              		@ args = 0, pretend = 0, frame = 8
 389              		@ frame_needed = 0, uses_anonymous_args = 0
 390 0130 00B5     		push	{lr}
 391              		.cfi_def_cfa_offset 4
 392              		.cfi_offset 14, -4
 393 0132 83B0     		sub	sp, sp, #12
 394              		.cfi_def_cfa_offset 16
 395 0134 0190     		str	r0, [sp, #4]
 396 0136 0091     		str	r1, [sp]
ARM GAS  /tmp/ccay08Dh.s 			page 8


 397              		.loc 5 195 0
 398 0138 FFF772FF 		bl	chSysLock
 399              		.loc 5 196 0
 400 013c 0198     		ldr	r0, [sp, #4]
 401 013e 0099     		ldr	r1, [sp]
 402 0140 FFF7FEFF 		bl	chPoolFreeI
 403              		.loc 5 197 0
 404 0144 FFF774FF 		bl	chSysUnlock
 405              		.loc 5 198 0
 406 0148 03B0     		add	sp, sp, #12
 407              		@ sp needed
 408 014a 5DF804FB 		ldr	pc, [sp], #4
 409              		.cfi_endproc
 410              	.LFE235:
 411              		.size	chPoolFree, .-chPoolFree
 412              	.Letext0:
 413              		.file 6 "/nfs/nfs5/home/research/hardware/arm2/gcc-arm-embedded/gcc-arm-none-eabi-4_8-2014q2/lib/g
 414              		.file 7 "/nfs/nfs5/home/research/hardware/arm2/gcc-arm-embedded/gcc-arm-none-eabi-4_8-2014q2/arm-n
 415              		.file 8 "/nfs/nfs5/home/research/hardware/arm2/gcc-arm-embedded/gcc-arm-none-eabi-4_8-2014q2/arm-n
 416              		.file 9 "../../ChibiOS/os/rt/ports/ARMCMx/compilers/GCC/chtypes.h"
 417              		.file 10 "../../ChibiOS/os/rt/include/chsystypes.h"
 418              		.file 11 "../../ChibiOS/os/rt/include/chschd.h"
 419              		.file 12 "../../ChibiOS/os/rt/ports/ARMCMx/chcore.h"
 420              		.file 13 "../../ChibiOS/os/rt/include/chtm.h"
 421              		.file 14 "../../ChibiOS/os/rt/include/chsem.h"
 422              		.file 15 "../../ChibiOS/os/rt/include/chmtx.h"
 423              		.file 16 "../../ChibiOS/os/rt/include/chmemcore.h"
 424              		.file 17 "../../ChibiOS/os/ext/CMSIS/include/core_cm4.h"