ARM GAS  /tmp/ccYXMJUB.s 			page 1


   1              		.syntax unified
   2              		.cpu cortex-m4
   3              		.fpu softvfp
   4              		.eabi_attribute 20, 1
   5              		.eabi_attribute 21, 1
   6              		.eabi_attribute 23, 3
   7              		.eabi_attribute 24, 1
   8              		.eabi_attribute 25, 1
   9              		.eabi_attribute 26, 1
  10              		.eabi_attribute 30, 6
  11              		.eabi_attribute 34, 1
  12              		.eabi_attribute 18, 4
  13              		.thumb
  14              		.file	"chmtx.c"
  15              		.text
  16              	.Ltext0:
  17              		.cfi_sections	.debug_frame
  18              		.align	2
  19              		.p2align 4,,15
  20              		.thumb
  21              		.thumb_func
  22              		.type	port_lock, %function
  23              	port_lock:
  24              	.LFB127:
  25              		.file 1 "../../ChibiOS/os/rt/ports/ARMCMx/chcore_v7m.h"
  26              		.loc 1 456 0
  27              		.cfi_startproc
  28              		@ args = 0, pretend = 0, frame = 8
  29              		@ frame_needed = 0, uses_anonymous_args = 0
  30              		@ link register save eliminated.
  31 0000 82B0     		sub	sp, sp, #8
  32              		.cfi_def_cfa_offset 8
  33 0002 2023     		movs	r3, #32
  34 0004 0193     		str	r3, [sp, #4]
  35              	.LBB6:
  36              	.LBB7:
  37              		.file 2 "../../ChibiOS/os/ext/CMSIS/include/core_cmFunc.h"
  38              		.loc 2 548 0
  39 0006 019B     		ldr	r3, [sp, #4]
  40              	@ 548 "../../ChibiOS/os/ext/CMSIS/include/core_cmFunc.h" 1
  41 0008 83F31188 		MSR basepri, r3
  42              	@ 0 "" 2
  43              		.thumb
  44              	.LBE7:
  45              	.LBE6:
  46              		.loc 1 473 0
  47 000c 02B0     		add	sp, sp, #8
  48              		@ sp needed
  49 000e 7047     		bx	lr
  50              		.cfi_endproc
  51              	.LFE127:
  52              		.size	port_lock, .-port_lock
  53              		.align	2
  54              		.p2align 4,,15
  55              		.thumb
  56              		.thumb_func
  57              		.type	port_unlock, %function
ARM GAS  /tmp/ccYXMJUB.s 			page 2


  58              	port_unlock:
  59              	.LFB128:
  60              		.loc 1 480 0
  61              		.cfi_startproc
  62              		@ args = 0, pretend = 0, frame = 8
  63              		@ frame_needed = 0, uses_anonymous_args = 0
  64              		@ link register save eliminated.
  65 0010 82B0     		sub	sp, sp, #8
  66              		.cfi_def_cfa_offset 8
  67 0012 0023     		movs	r3, #0
  68 0014 0193     		str	r3, [sp, #4]
  69              	.LBB8:
  70              	.LBB9:
  71              		.loc 2 548 0
  72 0016 019B     		ldr	r3, [sp, #4]
  73              	@ 548 "../../ChibiOS/os/ext/CMSIS/include/core_cmFunc.h" 1
  74 0018 83F31188 		MSR basepri, r3
  75              	@ 0 "" 2
  76              		.thumb
  77              	.LBE9:
  78              	.LBE8:
  79              		.loc 1 487 0
  80 001c 02B0     		add	sp, sp, #8
  81              		@ sp needed
  82 001e 7047     		bx	lr
  83              		.cfi_endproc
  84              	.LFE128:
  85              		.size	port_unlock, .-port_unlock
  86              		.align	2
  87              		.p2align 4,,15
  88              		.thumb
  89              		.thumb_func
  90              		.type	queue_init, %function
  91              	queue_init:
  92              	.LFB139:
  93              		.file 3 "../../ChibiOS/os/rt/include/chschd.h"
  94              		.loc 3 602 0
  95              		.cfi_startproc
  96              		@ args = 0, pretend = 0, frame = 8
  97              		@ frame_needed = 0, uses_anonymous_args = 0
  98              		@ link register save eliminated.
  99 0020 82B0     		sub	sp, sp, #8
 100              		.cfi_def_cfa_offset 8
 101 0022 0190     		str	r0, [sp, #4]
 102              		.loc 3 604 0
 103 0024 019B     		ldr	r3, [sp, #4]
 104 0026 019A     		ldr	r2, [sp, #4]
 105 0028 1A60     		str	r2, [r3]
 106              		.loc 3 605 0
 107 002a 019B     		ldr	r3, [sp, #4]
 108 002c 019A     		ldr	r2, [sp, #4]
 109 002e 5A60     		str	r2, [r3, #4]
 110              		.loc 3 606 0
 111 0030 02B0     		add	sp, sp, #8
 112              		@ sp needed
 113 0032 7047     		bx	lr
 114              		.cfi_endproc
ARM GAS  /tmp/ccYXMJUB.s 			page 3


 115              	.LFE139:
 116              		.size	queue_init, .-queue_init
 117              		.align	2
 118 0034 AFF30080 		.p2align 4,,15
 118      AFF30080 
 118      AFF30080 
 119              		.thumb
 120              		.thumb_func
 121              		.type	queue_notempty, %function
 122              	queue_notempty:
 123              	.LFB141:
 124              		.loc 3 629 0
 125              		.cfi_startproc
 126              		@ args = 0, pretend = 0, frame = 8
 127              		@ frame_needed = 0, uses_anonymous_args = 0
 128              		@ link register save eliminated.
 129 0040 82B0     		sub	sp, sp, #8
 130              		.cfi_def_cfa_offset 8
 131 0042 0190     		str	r0, [sp, #4]
 132              		.loc 3 631 0
 133 0044 019B     		ldr	r3, [sp, #4]
 134 0046 1A68     		ldr	r2, [r3]
 135 0048 019B     		ldr	r3, [sp, #4]
 136 004a 9A42     		cmp	r2, r3
 137 004c 0CBF     		ite	eq
 138 004e 0023     		moveq	r3, #0
 139 0050 0123     		movne	r3, #1
 140 0052 DBB2     		uxtb	r3, r3
 141              		.loc 3 632 0
 142 0054 1846     		mov	r0, r3
 143 0056 02B0     		add	sp, sp, #8
 144              		@ sp needed
 145 0058 7047     		bx	lr
 146              		.cfi_endproc
 147              	.LFE141:
 148              		.size	queue_notempty, .-queue_notempty
 149 005a 00BF     		.align	2
 150 005c AFF30080 		.p2align 4,,15
 151              		.thumb
 152              		.thumb_func
 153              		.type	queue_prio_insert, %function
 154              	queue_prio_insert:
 155              	.LFB144:
 156              		.loc 3 651 0
 157              		.cfi_startproc
 158              		@ args = 0, pretend = 0, frame = 16
 159              		@ frame_needed = 0, uses_anonymous_args = 0
 160              		@ link register save eliminated.
 161 0060 84B0     		sub	sp, sp, #16
 162              		.cfi_def_cfa_offset 16
 163 0062 0190     		str	r0, [sp, #4]
 164 0064 0091     		str	r1, [sp]
 165              		.loc 3 653 0
 166 0066 009B     		ldr	r3, [sp]
 167 0068 0393     		str	r3, [sp, #12]
 168              	.L8:
 169              		.loc 3 655 0 discriminator 1
ARM GAS  /tmp/ccYXMJUB.s 			page 4


 170 006a 039B     		ldr	r3, [sp, #12]
 171 006c 1B68     		ldr	r3, [r3]
 172 006e 0393     		str	r3, [sp, #12]
 173              		.loc 3 656 0 discriminator 1
 174 0070 039A     		ldr	r2, [sp, #12]
 175 0072 009B     		ldr	r3, [sp]
 176 0074 9A42     		cmp	r2, r3
 177 0076 05D0     		beq	.L7
 178 0078 039B     		ldr	r3, [sp, #12]
 179 007a 9A68     		ldr	r2, [r3, #8]
 180 007c 019B     		ldr	r3, [sp, #4]
 181 007e 9B68     		ldr	r3, [r3, #8]
 182 0080 9A42     		cmp	r2, r3
 183 0082 F2D2     		bcs	.L8
 184              	.L7:
 185              		.loc 3 657 0
 186 0084 019B     		ldr	r3, [sp, #4]
 187 0086 039A     		ldr	r2, [sp, #12]
 188 0088 1A60     		str	r2, [r3]
 189              		.loc 3 658 0
 190 008a 039B     		ldr	r3, [sp, #12]
 191 008c 5A68     		ldr	r2, [r3, #4]
 192 008e 019B     		ldr	r3, [sp, #4]
 193 0090 5A60     		str	r2, [r3, #4]
 194              		.loc 3 659 0
 195 0092 019B     		ldr	r3, [sp, #4]
 196 0094 5B68     		ldr	r3, [r3, #4]
 197 0096 019A     		ldr	r2, [sp, #4]
 198 0098 1A60     		str	r2, [r3]
 199              		.loc 3 660 0
 200 009a 039B     		ldr	r3, [sp, #12]
 201 009c 019A     		ldr	r2, [sp, #4]
 202 009e 5A60     		str	r2, [r3, #4]
 203              		.loc 3 661 0
 204 00a0 04B0     		add	sp, sp, #16
 205              		@ sp needed
 206 00a2 7047     		bx	lr
 207              		.cfi_endproc
 208              	.LFE144:
 209              		.size	queue_prio_insert, .-queue_prio_insert
 210              		.align	2
 211 00a4 AFF30080 		.p2align 4,,15
 211      AFF30080 
 211      AFF30080 
 212              		.thumb
 213              		.thumb_func
 214              		.type	queue_fifo_remove, %function
 215              	queue_fifo_remove:
 216              	.LFB146:
 217              		.loc 3 671 0
 218              		.cfi_startproc
 219              		@ args = 0, pretend = 0, frame = 16
 220              		@ frame_needed = 0, uses_anonymous_args = 0
 221              		@ link register save eliminated.
 222 00b0 84B0     		sub	sp, sp, #16
 223              		.cfi_def_cfa_offset 16
 224 00b2 0190     		str	r0, [sp, #4]
ARM GAS  /tmp/ccYXMJUB.s 			page 5


 225              		.loc 3 672 0
 226 00b4 019B     		ldr	r3, [sp, #4]
 227 00b6 1B68     		ldr	r3, [r3]
 228 00b8 0393     		str	r3, [sp, #12]
 229              		.loc 3 674 0
 230 00ba 039B     		ldr	r3, [sp, #12]
 231 00bc 1A68     		ldr	r2, [r3]
 232 00be 019B     		ldr	r3, [sp, #4]
 233 00c0 1A60     		str	r2, [r3]
 234              		.loc 3 675 0
 235 00c2 019B     		ldr	r3, [sp, #4]
 236 00c4 1B68     		ldr	r3, [r3]
 237 00c6 019A     		ldr	r2, [sp, #4]
 238 00c8 5A60     		str	r2, [r3, #4]
 239              		.loc 3 677 0
 240 00ca 039B     		ldr	r3, [sp, #12]
 241              		.loc 3 678 0
 242 00cc 1846     		mov	r0, r3
 243 00ce 04B0     		add	sp, sp, #16
 244              		@ sp needed
 245 00d0 7047     		bx	lr
 246              		.cfi_endproc
 247              	.LFE146:
 248              		.size	queue_fifo_remove, .-queue_fifo_remove
 249 00d2 00BF     		.align	2
 250 00d4 AFF30080 		.p2align 4,,15
 250      AFF30080 
 250      AFF30080 
 251              		.thumb
 252              		.thumb_func
 253              		.type	queue_dequeue, %function
 254              	queue_dequeue:
 255              	.LFB148:
 256              		.loc 3 689 0
 257              		.cfi_startproc
 258              		@ args = 0, pretend = 0, frame = 8
 259              		@ frame_needed = 0, uses_anonymous_args = 0
 260              		@ link register save eliminated.
 261 00e0 82B0     		sub	sp, sp, #8
 262              		.cfi_def_cfa_offset 8
 263 00e2 0190     		str	r0, [sp, #4]
 264              		.loc 3 691 0
 265 00e4 019B     		ldr	r3, [sp, #4]
 266 00e6 5B68     		ldr	r3, [r3, #4]
 267 00e8 019A     		ldr	r2, [sp, #4]
 268 00ea 1268     		ldr	r2, [r2]
 269 00ec 1A60     		str	r2, [r3]
 270              		.loc 3 692 0
 271 00ee 019B     		ldr	r3, [sp, #4]
 272 00f0 1B68     		ldr	r3, [r3]
 273 00f2 019A     		ldr	r2, [sp, #4]
 274 00f4 5268     		ldr	r2, [r2, #4]
 275 00f6 5A60     		str	r2, [r3, #4]
 276              		.loc 3 694 0
 277 00f8 019B     		ldr	r3, [sp, #4]
 278              		.loc 3 695 0
 279 00fa 1846     		mov	r0, r3
ARM GAS  /tmp/ccYXMJUB.s 			page 6


 280 00fc 02B0     		add	sp, sp, #8
 281              		@ sp needed
 282 00fe 7047     		bx	lr
 283              		.cfi_endproc
 284              	.LFE148:
 285              		.size	queue_dequeue, .-queue_dequeue
 286              		.align	2
 287              		.p2align 4,,15
 288              		.thumb
 289              		.thumb_func
 290              		.type	chSysLock, %function
 291              	chSysLock:
 292              	.LFB156:
 293              		.file 4 "../../ChibiOS/os/rt/include/chsys.h"
 294              		.loc 4 346 0
 295              		.cfi_startproc
 296              		@ args = 0, pretend = 0, frame = 0
 297              		@ frame_needed = 0, uses_anonymous_args = 0
 298 0100 08B5     		push	{r3, lr}
 299              		.cfi_def_cfa_offset 8
 300              		.cfi_offset 3, -8
 301              		.cfi_offset 14, -4
 302              		.loc 4 348 0
 303 0102 FFF77DFF 		bl	port_lock
 304              		.loc 4 351 0
 305 0106 08BD     		pop	{r3, pc}
 306              		.cfi_endproc
 307              	.LFE156:
 308              		.size	chSysLock, .-chSysLock
 309              		.align	2
 310 0108 AFF30080 		.p2align 4,,15
 310      AFF30080 
 311              		.thumb
 312              		.thumb_func
 313              		.type	chSysUnlock, %function
 314              	chSysUnlock:
 315              	.LFB157:
 316              		.loc 4 358 0
 317              		.cfi_startproc
 318              		@ args = 0, pretend = 0, frame = 0
 319              		@ frame_needed = 0, uses_anonymous_args = 0
 320 0110 08B5     		push	{r3, lr}
 321              		.cfi_def_cfa_offset 8
 322              		.cfi_offset 3, -8
 323              		.cfi_offset 14, -4
 324              		.loc 4 371 0
 325 0112 FFF77DFF 		bl	port_unlock
 326              		.loc 4 372 0
 327 0116 08BD     		pop	{r3, pc}
 328              		.cfi_endproc
 329              	.LFE157:
 330              		.size	chSysUnlock, .-chSysUnlock
 331              		.align	2
 332 0118 AFF30080 		.p2align 4,,15
 332      AFF30080 
 333              		.thumb
 334              		.thumb_func
ARM GAS  /tmp/ccYXMJUB.s 			page 7


 335              		.type	chMtxQueueNotEmptyS, %function
 336              	chMtxQueueNotEmptyS:
 337              	.LFB203:
 338              		.file 5 "../../ChibiOS/os/rt/include/chmtx.h"
 339              		.loc 5 128 0
 340              		.cfi_startproc
 341              		@ args = 0, pretend = 0, frame = 8
 342              		@ frame_needed = 0, uses_anonymous_args = 0
 343 0120 00B5     		push	{lr}
 344              		.cfi_def_cfa_offset 4
 345              		.cfi_offset 14, -4
 346 0122 83B0     		sub	sp, sp, #12
 347              		.cfi_def_cfa_offset 16
 348 0124 0190     		str	r0, [sp, #4]
 349              		.loc 5 132 0
 350 0126 019B     		ldr	r3, [sp, #4]
 351 0128 1846     		mov	r0, r3
 352 012a FFF789FF 		bl	queue_notempty
 353 012e 0346     		mov	r3, r0
 354              		.loc 5 133 0
 355 0130 1846     		mov	r0, r3
 356 0132 03B0     		add	sp, sp, #12
 357              		@ sp needed
 358 0134 5DF804FB 		ldr	pc, [sp], #4
 359              		.cfi_endproc
 360              	.LFE203:
 361              		.size	chMtxQueueNotEmptyS, .-chMtxQueueNotEmptyS
 362              		.align	2
 363 0138 AFF30080 		.p2align 4,,15
 363      AFF30080 
 364              		.global	chMtxObjectInit
 365              		.thumb
 366              		.thumb_func
 367              		.type	chMtxObjectInit, %function
 368              	chMtxObjectInit:
 369              	.LFB230:
 370              		.file 6 "../../ChibiOS/os/rt/src/chmtx.c"
 371              		.loc 6 103 0
 372              		.cfi_startproc
 373              		@ args = 0, pretend = 0, frame = 8
 374              		@ frame_needed = 0, uses_anonymous_args = 0
 375 0140 00B5     		push	{lr}
 376              		.cfi_def_cfa_offset 4
 377              		.cfi_offset 14, -4
 378 0142 83B0     		sub	sp, sp, #12
 379              		.cfi_def_cfa_offset 16
 380 0144 0190     		str	r0, [sp, #4]
 381              		.loc 6 107 0
 382 0146 019B     		ldr	r3, [sp, #4]
 383 0148 1846     		mov	r0, r3
 384 014a FFF769FF 		bl	queue_init
 385              		.loc 6 108 0
 386 014e 019B     		ldr	r3, [sp, #4]
 387 0150 0022     		movs	r2, #0
 388 0152 9A60     		str	r2, [r3, #8]
 389              		.loc 6 112 0
 390 0154 03B0     		add	sp, sp, #12
ARM GAS  /tmp/ccYXMJUB.s 			page 8


 391              		@ sp needed
 392 0156 5DF804FB 		ldr	pc, [sp], #4
 393              		.cfi_endproc
 394              	.LFE230:
 395              		.size	chMtxObjectInit, .-chMtxObjectInit
 396 015a 00BF     		.align	2
 397 015c AFF30080 		.p2align 4,,15
 398              		.global	chMtxLock
 399              		.thumb
 400              		.thumb_func
 401              		.type	chMtxLock, %function
 402              	chMtxLock:
 403              	.LFB231:
 404              		.loc 6 123 0
 405              		.cfi_startproc
 406              		@ args = 0, pretend = 0, frame = 8
 407              		@ frame_needed = 0, uses_anonymous_args = 0
 408 0160 00B5     		push	{lr}
 409              		.cfi_def_cfa_offset 4
 410              		.cfi_offset 14, -4
 411 0162 83B0     		sub	sp, sp, #12
 412              		.cfi_def_cfa_offset 16
 413 0164 0190     		str	r0, [sp, #4]
 414              		.loc 6 125 0
 415 0166 FFF7CBFF 		bl	chSysLock
 416              		.loc 6 126 0
 417 016a 0198     		ldr	r0, [sp, #4]
 418 016c FFF7FEFF 		bl	chMtxLockS
 419              		.loc 6 127 0
 420 0170 FFF7CEFF 		bl	chSysUnlock
 421              		.loc 6 128 0
 422 0174 03B0     		add	sp, sp, #12
 423              		@ sp needed
 424 0176 5DF804FB 		ldr	pc, [sp], #4
 425              		.cfi_endproc
 426              	.LFE231:
 427              		.size	chMtxLock, .-chMtxLock
 428 017a 00BF     		.align	2
 429 017c AFF30080 		.p2align 4,,15
 430              		.global	chMtxLockS
 431              		.thumb
 432              		.thumb_func
 433              		.type	chMtxLockS, %function
 434              	chMtxLockS:
 435              	.LFB232:
 436              		.loc 6 139 0
 437              		.cfi_startproc
 438              		@ args = 0, pretend = 0, frame = 16
 439              		@ frame_needed = 0, uses_anonymous_args = 0
 440 0180 00B5     		push	{lr}
 441              		.cfi_def_cfa_offset 4
 442              		.cfi_offset 14, -4
 443 0182 85B0     		sub	sp, sp, #20
 444              		.cfi_def_cfa_offset 24
 445 0184 0190     		str	r0, [sp, #4]
 446              		.loc 6 140 0
 447 0186 2D4B     		ldr	r3, .L30
ARM GAS  /tmp/ccYXMJUB.s 			page 9


 448 0188 9B69     		ldr	r3, [r3, #24]
 449 018a 0293     		str	r3, [sp, #8]
 450              		.loc 6 146 0
 451 018c 019B     		ldr	r3, [sp, #4]
 452 018e 9B68     		ldr	r3, [r3, #8]
 453 0190 002B     		cmp	r3, #0
 454 0192 45D0     		beq	.L20
 455              	.LBB10:
 456              		.loc 6 161 0
 457 0194 019B     		ldr	r3, [sp, #4]
 458 0196 9B68     		ldr	r3, [r3, #8]
 459 0198 0393     		str	r3, [sp, #12]
 460              		.loc 6 165 0
 461 019a 2FE0     		b	.L21
 462              	.L28:
 463              		.loc 6 167 0
 464 019c 029B     		ldr	r3, [sp, #8]
 465 019e 9A68     		ldr	r2, [r3, #8]
 466 01a0 039B     		ldr	r3, [sp, #12]
 467 01a2 9A60     		str	r2, [r3, #8]
 468              		.loc 6 170 0
 469 01a4 039B     		ldr	r3, [sp, #12]
 470 01a6 1B7F     		ldrb	r3, [r3, #28]	@ zero_extendqisi2
 471 01a8 062B     		cmp	r3, #6
 472 01aa 04D0     		beq	.L23
 473 01ac 072B     		cmp	r3, #7
 474 01ae 11D0     		beq	.L24
 475 01b0 002B     		cmp	r3, #0
 476 01b2 1AD0     		beq	.L25
 477              		.loc 6 206 0
 478 01b4 21E0     		b	.L26
 479              	.L23:
 480              		.loc 6 173 0
 481 01b6 0398     		ldr	r0, [sp, #12]
 482 01b8 FFF792FF 		bl	queue_dequeue
 483 01bc 0246     		mov	r2, r0
 484 01be 039B     		ldr	r3, [sp, #12]
 485 01c0 1B6A     		ldr	r3, [r3, #32]
 486 01c2 1046     		mov	r0, r2
 487 01c4 1946     		mov	r1, r3
 488 01c6 FFF74BFF 		bl	queue_prio_insert
 489              		.loc 6 174 0
 490 01ca 039B     		ldr	r3, [sp, #12]
 491 01cc 1B6A     		ldr	r3, [r3, #32]
 492 01ce 9B68     		ldr	r3, [r3, #8]
 493 01d0 0393     		str	r3, [sp, #12]
 494              		.loc 6 176 0
 495 01d2 13E0     		b	.L21
 496              	.L24:
 497              		.loc 6 193 0
 498 01d4 0398     		ldr	r0, [sp, #12]
 499 01d6 FFF783FF 		bl	queue_dequeue
 500 01da 0246     		mov	r2, r0
 501 01dc 039B     		ldr	r3, [sp, #12]
 502 01de 1B6A     		ldr	r3, [r3, #32]
 503 01e0 1046     		mov	r0, r2
 504 01e2 1946     		mov	r1, r3
ARM GAS  /tmp/ccYXMJUB.s 			page 10


 505 01e4 FFF73CFF 		bl	queue_prio_insert
 506              		.loc 6 194 0
 507 01e8 07E0     		b	.L26
 508              	.L25:
 509              		.loc 6 202 0
 510 01ea 0398     		ldr	r0, [sp, #12]
 511 01ec FFF778FF 		bl	queue_dequeue
 512 01f0 0346     		mov	r3, r0
 513 01f2 1846     		mov	r0, r3
 514 01f4 FFF7FEFF 		bl	chSchReadyI
 515              		.loc 6 203 0
 516 01f8 00BF     		nop
 517              	.L26:
 518              		.loc 6 208 0
 519 01fa 05E0     		b	.L27
 520              	.L21:
 521              		.loc 6 165 0 discriminator 1
 522 01fc 039B     		ldr	r3, [sp, #12]
 523 01fe 9A68     		ldr	r2, [r3, #8]
 524 0200 029B     		ldr	r3, [sp, #8]
 525 0202 9B68     		ldr	r3, [r3, #8]
 526 0204 9A42     		cmp	r2, r3
 527 0206 C9D3     		bcc	.L28
 528              	.L27:
 529              		.loc 6 212 0
 530 0208 019B     		ldr	r3, [sp, #4]
 531 020a 0298     		ldr	r0, [sp, #8]
 532 020c 1946     		mov	r1, r3
 533 020e FFF727FF 		bl	queue_prio_insert
 534              		.loc 6 213 0
 535 0212 029B     		ldr	r3, [sp, #8]
 536 0214 019A     		ldr	r2, [sp, #4]
 537 0216 1A62     		str	r2, [r3, #32]
 538              		.loc 6 214 0
 539 0218 0620     		movs	r0, #6
 540 021a FFF7FEFF 		bl	chSchGoSleepS
 541 021e 09E0     		b	.L19
 542              	.L20:
 543              	.LBE10:
 544              		.loc 6 232 0
 545 0220 019B     		ldr	r3, [sp, #4]
 546 0222 029A     		ldr	r2, [sp, #8]
 547 0224 9A60     		str	r2, [r3, #8]
 548              		.loc 6 233 0
 549 0226 029B     		ldr	r3, [sp, #8]
 550 0228 9A6B     		ldr	r2, [r3, #56]
 551 022a 019B     		ldr	r3, [sp, #4]
 552 022c DA60     		str	r2, [r3, #12]
 553              		.loc 6 234 0
 554 022e 029B     		ldr	r3, [sp, #8]
 555 0230 019A     		ldr	r2, [sp, #4]
 556 0232 9A63     		str	r2, [r3, #56]
 557              	.L19:
 558              		.loc 6 236 0
 559 0234 05B0     		add	sp, sp, #20
 560              		@ sp needed
 561 0236 5DF804FB 		ldr	pc, [sp], #4
ARM GAS  /tmp/ccYXMJUB.s 			page 11


 562              	.L31:
 563 023a 00BF     		.align	2
 564              	.L30:
 565 023c 00000000 		.word	ch
 566              		.cfi_endproc
 567              	.LFE232:
 568              		.size	chMtxLockS, .-chMtxLockS
 569              		.align	2
 570              		.p2align 4,,15
 571              		.global	chMtxTryLock
 572              		.thumb
 573              		.thumb_func
 574              		.type	chMtxTryLock, %function
 575              	chMtxTryLock:
 576              	.LFB233:
 577              		.loc 6 255 0
 578              		.cfi_startproc
 579              		@ args = 0, pretend = 0, frame = 16
 580              		@ frame_needed = 0, uses_anonymous_args = 0
 581 0240 00B5     		push	{lr}
 582              		.cfi_def_cfa_offset 4
 583              		.cfi_offset 14, -4
 584 0242 85B0     		sub	sp, sp, #20
 585              		.cfi_def_cfa_offset 24
 586 0244 0190     		str	r0, [sp, #4]
 587              		.loc 6 258 0
 588 0246 FFF75BFF 		bl	chSysLock
 589              		.loc 6 259 0
 590 024a 0198     		ldr	r0, [sp, #4]
 591 024c FFF7FEFF 		bl	chMtxTryLockS
 592 0250 0346     		mov	r3, r0
 593 0252 8DF80F30 		strb	r3, [sp, #15]
 594              		.loc 6 260 0
 595 0256 FFF75BFF 		bl	chSysUnlock
 596              		.loc 6 262 0
 597 025a 9DF80F30 		ldrb	r3, [sp, #15]	@ zero_extendqisi2
 598              		.loc 6 263 0
 599 025e 1846     		mov	r0, r3
 600 0260 05B0     		add	sp, sp, #20
 601              		@ sp needed
 602 0262 5DF804FB 		ldr	pc, [sp], #4
 603              		.cfi_endproc
 604              	.LFE233:
 605              		.size	chMtxTryLock, .-chMtxTryLock
 606 0266 00BF     		.align	2
 607 0268 AFF30080 		.p2align 4,,15
 607      AFF30080 
 608              		.global	chMtxTryLockS
 609              		.thumb
 610              		.thumb_func
 611              		.type	chMtxTryLockS, %function
 612              	chMtxTryLockS:
 613              	.LFB234:
 614              		.loc 6 282 0
 615              		.cfi_startproc
 616              		@ args = 0, pretend = 0, frame = 8
 617              		@ frame_needed = 0, uses_anonymous_args = 0
ARM GAS  /tmp/ccYXMJUB.s 			page 12


 618              		@ link register save eliminated.
 619 0270 82B0     		sub	sp, sp, #8
 620              		.cfi_def_cfa_offset 8
 621 0272 0190     		str	r0, [sp, #4]
 622              		.loc 6 287 0
 623 0274 019B     		ldr	r3, [sp, #4]
 624 0276 9B68     		ldr	r3, [r3, #8]
 625 0278 002B     		cmp	r3, #0
 626 027a 01D0     		beq	.L35
 627              		.loc 6 297 0
 628 027c 0023     		movs	r3, #0
 629 027e 0DE0     		b	.L36
 630              	.L35:
 631              		.loc 6 305 0
 632 0280 084B     		ldr	r3, .L37
 633 0282 9A69     		ldr	r2, [r3, #24]
 634 0284 019B     		ldr	r3, [sp, #4]
 635 0286 9A60     		str	r2, [r3, #8]
 636              		.loc 6 306 0
 637 0288 064B     		ldr	r3, .L37
 638 028a 9B69     		ldr	r3, [r3, #24]
 639 028c 9A6B     		ldr	r2, [r3, #56]
 640 028e 019B     		ldr	r3, [sp, #4]
 641 0290 DA60     		str	r2, [r3, #12]
 642              		.loc 6 307 0
 643 0292 044B     		ldr	r3, .L37
 644 0294 9B69     		ldr	r3, [r3, #24]
 645 0296 019A     		ldr	r2, [sp, #4]
 646 0298 9A63     		str	r2, [r3, #56]
 647              		.loc 6 308 0
 648 029a 0123     		movs	r3, #1
 649              	.L36:
 650              		.loc 6 309 0
 651 029c 1846     		mov	r0, r3
 652 029e 02B0     		add	sp, sp, #8
 653              		@ sp needed
 654 02a0 7047     		bx	lr
 655              	.L38:
 656 02a2 00BF     		.align	2
 657              	.L37:
 658 02a4 00000000 		.word	ch
 659              		.cfi_endproc
 660              	.LFE234:
 661              		.size	chMtxTryLockS, .-chMtxTryLockS
 662              		.align	2
 663 02a8 AFF30080 		.p2align 4,,15
 663      AFF30080 
 664              		.global	chMtxUnlock
 665              		.thumb
 666              		.thumb_func
 667              		.type	chMtxUnlock, %function
 668              	chMtxUnlock:
 669              	.LFB235:
 670              		.loc 6 323 0
 671              		.cfi_startproc
 672              		@ args = 0, pretend = 0, frame = 24
 673              		@ frame_needed = 0, uses_anonymous_args = 0
ARM GAS  /tmp/ccYXMJUB.s 			page 13


 674 02b0 00B5     		push	{lr}
 675              		.cfi_def_cfa_offset 4
 676              		.cfi_offset 14, -4
 677 02b2 87B0     		sub	sp, sp, #28
 678              		.cfi_def_cfa_offset 32
 679 02b4 0190     		str	r0, [sp, #4]
 680              		.loc 6 324 0
 681 02b6 264B     		ldr	r3, .L45
 682 02b8 9B69     		ldr	r3, [r3, #24]
 683 02ba 0393     		str	r3, [sp, #12]
 684              		.loc 6 329 0
 685 02bc FFF720FF 		bl	chSysLock
 686              		.loc 6 344 0
 687 02c0 019B     		ldr	r3, [sp, #4]
 688 02c2 DA68     		ldr	r2, [r3, #12]
 689 02c4 039B     		ldr	r3, [sp, #12]
 690 02c6 9A63     		str	r2, [r3, #56]
 691              		.loc 6 347 0
 692 02c8 0198     		ldr	r0, [sp, #4]
 693 02ca FFF729FF 		bl	chMtxQueueNotEmptyS
 694 02ce 0346     		mov	r3, r0
 695 02d0 002B     		cmp	r3, #0
 696 02d2 34D0     		beq	.L40
 697              	.LBB11:
 698              		.loc 6 352 0
 699 02d4 039B     		ldr	r3, [sp, #12]
 700 02d6 DB6B     		ldr	r3, [r3, #60]
 701 02d8 0493     		str	r3, [sp, #16]
 702              		.loc 6 353 0
 703 02da 039B     		ldr	r3, [sp, #12]
 704 02dc 9B6B     		ldr	r3, [r3, #56]
 705 02de 0593     		str	r3, [sp, #20]
 706              		.loc 6 354 0
 707 02e0 12E0     		b	.L41
 708              	.L43:
 709              		.loc 6 358 0
 710 02e2 0598     		ldr	r0, [sp, #20]
 711 02e4 FFF71CFF 		bl	chMtxQueueNotEmptyS
 712 02e8 0346     		mov	r3, r0
 713 02ea 002B     		cmp	r3, #0
 714 02ec 09D0     		beq	.L42
 715              		.loc 6 359 0 discriminator 1
 716 02ee 059B     		ldr	r3, [sp, #20]
 717 02f0 1B68     		ldr	r3, [r3]
 718 02f2 9A68     		ldr	r2, [r3, #8]
 719              		.loc 6 358 0 discriminator 1
 720 02f4 049B     		ldr	r3, [sp, #16]
 721 02f6 9A42     		cmp	r2, r3
 722 02f8 03D9     		bls	.L42
 723              		.loc 6 360 0
 724 02fa 059B     		ldr	r3, [sp, #20]
 725 02fc 1B68     		ldr	r3, [r3]
 726 02fe 9B68     		ldr	r3, [r3, #8]
 727 0300 0493     		str	r3, [sp, #16]
 728              	.L42:
 729              		.loc 6 362 0
 730 0302 059B     		ldr	r3, [sp, #20]
ARM GAS  /tmp/ccYXMJUB.s 			page 14


 731 0304 DB68     		ldr	r3, [r3, #12]
 732 0306 0593     		str	r3, [sp, #20]
 733              	.L41:
 734              		.loc 6 354 0 discriminator 1
 735 0308 059B     		ldr	r3, [sp, #20]
 736 030a 002B     		cmp	r3, #0
 737 030c E9D1     		bne	.L43
 738              		.loc 6 367 0
 739 030e 039B     		ldr	r3, [sp, #12]
 740 0310 049A     		ldr	r2, [sp, #16]
 741 0312 9A60     		str	r2, [r3, #8]
 742              		.loc 6 374 0
 743 0314 019B     		ldr	r3, [sp, #4]
 744 0316 1846     		mov	r0, r3
 745 0318 FFF7CAFE 		bl	queue_fifo_remove
 746 031c 0290     		str	r0, [sp, #8]
 747              		.loc 6 375 0
 748 031e 019B     		ldr	r3, [sp, #4]
 749 0320 029A     		ldr	r2, [sp, #8]
 750 0322 9A60     		str	r2, [r3, #8]
 751              		.loc 6 376 0
 752 0324 029B     		ldr	r3, [sp, #8]
 753 0326 9A6B     		ldr	r2, [r3, #56]
 754 0328 019B     		ldr	r3, [sp, #4]
 755 032a DA60     		str	r2, [r3, #12]
 756              		.loc 6 377 0
 757 032c 029B     		ldr	r3, [sp, #8]
 758 032e 019A     		ldr	r2, [sp, #4]
 759 0330 9A63     		str	r2, [r3, #56]
 760              		.loc 6 383 0
 761 0332 0298     		ldr	r0, [sp, #8]
 762 0334 FFF7FEFF 		bl	chSchReadyI
 763              		.loc 6 384 0
 764 0338 FFF7FEFF 		bl	chSchRescheduleS
 765              	.LBE11:
 766 033c 02E0     		b	.L44
 767              	.L40:
 768              		.loc 6 387 0
 769 033e 019B     		ldr	r3, [sp, #4]
 770 0340 0022     		movs	r2, #0
 771 0342 9A60     		str	r2, [r3, #8]
 772              	.L44:
 773              		.loc 6 393 0
 774 0344 FFF7E4FE 		bl	chSysUnlock
 775              		.loc 6 394 0
 776 0348 07B0     		add	sp, sp, #28
 777              		@ sp needed
 778 034a 5DF804FB 		ldr	pc, [sp], #4
 779              	.L46:
 780 034e 00BF     		.align	2
 781              	.L45:
 782 0350 00000000 		.word	ch
 783              		.cfi_endproc
 784              	.LFE235:
 785              		.size	chMtxUnlock, .-chMtxUnlock
 786              		.align	2
 787 0354 AFF30080 		.p2align 4,,15
ARM GAS  /tmp/ccYXMJUB.s 			page 15


 787      AFF30080 
 787      AFF30080 
 788              		.global	chMtxUnlockS
 789              		.thumb
 790              		.thumb_func
 791              		.type	chMtxUnlockS, %function
 792              	chMtxUnlockS:
 793              	.LFB236:
 794              		.loc 6 410 0
 795              		.cfi_startproc
 796              		@ args = 0, pretend = 0, frame = 24
 797              		@ frame_needed = 0, uses_anonymous_args = 0
 798 0360 00B5     		push	{lr}
 799              		.cfi_def_cfa_offset 4
 800              		.cfi_offset 14, -4
 801 0362 87B0     		sub	sp, sp, #28
 802              		.cfi_def_cfa_offset 32
 803 0364 0190     		str	r0, [sp, #4]
 804              		.loc 6 411 0
 805 0366 234B     		ldr	r3, .L53
 806 0368 9B69     		ldr	r3, [r3, #24]
 807 036a 0393     		str	r3, [sp, #12]
 808              		.loc 6 430 0
 809 036c 019B     		ldr	r3, [sp, #4]
 810 036e DA68     		ldr	r2, [r3, #12]
 811 0370 039B     		ldr	r3, [sp, #12]
 812 0372 9A63     		str	r2, [r3, #56]
 813              		.loc 6 433 0
 814 0374 0198     		ldr	r0, [sp, #4]
 815 0376 FFF7D3FE 		bl	chMtxQueueNotEmptyS
 816 037a 0346     		mov	r3, r0
 817 037c 002B     		cmp	r3, #0
 818 037e 32D0     		beq	.L48
 819              	.LBB12:
 820              		.loc 6 438 0
 821 0380 039B     		ldr	r3, [sp, #12]
 822 0382 DB6B     		ldr	r3, [r3, #60]
 823 0384 0493     		str	r3, [sp, #16]
 824              		.loc 6 439 0
 825 0386 039B     		ldr	r3, [sp, #12]
 826 0388 9B6B     		ldr	r3, [r3, #56]
 827 038a 0593     		str	r3, [sp, #20]
 828              		.loc 6 440 0
 829 038c 12E0     		b	.L49
 830              	.L51:
 831              		.loc 6 444 0
 832 038e 0598     		ldr	r0, [sp, #20]
 833 0390 FFF7C6FE 		bl	chMtxQueueNotEmptyS
 834 0394 0346     		mov	r3, r0
 835 0396 002B     		cmp	r3, #0
 836 0398 09D0     		beq	.L50
 837              		.loc 6 445 0 discriminator 1
 838 039a 059B     		ldr	r3, [sp, #20]
 839 039c 1B68     		ldr	r3, [r3]
 840 039e 9A68     		ldr	r2, [r3, #8]
 841              		.loc 6 444 0 discriminator 1
 842 03a0 049B     		ldr	r3, [sp, #16]
ARM GAS  /tmp/ccYXMJUB.s 			page 16


 843 03a2 9A42     		cmp	r2, r3
 844 03a4 03D9     		bls	.L50
 845              		.loc 6 446 0
 846 03a6 059B     		ldr	r3, [sp, #20]
 847 03a8 1B68     		ldr	r3, [r3]
 848 03aa 9B68     		ldr	r3, [r3, #8]
 849 03ac 0493     		str	r3, [sp, #16]
 850              	.L50:
 851              		.loc 6 448 0
 852 03ae 059B     		ldr	r3, [sp, #20]
 853 03b0 DB68     		ldr	r3, [r3, #12]
 854 03b2 0593     		str	r3, [sp, #20]
 855              	.L49:
 856              		.loc 6 440 0 discriminator 1
 857 03b4 059B     		ldr	r3, [sp, #20]
 858 03b6 002B     		cmp	r3, #0
 859 03b8 E9D1     		bne	.L51
 860              		.loc 6 453 0
 861 03ba 039B     		ldr	r3, [sp, #12]
 862 03bc 049A     		ldr	r2, [sp, #16]
 863 03be 9A60     		str	r2, [r3, #8]
 864              		.loc 6 460 0
 865 03c0 019B     		ldr	r3, [sp, #4]
 866 03c2 1846     		mov	r0, r3
 867 03c4 FFF774FE 		bl	queue_fifo_remove
 868 03c8 0290     		str	r0, [sp, #8]
 869              		.loc 6 461 0
 870 03ca 019B     		ldr	r3, [sp, #4]
 871 03cc 029A     		ldr	r2, [sp, #8]
 872 03ce 9A60     		str	r2, [r3, #8]
 873              		.loc 6 462 0
 874 03d0 029B     		ldr	r3, [sp, #8]
 875 03d2 9A6B     		ldr	r2, [r3, #56]
 876 03d4 019B     		ldr	r3, [sp, #4]
 877 03d6 DA60     		str	r2, [r3, #12]
 878              		.loc 6 463 0
 879 03d8 029B     		ldr	r3, [sp, #8]
 880 03da 019A     		ldr	r2, [sp, #4]
 881 03dc 9A63     		str	r2, [r3, #56]
 882              		.loc 6 464 0
 883 03de 0298     		ldr	r0, [sp, #8]
 884 03e0 FFF7FEFF 		bl	chSchReadyI
 885              	.LBE12:
 886 03e4 02E0     		b	.L47
 887              	.L48:
 888              		.loc 6 467 0
 889 03e6 019B     		ldr	r3, [sp, #4]
 890 03e8 0022     		movs	r2, #0
 891 03ea 9A60     		str	r2, [r3, #8]
 892              	.L47:
 893              		.loc 6 472 0
 894 03ec 07B0     		add	sp, sp, #28
 895              		@ sp needed
 896 03ee 5DF804FB 		ldr	pc, [sp], #4
 897              	.L54:
 898 03f2 00BF     		.align	2
 899              	.L53:
ARM GAS  /tmp/ccYXMJUB.s 			page 17


 900 03f4 00000000 		.word	ch
 901              		.cfi_endproc
 902              	.LFE236:
 903              		.size	chMtxUnlockS, .-chMtxUnlockS
 904              		.align	2
 905 03f8 AFF30080 		.p2align 4,,15
 905      AFF30080 
 906              		.global	chMtxUnlockAll
 907              		.thumb
 908              		.thumb_func
 909              		.type	chMtxUnlockAll, %function
 910              	chMtxUnlockAll:
 911              	.LFB237:
 912              		.loc 6 485 0
 913              		.cfi_startproc
 914              		@ args = 0, pretend = 0, frame = 16
 915              		@ frame_needed = 0, uses_anonymous_args = 0
 916 0400 00B5     		push	{lr}
 917              		.cfi_def_cfa_offset 4
 918              		.cfi_offset 14, -4
 919 0402 85B0     		sub	sp, sp, #20
 920              		.cfi_def_cfa_offset 24
 921              		.loc 6 486 0
 922 0404 1D4B     		ldr	r3, .L60
 923 0406 9B69     		ldr	r3, [r3, #24]
 924 0408 0393     		str	r3, [sp, #12]
 925              		.loc 6 488 0
 926 040a FFF779FE 		bl	chSysLock
 927              		.loc 6 489 0
 928 040e 039B     		ldr	r3, [sp, #12]
 929 0410 9B6B     		ldr	r3, [r3, #56]
 930 0412 002B     		cmp	r3, #0
 931 0414 2CD0     		beq	.L56
 932              	.L59:
 933              	.LBB13:
 934              		.loc 6 491 0
 935 0416 039B     		ldr	r3, [sp, #12]
 936 0418 9B6B     		ldr	r3, [r3, #56]
 937 041a 0293     		str	r3, [sp, #8]
 938              		.loc 6 492 0
 939 041c 029B     		ldr	r3, [sp, #8]
 940 041e DA68     		ldr	r2, [r3, #12]
 941 0420 039B     		ldr	r3, [sp, #12]
 942 0422 9A63     		str	r2, [r3, #56]
 943              		.loc 6 493 0
 944 0424 0298     		ldr	r0, [sp, #8]
 945 0426 FFF77BFE 		bl	chMtxQueueNotEmptyS
 946 042a 0346     		mov	r3, r0
 947 042c 002B     		cmp	r3, #0
 948 042e 12D0     		beq	.L57
 949              	.LBB14:
 950              		.loc 6 497 0
 951 0430 029B     		ldr	r3, [sp, #8]
 952 0432 1846     		mov	r0, r3
 953 0434 FFF73CFE 		bl	queue_fifo_remove
 954 0438 0190     		str	r0, [sp, #4]
 955              		.loc 6 498 0
ARM GAS  /tmp/ccYXMJUB.s 			page 18


 956 043a 029B     		ldr	r3, [sp, #8]
 957 043c 019A     		ldr	r2, [sp, #4]
 958 043e 9A60     		str	r2, [r3, #8]
 959              		.loc 6 499 0
 960 0440 019B     		ldr	r3, [sp, #4]
 961 0442 9A6B     		ldr	r2, [r3, #56]
 962 0444 029B     		ldr	r3, [sp, #8]
 963 0446 DA60     		str	r2, [r3, #12]
 964              		.loc 6 500 0
 965 0448 019B     		ldr	r3, [sp, #4]
 966 044a 029A     		ldr	r2, [sp, #8]
 967 044c 9A63     		str	r2, [r3, #56]
 968              		.loc 6 501 0
 969 044e 0198     		ldr	r0, [sp, #4]
 970 0450 FFF7FEFF 		bl	chSchReadyI
 971              	.LBE14:
 972 0454 02E0     		b	.L58
 973              	.L57:
 974              		.loc 6 507 0
 975 0456 029B     		ldr	r3, [sp, #8]
 976 0458 0022     		movs	r2, #0
 977 045a 9A60     		str	r2, [r3, #8]
 978              	.L58:
 979              	.LBE13:
 980              		.loc 6 509 0
 981 045c 039B     		ldr	r3, [sp, #12]
 982 045e 9B6B     		ldr	r3, [r3, #56]
 983 0460 002B     		cmp	r3, #0
 984 0462 D8D1     		bne	.L59
 985              		.loc 6 510 0
 986 0464 039B     		ldr	r3, [sp, #12]
 987 0466 DA6B     		ldr	r2, [r3, #60]
 988 0468 039B     		ldr	r3, [sp, #12]
 989 046a 9A60     		str	r2, [r3, #8]
 990              		.loc 6 511 0
 991 046c FFF7FEFF 		bl	chSchRescheduleS
 992              	.L56:
 993              		.loc 6 513 0
 994 0470 FFF74EFE 		bl	chSysUnlock
 995              		.loc 6 514 0
 996 0474 05B0     		add	sp, sp, #20
 997              		@ sp needed
 998 0476 5DF804FB 		ldr	pc, [sp], #4
 999              	.L61:
 1000 047a 00BF     		.align	2
 1001              	.L60:
 1002 047c 00000000 		.word	ch
 1003              		.cfi_endproc
 1004              	.LFE237:
 1005              		.size	chMtxUnlockAll, .-chMtxUnlockAll
 1006              	.Letext0:
 1007              		.file 7 "/nfs/nfs5/home/research/hardware/arm2/gcc-arm-embedded/gcc-arm-none-eabi-4_8-2014q2/arm-n
 1008              		.file 8 "/nfs/nfs5/home/research/hardware/arm2/gcc-arm-embedded/gcc-arm-none-eabi-4_8-2014q2/arm-n
 1009              		.file 9 "../../ChibiOS/os/rt/ports/ARMCMx/compilers/GCC/chtypes.h"
 1010              		.file 10 "../../ChibiOS/os/rt/include/chsystypes.h"
 1011              		.file 11 "../../ChibiOS/os/rt/ports/ARMCMx/chcore.h"
 1012              		.file 12 "../../ChibiOS/os/rt/include/chtm.h"
ARM GAS  /tmp/ccYXMJUB.s 			page 19


 1013              		.file 13 "../../ChibiOS/os/rt/include/chsem.h"
 1014              		.file 14 "../../ChibiOS/os/ext/CMSIS/include/core_cm4.h"