ARM GAS  /tmp/ccYXMJUB.s 			page 1


   1              		.syntax unified
   2              		.cpu cortex-m4
   3              		.fpu softvfp
   4              		.eabi_attribute 20, 1
   5              		.eabi_attribute 21, 1
   6              		.eabi_attribute 23, 3
   7              		.eabi_attribute 24, 1
   8              		.eabi_attribute 25, 1
   9              		.eabi_attribute 26, 1
  10              		.eabi_attribute 30, 6
  11              		.eabi_attribute 34, 1
  12              		.eabi_attribute 18, 4
  13              		.thumb
  14              		.file	"chmtx.c"
  15              		.text
  16              	.Ltext0:
  17              		.cfi_sections	.debug_frame
  18              		.align	2
  19              		.p2align 4,,15
  20              		.thumb
  21              		.thumb_func
  22              		.type	port_lock, %function
  23              	port_lock:
  24              	.LFB127:
  25              		.file 1 "../../ChibiOS/os/rt/ports/ARMCMx/chcore_v7m.h"
  26              		.loc 1 456 0
  27              		.cfi_startproc
  28              		@ args = 0, pretend = 0, frame = 8
  29              		@ frame_needed = 0, uses_anonymous_args = 0
  30              		@ link register save eliminated.
  31 0000 82B0     		sub	sp, sp, #8
  32              		.cfi_def_cfa_offset 8
  33 0002 2023     		movs	r3, #32
  34 0004 0193     		str	r3, [sp, #4]
  35              	.LBB6:
  36              	.LBB7:
  37              		.file 2 "../../ChibiOS/os/ext/CMSIS/include/core_cmFunc.h"
  38              		.loc 2 548 0
  39 0006 019B     		ldr	r3, [sp, #4]
  40              	@ 548 "../../ChibiOS/os/ext/CMSIS/include/core_cmFunc.h" 1
  41 0008 83F31188 		MSR basepri, r3
  42              	@ 0 "" 2
  43              		.thumb
  44              	.LBE7:
  45              	.LBE6:
  46              		.loc 1 473 0
  47 000c 02B0     		add	sp, sp, #8
  48              		@ sp needed
  49 000e 7047     		bx	lr
  50              		.cfi_endproc
  51              	.LFE127:
  52              		.size	port_lock, .-port_lock
  53              		.align	2
  54              		.p2align 4,,15
  55              		.thumb
  56              		.thumb_func
  57              		.type	port_unlock, %function
ARM GAS  /tmp/ccYXMJUB.s 			page 2


  58              	port_unlock:
  59              	.LFB128:
  60              		.loc 1 480 0
  61              		.cfi_startproc
  62              		@ args = 0, pretend = 0, frame = 8
  63              		@ frame_needed = 0, uses_anonymous_args = 0
  64              		@ link register save eliminated.
  65 0010 82B0     		sub	sp, sp, #8
  66              		.cfi_def_cfa_offset 8
  67 0012 0023     		movs	r3, #0
  68 0014 0193     		str	r3, [sp, #4]
  69              	.LBB8:
  70              	.LBB9:
  71              		.loc 2 548 0
  72 0016 019B     		ldr	r3, [sp, #4]
  73              	@ 548 "../../ChibiOS/os/ext/CMSIS/include/core_cmFunc.h" 1
  74 0018 83F31188 		MSR basepri, r3
  75              	@ 0 "" 2
  76              		.thumb
  77              	.LBE9:
  78              	.LBE8:
  79              		.loc 1 487 0
  80 001c 02B0     		add	sp, sp, #8
  81              		@ sp needed
  82 001e 7047     		bx	lr
  83              		.cfi_endproc
  84              	.LFE128:
  85              		.size	port_unlock, .-port_unlock
  86              		.align	2
  87              		.p2align 4,,15
  88              		.thumb
  89              		.thumb_func
  90              		.type	queue_init, %function
  91              	queue_init:
  92              	.LFB139:
  93              		.file 3 "../../ChibiOS/os/rt/include/chschd.h"
  94              		.loc 3 602 0
  95              		.cfi_startproc
  96              		@ args = 0, pretend = 0, frame = 8
  97              		@ frame_needed = 0, uses_anonymous_args = 0
  98              		@ link register save eliminated.
  99 0020 82B0     		sub	sp, sp, #8
 100              		.cfi_def_cfa_offset 8
 101 0022 0190     		str	r0, [sp, #4]
 102              		.loc 3 604 0
 103 0024 019B     		ldr	r3, [sp, #4]
 104 0026 019A     		ldr	r2, [sp, #4]
 105 0028 1A60     		str	r2, [r3]
 106              		.loc 3 605 0
 107 002a 019B     		ldr	r3, [sp, #4]
 108 002c 019A     		ldr	r2, [sp, #4]
 109 002e 5A60     		str	r2, [r3, #4]
 110              		.loc 3 606 0
 111 0030 02B0     		add	sp, sp, #8
 112              		@ sp needed
 113 0032 7047     		bx	lr
 114              		.cfi_endproc
ARM GAS  /tmp/ccYXMJUB.s 			page 3


 115              	.LFE139:
 116              		.size	queue_init, .-queue_init
 117              		.align	2
 118 0034 AFF30080 		.p2align 4,,15
 118      AFF30080 
 118      AFF30080 
 119              		.thumb
 120              		.thumb_func
 121              		.type	queue_notempty, %function
 122              	queue_notempty:
 123              	.LFB141:
 124              		.loc 3 629 0
 125              		.cfi_startproc
 126              		@ args = 0, pretend = 0, frame = 8
 127              		@ frame_needed = 0, uses_anonymous_args = 0
 128              		@ link register save eliminated.
 129 0040 82B0     		sub	sp, sp, #8
 130              		.cfi_def_cfa_offset 8
 131 0042 0190     		str	r0, [sp, #4]
 132              		.loc 3 631 0
 133 0044 019B     		ldr	r3, [sp, #4]
 134 0046 1A68     		ldr	r2, [r3]
 135 0048 019B     		ldr	r3, [sp, #4]
 136 004a 9A42     		cmp	r2, r3
 137 004c 0CBF     		ite	eq
 138 004e 0023     		moveq	r3, #0
 139 0050 0123     		movne	r3, #1
 140 0052 DBB2     		uxtb	r3, r3
 141              		.loc 3 632 0
 142 0054 1846     		mov	r0, r3
 143 0056 02B0     		add	sp, sp, #8
 144              		@ sp needed
 145 0058 7047     		bx	lr
 146              		.cfi_endproc
 147              	.LFE141:
 148              		.size	queue_notempty, .-queue_notempty
 149 005a 00BF     		.align	2
 150 005c AFF30080 		.p2align 4,,15
 151              		.thumb
 152              		.thumb_func
 153              		.type	queue_prio_insert, %function
 154              	queue_prio_insert:
 155              	.LFB144:
 156              		.loc 3 651 0
 157              		.cfi_startproc
 158              		@ args = 0, pretend = 0, frame = 16
 159              		@ frame_needed = 0, uses_anonymous_args = 0
 160              		@ link register save eliminated.
 161 0060 84B0     		sub	sp, sp, #16
 162              		.cfi_def_cfa_offset 16
 163 0062 0190     		str	r0, [sp, #4]
 164 0064 0091     		str	r1, [sp]
 165              		.loc 3 653 0
 166 0066 009B     		ldr	r3, [sp]
 167 0068 0393     		str	r3, [sp, #12]
 168              	.L8:
 169              		.loc 3 655 0 discriminator 1
ARM GAS  /tmp/ccYXMJUB.s 			page 4


 170 006a 039B     		ldr	r3, [sp, #12]
 171 006c 1B68     		ldr	r3, [r3]
 172 006e 0393     		str	r3, [sp, #12]
 173              		.loc 3 656 0 discriminator 1
 174 0070 039A     		ldr	r2, [sp, #12]
 175 0072 009B     		ldr	r3, [sp]
 176 0074 9A42     		cmp	r2, r3
 177 0076 05D0     		beq	.L7
 178 0078 039B     		ldr	r3, [sp, #12]
 179 007a 9A68     		ldr	r2, [r3, #8]
 180 007c 019B     		ldr	r3, [sp, #4]
 181 007e 9B68     		ldr	r3, [r3, #8]
 182 0080 9A42     		cmp	r2, r3
 183 0082 F2D2     		bcs	.L8
 184              	.L7:
 185              		.loc 3 657 0
 186 0084 019B     		ldr	r3, [sp, #4]
 187 0086 039A     		ldr	r2, [sp, #12]
 188 0088 1A60     		str	r2, [r3]
 189              		.loc 3 658 0
 190 008a 039B     		ldr	r3, [sp, #12]
 191 008c 5A68     		ldr	r2, [r3, #4]
 192 008e 019B     		ldr	r3, [sp, #4]
 193 0090 5A60     		str	r2, [r3, #4]
 194              		.loc 3 659 0
 195 0092 019B     		ldr	r3, [sp, #4]
 196 0094 5B68     		ldr	r3, [r3, #4]
 197 0096 019A     		ldr	r2, [sp, #4]
 198 0098 1A60     		str	r2, [r3]
 199              		.loc 3 660 0
 200 009a 039B     		ldr	r3, [sp, #12]
 201 009c 019A     		ldr	r2, [sp, #4]
 202 009e 5A60     		str	r2, [r3, #4]
 203              		.loc 3 661 0
 204 00a0 04B0     		add	sp, sp, #16
 205              		@ sp needed
 206 00a2 7047     		bx	lr
 207              		.cfi_endproc
 208              	.LFE144:
 209              		.size	queue_prio_insert, .-queue_prio_insert
 210              		.align	2
 211 00a4 AFF30080 		.p2align 4,,15
 211      AFF30080 
 211      AFF30080 
 212              		.thumb
 213              		.thumb_func
 214              		.type	queue_fifo_remove, %function
 215              	queue_fifo_remove:
 216              	.LFB146:
 217              		.loc 3 671 0
 218              		.cfi_startproc
 219              		@ args = 0, pretend = 0, frame = 16
 220              		@ frame_needed = 0, uses_anonymous_args = 0
 221              		@ link register save eliminated.
 222 00b0 84B0     		sub	sp, sp, #16
 223              		.cfi_def_cfa_offset 16
 224 00b2 0190     		str	r0, [sp, #4]
ARM GAS  /tmp/ccYXMJUB.s 			page 5


 225              		.loc 3 672 0
 226 00b4 019B     		ldr	r3, [sp, #4]
 227 00b6 1B68     		ldr	r3, [r3]
 228 00b8 0393     		str	r3, [sp, #12]
 229              		.loc 3 674 0
 230 00ba 039B     		ldr	r3, [sp, #12]
 231 00bc 1A68     		ldr	r2, [r3]
 232 00be 019B     		ldr	r3, [sp, #4]
 233 00c0 1A60     		str	r2, [r3]
 234              		.loc 3 675 0
 235 00c2 019B     		ldr	r3, [sp, #4]
 236 00c4 1B68     		ldr	r3, [r3]
 237 00c6 019A     		ldr	r2, [sp, #4]
 238 00c8 5A60     		str	r2, [r3, #4]
 239              		.loc 3 677 0
 240 00ca 039B     		ldr	r3, [sp, #12]
 241              		.loc 3 678 0
 242 00cc 1846     		mov	r0, r3
 243 00ce 04B0     		add	sp, sp, #16
 244              		@ sp needed
 245 00d0 7047     		bx	lr
 246              		.cfi_endproc
 247              	.LFE146:
 248              		.size	queue_fifo_remove, .-queue_fifo_remove
 249 00d2 00BF     		.align	2
 250 00d4 AFF30080 		.p2align 4,,15
 250      AFF30080 
 250      AFF30080 
 251              		.thumb
 252              		.thumb_func
 253              		.type	queue_dequeue, %function
 254              	queue_dequeue:
 255              	.LFB148:
 256              		.loc 3 689 0
 257              		.cfi_startproc
 258              		@ args = 0, pretend = 0, frame = 8
 259              		@ frame_needed = 0, uses_anonymous_args = 0
 260              		@ link register save eliminated.
 261 00e0 82B0     		sub	sp, sp, #8
 262              		.cfi_def_cfa_offset 8
 263 00e2 0190     		str	r0, [sp, #4]
 264              		.loc 3 691 0
 265 00e4 019B     		ldr	r3, [sp, #4]
 266 00e6 5B68     		ldr	r3, [r3, #4]
 267 00e8 019A     		ldr	r2, [sp, #4]
 268 00ea 1268     		ldr	r2, [r2]
 269 00ec 1A60     		str	r2, [r3]
 270              		.loc 3 692 0
 271 00ee 019B     		ldr	r3, [sp, #4]
 272 00f0 1B68     		ldr	r3, [r3]
 273 00f2 019A     		ldr	r2, [sp, #4]
 274 00f4 5268     		ldr	r2, [r2, #4]
 275 00f6 5A60     		str	r2, [r3, #4]
 276              		.loc 3 694 0
 277 00f8 019B     		ldr	r3, [sp, #4]
 278              		.loc 3 695 0
 279 00fa 1846     		mov	r0, r3
ARM GAS  /tmp/ccYXMJUB.s 			page 6


 280 00fc 02B0     		add	sp, sp, #8
 281              		@ sp needed
 282 00fe 7047     		bx	lr
 283              		.cfi_endproc
 284              	.LFE148:
 285              		.size	queue_dequeue, .-queue_dequeue
 286              		.align	2
 287              		.p2align 4,,15
 288              		.thumb
 289              		.thumb_func
 290              		.type	chSysLock, %function
 291              	chSysLock:
 292              	.LFB156:
 293              		.file 4 "../../ChibiOS/os/rt/include/chsys.h"
 294              		.loc 4 346 0
 295              		.cfi_startproc
 296              		@ args = 0, pretend = 0, frame = 0
 297              		@ frame_needed = 0, uses_anonymous_args = 0
 298 0100 08B5     		push	{r3, lr}
 299              		.cfi_def_cfa_offset 8
 300              		.cfi_offset 3, -8
 301              		.cfi_offset 14, -4
 302              		.loc 4 348 0
 303 0102 FFF77DFF 		bl	port_lock
 304              		.loc 4 351 0
 305 0106 08BD     		pop	{r3, pc}
 306              		.cfi_endproc
 307              	.LFE156:
 308              		.size	chSysLock, .-chSysLock
 309              		.align	2
 310 0108 AFF30080 		.p2align 4,,15
 310      AFF30080 
 311              		.thumb
 312              		.thumb_func
 313              		.type	chSysUnlock, %function
 314              	chSysUnlock:
 315              	.LFB157:
 316              		.loc 4 358 0
 317              		.cfi_startproc
 318              		@ args = 0, pretend = 0, frame = 0
 319              		@ frame_needed = 0, uses_anonymous_args = 0
 320 0110 08B5     		push	{r3, lr}
 321              		.cfi_def_cfa_offset 8
 322              		.cfi_offset 3, -8
 323              		.cfi_offset 14, -4
 324              		.loc 4 371 0
 325 0112 FFF77DFF 		bl	port_unlock
 326              		.loc 4 372 0
 327 0116 08BD     		pop	{r3, pc}
 328              		.cfi_endproc
 329              	.LFE157:
 330              		.size	chSysUnlock, .-chSysUnlock
 331              		.align	2
 332 0118 AFF30080 		.p2align 4,,15
 332      AFF30080 
 333              		.thumb
 334              		.thumb_func
ARM GAS  /tmp/ccYXMJUB.s 			page 7


 335              		.type	chMtxQueueNotEmptyS, %function
 336              	chMtxQueueNotEmptyS:
 337              	.LFB203:
 338              		.file 5 "../../ChibiOS/os/rt/include/chmtx.h"
 339              		.loc 5 128 0
 340              		.cfi_startproc
 341              		@ args = 0, pretend = 0, frame = 8
 342              		@ frame_needed = 0, uses_anonymous_args = 0
 343 0120 00B5     		push	{lr}
 344              		.cfi_def_cfa_offset 4
 345              		.cfi_offset 14, -4
 346 0122 83B0     		sub	sp, sp, #12
 347              		.cfi_def_cfa_offset 16
 348 0124 0190     		str	r0, [sp, #4]
 349              		.loc 5 132 0
 350 0126 019B     		ldr	r3, [sp, #4]
 351 0128 1846     		mov	r0, r3
 352 012a FFF789FF 		bl	queue_notempty
 353 012e 0346     		mov	r3, r0
 354              		.loc 5 133 0
 355 0130 1846     		mov	r0, r3
 356 0132 03B0     		add	sp, sp, #12
 357              		@ sp needed
 358 0134 5DF804FB 		ldr	pc, [sp], #4
 359              		.cfi_endproc
 360              	.LFE203:
 361              		.size	chMtxQueueNotEmptyS, .-chMtxQueueNotEmptyS
 362              		.align	2
 363 0138 AFF30080 		.p2align 4,,15
 363      AFF30080 
 364              		.global	chMtxObjectInit
 365              		.thumb
 366              		.thumb_func
 367              		.type	chMtxObjectInit, %function
 368              	chMtxObjectInit:
 369              	.LFB230:
 370              		.file 6 "../../ChibiOS/os/rt/src/chmtx.c"
 371              		.loc 6 103 0
 372              		.cfi_startproc
 373              		@ args = 0, pretend = 0, frame = 8
 374              		@ frame_needed = 0, uses_anonymous_args = 0
 375 0140 00B5     		push	{lr}
 376              		.cfi_def_cfa_offset 4
 377              		.cfi_offset 14, -4
 378 0142 83B0     		sub	sp, sp, #12
 379              		.cfi_def_cfa_offset 16
 380 0144 0190     		str	r0, [sp, #4]
 381              		.loc 6 107 0
 382 0146 019B     		ldr	r3, [sp, #4]
 383 0148 1846     		mov	r0, r3
 384 014a FFF769FF 		bl	queue_init
 385              		.loc 6 108 0
 386 014e 019B     		ldr	r3, [sp, #4]
 387 0150 0022     		movs	r2, #0
 388 0152 9A60     		str	r2, [r3, #8]
 389              		.loc 6 112 0
 390 0154 03B0     		add	sp, sp, #12
ARM GAS  /tmp/ccYXMJUB.s 			page 8


 391              		@ sp needed
 392 0156 5DF804FB 		ldr	pc, [sp], #4
 393              		.cfi_endproc
 394              	.LFE230:
 395              		.size	chMtxObjectInit, .-chMtxObjectInit
 396 015a 00BF     		.align	2
 397 015c AFF30080 		.p2align 4,,15
 398              		.global	chMtxLock
 399              		.thumb
 400              		.thumb_func
 401              		.type	chMtxLock, %function
 402              	chMtxLock:
 403              	.LFB231:
 404              		.loc 6 123 0
 405              		.cfi_startproc
 406              		@ args = 0, pretend = 0, frame = 8
 407              		@ frame_needed = 0, uses_anonymous_args = 0
 408 0160 00B5     		push	{lr}
 409              		.cfi_def_cfa_offset 4
 410              		.cfi_offset 14, -4
 411 0162 83B0     		sub	sp, sp, #12
 412              		.cfi_def_cfa_offset 16
 413 0164 0190     		str	r0, [sp, #4]
 414              		.loc 6 125 0
 415 0166 FFF7CBFF 		bl	chSysLock
 416              		.loc 6 126 0
 417 016a 0198     		ldr	r0, [sp, #4]
 418 016c FFF7FEFF 		bl	chMtxLockS
 419              		.loc 6 127 0
 420 0170 FFF7CEFF 		bl	chSysUnlock
 421              		.loc 6 128 0
 422 0174 03B0     		add	sp, sp, #12
 423              		@ sp needed
 424 0176 5DF804FB 		ldr	pc, [sp], #4
 425              		.cfi_endproc
 426              	.LFE231:
 427              		.size	chMtxLock, .-chMtxLock
 428 017a 00BF     		.align	2
 429 017c AFF30080 		.p2align 4,,15
 430              		.global	chMtxLockS
 431              		.thumb
 432              		.thumb_func
 433              		.type	chMtxLockS, %function
 434              	chMtxLockS:
 435              	.LFB232:
 436              		.loc 6 139 0
 437              		.cfi_startproc
 438              		@ args = 0, pretend = 0, frame = 16
 439              		@ frame_needed = 0, uses_anonymous_args = 0
 440 0180 00B5     		push	{lr}
 441              		.cfi_def_cfa_offset 4
 442              		.cfi_offset 14, -4
 443 0182 85B0     		sub	sp, sp, #20
 444              		.cfi_def_cfa_offset 24
 445 0184 0190     		str	r0, [sp, #4]
 446              		.loc 6 140 0
 447 0186 2D4B     		ldr	r3, .L30
ARM GAS  /tmp/ccYXMJUB.s 			page 9


 448 0188 9B69     		ldr	r3, [r3, #24]
 449 018a 0293     		str	r3, [sp, #8]
 450              		.loc 6 146 0
 451 018c 019B     		ldr	r3, [sp, #4]
 452 018e 9B68     		ldr	r3, [r3, #8]
 453 0190 002B     		cmp	r3, #0
 454 0192 45D0     		beq	.L20
 455              	.LBB10:
 456              		.loc 6 161 0
 457 0194 019B     		ldr	r3, [sp, #4]
 458 0196 9B68     		ldr	r3, [r3, #8]
 459 0198 0393     		str	r3, [sp, #12]
 460              		.loc 6 165 0
 461 019a 2FE0     		b	.L21
 462              	.L28:
 463              		.loc 6 167 0
 464 019c 029B     		ldr	r3, [sp, #8]
 465 019e 9A68     		ldr	r2, [r3, #8]
 466 01a0 039B     		ldr	r3, [sp, #12]
 467 01a2 9A60     		str	r2, [r3, #8]
 468              		.loc 6 170 0
 469 01a4 039B     		ldr	r3, [sp, #12]
 470 01a6 1B7F     		ldrb	r3, [r3, #28]	@ zero_extendqisi2
 471 01a8 062B     		cmp	r3, #6
 472 01aa 04D0     		beq	.L23
 473 01ac 072B     		cmp	r3, #7
 474 01ae 11D0     		beq	.L24
 475 01b0 002B     		cmp	r3, #0
 476 01b2 1AD0     		beq	.L25
 477              		.loc 6 206 0
 478 01b4 21E0     		b	.L26
 479              	.L23:
 480              		.loc 6 173 0
 481 01b6 0398     		ldr	r0, [sp, #12]
 482 01b8 FFF792FF 		bl	queue_dequeue
 483 01bc 0246     		mov	r2, r0
 484 01be 039B     		ldr	r3, [sp, #12]
 485 01c0 1B6A     		ldr	r3, [r3, #32]
 486 01c2 1046     		mov	r0, r2
 487 01c4 1946     		mov	r1, r3
 488 01c6 FFF74BFF 		bl	queue_prio_insert
 489              		.loc 6 174 0
 490 01ca 039B     		ldr	r3, [sp, #12]
 491 01cc 1B6A     		ldr	r3, [r3, #32]
 492 01ce 9B68     		ldr	r3, [r3, #8]
 493 01d0 0393     		str	r3, [sp, #12]
 494              		.loc 6 176 0
 495 01d2 13E0     		b	.L21
 496              	.L24:
 497              		.loc 6 193 0
 498 01d4 0398     		ldr	r0, [sp, #12]
 499 01d6 FFF783FF 		bl	queue_dequeue
 500 01da 0246     		mov	r2, r0
 501 01dc 039B     		ldr	r3, [sp, #12]
 502 01de 1B6A     		ldr	r3, [r3, #32]
 503 01e0 1046     		mov	r0, r2
 504 01e2 1946     		mov	r1, r3
ARM GAS  /tmp/ccYXMJUB.s 			page 10


 505 01e4 FFF73CFF 		bl	queue_prio_insert
 506              		.loc 6 194 0
 507 01e8 07E0     		b	.L26
 508              	.L25:
 509              		.loc 6 202 0
 510 01ea 0398     		ldr	r0, [sp, #12]
 511 01ec FFF778FF 		bl	queue_dequeue
 512 01f0 0346     		mov	r3, r0
 513 01f2 1846     		mov	r0, r3
 514 01f4 FFF7FEFF 		bl	chSchReadyI
 515              		.loc 6 203 0
 516 01f8 00BF     		nop
 517              	.L26:
 518              		.loc 6 208 0
 519 01fa 05E0     		b	.L27
 520              	.L21:
 521              		.loc 6 165 0 discriminator 1
 522 01fc 039B     		ldr	r3, [sp, #12]
 523 01fe 9A68     		ldr	r2, [r3, #8]
 524 0200 029B     		ldr	r3, [sp, #8]
 525 0202 9B68     		ldr	r3, [r3, #8]
 526 0204 9A42     		cmp	r2, r3
 527 0206 C9D3     		bcc	.L28
 528              	.L27:
 529              		.loc 6 212 0
 530 0208 019B     		ldr	r3, [sp, #4]
 531 020a 0298     		ldr	r0, [sp, #8]
 532 020c 1946     		mov	r1, r3
 533 020e FFF727FF 		bl	queue_prio_insert
 534              		.loc 6 213 0
 535 0212 029B     		ldr	r3, [sp, #8]
 536 0214 019A     		ldr	r2, [sp, #4]
 537 0216 1A62     		str	r2, [r3, #32]
 538              		.loc 6 214 0
 539 0218 0620     		movs	r0, #6
 540 021a FFF7FEFF 		bl	chSchGoSleepS
 541 021e 09E0     		b	.L19
 542              	.L20:
 543              	.LBE10:
 544              		.loc 6 232 0
 545 0220 019B     		ldr	r3, [sp, #4]
 546 0222 029A     		ldr	r2, [sp, #8]
 547 0224 9A60     		str	r2, [r3, #8]
 548              		.loc 6 233 0
 549 0226 029B     		ldr	r3, [sp, #8]
 550 0228 9A6B     		ldr	r2, [r3, #56]
 551 022a 019B     		ldr	r3, [sp, #4]
 552 022c DA60     		str	r2, [r3, #12]
 553              		.loc 6 234 0
 554 022e 029B     		ldr	r3, [sp, #8]
 555 0230 019A     		ldr	r2, [sp, #4]
 556 0232 9A63     		str	r2, [r3, #56]
 557              	.L19:
 558              		.loc 6 236 0
 559 0234 05B0     		add	sp, sp, #20
 560              		@ sp needed
 561 0236 5DF804FB 		ldr	pc, [sp], #4
ARM GAS  /tmp/ccYXMJUB.s 			page 11


 562              	.L31:
 563 023a 00BF     		.align	2
 564              	.L30:
 565 023c 00000000 		.word	ch
 566              		.cfi_endproc
 567              	.LFE232:
 568              		.size	chMtxLockS, .-chMtxLockS
 569              		.align	2
 570              		.p2align 4,,15
 571              		.global	chMtxTryLock
 572              		.thumb
 573              		.thumb_func
 574              		.type	chMtxTryLock, %function
 575              	chMtxTryLock:
 576              	.LFB233:
 577              		.loc 6 255 0
 578              		.cfi_startproc
 579              		@ args = 0, pretend = 0, frame = 16
 580              		@ frame_needed = 0, uses_anonymous_args = 0
 581 0240 00B5     		push	{lr}
 582              		.cfi_def_cfa_offset 4
 583              		.cfi_offset 14, -4
 584 0242 85B0     		sub	sp, sp, #20
 585              		.cfi_def_cfa_offset 24
 586 0244 0190     		str	r0, [sp, #4]
 587              		.loc 6 258 0
 588 0246 FFF75BFF 		bl	chSysLock
 589              		.loc 6 259 0
 590 024a 0198     		ldr	r0, [sp, #4]
 591 024c FFF7FEFF 		bl	chMtxTryLockS
 592 0250 0346     		mov	r3, r0
 593 0252 8DF80F30 		strb	r3, [sp, #15]
 594              		.loc 6 260 0
 595 0256 FFF75BFF 		bl	chSysUnlock
 596              		.loc 6 262 0
 597 025a 9DF80F30 		ldrb	r3, [sp, #15]	@ zero_extendqisi2
 598              		.loc 6 263 0
 599 025e 1846     		mov	r0, r3
 600 0260 05B0     		add	sp, sp, #20
 601              		@ sp needed
 602 0262 5DF804FB 		ldr	pc, [sp], #4
 603              		.cfi_endproc
 604              	.LFE233:
 605              		.size	chMtxTryLock, .-chMtxTryLock
 606 0266 00BF     		.align	2
 607 0268 AFF30080 		.p2align 4,,15
 607      AFF30080 
 608              		.global	chMtxTryLockS
 609              		.thumb
 610              		.thumb_func
 611              		.type	chMtxTryLockS, %function
 612              	chMtxTryLockS:
 613              	.LFB234:
 614              		.loc 6 282 0
 615              		.cfi_startproc
 616              		@ args = 0, pretend = 0, frame = 8
 617              		@ frame_needed = 0, uses_anonymous_args = 0
ARM GAS  /tmp/ccYXMJUB.s 			page 12


 618              		@ link register save eliminated.
 619 0270 82B0     		sub	sp, sp, #8
 620              		.cfi_def_cfa_offset 8
 621 0272 0190     		str	r0, [sp, #4]
 622              		.loc 6 287 0
 623 0274 019B     		ldr	r3, [sp, #4]
 624 0276 9B68     		ldr	r3, [r3, #8]
 625 0278 002B     		cmp	r3, #0
 626 027a 01D0     		beq	.L35
 627              		.loc 6 297 0
 628 027c 0023     		movs	r3, #0
 629 027e 0DE0     		b	.L36
 630              	.L35:
 631              		.loc 6 305 0
 632 0280 084B     		ldr	r3, .L37
 633 0282 9A69     		ldr	r2, [r3, #24]
 634 0284 019B     		ldr	r3, [sp, #4]
 635 0286 9A60     		str	r2, [r3, #8]
 636              		.loc 6 306 0
 637 0288 064B     		ldr	r3, .L37
 638 028a 9B69     		ldr	r3, [r3, #24]
 639 028c 9A6B     		ldr	r2, [r3, #56]
 640 028e 019B     		ldr	r3, [sp, #4]
 641 0290 DA60     		str	r2, [r3, #12]
 642              		.loc 6 307 0
 643 0292 044B     		ldr	r3, .L37
 644 0294 9B69     		ldr	r3, [r3, #24]
 645 0296 019A     		ldr	r2, [sp, #4]
 646 0298 9A63     		str	r2, [r3, #56]
 647              		.loc 6 308 0
 648 029a 0123     		movs	r3, #1
 649              	.L36:
 650              		.loc 6 309 0
 651 029c 1846     		mov	r0, r3
 652 029e 02B0     		add	sp, sp, #8
 653              		@ sp needed
 654 02a0 7047     		bx	lr
 655              	.L38:
 656 02a2 00BF     		.align	2
 657              	.L37:
 658 02a4 00000000 		.word	ch
 659              		.cfi_endproc
 660              	.LFE234:
 661              		.size	chMtxTryLockS, .-chMtxTryLockS
 662              		.align	2
 663 02a8 AFF30080 		.p2align 4,,15
 663      AFF30080 
 664              		.global	chMtxUnlock
 665              		.thumb
 666              		.thumb_func
 667              		.type	chMtxUnlock, %function
 668              	chMtxUnlock:
 669              	.LFB235:
 670              		.loc 6 323 0
 671              		.cfi_startproc
 672              		@ args = 0, pretend = 0, frame = 24
 673              		@ frame_needed = 0, uses_anonymous_args = 0
ARM GAS  /tmp/ccYXMJUB.s 			page 13


 674 02b0 00B5     		push	{lr}
 675              		.cfi_def_cfa_offset 4
 676              		.cfi_offset 14, -4
 677 02b2 87B0     		sub	sp, sp, #28
 678              		.cfi_def_cfa_offset 32
 679 02b4 0190     		str	r0, [sp, #4]
 680              		.loc 6 324 0
 681 02b6 264B     		ldr	r3, .L45
 682 02b8 9B69     		ldr	r3, [r3, #24]
 683 02ba 0393     		str	r3, [sp, #12]
 684              		.loc 6 329 0
 685 02bc FFF720FF 		bl	chSysLock
 686              		.loc 6 344 0
 687 02c0 019B     		ldr	r3, [sp, #4]
 688 02c2 DA68     		ldr	r2, [r3, #12]
 689 02c4 039B     		ldr	r3, [sp, #12]
 690 02c6 9A63     		str	r2, [r3, #56]
 691              		.loc 6 347 0
 692 02c8 0198     		ldr	r0, [sp, #4]
 693 02ca FFF729FF 		bl	chMtxQueueNotEmptyS
 694 02ce 0346     		mov	r3, r0
 695 02d0 002B     		cmp	r3, #0
 696 02d2 34D0     		beq	.L40
 697              	.LBB11:
 698              		.loc 6 352 0
 699 02d4 039B     		ldr	r3, [sp, #12]
 700 02d6 DB6B     		ldr	r3, [r3, #60]
 701 02d8 0493     		str	r3, [sp, #16]
 702              		.loc 6 353 0
 703 02da 039B     		ldr	r3, [sp, #12]
 704 02dc 9B6B     		ldr	r3, [r3, #56]
 705 02de 0593     		str	r3, [sp, #20]
 706              		.loc 6 354 0
 707 02e0 12E0     		b	.L41
 708              	.L43:
 709              		.loc 6 358 0
 710 02e2 0598     		ldr	r0, [sp, #20]
 711 02e4 FFF71CFF 		bl	chMtxQueueNotEmptyS
 712 02e8 0346     		mov	r3, r0
 713 02ea 002B     		cmp	r3, #0
 714 02ec 09D0     		beq	.L42
 715              		.loc 6 359 0 discriminator 1
 716 02ee 059B     		ldr	r3, [sp, #20]
 717 02f0 1B68     		ldr	r3, [r3]
 718 02f2 9A68     		ldr	r2, [r3, #8]
 719              		.loc 6 358 0 discriminator 1
 720 02f4 049B     		ldr	r3, [sp, #16]
 721 02f6 9A42     		cmp	r2, r3
 722 02f8 03D9     		bls	.L42
 723              		.loc 6 360 0
 724 02fa 059B     		ldr	r3, [sp, #20]
 725 02fc 1B68     		ldr	r3, [r3]
 726 02fe 9B68     		ldr	r3, [r3, #8]
 727 0300 0493     		str	r3, [sp, #16]
 728              	.L42:
 729              		.loc 6 362 0
 730 0302 059B     		ldr	r3, [sp, #20]
ARM GAS  /tmp/ccYXMJUB.s 			page 14


 731 0304 DB68     		ldr	r3, [r3, #12]
 732 0306 0593     		str	r3, [sp, #20]
 733              	.L41:
 734              		.loc 6 354 0 discriminator 1
 735 0308 059B     		ldr	r3, [sp, #20]
 736 030a 002B     		cmp	r3, #0
 737 030c E9D1     		bne	.L43
 738              		.loc 6 367 0
 739 030e 039B     		ldr	r3, [sp, #12]
 740 0310 049A     		ldr	r2, [sp, #16]
 741 0312 9A60     		str	r2, [r3, #8]
 742              		.loc 6 374 0
 743 0314 019B     		ldr	r3, [sp, #4]
 744 0316 1846     		mov	r0, r3
 745 0318 FFF7CAFE 		bl	queue_fifo_remove
 746 031c 0290     		str	r0, [sp, #8]
 747              		.loc 6 375 0
 748 031e 019B     		ldr	r3, [sp, #4]
 749 0320 029A     		ldr	r2, [sp, #8]
 750 0322 9A60     		str	r2, [r3, #8]
 751              		.loc 6 376 0
 752 0324 029B     		ldr	r3, [sp, #8]
 753 0326 9A6B     		ldr	r2, [r3, #56]
 754 0328 019B     		ldr	r3, [sp, #4]
 755 032a DA60     		str	r2, [r3, #12]
 756              		.loc 6 377 0
 757 032c 029B     		ldr	r3, [sp, #8]
 758 032e 019A     		ldr	r2, [sp, #4]
 759 0330 9A63     		str	r2, [r3, #56]
 760              		.loc 6 383 0
 761 0332 0298     		ldr	r0, [sp, #8]
 762 0334 FFF7FEFF 		bl	chSchReadyI
 763              		.loc 6 384 0
 764 0338 FFF7FEFF 		bl	chSchRescheduleS
 765              	.LBE11:
 766 033c 02E0     		b	.L44
 767              	.L40:
 768              		.loc 6 387 0
 769 033e 019B     		ldr	r3, [sp, #4]
 770 0340 0022     		movs	r2, #0
 771 0342 9A60     		str	r2, [r3, #8]
 772              	.L44:
 773              		.loc 6 393 0
 774 0344 FFF7E4FE 		bl	chSysUnlock
 775              		.loc 6 394 0
 776 0348 07B0     		add	sp, sp, #28
 777              		@ sp needed
 778 034a 5DF804FB 		ldr	pc, [sp], #4
 779              	.L46:
 780 034e 00BF     		.align	2
 781              	.L45:
 782 0350 00000000 		.word	ch
 783              		.cfi_endproc
 784              	.LFE235:
 785              		.size	chMtxUnlock, .-chMtxUnlock
 786              		.align	2
 787 0354 AFF30080 		.p2align 4,,15
ARM GAS  /tmp/ccYXMJUB.s 			page 15


 787      AFF30080 
 787      AFF30080 
 788              		.global	chMtxUnlockS
 789              		.thumb
 790              		.thumb_func
 791              		.type	chMtxUnlockS, %function
 792              	chMtxUnlockS:
 793              	.LFB236:
 794              		.loc 6 410 0
 795              		.cfi_startproc
 796              		@ args = 0, pretend = 0, frame = 24
 797              		@ frame_needed = 0, uses_anonymous_args = 0
 798 0360 00B5     		push	{lr}
 799              		.cfi_def_cfa_offset 4
 800              		.cfi_offset 14, -4
 801 0362 87B0     		sub	sp, sp, #28
 802              		.cfi_def_cfa_offset 32
 803 0364 0190     		str	r0, [sp, #4]
 804              		.loc 6 411 0
 805 0366 234B     		ldr	r3, .L53
 806 0368 9B69     		ldr	r3, [r3, #24]
 807 036a 0393     		str	r3, [sp, #12]
 808              		.loc 6 430 0
 809 036c 019B     		ldr	r3, [sp, #4]
 810 036e DA68     		ldr	r2, [r3, #12]
 811 0370 039B     		ldr	r3, [sp, #12]
 812 0372 9A63     		str	r2, [r3, #56]
 813              		.loc 6 433 0
 814 0374 0198     		ldr	r0, [sp, #4]
 815 0376 FFF7D3FE 		bl	chMtxQueueNotEmptyS
 816 037a 0346     		mov	r3, r0
 817 037c 002B     		cmp	r3, #0
 818 037e 32D0     		beq	.L48
 819              	.LBB12:
 820              		.loc 6 438 0
 821 0380 039B     		ldr	r3, [sp, #12]
 822 0382 DB6B     		ldr	r3, [r3, #60]
 823 0384 0493     		str	r3, [sp, #16]
 824              		.loc 6 439 0
 825 0386 039B     		ldr	r3, [sp, #12]
 826 0388 9B6B     		ldr	r3, [r3, #56]
 827 038a 0593     		str	r3, [sp, #20]
 828              		.loc 6 440 0
 829 038c 12E0     		b	.L49
 830              	.L51:
 831              		.loc 6 444 0
 832 038e 0598     		ldr	r0, [sp, #20]
 833 0390 FFF7C6FE 		bl	chMtxQueueNotEmptyS
 834 0394 0346     		mov	r3, r0
 835 0396 002B     		cmp	r3, #0
 836 0398 09D0     		beq	.L50
 837              		.loc 6 445 0 discriminator 1
 838 039a 059B     		ldr	r3, [sp, #20]
 839 039c 1B68     		ldr	r3, [r3]
 840 039e 9A68     		ldr	r2, [r3, #8]
 841              		.loc 6 444 0 discriminator 1
 842 03a0 049B     		ldr	r3, [sp, #16]
ARM GAS  /tmp/ccYXMJUB.s 			page 16


 843 03a2 9A42     		cmp	r2, r3
 844 03a4 03D9     		bls	.L50
 845              		.loc 6 446 0
 846 03a6 059B     		ldr	r3, [sp, #20]
 847 03a8 1B68     		ldr	r3, [r3]
 848 03aa 9B68     		ldr	r3, [r3, #8]
 849 03ac 0493     		str	r3, [sp, #16]
 850              	.L50:
 851              		.loc 6 448 0
 852 03ae 059B     		ldr	r3, [sp, #20]
 853 03b0 DB68     		ldr	r3, [r3, #12]
 854 03b2 0593     		str	r3, [sp, #20]
 855              	.L49:
 856              		.loc 6 440 0 discriminator 1
 857 03b4 059B     		ldr	r3, [sp, #20]
 858 03b6 002B     		cmp	r3, #0
 859 03b8 E9D1     		bne	.L51
 860              		.loc 6 453 0
 861 03ba 039B     		ldr	r3, [sp, #12]
 862 03bc 049A     		ldr	r2, [sp, #16]
 863 03be 9A60     		str	r2, [r3, #8]
 864              		.loc 6 460 0
 865 03c0 019B     		ldr	r3, [sp, #4]
 866 03c2 1846     		mov	r0, r3
 867 03c4 FFF774FE 		bl	queue_fifo_remove
 868 03c8 0290     		str	r0, [sp, #8]
 869              		.loc 6 461 0
 870 03ca 019B     		ldr	r3, [sp, #4]
 871 03cc 029A     		ldr	r2, [sp, #8]
 872 03ce 9A60     		str	r2, [r3, #8]
 873              		.loc 6 462 0
 874 03d0 029B     		ldr	r3, [sp, #8]
 875 03d2 9A6B     		ldr	r2, [r3, #56]
 876 03d4 019B     		ldr	r3, [sp, #4]
 877 03d6 DA60     		str	r2, [r3, #12]
 878              		.loc 6 463 0
 879 03d8 029B     		ldr	r3, [sp, #8]
 880 03da 019A     		ldr	r2, [sp, #4]
 881 03dc 9A63     		str	r2, [r3, #56]
 882              		.loc 6 464 0
 883 03de 0298     		ldr	r0, [sp, #8]
 884 03e0 FFF7FEFF 		bl	chSchReadyI
 885              	.LBE12:
 886 03e4 02E0     		b	.L47
 887              	.L48:
 888              		.loc 6 467 0
 889 03e6 019B     		ldr	r3, [sp, #4]
 890 03e8 0022     		movs	r2, #0
 891 03ea 9A60     		str	r2, [r3, #8]
 892              	.L47:
 893              		.loc 6 472 0
 894 03ec 07B0     		add	sp, sp, #28
 895              		@ sp needed
 896 03ee 5DF804FB 		ldr	pc, [sp], #4
 897              	.L54:
 898 03f2 00BF     		.align	2
 899              	.L53:
ARM GAS  /tmp/ccYXMJUB.s 			page 17


 900 03f4 00000000 		.word	ch
 901              		.cfi_endproc
 902              	.LFE236:
 903              		.size	chMtxUnlockS, .-chMtxUnlockS
 904              		.align	2
 905 03f8 AFF30080 		.p2align 4,,15
 905      AFF30080 
 906              		.global	chMtxUnlockAll
 907              		.thumb
 908              		.thumb_func
 909              		.type	chMtxUnlockAll, %function
 910              	chMtxUnlockAll:
 911              	.LFB237:
 912              		.loc 6 485 0
 913              		.cfi_startproc
 914              		@ args = 0, pretend = 0, frame = 16
 915              		@ frame_needed = 0, uses_anonymous_args = 0
 916 0400 00B5     		push	{lr}
 917              		.cfi_def_cfa_offset 4
 918              		.cfi_offset 14, -4
 919 0402 85B0     		sub	sp, sp, #20
 920              		.cfi_def_cfa_offset 24
 921              		.loc 6 486 0
 922 0404 1D4B     		ldr	r3, .L60
 923 0406 9B69     		ldr	r3, [r3, #24]
 924 0408 0393     		str	r3, [sp, #12]
 925              		.loc 6 488 0
 926 040a FFF779FE 		bl	chSysLock
 927              		.loc 6 489 0
 928 040e 039B     		ldr	r3, [sp, #12]
 929 0410 9B6B     		ldr	r3, [r3, #56]
 930 0412 002B     		cmp	r3, #0
 931 0414 2CD0     		beq	.L56
 932              	.L59:
 933              	.LBB13:
 934              		.loc 6 491 0
 935 0416 039B     		ldr	r3, [sp, #12]
 936 0418 9B6B     		ldr	r3, [r3, #56]
 937 041a 0293     		str	r3, [sp, #8]
 938              		.loc 6 492 0
 939 041c 029B     		ldr	r3, [sp, #8]
 940 041e DA68     		ldr	r2, [r3, #12]
 941 0420 039B     		ldr	r3, [sp, #12]
 942 0422 9A63     		str	r2, [r3, #56]
 943              		.loc 6 493 0
 944 0424 0298     		ldr	r0, [sp, #8]
 945 0426 FFF77BFE 		bl	chMtxQueueNotEmptyS
 946 042a 0346     		mov	r3, r0
 947 042c 002B     		cmp	r3, #0
 948 042e 12D0     		beq	.L57
 949              	.LBB14:
 950              		.loc 6 497 0
 951 0430 029B     		ldr	r3, [sp, #8]
 952 0432 1846     		mov	r0, r3
 953 0434 FFF73CFE 		bl	queue_fifo_remove
 954 0438 0190     		str	r0, [sp, #4]
 955              		.loc 6 498 0
ARM GAS  /tmp/ccYXMJUB.s 			page 18


 956 043a 029B     		ldr	r3, [sp, #8]
 957 043c 019A     		ldr	r2, [sp, #4]
 958 043e 9A60     		str	r2, [r3, #8]
 959              		.loc 6 499 0
 960 0440 019B     		ldr	r3, [sp, #4]
 961 0442 9A6B     		ldr	r2, [r3, #56]
 962 0444 029B     		ldr	r3, [sp, #8]
 963 0446 DA60     		str	r2, [r3, #12]
 964              		.loc 6 500 0
 965 0448 019B     		ldr	r3, [sp, #4]
 966 044a 029A     		ldr	r2, [sp, #8]
 967 044c 9A63     		str	r2, [r3, #56]
 968              		.loc 6 501 0
 969 044e 0198     		ldr	r0, [sp, #4]
 970 0450 FFF7FEFF 		bl	chSchReadyI
 971              	.LBE14:
 972 0454 02E0     		b	.L58
 973              	.L57:
 974              		.loc 6 507 0
 975 0456 029B     		ldr	r3, [sp, #8]
 976 0458 0022     		movs	r2, #0
 977 045a 9A60     		str	r2, [r3, #8]
 978              	.L58:
 979              	.LBE13:
 980              		.loc 6 509 0
 981 045c 039B     		ldr	r3, [sp, #12]
 982 045e 9B6B     		ldr	r3, [r3, #56]
 983 0460 002B     		cmp	r3, #0
 984 0462 D8D1     		bne	.L59
 985              		.loc 6 510 0
 986 0464 039B     		ldr	r3, [sp, #12]
 987 0466 DA6B     		ldr	r2, [r3, #60]
 988 0468 039B     		ldr	r3, [sp, #12]
 989 046a 9A60     		str	r2, [r3, #8]
 990              		.loc 6 511 0
 991 046c FFF7FEFF 		bl	chSchRescheduleS
 992              	.L56:
 993              		.loc 6 513 0
 994 0470 FFF74EFE 		bl	chSysUnlock
 995              		.loc 6 514 0
 996 0474 05B0     		add	sp, sp, #20
 997              		@ sp needed
 998 0476 5DF804FB 		ldr	pc, [sp], #4
 999              	.L61:
 1000 047a 00BF     		.align	2
 1001              	.L60:
 1002 047c 00000000 		.word	ch
 1003              		.cfi_endproc
 1004              	.LFE237:
 1005              		.size	chMtxUnlockAll, .-chMtxUnlockAll
 1006              	.Letext0:
 1007              		.file 7 "/nfs/nfs5/home/research/hardware/arm2/gcc-arm-embedded/gcc-arm-none-eabi-4_8-2014q2/arm-n
 1008              		.file 8 "/nfs/nfs5/home/research/hardware/arm2/gcc-arm-embedded/gcc-arm-none-eabi-4_8-2014q2/arm-n
 1009              		.file 9 "../../ChibiOS/os/rt/ports/ARMCMx/compilers/GCC/chtypes.h"
 1010              		.file 10 "../../ChibiOS/os/rt/include/chsystypes.h"
 1011              		.file 11 "../../ChibiOS/os/rt/ports/ARMCMx/chcore.h"
 1012              		.file 12 "../../ChibiOS/os/rt/include/chtm.h"
ARM GAS  /tmp/ccYXMJUB.s 			page 19


 1013              		.file 13 "../../ChibiOS/os/rt/include/chsem.h"
 1014              		.file 14 "../../ChibiOS/os/ext/CMSIS/include/core_cm4.h"
 1015              		.section	.debug_info,"",%progbits
 1016              	.Ldebug_info0:
 1017 0000 D90A0000 		.4byte	0xad9
 1018 0004 0400     		.2byte	0x4
 1019 0006 00000000 		.4byte	.Ldebug_abbrev0
 1020 000a 04       		.byte	0x4
 1021 000b 01       		.uleb128 0x1
 1022 000c 83020000 		.4byte	.LASF124
 1023 0010 01       		.byte	0x1
 1024 0011 23050000 		.4byte	.LASF125
 1025 0015 5D000000 		.4byte	.LASF126
 1026 0019 00000000 		.4byte	.Ltext0
 1027 001d 80040000 		.4byte	.Letext0-.Ltext0
 1028 0021 00000000 		.4byte	.Ldebug_line0
 1029 0025 02       		.uleb128 0x2
 1030 0026 04       		.byte	0x4
 1031 0027 05       		.byte	0x5
 1032 0028 696E7400 		.ascii	"int\000"
 1033 002c 03       		.uleb128 0x3
 1034 002d 04       		.byte	0x4
 1035 002e 07       		.byte	0x7
 1036 002f 08020000 		.4byte	.LASF0
 1037 0033 03       		.uleb128 0x3
 1038 0034 01       		.byte	0x1
 1039 0035 06       		.byte	0x6
 1040 0036 16010000 		.4byte	.LASF1
 1041 003a 04       		.uleb128 0x4
 1042 003b 23000000 		.4byte	.LASF5
 1043 003f 07       		.byte	0x7
 1044 0040 1C       		.byte	0x1c
 1045 0041 45000000 		.4byte	0x45
 1046 0045 03       		.uleb128 0x3
 1047 0046 01       		.byte	0x1
 1048 0047 08       		.byte	0x8
 1049 0048 65040000 		.4byte	.LASF2
 1050 004c 03       		.uleb128 0x3
 1051 004d 02       		.byte	0x2
 1052 004e 05       		.byte	0x5
 1053 004f 85040000 		.4byte	.LASF3
 1054 0053 03       		.uleb128 0x3
 1055 0054 02       		.byte	0x2
 1056 0055 07       		.byte	0x7
 1057 0056 35020000 		.4byte	.LASF4
 1058 005a 04       		.uleb128 0x4
 1059 005b 54030000 		.4byte	.LASF6
 1060 005f 07       		.byte	0x7
 1061 0060 37       		.byte	0x37
 1062 0061 65000000 		.4byte	0x65
 1063 0065 03       		.uleb128 0x3
 1064 0066 04       		.byte	0x4
 1065 0067 05       		.byte	0x5
 1066 0068 59010000 		.4byte	.LASF7
 1067 006c 04       		.uleb128 0x4
 1068 006d 93050000 		.4byte	.LASF8
 1069 0071 07       		.byte	0x7
ARM GAS  /tmp/ccYXMJUB.s 			page 20


 1070 0072 38       		.byte	0x38
 1071 0073 77000000 		.4byte	0x77
 1072 0077 03       		.uleb128 0x3
 1073 0078 04       		.byte	0x4
 1074 0079 07       		.byte	0x7
 1075 007a 43050000 		.4byte	.LASF9
 1076 007e 03       		.uleb128 0x3
 1077 007f 08       		.byte	0x8
 1078 0080 05       		.byte	0x5
 1079 0081 88010000 		.4byte	.LASF10
 1080 0085 04       		.uleb128 0x4
 1081 0086 05040000 		.4byte	.LASF11
 1082 008a 07       		.byte	0x7
 1083 008b 4E       		.byte	0x4e
 1084 008c 90000000 		.4byte	0x90
 1085 0090 03       		.uleb128 0x3
 1086 0091 08       		.byte	0x8
 1087 0092 07       		.byte	0x7
 1088 0093 A4000000 		.4byte	.LASF12
 1089 0097 04       		.uleb128 0x4
 1090 0098 00060000 		.4byte	.LASF13
 1091 009c 08       		.byte	0x8
 1092 009d 2A       		.byte	0x2a
 1093 009e 3A000000 		.4byte	0x3a
 1094 00a2 04       		.uleb128 0x4
 1095 00a3 5D040000 		.4byte	.LASF14
 1096 00a7 08       		.byte	0x8
 1097 00a8 41       		.byte	0x41
 1098 00a9 5A000000 		.4byte	0x5a
 1099 00ad 04       		.uleb128 0x4
 1100 00ae F2040000 		.4byte	.LASF15
 1101 00b2 08       		.byte	0x8
 1102 00b3 42       		.byte	0x42
 1103 00b4 6C000000 		.4byte	0x6c
 1104 00b8 04       		.uleb128 0x4
 1105 00b9 1A000000 		.4byte	.LASF16
 1106 00bd 08       		.byte	0x8
 1107 00be 4E       		.byte	0x4e
 1108 00bf 85000000 		.4byte	0x85
 1109 00c3 04       		.uleb128 0x4
 1110 00c4 CB050000 		.4byte	.LASF17
 1111 00c8 09       		.byte	0x9
 1112 00c9 39       		.byte	0x39
 1113 00ca AD000000 		.4byte	0xad
 1114 00ce 04       		.uleb128 0x4
 1115 00cf 7B020000 		.4byte	.LASF18
 1116 00d3 09       		.byte	0x9
 1117 00d4 3C       		.byte	0x3c
 1118 00d5 97000000 		.4byte	0x97
 1119 00d9 04       		.uleb128 0x4
 1120 00da 70010000 		.4byte	.LASF19
 1121 00de 09       		.byte	0x9
 1122 00df 3D       		.byte	0x3d
 1123 00e0 97000000 		.4byte	0x97
 1124 00e4 04       		.uleb128 0x4
 1125 00e5 10040000 		.4byte	.LASF20
 1126 00e9 09       		.byte	0x9
ARM GAS  /tmp/ccYXMJUB.s 			page 21


 1127 00ea 3E       		.byte	0x3e
 1128 00eb 97000000 		.4byte	0x97
 1129 00ef 04       		.uleb128 0x4
 1130 00f0 45010000 		.4byte	.LASF21
 1131 00f4 09       		.byte	0x9
 1132 00f5 3F       		.byte	0x3f
 1133 00f6 97000000 		.4byte	0x97
 1134 00fa 04       		.uleb128 0x4
 1135 00fb 2F040000 		.4byte	.LASF22
 1136 00ff 09       		.byte	0x9
 1137 0100 40       		.byte	0x40
 1138 0101 AD000000 		.4byte	0xad
 1139 0105 04       		.uleb128 0x4
 1140 0106 52020000 		.4byte	.LASF23
 1141 010a 09       		.byte	0x9
 1142 010b 41       		.byte	0x41
 1143 010c A2000000 		.4byte	0xa2
 1144 0110 04       		.uleb128 0x4
 1145 0111 3B030000 		.4byte	.LASF24
 1146 0115 09       		.byte	0x9
 1147 0116 43       		.byte	0x43
 1148 0117 AD000000 		.4byte	0xad
 1149 011b 04       		.uleb128 0x4
 1150 011c F5010000 		.4byte	.LASF25
 1151 0120 09       		.byte	0x9
 1152 0121 45       		.byte	0x45
 1153 0122 A2000000 		.4byte	0xa2
 1154 0126 04       		.uleb128 0x4
 1155 0127 75050000 		.4byte	.LASF26
 1156 012b 0A       		.byte	0xa
 1157 012c 33       		.byte	0x33
 1158 012d AD000000 		.4byte	0xad
 1159 0131 04       		.uleb128 0x4
 1160 0132 5A050000 		.4byte	.LASF27
 1161 0136 0A       		.byte	0xa
 1162 0137 3F       		.byte	0x3f
 1163 0138 3C010000 		.4byte	0x13c
 1164 013c 05       		.uleb128 0x5
 1165 013d 48020000 		.4byte	.LASF48
 1166 0141 44       		.byte	0x44
 1167 0142 03       		.byte	0x3
 1168 0143 C2       		.byte	0xc2
 1169 0144 35020000 		.4byte	0x235
 1170 0148 06       		.uleb128 0x6
 1171 0149 A7040000 		.4byte	.LASF28
 1172 014d 03       		.byte	0x3
 1173 014e C3       		.byte	0xc3
 1174 014f 40020000 		.4byte	0x240
 1175 0153 00       		.byte	0
 1176 0154 06       		.uleb128 0x6
 1177 0155 28040000 		.4byte	.LASF29
 1178 0159 03       		.byte	0x3
 1179 015a C5       		.byte	0xc5
 1180 015b 40020000 		.4byte	0x240
 1181 015f 04       		.byte	0x4
 1182 0160 06       		.uleb128 0x6
 1183 0161 03010000 		.4byte	.LASF30
ARM GAS  /tmp/ccYXMJUB.s 			page 22


 1184 0165 03       		.byte	0x3
 1185 0166 C7       		.byte	0xc7
 1186 0167 FA000000 		.4byte	0xfa
 1187 016b 08       		.byte	0x8
 1188 016c 06       		.uleb128 0x6
 1189 016d 4D060000 		.4byte	.LASF31
 1190 0171 03       		.byte	0x3
 1191 0172 C8       		.byte	0xc8
 1192 0173 70040000 		.4byte	0x470
 1193 0177 0C       		.byte	0xc
 1194 0178 06       		.uleb128 0x6
 1195 0179 AF010000 		.4byte	.LASF32
 1196 017d 03       		.byte	0x3
 1197 017e CA       		.byte	0xca
 1198 017f 40020000 		.4byte	0x240
 1199 0183 10       		.byte	0x10
 1200 0184 06       		.uleb128 0x6
 1201 0185 CD030000 		.4byte	.LASF33
 1202 0189 03       		.byte	0x3
 1203 018a CB       		.byte	0xcb
 1204 018b 40020000 		.4byte	0x240
 1205 018f 14       		.byte	0x14
 1206 0190 06       		.uleb128 0x6
 1207 0191 0F060000 		.4byte	.LASF34
 1208 0195 03       		.byte	0x3
 1209 0196 D2       		.byte	0xd2
 1210 0197 EF050000 		.4byte	0x5ef
 1211 019b 18       		.byte	0x18
 1212 019c 06       		.uleb128 0x6
 1213 019d 73040000 		.4byte	.LASF35
 1214 01a1 03       		.byte	0x3
 1215 01a2 DD       		.byte	0xdd
 1216 01a3 D9000000 		.4byte	0xd9
 1217 01a7 1C       		.byte	0x1c
 1218 01a8 06       		.uleb128 0x6
 1219 01a9 AE040000 		.4byte	.LASF36
 1220 01ad 03       		.byte	0x3
 1221 01ae E1       		.byte	0xe1
 1222 01af CE000000 		.4byte	0xce
 1223 01b3 1D       		.byte	0x1d
 1224 01b4 06       		.uleb128 0x6
 1225 01b5 F3050000 		.4byte	.LASF37
 1226 01b9 03       		.byte	0x3
 1227 01ba E6       		.byte	0xe6
 1228 01bb E4000000 		.4byte	0xe4
 1229 01bf 1E       		.byte	0x1e
 1230 01c0 06       		.uleb128 0x6
 1231 01c1 8F040000 		.4byte	.LASF38
 1232 01c5 03       		.byte	0x3
 1233 01c6 EC       		.byte	0xec
 1234 01c7 EF000000 		.4byte	0xef
 1235 01cb 1F       		.byte	0x1f
 1236 01cc 07       		.uleb128 0x7
 1237 01cd 705F7500 		.ascii	"p_u\000"
 1238 01d1 03       		.byte	0x3
 1239 01d2 3101     		.2byte	0x131
 1240 01d4 2A050000 		.4byte	0x52a
ARM GAS  /tmp/ccYXMJUB.s 			page 23


 1241 01d8 20       		.byte	0x20
 1242 01d9 08       		.uleb128 0x8
 1243 01da 78030000 		.4byte	.LASF39
 1244 01de 03       		.byte	0x3
 1245 01df 3601     		.2byte	0x136
 1246 01e1 46020000 		.4byte	0x246
 1247 01e5 24       		.byte	0x24
 1248 01e6 08       		.uleb128 0x8
 1249 01e7 24020000 		.4byte	.LASF40
 1250 01eb 03       		.byte	0x3
 1251 01ec 3C01     		.2byte	0x13c
 1252 01ee 6A020000 		.4byte	0x26a
 1253 01f2 28       		.byte	0x28
 1254 01f3 08       		.uleb128 0x8
 1255 01f4 2D060000 		.4byte	.LASF41
 1256 01f8 03       		.byte	0x3
 1257 01f9 4001     		.2byte	0x140
 1258 01fb 05010000 		.4byte	0x105
 1259 01ff 30       		.byte	0x30
 1260 0200 08       		.uleb128 0x8
 1261 0201 E7040000 		.4byte	.LASF42
 1262 0205 03       		.byte	0x3
 1263 0206 4601     		.2byte	0x146
 1264 0208 10010000 		.4byte	0x110
 1265 020c 34       		.byte	0x34
 1266 020d 08       		.uleb128 0x8
 1267 020e 7B040000 		.4byte	.LASF43
 1268 0212 03       		.byte	0x3
 1269 0213 4D01     		.2byte	0x14d
 1270 0215 E9050000 		.4byte	0x5e9
 1271 0219 38       		.byte	0x38
 1272 021a 08       		.uleb128 0x8
 1273 021b 7F050000 		.4byte	.LASF44
 1274 021f 03       		.byte	0x3
 1275 0220 5101     		.2byte	0x151
 1276 0222 FA000000 		.4byte	0xfa
 1277 0226 3C       		.byte	0x3c
 1278 0227 08       		.uleb128 0x8
 1279 0228 22010000 		.4byte	.LASF45
 1280 022c 03       		.byte	0x3
 1281 022d 5801     		.2byte	0x158
 1282 022f 1D030000 		.4byte	0x31d
 1283 0233 40       		.byte	0x40
 1284 0234 00       		.byte	0
 1285 0235 04       		.uleb128 0x4
 1286 0236 8B030000 		.4byte	.LASF46
 1287 023a 0A       		.byte	0xa
 1288 023b 44       		.byte	0x44
 1289 023c 40020000 		.4byte	0x240
 1290 0240 09       		.uleb128 0x9
 1291 0241 04       		.byte	0x4
 1292 0242 31010000 		.4byte	0x131
 1293 0246 04       		.uleb128 0x4
 1294 0247 69030000 		.4byte	.LASF47
 1295 024b 0A       		.byte	0xa
 1296 024c 49       		.byte	0x49
 1297 024d 51020000 		.4byte	0x251
ARM GAS  /tmp/ccYXMJUB.s 			page 24


 1298 0251 05       		.uleb128 0x5
 1299 0252 13050000 		.4byte	.LASF49
 1300 0256 04       		.byte	0x4
 1301 0257 03       		.byte	0x3
 1302 0258 B0       		.byte	0xb0
 1303 0259 6A020000 		.4byte	0x26a
 1304 025d 06       		.uleb128 0x6
 1305 025e A7040000 		.4byte	.LASF28
 1306 0262 03       		.byte	0x3
 1307 0263 B1       		.byte	0xb1
 1308 0264 40020000 		.4byte	0x240
 1309 0268 00       		.byte	0
 1310 0269 00       		.byte	0
 1311 026a 04       		.uleb128 0x4
 1312 026b DA050000 		.4byte	.LASF50
 1313 026f 0A       		.byte	0xa
 1314 0270 50       		.byte	0x50
 1315 0271 75020000 		.4byte	0x275
 1316 0275 05       		.uleb128 0x5
 1317 0276 F2000000 		.4byte	.LASF51
 1318 027a 08       		.byte	0x8
 1319 027b 03       		.byte	0x3
 1320 027c B7       		.byte	0xb7
 1321 027d 9A020000 		.4byte	0x29a
 1322 0281 06       		.uleb128 0x6
 1323 0282 A7040000 		.4byte	.LASF28
 1324 0286 03       		.byte	0x3
 1325 0287 B8       		.byte	0xb8
 1326 0288 40020000 		.4byte	0x240
 1327 028c 00       		.byte	0
 1328 028d 06       		.uleb128 0x6
 1329 028e 28040000 		.4byte	.LASF29
 1330 0292 03       		.byte	0x3
 1331 0293 B9       		.byte	0xb9
 1332 0294 40020000 		.4byte	0x240
 1333 0298 04       		.byte	0x4
 1334 0299 00       		.byte	0
 1335 029a 04       		.uleb128 0x4
 1336 029b 00000000 		.4byte	.LASF52
 1337 029f 0A       		.byte	0xa
 1338 02a0 57       		.byte	0x57
 1339 02a1 A5020000 		.4byte	0x2a5
 1340 02a5 0A       		.uleb128 0xa
 1341 02a6 2D030000 		.4byte	.LASF53
 1342 02aa 1C       		.byte	0x1c
 1343 02ab 03       		.byte	0x3
 1344 02ac 9001     		.2byte	0x190
 1345 02ae 01030000 		.4byte	0x301
 1346 02b2 08       		.uleb128 0x8
 1347 02b3 02050000 		.4byte	.LASF54
 1348 02b7 03       		.byte	0x3
 1349 02b8 9101     		.2byte	0x191
 1350 02ba 6A020000 		.4byte	0x26a
 1351 02be 00       		.byte	0
 1352 02bf 08       		.uleb128 0x8
 1353 02c0 99040000 		.4byte	.LASF55
 1354 02c4 03       		.byte	0x3
ARM GAS  /tmp/ccYXMJUB.s 			page 25


 1355 02c5 9201     		.2byte	0x192
 1356 02c7 FA000000 		.4byte	0xfa
 1357 02cb 08       		.byte	0x8
 1358 02cc 08       		.uleb128 0x8
 1359 02cd D5030000 		.4byte	.LASF56
 1360 02d1 03       		.byte	0x3
 1361 02d2 9401     		.2byte	0x194
 1362 02d4 70040000 		.4byte	0x470
 1363 02d8 0C       		.byte	0xc
 1364 02d9 08       		.uleb128 0x8
 1365 02da BF010000 		.4byte	.LASF57
 1366 02de 03       		.byte	0x3
 1367 02df 9701     		.2byte	0x197
 1368 02e1 40020000 		.4byte	0x240
 1369 02e5 10       		.byte	0x10
 1370 02e6 08       		.uleb128 0x8
 1371 02e7 FD030000 		.4byte	.LASF58
 1372 02eb 03       		.byte	0x3
 1373 02ec 9801     		.2byte	0x198
 1374 02ee 40020000 		.4byte	0x240
 1375 02f2 14       		.byte	0x14
 1376 02f3 08       		.uleb128 0x8
 1377 02f4 F3030000 		.4byte	.LASF59
 1378 02f8 03       		.byte	0x3
 1379 02f9 9B01     		.2byte	0x19b
 1380 02fb 40020000 		.4byte	0x240
 1381 02ff 18       		.byte	0x18
 1382 0300 00       		.byte	0
 1383 0301 04       		.uleb128 0x4
 1384 0302 8A050000 		.4byte	.LASF60
 1385 0306 0A       		.byte	0xa
 1386 0307 5C       		.byte	0x5c
 1387 0308 0C030000 		.4byte	0x30c
 1388 030c 09       		.uleb128 0x9
 1389 030d 04       		.byte	0x4
 1390 030e 12030000 		.4byte	0x312
 1391 0312 0B       		.uleb128 0xb
 1392 0313 1D030000 		.4byte	0x31d
 1393 0317 0C       		.uleb128 0xc
 1394 0318 1D030000 		.4byte	0x31d
 1395 031c 00       		.byte	0
 1396 031d 0D       		.uleb128 0xd
 1397 031e 04       		.byte	0x4
 1398 031f 04       		.uleb128 0x4
 1399 0320 18040000 		.4byte	.LASF61
 1400 0324 0A       		.byte	0xa
 1401 0325 61       		.byte	0x61
 1402 0326 2A030000 		.4byte	0x32a
 1403 032a 0A       		.uleb128 0xa
 1404 032b C9040000 		.4byte	.LASF62
 1405 032f 14       		.byte	0x14
 1406 0330 03       		.byte	0x3
 1407 0331 6B01     		.2byte	0x16b
 1408 0333 79030000 		.4byte	0x379
 1409 0337 08       		.uleb128 0x8
 1410 0338 15020000 		.4byte	.LASF63
 1411 033c 03       		.byte	0x3
ARM GAS  /tmp/ccYXMJUB.s 			page 26


 1412 033d 6C01     		.2byte	0x16c
 1413 033f 01060000 		.4byte	0x601
 1414 0343 00       		.byte	0
 1415 0344 08       		.uleb128 0x8
 1416 0345 D0010000 		.4byte	.LASF64
 1417 0349 03       		.byte	0x3
 1418 034a 6D01     		.2byte	0x16d
 1419 034c 01060000 		.4byte	0x601
 1420 0350 04       		.byte	0x4
 1421 0351 08       		.uleb128 0x8
 1422 0352 0A050000 		.4byte	.LASF65
 1423 0356 03       		.byte	0x3
 1424 0357 6E01     		.2byte	0x16e
 1425 0359 26010000 		.4byte	0x126
 1426 035d 08       		.byte	0x8
 1427 035e 08       		.uleb128 0x8
 1428 035f 53060000 		.4byte	.LASF66
 1429 0363 03       		.byte	0x3
 1430 0364 6F01     		.2byte	0x16f
 1431 0366 01030000 		.4byte	0x301
 1432 036a 0C       		.byte	0xc
 1433 036b 08       		.uleb128 0x8
 1434 036c D3050000 		.4byte	.LASF67
 1435 0370 03       		.byte	0x3
 1436 0371 7101     		.2byte	0x171
 1437 0373 1D030000 		.4byte	0x31d
 1438 0377 10       		.byte	0x10
 1439 0378 00       		.byte	0
 1440 0379 04       		.uleb128 0x4
 1441 037a CF000000 		.4byte	.LASF68
 1442 037e 0A       		.byte	0xa
 1443 037f 66       		.byte	0x66
 1444 0380 84030000 		.4byte	0x384
 1445 0384 0A       		.uleb128 0xa
 1446 0385 9E030000 		.4byte	.LASF69
 1447 0389 10       		.byte	0x10
 1448 038a 03       		.byte	0x3
 1449 038b 7B01     		.2byte	0x17b
 1450 038d C6030000 		.4byte	0x3c6
 1451 0391 08       		.uleb128 0x8
 1452 0392 15020000 		.4byte	.LASF63
 1453 0396 03       		.byte	0x3
 1454 0397 7C01     		.2byte	0x17c
 1455 0399 01060000 		.4byte	0x601
 1456 039d 00       		.byte	0
 1457 039e 08       		.uleb128 0x8
 1458 039f D0010000 		.4byte	.LASF64
 1459 03a3 03       		.byte	0x3
 1460 03a4 7E01     		.2byte	0x17e
 1461 03a6 01060000 		.4byte	0x601
 1462 03aa 04       		.byte	0x4
 1463 03ab 08       		.uleb128 0x8
 1464 03ac 0A050000 		.4byte	.LASF65
 1465 03b0 03       		.byte	0x3
 1466 03b1 8001     		.2byte	0x180
 1467 03b3 26010000 		.4byte	0x126
 1468 03b7 08       		.byte	0x8
ARM GAS  /tmp/ccYXMJUB.s 			page 27


 1469 03b8 08       		.uleb128 0x8
 1470 03b9 16060000 		.4byte	.LASF70
 1471 03bd 03       		.byte	0x3
 1472 03be 8201     		.2byte	0x182
 1473 03c0 07060000 		.4byte	0x607
 1474 03c4 0C       		.byte	0xc
 1475 03c5 00       		.byte	0
 1476 03c6 04       		.uleb128 0x4
 1477 03c7 39000000 		.4byte	.LASF71
 1478 03cb 0A       		.byte	0xa
 1479 03cc 6B       		.byte	0x6b
 1480 03cd D1030000 		.4byte	0x3d1
 1481 03d1 0A       		.uleb128 0xa
 1482 03d2 47040000 		.4byte	.LASF72
 1483 03d6 04       		.byte	0x4
 1484 03d7 03       		.byte	0x3
 1485 03d8 A201     		.2byte	0x1a2
 1486 03da EC030000 		.4byte	0x3ec
 1487 03de 08       		.uleb128 0x8
 1488 03df B2050000 		.4byte	.LASF73
 1489 03e3 03       		.byte	0x3
 1490 03e4 AA01     		.2byte	0x1aa
 1491 03e6 0C060000 		.4byte	0x60c
 1492 03ea 00       		.byte	0
 1493 03eb 00       		.byte	0
 1494 03ec 04       		.uleb128 0x4
 1495 03ed 58020000 		.4byte	.LASF74
 1496 03f1 0A       		.byte	0xa
 1497 03f2 70       		.byte	0x70
 1498 03f3 F7030000 		.4byte	0x3f7
 1499 03f7 0E       		.uleb128 0xe
 1500 03f8 4F010000 		.4byte	.LASF75
 1501 03fc 5001     		.2byte	0x150
 1502 03fe 03       		.byte	0x3
 1503 03ff C201     		.2byte	0x1c2
 1504 0401 53040000 		.4byte	0x453
 1505 0405 08       		.uleb128 0x8
 1506 0406 FA050000 		.4byte	.LASF76
 1507 040a 03       		.byte	0x3
 1508 040b C601     		.2byte	0x1c6
 1509 040d 9A020000 		.4byte	0x29a
 1510 0411 00       		.byte	0
 1511 0412 08       		.uleb128 0x8
 1512 0413 32010000 		.4byte	.LASF77
 1513 0417 03       		.byte	0x3
 1514 0418 CA01     		.2byte	0x1ca
 1515 041a 79030000 		.4byte	0x379
 1516 041e 1C       		.byte	0x1c
 1517 041f 07       		.uleb128 0x7
 1518 0420 64626700 		.ascii	"dbg\000"
 1519 0424 03       		.byte	0x3
 1520 0425 CE01     		.2byte	0x1ce
 1521 0427 C6030000 		.4byte	0x3c6
 1522 042b 2C       		.byte	0x2c
 1523 042c 08       		.uleb128 0x8
 1524 042d C4000000 		.4byte	.LASF78
 1525 0431 03       		.byte	0x3
ARM GAS  /tmp/ccYXMJUB.s 			page 28


 1526 0432 D201     		.2byte	0x1d2
 1527 0434 31010000 		.4byte	0x131
 1528 0438 30       		.byte	0x30
 1529 0439 07       		.uleb128 0x7
 1530 043a 746D00   		.ascii	"tm\000"
 1531 043d 03       		.byte	0x3
 1532 043e D701     		.2byte	0x1d7
 1533 0440 1F050000 		.4byte	0x51f
 1534 0444 74       		.byte	0x74
 1535 0445 08       		.uleb128 0x8
 1536 0446 E6010000 		.4byte	.LASF79
 1537 044a 03       		.byte	0x3
 1538 044b E301     		.2byte	0x1e3
 1539 044d 11060000 		.4byte	0x611
 1540 0451 78       		.byte	0x78
 1541 0452 00       		.byte	0
 1542 0453 03       		.uleb128 0x3
 1543 0454 04       		.byte	0x4
 1544 0455 07       		.byte	0x7
 1545 0456 82030000 		.4byte	.LASF80
 1546 045a 04       		.uleb128 0x4
 1547 045b C7010000 		.4byte	.LASF81
 1548 045f 0B       		.byte	0xb
 1549 0460 65       		.byte	0x65
 1550 0461 1D030000 		.4byte	0x31d
 1551 0465 04       		.uleb128 0x4
 1552 0466 5E030000 		.4byte	.LASF82
 1553 046a 0B       		.byte	0xb
 1554 046b 6D       		.byte	0x6d
 1555 046c B8000000 		.4byte	0xb8
 1556 0470 05       		.uleb128 0x5
 1557 0471 C3050000 		.4byte	.LASF83
 1558 0475 04       		.byte	0x4
 1559 0476 0B       		.byte	0xb
 1560 0477 89       		.byte	0x89
 1561 0478 89040000 		.4byte	0x489
 1562 047c 0F       		.uleb128 0xf
 1563 047d 72313300 		.ascii	"r13\000"
 1564 0481 0B       		.byte	0xb
 1565 0482 8A       		.byte	0x8a
 1566 0483 04050000 		.4byte	0x504
 1567 0487 00       		.byte	0
 1568 0488 00       		.byte	0
 1569 0489 05       		.uleb128 0x5
 1570 048a 2D000000 		.4byte	.LASF84
 1571 048e 24       		.byte	0x24
 1572 048f 01       		.byte	0x1
 1573 0490 FD       		.byte	0xfd
 1574 0491 04050000 		.4byte	0x504
 1575 0495 07       		.uleb128 0x7
 1576 0496 723400   		.ascii	"r4\000"
 1577 0499 01       		.byte	0x1
 1578 049a 1001     		.2byte	0x110
 1579 049c 5A040000 		.4byte	0x45a
 1580 04a0 00       		.byte	0
 1581 04a1 07       		.uleb128 0x7
 1582 04a2 723500   		.ascii	"r5\000"
ARM GAS  /tmp/ccYXMJUB.s 			page 29


 1583 04a5 01       		.byte	0x1
 1584 04a6 1101     		.2byte	0x111
 1585 04a8 5A040000 		.4byte	0x45a
 1586 04ac 04       		.byte	0x4
 1587 04ad 07       		.uleb128 0x7
 1588 04ae 723600   		.ascii	"r6\000"
 1589 04b1 01       		.byte	0x1
 1590 04b2 1201     		.2byte	0x112
 1591 04b4 5A040000 		.4byte	0x45a
 1592 04b8 08       		.byte	0x8
 1593 04b9 07       		.uleb128 0x7
 1594 04ba 723700   		.ascii	"r7\000"
 1595 04bd 01       		.byte	0x1
 1596 04be 1301     		.2byte	0x113
 1597 04c0 5A040000 		.4byte	0x45a
 1598 04c4 0C       		.byte	0xc
 1599 04c5 07       		.uleb128 0x7
 1600 04c6 723800   		.ascii	"r8\000"
 1601 04c9 01       		.byte	0x1
 1602 04ca 1401     		.2byte	0x114
 1603 04cc 5A040000 		.4byte	0x45a
 1604 04d0 10       		.byte	0x10
 1605 04d1 07       		.uleb128 0x7
 1606 04d2 723900   		.ascii	"r9\000"
 1607 04d5 01       		.byte	0x1
 1608 04d6 1501     		.2byte	0x115
 1609 04d8 5A040000 		.4byte	0x45a
 1610 04dc 14       		.byte	0x14
 1611 04dd 07       		.uleb128 0x7
 1612 04de 72313000 		.ascii	"r10\000"
 1613 04e2 01       		.byte	0x1
 1614 04e3 1601     		.2byte	0x116
 1615 04e5 5A040000 		.4byte	0x45a
 1616 04e9 18       		.byte	0x18
 1617 04ea 07       		.uleb128 0x7
 1618 04eb 72313100 		.ascii	"r11\000"
 1619 04ef 01       		.byte	0x1
 1620 04f0 1701     		.2byte	0x117
 1621 04f2 5A040000 		.4byte	0x45a
 1622 04f6 1C       		.byte	0x1c
 1623 04f7 07       		.uleb128 0x7
 1624 04f8 6C7200   		.ascii	"lr\000"
 1625 04fb 01       		.byte	0x1
 1626 04fc 1801     		.2byte	0x118
 1627 04fe 5A040000 		.4byte	0x45a
 1628 0502 20       		.byte	0x20
 1629 0503 00       		.byte	0
 1630 0504 09       		.uleb128 0x9
 1631 0505 04       		.byte	0x4
 1632 0506 89040000 		.4byte	0x489
 1633 050a 10       		.uleb128 0x10
 1634 050b 04       		.byte	0x4
 1635 050c 0C       		.byte	0xc
 1636 050d 38       		.byte	0x38
 1637 050e 1F050000 		.4byte	0x51f
 1638 0512 06       		.uleb128 0x6
 1639 0513 BC050000 		.4byte	.LASF85
ARM GAS  /tmp/ccYXMJUB.s 			page 30


 1640 0517 0C       		.byte	0xc
 1641 0518 3C       		.byte	0x3c
 1642 0519 C3000000 		.4byte	0xc3
 1643 051d 00       		.byte	0
 1644 051e 00       		.byte	0
 1645 051f 04       		.uleb128 0x4
 1646 0520 DB030000 		.4byte	.LASF86
 1647 0524 0C       		.byte	0xc
 1648 0525 3D       		.byte	0x3d
 1649 0526 0A050000 		.4byte	0x50a
 1650 052a 11       		.uleb128 0x11
 1651 052b 04       		.byte	0x4
 1652 052c 03       		.byte	0x3
 1653 052d FA       		.byte	0xfa
 1654 052e 87050000 		.4byte	0x587
 1655 0532 12       		.uleb128 0x12
 1656 0533 13000000 		.4byte	.LASF87
 1657 0537 03       		.byte	0x3
 1658 0538 0101     		.2byte	0x101
 1659 053a 05010000 		.4byte	0x105
 1660 053e 12       		.uleb128 0x12
 1661 053f BB000000 		.4byte	.LASF88
 1662 0543 03       		.byte	0x3
 1663 0544 0801     		.2byte	0x108
 1664 0546 05010000 		.4byte	0x105
 1665 054a 12       		.uleb128 0x12
 1666 054b 08060000 		.4byte	.LASF89
 1667 054f 03       		.byte	0x3
 1668 0550 0F01     		.2byte	0x10f
 1669 0552 1D030000 		.4byte	0x31d
 1670 0556 12       		.uleb128 0x12
 1671 0557 0D000000 		.4byte	.LASF90
 1672 055b 03       		.byte	0x3
 1673 055c 1601     		.2byte	0x116
 1674 055e 87050000 		.4byte	0x587
 1675 0562 12       		.uleb128 0x12
 1676 0563 1D020000 		.4byte	.LASF91
 1677 0567 03       		.byte	0x3
 1678 0568 1E01     		.2byte	0x11e
 1679 056a B2050000 		.4byte	0x5b2
 1680 056e 12       		.uleb128 0x12
 1681 056f FB040000 		.4byte	.LASF92
 1682 0573 03       		.byte	0x3
 1683 0574 2701     		.2byte	0x127
 1684 0576 E9050000 		.4byte	0x5e9
 1685 057a 12       		.uleb128 0x12
 1686 057b A0040000 		.4byte	.LASF93
 1687 057f 03       		.byte	0x3
 1688 0580 2F01     		.2byte	0x12f
 1689 0582 10010000 		.4byte	0x110
 1690 0586 00       		.byte	0
 1691 0587 09       		.uleb128 0x9
 1692 0588 04       		.byte	0x4
 1693 0589 35020000 		.4byte	0x235
 1694 058d 05       		.uleb128 0x5
 1695 058e DA040000 		.4byte	.LASF94
 1696 0592 0C       		.byte	0xc
ARM GAS  /tmp/ccYXMJUB.s 			page 31


 1697 0593 0D       		.byte	0xd
 1698 0594 34       		.byte	0x34
 1699 0595 B2050000 		.4byte	0x5b2
 1700 0599 06       		.uleb128 0x6
 1701 059a B7010000 		.4byte	.LASF95
 1702 059e 0D       		.byte	0xd
 1703 059f 35       		.byte	0x35
 1704 05a0 6A020000 		.4byte	0x26a
 1705 05a4 00       		.byte	0
 1706 05a5 06       		.uleb128 0x6
 1707 05a6 2F020000 		.4byte	.LASF96
 1708 05aa 0D       		.byte	0xd
 1709 05ab 37       		.byte	0x37
 1710 05ac 1B010000 		.4byte	0x11b
 1711 05b0 08       		.byte	0x8
 1712 05b1 00       		.byte	0
 1713 05b2 09       		.uleb128 0x9
 1714 05b3 04       		.byte	0x4
 1715 05b4 8D050000 		.4byte	0x58d
 1716 05b8 05       		.uleb128 0x5
 1717 05b9 EA050000 		.4byte	.LASF97
 1718 05bd 10       		.byte	0x10
 1719 05be 05       		.byte	0x5
 1720 05bf 39       		.byte	0x39
 1721 05c0 E9050000 		.4byte	0x5e9
 1722 05c4 06       		.uleb128 0x6
 1723 05c5 2A010000 		.4byte	.LASF98
 1724 05c9 05       		.byte	0x5
 1725 05ca 3A       		.byte	0x3a
 1726 05cb 6A020000 		.4byte	0x26a
 1727 05cf 00       		.byte	0
 1728 05d0 06       		.uleb128 0x6
 1729 05d1 45060000 		.4byte	.LASF99
 1730 05d5 05       		.byte	0x5
 1731 05d6 3C       		.byte	0x3c
 1732 05d7 40020000 		.4byte	0x240
 1733 05db 08       		.byte	0x8
 1734 05dc 06       		.uleb128 0x6
 1735 05dd EC030000 		.4byte	.LASF100
 1736 05e1 05       		.byte	0x5
 1737 05e2 3E       		.byte	0x3e
 1738 05e3 2C060000 		.4byte	0x62c
 1739 05e7 0C       		.byte	0xc
 1740 05e8 00       		.byte	0
 1741 05e9 09       		.uleb128 0x9
 1742 05ea 04       		.byte	0x4
 1743 05eb B8050000 		.4byte	0x5b8
 1744 05ef 09       		.uleb128 0x9
 1745 05f0 04       		.byte	0x4
 1746 05f1 F5050000 		.4byte	0x5f5
 1747 05f5 13       		.uleb128 0x13
 1748 05f6 FA050000 		.4byte	0x5fa
 1749 05fa 03       		.uleb128 0x3
 1750 05fb 01       		.byte	0x1
 1751 05fc 08       		.byte	0x8
 1752 05fd 55050000 		.4byte	.LASF101
 1753 0601 09       		.uleb128 0x9
ARM GAS  /tmp/ccYXMJUB.s 			page 32


 1754 0602 04       		.byte	0x4
 1755 0603 1F030000 		.4byte	0x31f
 1756 0607 14       		.uleb128 0x14
 1757 0608 26010000 		.4byte	0x126
 1758 060c 14       		.uleb128 0x14
 1759 060d EF050000 		.4byte	0x5ef
 1760 0611 15       		.uleb128 0x15
 1761 0612 65040000 		.4byte	0x465
 1762 0616 21060000 		.4byte	0x621
 1763 061a 16       		.uleb128 0x16
 1764 061b 53040000 		.4byte	0x453
 1765 061f 1A       		.byte	0x1a
 1766 0620 00       		.byte	0
 1767 0621 04       		.uleb128 0x4
 1768 0622 D8010000 		.4byte	.LASF102
 1769 0626 05       		.byte	0x5
 1770 0627 34       		.byte	0x34
 1771 0628 B8050000 		.4byte	0x5b8
 1772 062c 09       		.uleb128 0x9
 1773 062d 04       		.byte	0x4
 1774 062e 21060000 		.4byte	0x621
 1775 0632 17       		.uleb128 0x17
 1776 0633 B5030000 		.4byte	.LASF127
 1777 0637 02       		.byte	0x2
 1778 0638 2202     		.2byte	0x222
 1779 063a 03       		.byte	0x3
 1780 063b 4C060000 		.4byte	0x64c
 1781 063f 18       		.uleb128 0x18
 1782 0640 E0010000 		.4byte	.LASF128
 1783 0644 02       		.byte	0x2
 1784 0645 2202     		.2byte	0x222
 1785 0647 AD000000 		.4byte	0xad
 1786 064b 00       		.byte	0
 1787 064c 19       		.uleb128 0x19
 1788 064d 53000000 		.4byte	.LASF103
 1789 0651 01       		.byte	0x1
 1790 0652 C801     		.2byte	0x1c8
 1791 0654 00000000 		.4byte	.LFB127
 1792 0658 10000000 		.4byte	.LFE127-.LFB127
 1793 065c 01       		.uleb128 0x1
 1794 065d 9C       		.byte	0x9c
 1795 065e 7C060000 		.4byte	0x67c
 1796 0662 1A       		.uleb128 0x1a
 1797 0663 32060000 		.4byte	0x632
 1798 0667 06000000 		.4byte	.LBB6
 1799 066b 06000000 		.4byte	.LBE6-.LBB6
 1800 066f 01       		.byte	0x1
 1801 0670 D001     		.2byte	0x1d0
 1802 0672 1B       		.uleb128 0x1b
 1803 0673 3F060000 		.4byte	0x63f
 1804 0677 02       		.uleb128 0x2
 1805 0678 91       		.byte	0x91
 1806 0679 7C       		.sleb128 -4
 1807 067a 00       		.byte	0
 1808 067b 00       		.byte	0
 1809 067c 19       		.uleb128 0x19
 1810 067d 39010000 		.4byte	.LASF104
ARM GAS  /tmp/ccYXMJUB.s 			page 33


 1811 0681 01       		.byte	0x1
 1812 0682 E001     		.2byte	0x1e0
 1813 0684 10000000 		.4byte	.LFB128
 1814 0688 10000000 		.4byte	.LFE128-.LFB128
 1815 068c 01       		.uleb128 0x1
 1816 068d 9C       		.byte	0x9c
 1817 068e AC060000 		.4byte	0x6ac
 1818 0692 1A       		.uleb128 0x1a
 1819 0693 32060000 		.4byte	0x632
 1820 0697 16000000 		.4byte	.LBB8
 1821 069b 06000000 		.4byte	.LBE8-.LBB8
 1822 069f 01       		.byte	0x1
 1823 06a0 E301     		.2byte	0x1e3
 1824 06a2 1B       		.uleb128 0x1b
 1825 06a3 3F060000 		.4byte	0x63f
 1826 06a7 02       		.uleb128 0x2
 1827 06a8 91       		.byte	0x91
 1828 06a9 7C       		.sleb128 -4
 1829 06aa 00       		.byte	0
 1830 06ab 00       		.byte	0
 1831 06ac 19       		.uleb128 0x19
 1832 06ad 48000000 		.4byte	.LASF105
 1833 06b1 03       		.byte	0x3
 1834 06b2 5A02     		.2byte	0x25a
 1835 06b4 20000000 		.4byte	.LFB139
 1836 06b8 14000000 		.4byte	.LFE139-.LFB139
 1837 06bc 01       		.uleb128 0x1
 1838 06bd 9C       		.byte	0x9c
 1839 06be D2060000 		.4byte	0x6d2
 1840 06c2 1C       		.uleb128 0x1c
 1841 06c3 74717000 		.ascii	"tqp\000"
 1842 06c7 03       		.byte	0x3
 1843 06c8 5A02     		.2byte	0x25a
 1844 06ca D2060000 		.4byte	0x6d2
 1845 06ce 02       		.uleb128 0x2
 1846 06cf 91       		.byte	0x91
 1847 06d0 7C       		.sleb128 -4
 1848 06d1 00       		.byte	0
 1849 06d2 09       		.uleb128 0x9
 1850 06d3 04       		.byte	0x4
 1851 06d4 6A020000 		.4byte	0x26a
 1852 06d8 1D       		.uleb128 0x1d
 1853 06d9 79010000 		.4byte	.LASF108
 1854 06dd 03       		.byte	0x3
 1855 06de 7502     		.2byte	0x275
 1856 06e0 02070000 		.4byte	0x702
 1857 06e4 40000000 		.4byte	.LFB141
 1858 06e8 1A000000 		.4byte	.LFE141-.LFB141
 1859 06ec 01       		.uleb128 0x1
 1860 06ed 9C       		.byte	0x9c
 1861 06ee 02070000 		.4byte	0x702
 1862 06f2 1C       		.uleb128 0x1c
 1863 06f3 74717000 		.ascii	"tqp\000"
 1864 06f7 03       		.byte	0x3
 1865 06f8 7502     		.2byte	0x275
 1866 06fa 09070000 		.4byte	0x709
 1867 06fe 02       		.uleb128 0x2
ARM GAS  /tmp/ccYXMJUB.s 			page 34


 1868 06ff 91       		.byte	0x91
 1869 0700 7C       		.sleb128 -4
 1870 0701 00       		.byte	0
 1871 0702 03       		.uleb128 0x3
 1872 0703 01       		.byte	0x1
 1873 0704 02       		.byte	0x2
 1874 0705 57040000 		.4byte	.LASF106
 1875 0709 09       		.uleb128 0x9
 1876 070a 04       		.byte	0x4
 1877 070b 0F070000 		.4byte	0x70f
 1878 070f 13       		.uleb128 0x13
 1879 0710 6A020000 		.4byte	0x26a
 1880 0714 19       		.uleb128 0x19
 1881 0715 33060000 		.4byte	.LASF107
 1882 0719 03       		.byte	0x3
 1883 071a 8B02     		.2byte	0x28b
 1884 071c 60000000 		.4byte	.LFB144
 1885 0720 44000000 		.4byte	.LFE144-.LFB144
 1886 0724 01       		.uleb128 0x1
 1887 0725 9C       		.byte	0x9c
 1888 0726 56070000 		.4byte	0x756
 1889 072a 1C       		.uleb128 0x1c
 1890 072b 747000   		.ascii	"tp\000"
 1891 072e 03       		.byte	0x3
 1892 072f 8B02     		.2byte	0x28b
 1893 0731 40020000 		.4byte	0x240
 1894 0735 02       		.uleb128 0x2
 1895 0736 91       		.byte	0x91
 1896 0737 74       		.sleb128 -12
 1897 0738 1C       		.uleb128 0x1c
 1898 0739 74717000 		.ascii	"tqp\000"
 1899 073d 03       		.byte	0x3
 1900 073e 8B02     		.2byte	0x28b
 1901 0740 D2060000 		.4byte	0x6d2
 1902 0744 02       		.uleb128 0x2
 1903 0745 91       		.byte	0x91
 1904 0746 70       		.sleb128 -16
 1905 0747 1E       		.uleb128 0x1e
 1906 0748 637000   		.ascii	"cp\000"
 1907 074b 03       		.byte	0x3
 1908 074c 8D02     		.2byte	0x28d
 1909 074e 40020000 		.4byte	0x240
 1910 0752 02       		.uleb128 0x2
 1911 0753 91       		.byte	0x91
 1912 0754 7C       		.sleb128 -4
 1913 0755 00       		.byte	0
 1914 0756 1D       		.uleb128 0x1d
 1915 0757 63050000 		.4byte	.LASF109
 1916 075b 03       		.byte	0x3
 1917 075c 9F02     		.2byte	0x29f
 1918 075e 40020000 		.4byte	0x240
 1919 0762 B0000000 		.4byte	.LFB146
 1920 0766 22000000 		.4byte	.LFE146-.LFB146
 1921 076a 01       		.uleb128 0x1
 1922 076b 9C       		.byte	0x9c
 1923 076c 8E070000 		.4byte	0x78e
 1924 0770 1C       		.uleb128 0x1c
ARM GAS  /tmp/ccYXMJUB.s 			page 35


 1925 0771 74717000 		.ascii	"tqp\000"
 1926 0775 03       		.byte	0x3
 1927 0776 9F02     		.2byte	0x29f
 1928 0778 D2060000 		.4byte	0x6d2
 1929 077c 02       		.uleb128 0x2
 1930 077d 91       		.byte	0x91
 1931 077e 74       		.sleb128 -12
 1932 077f 1E       		.uleb128 0x1e
 1933 0780 747000   		.ascii	"tp\000"
 1934 0783 03       		.byte	0x3
 1935 0784 A002     		.2byte	0x2a0
 1936 0786 40020000 		.4byte	0x240
 1937 078a 02       		.uleb128 0x2
 1938 078b 91       		.byte	0x91
 1939 078c 7C       		.sleb128 -4
 1940 078d 00       		.byte	0
 1941 078e 1D       		.uleb128 0x1d
 1942 078f 62010000 		.4byte	.LASF110
 1943 0793 03       		.byte	0x3
 1944 0794 B102     		.2byte	0x2b1
 1945 0796 40020000 		.4byte	0x240
 1946 079a E0000000 		.4byte	.LFB148
 1947 079e 20000000 		.4byte	.LFE148-.LFB148
 1948 07a2 01       		.uleb128 0x1
 1949 07a3 9C       		.byte	0x9c
 1950 07a4 B7070000 		.4byte	0x7b7
 1951 07a8 1C       		.uleb128 0x1c
 1952 07a9 747000   		.ascii	"tp\000"
 1953 07ac 03       		.byte	0x3
 1954 07ad B102     		.2byte	0x2b1
 1955 07af 40020000 		.4byte	0x240
 1956 07b3 02       		.uleb128 0x2
 1957 07b4 91       		.byte	0x91
 1958 07b5 7C       		.sleb128 -4
 1959 07b6 00       		.byte	0
 1960 07b7 1F       		.uleb128 0x1f
 1961 07b8 BF040000 		.4byte	.LASF129
 1962 07bc 04       		.byte	0x4
 1963 07bd 5A01     		.2byte	0x15a
 1964 07bf 00010000 		.4byte	.LFB156
 1965 07c3 08000000 		.4byte	.LFE156-.LFB156
 1966 07c7 01       		.uleb128 0x1
 1967 07c8 9C       		.byte	0x9c
 1968 07c9 20       		.uleb128 0x20
 1969 07ca 21060000 		.4byte	.LASF111
 1970 07ce 04       		.byte	0x4
 1971 07cf 6601     		.2byte	0x166
 1972 07d1 10010000 		.4byte	.LFB157
 1973 07d5 08000000 		.4byte	.LFE157-.LFB157
 1974 07d9 01       		.uleb128 0x1
 1975 07da 9C       		.byte	0x9c
 1976 07db E9070000 		.4byte	0x7e9
 1977 07df 21       		.uleb128 0x21
 1978 07e0 B6040000 		.4byte	.LASF113
 1979 07e4 F9070000 		.4byte	0x7f9
 1980 07e8 00       		.byte	0
 1981 07e9 15       		.uleb128 0x15
ARM GAS  /tmp/ccYXMJUB.s 			page 36


 1982 07ea FA050000 		.4byte	0x5fa
 1983 07ee F9070000 		.4byte	0x7f9
 1984 07f2 16       		.uleb128 0x16
 1985 07f3 53040000 		.4byte	0x453
 1986 07f7 0B       		.byte	0xb
 1987 07f8 00       		.byte	0
 1988 07f9 13       		.uleb128 0x13
 1989 07fa E9070000 		.4byte	0x7e9
 1990 07fe 22       		.uleb128 0x22
 1991 07ff 9E050000 		.4byte	.LASF112
 1992 0803 05       		.byte	0x5
 1993 0804 80       		.byte	0x80
 1994 0805 02070000 		.4byte	0x702
 1995 0809 20010000 		.4byte	.LFB203
 1996 080d 18000000 		.4byte	.LFE203-.LFB203
 1997 0811 01       		.uleb128 0x1
 1998 0812 9C       		.byte	0x9c
 1999 0813 25080000 		.4byte	0x825
 2000 0817 23       		.uleb128 0x23
 2001 0818 6D7000   		.ascii	"mp\000"
 2002 081b 05       		.byte	0x5
 2003 081c 80       		.byte	0x80
 2004 081d 2C060000 		.4byte	0x62c
 2005 0821 02       		.uleb128 0x2
 2006 0822 91       		.byte	0x91
 2007 0823 74       		.sleb128 -12
 2008 0824 00       		.byte	0
 2009 0825 24       		.uleb128 0x24
 2010 0826 37040000 		.4byte	.LASF114
 2011 082a 06       		.byte	0x6
 2012 082b 67       		.byte	0x67
 2013 082c 40010000 		.4byte	.LFB230
 2014 0830 1A000000 		.4byte	.LFE230-.LFB230
 2015 0834 01       		.uleb128 0x1
 2016 0835 9C       		.byte	0x9c
 2017 0836 51080000 		.4byte	0x851
 2018 083a 23       		.uleb128 0x23
 2019 083b 6D7000   		.ascii	"mp\000"
 2020 083e 06       		.byte	0x6
 2021 083f 67       		.byte	0x67
 2022 0840 2C060000 		.4byte	0x62c
 2023 0844 02       		.uleb128 0x2
 2024 0845 91       		.byte	0x91
 2025 0846 74       		.sleb128 -12
 2026 0847 21       		.uleb128 0x21
 2027 0848 B6040000 		.4byte	.LASF113
 2028 084c 61080000 		.4byte	0x861
 2029 0850 00       		.byte	0
 2030 0851 15       		.uleb128 0x15
 2031 0852 FA050000 		.4byte	0x5fa
 2032 0856 61080000 		.4byte	0x861
 2033 085a 16       		.uleb128 0x16
 2034 085b 53040000 		.4byte	0x453
 2035 085f 0F       		.byte	0xf
 2036 0860 00       		.byte	0
 2037 0861 13       		.uleb128 0x13
 2038 0862 51080000 		.4byte	0x851
ARM GAS  /tmp/ccYXMJUB.s 			page 37


 2039 0866 24       		.uleb128 0x24
 2040 0867 C3030000 		.4byte	.LASF115
 2041 086b 06       		.byte	0x6
 2042 086c 7B       		.byte	0x7b
 2043 086d 60010000 		.4byte	.LFB231
 2044 0871 1A000000 		.4byte	.LFE231-.LFB231
 2045 0875 01       		.uleb128 0x1
 2046 0876 9C       		.byte	0x9c
 2047 0877 89080000 		.4byte	0x889
 2048 087b 23       		.uleb128 0x23
 2049 087c 6D7000   		.ascii	"mp\000"
 2050 087f 06       		.byte	0x6
 2051 0880 7B       		.byte	0x7b
 2052 0881 2C060000 		.4byte	0x62c
 2053 0885 02       		.uleb128 0x2
 2054 0886 91       		.byte	0x91
 2055 0887 74       		.sleb128 -12
 2056 0888 00       		.byte	0
 2057 0889 24       		.uleb128 0x24
 2058 088a 96010000 		.4byte	.LASF116
 2059 088e 06       		.byte	0x6
 2060 088f 8B       		.byte	0x8b
 2061 0890 80010000 		.4byte	.LFB232
 2062 0894 C0000000 		.4byte	.LFE232-.LFB232
 2063 0898 01       		.uleb128 0x1
 2064 0899 9C       		.byte	0x9c
 2065 089a DA080000 		.4byte	0x8da
 2066 089e 23       		.uleb128 0x23
 2067 089f 6D7000   		.ascii	"mp\000"
 2068 08a2 06       		.byte	0x6
 2069 08a3 8B       		.byte	0x8b
 2070 08a4 2C060000 		.4byte	0x62c
 2071 08a8 02       		.uleb128 0x2
 2072 08a9 91       		.byte	0x91
 2073 08aa 6C       		.sleb128 -20
 2074 08ab 25       		.uleb128 0x25
 2075 08ac 63747000 		.ascii	"ctp\000"
 2076 08b0 06       		.byte	0x6
 2077 08b1 8C       		.byte	0x8c
 2078 08b2 40020000 		.4byte	0x240
 2079 08b6 02       		.uleb128 0x2
 2080 08b7 91       		.byte	0x91
 2081 08b8 70       		.sleb128 -16
 2082 08b9 21       		.uleb128 0x21
 2083 08ba B6040000 		.4byte	.LASF113
 2084 08be EA080000 		.4byte	0x8ea
 2085 08c2 26       		.uleb128 0x26
 2086 08c3 94010000 		.4byte	.LBB10
 2087 08c7 8C000000 		.4byte	.LBE10-.LBB10
 2088 08cb 25       		.uleb128 0x25
 2089 08cc 747000   		.ascii	"tp\000"
 2090 08cf 06       		.byte	0x6
 2091 08d0 A1       		.byte	0xa1
 2092 08d1 40020000 		.4byte	0x240
 2093 08d5 02       		.uleb128 0x2
 2094 08d6 91       		.byte	0x91
 2095 08d7 74       		.sleb128 -12
ARM GAS  /tmp/ccYXMJUB.s 			page 38


 2096 08d8 00       		.byte	0
 2097 08d9 00       		.byte	0
 2098 08da 15       		.uleb128 0x15
 2099 08db FA050000 		.4byte	0x5fa
 2100 08df EA080000 		.4byte	0x8ea
 2101 08e3 16       		.uleb128 0x16
 2102 08e4 53040000 		.4byte	0x453
 2103 08e8 0A       		.byte	0xa
 2104 08e9 00       		.byte	0
 2105 08ea 13       		.uleb128 0x13
 2106 08eb DA080000 		.4byte	0x8da
 2107 08ef 27       		.uleb128 0x27
 2108 08f0 47030000 		.4byte	.LASF117
 2109 08f4 06       		.byte	0x6
 2110 08f5 FF       		.byte	0xff
 2111 08f6 02070000 		.4byte	0x702
 2112 08fa 40020000 		.4byte	.LFB233
 2113 08fe 26000000 		.4byte	.LFE233-.LFB233
 2114 0902 01       		.uleb128 0x1
 2115 0903 9C       		.byte	0x9c
 2116 0904 23090000 		.4byte	0x923
 2117 0908 23       		.uleb128 0x23
 2118 0909 6D7000   		.ascii	"mp\000"
 2119 090c 06       		.byte	0x6
 2120 090d FF       		.byte	0xff
 2121 090e 2C060000 		.4byte	0x62c
 2122 0912 02       		.uleb128 0x2
 2123 0913 91       		.byte	0x91
 2124 0914 6C       		.sleb128 -20
 2125 0915 1E       		.uleb128 0x1e
 2126 0916 6200     		.ascii	"b\000"
 2127 0918 06       		.byte	0x6
 2128 0919 0001     		.2byte	0x100
 2129 091b 02070000 		.4byte	0x702
 2130 091f 02       		.uleb128 0x2
 2131 0920 91       		.byte	0x91
 2132 0921 77       		.sleb128 -9
 2133 0922 00       		.byte	0
 2134 0923 28       		.uleb128 0x28
 2135 0924 A1010000 		.4byte	.LASF118
 2136 0928 06       		.byte	0x6
 2137 0929 1A01     		.2byte	0x11a
 2138 092b 02070000 		.4byte	0x702
 2139 092f 70020000 		.4byte	.LFB234
 2140 0933 38000000 		.4byte	.LFE234-.LFB234
 2141 0937 01       		.uleb128 0x1
 2142 0938 9C       		.byte	0x9c
 2143 0939 55090000 		.4byte	0x955
 2144 093d 1C       		.uleb128 0x1c
 2145 093e 6D7000   		.ascii	"mp\000"
 2146 0941 06       		.byte	0x6
 2147 0942 1A01     		.2byte	0x11a
 2148 0944 2C060000 		.4byte	0x62c
 2149 0948 02       		.uleb128 0x2
 2150 0949 91       		.byte	0x91
 2151 094a 7C       		.sleb128 -4
 2152 094b 21       		.uleb128 0x21
ARM GAS  /tmp/ccYXMJUB.s 			page 39


 2153 094c B6040000 		.4byte	.LASF113
 2154 0950 65090000 		.4byte	0x965
 2155 0954 00       		.byte	0
 2156 0955 15       		.uleb128 0x15
 2157 0956 FA050000 		.4byte	0x5fa
 2158 095a 65090000 		.4byte	0x965
 2159 095e 16       		.uleb128 0x16
 2160 095f 53040000 		.4byte	0x453
 2161 0963 0D       		.byte	0xd
 2162 0964 00       		.byte	0
 2163 0965 13       		.uleb128 0x13
 2164 0966 55090000 		.4byte	0x955
 2165 096a 29       		.uleb128 0x29
 2166 096b 0A010000 		.4byte	.LASF119
 2167 096f 06       		.byte	0x6
 2168 0970 4301     		.2byte	0x143
 2169 0972 B0020000 		.4byte	.LFB235
 2170 0976 A4000000 		.4byte	.LFE235-.LFB235
 2171 097a 01       		.uleb128 0x1
 2172 097b 9C       		.byte	0x9c
 2173 097c DD090000 		.4byte	0x9dd
 2174 0980 1C       		.uleb128 0x1c
 2175 0981 6D7000   		.ascii	"mp\000"
 2176 0984 06       		.byte	0x6
 2177 0985 4301     		.2byte	0x143
 2178 0987 2C060000 		.4byte	0x62c
 2179 098b 02       		.uleb128 0x2
 2180 098c 91       		.byte	0x91
 2181 098d 64       		.sleb128 -28
 2182 098e 1E       		.uleb128 0x1e
 2183 098f 63747000 		.ascii	"ctp\000"
 2184 0993 06       		.byte	0x6
 2185 0994 4401     		.2byte	0x144
 2186 0996 40020000 		.4byte	0x240
 2187 099a 02       		.uleb128 0x2
 2188 099b 91       		.byte	0x91
 2189 099c 6C       		.sleb128 -20
 2190 099d 1E       		.uleb128 0x1e
 2191 099e 6C6D7000 		.ascii	"lmp\000"
 2192 09a2 06       		.byte	0x6
 2193 09a3 4501     		.2byte	0x145
 2194 09a5 2C060000 		.4byte	0x62c
 2195 09a9 02       		.uleb128 0x2
 2196 09aa 91       		.byte	0x91
 2197 09ab 74       		.sleb128 -12
 2198 09ac 21       		.uleb128 0x21
 2199 09ad B6040000 		.4byte	.LASF113
 2200 09b1 DD090000 		.4byte	0x9dd
 2201 09b5 26       		.uleb128 0x26
 2202 09b6 D4020000 		.4byte	.LBB11
 2203 09ba 68000000 		.4byte	.LBE11-.LBB11
 2204 09be 1E       		.uleb128 0x1e
 2205 09bf 747000   		.ascii	"tp\000"
 2206 09c2 06       		.byte	0x6
 2207 09c3 5C01     		.2byte	0x15c
 2208 09c5 40020000 		.4byte	0x240
 2209 09c9 02       		.uleb128 0x2
ARM GAS  /tmp/ccYXMJUB.s 			page 40


 2210 09ca 91       		.byte	0x91
 2211 09cb 68       		.sleb128 -24
 2212 09cc 2A       		.uleb128 0x2a
 2213 09cd 73020000 		.4byte	.LASF120
 2214 09d1 06       		.byte	0x6
 2215 09d2 6001     		.2byte	0x160
 2216 09d4 FA000000 		.4byte	0xfa
 2217 09d8 02       		.uleb128 0x2
 2218 09d9 91       		.byte	0x91
 2219 09da 70       		.sleb128 -16
 2220 09db 00       		.byte	0
 2221 09dc 00       		.byte	0
 2222 09dd 13       		.uleb128 0x13
 2223 09de E9070000 		.4byte	0x7e9
 2224 09e2 29       		.uleb128 0x29
 2225 09e3 FB010000 		.4byte	.LASF121
 2226 09e7 06       		.byte	0x6
 2227 09e8 9A01     		.2byte	0x19a
 2228 09ea 60030000 		.4byte	.LFB236
 2229 09ee 98000000 		.4byte	.LFE236-.LFB236
 2230 09f2 01       		.uleb128 0x1
 2231 09f3 9C       		.byte	0x9c
 2232 09f4 550A0000 		.4byte	0xa55
 2233 09f8 1C       		.uleb128 0x1c
 2234 09f9 6D7000   		.ascii	"mp\000"
 2235 09fc 06       		.byte	0x6
 2236 09fd 9A01     		.2byte	0x19a
 2237 09ff 2C060000 		.4byte	0x62c
 2238 0a03 02       		.uleb128 0x2
 2239 0a04 91       		.byte	0x91
 2240 0a05 64       		.sleb128 -28
 2241 0a06 1E       		.uleb128 0x1e
 2242 0a07 63747000 		.ascii	"ctp\000"
 2243 0a0b 06       		.byte	0x6
 2244 0a0c 9B01     		.2byte	0x19b
 2245 0a0e 40020000 		.4byte	0x240
 2246 0a12 02       		.uleb128 0x2
 2247 0a13 91       		.byte	0x91
 2248 0a14 6C       		.sleb128 -20
 2249 0a15 1E       		.uleb128 0x1e
 2250 0a16 6C6D7000 		.ascii	"lmp\000"
 2251 0a1a 06       		.byte	0x6
 2252 0a1b 9C01     		.2byte	0x19c
 2253 0a1d 2C060000 		.4byte	0x62c
 2254 0a21 02       		.uleb128 0x2
 2255 0a22 91       		.byte	0x91
 2256 0a23 74       		.sleb128 -12
 2257 0a24 21       		.uleb128 0x21
 2258 0a25 B6040000 		.4byte	.LASF113
 2259 0a29 650A0000 		.4byte	0xa65
 2260 0a2d 26       		.uleb128 0x26
 2261 0a2e 80030000 		.4byte	.LBB12
 2262 0a32 64000000 		.4byte	.LBE12-.LBB12
 2263 0a36 1E       		.uleb128 0x1e
 2264 0a37 747000   		.ascii	"tp\000"
 2265 0a3a 06       		.byte	0x6
 2266 0a3b B201     		.2byte	0x1b2
ARM GAS  /tmp/ccYXMJUB.s 			page 41


 2267 0a3d 40020000 		.4byte	0x240
 2268 0a41 02       		.uleb128 0x2
 2269 0a42 91       		.byte	0x91
 2270 0a43 68       		.sleb128 -24
 2271 0a44 2A       		.uleb128 0x2a
 2272 0a45 73020000 		.4byte	.LASF120
 2273 0a49 06       		.byte	0x6
 2274 0a4a B601     		.2byte	0x1b6
 2275 0a4c FA000000 		.4byte	0xfa
 2276 0a50 02       		.uleb128 0x2
 2277 0a51 91       		.byte	0x91
 2278 0a52 70       		.sleb128 -16
 2279 0a53 00       		.byte	0
 2280 0a54 00       		.byte	0
 2281 0a55 15       		.uleb128 0x15
 2282 0a56 FA050000 		.4byte	0x5fa
 2283 0a5a 650A0000 		.4byte	0xa65
 2284 0a5e 16       		.uleb128 0x16
 2285 0a5f 53040000 		.4byte	0x453
 2286 0a63 0C       		.byte	0xc
 2287 0a64 00       		.byte	0
 2288 0a65 13       		.uleb128 0x13
 2289 0a66 550A0000 		.4byte	0xa55
 2290 0a6a 29       		.uleb128 0x29
 2291 0a6b 64020000 		.4byte	.LASF122
 2292 0a6f 06       		.byte	0x6
 2293 0a70 E501     		.2byte	0x1e5
 2294 0a72 00040000 		.4byte	.LFB237
 2295 0a76 80000000 		.4byte	.LFE237-.LFB237
 2296 0a7a 01       		.uleb128 0x1
 2297 0a7b 9C       		.byte	0x9c
 2298 0a7c C00A0000 		.4byte	0xac0
 2299 0a80 1E       		.uleb128 0x1e
 2300 0a81 63747000 		.ascii	"ctp\000"
 2301 0a85 06       		.byte	0x6
 2302 0a86 E601     		.2byte	0x1e6
 2303 0a88 40020000 		.4byte	0x240
 2304 0a8c 02       		.uleb128 0x2
 2305 0a8d 91       		.byte	0x91
 2306 0a8e 74       		.sleb128 -12
 2307 0a8f 26       		.uleb128 0x26
 2308 0a90 16040000 		.4byte	.LBB13
 2309 0a94 46000000 		.4byte	.LBE13-.LBB13
 2310 0a98 1E       		.uleb128 0x1e
 2311 0a99 6D7000   		.ascii	"mp\000"
 2312 0a9c 06       		.byte	0x6
 2313 0a9d EB01     		.2byte	0x1eb
 2314 0a9f 2C060000 		.4byte	0x62c
 2315 0aa3 02       		.uleb128 0x2
 2316 0aa4 91       		.byte	0x91
 2317 0aa5 70       		.sleb128 -16
 2318 0aa6 26       		.uleb128 0x26
 2319 0aa7 30040000 		.4byte	.LBB14
 2320 0aab 24000000 		.4byte	.LBE14-.LBB14
 2321 0aaf 1E       		.uleb128 0x1e
 2322 0ab0 747000   		.ascii	"tp\000"
 2323 0ab3 06       		.byte	0x6
ARM GAS  /tmp/ccYXMJUB.s 			page 42


 2324 0ab4 F101     		.2byte	0x1f1
 2325 0ab6 40020000 		.4byte	0x240
 2326 0aba 02       		.uleb128 0x2
 2327 0abb 91       		.byte	0x91
 2328 0abc 6C       		.sleb128 -20
 2329 0abd 00       		.byte	0
 2330 0abe 00       		.byte	0
 2331 0abf 00       		.byte	0
 2332 0ac0 2B       		.uleb128 0x2b
 2333 0ac1 E5000000 		.4byte	.LASF123
 2334 0ac5 0E       		.byte	0xe
 2335 0ac6 FA06     		.2byte	0x6fa
 2336 0ac8 CC0A0000 		.4byte	0xacc
 2337 0acc 14       		.uleb128 0x14
 2338 0acd A2000000 		.4byte	0xa2
 2339 0ad1 2C       		.uleb128 0x2c
 2340 0ad2 636800   		.ascii	"ch\000"
 2341 0ad5 03       		.byte	0x3
 2342 0ad6 0902     		.2byte	0x209
 2343 0ad8 EC030000 		.4byte	0x3ec
 2344 0adc 00       		.byte	0
 2345              		.section	.debug_abbrev,"",%progbits
 2346              	.Ldebug_abbrev0:
 2347 0000 01       		.uleb128 0x1
 2348 0001 11       		.uleb128 0x11
 2349 0002 01       		.byte	0x1
 2350 0003 25       		.uleb128 0x25
 2351 0004 0E       		.uleb128 0xe
 2352 0005 13       		.uleb128 0x13
 2353 0006 0B       		.uleb128 0xb
 2354 0007 03       		.uleb128 0x3
 2355 0008 0E       		.uleb128 0xe
 2356 0009 1B       		.uleb128 0x1b
 2357 000a 0E       		.uleb128 0xe
 2358 000b 11       		.uleb128 0x11
 2359 000c 01       		.uleb128 0x1
 2360 000d 12       		.uleb128 0x12
 2361 000e 06       		.uleb128 0x6
 2362 000f 10       		.uleb128 0x10
 2363 0010 17       		.uleb128 0x17
 2364 0011 00       		.byte	0
 2365 0012 00       		.byte	0
 2366 0013 02       		.uleb128 0x2
 2367 0014 24       		.uleb128 0x24
 2368 0015 00       		.byte	0
 2369 0016 0B       		.uleb128 0xb
 2370 0017 0B       		.uleb128 0xb
 2371 0018 3E       		.uleb128 0x3e
 2372 0019 0B       		.uleb128 0xb
 2373 001a 03       		.uleb128 0x3
 2374 001b 08       		.uleb128 0x8
 2375 001c 00       		.byte	0
 2376 001d 00       		.byte	0
 2377 001e 03       		.uleb128 0x3
 2378 001f 24       		.uleb128 0x24
 2379 0020 00       		.byte	0
 2380 0021 0B       		.uleb128 0xb
ARM GAS  /tmp/ccYXMJUB.s 			page 43


 2381 0022 0B       		.uleb128 0xb
 2382 0023 3E       		.uleb128 0x3e
 2383 0024 0B       		.uleb128 0xb
 2384 0025 03       		.uleb128 0x3
 2385 0026 0E       		.uleb128 0xe
 2386 0027 00       		.byte	0
 2387 0028 00       		.byte	0
 2388 0029 04       		.uleb128 0x4
 2389 002a 16       		.uleb128 0x16
 2390 002b 00       		.byte	0
 2391 002c 03       		.uleb128 0x3
 2392 002d 0E       		.uleb128 0xe
 2393 002e 3A       		.uleb128 0x3a
 2394 002f 0B       		.uleb128 0xb
 2395 0030 3B       		.uleb128 0x3b
 2396 0031 0B       		.uleb128 0xb
 2397 0032 49       		.uleb128 0x49
 2398 0033 13       		.uleb128 0x13
 2399 0034 00       		.byte	0
 2400 0035 00       		.byte	0
 2401 0036 05       		.uleb128 0x5
 2402 0037 13       		.uleb128 0x13
 2403 0038 01       		.byte	0x1
 2404 0039 03       		.uleb128 0x3
 2405 003a 0E       		.uleb128 0xe
 2406 003b 0B       		.uleb128 0xb
 2407 003c 0B       		.uleb128 0xb
 2408 003d 3A       		.uleb128 0x3a
 2409 003e 0B       		.uleb128 0xb
 2410 003f 3B       		.uleb128 0x3b
 2411 0040 0B       		.uleb128 0xb
 2412 0041 01       		.uleb128 0x1
 2413 0042 13       		.uleb128 0x13
 2414 0043 00       		.byte	0
 2415 0044 00       		.byte	0
 2416 0045 06       		.uleb128 0x6
 2417 0046 0D       		.uleb128 0xd
 2418 0047 00       		.byte	0
 2419 0048 03       		.uleb128 0x3
 2420 0049 0E       		.uleb128 0xe
 2421 004a 3A       		.uleb128 0x3a
 2422 004b 0B       		.uleb128 0xb
 2423 004c 3B       		.uleb128 0x3b
 2424 004d 0B       		.uleb128 0xb
 2425 004e 49       		.uleb128 0x49
 2426 004f 13       		.uleb128 0x13
 2427 0050 38       		.uleb128 0x38
 2428 0051 0B       		.uleb128 0xb
 2429 0052 00       		.byte	0
 2430 0053 00       		.byte	0
 2431 0054 07       		.uleb128 0x7
 2432 0055 0D       		.uleb128 0xd
 2433 0056 00       		.byte	0
 2434 0057 03       		.uleb128 0x3
 2435 0058 08       		.uleb128 0x8
 2436 0059 3A       		.uleb128 0x3a
 2437 005a 0B       		.uleb128 0xb
ARM GAS  /tmp/ccYXMJUB.s 			page 44


 2438 005b 3B       		.uleb128 0x3b
 2439 005c 05       		.uleb128 0x5
 2440 005d 49       		.uleb128 0x49
 2441 005e 13       		.uleb128 0x13
 2442 005f 38       		.uleb128 0x38
 2443 0060 0B       		.uleb128 0xb
 2444 0061 00       		.byte	0
 2445 0062 00       		.byte	0
 2446 0063 08       		.uleb128 0x8
 2447 0064 0D       		.uleb128 0xd
 2448 0065 00       		.byte	0
 2449 0066 03       		.uleb128 0x3
 2450 0067 0E       		.uleb128 0xe
 2451 0068 3A       		.uleb128 0x3a
 2452 0069 0B       		.uleb128 0xb
 2453 006a 3B       		.uleb128 0x3b
 2454 006b 05       		.uleb128 0x5
 2455 006c 49       		.uleb128 0x49
 2456 006d 13       		.uleb128 0x13
 2457 006e 38       		.uleb128 0x38
 2458 006f 0B       		.uleb128 0xb
 2459 0070 00       		.byte	0
 2460 0071 00       		.byte	0
 2461 0072 09       		.uleb128 0x9
 2462 0073 0F       		.uleb128 0xf
 2463 0074 00       		.byte	0
 2464 0075 0B       		.uleb128 0xb
 2465 0076 0B       		.uleb128 0xb
 2466 0077 49       		.uleb128 0x49
 2467 0078 13       		.uleb128 0x13
 2468 0079 00       		.byte	0
 2469 007a 00       		.byte	0
 2470 007b 0A       		.uleb128 0xa
 2471 007c 13       		.uleb128 0x13
 2472 007d 01       		.byte	0x1
 2473 007e 03       		.uleb128 0x3
 2474 007f 0E       		.uleb128 0xe
 2475 0080 0B       		.uleb128 0xb
 2476 0081 0B       		.uleb128 0xb
 2477 0082 3A       		.uleb128 0x3a
 2478 0083 0B       		.uleb128 0xb
 2479 0084 3B       		.uleb128 0x3b
 2480 0085 05       		.uleb128 0x5
 2481 0086 01       		.uleb128 0x1
 2482 0087 13       		.uleb128 0x13
 2483 0088 00       		.byte	0
 2484 0089 00       		.byte	0
 2485 008a 0B       		.uleb128 0xb
 2486 008b 15       		.uleb128 0x15
 2487 008c 01       		.byte	0x1
 2488 008d 27       		.uleb128 0x27
 2489 008e 19       		.uleb128 0x19
 2490 008f 01       		.uleb128 0x1
 2491 0090 13       		.uleb128 0x13
 2492 0091 00       		.byte	0
 2493 0092 00       		.byte	0
 2494 0093 0C       		.uleb128 0xc
ARM GAS  /tmp/ccYXMJUB.s 			page 45


 2495 0094 05       		.uleb128 0x5
 2496 0095 00       		.byte	0
 2497 0096 49       		.uleb128 0x49
 2498 0097 13       		.uleb128 0x13
 2499 0098 00       		.byte	0
 2500 0099 00       		.byte	0
 2501 009a 0D       		.uleb128 0xd
 2502 009b 0F       		.uleb128 0xf
 2503 009c 00       		.byte	0
 2504 009d 0B       		.uleb128 0xb
 2505 009e 0B       		.uleb128 0xb
 2506 009f 00       		.byte	0
 2507 00a0 00       		.byte	0
 2508 00a1 0E       		.uleb128 0xe
 2509 00a2 13       		.uleb128 0x13
 2510 00a3 01       		.byte	0x1
 2511 00a4 03       		.uleb128 0x3
 2512 00a5 0E       		.uleb128 0xe
 2513 00a6 0B       		.uleb128 0xb
 2514 00a7 05       		.uleb128 0x5
 2515 00a8 3A       		.uleb128 0x3a
 2516 00a9 0B       		.uleb128 0xb
 2517 00aa 3B       		.uleb128 0x3b
 2518 00ab 05       		.uleb128 0x5
 2519 00ac 01       		.uleb128 0x1
 2520 00ad 13       		.uleb128 0x13
 2521 00ae 00       		.byte	0
 2522 00af 00       		.byte	0
 2523 00b0 0F       		.uleb128 0xf
 2524 00b1 0D       		.uleb128 0xd
 2525 00b2 00       		.byte	0
 2526 00b3 03       		.uleb128 0x3
 2527 00b4 08       		.uleb128 0x8
 2528 00b5 3A       		.uleb128 0x3a
 2529 00b6 0B       		.uleb128 0xb
 2530 00b7 3B       		.uleb128 0x3b
 2531 00b8 0B       		.uleb128 0xb
 2532 00b9 49       		.uleb128 0x49
 2533 00ba 13       		.uleb128 0x13
 2534 00bb 38       		.uleb128 0x38
 2535 00bc 0B       		.uleb128 0xb
 2536 00bd 00       		.byte	0
 2537 00be 00       		.byte	0
 2538 00bf 10       		.uleb128 0x10
 2539 00c0 13       		.uleb128 0x13
 2540 00c1 01       		.byte	0x1
 2541 00c2 0B       		.uleb128 0xb
 2542 00c3 0B       		.uleb128 0xb
 2543 00c4 3A       		.uleb128 0x3a
 2544 00c5 0B       		.uleb128 0xb
 2545 00c6 3B       		.uleb128 0x3b
 2546 00c7 0B       		.uleb128 0xb
 2547 00c8 01       		.uleb128 0x1
 2548 00c9 13       		.uleb128 0x13
 2549 00ca 00       		.byte	0
 2550 00cb 00       		.byte	0
 2551 00cc 11       		.uleb128 0x11
ARM GAS  /tmp/ccYXMJUB.s 			page 46


 2552 00cd 17       		.uleb128 0x17
 2553 00ce 01       		.byte	0x1
 2554 00cf 0B       		.uleb128 0xb
 2555 00d0 0B       		.uleb128 0xb
 2556 00d1 3A       		.uleb128 0x3a
 2557 00d2 0B       		.uleb128 0xb
 2558 00d3 3B       		.uleb128 0x3b
 2559 00d4 0B       		.uleb128 0xb
 2560 00d5 01       		.uleb128 0x1
 2561 00d6 13       		.uleb128 0x13
 2562 00d7 00       		.byte	0
 2563 00d8 00       		.byte	0
 2564 00d9 12       		.uleb128 0x12
 2565 00da 0D       		.uleb128 0xd
 2566 00db 00       		.byte	0
 2567 00dc 03       		.uleb128 0x3
 2568 00dd 0E       		.uleb128 0xe
 2569 00de 3A       		.uleb128 0x3a
 2570 00df 0B       		.uleb128 0xb
 2571 00e0 3B       		.uleb128 0x3b
 2572 00e1 05       		.uleb128 0x5
 2573 00e2 49       		.uleb128 0x49
 2574 00e3 13       		.uleb128 0x13
 2575 00e4 00       		.byte	0
 2576 00e5 00       		.byte	0
 2577 00e6 13       		.uleb128 0x13
 2578 00e7 26       		.uleb128 0x26
 2579 00e8 00       		.byte	0
 2580 00e9 49       		.uleb128 0x49
 2581 00ea 13       		.uleb128 0x13
 2582 00eb 00       		.byte	0
 2583 00ec 00       		.byte	0
 2584 00ed 14       		.uleb128 0x14
 2585 00ee 35       		.uleb128 0x35
 2586 00ef 00       		.byte	0
 2587 00f0 49       		.uleb128 0x49
 2588 00f1 13       		.uleb128 0x13
 2589 00f2 00       		.byte	0
 2590 00f3 00       		.byte	0
 2591 00f4 15       		.uleb128 0x15
 2592 00f5 01       		.uleb128 0x1
 2593 00f6 01       		.byte	0x1
 2594 00f7 49       		.uleb128 0x49
 2595 00f8 13       		.uleb128 0x13
 2596 00f9 01       		.uleb128 0x1
 2597 00fa 13       		.uleb128 0x13
 2598 00fb 00       		.byte	0
 2599 00fc 00       		.byte	0
 2600 00fd 16       		.uleb128 0x16
 2601 00fe 21       		.uleb128 0x21
 2602 00ff 00       		.byte	0
 2603 0100 49       		.uleb128 0x49
 2604 0101 13       		.uleb128 0x13
 2605 0102 2F       		.uleb128 0x2f
 2606 0103 0B       		.uleb128 0xb
 2607 0104 00       		.byte	0
 2608 0105 00       		.byte	0
ARM GAS  /tmp/ccYXMJUB.s 			page 47


 2609 0106 17       		.uleb128 0x17
 2610 0107 2E       		.uleb128 0x2e
 2611 0108 01       		.byte	0x1
 2612 0109 03       		.uleb128 0x3
 2613 010a 0E       		.uleb128 0xe
 2614 010b 3A       		.uleb128 0x3a
 2615 010c 0B       		.uleb128 0xb
 2616 010d 3B       		.uleb128 0x3b
 2617 010e 05       		.uleb128 0x5
 2618 010f 27       		.uleb128 0x27
 2619 0110 19       		.uleb128 0x19
 2620 0111 20       		.uleb128 0x20
 2621 0112 0B       		.uleb128 0xb
 2622 0113 01       		.uleb128 0x1
 2623 0114 13       		.uleb128 0x13
 2624 0115 00       		.byte	0
 2625 0116 00       		.byte	0
 2626 0117 18       		.uleb128 0x18
 2627 0118 05       		.uleb128 0x5
 2628 0119 00       		.byte	0
 2629 011a 03       		.uleb128 0x3
 2630 011b 0E       		.uleb128 0xe
 2631 011c 3A       		.uleb128 0x3a
 2632 011d 0B       		.uleb128 0xb
 2633 011e 3B       		.uleb128 0x3b
 2634 011f 05       		.uleb128 0x5
 2635 0120 49       		.uleb128 0x49
 2636 0121 13       		.uleb128 0x13
 2637 0122 00       		.byte	0
 2638 0123 00       		.byte	0
 2639 0124 19       		.uleb128 0x19
 2640 0125 2E       		.uleb128 0x2e
 2641 0126 01       		.byte	0x1
 2642 0127 03       		.uleb128 0x3
 2643 0128 0E       		.uleb128 0xe
 2644 0129 3A       		.uleb128 0x3a
 2645 012a 0B       		.uleb128 0xb
 2646 012b 3B       		.uleb128 0x3b
 2647 012c 05       		.uleb128 0x5
 2648 012d 27       		.uleb128 0x27
 2649 012e 19       		.uleb128 0x19
 2650 012f 11       		.uleb128 0x11
 2651 0130 01       		.uleb128 0x1
 2652 0131 12       		.uleb128 0x12
 2653 0132 06       		.uleb128 0x6
 2654 0133 40       		.uleb128 0x40
 2655 0134 18       		.uleb128 0x18
 2656 0135 9742     		.uleb128 0x2117
 2657 0137 19       		.uleb128 0x19
 2658 0138 01       		.uleb128 0x1
 2659 0139 13       		.uleb128 0x13
 2660 013a 00       		.byte	0
 2661 013b 00       		.byte	0
 2662 013c 1A       		.uleb128 0x1a
 2663 013d 1D       		.uleb128 0x1d
 2664 013e 01       		.byte	0x1
 2665 013f 31       		.uleb128 0x31
ARM GAS  /tmp/ccYXMJUB.s 			page 48


 2666 0140 13       		.uleb128 0x13
 2667 0141 11       		.uleb128 0x11
 2668 0142 01       		.uleb128 0x1
 2669 0143 12       		.uleb128 0x12
 2670 0144 06       		.uleb128 0x6
 2671 0145 58       		.uleb128 0x58
 2672 0146 0B       		.uleb128 0xb
 2673 0147 59       		.uleb128 0x59
 2674 0148 05       		.uleb128 0x5
 2675 0149 00       		.byte	0
 2676 014a 00       		.byte	0
 2677 014b 1B       		.uleb128 0x1b
 2678 014c 05       		.uleb128 0x5
 2679 014d 00       		.byte	0
 2680 014e 31       		.uleb128 0x31
 2681 014f 13       		.uleb128 0x13
 2682 0150 02       		.uleb128 0x2
 2683 0151 18       		.uleb128 0x18
 2684 0152 00       		.byte	0
 2685 0153 00       		.byte	0
 2686 0154 1C       		.uleb128 0x1c
 2687 0155 05       		.uleb128 0x5
 2688 0156 00       		.byte	0
 2689 0157 03       		.uleb128 0x3
 2690 0158 08       		.uleb128 0x8
 2691 0159 3A       		.uleb128 0x3a
 2692 015a 0B       		.uleb128 0xb
 2693 015b 3B       		.uleb128 0x3b
 2694 015c 05       		.uleb128 0x5
 2695 015d 49       		.uleb128 0x49
 2696 015e 13       		.uleb128 0x13
 2697 015f 02       		.uleb128 0x2
 2698 0160 18       		.uleb128 0x18
 2699 0161 00       		.byte	0
 2700 0162 00       		.byte	0
 2701 0163 1D       		.uleb128 0x1d
 2702 0164 2E       		.uleb128 0x2e
 2703 0165 01       		.byte	0x1
 2704 0166 03       		.uleb128 0x3
 2705 0167 0E       		.uleb128 0xe
 2706 0168 3A       		.uleb128 0x3a
 2707 0169 0B       		.uleb128 0xb
 2708 016a 3B       		.uleb128 0x3b
 2709 016b 05       		.uleb128 0x5
 2710 016c 27       		.uleb128 0x27
 2711 016d 19       		.uleb128 0x19
 2712 016e 49       		.uleb128 0x49
 2713 016f 13       		.uleb128 0x13
 2714 0170 11       		.uleb128 0x11
 2715 0171 01       		.uleb128 0x1
 2716 0172 12       		.uleb128 0x12
 2717 0173 06       		.uleb128 0x6
 2718 0174 40       		.uleb128 0x40
 2719 0175 18       		.uleb128 0x18
 2720 0176 9742     		.uleb128 0x2117
 2721 0178 19       		.uleb128 0x19
 2722 0179 01       		.uleb128 0x1
ARM GAS  /tmp/ccYXMJUB.s 			page 49


 2723 017a 13       		.uleb128 0x13
 2724 017b 00       		.byte	0
 2725 017c 00       		.byte	0
 2726 017d 1E       		.uleb128 0x1e
 2727 017e 34       		.uleb128 0x34
 2728 017f 00       		.byte	0
 2729 0180 03       		.uleb128 0x3
 2730 0181 08       		.uleb128 0x8
 2731 0182 3A       		.uleb128 0x3a
 2732 0183 0B       		.uleb128 0xb
 2733 0184 3B       		.uleb128 0x3b
 2734 0185 05       		.uleb128 0x5
 2735 0186 49       		.uleb128 0x49
 2736 0187 13       		.uleb128 0x13
 2737 0188 02       		.uleb128 0x2
 2738 0189 18       		.uleb128 0x18
 2739 018a 00       		.byte	0
 2740 018b 00       		.byte	0
 2741 018c 1F       		.uleb128 0x1f
 2742 018d 2E       		.uleb128 0x2e
 2743 018e 00       		.byte	0
 2744 018f 03       		.uleb128 0x3
 2745 0190 0E       		.uleb128 0xe
 2746 0191 3A       		.uleb128 0x3a
 2747 0192 0B       		.uleb128 0xb
 2748 0193 3B       		.uleb128 0x3b
 2749 0194 05       		.uleb128 0x5
 2750 0195 27       		.uleb128 0x27
 2751 0196 19       		.uleb128 0x19
 2752 0197 11       		.uleb128 0x11
 2753 0198 01       		.uleb128 0x1
 2754 0199 12       		.uleb128 0x12
 2755 019a 06       		.uleb128 0x6
 2756 019b 40       		.uleb128 0x40
 2757 019c 18       		.uleb128 0x18
 2758 019d 9642     		.uleb128 0x2116
 2759 019f 19       		.uleb128 0x19
 2760 01a0 00       		.byte	0
 2761 01a1 00       		.byte	0
 2762 01a2 20       		.uleb128 0x20
 2763 01a3 2E       		.uleb128 0x2e
 2764 01a4 01       		.byte	0x1
 2765 01a5 03       		.uleb128 0x3
 2766 01a6 0E       		.uleb128 0xe
 2767 01a7 3A       		.uleb128 0x3a
 2768 01a8 0B       		.uleb128 0xb
 2769 01a9 3B       		.uleb128 0x3b
 2770 01aa 05       		.uleb128 0x5
 2771 01ab 27       		.uleb128 0x27
 2772 01ac 19       		.uleb128 0x19
 2773 01ad 11       		.uleb128 0x11
 2774 01ae 01       		.uleb128 0x1
 2775 01af 12       		.uleb128 0x12
 2776 01b0 06       		.uleb128 0x6
 2777 01b1 40       		.uleb128 0x40
 2778 01b2 18       		.uleb128 0x18
 2779 01b3 9642     		.uleb128 0x2116
ARM GAS  /tmp/ccYXMJUB.s 			page 50


 2780 01b5 19       		.uleb128 0x19
 2781 01b6 01       		.uleb128 0x1
 2782 01b7 13       		.uleb128 0x13
 2783 01b8 00       		.byte	0
 2784 01b9 00       		.byte	0
 2785 01ba 21       		.uleb128 0x21
 2786 01bb 34       		.uleb128 0x34
 2787 01bc 00       		.byte	0
 2788 01bd 03       		.uleb128 0x3
 2789 01be 0E       		.uleb128 0xe
 2790 01bf 49       		.uleb128 0x49
 2791 01c0 13       		.uleb128 0x13
 2792 01c1 34       		.uleb128 0x34
 2793 01c2 19       		.uleb128 0x19
 2794 01c3 00       		.byte	0
 2795 01c4 00       		.byte	0
 2796 01c5 22       		.uleb128 0x22
 2797 01c6 2E       		.uleb128 0x2e
 2798 01c7 01       		.byte	0x1
 2799 01c8 03       		.uleb128 0x3
 2800 01c9 0E       		.uleb128 0xe
 2801 01ca 3A       		.uleb128 0x3a
 2802 01cb 0B       		.uleb128 0xb
 2803 01cc 3B       		.uleb128 0x3b
 2804 01cd 0B       		.uleb128 0xb
 2805 01ce 27       		.uleb128 0x27
 2806 01cf 19       		.uleb128 0x19
 2807 01d0 49       		.uleb128 0x49
 2808 01d1 13       		.uleb128 0x13
 2809 01d2 11       		.uleb128 0x11
 2810 01d3 01       		.uleb128 0x1
 2811 01d4 12       		.uleb128 0x12
 2812 01d5 06       		.uleb128 0x6
 2813 01d6 40       		.uleb128 0x40
 2814 01d7 18       		.uleb128 0x18
 2815 01d8 9642     		.uleb128 0x2116
 2816 01da 19       		.uleb128 0x19
 2817 01db 01       		.uleb128 0x1
 2818 01dc 13       		.uleb128 0x13
 2819 01dd 00       		.byte	0
 2820 01de 00       		.byte	0
 2821 01df 23       		.uleb128 0x23
 2822 01e0 05       		.uleb128 0x5
 2823 01e1 00       		.byte	0
 2824 01e2 03       		.uleb128 0x3
 2825 01e3 08       		.uleb128 0x8
 2826 01e4 3A       		.uleb128 0x3a
 2827 01e5 0B       		.uleb128 0xb
 2828 01e6 3B       		.uleb128 0x3b
 2829 01e7 0B       		.uleb128 0xb
 2830 01e8 49       		.uleb128 0x49
 2831 01e9 13       		.uleb128 0x13
 2832 01ea 02       		.uleb128 0x2
 2833 01eb 18       		.uleb128 0x18
 2834 01ec 00       		.byte	0
 2835 01ed 00       		.byte	0
 2836 01ee 24       		.uleb128 0x24
ARM GAS  /tmp/ccYXMJUB.s 			page 51


 2837 01ef 2E       		.uleb128 0x2e
 2838 01f0 01       		.byte	0x1
 2839 01f1 3F       		.uleb128 0x3f
 2840 01f2 19       		.uleb128 0x19
 2841 01f3 03       		.uleb128 0x3
 2842 01f4 0E       		.uleb128 0xe
 2843 01f5 3A       		.uleb128 0x3a
 2844 01f6 0B       		.uleb128 0xb
 2845 01f7 3B       		.uleb128 0x3b
 2846 01f8 0B       		.uleb128 0xb
 2847 01f9 27       		.uleb128 0x27
 2848 01fa 19       		.uleb128 0x19
 2849 01fb 11       		.uleb128 0x11
 2850 01fc 01       		.uleb128 0x1
 2851 01fd 12       		.uleb128 0x12
 2852 01fe 06       		.uleb128 0x6
 2853 01ff 40       		.uleb128 0x40
 2854 0200 18       		.uleb128 0x18
 2855 0201 9642     		.uleb128 0x2116
 2856 0203 19       		.uleb128 0x19
 2857 0204 01       		.uleb128 0x1
 2858 0205 13       		.uleb128 0x13
 2859 0206 00       		.byte	0
 2860 0207 00       		.byte	0
 2861 0208 25       		.uleb128 0x25
 2862 0209 34       		.uleb128 0x34
 2863 020a 00       		.byte	0
 2864 020b 03       		.uleb128 0x3
 2865 020c 08       		.uleb128 0x8
 2866 020d 3A       		.uleb128 0x3a
 2867 020e 0B       		.uleb128 0xb
 2868 020f 3B       		.uleb128 0x3b
 2869 0210 0B       		.uleb128 0xb
 2870 0211 49       		.uleb128 0x49
 2871 0212 13       		.uleb128 0x13
 2872 0213 02       		.uleb128 0x2
 2873 0214 18       		.uleb128 0x18
 2874 0215 00       		.byte	0
 2875 0216 00       		.byte	0
 2876 0217 26       		.uleb128 0x26
 2877 0218 0B       		.uleb128 0xb
 2878 0219 01       		.byte	0x1
 2879 021a 11       		.uleb128 0x11
 2880 021b 01       		.uleb128 0x1
 2881 021c 12       		.uleb128 0x12
 2882 021d 06       		.uleb128 0x6
 2883 021e 00       		.byte	0
 2884 021f 00       		.byte	0
 2885 0220 27       		.uleb128 0x27
 2886 0221 2E       		.uleb128 0x2e
 2887 0222 01       		.byte	0x1
 2888 0223 3F       		.uleb128 0x3f
 2889 0224 19       		.uleb128 0x19
 2890 0225 03       		.uleb128 0x3
 2891 0226 0E       		.uleb128 0xe
 2892 0227 3A       		.uleb128 0x3a
 2893 0228 0B       		.uleb128 0xb
ARM GAS  /tmp/ccYXMJUB.s 			page 52


 2894 0229 3B       		.uleb128 0x3b
 2895 022a 0B       		.uleb128 0xb
 2896 022b 27       		.uleb128 0x27
 2897 022c 19       		.uleb128 0x19
 2898 022d 49       		.uleb128 0x49
 2899 022e 13       		.uleb128 0x13
 2900 022f 11       		.uleb128 0x11
 2901 0230 01       		.uleb128 0x1
 2902 0231 12       		.uleb128 0x12
 2903 0232 06       		.uleb128 0x6
 2904 0233 40       		.uleb128 0x40
 2905 0234 18       		.uleb128 0x18
 2906 0235 9642     		.uleb128 0x2116
 2907 0237 19       		.uleb128 0x19
 2908 0238 01       		.uleb128 0x1
 2909 0239 13       		.uleb128 0x13
 2910 023a 00       		.byte	0
 2911 023b 00       		.byte	0
 2912 023c 28       		.uleb128 0x28
 2913 023d 2E       		.uleb128 0x2e
 2914 023e 01       		.byte	0x1
 2915 023f 3F       		.uleb128 0x3f
 2916 0240 19       		.uleb128 0x19
 2917 0241 03       		.uleb128 0x3
 2918 0242 0E       		.uleb128 0xe
 2919 0243 3A       		.uleb128 0x3a
 2920 0244 0B       		.uleb128 0xb
 2921 0245 3B       		.uleb128 0x3b
 2922 0246 05       		.uleb128 0x5
 2923 0247 27       		.uleb128 0x27
 2924 0248 19       		.uleb128 0x19
 2925 0249 49       		.uleb128 0x49
 2926 024a 13       		.uleb128 0x13
 2927 024b 11       		.uleb128 0x11
 2928 024c 01       		.uleb128 0x1
 2929 024d 12       		.uleb128 0x12
 2930 024e 06       		.uleb128 0x6
 2931 024f 40       		.uleb128 0x40
 2932 0250 18       		.uleb128 0x18
 2933 0251 9742     		.uleb128 0x2117
 2934 0253 19       		.uleb128 0x19
 2935 0254 01       		.uleb128 0x1
 2936 0255 13       		.uleb128 0x13
 2937 0256 00       		.byte	0
 2938 0257 00       		.byte	0
 2939 0258 29       		.uleb128 0x29
 2940 0259 2E       		.uleb128 0x2e
 2941 025a 01       		.byte	0x1
 2942 025b 3F       		.uleb128 0x3f
 2943 025c 19       		.uleb128 0x19
 2944 025d 03       		.uleb128 0x3
 2945 025e 0E       		.uleb128 0xe
 2946 025f 3A       		.uleb128 0x3a
 2947 0260 0B       		.uleb128 0xb
 2948 0261 3B       		.uleb128 0x3b
 2949 0262 05       		.uleb128 0x5
 2950 0263 27       		.uleb128 0x27
ARM GAS  /tmp/ccYXMJUB.s 			page 53


 2951 0264 19       		.uleb128 0x19
 2952 0265 11       		.uleb128 0x11
 2953 0266 01       		.uleb128 0x1
 2954 0267 12       		.uleb128 0x12
 2955 0268 06       		.uleb128 0x6
 2956 0269 40       		.uleb128 0x40
 2957 026a 18       		.uleb128 0x18
 2958 026b 9642     		.uleb128 0x2116
 2959 026d 19       		.uleb128 0x19
 2960 026e 01       		.uleb128 0x1
 2961 026f 13       		.uleb128 0x13
 2962 0270 00       		.byte	0
 2963 0271 00       		.byte	0
 2964 0272 2A       		.uleb128 0x2a
 2965 0273 34       		.uleb128 0x34
 2966 0274 00       		.byte	0
 2967 0275 03       		.uleb128 0x3
 2968 0276 0E       		.uleb128 0xe
 2969 0277 3A       		.uleb128 0x3a
 2970 0278 0B       		.uleb128 0xb
 2971 0279 3B       		.uleb128 0x3b
 2972 027a 05       		.uleb128 0x5
 2973 027b 49       		.uleb128 0x49
 2974 027c 13       		.uleb128 0x13
 2975 027d 02       		.uleb128 0x2
 2976 027e 18       		.uleb128 0x18
 2977 027f 00       		.byte	0
 2978 0280 00       		.byte	0
 2979 0281 2B       		.uleb128 0x2b
 2980 0282 34       		.uleb128 0x34
 2981 0283 00       		.byte	0
 2982 0284 03       		.uleb128 0x3
 2983 0285 0E       		.uleb128 0xe
 2984 0286 3A       		.uleb128 0x3a
 2985 0287 0B       		.uleb128 0xb
 2986 0288 3B       		.uleb128 0x3b
 2987 0289 05       		.uleb128 0x5
 2988 028a 49       		.uleb128 0x49
 2989 028b 13       		.uleb128 0x13
 2990 028c 3F       		.uleb128 0x3f
 2991 028d 19       		.uleb128 0x19
 2992 028e 3C       		.uleb128 0x3c
 2993 028f 19       		.uleb128 0x19
 2994 0290 00       		.byte	0
 2995 0291 00       		.byte	0
 2996 0292 2C       		.uleb128 0x2c
 2997 0293 34       		.uleb128 0x34
 2998 0294 00       		.byte	0
 2999 0295 03       		.uleb128 0x3
 3000 0296 08       		.uleb128 0x8
 3001 0297 3A       		.uleb128 0x3a
 3002 0298 0B       		.uleb128 0xb
 3003 0299 3B       		.uleb128 0x3b
 3004 029a 05       		.uleb128 0x5
 3005 029b 49       		.uleb128 0x49
 3006 029c 13       		.uleb128 0x13
 3007 029d 3F       		.uleb128 0x3f
ARM GAS  /tmp/ccYXMJUB.s 			page 54


 3008 029e 19       		.uleb128 0x19
 3009 029f 3C       		.uleb128 0x3c
 3010 02a0 19       		.uleb128 0x19
 3011 02a1 00       		.byte	0
 3012 02a2 00       		.byte	0
 3013 02a3 00       		.byte	0
 3014              		.section	.debug_aranges,"",%progbits
 3015 0000 1C000000 		.4byte	0x1c
 3016 0004 0200     		.2byte	0x2
 3017 0006 00000000 		.4byte	.Ldebug_info0
 3018 000a 04       		.byte	0x4
 3019 000b 00       		.byte	0
 3020 000c 0000     		.2byte	0
 3021 000e 0000     		.2byte	0
 3022 0010 00000000 		.4byte	.Ltext0
 3023 0014 80040000 		.4byte	.Letext0-.Ltext0
 3024 0018 00000000 		.4byte	0
 3025 001c 00000000 		.4byte	0
 3026              		.section	.debug_line,"",%progbits
 3027              	.Ldebug_line0:
 3028 0000 7B030000 		.section	.debug_str,"MS",%progbits,1
 3028      02005002 
 3028      00000201 
 3028      FB0E0D00 
 3028      01010101 
 3029              	.LASF52:
 3030 0000 72656164 		.ascii	"ready_list_t\000"
 3030      795F6C69 
 3030      73745F74 
 3030      00
 3031              	.LASF90:
 3032 000d 77747472 		.ascii	"wttrp\000"
 3032      7000
 3033              	.LASF87:
 3034 0013 7264796D 		.ascii	"rdymsg\000"
 3034      736700
 3035              	.LASF16:
 3036 001a 75696E74 		.ascii	"uint64_t\000"
 3036      36345F74 
 3036      00
 3037              	.LASF5:
 3038 0023 5F5F7569 		.ascii	"__uint8_t\000"
 3038      6E74385F 
 3038      7400
 3039              	.LASF84:
 3040 002d 706F7274 		.ascii	"port_intctx\000"
 3040      5F696E74 
 3040      63747800 
 3041              	.LASF71:
 3042 0039 73797374 		.ascii	"system_debug_t\000"
 3042      656D5F64 
 3042      65627567 
 3042      5F7400
 3043              	.LASF105:
 3044 0048 71756575 		.ascii	"queue_init\000"
 3044      655F696E 
 3044      697400
ARM GAS  /tmp/ccYXMJUB.s 			page 55


 3045              	.LASF103:
 3046 0053 706F7274 		.ascii	"port_lock\000"
 3046      5F6C6F63 
 3046      6B00
 3047              	.LASF126:
 3048 005d 2F6E6673 		.ascii	"/nfs/nfs7/home/vvedanta/P442/p442-submissions/senso"
 3048      2F6E6673 
 3048      372F686F 
 3048      6D652F76 
 3048      76656461 
 3049 0090 7274696C 		.ascii	"rtile/final_project\000"
 3049      652F6669 
 3049      6E616C5F 
 3049      70726F6A 
 3049      65637400 
 3050              	.LASF12:
 3051 00a4 6C6F6E67 		.ascii	"long long unsigned int\000"
 3051      206C6F6E 
 3051      6720756E 
 3051      7369676E 
 3051      65642069 
 3052              	.LASF88:
 3053 00bb 65786974 		.ascii	"exitcode\000"
 3053      636F6465 
 3053      00
 3054              	.LASF78:
 3055 00c4 6D61696E 		.ascii	"mainthread\000"
 3055      74687265 
 3055      616400
 3056              	.LASF68:
 3057 00cf 76697274 		.ascii	"virtual_timers_list_t\000"
 3057      75616C5F 
 3057      74696D65 
 3057      72735F6C 
 3057      6973745F 
 3058              	.LASF123:
 3059 00e5 49544D5F 		.ascii	"ITM_RxBuffer\000"
 3059      52784275 
 3059      66666572 
 3059      00
 3060              	.LASF51:
 3061 00f2 63685F74 		.ascii	"ch_threads_queue\000"
 3061      68726561 
 3061      64735F71 
 3061      75657565 
 3061      00
 3062              	.LASF30:
 3063 0103 705F7072 		.ascii	"p_prio\000"
 3063      696F00
 3064              	.LASF119:
 3065 010a 63684D74 		.ascii	"chMtxUnlock\000"
 3065      78556E6C 
 3065      6F636B00 
 3066              	.LASF1:
 3067 0116 7369676E 		.ascii	"signed char\000"
 3067      65642063 
 3067      68617200 
ARM GAS  /tmp/ccYXMJUB.s 			page 56


 3068              	.LASF45:
 3069 0122 705F6D70 		.ascii	"p_mpool\000"
 3069      6F6F6C00 
 3070              	.LASF98:
 3071 012a 6D5F7175 		.ascii	"m_queue\000"
 3071      65756500 
 3072              	.LASF77:
 3073 0132 76746C69 		.ascii	"vtlist\000"
 3073      737400
 3074              	.LASF104:
 3075 0139 706F7274 		.ascii	"port_unlock\000"
 3075      5F756E6C 
 3075      6F636B00 
 3076              	.LASF21:
 3077 0145 74736C69 		.ascii	"tslices_t\000"
 3077      6365735F 
 3077      7400
 3078              	.LASF75:
 3079 014f 63685F73 		.ascii	"ch_system\000"
 3079      79737465 
 3079      6D00
 3080              	.LASF7:
 3081 0159 6C6F6E67 		.ascii	"long int\000"
 3081      20696E74 
 3081      00
 3082              	.LASF110:
 3083 0162 71756575 		.ascii	"queue_dequeue\000"
 3083      655F6465 
 3083      71756575 
 3083      6500
 3084              	.LASF19:
 3085 0170 74737461 		.ascii	"tstate_t\000"
 3085      74655F74 
 3085      00
 3086              	.LASF108:
 3087 0179 71756575 		.ascii	"queue_notempty\000"
 3087      655F6E6F 
 3087      74656D70 
 3087      747900
 3088              	.LASF10:
 3089 0188 6C6F6E67 		.ascii	"long long int\000"
 3089      206C6F6E 
 3089      6720696E 
 3089      7400
 3090              	.LASF116:
 3091 0196 63684D74 		.ascii	"chMtxLockS\000"
 3091      784C6F63 
 3091      6B5300
 3092              	.LASF118:
 3093 01a1 63684D74 		.ascii	"chMtxTryLockS\000"
 3093      78547279 
 3093      4C6F636B 
 3093      5300
 3094              	.LASF32:
 3095 01af 705F6E65 		.ascii	"p_newer\000"
 3095      77657200 
 3096              	.LASF95:
ARM GAS  /tmp/ccYXMJUB.s 			page 57


 3097 01b7 735F7175 		.ascii	"s_queue\000"
 3097      65756500 
 3098              	.LASF57:
 3099 01bf 725F6E65 		.ascii	"r_newer\000"
 3099      77657200 
 3100              	.LASF81:
 3101 01c7 72656761 		.ascii	"regarm_t\000"
 3101      726D5F74 
 3101      00
 3102              	.LASF64:
 3103 01d0 76745F70 		.ascii	"vt_prev\000"
 3103      72657600 
 3104              	.LASF102:
 3105 01d8 6D757465 		.ascii	"mutex_t\000"
 3105      785F7400 
 3106              	.LASF128:
 3107 01e0 76616C75 		.ascii	"value\000"
 3107      6500
 3108              	.LASF79:
 3109 01e6 69646C65 		.ascii	"idle_thread_wa\000"
 3109      5F746872 
 3109      6561645F 
 3109      776100
 3110              	.LASF25:
 3111 01f5 636E745F 		.ascii	"cnt_t\000"
 3111      7400
 3112              	.LASF121:
 3113 01fb 63684D74 		.ascii	"chMtxUnlockS\000"
 3113      78556E6C 
 3113      6F636B53 
 3113      00
 3114              	.LASF0:
 3115 0208 756E7369 		.ascii	"unsigned int\000"
 3115      676E6564 
 3115      20696E74 
 3115      00
 3116              	.LASF63:
 3117 0215 76745F6E 		.ascii	"vt_next\000"
 3117      65787400 
 3118              	.LASF91:
 3119 021d 77747365 		.ascii	"wtsemp\000"
 3119      6D7000
 3120              	.LASF40:
 3121 0224 705F6D73 		.ascii	"p_msgqueue\000"
 3121      67717565 
 3121      756500
 3122              	.LASF96:
 3123 022f 735F636E 		.ascii	"s_cnt\000"
 3123      7400
 3124              	.LASF4:
 3125 0235 73686F72 		.ascii	"short unsigned int\000"
 3125      7420756E 
 3125      7369676E 
 3125      65642069 
 3125      6E7400
 3126              	.LASF48:
 3127 0248 63685F74 		.ascii	"ch_thread\000"
ARM GAS  /tmp/ccYXMJUB.s 			page 58


 3127      68726561 
 3127      6400
 3128              	.LASF23:
 3129 0252 6D73675F 		.ascii	"msg_t\000"
 3129      7400
 3130              	.LASF74:
 3131 0258 63685F73 		.ascii	"ch_system_t\000"
 3131      79737465 
 3131      6D5F7400 
 3132              	.LASF122:
 3133 0264 63684D74 		.ascii	"chMtxUnlockAll\000"
 3133      78556E6C 
 3133      6F636B41 
 3133      6C6C00
 3134              	.LASF120:
 3135 0273 6E657770 		.ascii	"newprio\000"
 3135      72696F00 
 3136              	.LASF18:
 3137 027b 746D6F64 		.ascii	"tmode_t\000"
 3137      655F7400 
 3138              	.LASF124:
 3139 0283 474E5520 		.ascii	"GNU C 4.8.4 20140526 (release) [ARM/embedded-4_8-br"
 3139      4320342E 
 3139      382E3420 
 3139      32303134 
 3139      30353236 
 3140 02b6 616E6368 		.ascii	"anch revision 211358] -mcpu=cortex-m4 -mno-thumb-in"
 3140      20726576 
 3140      6973696F 
 3140      6E203231 
 3140      31333538 
 3141 02e9 74657277 		.ascii	"terwork -mthumb -ggdb -O0 -fomit-frame-pointer -fal"
 3141      6F726B20 
 3141      2D6D7468 
 3141      756D6220 
 3141      2D676764 
 3142 031c 69676E2D 		.ascii	"ign-functions=16\000"
 3142      66756E63 
 3142      74696F6E 
 3142      733D3136 
 3142      00
 3143              	.LASF53:
 3144 032d 63685F72 		.ascii	"ch_ready_list\000"
 3144      65616479 
 3144      5F6C6973 
 3144      7400
 3145              	.LASF24:
 3146 033b 6576656E 		.ascii	"eventmask_t\000"
 3146      746D6173 
 3146      6B5F7400 
 3147              	.LASF117:
 3148 0347 63684D74 		.ascii	"chMtxTryLock\000"
 3148      78547279 
 3148      4C6F636B 
 3148      00
 3149              	.LASF6:
 3150 0354 5F5F696E 		.ascii	"__int32_t\000"
ARM GAS  /tmp/ccYXMJUB.s 			page 59


 3150      7433325F 
 3150      7400
 3151              	.LASF82:
 3152 035e 73746B61 		.ascii	"stkalign_t\000"
 3152      6C69676E 
 3152      5F7400
 3153              	.LASF47:
 3154 0369 74687265 		.ascii	"threads_list_t\000"
 3154      6164735F 
 3154      6C697374 
 3154      5F7400
 3155              	.LASF39:
 3156 0378 705F7761 		.ascii	"p_waiting\000"
 3156      6974696E 
 3156      6700
 3157              	.LASF80:
 3158 0382 73697A65 		.ascii	"sizetype\000"
 3158      74797065 
 3158      00
 3159              	.LASF46:
 3160 038b 74687265 		.ascii	"thread_reference_t\000"
 3160      61645F72 
 3160      65666572 
 3160      656E6365 
 3160      5F7400
 3161              	.LASF69:
 3162 039e 63685F76 		.ascii	"ch_virtual_timers_list\000"
 3162      69727475 
 3162      616C5F74 
 3162      696D6572 
 3162      735F6C69 
 3163              	.LASF127:
 3164 03b5 5F5F7365 		.ascii	"__set_BASEPRI\000"
 3164      745F4241 
 3164      53455052 
 3164      4900
 3165              	.LASF115:
 3166 03c3 63684D74 		.ascii	"chMtxLock\000"
 3166      784C6F63 
 3166      6B00
 3167              	.LASF33:
 3168 03cd 705F6F6C 		.ascii	"p_older\000"
 3168      64657200 
 3169              	.LASF56:
 3170 03d5 725F6374 		.ascii	"r_ctx\000"
 3170      7800
 3171              	.LASF86:
 3172 03db 746D5F63 		.ascii	"tm_calibration_t\000"
 3172      616C6962 
 3172      72617469 
 3172      6F6E5F74 
 3172      00
 3173              	.LASF100:
 3174 03ec 6D5F6E65 		.ascii	"m_next\000"
 3174      787400
 3175              	.LASF59:
 3176 03f3 725F6375 		.ascii	"r_current\000"
ARM GAS  /tmp/ccYXMJUB.s 			page 60


 3176      7272656E 
 3176      7400
 3177              	.LASF58:
 3178 03fd 725F6F6C 		.ascii	"r_older\000"
 3178      64657200 
 3179              	.LASF11:
 3180 0405 5F5F7569 		.ascii	"__uint64_t\000"
 3180      6E743634 
 3180      5F7400
 3181              	.LASF20:
 3182 0410 74726566 		.ascii	"trefs_t\000"
 3182      735F7400 
 3183              	.LASF61:
 3184 0418 76697274 		.ascii	"virtual_timer_t\000"
 3184      75616C5F 
 3184      74696D65 
 3184      725F7400 
 3185              	.LASF29:
 3186 0428 705F7072 		.ascii	"p_prev\000"
 3186      657600
 3187              	.LASF22:
 3188 042f 74707269 		.ascii	"tprio_t\000"
 3188      6F5F7400 
 3189              	.LASF114:
 3190 0437 63684D74 		.ascii	"chMtxObjectInit\000"
 3190      784F626A 
 3190      65637449 
 3190      6E697400 
 3191              	.LASF72:
 3192 0447 63685F73 		.ascii	"ch_system_debug\000"
 3192      79737465 
 3192      6D5F6465 
 3192      62756700 
 3193              	.LASF106:
 3194 0457 5F426F6F 		.ascii	"_Bool\000"
 3194      6C00
 3195              	.LASF14:
 3196 045d 696E7433 		.ascii	"int32_t\000"
 3196      325F7400 
 3197              	.LASF2:
 3198 0465 756E7369 		.ascii	"unsigned char\000"
 3198      676E6564 
 3198      20636861 
 3198      7200
 3199              	.LASF35:
 3200 0473 705F7374 		.ascii	"p_state\000"
 3200      61746500 
 3201              	.LASF43:
 3202 047b 705F6D74 		.ascii	"p_mtxlist\000"
 3202      786C6973 
 3202      7400
 3203              	.LASF3:
 3204 0485 73686F72 		.ascii	"short int\000"
 3204      7420696E 
 3204      7400
 3205              	.LASF38:
 3206 048f 705F7072 		.ascii	"p_preempt\000"
ARM GAS  /tmp/ccYXMJUB.s 			page 61


 3206      65656D70 
 3206      7400
 3207              	.LASF55:
 3208 0499 725F7072 		.ascii	"r_prio\000"
 3208      696F00
 3209              	.LASF93:
 3210 04a0 65776D61 		.ascii	"ewmask\000"
 3210      736B00
 3211              	.LASF28:
 3212 04a7 705F6E65 		.ascii	"p_next\000"
 3212      787400
 3213              	.LASF36:
 3214 04ae 705F666C 		.ascii	"p_flags\000"
 3214      61677300 
 3215              	.LASF113:
 3216 04b6 5F5F6675 		.ascii	"__func__\000"
 3216      6E635F5F 
 3216      00
 3217              	.LASF129:
 3218 04bf 63685379 		.ascii	"chSysLock\000"
 3218      734C6F63 
 3218      6B00
 3219              	.LASF62:
 3220 04c9 63685F76 		.ascii	"ch_virtual_timer\000"
 3220      69727475 
 3220      616C5F74 
 3220      696D6572 
 3220      00
 3221              	.LASF94:
 3222 04da 63685F73 		.ascii	"ch_semaphore\000"
 3222      656D6170 
 3222      686F7265 
 3222      00
 3223              	.LASF42:
 3224 04e7 705F6570 		.ascii	"p_epending\000"
 3224      656E6469 
 3224      6E6700
 3225              	.LASF15:
 3226 04f2 75696E74 		.ascii	"uint32_t\000"
 3226      33325F74 
 3226      00
 3227              	.LASF92:
 3228 04fb 77746D74 		.ascii	"wtmtxp\000"
 3228      787000
 3229              	.LASF54:
 3230 0502 725F7175 		.ascii	"r_queue\000"
 3230      65756500 
 3231              	.LASF65:
 3232 050a 76745F64 		.ascii	"vt_delta\000"
 3232      656C7461 
 3232      00
 3233              	.LASF49:
 3234 0513 63685F74 		.ascii	"ch_threads_list\000"
 3234      68726561 
 3234      64735F6C 
 3234      69737400 
 3235              	.LASF125:
ARM GAS  /tmp/ccYXMJUB.s 			page 62


 3236 0523 2E2E2F2E 		.ascii	"../../ChibiOS/os/rt/src/chmtx.c\000"
 3236      2E2F4368 
 3236      6962694F 
 3236      532F6F73 
 3236      2F72742F 
 3237              	.LASF9:
 3238 0543 6C6F6E67 		.ascii	"long unsigned int\000"
 3238      20756E73 
 3238      69676E65 
 3238      6420696E 
 3238      7400
 3239              	.LASF101:
 3240 0555 63686172 		.ascii	"char\000"
 3240      00
 3241              	.LASF27:
 3242 055a 74687265 		.ascii	"thread_t\000"
 3242      61645F74 
 3242      00
 3243              	.LASF109:
 3244 0563 71756575 		.ascii	"queue_fifo_remove\000"
 3244      655F6669 
 3244      666F5F72 
 3244      656D6F76 
 3244      6500
 3245              	.LASF26:
 3246 0575 73797374 		.ascii	"systime_t\000"
 3246      696D655F 
 3246      7400
 3247              	.LASF44:
 3248 057f 705F7265 		.ascii	"p_realprio\000"
 3248      616C7072 
 3248      696F00
 3249              	.LASF60:
 3250 058a 76746675 		.ascii	"vtfunc_t\000"
 3250      6E635F74 
 3250      00
 3251              	.LASF8:
 3252 0593 5F5F7569 		.ascii	"__uint32_t\000"
 3252      6E743332 
 3252      5F7400
 3253              	.LASF112:
 3254 059e 63684D74 		.ascii	"chMtxQueueNotEmptyS\000"
 3254      78517565 
 3254      75654E6F 
 3254      74456D70 
 3254      74795300 
 3255              	.LASF73:
 3256 05b2 70616E69 		.ascii	"panic_msg\000"
 3256      635F6D73 
 3256      6700
 3257              	.LASF85:
 3258 05bc 6F666673 		.ascii	"offset\000"
 3258      657400
 3259              	.LASF83:
 3260 05c3 636F6E74 		.ascii	"context\000"
 3260      65787400 
 3261              	.LASF17:
ARM GAS  /tmp/ccYXMJUB.s 			page 63


 3262 05cb 7274636E 		.ascii	"rtcnt_t\000"
 3262      745F7400 
 3263              	.LASF67:
 3264 05d3 76745F70 		.ascii	"vt_par\000"
 3264      617200
 3265              	.LASF50:
 3266 05da 74687265 		.ascii	"threads_queue_t\000"
 3266      6164735F 
 3266      71756575 
 3266      655F7400 
 3267              	.LASF97:
 3268 05ea 63685F6D 		.ascii	"ch_mutex\000"
 3268      75746578 
 3268      00
 3269              	.LASF37:
 3270 05f3 705F7265 		.ascii	"p_refs\000"
 3270      667300
 3271              	.LASF76:
 3272 05fa 726C6973 		.ascii	"rlist\000"
 3272      7400
 3273              	.LASF13:
 3274 0600 75696E74 		.ascii	"uint8_t\000"
 3274      385F7400 
 3275              	.LASF89:
 3276 0608 77746F62 		.ascii	"wtobjp\000"
 3276      6A7000
 3277              	.LASF34:
 3278 060f 705F6E61 		.ascii	"p_name\000"
 3278      6D6500
 3279              	.LASF70:
 3280 0616 76745F73 		.ascii	"vt_systime\000"
 3280      79737469 
 3280      6D6500
 3281              	.LASF111:
 3282 0621 63685379 		.ascii	"chSysUnlock\000"
 3282      73556E6C 
 3282      6F636B00 
 3283              	.LASF41:
 3284 062d 705F6D73 		.ascii	"p_msg\000"
 3284      6700
 3285              	.LASF107:
 3286 0633 71756575 		.ascii	"queue_prio_insert\000"
 3286      655F7072 
 3286      696F5F69 
 3286      6E736572 
 3286      7400
 3287              	.LASF99:
 3288 0645 6D5F6F77 		.ascii	"m_owner\000"
 3288      6E657200 
 3289              	.LASF31:
 3290 064d 705F6374 		.ascii	"p_ctx\000"
 3290      7800
 3291              	.LASF66:
 3292 0653 76745F66 		.ascii	"vt_func\000"
 3292      756E6300 
 3293              		.ident	"GCC: (GNU Tools for ARM Embedded Processors) 4.8.4 20140526 (release) [ARM/embedded-4_8-br
ARM GAS  /tmp/ccYXMJUB.s 			page 64


DEFINED SYMBOLS
                            *ABS*:00000000 chmtx.c
     /tmp/ccYXMJUB.s:18     .text:00000000 $t
     /tmp/ccYXMJUB.s:23     .text:00000000 port_lock
     /tmp/ccYXMJUB.s:58     .text:00000010 port_unlock
     /tmp/ccYXMJUB.s:91     .text:00000020 queue_init
     /tmp/ccYXMJUB.s:122    .text:00000040 queue_notempty
     /tmp/ccYXMJUB.s:154    .text:00000060 queue_prio_insert
     /tmp/ccYXMJUB.s:215    .text:000000b0 queue_fifo_remove
     /tmp/ccYXMJUB.s:254    .text:000000e0 queue_dequeue
     /tmp/ccYXMJUB.s:291    .text:00000100 chSysLock
     /tmp/ccYXMJUB.s:314    .text:00000110 chSysUnlock
     /tmp/ccYXMJUB.s:336    .text:00000120 chMtxQueueNotEmptyS
     /tmp/ccYXMJUB.s:368    .text:00000140 chMtxObjectInit
     /tmp/ccYXMJUB.s:402    .text:00000160 chMtxLock
     /tmp/ccYXMJUB.s:434    .text:00000180 chMtxLockS
     /tmp/ccYXMJUB.s:565    .text:0000023c $d
     /tmp/ccYXMJUB.s:569    .text:00000240 $t
     /tmp/ccYXMJUB.s:575    .text:00000240 chMtxTryLock
     /tmp/ccYXMJUB.s:612    .text:00000270 chMtxTryLockS
     /tmp/ccYXMJUB.s:658    .text:000002a4 $d
     /tmp/ccYXMJUB.s:662    .text:000002a8 $t
     /tmp/ccYXMJUB.s:668    .text:000002b0 chMtxUnlock
     /tmp/ccYXMJUB.s:782    .text:00000350 $d
     /tmp/ccYXMJUB.s:786    .text:00000354 $t
     /tmp/ccYXMJUB.s:792    .text:00000360 chMtxUnlockS
     /tmp/ccYXMJUB.s:900    .text:000003f4 $d
     /tmp/ccYXMJUB.s:904    .text:000003f8 $t
     /tmp/ccYXMJUB.s:910    .text:00000400 chMtxUnlockAll
     /tmp/ccYXMJUB.s:1002   .text:0000047c $d
                     .debug_frame:00000010 $d

UNDEFINED SYMBOLS
chSchReadyI
chSchGoSleepS
ch
chSchRescheduleS
