ARM GAS  /tmp/cccRAi9Z.s 			page 1


   1              		.syntax unified
   2              		.cpu cortex-m4
   3              		.fpu softvfp
   4              		.eabi_attribute 20, 1
   5              		.eabi_attribute 21, 1
   6              		.eabi_attribute 23, 3
   7              		.eabi_attribute 24, 1
   8              		.eabi_attribute 25, 1
   9              		.eabi_attribute 26, 1
  10              		.eabi_attribute 30, 6
  11              		.eabi_attribute 34, 1
  12              		.eabi_attribute 18, 4
  13              		.thumb
  14              		.file	"chqueues.c"
  15              		.text
  16              	.Ltext0:
  17              		.cfi_sections	.debug_frame
  18              		.align	2
  19              		.p2align 4,,15
  20              		.thumb
  21              		.thumb_func
  22              		.type	port_lock, %function
  23              	port_lock:
  24              	.LFB127:
  25              		.file 1 "../../ChibiOS/os/rt/ports/ARMCMx/chcore_v7m.h"
  26              		.loc 1 456 0
  27              		.cfi_startproc
  28              		@ args = 0, pretend = 0, frame = 8
  29              		@ frame_needed = 0, uses_anonymous_args = 0
  30              		@ link register save eliminated.
  31 0000 82B0     		sub	sp, sp, #8
  32              		.cfi_def_cfa_offset 8
  33 0002 2023     		movs	r3, #32
  34 0004 0193     		str	r3, [sp, #4]
  35              	.LBB6:
  36              	.LBB7:
  37              		.file 2 "../../ChibiOS/os/ext/CMSIS/include/core_cmFunc.h"
  38              		.loc 2 548 0
  39 0006 019B     		ldr	r3, [sp, #4]
  40              	@ 548 "../../ChibiOS/os/ext/CMSIS/include/core_cmFunc.h" 1
  41 0008 83F31188 		MSR basepri, r3
  42              	@ 0 "" 2
  43              		.thumb
  44              	.LBE7:
  45              	.LBE6:
  46              		.loc 1 473 0
  47 000c 02B0     		add	sp, sp, #8
  48              		@ sp needed
  49 000e 7047     		bx	lr
  50              		.cfi_endproc
  51              	.LFE127:
  52              		.size	port_lock, .-port_lock
  53              		.align	2
  54              		.p2align 4,,15
  55              		.thumb
  56              		.thumb_func
  57              		.type	port_unlock, %function
ARM GAS  /tmp/cccRAi9Z.s 			page 2


  58              	port_unlock:
  59              	.LFB128:
  60              		.loc 1 480 0
  61              		.cfi_startproc
  62              		@ args = 0, pretend = 0, frame = 8
  63              		@ frame_needed = 0, uses_anonymous_args = 0
  64              		@ link register save eliminated.
  65 0010 82B0     		sub	sp, sp, #8
  66              		.cfi_def_cfa_offset 8
  67 0012 0023     		movs	r3, #0
  68 0014 0193     		str	r3, [sp, #4]
  69              	.LBB8:
  70              	.LBB9:
  71              		.loc 2 548 0
  72 0016 019B     		ldr	r3, [sp, #4]
  73              	@ 548 "../../ChibiOS/os/ext/CMSIS/include/core_cmFunc.h" 1
  74 0018 83F31188 		MSR basepri, r3
  75              	@ 0 "" 2
  76              		.thumb
  77              	.LBE9:
  78              	.LBE8:
  79              		.loc 1 487 0
  80 001c 02B0     		add	sp, sp, #8
  81              		@ sp needed
  82 001e 7047     		bx	lr
  83              		.cfi_endproc
  84              	.LFE128:
  85              		.size	port_unlock, .-port_unlock
  86              		.align	2
  87              		.p2align 4,,15
  88              		.thumb
  89              		.thumb_func
  90              		.type	queue_init, %function
  91              	queue_init:
  92              	.LFB139:
  93              		.file 3 "../../ChibiOS/os/rt/include/chschd.h"
  94              		.loc 3 602 0
  95              		.cfi_startproc
  96              		@ args = 0, pretend = 0, frame = 8
  97              		@ frame_needed = 0, uses_anonymous_args = 0
  98              		@ link register save eliminated.
  99 0020 82B0     		sub	sp, sp, #8
 100              		.cfi_def_cfa_offset 8
 101 0022 0190     		str	r0, [sp, #4]
 102              		.loc 3 604 0
 103 0024 019B     		ldr	r3, [sp, #4]
 104 0026 019A     		ldr	r2, [sp, #4]
 105 0028 1A60     		str	r2, [r3]
 106              		.loc 3 605 0
 107 002a 019B     		ldr	r3, [sp, #4]
 108 002c 019A     		ldr	r2, [sp, #4]
 109 002e 5A60     		str	r2, [r3, #4]
 110              		.loc 3 606 0
 111 0030 02B0     		add	sp, sp, #8
 112              		@ sp needed
 113 0032 7047     		bx	lr
 114              		.cfi_endproc
ARM GAS  /tmp/cccRAi9Z.s 			page 3


 115              	.LFE139:
 116              		.size	queue_init, .-queue_init
 117              		.align	2
 118 0034 AFF30080 		.p2align 4,,15
 118      AFF30080 
 118      AFF30080 
 119              		.thumb
 120              		.thumb_func
 121              		.type	chSysLock, %function
 122              	chSysLock:
 123              	.LFB156:
 124              		.file 4 "../../ChibiOS/os/rt/include/chsys.h"
 125              		.loc 4 346 0
 126              		.cfi_startproc
 127              		@ args = 0, pretend = 0, frame = 0
 128              		@ frame_needed = 0, uses_anonymous_args = 0
 129 0040 08B5     		push	{r3, lr}
 130              		.cfi_def_cfa_offset 8
 131              		.cfi_offset 3, -8
 132              		.cfi_offset 14, -4
 133              		.loc 4 348 0
 134 0042 FFF7DDFF 		bl	port_lock
 135              		.loc 4 351 0
 136 0046 08BD     		pop	{r3, pc}
 137              		.cfi_endproc
 138              	.LFE156:
 139              		.size	chSysLock, .-chSysLock
 140              		.align	2
 141 0048 AFF30080 		.p2align 4,,15
 141      AFF30080 
 142              		.thumb
 143              		.thumb_func
 144              		.type	chSysUnlock, %function
 145              	chSysUnlock:
 146              	.LFB157:
 147              		.loc 4 358 0
 148              		.cfi_startproc
 149              		@ args = 0, pretend = 0, frame = 0
 150              		@ frame_needed = 0, uses_anonymous_args = 0
 151 0050 08B5     		push	{r3, lr}
 152              		.cfi_def_cfa_offset 8
 153              		.cfi_offset 3, -8
 154              		.cfi_offset 14, -4
 155              		.loc 4 371 0
 156 0052 FFF7DDFF 		bl	port_unlock
 157              		.loc 4 372 0
 158 0056 08BD     		pop	{r3, pc}
 159              		.cfi_endproc
 160              	.LFE157:
 161              		.size	chSysUnlock, .-chSysUnlock
 162              		.align	2
 163 0058 AFF30080 		.p2align 4,,15
 163      AFF30080 
 164              		.thumb
 165              		.thumb_func
 166              		.type	chThdQueueObjectInit, %function
 167              	chThdQueueObjectInit:
ARM GAS  /tmp/cccRAi9Z.s 			page 4


 168              	.LFB184:
 169              		.file 5 "../../ChibiOS/os/rt/include/chthreads.h"
 170              		.loc 5 278 0
 171              		.cfi_startproc
 172              		@ args = 0, pretend = 0, frame = 8
 173              		@ frame_needed = 0, uses_anonymous_args = 0
 174 0060 00B5     		push	{lr}
 175              		.cfi_def_cfa_offset 4
 176              		.cfi_offset 14, -4
 177 0062 83B0     		sub	sp, sp, #12
 178              		.cfi_def_cfa_offset 16
 179 0064 0190     		str	r0, [sp, #4]
 180              		.loc 5 280 0
 181 0066 0198     		ldr	r0, [sp, #4]
 182 0068 FFF7DAFF 		bl	queue_init
 183              		.loc 5 281 0
 184 006c 03B0     		add	sp, sp, #12
 185              		@ sp needed
 186 006e 5DF804FB 		ldr	pc, [sp], #4
 187              		.cfi_endproc
 188              	.LFE184:
 189              		.size	chThdQueueObjectInit, .-chThdQueueObjectInit
 190 0072 00BF     		.align	2
 191 0074 AFF30080 		.p2align 4,,15
 191      AFF30080 
 191      AFF30080 
 192              		.thumb
 193              		.thumb_func
 194              		.type	chIQIsEmptyI, %function
 195              	chIQIsEmptyI:
 196              	.LFB222:
 197              		.file 6 "../../ChibiOS/os/rt/include/chqueues.h"
 198              		.loc 6 303 0
 199              		.cfi_startproc
 200              		@ args = 0, pretend = 0, frame = 8
 201              		@ frame_needed = 0, uses_anonymous_args = 0
 202              		@ link register save eliminated.
 203 0080 82B0     		sub	sp, sp, #8
 204              		.cfi_def_cfa_offset 8
 205 0082 0190     		str	r0, [sp, #4]
 206              		.loc 6 307 0
 207 0084 019B     		ldr	r3, [sp, #4]
 208 0086 9B68     		ldr	r3, [r3, #8]
 209 0088 002B     		cmp	r3, #0
 210 008a 14BF     		ite	ne
 211 008c 0023     		movne	r3, #0
 212 008e 0123     		moveq	r3, #1
 213 0090 DBB2     		uxtb	r3, r3
 214              		.loc 6 308 0
 215 0092 1846     		mov	r0, r3
 216 0094 02B0     		add	sp, sp, #8
 217              		@ sp needed
 218 0096 7047     		bx	lr
 219              		.cfi_endproc
 220              	.LFE222:
 221              		.size	chIQIsEmptyI, .-chIQIsEmptyI
 222              		.align	2
ARM GAS  /tmp/cccRAi9Z.s 			page 5


 223 0098 AFF30080 		.p2align 4,,15
 223      AFF30080 
 224              		.thumb
 225              		.thumb_func
 226              		.type	chIQIsFullI, %function
 227              	chIQIsFullI:
 228              	.LFB223:
 229              		.loc 6 320 0
 230              		.cfi_startproc
 231              		@ args = 0, pretend = 0, frame = 8
 232              		@ frame_needed = 0, uses_anonymous_args = 0
 233              		@ link register save eliminated.
 234 00a0 82B0     		sub	sp, sp, #8
 235              		.cfi_def_cfa_offset 8
 236 00a2 0190     		str	r0, [sp, #4]
 237              		.loc 6 325 0
 238 00a4 019B     		ldr	r3, [sp, #4]
 239 00a6 5A69     		ldr	r2, [r3, #20]
 240 00a8 019B     		ldr	r3, [sp, #4]
 241 00aa 9B69     		ldr	r3, [r3, #24]
 242 00ac 9A42     		cmp	r2, r3
 243 00ae 05D1     		bne	.L10
 244              		.loc 6 325 0 is_stmt 0 discriminator 1
 245 00b0 019B     		ldr	r3, [sp, #4]
 246 00b2 9B68     		ldr	r3, [r3, #8]
 247 00b4 002B     		cmp	r3, #0
 248 00b6 01D0     		beq	.L10
 249              		.loc 6 325 0 discriminator 3
 250 00b8 0123     		movs	r3, #1
 251 00ba 00E0     		b	.L11
 252              	.L10:
 253              		.loc 6 325 0 discriminator 2
 254 00bc 0023     		movs	r3, #0
 255              	.L11:
 256              		.loc 6 325 0 discriminator 4
 257 00be 03F00103 		and	r3, r3, #1
 258 00c2 DBB2     		uxtb	r3, r3
 259              		.loc 6 327 0 is_stmt 1 discriminator 4
 260 00c4 1846     		mov	r0, r3
 261 00c6 02B0     		add	sp, sp, #8
 262              		@ sp needed
 263 00c8 7047     		bx	lr
 264              		.cfi_endproc
 265              	.LFE223:
 266              		.size	chIQIsFullI, .-chIQIsFullI
 267 00ca 00BF     		.align	2
 268 00cc AFF30080 		.p2align 4,,15
 269              		.thumb
 270              		.thumb_func
 271              		.type	chOQIsEmptyI, %function
 272              	chOQIsEmptyI:
 273              	.LFB227:
 274              		.loc 6 388 0
 275              		.cfi_startproc
 276              		@ args = 0, pretend = 0, frame = 8
 277              		@ frame_needed = 0, uses_anonymous_args = 0
 278              		@ link register save eliminated.
ARM GAS  /tmp/cccRAi9Z.s 			page 6


 279 00d0 82B0     		sub	sp, sp, #8
 280              		.cfi_def_cfa_offset 8
 281 00d2 0190     		str	r0, [sp, #4]
 282              		.loc 6 393 0
 283 00d4 019B     		ldr	r3, [sp, #4]
 284 00d6 5A69     		ldr	r2, [r3, #20]
 285 00d8 019B     		ldr	r3, [sp, #4]
 286 00da 9B69     		ldr	r3, [r3, #24]
 287 00dc 9A42     		cmp	r2, r3
 288 00de 05D1     		bne	.L14
 289              		.loc 6 393 0 is_stmt 0 discriminator 1
 290 00e0 019B     		ldr	r3, [sp, #4]
 291 00e2 9B68     		ldr	r3, [r3, #8]
 292 00e4 002B     		cmp	r3, #0
 293 00e6 01D0     		beq	.L14
 294              		.loc 6 393 0 discriminator 3
 295 00e8 0123     		movs	r3, #1
 296 00ea 00E0     		b	.L15
 297              	.L14:
 298              		.loc 6 393 0 discriminator 2
 299 00ec 0023     		movs	r3, #0
 300              	.L15:
 301              		.loc 6 393 0 discriminator 4
 302 00ee 03F00103 		and	r3, r3, #1
 303 00f2 DBB2     		uxtb	r3, r3
 304              		.loc 6 395 0 is_stmt 1 discriminator 4
 305 00f4 1846     		mov	r0, r3
 306 00f6 02B0     		add	sp, sp, #8
 307              		@ sp needed
 308 00f8 7047     		bx	lr
 309              		.cfi_endproc
 310              	.LFE227:
 311              		.size	chOQIsEmptyI, .-chOQIsEmptyI
 312 00fa 00BF     		.align	2
 313 00fc AFF30080 		.p2align 4,,15
 314              		.thumb
 315              		.thumb_func
 316              		.type	chOQIsFullI, %function
 317              	chOQIsFullI:
 318              	.LFB228:
 319              		.loc 6 407 0
 320              		.cfi_startproc
 321              		@ args = 0, pretend = 0, frame = 8
 322              		@ frame_needed = 0, uses_anonymous_args = 0
 323              		@ link register save eliminated.
 324 0100 82B0     		sub	sp, sp, #8
 325              		.cfi_def_cfa_offset 8
 326 0102 0190     		str	r0, [sp, #4]
 327              		.loc 6 411 0
 328 0104 019B     		ldr	r3, [sp, #4]
 329 0106 9B68     		ldr	r3, [r3, #8]
 330 0108 002B     		cmp	r3, #0
 331 010a 14BF     		ite	ne
 332 010c 0023     		movne	r3, #0
 333 010e 0123     		moveq	r3, #1
 334 0110 DBB2     		uxtb	r3, r3
 335              		.loc 6 412 0
ARM GAS  /tmp/cccRAi9Z.s 			page 7


 336 0112 1846     		mov	r0, r3
 337 0114 02B0     		add	sp, sp, #8
 338              		@ sp needed
 339 0116 7047     		bx	lr
 340              		.cfi_endproc
 341              	.LFE228:
 342              		.size	chOQIsFullI, .-chOQIsFullI
 343              		.align	2
 344 0118 AFF30080 		.p2align 4,,15
 344      AFF30080 
 345              		.global	chIQObjectInit
 346              		.thumb
 347              		.thumb_func
 348              		.type	chIQObjectInit, %function
 349              	chIQObjectInit:
 350              	.LFB230:
 351              		.file 7 "../../ChibiOS/os/rt/src/chqueues.c"
 352              		.loc 7 88 0
 353              		.cfi_startproc
 354              		@ args = 4, pretend = 0, frame = 16
 355              		@ frame_needed = 0, uses_anonymous_args = 0
 356 0120 00B5     		push	{lr}
 357              		.cfi_def_cfa_offset 4
 358              		.cfi_offset 14, -4
 359 0122 85B0     		sub	sp, sp, #20
 360              		.cfi_def_cfa_offset 24
 361 0124 0390     		str	r0, [sp, #12]
 362 0126 0291     		str	r1, [sp, #8]
 363 0128 0192     		str	r2, [sp, #4]
 364 012a 0093     		str	r3, [sp]
 365              		.loc 7 90 0
 366 012c 039B     		ldr	r3, [sp, #12]
 367 012e 1846     		mov	r0, r3
 368 0130 FFF796FF 		bl	chThdQueueObjectInit
 369              		.loc 7 91 0
 370 0134 039B     		ldr	r3, [sp, #12]
 371 0136 0022     		movs	r2, #0
 372 0138 9A60     		str	r2, [r3, #8]
 373              		.loc 7 92 0
 374 013a 039B     		ldr	r3, [sp, #12]
 375 013c 029A     		ldr	r2, [sp, #8]
 376 013e DA60     		str	r2, [r3, #12]
 377              		.loc 7 93 0
 378 0140 039B     		ldr	r3, [sp, #12]
 379 0142 029A     		ldr	r2, [sp, #8]
 380 0144 9A61     		str	r2, [r3, #24]
 381              		.loc 7 94 0
 382 0146 039B     		ldr	r3, [sp, #12]
 383 0148 029A     		ldr	r2, [sp, #8]
 384 014a 5A61     		str	r2, [r3, #20]
 385              		.loc 7 95 0
 386 014c 029A     		ldr	r2, [sp, #8]
 387 014e 019B     		ldr	r3, [sp, #4]
 388 0150 1A44     		add	r2, r2, r3
 389 0152 039B     		ldr	r3, [sp, #12]
 390 0154 1A61     		str	r2, [r3, #16]
 391              		.loc 7 96 0
ARM GAS  /tmp/cccRAi9Z.s 			page 8


 392 0156 039B     		ldr	r3, [sp, #12]
 393 0158 009A     		ldr	r2, [sp]
 394 015a DA61     		str	r2, [r3, #28]
 395              		.loc 7 97 0
 396 015c 039B     		ldr	r3, [sp, #12]
 397 015e 069A     		ldr	r2, [sp, #24]
 398 0160 1A62     		str	r2, [r3, #32]
 399              		.loc 7 98 0
 400 0162 05B0     		add	sp, sp, #20
 401              		@ sp needed
 402 0164 5DF804FB 		ldr	pc, [sp], #4
 403              		.cfi_endproc
 404              	.LFE230:
 405              		.size	chIQObjectInit, .-chIQObjectInit
 406              		.align	2
 407 0168 AFF30080 		.p2align 4,,15
 407      AFF30080 
 408              		.global	chIQResetI
 409              		.thumb
 410              		.thumb_func
 411              		.type	chIQResetI, %function
 412              	chIQResetI:
 413              	.LFB231:
 414              		.loc 7 111 0
 415              		.cfi_startproc
 416              		@ args = 0, pretend = 0, frame = 8
 417              		@ frame_needed = 0, uses_anonymous_args = 0
 418 0170 00B5     		push	{lr}
 419              		.cfi_def_cfa_offset 4
 420              		.cfi_offset 14, -4
 421 0172 83B0     		sub	sp, sp, #12
 422              		.cfi_def_cfa_offset 16
 423 0174 0190     		str	r0, [sp, #4]
 424              		.loc 7 115 0
 425 0176 019B     		ldr	r3, [sp, #4]
 426 0178 DA68     		ldr	r2, [r3, #12]
 427 017a 019B     		ldr	r3, [sp, #4]
 428 017c 9A61     		str	r2, [r3, #24]
 429              		.loc 7 116 0
 430 017e 019B     		ldr	r3, [sp, #4]
 431 0180 DA68     		ldr	r2, [r3, #12]
 432 0182 019B     		ldr	r3, [sp, #4]
 433 0184 5A61     		str	r2, [r3, #20]
 434              		.loc 7 117 0
 435 0186 019B     		ldr	r3, [sp, #4]
 436 0188 0022     		movs	r2, #0
 437 018a 9A60     		str	r2, [r3, #8]
 438              		.loc 7 118 0
 439 018c 019B     		ldr	r3, [sp, #4]
 440 018e 1846     		mov	r0, r3
 441 0190 6FF00101 		mvn	r1, #1
 442 0194 FFF7FEFF 		bl	chThdDequeueAllI
 443              		.loc 7 119 0
 444 0198 03B0     		add	sp, sp, #12
 445              		@ sp needed
 446 019a 5DF804FB 		ldr	pc, [sp], #4
 447              		.cfi_endproc
ARM GAS  /tmp/cccRAi9Z.s 			page 9


 448              	.LFE231:
 449              		.size	chIQResetI, .-chIQResetI
 450 019e 00BF     		.align	2
 451              		.p2align 4,,15
 452              		.global	chIQPutI
 453              		.thumb
 454              		.thumb_func
 455              		.type	chIQPutI, %function
 456              	chIQPutI:
 457              	.LFB232:
 458              		.loc 7 134 0
 459              		.cfi_startproc
 460              		@ args = 0, pretend = 0, frame = 8
 461              		@ frame_needed = 0, uses_anonymous_args = 0
 462 01a0 00B5     		push	{lr}
 463              		.cfi_def_cfa_offset 4
 464              		.cfi_offset 14, -4
 465 01a2 83B0     		sub	sp, sp, #12
 466              		.cfi_def_cfa_offset 16
 467 01a4 0190     		str	r0, [sp, #4]
 468 01a6 0B46     		mov	r3, r1
 469 01a8 8DF80330 		strb	r3, [sp, #3]
 470              		.loc 7 138 0
 471 01ac 0198     		ldr	r0, [sp, #4]
 472 01ae FFF777FF 		bl	chIQIsFullI
 473 01b2 0346     		mov	r3, r0
 474 01b4 002B     		cmp	r3, #0
 475 01b6 02D0     		beq	.L22
 476              		.loc 7 139 0
 477 01b8 6FF00303 		mvn	r3, #3
 478 01bc 1CE0     		b	.L23
 479              	.L22:
 480              		.loc 7 142 0
 481 01be 019B     		ldr	r3, [sp, #4]
 482 01c0 9B68     		ldr	r3, [r3, #8]
 483 01c2 5A1C     		adds	r2, r3, #1
 484 01c4 019B     		ldr	r3, [sp, #4]
 485 01c6 9A60     		str	r2, [r3, #8]
 486              		.loc 7 143 0
 487 01c8 019B     		ldr	r3, [sp, #4]
 488 01ca 5B69     		ldr	r3, [r3, #20]
 489 01cc 591C     		adds	r1, r3, #1
 490 01ce 019A     		ldr	r2, [sp, #4]
 491 01d0 5161     		str	r1, [r2, #20]
 492 01d2 9DF80320 		ldrb	r2, [sp, #3]
 493 01d6 1A70     		strb	r2, [r3]
 494              		.loc 7 144 0
 495 01d8 019B     		ldr	r3, [sp, #4]
 496 01da 5A69     		ldr	r2, [r3, #20]
 497 01dc 019B     		ldr	r3, [sp, #4]
 498 01de 1B69     		ldr	r3, [r3, #16]
 499 01e0 9A42     		cmp	r2, r3
 500 01e2 03D3     		bcc	.L24
 501              		.loc 7 145 0
 502 01e4 019B     		ldr	r3, [sp, #4]
 503 01e6 DA68     		ldr	r2, [r3, #12]
 504 01e8 019B     		ldr	r3, [sp, #4]
ARM GAS  /tmp/cccRAi9Z.s 			page 10


 505 01ea 5A61     		str	r2, [r3, #20]
 506              	.L24:
 507              		.loc 7 148 0
 508 01ec 019B     		ldr	r3, [sp, #4]
 509 01ee 1846     		mov	r0, r3
 510 01f0 0021     		movs	r1, #0
 511 01f2 FFF7FEFF 		bl	chThdDequeueNextI
 512              		.loc 7 150 0
 513 01f6 0023     		movs	r3, #0
 514              	.L23:
 515              		.loc 7 151 0
 516 01f8 1846     		mov	r0, r3
 517 01fa 03B0     		add	sp, sp, #12
 518              		@ sp needed
 519 01fc 5DF804FB 		ldr	pc, [sp], #4
 520              		.cfi_endproc
 521              	.LFE232:
 522              		.size	chIQPutI, .-chIQPutI
 523              		.align	2
 524              		.p2align 4,,15
 525              		.global	chIQGetTimeout
 526              		.thumb
 527              		.thumb_func
 528              		.type	chIQGetTimeout, %function
 529              	chIQGetTimeout:
 530              	.LFB233:
 531              		.loc 7 173 0
 532              		.cfi_startproc
 533              		@ args = 0, pretend = 0, frame = 16
 534              		@ frame_needed = 0, uses_anonymous_args = 0
 535 0200 00B5     		push	{lr}
 536              		.cfi_def_cfa_offset 4
 537              		.cfi_offset 14, -4
 538 0202 85B0     		sub	sp, sp, #20
 539              		.cfi_def_cfa_offset 24
 540 0204 0190     		str	r0, [sp, #4]
 541 0206 0091     		str	r1, [sp]
 542              		.loc 7 176 0
 543 0208 FFF71AFF 		bl	chSysLock
 544              		.loc 7 177 0
 545 020c 019B     		ldr	r3, [sp, #4]
 546 020e DB69     		ldr	r3, [r3, #28]
 547 0210 002B     		cmp	r3, #0
 548 0212 04D0     		beq	.L26
 549              		.loc 7 178 0
 550 0214 019B     		ldr	r3, [sp, #4]
 551 0216 DB69     		ldr	r3, [r3, #28]
 552 0218 0198     		ldr	r0, [sp, #4]
 553 021a 9847     		blx	r3
 554              		.loc 7 181 0
 555 021c 0DE0     		b	.L27
 556              	.L26:
 557 021e 0CE0     		b	.L27
 558              	.L29:
 559              	.LBB10:
 560              		.loc 7 182 0
 561 0220 019B     		ldr	r3, [sp, #4]
ARM GAS  /tmp/cccRAi9Z.s 			page 11


 562 0222 1846     		mov	r0, r3
 563 0224 0099     		ldr	r1, [sp]
 564 0226 FFF7FEFF 		bl	chThdEnqueueTimeoutS
 565 022a 0390     		str	r0, [sp, #12]
 566              		.loc 7 183 0
 567 022c 039B     		ldr	r3, [sp, #12]
 568 022e 002B     		cmp	r3, #0
 569 0230 03DA     		bge	.L27
 570              		.loc 7 184 0
 571 0232 FFF70DFF 		bl	chSysUnlock
 572              		.loc 7 185 0
 573 0236 039B     		ldr	r3, [sp, #12]
 574 0238 20E0     		b	.L28
 575              	.L27:
 576              	.LBE10:
 577              		.loc 7 181 0 discriminator 1
 578 023a 0198     		ldr	r0, [sp, #4]
 579 023c FFF720FF 		bl	chIQIsEmptyI
 580 0240 0346     		mov	r3, r0
 581 0242 002B     		cmp	r3, #0
 582 0244 ECD1     		bne	.L29
 583              		.loc 7 189 0
 584 0246 019B     		ldr	r3, [sp, #4]
 585 0248 9B68     		ldr	r3, [r3, #8]
 586 024a 5A1E     		subs	r2, r3, #1
 587 024c 019B     		ldr	r3, [sp, #4]
 588 024e 9A60     		str	r2, [r3, #8]
 589              		.loc 7 190 0
 590 0250 019B     		ldr	r3, [sp, #4]
 591 0252 9B69     		ldr	r3, [r3, #24]
 592 0254 591C     		adds	r1, r3, #1
 593 0256 019A     		ldr	r2, [sp, #4]
 594 0258 9161     		str	r1, [r2, #24]
 595 025a 1B78     		ldrb	r3, [r3]
 596 025c 8DF80B30 		strb	r3, [sp, #11]
 597              		.loc 7 191 0
 598 0260 019B     		ldr	r3, [sp, #4]
 599 0262 9A69     		ldr	r2, [r3, #24]
 600 0264 019B     		ldr	r3, [sp, #4]
 601 0266 1B69     		ldr	r3, [r3, #16]
 602 0268 9A42     		cmp	r2, r3
 603 026a 03D3     		bcc	.L30
 604              		.loc 7 192 0
 605 026c 019B     		ldr	r3, [sp, #4]
 606 026e DA68     		ldr	r2, [r3, #12]
 607 0270 019B     		ldr	r3, [sp, #4]
 608 0272 9A61     		str	r2, [r3, #24]
 609              	.L30:
 610              		.loc 7 194 0
 611 0274 FFF7ECFE 		bl	chSysUnlock
 612              		.loc 7 196 0
 613 0278 9DF80B30 		ldrb	r3, [sp, #11]	@ zero_extendqisi2
 614              	.L28:
 615              		.loc 7 197 0
 616 027c 1846     		mov	r0, r3
 617 027e 05B0     		add	sp, sp, #20
 618              		@ sp needed
ARM GAS  /tmp/cccRAi9Z.s 			page 12


 619 0280 5DF804FB 		ldr	pc, [sp], #4
 620              		.cfi_endproc
 621              	.LFE233:
 622              		.size	chIQGetTimeout, .-chIQGetTimeout
 623              		.align	2
 624 0284 AFF30080 		.p2align 4,,15
 624      AFF30080 
 624      AFF30080 
 625              		.global	chIQReadTimeout
 626              		.thumb
 627              		.thumb_func
 628              		.type	chIQReadTimeout, %function
 629              	chIQReadTimeout:
 630              	.LFB234:
 631              		.loc 7 224 0
 632              		.cfi_startproc
 633              		@ args = 0, pretend = 0, frame = 24
 634              		@ frame_needed = 0, uses_anonymous_args = 0
 635 0290 00B5     		push	{lr}
 636              		.cfi_def_cfa_offset 4
 637              		.cfi_offset 14, -4
 638 0292 87B0     		sub	sp, sp, #28
 639              		.cfi_def_cfa_offset 32
 640 0294 0390     		str	r0, [sp, #12]
 641 0296 0291     		str	r1, [sp, #8]
 642 0298 0192     		str	r2, [sp, #4]
 643 029a 0093     		str	r3, [sp]
 644              		.loc 7 225 0
 645 029c 039B     		ldr	r3, [sp, #12]
 646 029e DB69     		ldr	r3, [r3, #28]
 647 02a0 0493     		str	r3, [sp, #16]
 648              		.loc 7 226 0
 649 02a2 0023     		movs	r3, #0
 650 02a4 0593     		str	r3, [sp, #20]
 651              		.loc 7 230 0
 652 02a6 FFF7CBFE 		bl	chSysLock
 653              	.L38:
 654              		.loc 7 232 0
 655 02aa 049B     		ldr	r3, [sp, #16]
 656 02ac 002B     		cmp	r3, #0
 657 02ae 03D0     		beq	.L32
 658              		.loc 7 233 0
 659 02b0 049B     		ldr	r3, [sp, #16]
 660 02b2 0398     		ldr	r0, [sp, #12]
 661 02b4 9847     		blx	r3
 662              		.loc 7 236 0
 663 02b6 0CE0     		b	.L33
 664              	.L32:
 665 02b8 0BE0     		b	.L33
 666              	.L35:
 667              		.loc 7 237 0
 668 02ba 039B     		ldr	r3, [sp, #12]
 669 02bc 1846     		mov	r0, r3
 670 02be 0099     		ldr	r1, [sp]
 671 02c0 FFF7FEFF 		bl	chThdEnqueueTimeoutS
 672 02c4 0346     		mov	r3, r0
 673 02c6 002B     		cmp	r3, #0
ARM GAS  /tmp/cccRAi9Z.s 			page 13


 674 02c8 03D0     		beq	.L33
 675              		.loc 7 238 0
 676 02ca FFF7C1FE 		bl	chSysUnlock
 677              		.loc 7 239 0
 678 02ce 059B     		ldr	r3, [sp, #20]
 679 02d0 2EE0     		b	.L34
 680              	.L33:
 681              		.loc 7 236 0 discriminator 1
 682 02d2 0398     		ldr	r0, [sp, #12]
 683 02d4 FFF7D4FE 		bl	chIQIsEmptyI
 684 02d8 0346     		mov	r3, r0
 685 02da 002B     		cmp	r3, #0
 686 02dc EDD1     		bne	.L35
 687              		.loc 7 243 0
 688 02de 039B     		ldr	r3, [sp, #12]
 689 02e0 9B68     		ldr	r3, [r3, #8]
 690 02e2 5A1E     		subs	r2, r3, #1
 691 02e4 039B     		ldr	r3, [sp, #12]
 692 02e6 9A60     		str	r2, [r3, #8]
 693              		.loc 7 244 0
 694 02e8 029B     		ldr	r3, [sp, #8]
 695 02ea 5A1C     		adds	r2, r3, #1
 696 02ec 0292     		str	r2, [sp, #8]
 697 02ee 039A     		ldr	r2, [sp, #12]
 698 02f0 9269     		ldr	r2, [r2, #24]
 699 02f2 501C     		adds	r0, r2, #1
 700 02f4 0399     		ldr	r1, [sp, #12]
 701 02f6 8861     		str	r0, [r1, #24]
 702 02f8 1278     		ldrb	r2, [r2]	@ zero_extendqisi2
 703 02fa 1A70     		strb	r2, [r3]
 704              		.loc 7 245 0
 705 02fc 039B     		ldr	r3, [sp, #12]
 706 02fe 9A69     		ldr	r2, [r3, #24]
 707 0300 039B     		ldr	r3, [sp, #12]
 708 0302 1B69     		ldr	r3, [r3, #16]
 709 0304 9A42     		cmp	r2, r3
 710 0306 03D3     		bcc	.L36
 711              		.loc 7 246 0
 712 0308 039B     		ldr	r3, [sp, #12]
 713 030a DA68     		ldr	r2, [r3, #12]
 714 030c 039B     		ldr	r3, [sp, #12]
 715 030e 9A61     		str	r2, [r3, #24]
 716              	.L36:
 717              		.loc 7 248 0
 718 0310 FFF79EFE 		bl	chSysUnlock
 719              		.loc 7 250 0
 720 0314 059B     		ldr	r3, [sp, #20]
 721 0316 0133     		adds	r3, r3, #1
 722 0318 0593     		str	r3, [sp, #20]
 723              		.loc 7 251 0
 724 031a 019B     		ldr	r3, [sp, #4]
 725 031c 013B     		subs	r3, r3, #1
 726 031e 0193     		str	r3, [sp, #4]
 727 0320 019B     		ldr	r3, [sp, #4]
 728 0322 002B     		cmp	r3, #0
 729 0324 01D1     		bne	.L37
 730              		.loc 7 252 0
ARM GAS  /tmp/cccRAi9Z.s 			page 14


 731 0326 059B     		ldr	r3, [sp, #20]
 732 0328 02E0     		b	.L34
 733              	.L37:
 734              		.loc 7 255 0
 735 032a FFF789FE 		bl	chSysLock
 736              		.loc 7 256 0
 737 032e BCE7     		b	.L38
 738              	.L34:
 739              		.loc 7 257 0
 740 0330 1846     		mov	r0, r3
 741 0332 07B0     		add	sp, sp, #28
 742              		@ sp needed
 743 0334 5DF804FB 		ldr	pc, [sp], #4
 744              		.cfi_endproc
 745              	.LFE234:
 746              		.size	chIQReadTimeout, .-chIQReadTimeout
 747              		.align	2
 748 0338 AFF30080 		.p2align 4,,15
 748      AFF30080 
 749              		.global	chOQObjectInit
 750              		.thumb
 751              		.thumb_func
 752              		.type	chOQObjectInit, %function
 753              	chOQObjectInit:
 754              	.LFB235:
 755              		.loc 7 276 0
 756              		.cfi_startproc
 757              		@ args = 4, pretend = 0, frame = 16
 758              		@ frame_needed = 0, uses_anonymous_args = 0
 759 0340 00B5     		push	{lr}
 760              		.cfi_def_cfa_offset 4
 761              		.cfi_offset 14, -4
 762 0342 85B0     		sub	sp, sp, #20
 763              		.cfi_def_cfa_offset 24
 764 0344 0390     		str	r0, [sp, #12]
 765 0346 0291     		str	r1, [sp, #8]
 766 0348 0192     		str	r2, [sp, #4]
 767 034a 0093     		str	r3, [sp]
 768              		.loc 7 278 0
 769 034c 039B     		ldr	r3, [sp, #12]
 770 034e 1846     		mov	r0, r3
 771 0350 FFF786FE 		bl	chThdQueueObjectInit
 772              		.loc 7 279 0
 773 0354 039B     		ldr	r3, [sp, #12]
 774 0356 019A     		ldr	r2, [sp, #4]
 775 0358 9A60     		str	r2, [r3, #8]
 776              		.loc 7 280 0
 777 035a 039B     		ldr	r3, [sp, #12]
 778 035c 029A     		ldr	r2, [sp, #8]
 779 035e DA60     		str	r2, [r3, #12]
 780              		.loc 7 281 0
 781 0360 039B     		ldr	r3, [sp, #12]
 782 0362 029A     		ldr	r2, [sp, #8]
 783 0364 9A61     		str	r2, [r3, #24]
 784              		.loc 7 282 0
 785 0366 039B     		ldr	r3, [sp, #12]
 786 0368 029A     		ldr	r2, [sp, #8]
ARM GAS  /tmp/cccRAi9Z.s 			page 15


 787 036a 5A61     		str	r2, [r3, #20]
 788              		.loc 7 283 0
 789 036c 029A     		ldr	r2, [sp, #8]
 790 036e 019B     		ldr	r3, [sp, #4]
 791 0370 1A44     		add	r2, r2, r3
 792 0372 039B     		ldr	r3, [sp, #12]
 793 0374 1A61     		str	r2, [r3, #16]
 794              		.loc 7 284 0
 795 0376 039B     		ldr	r3, [sp, #12]
 796 0378 009A     		ldr	r2, [sp]
 797 037a DA61     		str	r2, [r3, #28]
 798              		.loc 7 285 0
 799 037c 039B     		ldr	r3, [sp, #12]
 800 037e 069A     		ldr	r2, [sp, #24]
 801 0380 1A62     		str	r2, [r3, #32]
 802              		.loc 7 286 0
 803 0382 05B0     		add	sp, sp, #20
 804              		@ sp needed
 805 0384 5DF804FB 		ldr	pc, [sp], #4
 806              		.cfi_endproc
 807              	.LFE235:
 808              		.size	chOQObjectInit, .-chOQObjectInit
 809              		.align	2
 810 0388 AFF30080 		.p2align 4,,15
 810      AFF30080 
 811              		.global	chOQResetI
 812              		.thumb
 813              		.thumb_func
 814              		.type	chOQResetI, %function
 815              	chOQResetI:
 816              	.LFB236:
 817              		.loc 7 299 0
 818              		.cfi_startproc
 819              		@ args = 0, pretend = 0, frame = 8
 820              		@ frame_needed = 0, uses_anonymous_args = 0
 821 0390 00B5     		push	{lr}
 822              		.cfi_def_cfa_offset 4
 823              		.cfi_offset 14, -4
 824 0392 83B0     		sub	sp, sp, #12
 825              		.cfi_def_cfa_offset 16
 826 0394 0190     		str	r0, [sp, #4]
 827              		.loc 7 303 0
 828 0396 019B     		ldr	r3, [sp, #4]
 829 0398 DA68     		ldr	r2, [r3, #12]
 830 039a 019B     		ldr	r3, [sp, #4]
 831 039c 9A61     		str	r2, [r3, #24]
 832              		.loc 7 304 0
 833 039e 019B     		ldr	r3, [sp, #4]
 834 03a0 DA68     		ldr	r2, [r3, #12]
 835 03a2 019B     		ldr	r3, [sp, #4]
 836 03a4 5A61     		str	r2, [r3, #20]
 837              		.loc 7 305 0
 838 03a6 019B     		ldr	r3, [sp, #4]
 839 03a8 1B69     		ldr	r3, [r3, #16]
 840 03aa 1A46     		mov	r2, r3
 841 03ac 019B     		ldr	r3, [sp, #4]
 842 03ae DB68     		ldr	r3, [r3, #12]
ARM GAS  /tmp/cccRAi9Z.s 			page 16


 843 03b0 D31A     		subs	r3, r2, r3
 844 03b2 1A46     		mov	r2, r3
 845 03b4 019B     		ldr	r3, [sp, #4]
 846 03b6 9A60     		str	r2, [r3, #8]
 847              		.loc 7 306 0
 848 03b8 019B     		ldr	r3, [sp, #4]
 849 03ba 1846     		mov	r0, r3
 850 03bc 6FF00101 		mvn	r1, #1
 851 03c0 FFF7FEFF 		bl	chThdDequeueAllI
 852              		.loc 7 307 0
 853 03c4 03B0     		add	sp, sp, #12
 854              		@ sp needed
 855 03c6 5DF804FB 		ldr	pc, [sp], #4
 856              		.cfi_endproc
 857              	.LFE236:
 858              		.size	chOQResetI, .-chOQResetI
 859 03ca 00BF     		.align	2
 860 03cc AFF30080 		.p2align 4,,15
 861              		.global	chOQPutTimeout
 862              		.thumb
 863              		.thumb_func
 864              		.type	chOQPutTimeout, %function
 865              	chOQPutTimeout:
 866              	.LFB237:
 867              		.loc 7 331 0
 868              		.cfi_startproc
 869              		@ args = 0, pretend = 0, frame = 24
 870              		@ frame_needed = 0, uses_anonymous_args = 0
 871 03d0 00B5     		push	{lr}
 872              		.cfi_def_cfa_offset 4
 873              		.cfi_offset 14, -4
 874 03d2 87B0     		sub	sp, sp, #28
 875              		.cfi_def_cfa_offset 32
 876 03d4 0390     		str	r0, [sp, #12]
 877 03d6 0B46     		mov	r3, r1
 878 03d8 0192     		str	r2, [sp, #4]
 879 03da 8DF80B30 		strb	r3, [sp, #11]
 880              		.loc 7 333 0
 881 03de FFF72FFE 		bl	chSysLock
 882              		.loc 7 334 0
 883 03e2 0CE0     		b	.L42
 884              	.L44:
 885              	.LBB11:
 886              		.loc 7 335 0
 887 03e4 039B     		ldr	r3, [sp, #12]
 888 03e6 1846     		mov	r0, r3
 889 03e8 0199     		ldr	r1, [sp, #4]
 890 03ea FFF7FEFF 		bl	chThdEnqueueTimeoutS
 891 03ee 0590     		str	r0, [sp, #20]
 892              		.loc 7 336 0
 893 03f0 059B     		ldr	r3, [sp, #20]
 894 03f2 002B     		cmp	r3, #0
 895 03f4 03DA     		bge	.L42
 896              		.loc 7 337 0
 897 03f6 FFF72BFE 		bl	chSysUnlock
 898              		.loc 7 338 0
 899 03fa 059B     		ldr	r3, [sp, #20]
ARM GAS  /tmp/cccRAi9Z.s 			page 17


 900 03fc 27E0     		b	.L43
 901              	.L42:
 902              	.LBE11:
 903              		.loc 7 334 0 discriminator 1
 904 03fe 0398     		ldr	r0, [sp, #12]
 905 0400 FFF77EFE 		bl	chOQIsFullI
 906 0404 0346     		mov	r3, r0
 907 0406 002B     		cmp	r3, #0
 908 0408 ECD1     		bne	.L44
 909              		.loc 7 342 0
 910 040a 039B     		ldr	r3, [sp, #12]
 911 040c 9B68     		ldr	r3, [r3, #8]
 912 040e 5A1E     		subs	r2, r3, #1
 913 0410 039B     		ldr	r3, [sp, #12]
 914 0412 9A60     		str	r2, [r3, #8]
 915              		.loc 7 343 0
 916 0414 039B     		ldr	r3, [sp, #12]
 917 0416 5B69     		ldr	r3, [r3, #20]
 918 0418 591C     		adds	r1, r3, #1
 919 041a 039A     		ldr	r2, [sp, #12]
 920 041c 5161     		str	r1, [r2, #20]
 921 041e 9DF80B20 		ldrb	r2, [sp, #11]
 922 0422 1A70     		strb	r2, [r3]
 923              		.loc 7 344 0
 924 0424 039B     		ldr	r3, [sp, #12]
 925 0426 5A69     		ldr	r2, [r3, #20]
 926 0428 039B     		ldr	r3, [sp, #12]
 927 042a 1B69     		ldr	r3, [r3, #16]
 928 042c 9A42     		cmp	r2, r3
 929 042e 03D3     		bcc	.L45
 930              		.loc 7 345 0
 931 0430 039B     		ldr	r3, [sp, #12]
 932 0432 DA68     		ldr	r2, [r3, #12]
 933 0434 039B     		ldr	r3, [sp, #12]
 934 0436 5A61     		str	r2, [r3, #20]
 935              	.L45:
 936              		.loc 7 348 0
 937 0438 039B     		ldr	r3, [sp, #12]
 938 043a DB69     		ldr	r3, [r3, #28]
 939 043c 002B     		cmp	r3, #0
 940 043e 03D0     		beq	.L46
 941              		.loc 7 349 0
 942 0440 039B     		ldr	r3, [sp, #12]
 943 0442 DB69     		ldr	r3, [r3, #28]
 944 0444 0398     		ldr	r0, [sp, #12]
 945 0446 9847     		blx	r3
 946              	.L46:
 947              		.loc 7 351 0
 948 0448 FFF702FE 		bl	chSysUnlock
 949              		.loc 7 353 0
 950 044c 0023     		movs	r3, #0
 951              	.L43:
 952              		.loc 7 354 0
 953 044e 1846     		mov	r0, r3
 954 0450 07B0     		add	sp, sp, #28
 955              		@ sp needed
 956 0452 5DF804FB 		ldr	pc, [sp], #4
ARM GAS  /tmp/cccRAi9Z.s 			page 18


 957              		.cfi_endproc
 958              	.LFE237:
 959              		.size	chOQPutTimeout, .-chOQPutTimeout
 960 0456 00BF     		.align	2
 961 0458 AFF30080 		.p2align 4,,15
 961      AFF30080 
 962              		.global	chOQGetI
 963              		.thumb
 964              		.thumb_func
 965              		.type	chOQGetI, %function
 966              	chOQGetI:
 967              	.LFB238:
 968              		.loc 7 366 0
 969              		.cfi_startproc
 970              		@ args = 0, pretend = 0, frame = 16
 971              		@ frame_needed = 0, uses_anonymous_args = 0
 972 0460 00B5     		push	{lr}
 973              		.cfi_def_cfa_offset 4
 974              		.cfi_offset 14, -4
 975 0462 85B0     		sub	sp, sp, #20
 976              		.cfi_def_cfa_offset 24
 977 0464 0190     		str	r0, [sp, #4]
 978              		.loc 7 371 0
 979 0466 0198     		ldr	r0, [sp, #4]
 980 0468 FFF732FE 		bl	chOQIsEmptyI
 981 046c 0346     		mov	r3, r0
 982 046e 002B     		cmp	r3, #0
 983 0470 02D0     		beq	.L48
 984              		.loc 7 372 0
 985 0472 6FF00203 		mvn	r3, #2
 986 0476 1DE0     		b	.L49
 987              	.L48:
 988              		.loc 7 375 0
 989 0478 019B     		ldr	r3, [sp, #4]
 990 047a 9B68     		ldr	r3, [r3, #8]
 991 047c 5A1C     		adds	r2, r3, #1
 992 047e 019B     		ldr	r3, [sp, #4]
 993 0480 9A60     		str	r2, [r3, #8]
 994              		.loc 7 376 0
 995 0482 019B     		ldr	r3, [sp, #4]
 996 0484 9B69     		ldr	r3, [r3, #24]
 997 0486 591C     		adds	r1, r3, #1
 998 0488 019A     		ldr	r2, [sp, #4]
 999 048a 9161     		str	r1, [r2, #24]
 1000 048c 1B78     		ldrb	r3, [r3]
 1001 048e 8DF80F30 		strb	r3, [sp, #15]
 1002              		.loc 7 377 0
 1003 0492 019B     		ldr	r3, [sp, #4]
 1004 0494 9A69     		ldr	r2, [r3, #24]
 1005 0496 019B     		ldr	r3, [sp, #4]
 1006 0498 1B69     		ldr	r3, [r3, #16]
 1007 049a 9A42     		cmp	r2, r3
 1008 049c 03D3     		bcc	.L50
 1009              		.loc 7 378 0
 1010 049e 019B     		ldr	r3, [sp, #4]
 1011 04a0 DA68     		ldr	r2, [r3, #12]
 1012 04a2 019B     		ldr	r3, [sp, #4]
ARM GAS  /tmp/cccRAi9Z.s 			page 19


 1013 04a4 9A61     		str	r2, [r3, #24]
 1014              	.L50:
 1015              		.loc 7 381 0
 1016 04a6 019B     		ldr	r3, [sp, #4]
 1017 04a8 1846     		mov	r0, r3
 1018 04aa 0021     		movs	r1, #0
 1019 04ac FFF7FEFF 		bl	chThdDequeueNextI
 1020              		.loc 7 383 0
 1021 04b0 9DF80F30 		ldrb	r3, [sp, #15]	@ zero_extendqisi2
 1022              	.L49:
 1023              		.loc 7 384 0
 1024 04b4 1846     		mov	r0, r3
 1025 04b6 05B0     		add	sp, sp, #20
 1026              		@ sp needed
 1027 04b8 5DF804FB 		ldr	pc, [sp], #4
 1028              		.cfi_endproc
 1029              	.LFE238:
 1030              		.size	chOQGetI, .-chOQGetI
 1031              		.align	2
 1032 04bc AFF30080 		.p2align 4,,15
 1033              		.global	chOQWriteTimeout
 1034              		.thumb
 1035              		.thumb_func
 1036              		.type	chOQWriteTimeout, %function
 1037              	chOQWriteTimeout:
 1038              	.LFB239:
 1039              		.loc 7 411 0
 1040              		.cfi_startproc
 1041              		@ args = 0, pretend = 0, frame = 24
 1042              		@ frame_needed = 0, uses_anonymous_args = 0
 1043 04c0 00B5     		push	{lr}
 1044              		.cfi_def_cfa_offset 4
 1045              		.cfi_offset 14, -4
 1046 04c2 87B0     		sub	sp, sp, #28
 1047              		.cfi_def_cfa_offset 32
 1048 04c4 0390     		str	r0, [sp, #12]
 1049 04c6 0291     		str	r1, [sp, #8]
 1050 04c8 0192     		str	r2, [sp, #4]
 1051 04ca 0093     		str	r3, [sp]
 1052              		.loc 7 412 0
 1053 04cc 039B     		ldr	r3, [sp, #12]
 1054 04ce DB69     		ldr	r3, [r3, #28]
 1055 04d0 0493     		str	r3, [sp, #16]
 1056              		.loc 7 413 0
 1057 04d2 0023     		movs	r3, #0
 1058 04d4 0593     		str	r3, [sp, #20]
 1059              		.loc 7 417 0
 1060 04d6 FFF7B3FD 		bl	chSysLock
 1061              		.loc 7 419 0
 1062 04da 0BE0     		b	.L52
 1063              	.L54:
 1064              		.loc 7 420 0
 1065 04dc 039B     		ldr	r3, [sp, #12]
 1066 04de 1846     		mov	r0, r3
 1067 04e0 0099     		ldr	r1, [sp]
 1068 04e2 FFF7FEFF 		bl	chThdEnqueueTimeoutS
 1069 04e6 0346     		mov	r3, r0
ARM GAS  /tmp/cccRAi9Z.s 			page 20


 1070 04e8 002B     		cmp	r3, #0
 1071 04ea 03D0     		beq	.L52
 1072              		.loc 7 421 0
 1073 04ec FFF7B0FD 		bl	chSysUnlock
 1074              		.loc 7 422 0
 1075 04f0 059B     		ldr	r3, [sp, #20]
 1076 04f2 35E0     		b	.L53
 1077              	.L52:
 1078              		.loc 7 419 0 discriminator 1
 1079 04f4 0398     		ldr	r0, [sp, #12]
 1080 04f6 FFF703FE 		bl	chOQIsFullI
 1081 04fa 0346     		mov	r3, r0
 1082 04fc 002B     		cmp	r3, #0
 1083 04fe EDD1     		bne	.L54
 1084              		.loc 7 426 0
 1085 0500 039B     		ldr	r3, [sp, #12]
 1086 0502 9B68     		ldr	r3, [r3, #8]
 1087 0504 5A1E     		subs	r2, r3, #1
 1088 0506 039B     		ldr	r3, [sp, #12]
 1089 0508 9A60     		str	r2, [r3, #8]
 1090              		.loc 7 427 0
 1091 050a 039B     		ldr	r3, [sp, #12]
 1092 050c 5B69     		ldr	r3, [r3, #20]
 1093 050e 591C     		adds	r1, r3, #1
 1094 0510 039A     		ldr	r2, [sp, #12]
 1095 0512 5161     		str	r1, [r2, #20]
 1096 0514 029A     		ldr	r2, [sp, #8]
 1097 0516 511C     		adds	r1, r2, #1
 1098 0518 0291     		str	r1, [sp, #8]
 1099 051a 1278     		ldrb	r2, [r2]	@ zero_extendqisi2
 1100 051c 1A70     		strb	r2, [r3]
 1101              		.loc 7 428 0
 1102 051e 039B     		ldr	r3, [sp, #12]
 1103 0520 5A69     		ldr	r2, [r3, #20]
 1104 0522 039B     		ldr	r3, [sp, #12]
 1105 0524 1B69     		ldr	r3, [r3, #16]
 1106 0526 9A42     		cmp	r2, r3
 1107 0528 03D3     		bcc	.L55
 1108              		.loc 7 429 0
 1109 052a 039B     		ldr	r3, [sp, #12]
 1110 052c DA68     		ldr	r2, [r3, #12]
 1111 052e 039B     		ldr	r3, [sp, #12]
 1112 0530 5A61     		str	r2, [r3, #20]
 1113              	.L55:
 1114              		.loc 7 432 0
 1115 0532 049B     		ldr	r3, [sp, #16]
 1116 0534 002B     		cmp	r3, #0
 1117 0536 02D0     		beq	.L56
 1118              		.loc 7 433 0
 1119 0538 049B     		ldr	r3, [sp, #16]
 1120 053a 0398     		ldr	r0, [sp, #12]
 1121 053c 9847     		blx	r3
 1122              	.L56:
 1123              		.loc 7 435 0
 1124 053e FFF787FD 		bl	chSysUnlock
 1125              		.loc 7 437 0
 1126 0542 059B     		ldr	r3, [sp, #20]
ARM GAS  /tmp/cccRAi9Z.s 			page 21


 1127 0544 0133     		adds	r3, r3, #1
 1128 0546 0593     		str	r3, [sp, #20]
 1129              		.loc 7 438 0
 1130 0548 019B     		ldr	r3, [sp, #4]
 1131 054a 013B     		subs	r3, r3, #1
 1132 054c 0193     		str	r3, [sp, #4]
 1133 054e 019B     		ldr	r3, [sp, #4]
 1134 0550 002B     		cmp	r3, #0
 1135 0552 01D1     		bne	.L57
 1136              		.loc 7 439 0
 1137 0554 059B     		ldr	r3, [sp, #20]
 1138 0556 03E0     		b	.L53
 1139              	.L57:
 1140              		.loc 7 441 0
 1141 0558 FFF772FD 		bl	chSysLock
 1142              		.loc 7 442 0
 1143 055c 00BF     		nop
 1144              		.loc 7 419 0
 1145 055e C9E7     		b	.L52
 1146              	.L53:
 1147              		.loc 7 443 0
 1148 0560 1846     		mov	r0, r3
 1149 0562 07B0     		add	sp, sp, #28
 1150              		@ sp needed
 1151 0564 5DF804FB 		ldr	pc, [sp], #4
 1152              		.cfi_endproc
 1153              	.LFE239:
 1154              		.size	chOQWriteTimeout, .-chOQWriteTimeout
 1155              	.Letext0:
 1156              		.file 8 "/nfs/nfs5/home/research/hardware/arm2/gcc-arm-embedded/gcc-arm-none-eabi-4_8-2014q2/lib/g
 1157              		.file 9 "/nfs/nfs5/home/research/hardware/arm2/gcc-arm-embedded/gcc-arm-none-eabi-4_8-2014q2/arm-n
 1158              		.file 10 "/nfs/nfs5/home/research/hardware/arm2/gcc-arm-embedded/gcc-arm-none-eabi-4_8-2014q2/arm-
 1159              		.file 11 "../../ChibiOS/os/rt/ports/ARMCMx/compilers/GCC/chtypes.h"
 1160              		.file 12 "../../ChibiOS/os/rt/include/chsystypes.h"
 1161              		.file 13 "../../ChibiOS/os/rt/ports/ARMCMx/chcore.h"
 1162              		.file 14 "../../ChibiOS/os/rt/include/chtm.h"
 1163              		.file 15 "../../ChibiOS/os/rt/include/chsem.h"
 1164              		.file 16 "../../ChibiOS/os/rt/include/chmtx.h"
 1165              		.file 17 "../../ChibiOS/os/ext/CMSIS/include/core_cm4.h"