ARM GAS  /tmp/ccPi6Z4o.s 			page 1


   1              		.syntax unified
   2              		.cpu cortex-m4
   3              		.fpu softvfp
   4              		.eabi_attribute 20, 1
   5              		.eabi_attribute 21, 1
   6              		.eabi_attribute 23, 3
   7              		.eabi_attribute 24, 1
   8              		.eabi_attribute 25, 1
   9              		.eabi_attribute 26, 1
  10              		.eabi_attribute 30, 6
  11              		.eabi_attribute 34, 1
  12              		.eabi_attribute 18, 4
  13              		.thumb
  14              		.file	"chregistry.c"
  15              		.text
  16              	.Ltext0:
  17              		.cfi_sections	.debug_frame
  18              		.align	2
  19              		.p2align 4,,15
  20              		.thumb
  21              		.thumb_func
  22              		.type	port_lock, %function
  23              	port_lock:
  24              	.LFB127:
  25              		.file 1 "../../ChibiOS/os/rt/ports/ARMCMx/chcore_v7m.h"
  26              		.loc 1 456 0
  27              		.cfi_startproc
  28              		@ args = 0, pretend = 0, frame = 8
  29              		@ frame_needed = 0, uses_anonymous_args = 0
  30              		@ link register save eliminated.
  31 0000 82B0     		sub	sp, sp, #8
  32              		.cfi_def_cfa_offset 8
  33 0002 2023     		movs	r3, #32
  34 0004 0193     		str	r3, [sp, #4]
  35              	.LBB6:
  36              	.LBB7:
  37              		.file 2 "../../ChibiOS/os/ext/CMSIS/include/core_cmFunc.h"
  38              		.loc 2 548 0
  39 0006 019B     		ldr	r3, [sp, #4]
  40              	@ 548 "../../ChibiOS/os/ext/CMSIS/include/core_cmFunc.h" 1
  41 0008 83F31188 		MSR basepri, r3
  42              	@ 0 "" 2
  43              		.thumb
  44              	.LBE7:
  45              	.LBE6:
  46              		.loc 1 473 0
  47 000c 02B0     		add	sp, sp, #8
  48              		@ sp needed
  49 000e 7047     		bx	lr
  50              		.cfi_endproc
  51              	.LFE127:
  52              		.size	port_lock, .-port_lock
  53              		.align	2
  54              		.p2align 4,,15
  55              		.thumb
  56              		.thumb_func
  57              		.type	port_unlock, %function
ARM GAS  /tmp/ccPi6Z4o.s 			page 2


  58              	port_unlock:
  59              	.LFB128:
  60              		.loc 1 480 0
  61              		.cfi_startproc
  62              		@ args = 0, pretend = 0, frame = 8
  63              		@ frame_needed = 0, uses_anonymous_args = 0
  64              		@ link register save eliminated.
  65 0010 82B0     		sub	sp, sp, #8
  66              		.cfi_def_cfa_offset 8
  67 0012 0023     		movs	r3, #0
  68 0014 0193     		str	r3, [sp, #4]
  69              	.LBB8:
  70              	.LBB9:
  71              		.loc 2 548 0
  72 0016 019B     		ldr	r3, [sp, #4]
  73              	@ 548 "../../ChibiOS/os/ext/CMSIS/include/core_cmFunc.h" 1
  74 0018 83F31188 		MSR basepri, r3
  75              	@ 0 "" 2
  76              		.thumb
  77              	.LBE9:
  78              	.LBE8:
  79              		.loc 1 487 0
  80 001c 02B0     		add	sp, sp, #8
  81              		@ sp needed
  82 001e 7047     		bx	lr
  83              		.cfi_endproc
  84              	.LFE128:
  85              		.size	port_unlock, .-port_unlock
  86              		.align	2
  87              		.p2align 4,,15
  88              		.thumb
  89              		.thumb_func
  90              		.type	chSysLock, %function
  91              	chSysLock:
  92              	.LFB156:
  93              		.file 3 "../../ChibiOS/os/rt/include/chsys.h"
  94              		.loc 3 346 0
  95              		.cfi_startproc
  96              		@ args = 0, pretend = 0, frame = 0
  97              		@ frame_needed = 0, uses_anonymous_args = 0
  98 0020 08B5     		push	{r3, lr}
  99              		.cfi_def_cfa_offset 8
 100              		.cfi_offset 3, -8
 101              		.cfi_offset 14, -4
 102              		.loc 3 348 0
 103 0022 FFF7EDFF 		bl	port_lock
 104              		.loc 3 351 0
 105 0026 08BD     		pop	{r3, pc}
 106              		.cfi_endproc
 107              	.LFE156:
 108              		.size	chSysLock, .-chSysLock
 109              		.align	2
 110 0028 AFF30080 		.p2align 4,,15
 110      AFF30080 
 111              		.thumb
 112              		.thumb_func
 113              		.type	chSysUnlock, %function
ARM GAS  /tmp/ccPi6Z4o.s 			page 3


 114              	chSysUnlock:
 115              	.LFB157:
 116              		.loc 3 358 0
 117              		.cfi_startproc
 118              		@ args = 0, pretend = 0, frame = 0
 119              		@ frame_needed = 0, uses_anonymous_args = 0
 120 0030 08B5     		push	{r3, lr}
 121              		.cfi_def_cfa_offset 8
 122              		.cfi_offset 3, -8
 123              		.cfi_offset 14, -4
 124              		.loc 3 371 0
 125 0032 FFF7EDFF 		bl	port_unlock
 126              		.loc 3 372 0
 127 0036 08BD     		pop	{r3, pc}
 128              		.cfi_endproc
 129              	.LFE157:
 130              		.size	chSysUnlock, .-chSysUnlock
 131              		.global	ch_debug
 132              		.section	.rodata
 133              		.align	2
 134              		.type	ch_debug, %object
 135              		.size	ch_debug, 22
 136              	ch_debug:
 137 0000 6D       		.byte	109
 138 0001 61       		.byte	97
 139 0002 69       		.byte	105
 140 0003 6E       		.byte	110
 141 0004 00       		.byte	0
 142 0005 16       		.byte	22
 143 0006 4518     		.short	6213
 144 0008 04       		.byte	4
 145 0009 04       		.byte	4
 146 000a 44       		.byte	68
 147 000b 08       		.byte	8
 148 000c 0C       		.byte	12
 149 000d 10       		.byte	16
 150 000e 14       		.byte	20
 151 000f 18       		.byte	24
 152 0010 00       		.byte	0
 153 0011 1C       		.byte	28
 154 0012 1D       		.byte	29
 155 0013 1E       		.byte	30
 156 0014 1F       		.byte	31
 157 0015 00       		.byte	0
 158 0016 0000     		.text
 159              		.align	2
 160 0038 AFF30080 		.p2align 4,,15
 160      AFF30080 
 161              		.global	chRegFirstThread
 162              		.thumb
 163              		.thumb_func
 164              		.type	chRegFirstThread, %function
 165              	chRegFirstThread:
 166              	.LFB230:
 167              		.file 4 "../../ChibiOS/os/rt/src/chregistry.c"
 168              		.loc 4 131 0
 169              		.cfi_startproc
ARM GAS  /tmp/ccPi6Z4o.s 			page 4


 170              		@ args = 0, pretend = 0, frame = 8
 171              		@ frame_needed = 0, uses_anonymous_args = 0
 172 0040 00B5     		push	{lr}
 173              		.cfi_def_cfa_offset 4
 174              		.cfi_offset 14, -4
 175 0042 83B0     		sub	sp, sp, #12
 176              		.cfi_def_cfa_offset 16
 177              		.loc 4 134 0
 178 0044 FFF7ECFF 		bl	chSysLock
 179              		.loc 4 135 0
 180 0048 074B     		ldr	r3, .L7
 181 004a 1B69     		ldr	r3, [r3, #16]
 182 004c 0193     		str	r3, [sp, #4]
 183              		.loc 4 137 0
 184 004e 019B     		ldr	r3, [sp, #4]
 185 0050 9B7F     		ldrb	r3, [r3, #30]	@ zero_extendqisi2
 186 0052 0133     		adds	r3, r3, #1
 187 0054 DAB2     		uxtb	r2, r3
 188 0056 019B     		ldr	r3, [sp, #4]
 189 0058 9A77     		strb	r2, [r3, #30]
 190              		.loc 4 139 0
 191 005a FFF7E9FF 		bl	chSysUnlock
 192              		.loc 4 141 0
 193 005e 019B     		ldr	r3, [sp, #4]
 194              		.loc 4 142 0
 195 0060 1846     		mov	r0, r3
 196 0062 03B0     		add	sp, sp, #12
 197              		@ sp needed
 198 0064 5DF804FB 		ldr	pc, [sp], #4
 199              	.L8:
 200              		.align	2
 201              	.L7:
 202 0068 00000000 		.word	ch
 203              		.cfi_endproc
 204              	.LFE230:
 205              		.size	chRegFirstThread, .-chRegFirstThread
 206              		.align	2
 207 006c AFF30080 		.p2align 4,,15
 208              		.global	chRegNextThread
 209              		.thumb
 210              		.thumb_func
 211              		.type	chRegNextThread, %function
 212              	chRegNextThread:
 213              	.LFB231:
 214              		.loc 4 155 0
 215              		.cfi_startproc
 216              		@ args = 0, pretend = 0, frame = 16
 217              		@ frame_needed = 0, uses_anonymous_args = 0
 218 0070 00B5     		push	{lr}
 219              		.cfi_def_cfa_offset 4
 220              		.cfi_offset 14, -4
 221 0072 85B0     		sub	sp, sp, #20
 222              		.cfi_def_cfa_offset 24
 223 0074 0190     		str	r0, [sp, #4]
 224              		.loc 4 158 0
 225 0076 FFF7D3FF 		bl	chSysLock
 226              		.loc 4 159 0
ARM GAS  /tmp/ccPi6Z4o.s 			page 5


 227 007a 019B     		ldr	r3, [sp, #4]
 228 007c 1B69     		ldr	r3, [r3, #16]
 229 007e 0393     		str	r3, [sp, #12]
 230              		.loc 4 161 0
 231 0080 039A     		ldr	r2, [sp, #12]
 232 0082 0B4B     		ldr	r3, .L13
 233 0084 9A42     		cmp	r2, r3
 234 0086 02D1     		bne	.L10
 235              		.loc 4 163 0
 236 0088 0023     		movs	r3, #0
 237 008a 0393     		str	r3, [sp, #12]
 238 008c 05E0     		b	.L11
 239              	.L10:
 240              		.loc 4 168 0
 241 008e 039B     		ldr	r3, [sp, #12]
 242 0090 9B7F     		ldrb	r3, [r3, #30]	@ zero_extendqisi2
 243 0092 0133     		adds	r3, r3, #1
 244 0094 DAB2     		uxtb	r2, r3
 245 0096 039B     		ldr	r3, [sp, #12]
 246 0098 9A77     		strb	r2, [r3, #30]
 247              	.L11:
 248              		.loc 4 171 0
 249 009a FFF7C9FF 		bl	chSysUnlock
 250              		.loc 4 173 0
 251 009e 0198     		ldr	r0, [sp, #4]
 252 00a0 FFF7FEFF 		bl	chThdRelease
 253              		.loc 4 176 0
 254 00a4 039B     		ldr	r3, [sp, #12]
 255              		.loc 4 177 0
 256 00a6 1846     		mov	r0, r3
 257 00a8 05B0     		add	sp, sp, #20
 258              		@ sp needed
 259 00aa 5DF804FB 		ldr	pc, [sp], #4
 260              	.L14:
 261 00ae 00BF     		.align	2
 262              	.L13:
 263 00b0 00000000 		.word	ch
 264              		.cfi_endproc
 265              	.LFE231:
 266              		.size	chRegNextThread, .-chRegNextThread
 267              	.Letext0:
 268              		.file 5 "/nfs/nfs5/home/research/hardware/arm2/gcc-arm-embedded/gcc-arm-none-eabi-4_8-2014q2/lib/g
 269              		.file 6 "/nfs/nfs5/home/research/hardware/arm2/gcc-arm-embedded/gcc-arm-none-eabi-4_8-2014q2/arm-n
 270              		.file 7 "/nfs/nfs5/home/research/hardware/arm2/gcc-arm-embedded/gcc-arm-none-eabi-4_8-2014q2/arm-n
 271              		.file 8 "../../ChibiOS/os/rt/ports/ARMCMx/compilers/GCC/chtypes.h"
 272              		.file 9 "../../ChibiOS/os/rt/include/chsystypes.h"
 273              		.file 10 "../../ChibiOS/os/rt/include/chschd.h"
 274              		.file 11 "../../ChibiOS/os/rt/ports/ARMCMx/chcore.h"
 275              		.file 12 "../../ChibiOS/os/rt/include/chtm.h"
 276              		.file 13 "../../ChibiOS/os/rt/include/chsem.h"
 277              		.file 14 "../../ChibiOS/os/rt/include/chmtx.h"
 278              		.file 15 "../../ChibiOS/os/rt/include/chregistry.h"
 279              		.file 16 "../../ChibiOS/os/ext/CMSIS/include/core_cm4.h"