ARM GAS  /tmp/ccAbmO1f.s 			page 1


   1              		.syntax unified
   2              		.cpu cortex-m4
   3              		.fpu softvfp
   4              		.eabi_attribute 20, 1
   5              		.eabi_attribute 21, 1
   6              		.eabi_attribute 23, 3
   7              		.eabi_attribute 24, 1
   8              		.eabi_attribute 25, 1
   9              		.eabi_attribute 26, 1
  10              		.eabi_attribute 30, 6
  11              		.eabi_attribute 34, 1
  12              		.eabi_attribute 18, 4
  13              		.thumb
  14              		.file	"chschd.c"
  15              		.text
  16              	.Ltext0:
  17              		.cfi_sections	.debug_frame
  18              		.align	2
  19              		.p2align 4,,15
  20              		.thumb
  21              		.thumb_func
  22              		.type	port_lock, %function
  23              	port_lock:
  24              	.LFB127:
  25              		.file 1 "../../ChibiOS/os/rt/ports/ARMCMx/chcore_v7m.h"
  26              		.loc 1 456 0
  27              		.cfi_startproc
  28              		@ args = 0, pretend = 0, frame = 8
  29              		@ frame_needed = 0, uses_anonymous_args = 0
  30              		@ link register save eliminated.
  31 0000 82B0     		sub	sp, sp, #8
  32              		.cfi_def_cfa_offset 8
  33 0002 2023     		movs	r3, #32
  34 0004 0193     		str	r3, [sp, #4]
  35              	.LBB6:
  36              	.LBB7:
  37              		.file 2 "../../ChibiOS/os/ext/CMSIS/include/core_cmFunc.h"
  38              		.loc 2 548 0
  39 0006 019B     		ldr	r3, [sp, #4]
  40              	@ 548 "../../ChibiOS/os/ext/CMSIS/include/core_cmFunc.h" 1
  41 0008 83F31188 		MSR basepri, r3
  42              	@ 0 "" 2
  43              		.thumb
  44              	.LBE7:
  45              	.LBE6:
  46              		.loc 1 473 0
  47 000c 02B0     		add	sp, sp, #8
  48              		@ sp needed
  49 000e 7047     		bx	lr
  50              		.cfi_endproc
  51              	.LFE127:
  52              		.size	port_lock, .-port_lock
  53              		.align	2
  54              		.p2align 4,,15
  55              		.thumb
  56              		.thumb_func
  57              		.type	port_unlock, %function
ARM GAS  /tmp/ccAbmO1f.s 			page 2


  58              	port_unlock:
  59              	.LFB128:
  60              		.loc 1 480 0
  61              		.cfi_startproc
  62              		@ args = 0, pretend = 0, frame = 8
  63              		@ frame_needed = 0, uses_anonymous_args = 0
  64              		@ link register save eliminated.
  65 0010 82B0     		sub	sp, sp, #8
  66              		.cfi_def_cfa_offset 8
  67 0012 0023     		movs	r3, #0
  68 0014 0193     		str	r3, [sp, #4]
  69              	.LBB8:
  70              	.LBB9:
  71              		.loc 2 548 0
  72 0016 019B     		ldr	r3, [sp, #4]
  73              	@ 548 "../../ChibiOS/os/ext/CMSIS/include/core_cmFunc.h" 1
  74 0018 83F31188 		MSR basepri, r3
  75              	@ 0 "" 2
  76              		.thumb
  77              	.LBE9:
  78              	.LBE8:
  79              		.loc 1 487 0
  80 001c 02B0     		add	sp, sp, #8
  81              		@ sp needed
  82 001e 7047     		bx	lr
  83              		.cfi_endproc
  84              	.LFE128:
  85              		.size	port_unlock, .-port_unlock
  86              		.align	2
  87              		.p2align 4,,15
  88              		.thumb
  89              		.thumb_func
  90              		.type	port_lock_from_isr, %function
  91              	port_lock_from_isr:
  92              	.LFB129:
  93              		.loc 1 495 0
  94              		.cfi_startproc
  95              		@ args = 0, pretend = 0, frame = 0
  96              		@ frame_needed = 0, uses_anonymous_args = 0
  97 0020 08B5     		push	{r3, lr}
  98              		.cfi_def_cfa_offset 8
  99              		.cfi_offset 3, -8
 100              		.cfi_offset 14, -4
 101              		.loc 1 497 0
 102 0022 FFF7EDFF 		bl	port_lock
 103              		.loc 1 498 0
 104 0026 08BD     		pop	{r3, pc}
 105              		.cfi_endproc
 106              	.LFE129:
 107              		.size	port_lock_from_isr, .-port_lock_from_isr
 108              		.align	2
 109 0028 AFF30080 		.p2align 4,,15
 109      AFF30080 
 110              		.thumb
 111              		.thumb_func
 112              		.type	port_unlock_from_isr, %function
 113              	port_unlock_from_isr:
ARM GAS  /tmp/ccAbmO1f.s 			page 3


 114              	.LFB130:
 115              		.loc 1 506 0
 116              		.cfi_startproc
 117              		@ args = 0, pretend = 0, frame = 0
 118              		@ frame_needed = 0, uses_anonymous_args = 0
 119 0030 08B5     		push	{r3, lr}
 120              		.cfi_def_cfa_offset 8
 121              		.cfi_offset 3, -8
 122              		.cfi_offset 14, -4
 123              		.loc 1 508 0
 124 0032 FFF7EDFF 		bl	port_unlock
 125              		.loc 1 509 0
 126 0036 08BD     		pop	{r3, pc}
 127              		.cfi_endproc
 128              	.LFE130:
 129              		.size	port_unlock_from_isr, .-port_unlock_from_isr
 130              		.align	2
 131 0038 AFF30080 		.p2align 4,,15
 131      AFF30080 
 132              		.thumb
 133              		.thumb_func
 134              		.type	queue_init, %function
 135              	queue_init:
 136              	.LFB139:
 137              		.file 3 "../../ChibiOS/os/rt/include/chschd.h"
 138              		.loc 3 602 0
 139              		.cfi_startproc
 140              		@ args = 0, pretend = 0, frame = 8
 141              		@ frame_needed = 0, uses_anonymous_args = 0
 142              		@ link register save eliminated.
 143 0040 82B0     		sub	sp, sp, #8
 144              		.cfi_def_cfa_offset 8
 145 0042 0190     		str	r0, [sp, #4]
 146              		.loc 3 604 0
 147 0044 019B     		ldr	r3, [sp, #4]
 148 0046 019A     		ldr	r2, [sp, #4]
 149 0048 1A60     		str	r2, [r3]
 150              		.loc 3 605 0
 151 004a 019B     		ldr	r3, [sp, #4]
 152 004c 019A     		ldr	r2, [sp, #4]
 153 004e 5A60     		str	r2, [r3, #4]
 154              		.loc 3 606 0
 155 0050 02B0     		add	sp, sp, #8
 156              		@ sp needed
 157 0052 7047     		bx	lr
 158              		.cfi_endproc
 159              	.LFE139:
 160              		.size	queue_init, .-queue_init
 161              		.align	2
 162 0054 AFF30080 		.p2align 4,,15
 162      AFF30080 
 162      AFF30080 
 163              		.thumb
 164              		.thumb_func
 165              		.type	queue_fifo_remove, %function
 166              	queue_fifo_remove:
 167              	.LFB146:
ARM GAS  /tmp/ccAbmO1f.s 			page 4


 168              		.loc 3 671 0
 169              		.cfi_startproc
 170              		@ args = 0, pretend = 0, frame = 16
 171              		@ frame_needed = 0, uses_anonymous_args = 0
 172              		@ link register save eliminated.
 173 0060 84B0     		sub	sp, sp, #16
 174              		.cfi_def_cfa_offset 16
 175 0062 0190     		str	r0, [sp, #4]
 176              		.loc 3 672 0
 177 0064 019B     		ldr	r3, [sp, #4]
 178 0066 1B68     		ldr	r3, [r3]
 179 0068 0393     		str	r3, [sp, #12]
 180              		.loc 3 674 0
 181 006a 039B     		ldr	r3, [sp, #12]
 182 006c 1A68     		ldr	r2, [r3]
 183 006e 019B     		ldr	r3, [sp, #4]
 184 0070 1A60     		str	r2, [r3]
 185              		.loc 3 675 0
 186 0072 019B     		ldr	r3, [sp, #4]
 187 0074 1B68     		ldr	r3, [r3]
 188 0076 019A     		ldr	r2, [sp, #4]
 189 0078 5A60     		str	r2, [r3, #4]
 190              		.loc 3 677 0
 191 007a 039B     		ldr	r3, [sp, #12]
 192              		.loc 3 678 0
 193 007c 1846     		mov	r0, r3
 194 007e 04B0     		add	sp, sp, #16
 195              		@ sp needed
 196 0080 7047     		bx	lr
 197              		.cfi_endproc
 198              	.LFE146:
 199              		.size	queue_fifo_remove, .-queue_fifo_remove
 200 0082 00BF     		.align	2
 201 0084 AFF30080 		.p2align 4,,15
 201      AFF30080 
 201      AFF30080 
 202              		.thumb
 203              		.thumb_func
 204              		.type	queue_dequeue, %function
 205              	queue_dequeue:
 206              	.LFB148:
 207              		.loc 3 689 0
 208              		.cfi_startproc
 209              		@ args = 0, pretend = 0, frame = 8
 210              		@ frame_needed = 0, uses_anonymous_args = 0
 211              		@ link register save eliminated.
 212 0090 82B0     		sub	sp, sp, #8
 213              		.cfi_def_cfa_offset 8
 214 0092 0190     		str	r0, [sp, #4]
 215              		.loc 3 691 0
 216 0094 019B     		ldr	r3, [sp, #4]
 217 0096 5B68     		ldr	r3, [r3, #4]
 218 0098 019A     		ldr	r2, [sp, #4]
 219 009a 1268     		ldr	r2, [r2]
 220 009c 1A60     		str	r2, [r3]
 221              		.loc 3 692 0
 222 009e 019B     		ldr	r3, [sp, #4]
ARM GAS  /tmp/ccAbmO1f.s 			page 5


 223 00a0 1B68     		ldr	r3, [r3]
 224 00a2 019A     		ldr	r2, [sp, #4]
 225 00a4 5268     		ldr	r2, [r2, #4]
 226 00a6 5A60     		str	r2, [r3, #4]
 227              		.loc 3 694 0
 228 00a8 019B     		ldr	r3, [sp, #4]
 229              		.loc 3 695 0
 230 00aa 1846     		mov	r0, r3
 231 00ac 02B0     		add	sp, sp, #8
 232              		@ sp needed
 233 00ae 7047     		bx	lr
 234              		.cfi_endproc
 235              	.LFE148:
 236              		.size	queue_dequeue, .-queue_dequeue
 237              		.align	2
 238              		.p2align 4,,15
 239              		.thumb
 240              		.thumb_func
 241              		.type	chSchIsRescRequiredI, %function
 242              	chSchIsRescRequiredI:
 243              	.LFB149:
 244              		.loc 3 709 0
 245              		.cfi_startproc
 246              		@ args = 0, pretend = 0, frame = 0
 247              		@ frame_needed = 0, uses_anonymous_args = 0
 248              		@ link register save eliminated.
 249              		.loc 3 713 0
 250 00b0 064B     		ldr	r3, .L12
 251 00b2 1B68     		ldr	r3, [r3]
 252 00b4 9A68     		ldr	r2, [r3, #8]
 253 00b6 054B     		ldr	r3, .L12
 254 00b8 9B69     		ldr	r3, [r3, #24]
 255 00ba 9B68     		ldr	r3, [r3, #8]
 256 00bc 9A42     		cmp	r2, r3
 257 00be 94BF     		ite	ls
 258 00c0 0023     		movls	r3, #0
 259 00c2 0123     		movhi	r3, #1
 260 00c4 DBB2     		uxtb	r3, r3
 261              		.loc 3 714 0
 262 00c6 1846     		mov	r0, r3
 263 00c8 7047     		bx	lr
 264              	.L13:
 265 00ca 00BF     		.align	2
 266              	.L12:
 267 00cc 00000000 		.word	ch
 268              		.cfi_endproc
 269              	.LFE149:
 270              		.size	chSchIsRescRequiredI, .-chSchIsRescRequiredI
 271              		.align	2
 272              		.p2align 4,,15
 273              		.thumb
 274              		.thumb_func
 275              		.type	chSysLockFromISR, %function
 276              	chSysLockFromISR:
 277              	.LFB158:
 278              		.file 4 "../../ChibiOS/os/rt/include/chsys.h"
 279              		.loc 4 386 0
ARM GAS  /tmp/ccAbmO1f.s 			page 6


 280              		.cfi_startproc
 281              		@ args = 0, pretend = 0, frame = 0
 282              		@ frame_needed = 0, uses_anonymous_args = 0
 283 00d0 08B5     		push	{r3, lr}
 284              		.cfi_def_cfa_offset 8
 285              		.cfi_offset 3, -8
 286              		.cfi_offset 14, -4
 287              		.loc 4 388 0
 288 00d2 FFF7A5FF 		bl	port_lock_from_isr
 289              		.loc 4 391 0
 290 00d6 08BD     		pop	{r3, pc}
 291              		.cfi_endproc
 292              	.LFE158:
 293              		.size	chSysLockFromISR, .-chSysLockFromISR
 294              		.align	2
 295 00d8 AFF30080 		.p2align 4,,15
 295      AFF30080 
 296              		.thumb
 297              		.thumb_func
 298              		.type	chSysUnlockFromISR, %function
 299              	chSysUnlockFromISR:
 300              	.LFB159:
 301              		.loc 4 406 0
 302              		.cfi_startproc
 303              		@ args = 0, pretend = 0, frame = 0
 304              		@ frame_needed = 0, uses_anonymous_args = 0
 305 00e0 08B5     		push	{r3, lr}
 306              		.cfi_def_cfa_offset 8
 307              		.cfi_offset 3, -8
 308              		.cfi_offset 14, -4
 309              		.loc 4 410 0
 310 00e2 FFF7A5FF 		bl	port_unlock_from_isr
 311              		.loc 4 411 0
 312 00e6 08BD     		pop	{r3, pc}
 313              		.cfi_endproc
 314              	.LFE159:
 315              		.size	chSysUnlockFromISR, .-chSysUnlockFromISR
 316              		.align	2
 317 00e8 AFF30080 		.p2align 4,,15
 317      AFF30080 
 318              		.thumb
 319              		.thumb_func
 320              		.type	chVTIsArmedI, %function
 321              	chVTIsArmedI:
 322              	.LFB171:
 323              		.file 5 "../../ChibiOS/os/rt/include/chvt.h"
 324              		.loc 5 373 0
 325              		.cfi_startproc
 326              		@ args = 0, pretend = 0, frame = 8
 327              		@ frame_needed = 0, uses_anonymous_args = 0
 328              		@ link register save eliminated.
 329 00f0 82B0     		sub	sp, sp, #8
 330              		.cfi_def_cfa_offset 8
 331 00f2 0190     		str	r0, [sp, #4]
 332              		.loc 5 377 0
 333 00f4 019B     		ldr	r3, [sp, #4]
 334 00f6 DB68     		ldr	r3, [r3, #12]
ARM GAS  /tmp/ccAbmO1f.s 			page 7


 335 00f8 002B     		cmp	r3, #0
 336 00fa 0CBF     		ite	eq
 337 00fc 0023     		moveq	r3, #0
 338 00fe 0123     		movne	r3, #1
 339 0100 DBB2     		uxtb	r3, r3
 340              		.loc 5 378 0
 341 0102 1846     		mov	r0, r3
 342 0104 02B0     		add	sp, sp, #8
 343              		@ sp needed
 344 0106 7047     		bx	lr
 345              		.cfi_endproc
 346              	.LFE171:
 347              		.size	chVTIsArmedI, .-chVTIsArmedI
 348              		.align	2
 349 0108 AFF30080 		.p2align 4,,15
 349      AFF30080 
 350              		.thumb
 351              		.thumb_func
 352              		.type	chSemFastSignalI, %function
 353              	chSemFastSignalI:
 354              	.LFB191:
 355              		.file 6 "../../ChibiOS/os/rt/include/chsem.h"
 356              		.loc 6 134 0
 357              		.cfi_startproc
 358              		@ args = 0, pretend = 0, frame = 8
 359              		@ frame_needed = 0, uses_anonymous_args = 0
 360              		@ link register save eliminated.
 361 0110 82B0     		sub	sp, sp, #8
 362              		.cfi_def_cfa_offset 8
 363 0112 0190     		str	r0, [sp, #4]
 364              		.loc 6 138 0
 365 0114 019B     		ldr	r3, [sp, #4]
 366 0116 9B68     		ldr	r3, [r3, #8]
 367 0118 5A1C     		adds	r2, r3, #1
 368 011a 019B     		ldr	r3, [sp, #4]
 369 011c 9A60     		str	r2, [r3, #8]
 370              		.loc 6 139 0
 371 011e 02B0     		add	sp, sp, #8
 372              		@ sp needed
 373 0120 7047     		bx	lr
 374              		.cfi_endproc
 375              	.LFE191:
 376              		.size	chSemFastSignalI, .-chSemFastSignalI
 377              		.comm	ch,336,8
 378 0122 00BF     		.align	2
 379 0124 AFF30080 		.p2align 4,,15
 379      AFF30080 
 379      AFF30080 
 380              		.global	_scheduler_init
 381              		.thumb
 382              		.thumb_func
 383              		.type	_scheduler_init, %function
 384              	_scheduler_init:
 385              	.LFB230:
 386              		.file 7 "../../ChibiOS/os/rt/src/chschd.c"
 387              		.loc 7 65 0
 388              		.cfi_startproc
ARM GAS  /tmp/ccAbmO1f.s 			page 8


 389              		@ args = 0, pretend = 0, frame = 0
 390              		@ frame_needed = 0, uses_anonymous_args = 0
 391 0130 08B5     		push	{r3, lr}
 392              		.cfi_def_cfa_offset 8
 393              		.cfi_offset 3, -8
 394              		.cfi_offset 14, -4
 395              		.loc 7 67 0
 396 0132 0648     		ldr	r0, .L20
 397 0134 FFF784FF 		bl	queue_init
 398              		.loc 7 68 0
 399 0138 044B     		ldr	r3, .L20
 400 013a 0022     		movs	r2, #0
 401 013c 9A60     		str	r2, [r3, #8]
 402              		.loc 7 70 0
 403 013e 034B     		ldr	r3, .L20
 404 0140 024A     		ldr	r2, .L20
 405 0142 1A61     		str	r2, [r3, #16]
 406              		.loc 7 71 0
 407 0144 014B     		ldr	r3, .L20
 408 0146 014A     		ldr	r2, .L20
 409 0148 5A61     		str	r2, [r3, #20]
 410              		.loc 7 73 0
 411 014a 08BD     		pop	{r3, pc}
 412              	.L21:
 413              		.align	2
 414              	.L20:
 415 014c 00000000 		.word	ch
 416              		.cfi_endproc
 417              	.LFE230:
 418              		.size	_scheduler_init, .-_scheduler_init
 419              		.align	2
 420              		.p2align 4,,15
 421              		.global	chSchReadyI
 422              		.thumb
 423              		.thumb_func
 424              		.type	chSchReadyI, %function
 425              	chSchReadyI:
 426              	.LFB231:
 427              		.loc 7 218 0
 428              		.cfi_startproc
 429              		@ args = 0, pretend = 0, frame = 16
 430              		@ frame_needed = 0, uses_anonymous_args = 0
 431              		@ link register save eliminated.
 432 0150 84B0     		sub	sp, sp, #16
 433              		.cfi_def_cfa_offset 16
 434 0152 0190     		str	r0, [sp, #4]
 435              		.loc 7 227 0
 436 0154 019B     		ldr	r3, [sp, #4]
 437 0156 0022     		movs	r2, #0
 438 0158 1A77     		strb	r2, [r3, #28]
 439              		.loc 7 228 0
 440 015a 0E4B     		ldr	r3, .L25
 441 015c 0393     		str	r3, [sp, #12]
 442              	.L23:
 443              		.loc 7 230 0 discriminator 1
 444 015e 039B     		ldr	r3, [sp, #12]
 445 0160 1B68     		ldr	r3, [r3]
ARM GAS  /tmp/ccAbmO1f.s 			page 9


 446 0162 0393     		str	r3, [sp, #12]
 447              		.loc 7 231 0 discriminator 1
 448 0164 039B     		ldr	r3, [sp, #12]
 449 0166 9A68     		ldr	r2, [r3, #8]
 450 0168 019B     		ldr	r3, [sp, #4]
 451 016a 9B68     		ldr	r3, [r3, #8]
 452 016c 9A42     		cmp	r2, r3
 453 016e F6D2     		bcs	.L23
 454              		.loc 7 233 0
 455 0170 019B     		ldr	r3, [sp, #4]
 456 0172 039A     		ldr	r2, [sp, #12]
 457 0174 1A60     		str	r2, [r3]
 458              		.loc 7 234 0
 459 0176 039B     		ldr	r3, [sp, #12]
 460 0178 5A68     		ldr	r2, [r3, #4]
 461 017a 019B     		ldr	r3, [sp, #4]
 462 017c 5A60     		str	r2, [r3, #4]
 463              		.loc 7 235 0
 464 017e 019B     		ldr	r3, [sp, #4]
 465 0180 5B68     		ldr	r3, [r3, #4]
 466 0182 019A     		ldr	r2, [sp, #4]
 467 0184 1A60     		str	r2, [r3]
 468              		.loc 7 236 0
 469 0186 039B     		ldr	r3, [sp, #12]
 470 0188 019A     		ldr	r2, [sp, #4]
 471 018a 5A60     		str	r2, [r3, #4]
 472              		.loc 7 238 0
 473 018c 019B     		ldr	r3, [sp, #4]
 474              		.loc 7 239 0
 475 018e 1846     		mov	r0, r3
 476 0190 04B0     		add	sp, sp, #16
 477              		@ sp needed
 478 0192 7047     		bx	lr
 479              	.L26:
 480              		.align	2
 481              	.L25:
 482 0194 00000000 		.word	ch
 483              		.cfi_endproc
 484              	.LFE231:
 485              		.size	chSchReadyI, .-chSchReadyI
 486              		.align	2
 487 0198 AFF30080 		.p2align 4,,15
 487      AFF30080 
 488              		.global	chSchGoSleepS
 489              		.thumb
 490              		.thumb_func
 491              		.type	chSchGoSleepS, %function
 492              	chSchGoSleepS:
 493              	.LFB232:
 494              		.loc 7 250 0
 495              		.cfi_startproc
 496              		@ args = 0, pretend = 0, frame = 16
 497              		@ frame_needed = 0, uses_anonymous_args = 0
 498 01a0 00B5     		push	{lr}
 499              		.cfi_def_cfa_offset 4
 500              		.cfi_offset 14, -4
 501 01a2 85B0     		sub	sp, sp, #20
ARM GAS  /tmp/ccAbmO1f.s 			page 10


 502              		.cfi_def_cfa_offset 24
 503 01a4 0346     		mov	r3, r0
 504 01a6 8DF80730 		strb	r3, [sp, #7]
 505              		.loc 7 255 0
 506 01aa 0E4B     		ldr	r3, .L28
 507 01ac 9B69     		ldr	r3, [r3, #24]
 508 01ae 0393     		str	r3, [sp, #12]
 509              		.loc 7 256 0
 510 01b0 039B     		ldr	r3, [sp, #12]
 511 01b2 9DF80720 		ldrb	r2, [sp, #7]
 512 01b6 1A77     		strb	r2, [r3, #28]
 513              		.loc 7 260 0
 514 01b8 039B     		ldr	r3, [sp, #12]
 515 01ba 0A22     		movs	r2, #10
 516 01bc DA77     		strb	r2, [r3, #31]
 517              		.loc 7 262 0
 518 01be 0948     		ldr	r0, .L28
 519 01c0 FFF74EFF 		bl	queue_fifo_remove
 520 01c4 0246     		mov	r2, r0
 521 01c6 074B     		ldr	r3, .L28
 522 01c8 9A61     		str	r2, [r3, #24]
 523              		.loc 7 268 0
 524 01ca 064B     		ldr	r3, .L28
 525 01cc 9B69     		ldr	r3, [r3, #24]
 526 01ce 0122     		movs	r2, #1
 527 01d0 1A77     		strb	r2, [r3, #28]
 528              		.loc 7 269 0
 529 01d2 044B     		ldr	r3, .L28
 530 01d4 9B69     		ldr	r3, [r3, #24]
 531 01d6 1846     		mov	r0, r3
 532 01d8 0399     		ldr	r1, [sp, #12]
 533 01da FFF7FEFF 		bl	_port_switch
 534              		.loc 7 270 0
 535 01de 05B0     		add	sp, sp, #20
 536              		@ sp needed
 537 01e0 5DF804FB 		ldr	pc, [sp], #4
 538              	.L29:
 539              		.align	2
 540              	.L28:
 541 01e4 00000000 		.word	ch
 542              		.cfi_endproc
 543              	.LFE232:
 544              		.size	chSchGoSleepS, .-chSchGoSleepS
 545              		.align	2
 546 01e8 AFF30080 		.p2align 4,,15
 546      AFF30080 
 547              		.thumb
 548              		.thumb_func
 549              		.type	wakeup, %function
 550              	wakeup:
 551              	.LFB233:
 552              		.loc 7 275 0
 553              		.cfi_startproc
 554              		@ args = 0, pretend = 0, frame = 16
 555              		@ frame_needed = 0, uses_anonymous_args = 0
 556 01f0 00B5     		push	{lr}
 557              		.cfi_def_cfa_offset 4
ARM GAS  /tmp/ccAbmO1f.s 			page 11


 558              		.cfi_offset 14, -4
 559 01f2 85B0     		sub	sp, sp, #20
 560              		.cfi_def_cfa_offset 24
 561 01f4 0190     		str	r0, [sp, #4]
 562              		.loc 7 276 0
 563 01f6 019B     		ldr	r3, [sp, #4]
 564 01f8 0393     		str	r3, [sp, #12]
 565              		.loc 7 278 0
 566 01fa FFF769FF 		bl	chSysLockFromISR
 567              		.loc 7 279 0
 568 01fe 039B     		ldr	r3, [sp, #12]
 569 0200 1B7F     		ldrb	r3, [r3, #28]	@ zero_extendqisi2
 570 0202 072B     		cmp	r3, #7
 571 0204 23D8     		bhi	.L39
 572 0206 01A2     		adr	r2, .L33
 573 0208 52F823F0 		ldr	pc, [r2, r3, lsl #2]
 574              		.p2align 2
 575              	.L33:
 576 020c 2D020000 		.word	.L32+1
 577 0210 4F020000 		.word	.L39+1
 578 0214 4F020000 		.word	.L39+1
 579 0218 33020000 		.word	.L34+1
 580 021c 47020000 		.word	.L35+1
 581 0220 3D020000 		.word	.L36+1
 582 0224 4F020000 		.word	.L39+1
 583 0228 47020000 		.word	.L35+1
 584              		.p2align 1
 585              	.L32:
 586              		.loc 7 283 0
 587 022c FFF758FF 		bl	chSysUnlockFromISR
 588              		.loc 7 284 0
 589 0230 17E0     		b	.L30
 590              	.L34:
 591              		.loc 7 286 0
 592 0232 039B     		ldr	r3, [sp, #12]
 593 0234 1B6A     		ldr	r3, [r3, #32]
 594 0236 0022     		movs	r2, #0
 595 0238 1A60     		str	r2, [r3]
 596              		.loc 7 287 0
 597 023a 09E0     		b	.L38
 598              	.L36:
 599              		.loc 7 290 0
 600 023c 039B     		ldr	r3, [sp, #12]
 601 023e 1B6A     		ldr	r3, [r3, #32]
 602 0240 1846     		mov	r0, r3
 603 0242 FFF765FF 		bl	chSemFastSignalI
 604              	.L35:
 605              		.loc 7 298 0
 606 0246 0398     		ldr	r0, [sp, #12]
 607 0248 FFF722FF 		bl	queue_dequeue
 608              		.loc 7 299 0
 609 024c 00E0     		b	.L38
 610              	.L39:
 611              		.loc 7 302 0
 612 024e 00BF     		nop
 613              	.L38:
 614              		.loc 7 304 0
ARM GAS  /tmp/ccAbmO1f.s 			page 12


 615 0250 039B     		ldr	r3, [sp, #12]
 616 0252 4FF0FF32 		mov	r2, #-1
 617 0256 1A62     		str	r2, [r3, #32]
 618              		.loc 7 305 0
 619 0258 0398     		ldr	r0, [sp, #12]
 620 025a FFF7FEFF 		bl	chSchReadyI
 621              		.loc 7 306 0
 622 025e FFF73FFF 		bl	chSysUnlockFromISR
 623              	.L30:
 624              		.loc 7 307 0
 625 0262 05B0     		add	sp, sp, #20
 626              		@ sp needed
 627 0264 5DF804FB 		ldr	pc, [sp], #4
 628              		.cfi_endproc
 629              	.LFE233:
 630              		.size	wakeup, .-wakeup
 631              		.align	2
 632 0268 AFF30080 		.p2align 4,,15
 632      AFF30080 
 633              		.global	chSchGoSleepTimeoutS
 634              		.thumb
 635              		.thumb_func
 636              		.type	chSchGoSleepTimeoutS, %function
 637              	chSchGoSleepTimeoutS:
 638              	.LFB234:
 639              		.loc 7 330 0
 640              		.cfi_startproc
 641              		@ args = 0, pretend = 0, frame = 32
 642              		@ frame_needed = 0, uses_anonymous_args = 0
 643 0270 00B5     		push	{lr}
 644              		.cfi_def_cfa_offset 4
 645              		.cfi_offset 14, -4
 646 0272 89B0     		sub	sp, sp, #36
 647              		.cfi_def_cfa_offset 40
 648 0274 0346     		mov	r3, r0
 649 0276 0091     		str	r1, [sp]
 650 0278 8DF80730 		strb	r3, [sp, #7]
 651              		.loc 7 334 0
 652 027c 009B     		ldr	r3, [sp]
 653 027e B3F1FF3F 		cmp	r3, #-1
 654 0282 19D0     		beq	.L41
 655              	.LBB10:
 656              		.loc 7 337 0
 657 0284 124B     		ldr	r3, .L45
 658 0286 9B69     		ldr	r3, [r3, #24]
 659 0288 03AA     		add	r2, sp, #12
 660 028a 1046     		mov	r0, r2
 661 028c 0099     		ldr	r1, [sp]
 662 028e 114A     		ldr	r2, .L45+4
 663 0290 FFF7FEFF 		bl	chVTDoSetI
 664              		.loc 7 338 0
 665 0294 9DF80730 		ldrb	r3, [sp, #7]	@ zero_extendqisi2
 666 0298 1846     		mov	r0, r3
 667 029a FFF7FEFF 		bl	chSchGoSleepS
 668              		.loc 7 339 0
 669 029e 03AB     		add	r3, sp, #12
 670 02a0 1846     		mov	r0, r3
ARM GAS  /tmp/ccAbmO1f.s 			page 13


 671 02a2 FFF725FF 		bl	chVTIsArmedI
 672 02a6 0346     		mov	r3, r0
 673 02a8 002B     		cmp	r3, #0
 674 02aa 04D0     		beq	.L42
 675              		.loc 7 340 0
 676 02ac 03AB     		add	r3, sp, #12
 677 02ae 1846     		mov	r0, r3
 678 02b0 FFF7FEFF 		bl	chVTDoResetI
 679              	.LBE10:
 680 02b4 05E0     		b	.L43
 681              	.L42:
 682 02b6 04E0     		b	.L43
 683              	.L41:
 684              		.loc 7 344 0
 685 02b8 9DF80730 		ldrb	r3, [sp, #7]	@ zero_extendqisi2
 686 02bc 1846     		mov	r0, r3
 687 02be FFF7FEFF 		bl	chSchGoSleepS
 688              	.L43:
 689              		.loc 7 347 0
 690 02c2 034B     		ldr	r3, .L45
 691 02c4 9B69     		ldr	r3, [r3, #24]
 692 02c6 1B6A     		ldr	r3, [r3, #32]
 693              		.loc 7 348 0
 694 02c8 1846     		mov	r0, r3
 695 02ca 09B0     		add	sp, sp, #36
 696              		@ sp needed
 697 02cc 5DF804FB 		ldr	pc, [sp], #4
 698              	.L46:
 699              		.align	2
 700              	.L45:
 701 02d0 00000000 		.word	ch
 702 02d4 00000000 		.word	wakeup
 703              		.cfi_endproc
 704              	.LFE234:
 705              		.size	chSchGoSleepTimeoutS, .-chSchGoSleepTimeoutS
 706              		.align	2
 707 02d8 AFF30080 		.p2align 4,,15
 707      AFF30080 
 708              		.global	chSchWakeupS
 709              		.thumb
 710              		.thumb_func
 711              		.type	chSchWakeupS, %function
 712              	chSchWakeupS:
 713              	.LFB235:
 714              		.loc 7 367 0
 715              		.cfi_startproc
 716              		@ args = 0, pretend = 0, frame = 16
 717              		@ frame_needed = 0, uses_anonymous_args = 0
 718 02e0 00B5     		push	{lr}
 719              		.cfi_def_cfa_offset 4
 720              		.cfi_offset 14, -4
 721 02e2 85B0     		sub	sp, sp, #20
 722              		.cfi_def_cfa_offset 24
 723 02e4 0190     		str	r0, [sp, #4]
 724 02e6 0091     		str	r1, [sp]
 725              		.loc 7 377 0
 726 02e8 019B     		ldr	r3, [sp, #4]
ARM GAS  /tmp/ccAbmO1f.s 			page 14


 727 02ea 009A     		ldr	r2, [sp]
 728 02ec 1A62     		str	r2, [r3, #32]
 729              		.loc 7 383 0
 730 02ee 019B     		ldr	r3, [sp, #4]
 731 02f0 9A68     		ldr	r2, [r3, #8]
 732 02f2 0E4B     		ldr	r3, .L50
 733 02f4 9B69     		ldr	r3, [r3, #24]
 734 02f6 9B68     		ldr	r3, [r3, #8]
 735 02f8 9A42     		cmp	r2, r3
 736 02fa 03D8     		bhi	.L48
 737              		.loc 7 384 0
 738 02fc 0198     		ldr	r0, [sp, #4]
 739 02fe FFF7FEFF 		bl	chSchReadyI
 740 0302 0FE0     		b	.L47
 741              	.L48:
 742              	.LBB11:
 743              		.loc 7 387 0
 744 0304 094B     		ldr	r3, .L50
 745 0306 9B69     		ldr	r3, [r3, #24]
 746 0308 1846     		mov	r0, r3
 747 030a FFF7FEFF 		bl	chSchReadyI
 748 030e 0390     		str	r0, [sp, #12]
 749              		.loc 7 388 0
 750 0310 064B     		ldr	r3, .L50
 751 0312 019A     		ldr	r2, [sp, #4]
 752 0314 9A61     		str	r2, [r3, #24]
 753              		.loc 7 394 0
 754 0316 019B     		ldr	r3, [sp, #4]
 755 0318 0122     		movs	r2, #1
 756 031a 1A77     		strb	r2, [r3, #28]
 757              		.loc 7 395 0
 758 031c 0198     		ldr	r0, [sp, #4]
 759 031e 0399     		ldr	r1, [sp, #12]
 760 0320 FFF7FEFF 		bl	_port_switch
 761              	.L47:
 762              	.LBE11:
 763              		.loc 7 397 0
 764 0324 05B0     		add	sp, sp, #20
 765              		@ sp needed
 766 0326 5DF804FB 		ldr	pc, [sp], #4
 767              	.L51:
 768 032a 00BF     		.align	2
 769              	.L50:
 770 032c 00000000 		.word	ch
 771              		.cfi_endproc
 772              	.LFE235:
 773              		.size	chSchWakeupS, .-chSchWakeupS
 774              		.align	2
 775              		.p2align 4,,15
 776              		.global	chSchRescheduleS
 777              		.thumb
 778              		.thumb_func
 779              		.type	chSchRescheduleS, %function
 780              	chSchRescheduleS:
 781              	.LFB236:
 782              		.loc 7 406 0
 783              		.cfi_startproc
ARM GAS  /tmp/ccAbmO1f.s 			page 15


 784              		@ args = 0, pretend = 0, frame = 0
 785              		@ frame_needed = 0, uses_anonymous_args = 0
 786 0330 08B5     		push	{r3, lr}
 787              		.cfi_def_cfa_offset 8
 788              		.cfi_offset 3, -8
 789              		.cfi_offset 14, -4
 790              		.loc 7 410 0
 791 0332 FFF7BDFE 		bl	chSchIsRescRequiredI
 792 0336 0346     		mov	r3, r0
 793 0338 002B     		cmp	r3, #0
 794 033a 01D0     		beq	.L52
 795              		.loc 7 411 0
 796 033c FFF7FEFF 		bl	chSchDoRescheduleAhead
 797              	.L52:
 798              		.loc 7 413 0
 799 0340 08BD     		pop	{r3, pc}
 800              		.cfi_endproc
 801              	.LFE236:
 802              		.size	chSchRescheduleS, .-chSchRescheduleS
 803 0342 00BF     		.align	2
 804 0344 AFF30080 		.p2align 4,,15
 804      AFF30080 
 804      AFF30080 
 805              		.global	chSchIsPreemptionRequired
 806              		.thumb
 807              		.thumb_func
 808              		.type	chSchIsPreemptionRequired, %function
 809              	chSchIsPreemptionRequired:
 810              	.LFB237:
 811              		.loc 7 428 0
 812              		.cfi_startproc
 813              		@ args = 0, pretend = 0, frame = 8
 814              		@ frame_needed = 0, uses_anonymous_args = 0
 815              		@ link register save eliminated.
 816 0350 82B0     		sub	sp, sp, #8
 817              		.cfi_def_cfa_offset 8
 818              		.loc 7 429 0
 819 0352 0F4B     		ldr	r3, .L58
 820 0354 1B68     		ldr	r3, [r3]
 821 0356 9B68     		ldr	r3, [r3, #8]
 822 0358 0193     		str	r3, [sp, #4]
 823              		.loc 7 430 0
 824 035a 0D4B     		ldr	r3, .L58
 825 035c 9B69     		ldr	r3, [r3, #24]
 826 035e 9B68     		ldr	r3, [r3, #8]
 827 0360 0093     		str	r3, [sp]
 828              		.loc 7 437 0
 829 0362 0B4B     		ldr	r3, .L58
 830 0364 9B69     		ldr	r3, [r3, #24]
 831 0366 DB7F     		ldrb	r3, [r3, #31]	@ zero_extendqisi2
 832 0368 002B     		cmp	r3, #0
 833 036a 07D0     		beq	.L55
 834              		.loc 7 437 0 is_stmt 0 discriminator 1
 835 036c 019A     		ldr	r2, [sp, #4]
 836 036e 009B     		ldr	r3, [sp]
 837 0370 9A42     		cmp	r2, r3
 838 0372 94BF     		ite	ls
ARM GAS  /tmp/ccAbmO1f.s 			page 16


 839 0374 0023     		movls	r3, #0
 840 0376 0123     		movhi	r3, #1
 841 0378 DBB2     		uxtb	r3, r3
 842 037a 06E0     		b	.L56
 843              	.L55:
 844              		.loc 7 437 0 discriminator 2
 845 037c 019A     		ldr	r2, [sp, #4]
 846 037e 009B     		ldr	r3, [sp]
 847 0380 9A42     		cmp	r2, r3
 848 0382 34BF     		ite	cc
 849 0384 0023     		movcc	r3, #0
 850 0386 0123     		movcs	r3, #1
 851 0388 DBB2     		uxtb	r3, r3
 852              	.L56:
 853              		.loc 7 443 0 is_stmt 1 discriminator 3
 854 038a 1846     		mov	r0, r3
 855 038c 02B0     		add	sp, sp, #8
 856              		@ sp needed
 857 038e 7047     		bx	lr
 858              	.L59:
 859              		.align	2
 860              	.L58:
 861 0390 00000000 		.word	ch
 862              		.cfi_endproc
 863              	.LFE237:
 864              		.size	chSchIsPreemptionRequired, .-chSchIsPreemptionRequired
 865              		.align	2
 866 0394 AFF30080 		.p2align 4,,15
 866      AFF30080 
 866      AFF30080 
 867              		.global	chSchDoRescheduleBehind
 868              		.thumb
 869              		.thumb_func
 870              		.type	chSchDoRescheduleBehind, %function
 871              	chSchDoRescheduleBehind:
 872              	.LFB238:
 873              		.loc 7 455 0
 874              		.cfi_startproc
 875              		@ args = 0, pretend = 0, frame = 8
 876              		@ frame_needed = 0, uses_anonymous_args = 0
 877 03a0 00B5     		push	{lr}
 878              		.cfi_def_cfa_offset 4
 879              		.cfi_offset 14, -4
 880 03a2 83B0     		sub	sp, sp, #12
 881              		.cfi_def_cfa_offset 16
 882              		.loc 7 458 0
 883 03a4 0D4B     		ldr	r3, .L61
 884 03a6 9B69     		ldr	r3, [r3, #24]
 885 03a8 0193     		str	r3, [sp, #4]
 886              		.loc 7 460 0
 887 03aa 0C48     		ldr	r0, .L61
 888 03ac FFF758FE 		bl	queue_fifo_remove
 889 03b0 0246     		mov	r2, r0
 890 03b2 0A4B     		ldr	r3, .L61
 891 03b4 9A61     		str	r2, [r3, #24]
 892              		.loc 7 466 0
 893 03b6 094B     		ldr	r3, .L61
ARM GAS  /tmp/ccAbmO1f.s 			page 17


 894 03b8 9B69     		ldr	r3, [r3, #24]
 895 03ba 0122     		movs	r2, #1
 896 03bc 1A77     		strb	r2, [r3, #28]
 897              		.loc 7 468 0
 898 03be 019B     		ldr	r3, [sp, #4]
 899 03c0 0A22     		movs	r2, #10
 900 03c2 DA77     		strb	r2, [r3, #31]
 901              		.loc 7 470 0
 902 03c4 0198     		ldr	r0, [sp, #4]
 903 03c6 FFF7FEFF 		bl	chSchReadyI
 904              		.loc 7 471 0
 905 03ca 044B     		ldr	r3, .L61
 906 03cc 9B69     		ldr	r3, [r3, #24]
 907 03ce 1846     		mov	r0, r3
 908 03d0 0199     		ldr	r1, [sp, #4]
 909 03d2 FFF7FEFF 		bl	_port_switch
 910              		.loc 7 472 0
 911 03d6 03B0     		add	sp, sp, #12
 912              		@ sp needed
 913 03d8 5DF804FB 		ldr	pc, [sp], #4
 914              	.L62:
 915              		.align	2
 916              	.L61:
 917 03dc 00000000 		.word	ch
 918              		.cfi_endproc
 919              	.LFE238:
 920              		.size	chSchDoRescheduleBehind, .-chSchDoRescheduleBehind
 921              		.align	2
 922              		.p2align 4,,15
 923              		.global	chSchDoRescheduleAhead
 924              		.thumb
 925              		.thumb_func
 926              		.type	chSchDoRescheduleAhead, %function
 927              	chSchDoRescheduleAhead:
 928              	.LFB239:
 929              		.loc 7 483 0
 930              		.cfi_startproc
 931              		@ args = 0, pretend = 0, frame = 8
 932              		@ frame_needed = 0, uses_anonymous_args = 0
 933 03e0 00B5     		push	{lr}
 934              		.cfi_def_cfa_offset 4
 935              		.cfi_offset 14, -4
 936 03e2 83B0     		sub	sp, sp, #12
 937              		.cfi_def_cfa_offset 16
 938              		.loc 7 486 0
 939 03e4 184B     		ldr	r3, .L65
 940 03e6 9B69     		ldr	r3, [r3, #24]
 941 03e8 0093     		str	r3, [sp]
 942              		.loc 7 488 0
 943 03ea 1748     		ldr	r0, .L65
 944 03ec FFF738FE 		bl	queue_fifo_remove
 945 03f0 0246     		mov	r2, r0
 946 03f2 154B     		ldr	r3, .L65
 947 03f4 9A61     		str	r2, [r3, #24]
 948              		.loc 7 494 0
 949 03f6 144B     		ldr	r3, .L65
 950 03f8 9B69     		ldr	r3, [r3, #24]
ARM GAS  /tmp/ccAbmO1f.s 			page 18


 951 03fa 0122     		movs	r2, #1
 952 03fc 1A77     		strb	r2, [r3, #28]
 953              		.loc 7 496 0
 954 03fe 009B     		ldr	r3, [sp]
 955 0400 0022     		movs	r2, #0
 956 0402 1A77     		strb	r2, [r3, #28]
 957              		.loc 7 497 0
 958 0404 104B     		ldr	r3, .L65
 959 0406 0193     		str	r3, [sp, #4]
 960              	.L64:
 961              		.loc 7 499 0 discriminator 1
 962 0408 019B     		ldr	r3, [sp, #4]
 963 040a 1B68     		ldr	r3, [r3]
 964 040c 0193     		str	r3, [sp, #4]
 965              		.loc 7 500 0 discriminator 1
 966 040e 019B     		ldr	r3, [sp, #4]
 967 0410 9A68     		ldr	r2, [r3, #8]
 968 0412 009B     		ldr	r3, [sp]
 969 0414 9B68     		ldr	r3, [r3, #8]
 970 0416 9A42     		cmp	r2, r3
 971 0418 F6D8     		bhi	.L64
 972              		.loc 7 502 0
 973 041a 009B     		ldr	r3, [sp]
 974 041c 019A     		ldr	r2, [sp, #4]
 975 041e 1A60     		str	r2, [r3]
 976              		.loc 7 503 0
 977 0420 019B     		ldr	r3, [sp, #4]
 978 0422 5A68     		ldr	r2, [r3, #4]
 979 0424 009B     		ldr	r3, [sp]
 980 0426 5A60     		str	r2, [r3, #4]
 981              		.loc 7 504 0
 982 0428 009B     		ldr	r3, [sp]
 983 042a 5B68     		ldr	r3, [r3, #4]
 984 042c 009A     		ldr	r2, [sp]
 985 042e 1A60     		str	r2, [r3]
 986              		.loc 7 505 0
 987 0430 019B     		ldr	r3, [sp, #4]
 988 0432 009A     		ldr	r2, [sp]
 989 0434 5A60     		str	r2, [r3, #4]
 990              		.loc 7 507 0
 991 0436 044B     		ldr	r3, .L65
 992 0438 9B69     		ldr	r3, [r3, #24]
 993 043a 1846     		mov	r0, r3
 994 043c 0099     		ldr	r1, [sp]
 995 043e FFF7FEFF 		bl	_port_switch
 996              		.loc 7 508 0
 997 0442 03B0     		add	sp, sp, #12
 998              		@ sp needed
 999 0444 5DF804FB 		ldr	pc, [sp], #4
 1000              	.L66:
 1001              		.align	2
 1002              	.L65:
 1003 0448 00000000 		.word	ch
 1004              		.cfi_endproc
 1005              	.LFE239:
 1006              		.size	chSchDoRescheduleAhead, .-chSchDoRescheduleAhead
 1007              		.align	2
ARM GAS  /tmp/ccAbmO1f.s 			page 19


 1008 044c AFF30080 		.p2align 4,,15
 1009              		.global	chSchDoReschedule
 1010              		.thumb
 1011              		.thumb_func
 1012              		.type	chSchDoReschedule, %function
 1013              	chSchDoReschedule:
 1014              	.LFB240:
 1015              		.loc 7 520 0
 1016              		.cfi_startproc
 1017              		@ args = 0, pretend = 0, frame = 0
 1018              		@ frame_needed = 0, uses_anonymous_args = 0
 1019 0450 08B5     		push	{r3, lr}
 1020              		.cfi_def_cfa_offset 8
 1021              		.cfi_offset 3, -8
 1022              		.cfi_offset 14, -4
 1023              		.loc 7 525 0
 1024 0452 054B     		ldr	r3, .L70
 1025 0454 9B69     		ldr	r3, [r3, #24]
 1026 0456 DB7F     		ldrb	r3, [r3, #31]	@ zero_extendqisi2
 1027 0458 002B     		cmp	r3, #0
 1028 045a 02D1     		bne	.L68
 1029              		.loc 7 528 0
 1030 045c FFF7FEFF 		bl	chSchDoRescheduleBehind
 1031 0460 01E0     		b	.L67
 1032              	.L68:
 1033              		.loc 7 533 0
 1034 0462 FFF7FEFF 		bl	chSchDoRescheduleAhead
 1035              	.L67:
 1036              		.loc 7 540 0
 1037 0466 08BD     		pop	{r3, pc}
 1038              	.L71:
 1039              		.align	2
 1040              	.L70:
 1041 0468 00000000 		.word	ch
 1042              		.cfi_endproc
 1043              	.LFE240:
 1044              		.size	chSchDoReschedule, .-chSchDoReschedule
 1045              	.Letext0:
 1046              		.file 8 "/nfs/nfs5/home/research/hardware/arm2/gcc-arm-embedded/gcc-arm-none-eabi-4_8-2014q2/lib/g
 1047              		.file 9 "/nfs/nfs5/home/research/hardware/arm2/gcc-arm-embedded/gcc-arm-none-eabi-4_8-2014q2/arm-n
 1048              		.file 10 "/nfs/nfs5/home/research/hardware/arm2/gcc-arm-embedded/gcc-arm-none-eabi-4_8-2014q2/arm-
 1049              		.file 11 "../../ChibiOS/os/rt/ports/ARMCMx/compilers/GCC/chtypes.h"
 1050              		.file 12 "../../ChibiOS/os/rt/include/chsystypes.h"
 1051              		.file 13 "../../ChibiOS/os/rt/ports/ARMCMx/chcore.h"
 1052              		.file 14 "../../ChibiOS/os/rt/include/chtm.h"
 1053              		.file 15 "../../ChibiOS/os/rt/include/chmtx.h"
 1054              		.file 16 "../../ChibiOS/os/ext/CMSIS/include/core_cm4.h"
 1055 046c AFF30080 		.section	.debug_info,"",%progbits
 1056              	.Ldebug_info0:
 1057 0000 5E0A0000 		.4byte	0xa5e
 1058 0004 0400     		.2byte	0x4
 1059 0006 00000000 		.4byte	.Ldebug_abbrev0
 1060 000a 04       		.byte	0x4
 1061 000b 01       		.uleb128 0x1
 1062 000c CA020000 		.4byte	.LASF132
 1063 0010 01       		.byte	0x1
 1064 0011 74030000 		.4byte	.LASF133
ARM GAS  /tmp/ccAbmO1f.s 			page 20


 1065 0015 75000000 		.4byte	.LASF134
 1066 0019 00000000 		.4byte	.Ltext0
 1067 001d 6C040000 		.4byte	.Letext0-.Ltext0
 1068 0021 00000000 		.4byte	.Ldebug_line0
 1069 0025 02       		.uleb128 0x2
 1070 0026 04       		.byte	0x4
 1071 0027 05       		.byte	0x5
 1072 0028 696E7400 		.ascii	"int\000"
 1073 002c 03       		.uleb128 0x3
 1074 002d 0D000000 		.4byte	.LASF2
 1075 0031 08       		.byte	0x8
 1076 0032 D4       		.byte	0xd4
 1077 0033 37000000 		.4byte	0x37
 1078 0037 04       		.uleb128 0x4
 1079 0038 04       		.byte	0x4
 1080 0039 07       		.byte	0x7
 1081 003a 3C020000 		.4byte	.LASF0
 1082 003e 04       		.uleb128 0x4
 1083 003f 01       		.byte	0x1
 1084 0040 06       		.byte	0x6
 1085 0041 4A010000 		.4byte	.LASF1
 1086 0045 03       		.uleb128 0x3
 1087 0046 3B000000 		.4byte	.LASF3
 1088 004a 09       		.byte	0x9
 1089 004b 1C       		.byte	0x1c
 1090 004c 50000000 		.4byte	0x50
 1091 0050 04       		.uleb128 0x4
 1092 0051 01       		.byte	0x1
 1093 0052 08       		.byte	0x8
 1094 0053 C1040000 		.4byte	.LASF4
 1095 0057 04       		.uleb128 0x4
 1096 0058 02       		.byte	0x2
 1097 0059 05       		.byte	0x5
 1098 005a D8040000 		.4byte	.LASF5
 1099 005e 04       		.uleb128 0x4
 1100 005f 02       		.byte	0x2
 1101 0060 07       		.byte	0x7
 1102 0061 87020000 		.4byte	.LASF6
 1103 0065 03       		.uleb128 0x3
 1104 0066 E7000000 		.4byte	.LASF7
 1105 006a 09       		.byte	0x9
 1106 006b 37       		.byte	0x37
 1107 006c 70000000 		.4byte	0x70
 1108 0070 04       		.uleb128 0x4
 1109 0071 04       		.byte	0x4
 1110 0072 05       		.byte	0x5
 1111 0073 93010000 		.4byte	.LASF8
 1112 0077 03       		.uleb128 0x3
 1113 0078 15060000 		.4byte	.LASF9
 1114 007c 09       		.byte	0x9
 1115 007d 38       		.byte	0x38
 1116 007e 82000000 		.4byte	0x82
 1117 0082 04       		.uleb128 0x4
 1118 0083 04       		.byte	0x4
 1119 0084 07       		.byte	0x7
 1120 0085 B0050000 		.4byte	.LASF10
 1121 0089 04       		.uleb128 0x4
ARM GAS  /tmp/ccAbmO1f.s 			page 21


 1122 008a 08       		.byte	0x8
 1123 008b 05       		.byte	0x5
 1124 008c 3C010000 		.4byte	.LASF11
 1125 0090 03       		.uleb128 0x3
 1126 0091 5E040000 		.4byte	.LASF12
 1127 0095 09       		.byte	0x9
 1128 0096 4E       		.byte	0x4e
 1129 0097 9B000000 		.4byte	0x9b
 1130 009b 04       		.uleb128 0x4
 1131 009c 08       		.byte	0x8
 1132 009d 07       		.byte	0x7
 1133 009e BC000000 		.4byte	.LASF13
 1134 00a2 03       		.uleb128 0x3
 1135 00a3 8F060000 		.4byte	.LASF14
 1136 00a7 0A       		.byte	0xa
 1137 00a8 2A       		.byte	0x2a
 1138 00a9 45000000 		.4byte	0x45
 1139 00ad 03       		.uleb128 0x3
 1140 00ae B9040000 		.4byte	.LASF15
 1141 00b2 0A       		.byte	0xa
 1142 00b3 41       		.byte	0x41
 1143 00b4 65000000 		.4byte	0x65
 1144 00b8 03       		.uleb128 0x3
 1145 00b9 7C050000 		.4byte	.LASF16
 1146 00bd 0A       		.byte	0xa
 1147 00be 42       		.byte	0x42
 1148 00bf 77000000 		.4byte	0x77
 1149 00c3 03       		.uleb128 0x3
 1150 00c4 1B000000 		.4byte	.LASF17
 1151 00c8 0A       		.byte	0xa
 1152 00c9 4E       		.byte	0x4e
 1153 00ca 90000000 		.4byte	0x90
 1154 00ce 03       		.uleb128 0x3
 1155 00cf 47060000 		.4byte	.LASF18
 1156 00d3 0B       		.byte	0xb
 1157 00d4 39       		.byte	0x39
 1158 00d5 B8000000 		.4byte	0xb8
 1159 00d9 03       		.uleb128 0x3
 1160 00da 13050000 		.4byte	.LASF19
 1161 00de 0B       		.byte	0xb
 1162 00df 3C       		.byte	0x3c
 1163 00e0 A2000000 		.4byte	0xa2
 1164 00e4 03       		.uleb128 0x3
 1165 00e5 AA010000 		.4byte	.LASF20
 1166 00e9 0B       		.byte	0xb
 1167 00ea 3D       		.byte	0x3d
 1168 00eb A2000000 		.4byte	0xa2
 1169 00ef 03       		.uleb128 0x3
 1170 00f0 69040000 		.4byte	.LASF21
 1171 00f4 0B       		.byte	0xb
 1172 00f5 3E       		.byte	0x3e
 1173 00f6 A2000000 		.4byte	0xa2
 1174 00fa 03       		.uleb128 0x3
 1175 00fb 79010000 		.4byte	.LASF22
 1176 00ff 0B       		.byte	0xb
 1177 0100 3F       		.byte	0x3f
 1178 0101 A2000000 		.4byte	0xa2
ARM GAS  /tmp/ccAbmO1f.s 			page 22


 1179 0105 03       		.uleb128 0x3
 1180 0106 88040000 		.4byte	.LASF23
 1181 010a 0B       		.byte	0xb
 1182 010b 40       		.byte	0x40
 1183 010c B8000000 		.4byte	0xb8
 1184 0110 03       		.uleb128 0x3
 1185 0111 B1020000 		.4byte	.LASF24
 1186 0115 0B       		.byte	0xb
 1187 0116 41       		.byte	0x41
 1188 0117 AD000000 		.4byte	0xad
 1189 011b 03       		.uleb128 0x3
 1190 011c 9F030000 		.4byte	.LASF25
 1191 0120 0B       		.byte	0xb
 1192 0121 43       		.byte	0x43
 1193 0122 B8000000 		.4byte	0xb8
 1194 0126 03       		.uleb128 0x3
 1195 0127 36020000 		.4byte	.LASF26
 1196 012b 0B       		.byte	0xb
 1197 012c 45       		.byte	0x45
 1198 012d AD000000 		.4byte	0xad
 1199 0131 03       		.uleb128 0x3
 1200 0132 F7050000 		.4byte	.LASF27
 1201 0136 0C       		.byte	0xc
 1202 0137 33       		.byte	0x33
 1203 0138 B8000000 		.4byte	0xb8
 1204 013c 03       		.uleb128 0x3
 1205 013d DC050000 		.4byte	.LASF28
 1206 0141 0C       		.byte	0xc
 1207 0142 3F       		.byte	0x3f
 1208 0143 47010000 		.4byte	0x147
 1209 0147 05       		.uleb128 0x5
 1210 0148 9A020000 		.4byte	.LASF49
 1211 014c 44       		.byte	0x44
 1212 014d 03       		.byte	0x3
 1213 014e C2       		.byte	0xc2
 1214 014f 40020000 		.4byte	0x240
 1215 0153 06       		.uleb128 0x6
 1216 0154 0C050000 		.4byte	.LASF29
 1217 0158 03       		.byte	0x3
 1218 0159 C3       		.byte	0xc3
 1219 015a 4B020000 		.4byte	0x24b
 1220 015e 00       		.byte	0
 1221 015f 06       		.uleb128 0x6
 1222 0160 81040000 		.4byte	.LASF30
 1223 0164 03       		.byte	0x3
 1224 0165 C5       		.byte	0xc5
 1225 0166 4B020000 		.4byte	0x24b
 1226 016a 04       		.byte	0x4
 1227 016b 06       		.uleb128 0x6
 1228 016c 25010000 		.4byte	.LASF31
 1229 0170 03       		.byte	0x3
 1230 0171 C7       		.byte	0xc7
 1231 0172 05010000 		.4byte	0x105
 1232 0176 08       		.byte	0x8
 1233 0177 06       		.uleb128 0x6
 1234 0178 F2060000 		.4byte	.LASF32
 1235 017c 03       		.byte	0x3
ARM GAS  /tmp/ccAbmO1f.s 			page 23


 1236 017d C8       		.byte	0xc8
 1237 017e 7B040000 		.4byte	0x47b
 1238 0182 0C       		.byte	0xc
 1239 0183 06       		.uleb128 0x6
 1240 0184 CD010000 		.4byte	.LASF33
 1241 0188 03       		.byte	0x3
 1242 0189 CA       		.byte	0xca
 1243 018a 4B020000 		.4byte	0x24b
 1244 018e 10       		.byte	0x10
 1245 018f 06       		.uleb128 0x6
 1246 0190 21040000 		.4byte	.LASF34
 1247 0194 03       		.byte	0x3
 1248 0195 CB       		.byte	0xcb
 1249 0196 4B020000 		.4byte	0x24b
 1250 019a 14       		.byte	0x14
 1251 019b 06       		.uleb128 0x6
 1252 019c A8060000 		.4byte	.LASF35
 1253 01a0 03       		.byte	0x3
 1254 01a1 D2       		.byte	0xd2
 1255 01a2 FA050000 		.4byte	0x5fa
 1256 01a6 18       		.byte	0x18
 1257 01a7 06       		.uleb128 0x6
 1258 01a8 E2040000 		.4byte	.LASF36
 1259 01ac 03       		.byte	0x3
 1260 01ad DD       		.byte	0xdd
 1261 01ae E4000000 		.4byte	0xe4
 1262 01b2 1C       		.byte	0x1c
 1263 01b3 06       		.uleb128 0x6
 1264 01b4 1B050000 		.4byte	.LASF37
 1265 01b8 03       		.byte	0x3
 1266 01b9 E1       		.byte	0xe1
 1267 01ba D9000000 		.4byte	0xd9
 1268 01be 1D       		.byte	0x1d
 1269 01bf 06       		.uleb128 0x6
 1270 01c0 82060000 		.4byte	.LASF38
 1271 01c4 03       		.byte	0x3
 1272 01c5 E6       		.byte	0xe6
 1273 01c6 EF000000 		.4byte	0xef
 1274 01ca 1E       		.byte	0x1e
 1275 01cb 06       		.uleb128 0x6
 1276 01cc EA040000 		.4byte	.LASF39
 1277 01d0 03       		.byte	0x3
 1278 01d1 EC       		.byte	0xec
 1279 01d2 FA000000 		.4byte	0xfa
 1280 01d6 1F       		.byte	0x1f
 1281 01d7 07       		.uleb128 0x7
 1282 01d8 705F7500 		.ascii	"p_u\000"
 1283 01dc 03       		.byte	0x3
 1284 01dd 3101     		.2byte	0x131
 1285 01df 35050000 		.4byte	0x535
 1286 01e3 20       		.byte	0x20
 1287 01e4 08       		.uleb128 0x8
 1288 01e5 CC030000 		.4byte	.LASF40
 1289 01e9 03       		.byte	0x3
 1290 01ea 3601     		.2byte	0x136
 1291 01ec 51020000 		.4byte	0x251
 1292 01f0 24       		.byte	0x24
ARM GAS  /tmp/ccAbmO1f.s 			page 24


 1293 01f1 08       		.uleb128 0x8
 1294 01f2 68020000 		.4byte	.LASF41
 1295 01f6 03       		.byte	0x3
 1296 01f7 3C01     		.2byte	0x13c
 1297 01f9 75020000 		.4byte	0x275
 1298 01fd 28       		.byte	0x28
 1299 01fe 08       		.uleb128 0x8
 1300 01ff E4060000 		.4byte	.LASF42
 1301 0203 03       		.byte	0x3
 1302 0204 4001     		.2byte	0x140
 1303 0206 10010000 		.4byte	0x110
 1304 020a 30       		.byte	0x30
 1305 020b 08       		.uleb128 0x8
 1306 020c 71050000 		.4byte	.LASF43
 1307 0210 03       		.byte	0x3
 1308 0211 4601     		.2byte	0x146
 1309 0213 1B010000 		.4byte	0x11b
 1310 0217 34       		.byte	0x34
 1311 0218 08       		.uleb128 0x8
 1312 0219 95030000 		.4byte	.LASF44
 1313 021d 03       		.byte	0x3
 1314 021e 4D01     		.2byte	0x14d
 1315 0220 F4050000 		.4byte	0x5f4
 1316 0224 38       		.byte	0x38
 1317 0225 08       		.uleb128 0x8
 1318 0226 01060000 		.4byte	.LASF45
 1319 022a 03       		.byte	0x3
 1320 022b 5101     		.2byte	0x151
 1321 022d 05010000 		.4byte	0x105
 1322 0231 3C       		.byte	0x3c
 1323 0232 08       		.uleb128 0x8
 1324 0233 56010000 		.4byte	.LASF46
 1325 0237 03       		.byte	0x3
 1326 0238 5801     		.2byte	0x158
 1327 023a 28030000 		.4byte	0x328
 1328 023e 40       		.byte	0x40
 1329 023f 00       		.byte	0
 1330 0240 03       		.uleb128 0x3
 1331 0241 DF030000 		.4byte	.LASF47
 1332 0245 0C       		.byte	0xc
 1333 0246 44       		.byte	0x44
 1334 0247 4B020000 		.4byte	0x24b
 1335 024b 09       		.uleb128 0x9
 1336 024c 04       		.byte	0x4
 1337 024d 3C010000 		.4byte	0x13c
 1338 0251 03       		.uleb128 0x3
 1339 0252 B6030000 		.4byte	.LASF48
 1340 0256 0C       		.byte	0xc
 1341 0257 49       		.byte	0x49
 1342 0258 5C020000 		.4byte	0x25c
 1343 025c 05       		.uleb128 0x5
 1344 025d A0050000 		.4byte	.LASF50
 1345 0261 04       		.byte	0x4
 1346 0262 03       		.byte	0x3
 1347 0263 B0       		.byte	0xb0
 1348 0264 75020000 		.4byte	0x275
 1349 0268 06       		.uleb128 0x6
ARM GAS  /tmp/ccAbmO1f.s 			page 25


 1350 0269 0C050000 		.4byte	.LASF29
 1351 026d 03       		.byte	0x3
 1352 026e B1       		.byte	0xb1
 1353 026f 4B020000 		.4byte	0x24b
 1354 0273 00       		.byte	0
 1355 0274 00       		.byte	0
 1356 0275 03       		.uleb128 0x3
 1357 0276 69060000 		.4byte	.LASF51
 1358 027a 0C       		.byte	0xc
 1359 027b 50       		.byte	0x50
 1360 027c 80020000 		.4byte	0x280
 1361 0280 05       		.uleb128 0x5
 1362 0281 14010000 		.4byte	.LASF52
 1363 0285 08       		.byte	0x8
 1364 0286 03       		.byte	0x3
 1365 0287 B7       		.byte	0xb7
 1366 0288 A5020000 		.4byte	0x2a5
 1367 028c 06       		.uleb128 0x6
 1368 028d 0C050000 		.4byte	.LASF29
 1369 0291 03       		.byte	0x3
 1370 0292 B8       		.byte	0xb8
 1371 0293 4B020000 		.4byte	0x24b
 1372 0297 00       		.byte	0
 1373 0298 06       		.uleb128 0x6
 1374 0299 81040000 		.4byte	.LASF30
 1375 029d 03       		.byte	0x3
 1376 029e B9       		.byte	0xb9
 1377 029f 4B020000 		.4byte	0x24b
 1378 02a3 04       		.byte	0x4
 1379 02a4 00       		.byte	0
 1380 02a5 03       		.uleb128 0x3
 1381 02a6 00000000 		.4byte	.LASF53
 1382 02aa 0C       		.byte	0xc
 1383 02ab 57       		.byte	0x57
 1384 02ac B0020000 		.4byte	0x2b0
 1385 02b0 0A       		.uleb128 0xa
 1386 02b1 73020000 		.4byte	.LASF54
 1387 02b5 1C       		.byte	0x1c
 1388 02b6 03       		.byte	0x3
 1389 02b7 9001     		.2byte	0x190
 1390 02b9 0C030000 		.4byte	0x30c
 1391 02bd 08       		.uleb128 0x8
 1392 02be 8C050000 		.4byte	.LASF55
 1393 02c2 03       		.byte	0x3
 1394 02c3 9101     		.2byte	0x191
 1395 02c5 75020000 		.4byte	0x275
 1396 02c9 00       		.byte	0
 1397 02ca 08       		.uleb128 0x8
 1398 02cb C5030000 		.4byte	.LASF56
 1399 02cf 03       		.byte	0x3
 1400 02d0 9201     		.2byte	0x192
 1401 02d2 05010000 		.4byte	0x105
 1402 02d6 08       		.byte	0x8
 1403 02d7 08       		.uleb128 0x8
 1404 02d8 29040000 		.4byte	.LASF57
 1405 02dc 03       		.byte	0x3
 1406 02dd 9401     		.2byte	0x194
ARM GAS  /tmp/ccAbmO1f.s 			page 26


 1407 02df 7B040000 		.4byte	0x47b
 1408 02e3 0C       		.byte	0xc
 1409 02e4 08       		.uleb128 0x8
 1410 02e5 EE010000 		.4byte	.LASF58
 1411 02e9 03       		.byte	0x3
 1412 02ea 9701     		.2byte	0x197
 1413 02ec 4B020000 		.4byte	0x24b
 1414 02f0 10       		.byte	0x10
 1415 02f1 08       		.uleb128 0x8
 1416 02f2 56040000 		.4byte	.LASF59
 1417 02f6 03       		.byte	0x3
 1418 02f7 9801     		.2byte	0x198
 1419 02f9 4B020000 		.4byte	0x24b
 1420 02fd 14       		.byte	0x14
 1421 02fe 08       		.uleb128 0x8
 1422 02ff 4C040000 		.4byte	.LASF60
 1423 0303 03       		.byte	0x3
 1424 0304 9B01     		.2byte	0x19b
 1425 0306 4B020000 		.4byte	0x24b
 1426 030a 18       		.byte	0x18
 1427 030b 00       		.byte	0
 1428 030c 03       		.uleb128 0x3
 1429 030d 0C060000 		.4byte	.LASF61
 1430 0311 0C       		.byte	0xc
 1431 0312 5C       		.byte	0x5c
 1432 0313 17030000 		.4byte	0x317
 1433 0317 09       		.uleb128 0x9
 1434 0318 04       		.byte	0x4
 1435 0319 1D030000 		.4byte	0x31d
 1436 031d 0B       		.uleb128 0xb
 1437 031e 28030000 		.4byte	0x328
 1438 0322 0C       		.uleb128 0xc
 1439 0323 28030000 		.4byte	0x328
 1440 0327 00       		.byte	0
 1441 0328 0D       		.uleb128 0xd
 1442 0329 04       		.byte	0x4
 1443 032a 03       		.uleb128 0x3
 1444 032b 71040000 		.4byte	.LASF62
 1445 032f 0C       		.byte	0xc
 1446 0330 61       		.byte	0x61
 1447 0331 35030000 		.4byte	0x335
 1448 0335 0A       		.uleb128 0xa
 1449 0336 45050000 		.4byte	.LASF63
 1450 033a 14       		.byte	0x14
 1451 033b 03       		.byte	0x3
 1452 033c 6B01     		.2byte	0x16b
 1453 033e 84030000 		.4byte	0x384
 1454 0342 08       		.uleb128 0x8
 1455 0343 50020000 		.4byte	.LASF64
 1456 0347 03       		.byte	0x3
 1457 0348 6C01     		.2byte	0x16c
 1458 034a 0C060000 		.4byte	0x60c
 1459 034e 00       		.byte	0
 1460 034f 08       		.uleb128 0x8
 1461 0350 11020000 		.4byte	.LASF65
 1462 0354 03       		.byte	0x3
 1463 0355 6D01     		.2byte	0x16d
ARM GAS  /tmp/ccAbmO1f.s 			page 27


 1464 0357 0C060000 		.4byte	0x60c
 1465 035b 04       		.byte	0x4
 1466 035c 08       		.uleb128 0x8
 1467 035d 5F020000 		.4byte	.LASF66
 1468 0361 03       		.byte	0x3
 1469 0362 6E01     		.2byte	0x16e
 1470 0364 31010000 		.4byte	0x131
 1471 0368 08       		.byte	0x8
 1472 0369 08       		.uleb128 0x8
 1473 036a F8060000 		.4byte	.LASF67
 1474 036e 03       		.byte	0x3
 1475 036f 6F01     		.2byte	0x16f
 1476 0371 0C030000 		.4byte	0x30c
 1477 0375 0C       		.byte	0xc
 1478 0376 08       		.uleb128 0x8
 1479 0377 62060000 		.4byte	.LASF68
 1480 037b 03       		.byte	0x3
 1481 037c 7101     		.2byte	0x171
 1482 037e 28030000 		.4byte	0x328
 1483 0382 10       		.byte	0x10
 1484 0383 00       		.byte	0
 1485 0384 03       		.uleb128 0x3
 1486 0385 F1000000 		.4byte	.LASF69
 1487 0389 0C       		.byte	0xc
 1488 038a 66       		.byte	0x66
 1489 038b 8F030000 		.4byte	0x38f
 1490 038f 0A       		.uleb128 0xa
 1491 0390 F2030000 		.4byte	.LASF70
 1492 0394 10       		.byte	0x10
 1493 0395 03       		.byte	0x3
 1494 0396 7B01     		.2byte	0x17b
 1495 0398 D1030000 		.4byte	0x3d1
 1496 039c 08       		.uleb128 0x8
 1497 039d 50020000 		.4byte	.LASF64
 1498 03a1 03       		.byte	0x3
 1499 03a2 7C01     		.2byte	0x17c
 1500 03a4 0C060000 		.4byte	0x60c
 1501 03a8 00       		.byte	0
 1502 03a9 08       		.uleb128 0x8
 1503 03aa 11020000 		.4byte	.LASF65
 1504 03ae 03       		.byte	0x3
 1505 03af 7E01     		.2byte	0x17e
 1506 03b1 0C060000 		.4byte	0x60c
 1507 03b5 04       		.byte	0x4
 1508 03b6 08       		.uleb128 0x8
 1509 03b7 5F020000 		.4byte	.LASF66
 1510 03bb 03       		.byte	0x3
 1511 03bc 8001     		.2byte	0x180
 1512 03be 31010000 		.4byte	0x131
 1513 03c2 08       		.byte	0x8
 1514 03c3 08       		.uleb128 0x8
 1515 03c4 AF060000 		.4byte	.LASF71
 1516 03c8 03       		.byte	0x3
 1517 03c9 8201     		.2byte	0x182
 1518 03cb 12060000 		.4byte	0x612
 1519 03cf 0C       		.byte	0xc
 1520 03d0 00       		.byte	0
ARM GAS  /tmp/ccAbmO1f.s 			page 28


 1521 03d1 03       		.uleb128 0x3
 1522 03d2 51000000 		.4byte	.LASF72
 1523 03d6 0C       		.byte	0xc
 1524 03d7 6B       		.byte	0x6b
 1525 03d8 DC030000 		.4byte	0x3dc
 1526 03dc 0A       		.uleb128 0xa
 1527 03dd A3040000 		.4byte	.LASF73
 1528 03e1 04       		.byte	0x4
 1529 03e2 03       		.byte	0x3
 1530 03e3 A201     		.2byte	0x1a2
 1531 03e5 F7030000 		.4byte	0x3f7
 1532 03e9 08       		.uleb128 0x8
 1533 03ea 2E060000 		.4byte	.LASF74
 1534 03ee 03       		.byte	0x3
 1535 03ef AA01     		.2byte	0x1aa
 1536 03f1 17060000 		.4byte	0x617
 1537 03f5 00       		.byte	0
 1538 03f6 00       		.byte	0
 1539 03f7 03       		.uleb128 0x3
 1540 03f8 B7020000 		.4byte	.LASF75
 1541 03fc 0C       		.byte	0xc
 1542 03fd 70       		.byte	0x70
 1543 03fe 02040000 		.4byte	0x402
 1544 0402 0E       		.uleb128 0xe
 1545 0403 89010000 		.4byte	.LASF76
 1546 0407 5001     		.2byte	0x150
 1547 0409 03       		.byte	0x3
 1548 040a C201     		.2byte	0x1c2
 1549 040c 5E040000 		.4byte	0x45e
 1550 0410 08       		.uleb128 0x8
 1551 0411 89060000 		.4byte	.LASF77
 1552 0415 03       		.byte	0x3
 1553 0416 C601     		.2byte	0x1c6
 1554 0418 A5020000 		.4byte	0x2a5
 1555 041c 00       		.byte	0
 1556 041d 08       		.uleb128 0x8
 1557 041e 66010000 		.4byte	.LASF78
 1558 0422 03       		.byte	0x3
 1559 0423 CA01     		.2byte	0x1ca
 1560 0425 84030000 		.4byte	0x384
 1561 0429 1C       		.byte	0x1c
 1562 042a 07       		.uleb128 0x7
 1563 042b 64626700 		.ascii	"dbg\000"
 1564 042f 03       		.byte	0x3
 1565 0430 CE01     		.2byte	0x1ce
 1566 0432 D1030000 		.4byte	0x3d1
 1567 0436 2C       		.byte	0x2c
 1568 0437 08       		.uleb128 0x8
 1569 0438 DC000000 		.4byte	.LASF79
 1570 043c 03       		.byte	0x3
 1571 043d D201     		.2byte	0x1d2
 1572 043f 3C010000 		.4byte	0x13c
 1573 0443 30       		.byte	0x30
 1574 0444 07       		.uleb128 0x7
 1575 0445 746D00   		.ascii	"tm\000"
 1576 0448 03       		.byte	0x3
 1577 0449 D701     		.2byte	0x1d7
ARM GAS  /tmp/ccAbmO1f.s 			page 29


 1578 044b 2A050000 		.4byte	0x52a
 1579 044f 74       		.byte	0x74
 1580 0450 08       		.uleb128 0x8
 1581 0451 27020000 		.4byte	.LASF80
 1582 0455 03       		.byte	0x3
 1583 0456 E301     		.2byte	0x1e3
 1584 0458 1C060000 		.4byte	0x61c
 1585 045c 78       		.byte	0x78
 1586 045d 00       		.byte	0
 1587 045e 04       		.uleb128 0x4
 1588 045f 04       		.byte	0x4
 1589 0460 07       		.byte	0x7
 1590 0461 D6030000 		.4byte	.LASF81
 1591 0465 03       		.uleb128 0x3
 1592 0466 F6010000 		.4byte	.LASF82
 1593 046a 0D       		.byte	0xd
 1594 046b 65       		.byte	0x65
 1595 046c 28030000 		.4byte	0x328
 1596 0470 03       		.uleb128 0x3
 1597 0471 AB030000 		.4byte	.LASF83
 1598 0475 0D       		.byte	0xd
 1599 0476 6D       		.byte	0x6d
 1600 0477 C3000000 		.4byte	0xc3
 1601 047b 05       		.uleb128 0x5
 1602 047c 3F060000 		.4byte	.LASF84
 1603 0480 04       		.byte	0x4
 1604 0481 0D       		.byte	0xd
 1605 0482 89       		.byte	0x89
 1606 0483 94040000 		.4byte	0x494
 1607 0487 0F       		.uleb128 0xf
 1608 0488 72313300 		.ascii	"r13\000"
 1609 048c 0D       		.byte	0xd
 1610 048d 8A       		.byte	0x8a
 1611 048e 0F050000 		.4byte	0x50f
 1612 0492 00       		.byte	0
 1613 0493 00       		.byte	0
 1614 0494 05       		.uleb128 0x5
 1615 0495 45000000 		.4byte	.LASF85
 1616 0499 24       		.byte	0x24
 1617 049a 01       		.byte	0x1
 1618 049b FD       		.byte	0xfd
 1619 049c 0F050000 		.4byte	0x50f
 1620 04a0 07       		.uleb128 0x7
 1621 04a1 723400   		.ascii	"r4\000"
 1622 04a4 01       		.byte	0x1
 1623 04a5 1001     		.2byte	0x110
 1624 04a7 65040000 		.4byte	0x465
 1625 04ab 00       		.byte	0
 1626 04ac 07       		.uleb128 0x7
 1627 04ad 723500   		.ascii	"r5\000"
 1628 04b0 01       		.byte	0x1
 1629 04b1 1101     		.2byte	0x111
 1630 04b3 65040000 		.4byte	0x465
 1631 04b7 04       		.byte	0x4
 1632 04b8 07       		.uleb128 0x7
 1633 04b9 723600   		.ascii	"r6\000"
 1634 04bc 01       		.byte	0x1
ARM GAS  /tmp/ccAbmO1f.s 			page 30


 1635 04bd 1201     		.2byte	0x112
 1636 04bf 65040000 		.4byte	0x465
 1637 04c3 08       		.byte	0x8
 1638 04c4 07       		.uleb128 0x7
 1639 04c5 723700   		.ascii	"r7\000"
 1640 04c8 01       		.byte	0x1
 1641 04c9 1301     		.2byte	0x113
 1642 04cb 65040000 		.4byte	0x465
 1643 04cf 0C       		.byte	0xc
 1644 04d0 07       		.uleb128 0x7
 1645 04d1 723800   		.ascii	"r8\000"
 1646 04d4 01       		.byte	0x1
 1647 04d5 1401     		.2byte	0x114
 1648 04d7 65040000 		.4byte	0x465
 1649 04db 10       		.byte	0x10
 1650 04dc 07       		.uleb128 0x7
 1651 04dd 723900   		.ascii	"r9\000"
 1652 04e0 01       		.byte	0x1
 1653 04e1 1501     		.2byte	0x115
 1654 04e3 65040000 		.4byte	0x465
 1655 04e7 14       		.byte	0x14
 1656 04e8 07       		.uleb128 0x7
 1657 04e9 72313000 		.ascii	"r10\000"
 1658 04ed 01       		.byte	0x1
 1659 04ee 1601     		.2byte	0x116
 1660 04f0 65040000 		.4byte	0x465
 1661 04f4 18       		.byte	0x18
 1662 04f5 07       		.uleb128 0x7
 1663 04f6 72313100 		.ascii	"r11\000"
 1664 04fa 01       		.byte	0x1
 1665 04fb 1701     		.2byte	0x117
 1666 04fd 65040000 		.4byte	0x465
 1667 0501 1C       		.byte	0x1c
 1668 0502 07       		.uleb128 0x7
 1669 0503 6C7200   		.ascii	"lr\000"
 1670 0506 01       		.byte	0x1
 1671 0507 1801     		.2byte	0x118
 1672 0509 65040000 		.4byte	0x465
 1673 050d 20       		.byte	0x20
 1674 050e 00       		.byte	0
 1675 050f 09       		.uleb128 0x9
 1676 0510 04       		.byte	0x4
 1677 0511 94040000 		.4byte	0x494
 1678 0515 10       		.uleb128 0x10
 1679 0516 04       		.byte	0x4
 1680 0517 0E       		.byte	0xe
 1681 0518 38       		.byte	0x38
 1682 0519 2A050000 		.4byte	0x52a
 1683 051d 06       		.uleb128 0x6
 1684 051e 38060000 		.4byte	.LASF86
 1685 0522 0E       		.byte	0xe
 1686 0523 3C       		.byte	0x3c
 1687 0524 CE000000 		.4byte	0xce
 1688 0528 00       		.byte	0
 1689 0529 00       		.byte	0
 1690 052a 03       		.uleb128 0x3
 1691 052b 2F040000 		.4byte	.LASF87
ARM GAS  /tmp/ccAbmO1f.s 			page 31


 1692 052f 0E       		.byte	0xe
 1693 0530 3D       		.byte	0x3d
 1694 0531 15050000 		.4byte	0x515
 1695 0535 11       		.uleb128 0x11
 1696 0536 04       		.byte	0x4
 1697 0537 03       		.byte	0x3
 1698 0538 FA       		.byte	0xfa
 1699 0539 92050000 		.4byte	0x592
 1700 053d 12       		.uleb128 0x12
 1701 053e 14000000 		.4byte	.LASF88
 1702 0542 03       		.byte	0x3
 1703 0543 0101     		.2byte	0x101
 1704 0545 10010000 		.4byte	0x110
 1705 0549 12       		.uleb128 0x12
 1706 054a D3000000 		.4byte	.LASF89
 1707 054e 03       		.byte	0x3
 1708 054f 0801     		.2byte	0x108
 1709 0551 10010000 		.4byte	0x110
 1710 0555 12       		.uleb128 0x12
 1711 0556 C3020000 		.4byte	.LASF90
 1712 055a 03       		.byte	0x3
 1713 055b 0F01     		.2byte	0x10f
 1714 055d 28030000 		.4byte	0x328
 1715 0561 12       		.uleb128 0x12
 1716 0562 83010000 		.4byte	.LASF91
 1717 0566 03       		.byte	0x3
 1718 0567 1601     		.2byte	0x116
 1719 0569 92050000 		.4byte	0x592
 1720 056d 12       		.uleb128 0x12
 1721 056e 58020000 		.4byte	.LASF92
 1722 0572 03       		.byte	0x3
 1723 0573 1E01     		.2byte	0x11e
 1724 0575 BD050000 		.4byte	0x5bd
 1725 0579 12       		.uleb128 0x12
 1726 057a 85050000 		.4byte	.LASF93
 1727 057e 03       		.byte	0x3
 1728 057f 2701     		.2byte	0x127
 1729 0581 F4050000 		.4byte	0x5f4
 1730 0585 12       		.uleb128 0x12
 1731 0586 05050000 		.4byte	.LASF94
 1732 058a 03       		.byte	0x3
 1733 058b 2F01     		.2byte	0x12f
 1734 058d 1B010000 		.4byte	0x11b
 1735 0591 00       		.byte	0
 1736 0592 09       		.uleb128 0x9
 1737 0593 04       		.byte	0x4
 1738 0594 40020000 		.4byte	0x240
 1739 0598 05       		.uleb128 0x5
 1740 0599 56050000 		.4byte	.LASF95
 1741 059d 0C       		.byte	0xc
 1742 059e 06       		.byte	0x6
 1743 059f 34       		.byte	0x34
 1744 05a0 BD050000 		.4byte	0x5bd
 1745 05a4 06       		.uleb128 0x6
 1746 05a5 D5010000 		.4byte	.LASF96
 1747 05a9 06       		.byte	0x6
 1748 05aa 35       		.byte	0x35
ARM GAS  /tmp/ccAbmO1f.s 			page 32


 1749 05ab 75020000 		.4byte	0x275
 1750 05af 00       		.byte	0
 1751 05b0 06       		.uleb128 0x6
 1752 05b1 81020000 		.4byte	.LASF97
 1753 05b5 06       		.byte	0x6
 1754 05b6 37       		.byte	0x37
 1755 05b7 26010000 		.4byte	0x126
 1756 05bb 08       		.byte	0x8
 1757 05bc 00       		.byte	0
 1758 05bd 09       		.uleb128 0x9
 1759 05be 04       		.byte	0x4
 1760 05bf 98050000 		.4byte	0x598
 1761 05c3 05       		.uleb128 0x5
 1762 05c4 79060000 		.4byte	.LASF98
 1763 05c8 10       		.byte	0x10
 1764 05c9 0F       		.byte	0xf
 1765 05ca 39       		.byte	0x39
 1766 05cb F4050000 		.4byte	0x5f4
 1767 05cf 06       		.uleb128 0x6
 1768 05d0 5E010000 		.4byte	.LASF99
 1769 05d4 0F       		.byte	0xf
 1770 05d5 3A       		.byte	0x3a
 1771 05d6 75020000 		.4byte	0x275
 1772 05da 00       		.byte	0
 1773 05db 06       		.uleb128 0x6
 1774 05dc EA060000 		.4byte	.LASF100
 1775 05e0 0F       		.byte	0xf
 1776 05e1 3C       		.byte	0x3c
 1777 05e2 4B020000 		.4byte	0x24b
 1778 05e6 08       		.byte	0x8
 1779 05e7 06       		.uleb128 0x6
 1780 05e8 40040000 		.4byte	.LASF101
 1781 05ec 0F       		.byte	0xf
 1782 05ed 3E       		.byte	0x3e
 1783 05ee 42060000 		.4byte	0x642
 1784 05f2 0C       		.byte	0xc
 1785 05f3 00       		.byte	0
 1786 05f4 09       		.uleb128 0x9
 1787 05f5 04       		.byte	0x4
 1788 05f6 C3050000 		.4byte	0x5c3
 1789 05fa 09       		.uleb128 0x9
 1790 05fb 04       		.byte	0x4
 1791 05fc 00060000 		.4byte	0x600
 1792 0600 13       		.uleb128 0x13
 1793 0601 05060000 		.4byte	0x605
 1794 0605 04       		.uleb128 0x4
 1795 0606 01       		.byte	0x1
 1796 0607 08       		.byte	0x8
 1797 0608 C2050000 		.4byte	.LASF102
 1798 060c 09       		.uleb128 0x9
 1799 060d 04       		.byte	0x4
 1800 060e 2A030000 		.4byte	0x32a
 1801 0612 14       		.uleb128 0x14
 1802 0613 31010000 		.4byte	0x131
 1803 0617 14       		.uleb128 0x14
 1804 0618 FA050000 		.4byte	0x5fa
 1805 061c 15       		.uleb128 0x15
ARM GAS  /tmp/ccAbmO1f.s 			page 33


 1806 061d 70040000 		.4byte	0x470
 1807 0621 2C060000 		.4byte	0x62c
 1808 0625 16       		.uleb128 0x16
 1809 0626 5E040000 		.4byte	0x45e
 1810 062a 1A       		.byte	0x1a
 1811 062b 00       		.byte	0
 1812 062c 03       		.uleb128 0x3
 1813 062d 39050000 		.4byte	.LASF103
 1814 0631 06       		.byte	0x6
 1815 0632 38       		.byte	0x38
 1816 0633 98050000 		.4byte	0x598
 1817 0637 03       		.uleb128 0x3
 1818 0638 19020000 		.4byte	.LASF104
 1819 063c 0F       		.byte	0xf
 1820 063d 34       		.byte	0x34
 1821 063e C3050000 		.4byte	0x5c3
 1822 0642 09       		.uleb128 0x9
 1823 0643 04       		.byte	0x4
 1824 0644 37060000 		.4byte	0x637
 1825 0648 17       		.uleb128 0x17
 1826 0649 20060000 		.4byte	.LASF135
 1827 064d 02       		.byte	0x2
 1828 064e 2202     		.2byte	0x222
 1829 0650 03       		.byte	0x3
 1830 0651 62060000 		.4byte	0x662
 1831 0655 18       		.uleb128 0x18
 1832 0656 21020000 		.4byte	.LASF136
 1833 065a 02       		.byte	0x2
 1834 065b 2202     		.2byte	0x222
 1835 065d B8000000 		.4byte	0xb8
 1836 0661 00       		.byte	0
 1837 0662 19       		.uleb128 0x19
 1838 0663 6B000000 		.4byte	.LASF105
 1839 0667 01       		.byte	0x1
 1840 0668 C801     		.2byte	0x1c8
 1841 066a 00000000 		.4byte	.LFB127
 1842 066e 10000000 		.4byte	.LFE127-.LFB127
 1843 0672 01       		.uleb128 0x1
 1844 0673 9C       		.byte	0x9c
 1845 0674 92060000 		.4byte	0x692
 1846 0678 1A       		.uleb128 0x1a
 1847 0679 48060000 		.4byte	0x648
 1848 067d 06000000 		.4byte	.LBB6
 1849 0681 06000000 		.4byte	.LBE6-.LBB6
 1850 0685 01       		.byte	0x1
 1851 0686 D001     		.2byte	0x1d0
 1852 0688 1B       		.uleb128 0x1b
 1853 0689 55060000 		.4byte	0x655
 1854 068d 02       		.uleb128 0x2
 1855 068e 91       		.byte	0x91
 1856 068f 7C       		.sleb128 -4
 1857 0690 00       		.byte	0
 1858 0691 00       		.byte	0
 1859 0692 19       		.uleb128 0x19
 1860 0693 6D010000 		.4byte	.LASF106
 1861 0697 01       		.byte	0x1
 1862 0698 E001     		.2byte	0x1e0
ARM GAS  /tmp/ccAbmO1f.s 			page 34


 1863 069a 10000000 		.4byte	.LFB128
 1864 069e 10000000 		.4byte	.LFE128-.LFB128
 1865 06a2 01       		.uleb128 0x1
 1866 06a3 9C       		.byte	0x9c
 1867 06a4 C2060000 		.4byte	0x6c2
 1868 06a8 1A       		.uleb128 0x1a
 1869 06a9 48060000 		.4byte	0x648
 1870 06ad 16000000 		.4byte	.LBB8
 1871 06b1 06000000 		.4byte	.LBE8-.LBB8
 1872 06b5 01       		.byte	0x1
 1873 06b6 E301     		.2byte	0x1e3
 1874 06b8 1B       		.uleb128 0x1b
 1875 06b9 55060000 		.4byte	0x655
 1876 06bd 02       		.uleb128 0x2
 1877 06be 91       		.byte	0x91
 1878 06bf 7C       		.sleb128 -4
 1879 06c0 00       		.byte	0
 1880 06c1 00       		.byte	0
 1881 06c2 1C       		.uleb128 0x1c
 1882 06c3 4F060000 		.4byte	.LASF107
 1883 06c7 01       		.byte	0x1
 1884 06c8 EF01     		.2byte	0x1ef
 1885 06ca 20000000 		.4byte	.LFB129
 1886 06ce 08000000 		.4byte	.LFE129-.LFB129
 1887 06d2 01       		.uleb128 0x1
 1888 06d3 9C       		.byte	0x9c
 1889 06d4 1C       		.uleb128 0x1c
 1890 06d5 C7050000 		.4byte	.LASF108
 1891 06d9 01       		.byte	0x1
 1892 06da FA01     		.2byte	0x1fa
 1893 06dc 30000000 		.4byte	.LFB130
 1894 06e0 08000000 		.4byte	.LFE130-.LFB130
 1895 06e4 01       		.uleb128 0x1
 1896 06e5 9C       		.byte	0x9c
 1897 06e6 19       		.uleb128 0x19
 1898 06e7 60000000 		.4byte	.LASF109
 1899 06eb 03       		.byte	0x3
 1900 06ec 5A02     		.2byte	0x25a
 1901 06ee 40000000 		.4byte	.LFB139
 1902 06f2 14000000 		.4byte	.LFE139-.LFB139
 1903 06f6 01       		.uleb128 0x1
 1904 06f7 9C       		.byte	0x9c
 1905 06f8 0C070000 		.4byte	0x70c
 1906 06fc 1D       		.uleb128 0x1d
 1907 06fd 74717000 		.ascii	"tqp\000"
 1908 0701 03       		.byte	0x3
 1909 0702 5A02     		.2byte	0x25a
 1910 0704 0C070000 		.4byte	0x70c
 1911 0708 02       		.uleb128 0x2
 1912 0709 91       		.byte	0x91
 1913 070a 7C       		.sleb128 -4
 1914 070b 00       		.byte	0
 1915 070c 09       		.uleb128 0x9
 1916 070d 04       		.byte	0x4
 1917 070e 75020000 		.4byte	0x275
 1918 0712 1E       		.uleb128 0x1e
 1919 0713 E5050000 		.4byte	.LASF110
ARM GAS  /tmp/ccAbmO1f.s 			page 35


 1920 0717 03       		.byte	0x3
 1921 0718 9F02     		.2byte	0x29f
 1922 071a 4B020000 		.4byte	0x24b
 1923 071e 60000000 		.4byte	.LFB146
 1924 0722 22000000 		.4byte	.LFE146-.LFB146
 1925 0726 01       		.uleb128 0x1
 1926 0727 9C       		.byte	0x9c
 1927 0728 4A070000 		.4byte	0x74a
 1928 072c 1D       		.uleb128 0x1d
 1929 072d 74717000 		.ascii	"tqp\000"
 1930 0731 03       		.byte	0x3
 1931 0732 9F02     		.2byte	0x29f
 1932 0734 0C070000 		.4byte	0x70c
 1933 0738 02       		.uleb128 0x2
 1934 0739 91       		.byte	0x91
 1935 073a 74       		.sleb128 -12
 1936 073b 1F       		.uleb128 0x1f
 1937 073c 747000   		.ascii	"tp\000"
 1938 073f 03       		.byte	0x3
 1939 0740 A002     		.2byte	0x2a0
 1940 0742 4B020000 		.4byte	0x24b
 1941 0746 02       		.uleb128 0x2
 1942 0747 91       		.byte	0x91
 1943 0748 7C       		.sleb128 -4
 1944 0749 00       		.byte	0
 1945 074a 1E       		.uleb128 0x1e
 1946 074b 9C010000 		.4byte	.LASF111
 1947 074f 03       		.byte	0x3
 1948 0750 B102     		.2byte	0x2b1
 1949 0752 4B020000 		.4byte	0x24b
 1950 0756 90000000 		.4byte	.LFB148
 1951 075a 20000000 		.4byte	.LFE148-.LFB148
 1952 075e 01       		.uleb128 0x1
 1953 075f 9C       		.byte	0x9c
 1954 0760 73070000 		.4byte	0x773
 1955 0764 1D       		.uleb128 0x1d
 1956 0765 747000   		.ascii	"tp\000"
 1957 0768 03       		.byte	0x3
 1958 0769 B102     		.2byte	0x2b1
 1959 076b 4B020000 		.4byte	0x24b
 1960 076f 02       		.uleb128 0x2
 1961 0770 91       		.byte	0x91
 1962 0771 7C       		.sleb128 -4
 1963 0772 00       		.byte	0
 1964 0773 20       		.uleb128 0x20
 1965 0774 CF060000 		.4byte	.LASF137
 1966 0778 03       		.byte	0x3
 1967 0779 C502     		.2byte	0x2c5
 1968 077b 89070000 		.4byte	0x789
 1969 077f B0000000 		.4byte	.LFB149
 1970 0783 20000000 		.4byte	.LFE149-.LFB149
 1971 0787 01       		.uleb128 0x1
 1972 0788 9C       		.byte	0x9c
 1973 0789 04       		.uleb128 0x4
 1974 078a 01       		.byte	0x1
 1975 078b 02       		.byte	0x2
 1976 078c B3040000 		.4byte	.LASF112
ARM GAS  /tmp/ccAbmO1f.s 			page 36


 1977 0790 1C       		.uleb128 0x1c
 1978 0791 97060000 		.4byte	.LASF113
 1979 0795 04       		.byte	0x4
 1980 0796 8201     		.2byte	0x182
 1981 0798 D0000000 		.4byte	.LFB158
 1982 079c 08000000 		.4byte	.LFE158-.LFB158
 1983 07a0 01       		.uleb128 0x1
 1984 07a1 9C       		.byte	0x9c
 1985 07a2 1C       		.uleb128 0x1c
 1986 07a3 90040000 		.4byte	.LASF114
 1987 07a7 04       		.byte	0x4
 1988 07a8 9601     		.2byte	0x196
 1989 07aa E0000000 		.4byte	.LFB159
 1990 07ae 08000000 		.4byte	.LFE159-.LFB159
 1991 07b2 01       		.uleb128 0x1
 1992 07b3 9C       		.byte	0x9c
 1993 07b4 1E       		.uleb128 0x1e
 1994 07b5 2C050000 		.4byte	.LASF115
 1995 07b9 05       		.byte	0x5
 1996 07ba 7501     		.2byte	0x175
 1997 07bc 89070000 		.4byte	0x789
 1998 07c0 F0000000 		.4byte	.LFB171
 1999 07c4 18000000 		.4byte	.LFE171-.LFB171
 2000 07c8 01       		.uleb128 0x1
 2001 07c9 9C       		.byte	0x9c
 2002 07ca DE070000 		.4byte	0x7de
 2003 07ce 1D       		.uleb128 0x1d
 2004 07cf 76747000 		.ascii	"vtp\000"
 2005 07d3 05       		.byte	0x5
 2006 07d4 7501     		.2byte	0x175
 2007 07d6 0C060000 		.4byte	0x60c
 2008 07da 02       		.uleb128 0x2
 2009 07db 91       		.byte	0x91
 2010 07dc 7C       		.sleb128 -4
 2011 07dd 00       		.byte	0
 2012 07de 21       		.uleb128 0x21
 2013 07df F4040000 		.4byte	.LASF116
 2014 07e3 06       		.byte	0x6
 2015 07e4 86       		.byte	0x86
 2016 07e5 10010000 		.4byte	.LFB191
 2017 07e9 12000000 		.4byte	.LFE191-.LFB191
 2018 07ed 01       		.uleb128 0x1
 2019 07ee 9C       		.byte	0x9c
 2020 07ef 01080000 		.4byte	0x801
 2021 07f3 22       		.uleb128 0x22
 2022 07f4 737000   		.ascii	"sp\000"
 2023 07f7 06       		.byte	0x6
 2024 07f8 86       		.byte	0x86
 2025 07f9 01080000 		.4byte	0x801
 2026 07fd 02       		.uleb128 0x2
 2027 07fe 91       		.byte	0x91
 2028 07ff 7C       		.sleb128 -4
 2029 0800 00       		.byte	0
 2030 0801 09       		.uleb128 0x9
 2031 0802 04       		.byte	0x4
 2032 0803 2C060000 		.4byte	0x62c
 2033 0807 23       		.uleb128 0x23
ARM GAS  /tmp/ccAbmO1f.s 			page 37


 2034 0808 2C010000 		.4byte	.LASF125
 2035 080c 07       		.byte	0x7
 2036 080d 41       		.byte	0x41
 2037 080e 30010000 		.4byte	.LFB230
 2038 0812 20000000 		.4byte	.LFE230-.LFB230
 2039 0816 01       		.uleb128 0x1
 2040 0817 9C       		.byte	0x9c
 2041 0818 24       		.uleb128 0x24
 2042 0819 94050000 		.4byte	.LASF119
 2043 081d 07       		.byte	0x7
 2044 081e DA       		.byte	0xda
 2045 081f 4B020000 		.4byte	0x24b
 2046 0823 50010000 		.4byte	.LFB231
 2047 0827 48000000 		.4byte	.LFE231-.LFB231
 2048 082b 01       		.uleb128 0x1
 2049 082c 9C       		.byte	0x9c
 2050 082d 55080000 		.4byte	0x855
 2051 0831 22       		.uleb128 0x22
 2052 0832 747000   		.ascii	"tp\000"
 2053 0835 07       		.byte	0x7
 2054 0836 DA       		.byte	0xda
 2055 0837 4B020000 		.4byte	0x24b
 2056 083b 02       		.uleb128 0x2
 2057 083c 91       		.byte	0x91
 2058 083d 74       		.sleb128 -12
 2059 083e 25       		.uleb128 0x25
 2060 083f 637000   		.ascii	"cp\000"
 2061 0842 07       		.byte	0x7
 2062 0843 DB       		.byte	0xdb
 2063 0844 4B020000 		.4byte	0x24b
 2064 0848 02       		.uleb128 0x2
 2065 0849 91       		.byte	0x91
 2066 084a 7C       		.sleb128 -4
 2067 084b 26       		.uleb128 0x26
 2068 084c 23050000 		.4byte	.LASF124
 2069 0850 65080000 		.4byte	0x865
 2070 0854 00       		.byte	0
 2071 0855 15       		.uleb128 0x15
 2072 0856 05060000 		.4byte	0x605
 2073 085a 65080000 		.4byte	0x865
 2074 085e 16       		.uleb128 0x16
 2075 085f 5E040000 		.4byte	0x45e
 2076 0863 0B       		.byte	0xb
 2077 0864 00       		.byte	0
 2078 0865 13       		.uleb128 0x13
 2079 0866 55080000 		.4byte	0x855
 2080 086a 27       		.uleb128 0x27
 2081 086b 63050000 		.4byte	.LASF122
 2082 086f 07       		.byte	0x7
 2083 0870 FA       		.byte	0xfa
 2084 0871 A0010000 		.4byte	.LFB232
 2085 0875 48000000 		.4byte	.LFE232-.LFB232
 2086 0879 01       		.uleb128 0x1
 2087 087a 9C       		.byte	0x9c
 2088 087b 9C080000 		.4byte	0x89c
 2089 087f 28       		.uleb128 0x28
 2090 0880 CF040000 		.4byte	.LASF117
ARM GAS  /tmp/ccAbmO1f.s 			page 38


 2091 0884 07       		.byte	0x7
 2092 0885 FA       		.byte	0xfa
 2093 0886 E4000000 		.4byte	0xe4
 2094 088a 02       		.uleb128 0x2
 2095 088b 91       		.byte	0x91
 2096 088c 6F       		.sleb128 -17
 2097 088d 25       		.uleb128 0x25
 2098 088e 6F747000 		.ascii	"otp\000"
 2099 0892 07       		.byte	0x7
 2100 0893 FB       		.byte	0xfb
 2101 0894 4B020000 		.4byte	0x24b
 2102 0898 02       		.uleb128 0x2
 2103 0899 91       		.byte	0x91
 2104 089a 74       		.sleb128 -12
 2105 089b 00       		.byte	0
 2106 089c 29       		.uleb128 0x29
 2107 089d 49020000 		.4byte	.LASF118
 2108 08a1 07       		.byte	0x7
 2109 08a2 1301     		.2byte	0x113
 2110 08a4 F0010000 		.4byte	.LFB233
 2111 08a8 78000000 		.4byte	.LFE233-.LFB233
 2112 08ac 01       		.uleb128 0x1
 2113 08ad 9C       		.byte	0x9c
 2114 08ae CE080000 		.4byte	0x8ce
 2115 08b2 1D       		.uleb128 0x1d
 2116 08b3 7000     		.ascii	"p\000"
 2117 08b5 07       		.byte	0x7
 2118 08b6 1301     		.2byte	0x113
 2119 08b8 28030000 		.4byte	0x328
 2120 08bc 02       		.uleb128 0x2
 2121 08bd 91       		.byte	0x91
 2122 08be 6C       		.sleb128 -20
 2123 08bf 1F       		.uleb128 0x1f
 2124 08c0 747000   		.ascii	"tp\000"
 2125 08c3 07       		.byte	0x7
 2126 08c4 1401     		.2byte	0x114
 2127 08c6 4B020000 		.4byte	0x24b
 2128 08ca 02       		.uleb128 0x2
 2129 08cb 91       		.byte	0x91
 2130 08cc 74       		.sleb128 -12
 2131 08cd 00       		.byte	0
 2132 08ce 2A       		.uleb128 0x2a
 2133 08cf BA060000 		.4byte	.LASF120
 2134 08d3 07       		.byte	0x7
 2135 08d4 4A01     		.2byte	0x14a
 2136 08d6 10010000 		.4byte	0x110
 2137 08da 70020000 		.4byte	.LFB234
 2138 08de 68000000 		.4byte	.LFE234-.LFB234
 2139 08e2 01       		.uleb128 0x1
 2140 08e3 9C       		.byte	0x9c
 2141 08e4 1F090000 		.4byte	0x91f
 2142 08e8 2B       		.uleb128 0x2b
 2143 08e9 CF040000 		.4byte	.LASF117
 2144 08ed 07       		.byte	0x7
 2145 08ee 4A01     		.2byte	0x14a
 2146 08f0 E4000000 		.4byte	0xe4
 2147 08f4 02       		.uleb128 0x2
ARM GAS  /tmp/ccAbmO1f.s 			page 39


 2148 08f5 91       		.byte	0x91
 2149 08f6 5F       		.sleb128 -33
 2150 08f7 2B       		.uleb128 0x2b
 2151 08f8 47040000 		.4byte	.LASF121
 2152 08fc 07       		.byte	0x7
 2153 08fd 4A01     		.2byte	0x14a
 2154 08ff 31010000 		.4byte	0x131
 2155 0903 02       		.uleb128 0x2
 2156 0904 91       		.byte	0x91
 2157 0905 58       		.sleb128 -40
 2158 0906 2C       		.uleb128 0x2c
 2159 0907 84020000 		.4byte	.LBB10
 2160 090b 30000000 		.4byte	.LBE10-.LBB10
 2161 090f 1F       		.uleb128 0x1f
 2162 0910 767400   		.ascii	"vt\000"
 2163 0913 07       		.byte	0x7
 2164 0914 4F01     		.2byte	0x14f
 2165 0916 2A030000 		.4byte	0x32a
 2166 091a 02       		.uleb128 0x2
 2167 091b 91       		.byte	0x91
 2168 091c 64       		.sleb128 -28
 2169 091d 00       		.byte	0
 2170 091e 00       		.byte	0
 2171 091f 2D       		.uleb128 0x2d
 2172 0920 A4020000 		.4byte	.LASF123
 2173 0924 07       		.byte	0x7
 2174 0925 6F01     		.2byte	0x16f
 2175 0927 E0020000 		.4byte	.LFB235
 2176 092b 50000000 		.4byte	.LFE235-.LFB235
 2177 092f 01       		.uleb128 0x1
 2178 0930 9C       		.byte	0x9c
 2179 0931 76090000 		.4byte	0x976
 2180 0935 1D       		.uleb128 0x1d
 2181 0936 6E747000 		.ascii	"ntp\000"
 2182 093a 07       		.byte	0x7
 2183 093b 6F01     		.2byte	0x16f
 2184 093d 4B020000 		.4byte	0x24b
 2185 0941 02       		.uleb128 0x2
 2186 0942 91       		.byte	0x91
 2187 0943 6C       		.sleb128 -20
 2188 0944 1D       		.uleb128 0x1d
 2189 0945 6D736700 		.ascii	"msg\000"
 2190 0949 07       		.byte	0x7
 2191 094a 6F01     		.2byte	0x16f
 2192 094c 10010000 		.4byte	0x110
 2193 0950 02       		.uleb128 0x2
 2194 0951 91       		.byte	0x91
 2195 0952 68       		.sleb128 -24
 2196 0953 26       		.uleb128 0x26
 2197 0954 23050000 		.4byte	.LASF124
 2198 0958 86090000 		.4byte	0x986
 2199 095c 2C       		.uleb128 0x2c
 2200 095d 04030000 		.4byte	.LBB11
 2201 0961 20000000 		.4byte	.LBE11-.LBB11
 2202 0965 1F       		.uleb128 0x1f
 2203 0966 6F747000 		.ascii	"otp\000"
 2204 096a 07       		.byte	0x7
ARM GAS  /tmp/ccAbmO1f.s 			page 40


 2205 096b 8301     		.2byte	0x183
 2206 096d 4B020000 		.4byte	0x24b
 2207 0971 02       		.uleb128 0x2
 2208 0972 91       		.byte	0x91
 2209 0973 74       		.sleb128 -12
 2210 0974 00       		.byte	0
 2211 0975 00       		.byte	0
 2212 0976 15       		.uleb128 0x15
 2213 0977 05060000 		.4byte	0x605
 2214 097b 86090000 		.4byte	0x986
 2215 097f 16       		.uleb128 0x16
 2216 0980 5E040000 		.4byte	0x45e
 2217 0984 0C       		.byte	0xc
 2218 0985 00       		.byte	0
 2219 0986 13       		.uleb128 0x13
 2220 0987 76090000 		.4byte	0x976
 2221 098b 2E       		.uleb128 0x2e
 2222 098c DD010000 		.4byte	.LASF126
 2223 0990 07       		.byte	0x7
 2224 0991 9601     		.2byte	0x196
 2225 0993 30030000 		.4byte	.LFB236
 2226 0997 12000000 		.4byte	.LFE236-.LFB236
 2227 099b 01       		.uleb128 0x1
 2228 099c 9C       		.byte	0x9c
 2229 099d 2F       		.uleb128 0x2f
 2230 099e B3010000 		.4byte	.LASF127
 2231 09a2 07       		.byte	0x7
 2232 09a3 AC01     		.2byte	0x1ac
 2233 09a5 89070000 		.4byte	0x789
 2234 09a9 50030000 		.4byte	.LFB237
 2235 09ad 44000000 		.4byte	.LFE237-.LFB237
 2236 09b1 01       		.uleb128 0x1
 2237 09b2 9C       		.byte	0x9c
 2238 09b3 D4090000 		.4byte	0x9d4
 2239 09b7 1F       		.uleb128 0x1f
 2240 09b8 703100   		.ascii	"p1\000"
 2241 09bb 07       		.byte	0x7
 2242 09bc AD01     		.2byte	0x1ad
 2243 09be 05010000 		.4byte	0x105
 2244 09c2 02       		.uleb128 0x2
 2245 09c3 91       		.byte	0x91
 2246 09c4 7C       		.sleb128 -4
 2247 09c5 1F       		.uleb128 0x1f
 2248 09c6 703200   		.ascii	"p2\000"
 2249 09c9 07       		.byte	0x7
 2250 09ca AE01     		.2byte	0x1ae
 2251 09cc 05010000 		.4byte	0x105
 2252 09d0 02       		.uleb128 0x2
 2253 09d1 91       		.byte	0x91
 2254 09d2 78       		.sleb128 -8
 2255 09d3 00       		.byte	0
 2256 09d4 2D       		.uleb128 0x2d
 2257 09d5 09040000 		.4byte	.LASF128
 2258 09d9 07       		.byte	0x7
 2259 09da C701     		.2byte	0x1c7
 2260 09dc A0030000 		.4byte	.LFB238
 2261 09e0 40000000 		.4byte	.LFE238-.LFB238
ARM GAS  /tmp/ccAbmO1f.s 			page 41


 2262 09e4 01       		.uleb128 0x1
 2263 09e5 9C       		.byte	0x9c
 2264 09e6 FA090000 		.4byte	0x9fa
 2265 09ea 1F       		.uleb128 0x1f
 2266 09eb 6F747000 		.ascii	"otp\000"
 2267 09ef 07       		.byte	0x7
 2268 09f0 C801     		.2byte	0x1c8
 2269 09f2 4B020000 		.4byte	0x24b
 2270 09f6 02       		.uleb128 0x2
 2271 09f7 91       		.byte	0x91
 2272 09f8 74       		.sleb128 -12
 2273 09f9 00       		.byte	0
 2274 09fa 2D       		.uleb128 0x2d
 2275 09fb 24000000 		.4byte	.LASF129
 2276 09ff 07       		.byte	0x7
 2277 0a00 E301     		.2byte	0x1e3
 2278 0a02 E0030000 		.4byte	.LFB239
 2279 0a06 6C000000 		.4byte	.LFE239-.LFB239
 2280 0a0a 01       		.uleb128 0x1
 2281 0a0b 9C       		.byte	0x9c
 2282 0a0c 2E0A0000 		.4byte	0xa2e
 2283 0a10 1F       		.uleb128 0x1f
 2284 0a11 6F747000 		.ascii	"otp\000"
 2285 0a15 07       		.byte	0x7
 2286 0a16 E401     		.2byte	0x1e4
 2287 0a18 4B020000 		.4byte	0x24b
 2288 0a1c 02       		.uleb128 0x2
 2289 0a1d 91       		.byte	0x91
 2290 0a1e 70       		.sleb128 -16
 2291 0a1f 1F       		.uleb128 0x1f
 2292 0a20 637000   		.ascii	"cp\000"
 2293 0a23 07       		.byte	0x7
 2294 0a24 E401     		.2byte	0x1e4
 2295 0a26 4B020000 		.4byte	0x24b
 2296 0a2a 02       		.uleb128 0x2
 2297 0a2b 91       		.byte	0x91
 2298 0a2c 74       		.sleb128 -12
 2299 0a2d 00       		.byte	0
 2300 0a2e 2E       		.uleb128 0x2e
 2301 0a2f FF010000 		.4byte	.LASF130
 2302 0a33 07       		.byte	0x7
 2303 0a34 0802     		.2byte	0x208
 2304 0a36 50040000 		.4byte	.LFB240
 2305 0a3a 1C000000 		.4byte	.LFE240-.LFB240
 2306 0a3e 01       		.uleb128 0x1
 2307 0a3f 9C       		.byte	0x9c
 2308 0a40 30       		.uleb128 0x30
 2309 0a41 07010000 		.4byte	.LASF131
 2310 0a45 10       		.byte	0x10
 2311 0a46 FA06     		.2byte	0x6fa
 2312 0a48 4C0A0000 		.4byte	0xa4c
 2313 0a4c 14       		.uleb128 0x14
 2314 0a4d AD000000 		.4byte	0xad
 2315 0a51 31       		.uleb128 0x31
 2316 0a52 636800   		.ascii	"ch\000"
 2317 0a55 07       		.byte	0x7
 2318 0a56 2A       		.byte	0x2a
ARM GAS  /tmp/ccAbmO1f.s 			page 42


 2319 0a57 F7030000 		.4byte	0x3f7
 2320 0a5b 05       		.uleb128 0x5
 2321 0a5c 03       		.byte	0x3
 2322 0a5d 00000000 		.4byte	ch
 2323 0a61 00       		.byte	0
 2324              		.section	.debug_abbrev,"",%progbits
 2325              	.Ldebug_abbrev0:
 2326 0000 01       		.uleb128 0x1
 2327 0001 11       		.uleb128 0x11
 2328 0002 01       		.byte	0x1
 2329 0003 25       		.uleb128 0x25
 2330 0004 0E       		.uleb128 0xe
 2331 0005 13       		.uleb128 0x13
 2332 0006 0B       		.uleb128 0xb
 2333 0007 03       		.uleb128 0x3
 2334 0008 0E       		.uleb128 0xe
 2335 0009 1B       		.uleb128 0x1b
 2336 000a 0E       		.uleb128 0xe
 2337 000b 11       		.uleb128 0x11
 2338 000c 01       		.uleb128 0x1
 2339 000d 12       		.uleb128 0x12
 2340 000e 06       		.uleb128 0x6
 2341 000f 10       		.uleb128 0x10
 2342 0010 17       		.uleb128 0x17
 2343 0011 00       		.byte	0
 2344 0012 00       		.byte	0
 2345 0013 02       		.uleb128 0x2
 2346 0014 24       		.uleb128 0x24
 2347 0015 00       		.byte	0
 2348 0016 0B       		.uleb128 0xb
 2349 0017 0B       		.uleb128 0xb
 2350 0018 3E       		.uleb128 0x3e
 2351 0019 0B       		.uleb128 0xb
 2352 001a 03       		.uleb128 0x3
 2353 001b 08       		.uleb128 0x8
 2354 001c 00       		.byte	0
 2355 001d 00       		.byte	0
 2356 001e 03       		.uleb128 0x3
 2357 001f 16       		.uleb128 0x16
 2358 0020 00       		.byte	0
 2359 0021 03       		.uleb128 0x3
 2360 0022 0E       		.uleb128 0xe
 2361 0023 3A       		.uleb128 0x3a
 2362 0024 0B       		.uleb128 0xb
 2363 0025 3B       		.uleb128 0x3b
 2364 0026 0B       		.uleb128 0xb
 2365 0027 49       		.uleb128 0x49
 2366 0028 13       		.uleb128 0x13
 2367 0029 00       		.byte	0
 2368 002a 00       		.byte	0
 2369 002b 04       		.uleb128 0x4
 2370 002c 24       		.uleb128 0x24
 2371 002d 00       		.byte	0
 2372 002e 0B       		.uleb128 0xb
 2373 002f 0B       		.uleb128 0xb
 2374 0030 3E       		.uleb128 0x3e
 2375 0031 0B       		.uleb128 0xb
ARM GAS  /tmp/ccAbmO1f.s 			page 43


 2376 0032 03       		.uleb128 0x3
 2377 0033 0E       		.uleb128 0xe
 2378 0034 00       		.byte	0
 2379 0035 00       		.byte	0
 2380 0036 05       		.uleb128 0x5
 2381 0037 13       		.uleb128 0x13
 2382 0038 01       		.byte	0x1
 2383 0039 03       		.uleb128 0x3
 2384 003a 0E       		.uleb128 0xe
 2385 003b 0B       		.uleb128 0xb
 2386 003c 0B       		.uleb128 0xb
 2387 003d 3A       		.uleb128 0x3a
 2388 003e 0B       		.uleb128 0xb
 2389 003f 3B       		.uleb128 0x3b
 2390 0040 0B       		.uleb128 0xb
 2391 0041 01       		.uleb128 0x1
 2392 0042 13       		.uleb128 0x13
 2393 0043 00       		.byte	0
 2394 0044 00       		.byte	0
 2395 0045 06       		.uleb128 0x6
 2396 0046 0D       		.uleb128 0xd
 2397 0047 00       		.byte	0
 2398 0048 03       		.uleb128 0x3
 2399 0049 0E       		.uleb128 0xe
 2400 004a 3A       		.uleb128 0x3a
 2401 004b 0B       		.uleb128 0xb
 2402 004c 3B       		.uleb128 0x3b
 2403 004d 0B       		.uleb128 0xb
 2404 004e 49       		.uleb128 0x49
 2405 004f 13       		.uleb128 0x13
 2406 0050 38       		.uleb128 0x38
 2407 0051 0B       		.uleb128 0xb
 2408 0052 00       		.byte	0
 2409 0053 00       		.byte	0
 2410 0054 07       		.uleb128 0x7
 2411 0055 0D       		.uleb128 0xd
 2412 0056 00       		.byte	0
 2413 0057 03       		.uleb128 0x3
 2414 0058 08       		.uleb128 0x8
 2415 0059 3A       		.uleb128 0x3a
 2416 005a 0B       		.uleb128 0xb
 2417 005b 3B       		.uleb128 0x3b
 2418 005c 05       		.uleb128 0x5
 2419 005d 49       		.uleb128 0x49
 2420 005e 13       		.uleb128 0x13
 2421 005f 38       		.uleb128 0x38
 2422 0060 0B       		.uleb128 0xb
 2423 0061 00       		.byte	0
 2424 0062 00       		.byte	0
 2425 0063 08       		.uleb128 0x8
 2426 0064 0D       		.uleb128 0xd
 2427 0065 00       		.byte	0
 2428 0066 03       		.uleb128 0x3
 2429 0067 0E       		.uleb128 0xe
 2430 0068 3A       		.uleb128 0x3a
 2431 0069 0B       		.uleb128 0xb
 2432 006a 3B       		.uleb128 0x3b
ARM GAS  /tmp/ccAbmO1f.s 			page 44


 2433 006b 05       		.uleb128 0x5
 2434 006c 49       		.uleb128 0x49
 2435 006d 13       		.uleb128 0x13
 2436 006e 38       		.uleb128 0x38
 2437 006f 0B       		.uleb128 0xb
 2438 0070 00       		.byte	0
 2439 0071 00       		.byte	0
 2440 0072 09       		.uleb128 0x9
 2441 0073 0F       		.uleb128 0xf
 2442 0074 00       		.byte	0
 2443 0075 0B       		.uleb128 0xb
 2444 0076 0B       		.uleb128 0xb
 2445 0077 49       		.uleb128 0x49
 2446 0078 13       		.uleb128 0x13
 2447 0079 00       		.byte	0
 2448 007a 00       		.byte	0
 2449 007b 0A       		.uleb128 0xa
 2450 007c 13       		.uleb128 0x13
 2451 007d 01       		.byte	0x1
 2452 007e 03       		.uleb128 0x3
 2453 007f 0E       		.uleb128 0xe
 2454 0080 0B       		.uleb128 0xb
 2455 0081 0B       		.uleb128 0xb
 2456 0082 3A       		.uleb128 0x3a
 2457 0083 0B       		.uleb128 0xb
 2458 0084 3B       		.uleb128 0x3b
 2459 0085 05       		.uleb128 0x5
 2460 0086 01       		.uleb128 0x1
 2461 0087 13       		.uleb128 0x13
 2462 0088 00       		.byte	0
 2463 0089 00       		.byte	0
 2464 008a 0B       		.uleb128 0xb
 2465 008b 15       		.uleb128 0x15
 2466 008c 01       		.byte	0x1
 2467 008d 27       		.uleb128 0x27
 2468 008e 19       		.uleb128 0x19
 2469 008f 01       		.uleb128 0x1
 2470 0090 13       		.uleb128 0x13
 2471 0091 00       		.byte	0
 2472 0092 00       		.byte	0
 2473 0093 0C       		.uleb128 0xc
 2474 0094 05       		.uleb128 0x5
 2475 0095 00       		.byte	0
 2476 0096 49       		.uleb128 0x49
 2477 0097 13       		.uleb128 0x13
 2478 0098 00       		.byte	0
 2479 0099 00       		.byte	0
 2480 009a 0D       		.uleb128 0xd
 2481 009b 0F       		.uleb128 0xf
 2482 009c 00       		.byte	0
 2483 009d 0B       		.uleb128 0xb
 2484 009e 0B       		.uleb128 0xb
 2485 009f 00       		.byte	0
 2486 00a0 00       		.byte	0
 2487 00a1 0E       		.uleb128 0xe
 2488 00a2 13       		.uleb128 0x13
 2489 00a3 01       		.byte	0x1
ARM GAS  /tmp/ccAbmO1f.s 			page 45


 2490 00a4 03       		.uleb128 0x3
 2491 00a5 0E       		.uleb128 0xe
 2492 00a6 0B       		.uleb128 0xb
 2493 00a7 05       		.uleb128 0x5
 2494 00a8 3A       		.uleb128 0x3a
 2495 00a9 0B       		.uleb128 0xb
 2496 00aa 3B       		.uleb128 0x3b
 2497 00ab 05       		.uleb128 0x5
 2498 00ac 01       		.uleb128 0x1
 2499 00ad 13       		.uleb128 0x13
 2500 00ae 00       		.byte	0
 2501 00af 00       		.byte	0
 2502 00b0 0F       		.uleb128 0xf
 2503 00b1 0D       		.uleb128 0xd
 2504 00b2 00       		.byte	0
 2505 00b3 03       		.uleb128 0x3
 2506 00b4 08       		.uleb128 0x8
 2507 00b5 3A       		.uleb128 0x3a
 2508 00b6 0B       		.uleb128 0xb
 2509 00b7 3B       		.uleb128 0x3b
 2510 00b8 0B       		.uleb128 0xb
 2511 00b9 49       		.uleb128 0x49
 2512 00ba 13       		.uleb128 0x13
 2513 00bb 38       		.uleb128 0x38
 2514 00bc 0B       		.uleb128 0xb
 2515 00bd 00       		.byte	0
 2516 00be 00       		.byte	0
 2517 00bf 10       		.uleb128 0x10
 2518 00c0 13       		.uleb128 0x13
 2519 00c1 01       		.byte	0x1
 2520 00c2 0B       		.uleb128 0xb
 2521 00c3 0B       		.uleb128 0xb
 2522 00c4 3A       		.uleb128 0x3a
 2523 00c5 0B       		.uleb128 0xb
 2524 00c6 3B       		.uleb128 0x3b
 2525 00c7 0B       		.uleb128 0xb
 2526 00c8 01       		.uleb128 0x1
 2527 00c9 13       		.uleb128 0x13
 2528 00ca 00       		.byte	0
 2529 00cb 00       		.byte	0
 2530 00cc 11       		.uleb128 0x11
 2531 00cd 17       		.uleb128 0x17
 2532 00ce 01       		.byte	0x1
 2533 00cf 0B       		.uleb128 0xb
 2534 00d0 0B       		.uleb128 0xb
 2535 00d1 3A       		.uleb128 0x3a
 2536 00d2 0B       		.uleb128 0xb
 2537 00d3 3B       		.uleb128 0x3b
 2538 00d4 0B       		.uleb128 0xb
 2539 00d5 01       		.uleb128 0x1
 2540 00d6 13       		.uleb128 0x13
 2541 00d7 00       		.byte	0
 2542 00d8 00       		.byte	0
 2543 00d9 12       		.uleb128 0x12
 2544 00da 0D       		.uleb128 0xd
 2545 00db 00       		.byte	0
 2546 00dc 03       		.uleb128 0x3
ARM GAS  /tmp/ccAbmO1f.s 			page 46


 2547 00dd 0E       		.uleb128 0xe
 2548 00de 3A       		.uleb128 0x3a
 2549 00df 0B       		.uleb128 0xb
 2550 00e0 3B       		.uleb128 0x3b
 2551 00e1 05       		.uleb128 0x5
 2552 00e2 49       		.uleb128 0x49
 2553 00e3 13       		.uleb128 0x13
 2554 00e4 00       		.byte	0
 2555 00e5 00       		.byte	0
 2556 00e6 13       		.uleb128 0x13
 2557 00e7 26       		.uleb128 0x26
 2558 00e8 00       		.byte	0
 2559 00e9 49       		.uleb128 0x49
 2560 00ea 13       		.uleb128 0x13
 2561 00eb 00       		.byte	0
 2562 00ec 00       		.byte	0
 2563 00ed 14       		.uleb128 0x14
 2564 00ee 35       		.uleb128 0x35
 2565 00ef 00       		.byte	0
 2566 00f0 49       		.uleb128 0x49
 2567 00f1 13       		.uleb128 0x13
 2568 00f2 00       		.byte	0
 2569 00f3 00       		.byte	0
 2570 00f4 15       		.uleb128 0x15
 2571 00f5 01       		.uleb128 0x1
 2572 00f6 01       		.byte	0x1
 2573 00f7 49       		.uleb128 0x49
 2574 00f8 13       		.uleb128 0x13
 2575 00f9 01       		.uleb128 0x1
 2576 00fa 13       		.uleb128 0x13
 2577 00fb 00       		.byte	0
 2578 00fc 00       		.byte	0
 2579 00fd 16       		.uleb128 0x16
 2580 00fe 21       		.uleb128 0x21
 2581 00ff 00       		.byte	0
 2582 0100 49       		.uleb128 0x49
 2583 0101 13       		.uleb128 0x13
 2584 0102 2F       		.uleb128 0x2f
 2585 0103 0B       		.uleb128 0xb
 2586 0104 00       		.byte	0
 2587 0105 00       		.byte	0
 2588 0106 17       		.uleb128 0x17
 2589 0107 2E       		.uleb128 0x2e
 2590 0108 01       		.byte	0x1
 2591 0109 03       		.uleb128 0x3
 2592 010a 0E       		.uleb128 0xe
 2593 010b 3A       		.uleb128 0x3a
 2594 010c 0B       		.uleb128 0xb
 2595 010d 3B       		.uleb128 0x3b
 2596 010e 05       		.uleb128 0x5
 2597 010f 27       		.uleb128 0x27
 2598 0110 19       		.uleb128 0x19
 2599 0111 20       		.uleb128 0x20
 2600 0112 0B       		.uleb128 0xb
 2601 0113 01       		.uleb128 0x1
 2602 0114 13       		.uleb128 0x13
 2603 0115 00       		.byte	0
ARM GAS  /tmp/ccAbmO1f.s 			page 47


 2604 0116 00       		.byte	0
 2605 0117 18       		.uleb128 0x18
 2606 0118 05       		.uleb128 0x5
 2607 0119 00       		.byte	0
 2608 011a 03       		.uleb128 0x3
 2609 011b 0E       		.uleb128 0xe
 2610 011c 3A       		.uleb128 0x3a
 2611 011d 0B       		.uleb128 0xb
 2612 011e 3B       		.uleb128 0x3b
 2613 011f 05       		.uleb128 0x5
 2614 0120 49       		.uleb128 0x49
 2615 0121 13       		.uleb128 0x13
 2616 0122 00       		.byte	0
 2617 0123 00       		.byte	0
 2618 0124 19       		.uleb128 0x19
 2619 0125 2E       		.uleb128 0x2e
 2620 0126 01       		.byte	0x1
 2621 0127 03       		.uleb128 0x3
 2622 0128 0E       		.uleb128 0xe
 2623 0129 3A       		.uleb128 0x3a
 2624 012a 0B       		.uleb128 0xb
 2625 012b 3B       		.uleb128 0x3b
 2626 012c 05       		.uleb128 0x5
 2627 012d 27       		.uleb128 0x27
 2628 012e 19       		.uleb128 0x19
 2629 012f 11       		.uleb128 0x11
 2630 0130 01       		.uleb128 0x1
 2631 0131 12       		.uleb128 0x12
 2632 0132 06       		.uleb128 0x6
 2633 0133 40       		.uleb128 0x40
 2634 0134 18       		.uleb128 0x18
 2635 0135 9742     		.uleb128 0x2117
 2636 0137 19       		.uleb128 0x19
 2637 0138 01       		.uleb128 0x1
 2638 0139 13       		.uleb128 0x13
 2639 013a 00       		.byte	0
 2640 013b 00       		.byte	0
 2641 013c 1A       		.uleb128 0x1a
 2642 013d 1D       		.uleb128 0x1d
 2643 013e 01       		.byte	0x1
 2644 013f 31       		.uleb128 0x31
 2645 0140 13       		.uleb128 0x13
 2646 0141 11       		.uleb128 0x11
 2647 0142 01       		.uleb128 0x1
 2648 0143 12       		.uleb128 0x12
 2649 0144 06       		.uleb128 0x6
 2650 0145 58       		.uleb128 0x58
 2651 0146 0B       		.uleb128 0xb
 2652 0147 59       		.uleb128 0x59
 2653 0148 05       		.uleb128 0x5
 2654 0149 00       		.byte	0
 2655 014a 00       		.byte	0
 2656 014b 1B       		.uleb128 0x1b
 2657 014c 05       		.uleb128 0x5
 2658 014d 00       		.byte	0
 2659 014e 31       		.uleb128 0x31
 2660 014f 13       		.uleb128 0x13
ARM GAS  /tmp/ccAbmO1f.s 			page 48


 2661 0150 02       		.uleb128 0x2
 2662 0151 18       		.uleb128 0x18
 2663 0152 00       		.byte	0
 2664 0153 00       		.byte	0
 2665 0154 1C       		.uleb128 0x1c
 2666 0155 2E       		.uleb128 0x2e
 2667 0156 00       		.byte	0
 2668 0157 03       		.uleb128 0x3
 2669 0158 0E       		.uleb128 0xe
 2670 0159 3A       		.uleb128 0x3a
 2671 015a 0B       		.uleb128 0xb
 2672 015b 3B       		.uleb128 0x3b
 2673 015c 05       		.uleb128 0x5
 2674 015d 27       		.uleb128 0x27
 2675 015e 19       		.uleb128 0x19
 2676 015f 11       		.uleb128 0x11
 2677 0160 01       		.uleb128 0x1
 2678 0161 12       		.uleb128 0x12
 2679 0162 06       		.uleb128 0x6
 2680 0163 40       		.uleb128 0x40
 2681 0164 18       		.uleb128 0x18
 2682 0165 9642     		.uleb128 0x2116
 2683 0167 19       		.uleb128 0x19
 2684 0168 00       		.byte	0
 2685 0169 00       		.byte	0
 2686 016a 1D       		.uleb128 0x1d
 2687 016b 05       		.uleb128 0x5
 2688 016c 00       		.byte	0
 2689 016d 03       		.uleb128 0x3
 2690 016e 08       		.uleb128 0x8
 2691 016f 3A       		.uleb128 0x3a
 2692 0170 0B       		.uleb128 0xb
 2693 0171 3B       		.uleb128 0x3b
 2694 0172 05       		.uleb128 0x5
 2695 0173 49       		.uleb128 0x49
 2696 0174 13       		.uleb128 0x13
 2697 0175 02       		.uleb128 0x2
 2698 0176 18       		.uleb128 0x18
 2699 0177 00       		.byte	0
 2700 0178 00       		.byte	0
 2701 0179 1E       		.uleb128 0x1e
 2702 017a 2E       		.uleb128 0x2e
 2703 017b 01       		.byte	0x1
 2704 017c 03       		.uleb128 0x3
 2705 017d 0E       		.uleb128 0xe
 2706 017e 3A       		.uleb128 0x3a
 2707 017f 0B       		.uleb128 0xb
 2708 0180 3B       		.uleb128 0x3b
 2709 0181 05       		.uleb128 0x5
 2710 0182 27       		.uleb128 0x27
 2711 0183 19       		.uleb128 0x19
 2712 0184 49       		.uleb128 0x49
 2713 0185 13       		.uleb128 0x13
 2714 0186 11       		.uleb128 0x11
 2715 0187 01       		.uleb128 0x1
 2716 0188 12       		.uleb128 0x12
 2717 0189 06       		.uleb128 0x6
ARM GAS  /tmp/ccAbmO1f.s 			page 49


 2718 018a 40       		.uleb128 0x40
 2719 018b 18       		.uleb128 0x18
 2720 018c 9742     		.uleb128 0x2117
 2721 018e 19       		.uleb128 0x19
 2722 018f 01       		.uleb128 0x1
 2723 0190 13       		.uleb128 0x13
 2724 0191 00       		.byte	0
 2725 0192 00       		.byte	0
 2726 0193 1F       		.uleb128 0x1f
 2727 0194 34       		.uleb128 0x34
 2728 0195 00       		.byte	0
 2729 0196 03       		.uleb128 0x3
 2730 0197 08       		.uleb128 0x8
 2731 0198 3A       		.uleb128 0x3a
 2732 0199 0B       		.uleb128 0xb
 2733 019a 3B       		.uleb128 0x3b
 2734 019b 05       		.uleb128 0x5
 2735 019c 49       		.uleb128 0x49
 2736 019d 13       		.uleb128 0x13
 2737 019e 02       		.uleb128 0x2
 2738 019f 18       		.uleb128 0x18
 2739 01a0 00       		.byte	0
 2740 01a1 00       		.byte	0
 2741 01a2 20       		.uleb128 0x20
 2742 01a3 2E       		.uleb128 0x2e
 2743 01a4 00       		.byte	0
 2744 01a5 03       		.uleb128 0x3
 2745 01a6 0E       		.uleb128 0xe
 2746 01a7 3A       		.uleb128 0x3a
 2747 01a8 0B       		.uleb128 0xb
 2748 01a9 3B       		.uleb128 0x3b
 2749 01aa 05       		.uleb128 0x5
 2750 01ab 27       		.uleb128 0x27
 2751 01ac 19       		.uleb128 0x19
 2752 01ad 49       		.uleb128 0x49
 2753 01ae 13       		.uleb128 0x13
 2754 01af 11       		.uleb128 0x11
 2755 01b0 01       		.uleb128 0x1
 2756 01b1 12       		.uleb128 0x12
 2757 01b2 06       		.uleb128 0x6
 2758 01b3 40       		.uleb128 0x40
 2759 01b4 18       		.uleb128 0x18
 2760 01b5 9742     		.uleb128 0x2117
 2761 01b7 19       		.uleb128 0x19
 2762 01b8 00       		.byte	0
 2763 01b9 00       		.byte	0
 2764 01ba 21       		.uleb128 0x21
 2765 01bb 2E       		.uleb128 0x2e
 2766 01bc 01       		.byte	0x1
 2767 01bd 03       		.uleb128 0x3
 2768 01be 0E       		.uleb128 0xe
 2769 01bf 3A       		.uleb128 0x3a
 2770 01c0 0B       		.uleb128 0xb
 2771 01c1 3B       		.uleb128 0x3b
 2772 01c2 0B       		.uleb128 0xb
 2773 01c3 27       		.uleb128 0x27
 2774 01c4 19       		.uleb128 0x19
ARM GAS  /tmp/ccAbmO1f.s 			page 50


 2775 01c5 11       		.uleb128 0x11
 2776 01c6 01       		.uleb128 0x1
 2777 01c7 12       		.uleb128 0x12
 2778 01c8 06       		.uleb128 0x6
 2779 01c9 40       		.uleb128 0x40
 2780 01ca 18       		.uleb128 0x18
 2781 01cb 9742     		.uleb128 0x2117
 2782 01cd 19       		.uleb128 0x19
 2783 01ce 01       		.uleb128 0x1
 2784 01cf 13       		.uleb128 0x13
 2785 01d0 00       		.byte	0
 2786 01d1 00       		.byte	0
 2787 01d2 22       		.uleb128 0x22
 2788 01d3 05       		.uleb128 0x5
 2789 01d4 00       		.byte	0
 2790 01d5 03       		.uleb128 0x3
 2791 01d6 08       		.uleb128 0x8
 2792 01d7 3A       		.uleb128 0x3a
 2793 01d8 0B       		.uleb128 0xb
 2794 01d9 3B       		.uleb128 0x3b
 2795 01da 0B       		.uleb128 0xb
 2796 01db 49       		.uleb128 0x49
 2797 01dc 13       		.uleb128 0x13
 2798 01dd 02       		.uleb128 0x2
 2799 01de 18       		.uleb128 0x18
 2800 01df 00       		.byte	0
 2801 01e0 00       		.byte	0
 2802 01e1 23       		.uleb128 0x23
 2803 01e2 2E       		.uleb128 0x2e
 2804 01e3 00       		.byte	0
 2805 01e4 3F       		.uleb128 0x3f
 2806 01e5 19       		.uleb128 0x19
 2807 01e6 03       		.uleb128 0x3
 2808 01e7 0E       		.uleb128 0xe
 2809 01e8 3A       		.uleb128 0x3a
 2810 01e9 0B       		.uleb128 0xb
 2811 01ea 3B       		.uleb128 0x3b
 2812 01eb 0B       		.uleb128 0xb
 2813 01ec 27       		.uleb128 0x27
 2814 01ed 19       		.uleb128 0x19
 2815 01ee 11       		.uleb128 0x11
 2816 01ef 01       		.uleb128 0x1
 2817 01f0 12       		.uleb128 0x12
 2818 01f1 06       		.uleb128 0x6
 2819 01f2 40       		.uleb128 0x40
 2820 01f3 18       		.uleb128 0x18
 2821 01f4 9642     		.uleb128 0x2116
 2822 01f6 19       		.uleb128 0x19
 2823 01f7 00       		.byte	0
 2824 01f8 00       		.byte	0
 2825 01f9 24       		.uleb128 0x24
 2826 01fa 2E       		.uleb128 0x2e
 2827 01fb 01       		.byte	0x1
 2828 01fc 3F       		.uleb128 0x3f
 2829 01fd 19       		.uleb128 0x19
 2830 01fe 03       		.uleb128 0x3
 2831 01ff 0E       		.uleb128 0xe
ARM GAS  /tmp/ccAbmO1f.s 			page 51


 2832 0200 3A       		.uleb128 0x3a
 2833 0201 0B       		.uleb128 0xb
 2834 0202 3B       		.uleb128 0x3b
 2835 0203 0B       		.uleb128 0xb
 2836 0204 27       		.uleb128 0x27
 2837 0205 19       		.uleb128 0x19
 2838 0206 49       		.uleb128 0x49
 2839 0207 13       		.uleb128 0x13
 2840 0208 11       		.uleb128 0x11
 2841 0209 01       		.uleb128 0x1
 2842 020a 12       		.uleb128 0x12
 2843 020b 06       		.uleb128 0x6
 2844 020c 40       		.uleb128 0x40
 2845 020d 18       		.uleb128 0x18
 2846 020e 9742     		.uleb128 0x2117
 2847 0210 19       		.uleb128 0x19
 2848 0211 01       		.uleb128 0x1
 2849 0212 13       		.uleb128 0x13
 2850 0213 00       		.byte	0
 2851 0214 00       		.byte	0
 2852 0215 25       		.uleb128 0x25
 2853 0216 34       		.uleb128 0x34
 2854 0217 00       		.byte	0
 2855 0218 03       		.uleb128 0x3
 2856 0219 08       		.uleb128 0x8
 2857 021a 3A       		.uleb128 0x3a
 2858 021b 0B       		.uleb128 0xb
 2859 021c 3B       		.uleb128 0x3b
 2860 021d 0B       		.uleb128 0xb
 2861 021e 49       		.uleb128 0x49
 2862 021f 13       		.uleb128 0x13
 2863 0220 02       		.uleb128 0x2
 2864 0221 18       		.uleb128 0x18
 2865 0222 00       		.byte	0
 2866 0223 00       		.byte	0
 2867 0224 26       		.uleb128 0x26
 2868 0225 34       		.uleb128 0x34
 2869 0226 00       		.byte	0
 2870 0227 03       		.uleb128 0x3
 2871 0228 0E       		.uleb128 0xe
 2872 0229 49       		.uleb128 0x49
 2873 022a 13       		.uleb128 0x13
 2874 022b 34       		.uleb128 0x34
 2875 022c 19       		.uleb128 0x19
 2876 022d 00       		.byte	0
 2877 022e 00       		.byte	0
 2878 022f 27       		.uleb128 0x27
 2879 0230 2E       		.uleb128 0x2e
 2880 0231 01       		.byte	0x1
 2881 0232 3F       		.uleb128 0x3f
 2882 0233 19       		.uleb128 0x19
 2883 0234 03       		.uleb128 0x3
 2884 0235 0E       		.uleb128 0xe
 2885 0236 3A       		.uleb128 0x3a
 2886 0237 0B       		.uleb128 0xb
 2887 0238 3B       		.uleb128 0x3b
 2888 0239 0B       		.uleb128 0xb
ARM GAS  /tmp/ccAbmO1f.s 			page 52


 2889 023a 27       		.uleb128 0x27
 2890 023b 19       		.uleb128 0x19
 2891 023c 11       		.uleb128 0x11
 2892 023d 01       		.uleb128 0x1
 2893 023e 12       		.uleb128 0x12
 2894 023f 06       		.uleb128 0x6
 2895 0240 40       		.uleb128 0x40
 2896 0241 18       		.uleb128 0x18
 2897 0242 9642     		.uleb128 0x2116
 2898 0244 19       		.uleb128 0x19
 2899 0245 01       		.uleb128 0x1
 2900 0246 13       		.uleb128 0x13
 2901 0247 00       		.byte	0
 2902 0248 00       		.byte	0
 2903 0249 28       		.uleb128 0x28
 2904 024a 05       		.uleb128 0x5
 2905 024b 00       		.byte	0
 2906 024c 03       		.uleb128 0x3
 2907 024d 0E       		.uleb128 0xe
 2908 024e 3A       		.uleb128 0x3a
 2909 024f 0B       		.uleb128 0xb
 2910 0250 3B       		.uleb128 0x3b
 2911 0251 0B       		.uleb128 0xb
 2912 0252 49       		.uleb128 0x49
 2913 0253 13       		.uleb128 0x13
 2914 0254 02       		.uleb128 0x2
 2915 0255 18       		.uleb128 0x18
 2916 0256 00       		.byte	0
 2917 0257 00       		.byte	0
 2918 0258 29       		.uleb128 0x29
 2919 0259 2E       		.uleb128 0x2e
 2920 025a 01       		.byte	0x1
 2921 025b 03       		.uleb128 0x3
 2922 025c 0E       		.uleb128 0xe
 2923 025d 3A       		.uleb128 0x3a
 2924 025e 0B       		.uleb128 0xb
 2925 025f 3B       		.uleb128 0x3b
 2926 0260 05       		.uleb128 0x5
 2927 0261 27       		.uleb128 0x27
 2928 0262 19       		.uleb128 0x19
 2929 0263 11       		.uleb128 0x11
 2930 0264 01       		.uleb128 0x1
 2931 0265 12       		.uleb128 0x12
 2932 0266 06       		.uleb128 0x6
 2933 0267 40       		.uleb128 0x40
 2934 0268 18       		.uleb128 0x18
 2935 0269 9642     		.uleb128 0x2116
 2936 026b 19       		.uleb128 0x19
 2937 026c 01       		.uleb128 0x1
 2938 026d 13       		.uleb128 0x13
 2939 026e 00       		.byte	0
 2940 026f 00       		.byte	0
 2941 0270 2A       		.uleb128 0x2a
 2942 0271 2E       		.uleb128 0x2e
 2943 0272 01       		.byte	0x1
 2944 0273 3F       		.uleb128 0x3f
 2945 0274 19       		.uleb128 0x19
ARM GAS  /tmp/ccAbmO1f.s 			page 53


 2946 0275 03       		.uleb128 0x3
 2947 0276 0E       		.uleb128 0xe
 2948 0277 3A       		.uleb128 0x3a
 2949 0278 0B       		.uleb128 0xb
 2950 0279 3B       		.uleb128 0x3b
 2951 027a 05       		.uleb128 0x5
 2952 027b 27       		.uleb128 0x27
 2953 027c 19       		.uleb128 0x19
 2954 027d 49       		.uleb128 0x49
 2955 027e 13       		.uleb128 0x13
 2956 027f 11       		.uleb128 0x11
 2957 0280 01       		.uleb128 0x1
 2958 0281 12       		.uleb128 0x12
 2959 0282 06       		.uleb128 0x6
 2960 0283 40       		.uleb128 0x40
 2961 0284 18       		.uleb128 0x18
 2962 0285 9642     		.uleb128 0x2116
 2963 0287 19       		.uleb128 0x19
 2964 0288 01       		.uleb128 0x1
 2965 0289 13       		.uleb128 0x13
 2966 028a 00       		.byte	0
 2967 028b 00       		.byte	0
 2968 028c 2B       		.uleb128 0x2b
 2969 028d 05       		.uleb128 0x5
 2970 028e 00       		.byte	0
 2971 028f 03       		.uleb128 0x3
 2972 0290 0E       		.uleb128 0xe
 2973 0291 3A       		.uleb128 0x3a
 2974 0292 0B       		.uleb128 0xb
 2975 0293 3B       		.uleb128 0x3b
 2976 0294 05       		.uleb128 0x5
 2977 0295 49       		.uleb128 0x49
 2978 0296 13       		.uleb128 0x13
 2979 0297 02       		.uleb128 0x2
 2980 0298 18       		.uleb128 0x18
 2981 0299 00       		.byte	0
 2982 029a 00       		.byte	0
 2983 029b 2C       		.uleb128 0x2c
 2984 029c 0B       		.uleb128 0xb
 2985 029d 01       		.byte	0x1
 2986 029e 11       		.uleb128 0x11
 2987 029f 01       		.uleb128 0x1
 2988 02a0 12       		.uleb128 0x12
 2989 02a1 06       		.uleb128 0x6
 2990 02a2 00       		.byte	0
 2991 02a3 00       		.byte	0
 2992 02a4 2D       		.uleb128 0x2d
 2993 02a5 2E       		.uleb128 0x2e
 2994 02a6 01       		.byte	0x1
 2995 02a7 3F       		.uleb128 0x3f
 2996 02a8 19       		.uleb128 0x19
 2997 02a9 03       		.uleb128 0x3
 2998 02aa 0E       		.uleb128 0xe
 2999 02ab 3A       		.uleb128 0x3a
 3000 02ac 0B       		.uleb128 0xb
 3001 02ad 3B       		.uleb128 0x3b
 3002 02ae 05       		.uleb128 0x5
ARM GAS  /tmp/ccAbmO1f.s 			page 54


 3003 02af 27       		.uleb128 0x27
 3004 02b0 19       		.uleb128 0x19
 3005 02b1 11       		.uleb128 0x11
 3006 02b2 01       		.uleb128 0x1
 3007 02b3 12       		.uleb128 0x12
 3008 02b4 06       		.uleb128 0x6
 3009 02b5 40       		.uleb128 0x40
 3010 02b6 18       		.uleb128 0x18
 3011 02b7 9642     		.uleb128 0x2116
 3012 02b9 19       		.uleb128 0x19
 3013 02ba 01       		.uleb128 0x1
 3014 02bb 13       		.uleb128 0x13
 3015 02bc 00       		.byte	0
 3016 02bd 00       		.byte	0
 3017 02be 2E       		.uleb128 0x2e
 3018 02bf 2E       		.uleb128 0x2e
 3019 02c0 00       		.byte	0
 3020 02c1 3F       		.uleb128 0x3f
 3021 02c2 19       		.uleb128 0x19
 3022 02c3 03       		.uleb128 0x3
 3023 02c4 0E       		.uleb128 0xe
 3024 02c5 3A       		.uleb128 0x3a
 3025 02c6 0B       		.uleb128 0xb
 3026 02c7 3B       		.uleb128 0x3b
 3027 02c8 05       		.uleb128 0x5
 3028 02c9 27       		.uleb128 0x27
 3029 02ca 19       		.uleb128 0x19
 3030 02cb 11       		.uleb128 0x11
 3031 02cc 01       		.uleb128 0x1
 3032 02cd 12       		.uleb128 0x12
 3033 02ce 06       		.uleb128 0x6
 3034 02cf 40       		.uleb128 0x40
 3035 02d0 18       		.uleb128 0x18
 3036 02d1 9642     		.uleb128 0x2116
 3037 02d3 19       		.uleb128 0x19
 3038 02d4 00       		.byte	0
 3039 02d5 00       		.byte	0
 3040 02d6 2F       		.uleb128 0x2f
 3041 02d7 2E       		.uleb128 0x2e
 3042 02d8 01       		.byte	0x1
 3043 02d9 3F       		.uleb128 0x3f
 3044 02da 19       		.uleb128 0x19
 3045 02db 03       		.uleb128 0x3
 3046 02dc 0E       		.uleb128 0xe
 3047 02dd 3A       		.uleb128 0x3a
 3048 02de 0B       		.uleb128 0xb
 3049 02df 3B       		.uleb128 0x3b
 3050 02e0 05       		.uleb128 0x5
 3051 02e1 27       		.uleb128 0x27
 3052 02e2 19       		.uleb128 0x19
 3053 02e3 49       		.uleb128 0x49
 3054 02e4 13       		.uleb128 0x13
 3055 02e5 11       		.uleb128 0x11
 3056 02e6 01       		.uleb128 0x1
 3057 02e7 12       		.uleb128 0x12
 3058 02e8 06       		.uleb128 0x6
 3059 02e9 40       		.uleb128 0x40
ARM GAS  /tmp/ccAbmO1f.s 			page 55


 3060 02ea 18       		.uleb128 0x18
 3061 02eb 9742     		.uleb128 0x2117
 3062 02ed 19       		.uleb128 0x19
 3063 02ee 01       		.uleb128 0x1
 3064 02ef 13       		.uleb128 0x13
 3065 02f0 00       		.byte	0
 3066 02f1 00       		.byte	0
 3067 02f2 30       		.uleb128 0x30
 3068 02f3 34       		.uleb128 0x34
 3069 02f4 00       		.byte	0
 3070 02f5 03       		.uleb128 0x3
 3071 02f6 0E       		.uleb128 0xe
 3072 02f7 3A       		.uleb128 0x3a
 3073 02f8 0B       		.uleb128 0xb
 3074 02f9 3B       		.uleb128 0x3b
 3075 02fa 05       		.uleb128 0x5
 3076 02fb 49       		.uleb128 0x49
 3077 02fc 13       		.uleb128 0x13
 3078 02fd 3F       		.uleb128 0x3f
 3079 02fe 19       		.uleb128 0x19
 3080 02ff 3C       		.uleb128 0x3c
 3081 0300 19       		.uleb128 0x19
 3082 0301 00       		.byte	0
 3083 0302 00       		.byte	0
 3084 0303 31       		.uleb128 0x31
 3085 0304 34       		.uleb128 0x34
 3086 0305 00       		.byte	0
 3087 0306 03       		.uleb128 0x3
 3088 0307 08       		.uleb128 0x8
 3089 0308 3A       		.uleb128 0x3a
 3090 0309 0B       		.uleb128 0xb
 3091 030a 3B       		.uleb128 0x3b
 3092 030b 0B       		.uleb128 0xb
 3093 030c 49       		.uleb128 0x49
 3094 030d 13       		.uleb128 0x13
 3095 030e 3F       		.uleb128 0x3f
 3096 030f 19       		.uleb128 0x19
 3097 0310 02       		.uleb128 0x2
 3098 0311 18       		.uleb128 0x18
 3099 0312 00       		.byte	0
 3100 0313 00       		.byte	0
 3101 0314 00       		.byte	0
 3102              		.section	.debug_aranges,"",%progbits
 3103 0000 1C000000 		.4byte	0x1c
 3104 0004 0200     		.2byte	0x2
 3105 0006 00000000 		.4byte	.Ldebug_info0
 3106 000a 04       		.byte	0x4
 3107 000b 00       		.byte	0
 3108 000c 0000     		.2byte	0
 3109 000e 0000     		.2byte	0
 3110 0010 00000000 		.4byte	.Ltext0
 3111 0014 6C040000 		.4byte	.Letext0-.Ltext0
 3112 0018 00000000 		.4byte	0
 3113 001c 00000000 		.4byte	0
 3114              		.section	.debug_line,"",%progbits
 3115              	.Ldebug_line0:
 3116 0000 E9030000 		.section	.debug_str,"MS",%progbits,1
ARM GAS  /tmp/ccAbmO1f.s 			page 56


 3116      0200DF02 
 3116      00000201 
 3116      FB0E0D00 
 3116      01010101 
 3117              	.LASF53:
 3118 0000 72656164 		.ascii	"ready_list_t\000"
 3118      795F6C69 
 3118      73745F74 
 3118      00
 3119              	.LASF2:
 3120 000d 73697A65 		.ascii	"size_t\000"
 3120      5F7400
 3121              	.LASF88:
 3122 0014 7264796D 		.ascii	"rdymsg\000"
 3122      736700
 3123              	.LASF17:
 3124 001b 75696E74 		.ascii	"uint64_t\000"
 3124      36345F74 
 3124      00
 3125              	.LASF129:
 3126 0024 63685363 		.ascii	"chSchDoRescheduleAhead\000"
 3126      68446F52 
 3126      65736368 
 3126      6564756C 
 3126      65416865 
 3127              	.LASF3:
 3128 003b 5F5F7569 		.ascii	"__uint8_t\000"
 3128      6E74385F 
 3128      7400
 3129              	.LASF85:
 3130 0045 706F7274 		.ascii	"port_intctx\000"
 3130      5F696E74 
 3130      63747800 
 3131              	.LASF72:
 3132 0051 73797374 		.ascii	"system_debug_t\000"
 3132      656D5F64 
 3132      65627567 
 3132      5F7400
 3133              	.LASF109:
 3134 0060 71756575 		.ascii	"queue_init\000"
 3134      655F696E 
 3134      697400
 3135              	.LASF105:
 3136 006b 706F7274 		.ascii	"port_lock\000"
 3136      5F6C6F63 
 3136      6B00
 3137              	.LASF134:
 3138 0075 2F6E6673 		.ascii	"/nfs/nfs7/home/vvedanta/P442/p442-submissions/senso"
 3138      2F6E6673 
 3138      372F686F 
 3138      6D652F76 
 3138      76656461 
 3139 00a8 7274696C 		.ascii	"rtile/final_project\000"
 3139      652F6669 
 3139      6E616C5F 
 3139      70726F6A 
 3139      65637400 
ARM GAS  /tmp/ccAbmO1f.s 			page 57


 3140              	.LASF13:
 3141 00bc 6C6F6E67 		.ascii	"long long unsigned int\000"
 3141      206C6F6E 
 3141      6720756E 
 3141      7369676E 
 3141      65642069 
 3142              	.LASF89:
 3143 00d3 65786974 		.ascii	"exitcode\000"
 3143      636F6465 
 3143      00
 3144              	.LASF79:
 3145 00dc 6D61696E 		.ascii	"mainthread\000"
 3145      74687265 
 3145      616400
 3146              	.LASF7:
 3147 00e7 5F5F696E 		.ascii	"__int32_t\000"
 3147      7433325F 
 3147      7400
 3148              	.LASF69:
 3149 00f1 76697274 		.ascii	"virtual_timers_list_t\000"
 3149      75616C5F 
 3149      74696D65 
 3149      72735F6C 
 3149      6973745F 
 3150              	.LASF131:
 3151 0107 49544D5F 		.ascii	"ITM_RxBuffer\000"
 3151      52784275 
 3151      66666572 
 3151      00
 3152              	.LASF52:
 3153 0114 63685F74 		.ascii	"ch_threads_queue\000"
 3153      68726561 
 3153      64735F71 
 3153      75657565 
 3153      00
 3154              	.LASF31:
 3155 0125 705F7072 		.ascii	"p_prio\000"
 3155      696F00
 3156              	.LASF125:
 3157 012c 5F736368 		.ascii	"_scheduler_init\000"
 3157      6564756C 
 3157      65725F69 
 3157      6E697400 
 3158              	.LASF11:
 3159 013c 6C6F6E67 		.ascii	"long long int\000"
 3159      206C6F6E 
 3159      6720696E 
 3159      7400
 3160              	.LASF1:
 3161 014a 7369676E 		.ascii	"signed char\000"
 3161      65642063 
 3161      68617200 
 3162              	.LASF46:
 3163 0156 705F6D70 		.ascii	"p_mpool\000"
 3163      6F6F6C00 
 3164              	.LASF99:
 3165 015e 6D5F7175 		.ascii	"m_queue\000"
ARM GAS  /tmp/ccAbmO1f.s 			page 58


 3165      65756500 
 3166              	.LASF78:
 3167 0166 76746C69 		.ascii	"vtlist\000"
 3167      737400
 3168              	.LASF106:
 3169 016d 706F7274 		.ascii	"port_unlock\000"
 3169      5F756E6C 
 3169      6F636B00 
 3170              	.LASF22:
 3171 0179 74736C69 		.ascii	"tslices_t\000"
 3171      6365735F 
 3171      7400
 3172              	.LASF91:
 3173 0183 77747472 		.ascii	"wttrp\000"
 3173      7000
 3174              	.LASF76:
 3175 0189 63685F73 		.ascii	"ch_system\000"
 3175      79737465 
 3175      6D00
 3176              	.LASF8:
 3177 0193 6C6F6E67 		.ascii	"long int\000"
 3177      20696E74 
 3177      00
 3178              	.LASF111:
 3179 019c 71756575 		.ascii	"queue_dequeue\000"
 3179      655F6465 
 3179      71756575 
 3179      6500
 3180              	.LASF20:
 3181 01aa 74737461 		.ascii	"tstate_t\000"
 3181      74655F74 
 3181      00
 3182              	.LASF127:
 3183 01b3 63685363 		.ascii	"chSchIsPreemptionRequired\000"
 3183      68497350 
 3183      7265656D 
 3183      7074696F 
 3183      6E526571 
 3184              	.LASF33:
 3185 01cd 705F6E65 		.ascii	"p_newer\000"
 3185      77657200 
 3186              	.LASF96:
 3187 01d5 735F7175 		.ascii	"s_queue\000"
 3187      65756500 
 3188              	.LASF126:
 3189 01dd 63685363 		.ascii	"chSchRescheduleS\000"
 3189      68526573 
 3189      63686564 
 3189      756C6553 
 3189      00
 3190              	.LASF58:
 3191 01ee 725F6E65 		.ascii	"r_newer\000"
 3191      77657200 
 3192              	.LASF82:
 3193 01f6 72656761 		.ascii	"regarm_t\000"
 3193      726D5F74 
 3193      00
ARM GAS  /tmp/ccAbmO1f.s 			page 59


 3194              	.LASF130:
 3195 01ff 63685363 		.ascii	"chSchDoReschedule\000"
 3195      68446F52 
 3195      65736368 
 3195      6564756C 
 3195      6500
 3196              	.LASF65:
 3197 0211 76745F70 		.ascii	"vt_prev\000"
 3197      72657600 
 3198              	.LASF104:
 3199 0219 6D757465 		.ascii	"mutex_t\000"
 3199      785F7400 
 3200              	.LASF136:
 3201 0221 76616C75 		.ascii	"value\000"
 3201      6500
 3202              	.LASF80:
 3203 0227 69646C65 		.ascii	"idle_thread_wa\000"
 3203      5F746872 
 3203      6561645F 
 3203      776100
 3204              	.LASF26:
 3205 0236 636E745F 		.ascii	"cnt_t\000"
 3205      7400
 3206              	.LASF0:
 3207 023c 756E7369 		.ascii	"unsigned int\000"
 3207      676E6564 
 3207      20696E74 
 3207      00
 3208              	.LASF118:
 3209 0249 77616B65 		.ascii	"wakeup\000"
 3209      757000
 3210              	.LASF64:
 3211 0250 76745F6E 		.ascii	"vt_next\000"
 3211      65787400 
 3212              	.LASF92:
 3213 0258 77747365 		.ascii	"wtsemp\000"
 3213      6D7000
 3214              	.LASF66:
 3215 025f 76745F64 		.ascii	"vt_delta\000"
 3215      656C7461 
 3215      00
 3216              	.LASF41:
 3217 0268 705F6D73 		.ascii	"p_msgqueue\000"
 3217      67717565 
 3217      756500
 3218              	.LASF54:
 3219 0273 63685F72 		.ascii	"ch_ready_list\000"
 3219      65616479 
 3219      5F6C6973 
 3219      7400
 3220              	.LASF97:
 3221 0281 735F636E 		.ascii	"s_cnt\000"
 3221      7400
 3222              	.LASF6:
 3223 0287 73686F72 		.ascii	"short unsigned int\000"
 3223      7420756E 
 3223      7369676E 
ARM GAS  /tmp/ccAbmO1f.s 			page 60


 3223      65642069 
 3223      6E7400
 3224              	.LASF49:
 3225 029a 63685F74 		.ascii	"ch_thread\000"
 3225      68726561 
 3225      6400
 3226              	.LASF123:
 3227 02a4 63685363 		.ascii	"chSchWakeupS\000"
 3227      6857616B 
 3227      65757053 
 3227      00
 3228              	.LASF24:
 3229 02b1 6D73675F 		.ascii	"msg_t\000"
 3229      7400
 3230              	.LASF75:
 3231 02b7 63685F73 		.ascii	"ch_system_t\000"
 3231      79737465 
 3231      6D5F7400 
 3232              	.LASF90:
 3233 02c3 77746F62 		.ascii	"wtobjp\000"
 3233      6A7000
 3234              	.LASF132:
 3235 02ca 474E5520 		.ascii	"GNU C 4.8.4 20140526 (release) [ARM/embedded-4_8-br"
 3235      4320342E 
 3235      382E3420 
 3235      32303134 
 3235      30353236 
 3236 02fd 616E6368 		.ascii	"anch revision 211358] -mcpu=cortex-m4 -mno-thumb-in"
 3236      20726576 
 3236      6973696F 
 3236      6E203231 
 3236      31333538 
 3237 0330 74657277 		.ascii	"terwork -mthumb -ggdb -O0 -fomit-frame-pointer -fal"
 3237      6F726B20 
 3237      2D6D7468 
 3237      756D6220 
 3237      2D676764 
 3238 0363 69676E2D 		.ascii	"ign-functions=16\000"
 3238      66756E63 
 3238      74696F6E 
 3238      733D3136 
 3238      00
 3239              	.LASF133:
 3240 0374 2E2E2F2E 		.ascii	"../../ChibiOS/os/rt/src/chschd.c\000"
 3240      2E2F4368 
 3240      6962694F 
 3240      532F6F73 
 3240      2F72742F 
 3241              	.LASF44:
 3242 0395 705F6D74 		.ascii	"p_mtxlist\000"
 3242      786C6973 
 3242      7400
 3243              	.LASF25:
 3244 039f 6576656E 		.ascii	"eventmask_t\000"
 3244      746D6173 
 3244      6B5F7400 
 3245              	.LASF83:
ARM GAS  /tmp/ccAbmO1f.s 			page 61


 3246 03ab 73746B61 		.ascii	"stkalign_t\000"
 3246      6C69676E 
 3246      5F7400
 3247              	.LASF48:
 3248 03b6 74687265 		.ascii	"threads_list_t\000"
 3248      6164735F 
 3248      6C697374 
 3248      5F7400
 3249              	.LASF56:
 3250 03c5 725F7072 		.ascii	"r_prio\000"
 3250      696F00
 3251              	.LASF40:
 3252 03cc 705F7761 		.ascii	"p_waiting\000"
 3252      6974696E 
 3252      6700
 3253              	.LASF81:
 3254 03d6 73697A65 		.ascii	"sizetype\000"
 3254      74797065 
 3254      00
 3255              	.LASF47:
 3256 03df 74687265 		.ascii	"thread_reference_t\000"
 3256      61645F72 
 3256      65666572 
 3256      656E6365 
 3256      5F7400
 3257              	.LASF70:
 3258 03f2 63685F76 		.ascii	"ch_virtual_timers_list\000"
 3258      69727475 
 3258      616C5F74 
 3258      696D6572 
 3258      735F6C69 
 3259              	.LASF128:
 3260 0409 63685363 		.ascii	"chSchDoRescheduleBehind\000"
 3260      68446F52 
 3260      65736368 
 3260      6564756C 
 3260      65426568 
 3261              	.LASF34:
 3262 0421 705F6F6C 		.ascii	"p_older\000"
 3262      64657200 
 3263              	.LASF57:
 3264 0429 725F6374 		.ascii	"r_ctx\000"
 3264      7800
 3265              	.LASF87:
 3266 042f 746D5F63 		.ascii	"tm_calibration_t\000"
 3266      616C6962 
 3266      72617469 
 3266      6F6E5F74 
 3266      00
 3267              	.LASF101:
 3268 0440 6D5F6E65 		.ascii	"m_next\000"
 3268      787400
 3269              	.LASF121:
 3270 0447 74696D65 		.ascii	"time\000"
 3270      00
 3271              	.LASF60:
 3272 044c 725F6375 		.ascii	"r_current\000"
ARM GAS  /tmp/ccAbmO1f.s 			page 62


 3272      7272656E 
 3272      7400
 3273              	.LASF59:
 3274 0456 725F6F6C 		.ascii	"r_older\000"
 3274      64657200 
 3275              	.LASF12:
 3276 045e 5F5F7569 		.ascii	"__uint64_t\000"
 3276      6E743634 
 3276      5F7400
 3277              	.LASF21:
 3278 0469 74726566 		.ascii	"trefs_t\000"
 3278      735F7400 
 3279              	.LASF62:
 3280 0471 76697274 		.ascii	"virtual_timer_t\000"
 3280      75616C5F 
 3280      74696D65 
 3280      725F7400 
 3281              	.LASF30:
 3282 0481 705F7072 		.ascii	"p_prev\000"
 3282      657600
 3283              	.LASF23:
 3284 0488 74707269 		.ascii	"tprio_t\000"
 3284      6F5F7400 
 3285              	.LASF114:
 3286 0490 63685379 		.ascii	"chSysUnlockFromISR\000"
 3286      73556E6C 
 3286      6F636B46 
 3286      726F6D49 
 3286      535200
 3287              	.LASF73:
 3288 04a3 63685F73 		.ascii	"ch_system_debug\000"
 3288      79737465 
 3288      6D5F6465 
 3288      62756700 
 3289              	.LASF112:
 3290 04b3 5F426F6F 		.ascii	"_Bool\000"
 3290      6C00
 3291              	.LASF15:
 3292 04b9 696E7433 		.ascii	"int32_t\000"
 3292      325F7400 
 3293              	.LASF4:
 3294 04c1 756E7369 		.ascii	"unsigned char\000"
 3294      676E6564 
 3294      20636861 
 3294      7200
 3295              	.LASF117:
 3296 04cf 6E657773 		.ascii	"newstate\000"
 3296      74617465 
 3296      00
 3297              	.LASF5:
 3298 04d8 73686F72 		.ascii	"short int\000"
 3298      7420696E 
 3298      7400
 3299              	.LASF36:
 3300 04e2 705F7374 		.ascii	"p_state\000"
 3300      61746500 
 3301              	.LASF39:
ARM GAS  /tmp/ccAbmO1f.s 			page 63


 3302 04ea 705F7072 		.ascii	"p_preempt\000"
 3302      65656D70 
 3302      7400
 3303              	.LASF116:
 3304 04f4 63685365 		.ascii	"chSemFastSignalI\000"
 3304      6D466173 
 3304      74536967 
 3304      6E616C49 
 3304      00
 3305              	.LASF94:
 3306 0505 65776D61 		.ascii	"ewmask\000"
 3306      736B00
 3307              	.LASF29:
 3308 050c 705F6E65 		.ascii	"p_next\000"
 3308      787400
 3309              	.LASF19:
 3310 0513 746D6F64 		.ascii	"tmode_t\000"
 3310      655F7400 
 3311              	.LASF37:
 3312 051b 705F666C 		.ascii	"p_flags\000"
 3312      61677300 
 3313              	.LASF124:
 3314 0523 5F5F6675 		.ascii	"__func__\000"
 3314      6E635F5F 
 3314      00
 3315              	.LASF115:
 3316 052c 63685654 		.ascii	"chVTIsArmedI\000"
 3316      49734172 
 3316      6D656449 
 3316      00
 3317              	.LASF103:
 3318 0539 73656D61 		.ascii	"semaphore_t\000"
 3318      70686F72 
 3318      655F7400 
 3319              	.LASF63:
 3320 0545 63685F76 		.ascii	"ch_virtual_timer\000"
 3320      69727475 
 3320      616C5F74 
 3320      696D6572 
 3320      00
 3321              	.LASF95:
 3322 0556 63685F73 		.ascii	"ch_semaphore\000"
 3322      656D6170 
 3322      686F7265 
 3322      00
 3323              	.LASF122:
 3324 0563 63685363 		.ascii	"chSchGoSleepS\000"
 3324      68476F53 
 3324      6C656570 
 3324      5300
 3325              	.LASF43:
 3326 0571 705F6570 		.ascii	"p_epending\000"
 3326      656E6469 
 3326      6E6700
 3327              	.LASF16:
 3328 057c 75696E74 		.ascii	"uint32_t\000"
 3328      33325F74 
ARM GAS  /tmp/ccAbmO1f.s 			page 64


 3328      00
 3329              	.LASF93:
 3330 0585 77746D74 		.ascii	"wtmtxp\000"
 3330      787000
 3331              	.LASF55:
 3332 058c 725F7175 		.ascii	"r_queue\000"
 3332      65756500 
 3333              	.LASF119:
 3334 0594 63685363 		.ascii	"chSchReadyI\000"
 3334      68526561 
 3334      64794900 
 3335              	.LASF50:
 3336 05a0 63685F74 		.ascii	"ch_threads_list\000"
 3336      68726561 
 3336      64735F6C 
 3336      69737400 
 3337              	.LASF10:
 3338 05b0 6C6F6E67 		.ascii	"long unsigned int\000"
 3338      20756E73 
 3338      69676E65 
 3338      6420696E 
 3338      7400
 3339              	.LASF102:
 3340 05c2 63686172 		.ascii	"char\000"
 3340      00
 3341              	.LASF108:
 3342 05c7 706F7274 		.ascii	"port_unlock_from_isr\000"
 3342      5F756E6C 
 3342      6F636B5F 
 3342      66726F6D 
 3342      5F697372 
 3343              	.LASF28:
 3344 05dc 74687265 		.ascii	"thread_t\000"
 3344      61645F74 
 3344      00
 3345              	.LASF110:
 3346 05e5 71756575 		.ascii	"queue_fifo_remove\000"
 3346      655F6669 
 3346      666F5F72 
 3346      656D6F76 
 3346      6500
 3347              	.LASF27:
 3348 05f7 73797374 		.ascii	"systime_t\000"
 3348      696D655F 
 3348      7400
 3349              	.LASF45:
 3350 0601 705F7265 		.ascii	"p_realprio\000"
 3350      616C7072 
 3350      696F00
 3351              	.LASF61:
 3352 060c 76746675 		.ascii	"vtfunc_t\000"
 3352      6E635F74 
 3352      00
 3353              	.LASF9:
 3354 0615 5F5F7569 		.ascii	"__uint32_t\000"
 3354      6E743332 
 3354      5F7400
ARM GAS  /tmp/ccAbmO1f.s 			page 65


 3355              	.LASF135:
 3356 0620 5F5F7365 		.ascii	"__set_BASEPRI\000"
 3356      745F4241 
 3356      53455052 
 3356      4900
 3357              	.LASF74:
 3358 062e 70616E69 		.ascii	"panic_msg\000"
 3358      635F6D73 
 3358      6700
 3359              	.LASF86:
 3360 0638 6F666673 		.ascii	"offset\000"
 3360      657400
 3361              	.LASF84:
 3362 063f 636F6E74 		.ascii	"context\000"
 3362      65787400 
 3363              	.LASF18:
 3364 0647 7274636E 		.ascii	"rtcnt_t\000"
 3364      745F7400 
 3365              	.LASF107:
 3366 064f 706F7274 		.ascii	"port_lock_from_isr\000"
 3366      5F6C6F63 
 3366      6B5F6672 
 3366      6F6D5F69 
 3366      737200
 3367              	.LASF68:
 3368 0662 76745F70 		.ascii	"vt_par\000"
 3368      617200
 3369              	.LASF51:
 3370 0669 74687265 		.ascii	"threads_queue_t\000"
 3370      6164735F 
 3370      71756575 
 3370      655F7400 
 3371              	.LASF98:
 3372 0679 63685F6D 		.ascii	"ch_mutex\000"
 3372      75746578 
 3372      00
 3373              	.LASF38:
 3374 0682 705F7265 		.ascii	"p_refs\000"
 3374      667300
 3375              	.LASF77:
 3376 0689 726C6973 		.ascii	"rlist\000"
 3376      7400
 3377              	.LASF14:
 3378 068f 75696E74 		.ascii	"uint8_t\000"
 3378      385F7400 
 3379              	.LASF113:
 3380 0697 63685379 		.ascii	"chSysLockFromISR\000"
 3380      734C6F63 
 3380      6B46726F 
 3380      6D495352 
 3380      00
 3381              	.LASF35:
 3382 06a8 705F6E61 		.ascii	"p_name\000"
 3382      6D6500
 3383              	.LASF71:
 3384 06af 76745F73 		.ascii	"vt_systime\000"
 3384      79737469 
ARM GAS  /tmp/ccAbmO1f.s 			page 66


 3384      6D6500
 3385              	.LASF120:
 3386 06ba 63685363 		.ascii	"chSchGoSleepTimeoutS\000"
 3386      68476F53 
 3386      6C656570 
 3386      54696D65 
 3386      6F757453 
 3387              	.LASF137:
 3388 06cf 63685363 		.ascii	"chSchIsRescRequiredI\000"
 3388      68497352 
 3388      65736352 
 3388      65717569 
 3388      72656449 
 3389              	.LASF42:
 3390 06e4 705F6D73 		.ascii	"p_msg\000"
 3390      6700
 3391              	.LASF100:
 3392 06ea 6D5F6F77 		.ascii	"m_owner\000"
 3392      6E657200 
 3393              	.LASF32:
 3394 06f2 705F6374 		.ascii	"p_ctx\000"
 3394      7800
 3395              	.LASF67:
 3396 06f8 76745F66 		.ascii	"vt_func\000"
 3396      756E6300 
 3397              		.ident	"GCC: (GNU Tools for ARM Embedded Processors) 4.8.4 20140526 (release) [ARM/embedded-4_8-br
ARM GAS  /tmp/ccAbmO1f.s 			page 67


DEFINED SYMBOLS
                            *ABS*:00000000 chschd.c
     /tmp/ccAbmO1f.s:18     .text:00000000 $t
     /tmp/ccAbmO1f.s:23     .text:00000000 port_lock
     /tmp/ccAbmO1f.s:58     .text:00000010 port_unlock
     /tmp/ccAbmO1f.s:91     .text:00000020 port_lock_from_isr
     /tmp/ccAbmO1f.s:113    .text:00000030 port_unlock_from_isr
     /tmp/ccAbmO1f.s:135    .text:00000040 queue_init
     /tmp/ccAbmO1f.s:166    .text:00000060 queue_fifo_remove
     /tmp/ccAbmO1f.s:205    .text:00000090 queue_dequeue
     /tmp/ccAbmO1f.s:242    .text:000000b0 chSchIsRescRequiredI
     /tmp/ccAbmO1f.s:267    .text:000000cc $d
                            *COM*:00000150 ch
     /tmp/ccAbmO1f.s:271    .text:000000d0 $t
     /tmp/ccAbmO1f.s:276    .text:000000d0 chSysLockFromISR
     /tmp/ccAbmO1f.s:299    .text:000000e0 chSysUnlockFromISR
     /tmp/ccAbmO1f.s:321    .text:000000f0 chVTIsArmedI
     /tmp/ccAbmO1f.s:353    .text:00000110 chSemFastSignalI
     /tmp/ccAbmO1f.s:384    .text:00000130 _scheduler_init
     /tmp/ccAbmO1f.s:415    .text:0000014c $d
     /tmp/ccAbmO1f.s:419    .text:00000150 $t
     /tmp/ccAbmO1f.s:425    .text:00000150 chSchReadyI
     /tmp/ccAbmO1f.s:482    .text:00000194 $d
     /tmp/ccAbmO1f.s:486    .text:00000198 $t
     /tmp/ccAbmO1f.s:492    .text:000001a0 chSchGoSleepS
     /tmp/ccAbmO1f.s:541    .text:000001e4 $d
     /tmp/ccAbmO1f.s:545    .text:000001e8 $t
     /tmp/ccAbmO1f.s:550    .text:000001f0 wakeup
     /tmp/ccAbmO1f.s:576    .text:0000020c $d
     /tmp/ccAbmO1f.s:584    .text:0000022c $t
     /tmp/ccAbmO1f.s:637    .text:00000270 chSchGoSleepTimeoutS
     /tmp/ccAbmO1f.s:701    .text:000002d0 $d
     /tmp/ccAbmO1f.s:706    .text:000002d8 $t
     /tmp/ccAbmO1f.s:712    .text:000002e0 chSchWakeupS
     /tmp/ccAbmO1f.s:770    .text:0000032c $d
     /tmp/ccAbmO1f.s:774    .text:00000330 $t
     /tmp/ccAbmO1f.s:780    .text:00000330 chSchRescheduleS
     /tmp/ccAbmO1f.s:927    .text:000003e0 chSchDoRescheduleAhead
     /tmp/ccAbmO1f.s:809    .text:00000350 chSchIsPreemptionRequired
     /tmp/ccAbmO1f.s:861    .text:00000390 $d
     /tmp/ccAbmO1f.s:865    .text:00000394 $t
     /tmp/ccAbmO1f.s:871    .text:000003a0 chSchDoRescheduleBehind
     /tmp/ccAbmO1f.s:917    .text:000003dc $d
     /tmp/ccAbmO1f.s:921    .text:000003e0 $t
     /tmp/ccAbmO1f.s:1003   .text:00000448 $d
     /tmp/ccAbmO1f.s:1007   .text:0000044c $t
     /tmp/ccAbmO1f.s:1013   .text:00000450 chSchDoReschedule
     /tmp/ccAbmO1f.s:1041   .text:00000468 $d
                     .debug_frame:00000010 $d
     /tmp/ccAbmO1f.s:1055   .text:0000046c $t

UNDEFINED SYMBOLS
_port_switch
chVTDoSetI
chVTDoResetI
