ARM GAS  /tmp/ccAbmO1f.s 			page 1


   1              		.syntax unified
   2              		.cpu cortex-m4
   3              		.fpu softvfp
   4              		.eabi_attribute 20, 1
   5              		.eabi_attribute 21, 1
   6              		.eabi_attribute 23, 3
   7              		.eabi_attribute 24, 1
   8              		.eabi_attribute 25, 1
   9              		.eabi_attribute 26, 1
  10              		.eabi_attribute 30, 6
  11              		.eabi_attribute 34, 1
  12              		.eabi_attribute 18, 4
  13              		.thumb
  14              		.file	"chschd.c"
  15              		.text
  16              	.Ltext0:
  17              		.cfi_sections	.debug_frame
  18              		.align	2
  19              		.p2align 4,,15
  20              		.thumb
  21              		.thumb_func
  22              		.type	port_lock, %function
  23              	port_lock:
  24              	.LFB127:
  25              		.file 1 "../../ChibiOS/os/rt/ports/ARMCMx/chcore_v7m.h"
  26              		.loc 1 456 0
  27              		.cfi_startproc
  28              		@ args = 0, pretend = 0, frame = 8
  29              		@ frame_needed = 0, uses_anonymous_args = 0
  30              		@ link register save eliminated.
  31 0000 82B0     		sub	sp, sp, #8
  32              		.cfi_def_cfa_offset 8
  33 0002 2023     		movs	r3, #32
  34 0004 0193     		str	r3, [sp, #4]
  35              	.LBB6:
  36              	.LBB7:
  37              		.file 2 "../../ChibiOS/os/ext/CMSIS/include/core_cmFunc.h"
  38              		.loc 2 548 0
  39 0006 019B     		ldr	r3, [sp, #4]
  40              	@ 548 "../../ChibiOS/os/ext/CMSIS/include/core_cmFunc.h" 1
  41 0008 83F31188 		MSR basepri, r3
  42              	@ 0 "" 2
  43              		.thumb
  44              	.LBE7:
  45              	.LBE6:
  46              		.loc 1 473 0
  47 000c 02B0     		add	sp, sp, #8
  48              		@ sp needed
  49 000e 7047     		bx	lr
  50              		.cfi_endproc
  51              	.LFE127:
  52              		.size	port_lock, .-port_lock
  53              		.align	2
  54              		.p2align 4,,15
  55              		.thumb
  56              		.thumb_func
  57              		.type	port_unlock, %function
ARM GAS  /tmp/ccAbmO1f.s 			page 2


  58              	port_unlock:
  59              	.LFB128:
  60              		.loc 1 480 0
  61              		.cfi_startproc
  62              		@ args = 0, pretend = 0, frame = 8
  63              		@ frame_needed = 0, uses_anonymous_args = 0
  64              		@ link register save eliminated.
  65 0010 82B0     		sub	sp, sp, #8
  66              		.cfi_def_cfa_offset 8
  67 0012 0023     		movs	r3, #0
  68 0014 0193     		str	r3, [sp, #4]
  69              	.LBB8:
  70              	.LBB9:
  71              		.loc 2 548 0
  72 0016 019B     		ldr	r3, [sp, #4]
  73              	@ 548 "../../ChibiOS/os/ext/CMSIS/include/core_cmFunc.h" 1
  74 0018 83F31188 		MSR basepri, r3
  75              	@ 0 "" 2
  76              		.thumb
  77              	.LBE9:
  78              	.LBE8:
  79              		.loc 1 487 0
  80 001c 02B0     		add	sp, sp, #8
  81              		@ sp needed
  82 001e 7047     		bx	lr
  83              		.cfi_endproc
  84              	.LFE128:
  85              		.size	port_unlock, .-port_unlock
  86              		.align	2
  87              		.p2align 4,,15
  88              		.thumb
  89              		.thumb_func
  90              		.type	port_lock_from_isr, %function
  91              	port_lock_from_isr:
  92              	.LFB129:
  93              		.loc 1 495 0
  94              		.cfi_startproc
  95              		@ args = 0, pretend = 0, frame = 0
  96              		@ frame_needed = 0, uses_anonymous_args = 0
  97 0020 08B5     		push	{r3, lr}
  98              		.cfi_def_cfa_offset 8
  99              		.cfi_offset 3, -8
 100              		.cfi_offset 14, -4
 101              		.loc 1 497 0
 102 0022 FFF7EDFF 		bl	port_lock
 103              		.loc 1 498 0
 104 0026 08BD     		pop	{r3, pc}
 105              		.cfi_endproc
 106              	.LFE129:
 107              		.size	port_lock_from_isr, .-port_lock_from_isr
 108              		.align	2
 109 0028 AFF30080 		.p2align 4,,15
 109      AFF30080 
 110              		.thumb
 111              		.thumb_func
 112              		.type	port_unlock_from_isr, %function
 113              	port_unlock_from_isr:
ARM GAS  /tmp/ccAbmO1f.s 			page 3


 114              	.LFB130:
 115              		.loc 1 506 0
 116              		.cfi_startproc
 117              		@ args = 0, pretend = 0, frame = 0
 118              		@ frame_needed = 0, uses_anonymous_args = 0
 119 0030 08B5     		push	{r3, lr}
 120              		.cfi_def_cfa_offset 8
 121              		.cfi_offset 3, -8
 122              		.cfi_offset 14, -4
 123              		.loc 1 508 0
 124 0032 FFF7EDFF 		bl	port_unlock
 125              		.loc 1 509 0
 126 0036 08BD     		pop	{r3, pc}
 127              		.cfi_endproc
 128              	.LFE130:
 129              		.size	port_unlock_from_isr, .-port_unlock_from_isr
 130              		.align	2
 131 0038 AFF30080 		.p2align 4,,15
 131      AFF30080 
 132              		.thumb
 133              		.thumb_func
 134              		.type	queue_init, %function
 135              	queue_init:
 136              	.LFB139:
 137              		.file 3 "../../ChibiOS/os/rt/include/chschd.h"
 138              		.loc 3 602 0
 139              		.cfi_startproc
 140              		@ args = 0, pretend = 0, frame = 8
 141              		@ frame_needed = 0, uses_anonymous_args = 0
 142              		@ link register save eliminated.
 143 0040 82B0     		sub	sp, sp, #8
 144              		.cfi_def_cfa_offset 8
 145 0042 0190     		str	r0, [sp, #4]
 146              		.loc 3 604 0
 147 0044 019B     		ldr	r3, [sp, #4]
 148 0046 019A     		ldr	r2, [sp, #4]
 149 0048 1A60     		str	r2, [r3]
 150              		.loc 3 605 0
 151 004a 019B     		ldr	r3, [sp, #4]
 152 004c 019A     		ldr	r2, [sp, #4]
 153 004e 5A60     		str	r2, [r3, #4]
 154              		.loc 3 606 0
 155 0050 02B0     		add	sp, sp, #8
 156              		@ sp needed
 157 0052 7047     		bx	lr
 158              		.cfi_endproc
 159              	.LFE139:
 160              		.size	queue_init, .-queue_init
 161              		.align	2
 162 0054 AFF30080 		.p2align 4,,15
 162      AFF30080 
 162      AFF30080 
 163              		.thumb
 164              		.thumb_func
 165              		.type	queue_fifo_remove, %function
 166              	queue_fifo_remove:
 167              	.LFB146:
ARM GAS  /tmp/ccAbmO1f.s 			page 4


 168              		.loc 3 671 0
 169              		.cfi_startproc
 170              		@ args = 0, pretend = 0, frame = 16
 171              		@ frame_needed = 0, uses_anonymous_args = 0
 172              		@ link register save eliminated.
 173 0060 84B0     		sub	sp, sp, #16
 174              		.cfi_def_cfa_offset 16
 175 0062 0190     		str	r0, [sp, #4]
 176              		.loc 3 672 0
 177 0064 019B     		ldr	r3, [sp, #4]
 178 0066 1B68     		ldr	r3, [r3]
 179 0068 0393     		str	r3, [sp, #12]
 180              		.loc 3 674 0
 181 006a 039B     		ldr	r3, [sp, #12]
 182 006c 1A68     		ldr	r2, [r3]
 183 006e 019B     		ldr	r3, [sp, #4]
 184 0070 1A60     		str	r2, [r3]
 185              		.loc 3 675 0
 186 0072 019B     		ldr	r3, [sp, #4]
 187 0074 1B68     		ldr	r3, [r3]
 188 0076 019A     		ldr	r2, [sp, #4]
 189 0078 5A60     		str	r2, [r3, #4]
 190              		.loc 3 677 0
 191 007a 039B     		ldr	r3, [sp, #12]
 192              		.loc 3 678 0
 193 007c 1846     		mov	r0, r3
 194 007e 04B0     		add	sp, sp, #16
 195              		@ sp needed
 196 0080 7047     		bx	lr
 197              		.cfi_endproc
 198              	.LFE146:
 199              		.size	queue_fifo_remove, .-queue_fifo_remove
 200 0082 00BF     		.align	2
 201 0084 AFF30080 		.p2align 4,,15
 201      AFF30080 
 201      AFF30080 
 202              		.thumb
 203              		.thumb_func
 204              		.type	queue_dequeue, %function
 205              	queue_dequeue:
 206              	.LFB148:
 207              		.loc 3 689 0
 208              		.cfi_startproc
 209              		@ args = 0, pretend = 0, frame = 8
 210              		@ frame_needed = 0, uses_anonymous_args = 0
 211              		@ link register save eliminated.
 212 0090 82B0     		sub	sp, sp, #8
 213              		.cfi_def_cfa_offset 8
 214 0092 0190     		str	r0, [sp, #4]
 215              		.loc 3 691 0
 216 0094 019B     		ldr	r3, [sp, #4]
 217 0096 5B68     		ldr	r3, [r3, #4]
 218 0098 019A     		ldr	r2, [sp, #4]
 219 009a 1268     		ldr	r2, [r2]
 220 009c 1A60     		str	r2, [r3]
 221              		.loc 3 692 0
 222 009e 019B     		ldr	r3, [sp, #4]
ARM GAS  /tmp/ccAbmO1f.s 			page 5


 223 00a0 1B68     		ldr	r3, [r3]
 224 00a2 019A     		ldr	r2, [sp, #4]
 225 00a4 5268     		ldr	r2, [r2, #4]
 226 00a6 5A60     		str	r2, [r3, #4]
 227              		.loc 3 694 0
 228 00a8 019B     		ldr	r3, [sp, #4]
 229              		.loc 3 695 0
 230 00aa 1846     		mov	r0, r3
 231 00ac 02B0     		add	sp, sp, #8
 232              		@ sp needed
 233 00ae 7047     		bx	lr
 234              		.cfi_endproc
 235              	.LFE148:
 236              		.size	queue_dequeue, .-queue_dequeue
 237              		.align	2
 238              		.p2align 4,,15
 239              		.thumb
 240              		.thumb_func
 241              		.type	chSchIsRescRequiredI, %function
 242              	chSchIsRescRequiredI:
 243              	.LFB149:
 244              		.loc 3 709 0
 245              		.cfi_startproc
 246              		@ args = 0, pretend = 0, frame = 0
 247              		@ frame_needed = 0, uses_anonymous_args = 0
 248              		@ link register save eliminated.
 249              		.loc 3 713 0
 250 00b0 064B     		ldr	r3, .L12
 251 00b2 1B68     		ldr	r3, [r3]
 252 00b4 9A68     		ldr	r2, [r3, #8]
 253 00b6 054B     		ldr	r3, .L12
 254 00b8 9B69     		ldr	r3, [r3, #24]
 255 00ba 9B68     		ldr	r3, [r3, #8]
 256 00bc 9A42     		cmp	r2, r3
 257 00be 94BF     		ite	ls
 258 00c0 0023     		movls	r3, #0
 259 00c2 0123     		movhi	r3, #1
 260 00c4 DBB2     		uxtb	r3, r3
 261              		.loc 3 714 0
 262 00c6 1846     		mov	r0, r3
 263 00c8 7047     		bx	lr
 264              	.L13:
 265 00ca 00BF     		.align	2
 266              	.L12:
 267 00cc 00000000 		.word	ch
 268              		.cfi_endproc
 269              	.LFE149:
 270              		.size	chSchIsRescRequiredI, .-chSchIsRescRequiredI
 271              		.align	2
 272              		.p2align 4,,15
 273              		.thumb
 274              		.thumb_func
 275              		.type	chSysLockFromISR, %function
 276              	chSysLockFromISR:
 277              	.LFB158:
 278              		.file 4 "../../ChibiOS/os/rt/include/chsys.h"
 279              		.loc 4 386 0
ARM GAS  /tmp/ccAbmO1f.s 			page 6


 280              		.cfi_startproc
 281              		@ args = 0, pretend = 0, frame = 0
 282              		@ frame_needed = 0, uses_anonymous_args = 0
 283 00d0 08B5     		push	{r3, lr}
 284              		.cfi_def_cfa_offset 8
 285              		.cfi_offset 3, -8
 286              		.cfi_offset 14, -4
 287              		.loc 4 388 0
 288 00d2 FFF7A5FF 		bl	port_lock_from_isr
 289              		.loc 4 391 0
 290 00d6 08BD     		pop	{r3, pc}
 291              		.cfi_endproc
 292              	.LFE158:
 293              		.size	chSysLockFromISR, .-chSysLockFromISR
 294              		.align	2
 295 00d8 AFF30080 		.p2align 4,,15
 295      AFF30080 
 296              		.thumb
 297              		.thumb_func
 298              		.type	chSysUnlockFromISR, %function
 299              	chSysUnlockFromISR:
 300              	.LFB159:
 301              		.loc 4 406 0
 302              		.cfi_startproc
 303              		@ args = 0, pretend = 0, frame = 0
 304              		@ frame_needed = 0, uses_anonymous_args = 0
 305 00e0 08B5     		push	{r3, lr}
 306              		.cfi_def_cfa_offset 8
 307              		.cfi_offset 3, -8
 308              		.cfi_offset 14, -4
 309              		.loc 4 410 0
 310 00e2 FFF7A5FF 		bl	port_unlock_from_isr
 311              		.loc 4 411 0
 312 00e6 08BD     		pop	{r3, pc}
 313              		.cfi_endproc
 314              	.LFE159:
 315              		.size	chSysUnlockFromISR, .-chSysUnlockFromISR
 316              		.align	2
 317 00e8 AFF30080 		.p2align 4,,15
 317      AFF30080 
 318              		.thumb
 319              		.thumb_func
 320              		.type	chVTIsArmedI, %function
 321              	chVTIsArmedI:
 322              	.LFB171:
 323              		.file 5 "../../ChibiOS/os/rt/include/chvt.h"
 324              		.loc 5 373 0
 325              		.cfi_startproc
 326              		@ args = 0, pretend = 0, frame = 8
 327              		@ frame_needed = 0, uses_anonymous_args = 0
 328              		@ link register save eliminated.
 329 00f0 82B0     		sub	sp, sp, #8
 330              		.cfi_def_cfa_offset 8
 331 00f2 0190     		str	r0, [sp, #4]
 332              		.loc 5 377 0
 333 00f4 019B     		ldr	r3, [sp, #4]
 334 00f6 DB68     		ldr	r3, [r3, #12]
ARM GAS  /tmp/ccAbmO1f.s 			page 7


 335 00f8 002B     		cmp	r3, #0
 336 00fa 0CBF     		ite	eq
 337 00fc 0023     		moveq	r3, #0
 338 00fe 0123     		movne	r3, #1
 339 0100 DBB2     		uxtb	r3, r3
 340              		.loc 5 378 0
 341 0102 1846     		mov	r0, r3
 342 0104 02B0     		add	sp, sp, #8
 343              		@ sp needed
 344 0106 7047     		bx	lr
 345              		.cfi_endproc
 346              	.LFE171:
 347              		.size	chVTIsArmedI, .-chVTIsArmedI
 348              		.align	2
 349 0108 AFF30080 		.p2align 4,,15
 349      AFF30080 
 350              		.thumb
 351              		.thumb_func
 352              		.type	chSemFastSignalI, %function
 353              	chSemFastSignalI:
 354              	.LFB191:
 355              		.file 6 "../../ChibiOS/os/rt/include/chsem.h"
 356              		.loc 6 134 0
 357              		.cfi_startproc
 358              		@ args = 0, pretend = 0, frame = 8
 359              		@ frame_needed = 0, uses_anonymous_args = 0
 360              		@ link register save eliminated.
 361 0110 82B0     		sub	sp, sp, #8
 362              		.cfi_def_cfa_offset 8
 363 0112 0190     		str	r0, [sp, #4]
 364              		.loc 6 138 0
 365 0114 019B     		ldr	r3, [sp, #4]
 366 0116 9B68     		ldr	r3, [r3, #8]
 367 0118 5A1C     		adds	r2, r3, #1
 368 011a 019B     		ldr	r3, [sp, #4]
 369 011c 9A60     		str	r2, [r3, #8]
 370              		.loc 6 139 0
 371 011e 02B0     		add	sp, sp, #8
 372              		@ sp needed
 373 0120 7047     		bx	lr
 374              		.cfi_endproc
 375              	.LFE191:
 376              		.size	chSemFastSignalI, .-chSemFastSignalI
 377              		.comm	ch,336,8
 378 0122 00BF     		.align	2
 379 0124 AFF30080 		.p2align 4,,15
 379      AFF30080 
 379      AFF30080 
 380              		.global	_scheduler_init
 381              		.thumb
 382              		.thumb_func
 383              		.type	_scheduler_init, %function
 384              	_scheduler_init:
 385              	.LFB230:
 386              		.file 7 "../../ChibiOS/os/rt/src/chschd.c"
 387              		.loc 7 65 0
 388              		.cfi_startproc
ARM GAS  /tmp/ccAbmO1f.s 			page 8


 389              		@ args = 0, pretend = 0, frame = 0
 390              		@ frame_needed = 0, uses_anonymous_args = 0
 391 0130 08B5     		push	{r3, lr}
 392              		.cfi_def_cfa_offset 8
 393              		.cfi_offset 3, -8
 394              		.cfi_offset 14, -4
 395              		.loc 7 67 0
 396 0132 0648     		ldr	r0, .L20
 397 0134 FFF784FF 		bl	queue_init
 398              		.loc 7 68 0
 399 0138 044B     		ldr	r3, .L20
 400 013a 0022     		movs	r2, #0
 401 013c 9A60     		str	r2, [r3, #8]
 402              		.loc 7 70 0
 403 013e 034B     		ldr	r3, .L20
 404 0140 024A     		ldr	r2, .L20
 405 0142 1A61     		str	r2, [r3, #16]
 406              		.loc 7 71 0
 407 0144 014B     		ldr	r3, .L20
 408 0146 014A     		ldr	r2, .L20
 409 0148 5A61     		str	r2, [r3, #20]
 410              		.loc 7 73 0
 411 014a 08BD     		pop	{r3, pc}
 412              	.L21:
 413              		.align	2
 414              	.L20:
 415 014c 00000000 		.word	ch
 416              		.cfi_endproc
 417              	.LFE230:
 418              		.size	_scheduler_init, .-_scheduler_init
 419              		.align	2
 420              		.p2align 4,,15
 421              		.global	chSchReadyI
 422              		.thumb
 423              		.thumb_func
 424              		.type	chSchReadyI, %function
 425              	chSchReadyI:
 426              	.LFB231:
 427              		.loc 7 218 0
 428              		.cfi_startproc
 429              		@ args = 0, pretend = 0, frame = 16
 430              		@ frame_needed = 0, uses_anonymous_args = 0
 431              		@ link register save eliminated.
 432 0150 84B0     		sub	sp, sp, #16
 433              		.cfi_def_cfa_offset 16
 434 0152 0190     		str	r0, [sp, #4]
 435              		.loc 7 227 0
 436 0154 019B     		ldr	r3, [sp, #4]
 437 0156 0022     		movs	r2, #0
 438 0158 1A77     		strb	r2, [r3, #28]
 439              		.loc 7 228 0
 440 015a 0E4B     		ldr	r3, .L25
 441 015c 0393     		str	r3, [sp, #12]
 442              	.L23:
 443              		.loc 7 230 0 discriminator 1
 444 015e 039B     		ldr	r3, [sp, #12]
 445 0160 1B68     		ldr	r3, [r3]
ARM GAS  /tmp/ccAbmO1f.s 			page 9


 446 0162 0393     		str	r3, [sp, #12]
 447              		.loc 7 231 0 discriminator 1
 448 0164 039B     		ldr	r3, [sp, #12]
 449 0166 9A68     		ldr	r2, [r3, #8]
 450 0168 019B     		ldr	r3, [sp, #4]
 451 016a 9B68     		ldr	r3, [r3, #8]
 452 016c 9A42     		cmp	r2, r3
 453 016e F6D2     		bcs	.L23
 454              		.loc 7 233 0
 455 0170 019B     		ldr	r3, [sp, #4]
 456 0172 039A     		ldr	r2, [sp, #12]
 457 0174 1A60     		str	r2, [r3]
 458              		.loc 7 234 0
 459 0176 039B     		ldr	r3, [sp, #12]
 460 0178 5A68     		ldr	r2, [r3, #4]
 461 017a 019B     		ldr	r3, [sp, #4]
 462 017c 5A60     		str	r2, [r3, #4]
 463              		.loc 7 235 0
 464 017e 019B     		ldr	r3, [sp, #4]
 465 0180 5B68     		ldr	r3, [r3, #4]
 466 0182 019A     		ldr	r2, [sp, #4]
 467 0184 1A60     		str	r2, [r3]
 468              		.loc 7 236 0
 469 0186 039B     		ldr	r3, [sp, #12]
 470 0188 019A     		ldr	r2, [sp, #4]
 471 018a 5A60     		str	r2, [r3, #4]
 472              		.loc 7 238 0
 473 018c 019B     		ldr	r3, [sp, #4]
 474              		.loc 7 239 0
 475 018e 1846     		mov	r0, r3
 476 0190 04B0     		add	sp, sp, #16
 477              		@ sp needed
 478 0192 7047     		bx	lr
 479              	.L26:
 480              		.align	2
 481              	.L25:
 482 0194 00000000 		.word	ch
 483              		.cfi_endproc
 484              	.LFE231:
 485              		.size	chSchReadyI, .-chSchReadyI
 486              		.align	2
 487 0198 AFF30080 		.p2align 4,,15
 487      AFF30080 
 488              		.global	chSchGoSleepS
 489              		.thumb
 490              		.thumb_func
 491              		.type	chSchGoSleepS, %function
 492              	chSchGoSleepS:
 493              	.LFB232:
 494              		.loc 7 250 0
 495              		.cfi_startproc
 496              		@ args = 0, pretend = 0, frame = 16
 497              		@ frame_needed = 0, uses_anonymous_args = 0
 498 01a0 00B5     		push	{lr}
 499              		.cfi_def_cfa_offset 4
 500              		.cfi_offset 14, -4
 501 01a2 85B0     		sub	sp, sp, #20
ARM GAS  /tmp/ccAbmO1f.s 			page 10


 502              		.cfi_def_cfa_offset 24
 503 01a4 0346     		mov	r3, r0
 504 01a6 8DF80730 		strb	r3, [sp, #7]
 505              		.loc 7 255 0
 506 01aa 0E4B     		ldr	r3, .L28
 507 01ac 9B69     		ldr	r3, [r3, #24]
 508 01ae 0393     		str	r3, [sp, #12]
 509              		.loc 7 256 0
 510 01b0 039B     		ldr	r3, [sp, #12]
 511 01b2 9DF80720 		ldrb	r2, [sp, #7]
 512 01b6 1A77     		strb	r2, [r3, #28]
 513              		.loc 7 260 0
 514 01b8 039B     		ldr	r3, [sp, #12]
 515 01ba 0A22     		movs	r2, #10
 516 01bc DA77     		strb	r2, [r3, #31]
 517              		.loc 7 262 0
 518 01be 0948     		ldr	r0, .L28
 519 01c0 FFF74EFF 		bl	queue_fifo_remove
 520 01c4 0246     		mov	r2, r0
 521 01c6 074B     		ldr	r3, .L28
 522 01c8 9A61     		str	r2, [r3, #24]
 523              		.loc 7 268 0
 524 01ca 064B     		ldr	r3, .L28
 525 01cc 9B69     		ldr	r3, [r3, #24]
 526 01ce 0122     		movs	r2, #1
 527 01d0 1A77     		strb	r2, [r3, #28]
 528              		.loc 7 269 0
 529 01d2 044B     		ldr	r3, .L28
 530 01d4 9B69     		ldr	r3, [r3, #24]
 531 01d6 1846     		mov	r0, r3
 532 01d8 0399     		ldr	r1, [sp, #12]
 533 01da FFF7FEFF 		bl	_port_switch
 534              		.loc 7 270 0
 535 01de 05B0     		add	sp, sp, #20
 536              		@ sp needed
 537 01e0 5DF804FB 		ldr	pc, [sp], #4
 538              	.L29:
 539              		.align	2
 540              	.L28:
 541 01e4 00000000 		.word	ch
 542              		.cfi_endproc
 543              	.LFE232:
 544              		.size	chSchGoSleepS, .-chSchGoSleepS
 545              		.align	2
 546 01e8 AFF30080 		.p2align 4,,15
 546      AFF30080 
 547              		.thumb
 548              		.thumb_func
 549              		.type	wakeup, %function
 550              	wakeup:
 551              	.LFB233:
 552              		.loc 7 275 0
 553              		.cfi_startproc
 554              		@ args = 0, pretend = 0, frame = 16
 555              		@ frame_needed = 0, uses_anonymous_args = 0
 556 01f0 00B5     		push	{lr}
 557              		.cfi_def_cfa_offset 4
ARM GAS  /tmp/ccAbmO1f.s 			page 11


 558              		.cfi_offset 14, -4
 559 01f2 85B0     		sub	sp, sp, #20
 560              		.cfi_def_cfa_offset 24
 561 01f4 0190     		str	r0, [sp, #4]
 562              		.loc 7 276 0
 563 01f6 019B     		ldr	r3, [sp, #4]
 564 01f8 0393     		str	r3, [sp, #12]
 565              		.loc 7 278 0
 566 01fa FFF769FF 		bl	chSysLockFromISR
 567              		.loc 7 279 0
 568 01fe 039B     		ldr	r3, [sp, #12]
 569 0200 1B7F     		ldrb	r3, [r3, #28]	@ zero_extendqisi2
 570 0202 072B     		cmp	r3, #7
 571 0204 23D8     		bhi	.L39
 572 0206 01A2     		adr	r2, .L33
 573 0208 52F823F0 		ldr	pc, [r2, r3, lsl #2]
 574              		.p2align 2
 575              	.L33:
 576 020c 2D020000 		.word	.L32+1
 577 0210 4F020000 		.word	.L39+1
 578 0214 4F020000 		.word	.L39+1
 579 0218 33020000 		.word	.L34+1
 580 021c 47020000 		.word	.L35+1
 581 0220 3D020000 		.word	.L36+1
 582 0224 4F020000 		.word	.L39+1
 583 0228 47020000 		.word	.L35+1
 584              		.p2align 1
 585              	.L32:
 586              		.loc 7 283 0
 587 022c FFF758FF 		bl	chSysUnlockFromISR
 588              		.loc 7 284 0
 589 0230 17E0     		b	.L30
 590              	.L34:
 591              		.loc 7 286 0
 592 0232 039B     		ldr	r3, [sp, #12]
 593 0234 1B6A     		ldr	r3, [r3, #32]
 594 0236 0022     		movs	r2, #0
 595 0238 1A60     		str	r2, [r3]
 596              		.loc 7 287 0
 597 023a 09E0     		b	.L38
 598              	.L36:
 599              		.loc 7 290 0
 600 023c 039B     		ldr	r3, [sp, #12]
 601 023e 1B6A     		ldr	r3, [r3, #32]
 602 0240 1846     		mov	r0, r3
 603 0242 FFF765FF 		bl	chSemFastSignalI
 604              	.L35:
 605              		.loc 7 298 0
 606 0246 0398     		ldr	r0, [sp, #12]
 607 0248 FFF722FF 		bl	queue_dequeue
 608              		.loc 7 299 0
 609 024c 00E0     		b	.L38
 610              	.L39:
 611              		.loc 7 302 0
 612 024e 00BF     		nop
 613              	.L38:
 614              		.loc 7 304 0
ARM GAS  /tmp/ccAbmO1f.s 			page 12


 615 0250 039B     		ldr	r3, [sp, #12]
 616 0252 4FF0FF32 		mov	r2, #-1
 617 0256 1A62     		str	r2, [r3, #32]
 618              		.loc 7 305 0
 619 0258 0398     		ldr	r0, [sp, #12]
 620 025a FFF7FEFF 		bl	chSchReadyI
 621              		.loc 7 306 0
 622 025e FFF73FFF 		bl	chSysUnlockFromISR
 623              	.L30:
 624              		.loc 7 307 0
 625 0262 05B0     		add	sp, sp, #20
 626              		@ sp needed
 627 0264 5DF804FB 		ldr	pc, [sp], #4
 628              		.cfi_endproc
 629              	.LFE233:
 630              		.size	wakeup, .-wakeup
 631              		.align	2
 632 0268 AFF30080 		.p2align 4,,15
 632      AFF30080 
 633              		.global	chSchGoSleepTimeoutS
 634              		.thumb
 635              		.thumb_func
 636              		.type	chSchGoSleepTimeoutS, %function
 637              	chSchGoSleepTimeoutS:
 638              	.LFB234:
 639              		.loc 7 330 0
 640              		.cfi_startproc
 641              		@ args = 0, pretend = 0, frame = 32
 642              		@ frame_needed = 0, uses_anonymous_args = 0
 643 0270 00B5     		push	{lr}
 644              		.cfi_def_cfa_offset 4
 645              		.cfi_offset 14, -4
 646 0272 89B0     		sub	sp, sp, #36
 647              		.cfi_def_cfa_offset 40
 648 0274 0346     		mov	r3, r0
 649 0276 0091     		str	r1, [sp]
 650 0278 8DF80730 		strb	r3, [sp, #7]
 651              		.loc 7 334 0
 652 027c 009B     		ldr	r3, [sp]
 653 027e B3F1FF3F 		cmp	r3, #-1
 654 0282 19D0     		beq	.L41
 655              	.LBB10:
 656              		.loc 7 337 0
 657 0284 124B     		ldr	r3, .L45
 658 0286 9B69     		ldr	r3, [r3, #24]
 659 0288 03AA     		add	r2, sp, #12
 660 028a 1046     		mov	r0, r2
 661 028c 0099     		ldr	r1, [sp]
 662 028e 114A     		ldr	r2, .L45+4
 663 0290 FFF7FEFF 		bl	chVTDoSetI
 664              		.loc 7 338 0
 665 0294 9DF80730 		ldrb	r3, [sp, #7]	@ zero_extendqisi2
 666 0298 1846     		mov	r0, r3
 667 029a FFF7FEFF 		bl	chSchGoSleepS
 668              		.loc 7 339 0
 669 029e 03AB     		add	r3, sp, #12
 670 02a0 1846     		mov	r0, r3
ARM GAS  /tmp/ccAbmO1f.s 			page 13


 671 02a2 FFF725FF 		bl	chVTIsArmedI
 672 02a6 0346     		mov	r3, r0
 673 02a8 002B     		cmp	r3, #0
 674 02aa 04D0     		beq	.L42
 675              		.loc 7 340 0
 676 02ac 03AB     		add	r3, sp, #12
 677 02ae 1846     		mov	r0, r3
 678 02b0 FFF7FEFF 		bl	chVTDoResetI
 679              	.LBE10:
 680 02b4 05E0     		b	.L43
 681              	.L42:
 682 02b6 04E0     		b	.L43
 683              	.L41:
 684              		.loc 7 344 0
 685 02b8 9DF80730 		ldrb	r3, [sp, #7]	@ zero_extendqisi2
 686 02bc 1846     		mov	r0, r3
 687 02be FFF7FEFF 		bl	chSchGoSleepS
 688              	.L43:
 689              		.loc 7 347 0
 690 02c2 034B     		ldr	r3, .L45
 691 02c4 9B69     		ldr	r3, [r3, #24]
 692 02c6 1B6A     		ldr	r3, [r3, #32]
 693              		.loc 7 348 0
 694 02c8 1846     		mov	r0, r3
 695 02ca 09B0     		add	sp, sp, #36
 696              		@ sp needed
 697 02cc 5DF804FB 		ldr	pc, [sp], #4
 698              	.L46:
 699              		.align	2
 700              	.L45:
 701 02d0 00000000 		.word	ch
 702 02d4 00000000 		.word	wakeup
 703              		.cfi_endproc
 704              	.LFE234:
 705              		.size	chSchGoSleepTimeoutS, .-chSchGoSleepTimeoutS
 706              		.align	2
 707 02d8 AFF30080 		.p2align 4,,15
 707      AFF30080 
 708              		.global	chSchWakeupS
 709              		.thumb
 710              		.thumb_func
 711              		.type	chSchWakeupS, %function
 712              	chSchWakeupS:
 713              	.LFB235:
 714              		.loc 7 367 0
 715              		.cfi_startproc
 716              		@ args = 0, pretend = 0, frame = 16
 717              		@ frame_needed = 0, uses_anonymous_args = 0
 718 02e0 00B5     		push	{lr}
 719              		.cfi_def_cfa_offset 4
 720              		.cfi_offset 14, -4
 721 02e2 85B0     		sub	sp, sp, #20
 722              		.cfi_def_cfa_offset 24
 723 02e4 0190     		str	r0, [sp, #4]
 724 02e6 0091     		str	r1, [sp]
 725              		.loc 7 377 0
 726 02e8 019B     		ldr	r3, [sp, #4]
ARM GAS  /tmp/ccAbmO1f.s 			page 14


 727 02ea 009A     		ldr	r2, [sp]
 728 02ec 1A62     		str	r2, [r3, #32]
 729              		.loc 7 383 0
 730 02ee 019B     		ldr	r3, [sp, #4]
 731 02f0 9A68     		ldr	r2, [r3, #8]
 732 02f2 0E4B     		ldr	r3, .L50
 733 02f4 9B69     		ldr	r3, [r3, #24]
 734 02f6 9B68     		ldr	r3, [r3, #8]
 735 02f8 9A42     		cmp	r2, r3
 736 02fa 03D8     		bhi	.L48
 737              		.loc 7 384 0
 738 02fc 0198     		ldr	r0, [sp, #4]
 739 02fe FFF7FEFF 		bl	chSchReadyI
 740 0302 0FE0     		b	.L47
 741              	.L48:
 742              	.LBB11:
 743              		.loc 7 387 0
 744 0304 094B     		ldr	r3, .L50
 745 0306 9B69     		ldr	r3, [r3, #24]
 746 0308 1846     		mov	r0, r3
 747 030a FFF7FEFF 		bl	chSchReadyI
 748 030e 0390     		str	r0, [sp, #12]
 749              		.loc 7 388 0
 750 0310 064B     		ldr	r3, .L50
 751 0312 019A     		ldr	r2, [sp, #4]
 752 0314 9A61     		str	r2, [r3, #24]
 753              		.loc 7 394 0
 754 0316 019B     		ldr	r3, [sp, #4]
 755 0318 0122     		movs	r2, #1
 756 031a 1A77     		strb	r2, [r3, #28]
 757              		.loc 7 395 0
 758 031c 0198     		ldr	r0, [sp, #4]
 759 031e 0399     		ldr	r1, [sp, #12]
 760 0320 FFF7FEFF 		bl	_port_switch
 761              	.L47:
 762              	.LBE11:
 763              		.loc 7 397 0
 764 0324 05B0     		add	sp, sp, #20
 765              		@ sp needed
 766 0326 5DF804FB 		ldr	pc, [sp], #4
 767              	.L51:
 768 032a 00BF     		.align	2
 769              	.L50:
 770 032c 00000000 		.word	ch
 771              		.cfi_endproc
 772              	.LFE235:
 773              		.size	chSchWakeupS, .-chSchWakeupS
 774              		.align	2
 775              		.p2align 4,,15
 776              		.global	chSchRescheduleS
 777              		.thumb
 778              		.thumb_func
 779              		.type	chSchRescheduleS, %function
 780              	chSchRescheduleS:
 781              	.LFB236:
 782              		.loc 7 406 0
 783              		.cfi_startproc
ARM GAS  /tmp/ccAbmO1f.s 			page 15


 784              		@ args = 0, pretend = 0, frame = 0
 785              		@ frame_needed = 0, uses_anonymous_args = 0
 786 0330 08B5     		push	{r3, lr}
 787              		.cfi_def_cfa_offset 8
 788              		.cfi_offset 3, -8
 789              		.cfi_offset 14, -4
 790              		.loc 7 410 0
 791 0332 FFF7BDFE 		bl	chSchIsRescRequiredI
 792 0336 0346     		mov	r3, r0
 793 0338 002B     		cmp	r3, #0
 794 033a 01D0     		beq	.L52
 795              		.loc 7 411 0
 796 033c FFF7FEFF 		bl	chSchDoRescheduleAhead
 797              	.L52:
 798              		.loc 7 413 0
 799 0340 08BD     		pop	{r3, pc}
 800              		.cfi_endproc
 801              	.LFE236:
 802              		.size	chSchRescheduleS, .-chSchRescheduleS
 803 0342 00BF     		.align	2
 804 0344 AFF30080 		.p2align 4,,15
 804      AFF30080 
 804      AFF30080 
 805              		.global	chSchIsPreemptionRequired
 806              		.thumb
 807              		.thumb_func
 808              		.type	chSchIsPreemptionRequired, %function
 809              	chSchIsPreemptionRequired:
 810              	.LFB237:
 811              		.loc 7 428 0
 812              		.cfi_startproc
 813              		@ args = 0, pretend = 0, frame = 8
 814              		@ frame_needed = 0, uses_anonymous_args = 0
 815              		@ link register save eliminated.
 816 0350 82B0     		sub	sp, sp, #8
 817              		.cfi_def_cfa_offset 8
 818              		.loc 7 429 0
 819 0352 0F4B     		ldr	r3, .L58
 820 0354 1B68     		ldr	r3, [r3]
 821 0356 9B68     		ldr	r3, [r3, #8]
 822 0358 0193     		str	r3, [sp, #4]
 823              		.loc 7 430 0
 824 035a 0D4B     		ldr	r3, .L58
 825 035c 9B69     		ldr	r3, [r3, #24]
 826 035e 9B68     		ldr	r3, [r3, #8]
 827 0360 0093     		str	r3, [sp]
 828              		.loc 7 437 0
 829 0362 0B4B     		ldr	r3, .L58
 830 0364 9B69     		ldr	r3, [r3, #24]
 831 0366 DB7F     		ldrb	r3, [r3, #31]	@ zero_extendqisi2
 832 0368 002B     		cmp	r3, #0
 833 036a 07D0     		beq	.L55
 834              		.loc 7 437 0 is_stmt 0 discriminator 1
 835 036c 019A     		ldr	r2, [sp, #4]
 836 036e 009B     		ldr	r3, [sp]
 837 0370 9A42     		cmp	r2, r3
 838 0372 94BF     		ite	ls
ARM GAS  /tmp/ccAbmO1f.s 			page 16


 839 0374 0023     		movls	r3, #0
 840 0376 0123     		movhi	r3, #1
 841 0378 DBB2     		uxtb	r3, r3
 842 037a 06E0     		b	.L56
 843              	.L55:
 844              		.loc 7 437 0 discriminator 2
 845 037c 019A     		ldr	r2, [sp, #4]
 846 037e 009B     		ldr	r3, [sp]
 847 0380 9A42     		cmp	r2, r3
 848 0382 34BF     		ite	cc
 849 0384 0023     		movcc	r3, #0
 850 0386 0123     		movcs	r3, #1
 851 0388 DBB2     		uxtb	r3, r3
 852              	.L56:
 853              		.loc 7 443 0 is_stmt 1 discriminator 3
 854 038a 1846     		mov	r0, r3
 855 038c 02B0     		add	sp, sp, #8
 856              		@ sp needed
 857 038e 7047     		bx	lr
 858              	.L59:
 859              		.align	2
 860              	.L58:
 861 0390 00000000 		.word	ch
 862              		.cfi_endproc
 863              	.LFE237:
 864              		.size	chSchIsPreemptionRequired, .-chSchIsPreemptionRequired
 865              		.align	2
 866 0394 AFF30080 		.p2align 4,,15
 866      AFF30080 
 866      AFF30080 
 867              		.global	chSchDoRescheduleBehind
 868              		.thumb
 869              		.thumb_func
 870              		.type	chSchDoRescheduleBehind, %function
 871              	chSchDoRescheduleBehind:
 872              	.LFB238:
 873              		.loc 7 455 0
 874              		.cfi_startproc
 875              		@ args = 0, pretend = 0, frame = 8
 876              		@ frame_needed = 0, uses_anonymous_args = 0
 877 03a0 00B5     		push	{lr}
 878              		.cfi_def_cfa_offset 4
 879              		.cfi_offset 14, -4
 880 03a2 83B0     		sub	sp, sp, #12
 881              		.cfi_def_cfa_offset 16
 882              		.loc 7 458 0
 883 03a4 0D4B     		ldr	r3, .L61
 884 03a6 9B69     		ldr	r3, [r3, #24]
 885 03a8 0193     		str	r3, [sp, #4]
 886              		.loc 7 460 0
 887 03aa 0C48     		ldr	r0, .L61
 888 03ac FFF758FE 		bl	queue_fifo_remove
 889 03b0 0246     		mov	r2, r0
 890 03b2 0A4B     		ldr	r3, .L61
 891 03b4 9A61     		str	r2, [r3, #24]
 892              		.loc 7 466 0
 893 03b6 094B     		ldr	r3, .L61
ARM GAS  /tmp/ccAbmO1f.s 			page 17


 894 03b8 9B69     		ldr	r3, [r3, #24]
 895 03ba 0122     		movs	r2, #1
 896 03bc 1A77     		strb	r2, [r3, #28]
 897              		.loc 7 468 0
 898 03be 019B     		ldr	r3, [sp, #4]
 899 03c0 0A22     		movs	r2, #10
 900 03c2 DA77     		strb	r2, [r3, #31]
 901              		.loc 7 470 0
 902 03c4 0198     		ldr	r0, [sp, #4]
 903 03c6 FFF7FEFF 		bl	chSchReadyI
 904              		.loc 7 471 0
 905 03ca 044B     		ldr	r3, .L61
 906 03cc 9B69     		ldr	r3, [r3, #24]
 907 03ce 1846     		mov	r0, r3
 908 03d0 0199     		ldr	r1, [sp, #4]
 909 03d2 FFF7FEFF 		bl	_port_switch
 910              		.loc 7 472 0
 911 03d6 03B0     		add	sp, sp, #12
 912              		@ sp needed
 913 03d8 5DF804FB 		ldr	pc, [sp], #4
 914              	.L62:
 915              		.align	2
 916              	.L61:
 917 03dc 00000000 		.word	ch
 918              		.cfi_endproc
 919              	.LFE238:
 920              		.size	chSchDoRescheduleBehind, .-chSchDoRescheduleBehind
 921              		.align	2
 922              		.p2align 4,,15
 923              		.global	chSchDoRescheduleAhead
 924              		.thumb
 925              		.thumb_func
 926              		.type	chSchDoRescheduleAhead, %function
 927              	chSchDoRescheduleAhead:
 928              	.LFB239:
 929              		.loc 7 483 0
 930              		.cfi_startproc
 931              		@ args = 0, pretend = 0, frame = 8
 932              		@ frame_needed = 0, uses_anonymous_args = 0
 933 03e0 00B5     		push	{lr}
 934              		.cfi_def_cfa_offset 4
 935              		.cfi_offset 14, -4
 936 03e2 83B0     		sub	sp, sp, #12
 937              		.cfi_def_cfa_offset 16
 938              		.loc 7 486 0
 939 03e4 184B     		ldr	r3, .L65
 940 03e6 9B69     		ldr	r3, [r3, #24]
 941 03e8 0093     		str	r3, [sp]
 942              		.loc 7 488 0
 943 03ea 1748     		ldr	r0, .L65
 944 03ec FFF738FE 		bl	queue_fifo_remove
 945 03f0 0246     		mov	r2, r0
 946 03f2 154B     		ldr	r3, .L65
 947 03f4 9A61     		str	r2, [r3, #24]
 948              		.loc 7 494 0
 949 03f6 144B     		ldr	r3, .L65
 950 03f8 9B69     		ldr	r3, [r3, #24]
ARM GAS  /tmp/ccAbmO1f.s 			page 18


 951 03fa 0122     		movs	r2, #1
 952 03fc 1A77     		strb	r2, [r3, #28]
 953              		.loc 7 496 0
 954 03fe 009B     		ldr	r3, [sp]
 955 0400 0022     		movs	r2, #0
 956 0402 1A77     		strb	r2, [r3, #28]
 957              		.loc 7 497 0
 958 0404 104B     		ldr	r3, .L65
 959 0406 0193     		str	r3, [sp, #4]
 960              	.L64:
 961              		.loc 7 499 0 discriminator 1
 962 0408 019B     		ldr	r3, [sp, #4]
 963 040a 1B68     		ldr	r3, [r3]
 964 040c 0193     		str	r3, [sp, #4]
 965              		.loc 7 500 0 discriminator 1
 966 040e 019B     		ldr	r3, [sp, #4]
 967 0410 9A68     		ldr	r2, [r3, #8]
 968 0412 009B     		ldr	r3, [sp]
 969 0414 9B68     		ldr	r3, [r3, #8]
 970 0416 9A42     		cmp	r2, r3
 971 0418 F6D8     		bhi	.L64
 972              		.loc 7 502 0
 973 041a 009B     		ldr	r3, [sp]
 974 041c 019A     		ldr	r2, [sp, #4]
 975 041e 1A60     		str	r2, [r3]
 976              		.loc 7 503 0
 977 0420 019B     		ldr	r3, [sp, #4]
 978 0422 5A68     		ldr	r2, [r3, #4]
 979 0424 009B     		ldr	r3, [sp]
 980 0426 5A60     		str	r2, [r3, #4]
 981              		.loc 7 504 0
 982 0428 009B     		ldr	r3, [sp]
 983 042a 5B68     		ldr	r3, [r3, #4]
 984 042c 009A     		ldr	r2, [sp]
 985 042e 1A60     		str	r2, [r3]
 986              		.loc 7 505 0
 987 0430 019B     		ldr	r3, [sp, #4]
 988 0432 009A     		ldr	r2, [sp]
 989 0434 5A60     		str	r2, [r3, #4]
 990              		.loc 7 507 0
 991 0436 044B     		ldr	r3, .L65
 992 0438 9B69     		ldr	r3, [r3, #24]
 993 043a 1846     		mov	r0, r3
 994 043c 0099     		ldr	r1, [sp]
 995 043e FFF7FEFF 		bl	_port_switch
 996              		.loc 7 508 0
 997 0442 03B0     		add	sp, sp, #12
 998              		@ sp needed
 999 0444 5DF804FB 		ldr	pc, [sp], #4
 1000              	.L66:
 1001              		.align	2
 1002              	.L65:
 1003 0448 00000000 		.word	ch
 1004              		.cfi_endproc
 1005              	.LFE239:
 1006              		.size	chSchDoRescheduleAhead, .-chSchDoRescheduleAhead
 1007              		.align	2
ARM GAS  /tmp/ccAbmO1f.s 			page 19


 1008 044c AFF30080 		.p2align 4,,15
 1009              		.global	chSchDoReschedule
 1010              		.thumb
 1011              		.thumb_func
 1012              		.type	chSchDoReschedule, %function
 1013              	chSchDoReschedule:
 1014              	.LFB240:
 1015              		.loc 7 520 0
 1016              		.cfi_startproc
 1017              		@ args = 0, pretend = 0, frame = 0
 1018              		@ frame_needed = 0, uses_anonymous_args = 0
 1019 0450 08B5     		push	{r3, lr}
 1020              		.cfi_def_cfa_offset 8
 1021              		.cfi_offset 3, -8
 1022              		.cfi_offset 14, -4
 1023              		.loc 7 525 0
 1024 0452 054B     		ldr	r3, .L70
 1025 0454 9B69     		ldr	r3, [r3, #24]
 1026 0456 DB7F     		ldrb	r3, [r3, #31]	@ zero_extendqisi2
 1027 0458 002B     		cmp	r3, #0
 1028 045a 02D1     		bne	.L68
 1029              		.loc 7 528 0
 1030 045c FFF7FEFF 		bl	chSchDoRescheduleBehind
 1031 0460 01E0     		b	.L67
 1032              	.L68:
 1033              		.loc 7 533 0
 1034 0462 FFF7FEFF 		bl	chSchDoRescheduleAhead
 1035              	.L67:
 1036              		.loc 7 540 0
 1037 0466 08BD     		pop	{r3, pc}
 1038              	.L71:
 1039              		.align	2
 1040              	.L70:
 1041 0468 00000000 		.word	ch
 1042              		.cfi_endproc
 1043              	.LFE240:
 1044              		.size	chSchDoReschedule, .-chSchDoReschedule
 1045              	.Letext0:
 1046              		.file 8 "/nfs/nfs5/home/research/hardware/arm2/gcc-arm-embedded/gcc-arm-none-eabi-4_8-2014q2/lib/g
 1047              		.file 9 "/nfs/nfs5/home/research/hardware/arm2/gcc-arm-embedded/gcc-arm-none-eabi-4_8-2014q2/arm-n
 1048              		.file 10 "/nfs/nfs5/home/research/hardware/arm2/gcc-arm-embedded/gcc-arm-none-eabi-4_8-2014q2/arm-
 1049              		.file 11 "../../ChibiOS/os/rt/ports/ARMCMx/compilers/GCC/chtypes.h"
 1050              		.file 12 "../../ChibiOS/os/rt/include/chsystypes.h"
 1051              		.file 13 "../../ChibiOS/os/rt/ports/ARMCMx/chcore.h"
 1052              		.file 14 "../../ChibiOS/os/rt/include/chtm.h"
 1053              		.file 15 "../../ChibiOS/os/rt/include/chmtx.h"
 1054              		.file 16 "../../ChibiOS/os/ext/CMSIS/include/core_cm4.h"