ARM GAS  /tmp/ccbSVLRw.s 			page 1


   1              		.syntax unified
   2              		.cpu cortex-m4
   3              		.fpu softvfp
   4              		.eabi_attribute 20, 1
   5              		.eabi_attribute 21, 1
   6              		.eabi_attribute 23, 3
   7              		.eabi_attribute 24, 1
   8              		.eabi_attribute 25, 1
   9              		.eabi_attribute 26, 1
  10              		.eabi_attribute 30, 6
  11              		.eabi_attribute 34, 1
  12              		.eabi_attribute 18, 4
  13              		.thumb
  14              		.file	"chsem.c"
  15              		.text
  16              	.Ltext0:
  17              		.cfi_sections	.debug_frame
  18              		.align	2
  19              		.p2align 4,,15
  20              		.thumb
  21              		.thumb_func
  22              		.type	port_lock, %function
  23              	port_lock:
  24              	.LFB127:
  25              		.file 1 "../../ChibiOS/os/rt/ports/ARMCMx/chcore_v7m.h"
  26              		.loc 1 456 0
  27              		.cfi_startproc
  28              		@ args = 0, pretend = 0, frame = 8
  29              		@ frame_needed = 0, uses_anonymous_args = 0
  30              		@ link register save eliminated.
  31 0000 82B0     		sub	sp, sp, #8
  32              		.cfi_def_cfa_offset 8
  33 0002 2023     		movs	r3, #32
  34 0004 0193     		str	r3, [sp, #4]
  35              	.LBB6:
  36              	.LBB7:
  37              		.file 2 "../../ChibiOS/os/ext/CMSIS/include/core_cmFunc.h"
  38              		.loc 2 548 0
  39 0006 019B     		ldr	r3, [sp, #4]
  40              	@ 548 "../../ChibiOS/os/ext/CMSIS/include/core_cmFunc.h" 1
  41 0008 83F31188 		MSR basepri, r3
  42              	@ 0 "" 2
  43              		.thumb
  44              	.LBE7:
  45              	.LBE6:
  46              		.loc 1 473 0
  47 000c 02B0     		add	sp, sp, #8
  48              		@ sp needed
  49 000e 7047     		bx	lr
  50              		.cfi_endproc
  51              	.LFE127:
  52              		.size	port_lock, .-port_lock
  53              		.align	2
  54              		.p2align 4,,15
  55              		.thumb
  56              		.thumb_func
  57              		.type	port_unlock, %function
ARM GAS  /tmp/ccbSVLRw.s 			page 2


  58              	port_unlock:
  59              	.LFB128:
  60              		.loc 1 480 0
  61              		.cfi_startproc
  62              		@ args = 0, pretend = 0, frame = 8
  63              		@ frame_needed = 0, uses_anonymous_args = 0
  64              		@ link register save eliminated.
  65 0010 82B0     		sub	sp, sp, #8
  66              		.cfi_def_cfa_offset 8
  67 0012 0023     		movs	r3, #0
  68 0014 0193     		str	r3, [sp, #4]
  69              	.LBB8:
  70              	.LBB9:
  71              		.loc 2 548 0
  72 0016 019B     		ldr	r3, [sp, #4]
  73              	@ 548 "../../ChibiOS/os/ext/CMSIS/include/core_cmFunc.h" 1
  74 0018 83F31188 		MSR basepri, r3
  75              	@ 0 "" 2
  76              		.thumb
  77              	.LBE9:
  78              	.LBE8:
  79              		.loc 1 487 0
  80 001c 02B0     		add	sp, sp, #8
  81              		@ sp needed
  82 001e 7047     		bx	lr
  83              		.cfi_endproc
  84              	.LFE128:
  85              		.size	port_unlock, .-port_unlock
  86              		.align	2
  87              		.p2align 4,,15
  88              		.thumb
  89              		.thumb_func
  90              		.type	queue_init, %function
  91              	queue_init:
  92              	.LFB139:
  93              		.file 3 "../../ChibiOS/os/rt/include/chschd.h"
  94              		.loc 3 602 0
  95              		.cfi_startproc
  96              		@ args = 0, pretend = 0, frame = 8
  97              		@ frame_needed = 0, uses_anonymous_args = 0
  98              		@ link register save eliminated.
  99 0020 82B0     		sub	sp, sp, #8
 100              		.cfi_def_cfa_offset 8
 101 0022 0190     		str	r0, [sp, #4]
 102              		.loc 3 604 0
 103 0024 019B     		ldr	r3, [sp, #4]
 104 0026 019A     		ldr	r2, [sp, #4]
 105 0028 1A60     		str	r2, [r3]
 106              		.loc 3 605 0
 107 002a 019B     		ldr	r3, [sp, #4]
 108 002c 019A     		ldr	r2, [sp, #4]
 109 002e 5A60     		str	r2, [r3, #4]
 110              		.loc 3 606 0
 111 0030 02B0     		add	sp, sp, #8
 112              		@ sp needed
 113 0032 7047     		bx	lr
 114              		.cfi_endproc
ARM GAS  /tmp/ccbSVLRw.s 			page 3


 115              	.LFE139:
 116              		.size	queue_init, .-queue_init
 117              		.align	2
 118 0034 AFF30080 		.p2align 4,,15
 118      AFF30080 
 118      AFF30080 
 119              		.thumb
 120              		.thumb_func
 121              		.type	queue_insert, %function
 122              	queue_insert:
 123              	.LFB145:
 124              		.loc 3 663 0
 125              		.cfi_startproc
 126              		@ args = 0, pretend = 0, frame = 8
 127              		@ frame_needed = 0, uses_anonymous_args = 0
 128              		@ link register save eliminated.
 129 0040 82B0     		sub	sp, sp, #8
 130              		.cfi_def_cfa_offset 8
 131 0042 0190     		str	r0, [sp, #4]
 132 0044 0091     		str	r1, [sp]
 133              		.loc 3 665 0
 134 0046 019B     		ldr	r3, [sp, #4]
 135 0048 009A     		ldr	r2, [sp]
 136 004a 1A60     		str	r2, [r3]
 137              		.loc 3 666 0
 138 004c 009B     		ldr	r3, [sp]
 139 004e 5A68     		ldr	r2, [r3, #4]
 140 0050 019B     		ldr	r3, [sp, #4]
 141 0052 5A60     		str	r2, [r3, #4]
 142              		.loc 3 667 0
 143 0054 019B     		ldr	r3, [sp, #4]
 144 0056 5B68     		ldr	r3, [r3, #4]
 145 0058 019A     		ldr	r2, [sp, #4]
 146 005a 1A60     		str	r2, [r3]
 147              		.loc 3 668 0
 148 005c 009B     		ldr	r3, [sp]
 149 005e 019A     		ldr	r2, [sp, #4]
 150 0060 5A60     		str	r2, [r3, #4]
 151              		.loc 3 669 0
 152 0062 02B0     		add	sp, sp, #8
 153              		@ sp needed
 154 0064 7047     		bx	lr
 155              		.cfi_endproc
 156              	.LFE145:
 157              		.size	queue_insert, .-queue_insert
 158 0066 00BF     		.align	2
 159 0068 AFF30080 		.p2align 4,,15
 159      AFF30080 
 160              		.thumb
 161              		.thumb_func
 162              		.type	queue_fifo_remove, %function
 163              	queue_fifo_remove:
 164              	.LFB146:
 165              		.loc 3 671 0
 166              		.cfi_startproc
 167              		@ args = 0, pretend = 0, frame = 16
 168              		@ frame_needed = 0, uses_anonymous_args = 0
ARM GAS  /tmp/ccbSVLRw.s 			page 4


 169              		@ link register save eliminated.
 170 0070 84B0     		sub	sp, sp, #16
 171              		.cfi_def_cfa_offset 16
 172 0072 0190     		str	r0, [sp, #4]
 173              		.loc 3 672 0
 174 0074 019B     		ldr	r3, [sp, #4]
 175 0076 1B68     		ldr	r3, [r3]
 176 0078 0393     		str	r3, [sp, #12]
 177              		.loc 3 674 0
 178 007a 039B     		ldr	r3, [sp, #12]
 179 007c 1A68     		ldr	r2, [r3]
 180 007e 019B     		ldr	r3, [sp, #4]
 181 0080 1A60     		str	r2, [r3]
 182              		.loc 3 675 0
 183 0082 019B     		ldr	r3, [sp, #4]
 184 0084 1B68     		ldr	r3, [r3]
 185 0086 019A     		ldr	r2, [sp, #4]
 186 0088 5A60     		str	r2, [r3, #4]
 187              		.loc 3 677 0
 188 008a 039B     		ldr	r3, [sp, #12]
 189              		.loc 3 678 0
 190 008c 1846     		mov	r0, r3
 191 008e 04B0     		add	sp, sp, #16
 192              		@ sp needed
 193 0090 7047     		bx	lr
 194              		.cfi_endproc
 195              	.LFE146:
 196              		.size	queue_fifo_remove, .-queue_fifo_remove
 197 0092 00BF     		.align	2
 198 0094 AFF30080 		.p2align 4,,15
 198      AFF30080 
 198      AFF30080 
 199              		.thumb
 200              		.thumb_func
 201              		.type	queue_lifo_remove, %function
 202              	queue_lifo_remove:
 203              	.LFB147:
 204              		.loc 3 680 0
 205              		.cfi_startproc
 206              		@ args = 0, pretend = 0, frame = 16
 207              		@ frame_needed = 0, uses_anonymous_args = 0
 208              		@ link register save eliminated.
 209 00a0 84B0     		sub	sp, sp, #16
 210              		.cfi_def_cfa_offset 16
 211 00a2 0190     		str	r0, [sp, #4]
 212              		.loc 3 681 0
 213 00a4 019B     		ldr	r3, [sp, #4]
 214 00a6 5B68     		ldr	r3, [r3, #4]
 215 00a8 0393     		str	r3, [sp, #12]
 216              		.loc 3 683 0
 217 00aa 039B     		ldr	r3, [sp, #12]
 218 00ac 5A68     		ldr	r2, [r3, #4]
 219 00ae 019B     		ldr	r3, [sp, #4]
 220 00b0 5A60     		str	r2, [r3, #4]
 221              		.loc 3 684 0
 222 00b2 019B     		ldr	r3, [sp, #4]
 223 00b4 5B68     		ldr	r3, [r3, #4]
ARM GAS  /tmp/ccbSVLRw.s 			page 5


 224 00b6 019A     		ldr	r2, [sp, #4]
 225 00b8 1A60     		str	r2, [r3]
 226              		.loc 3 686 0
 227 00ba 039B     		ldr	r3, [sp, #12]
 228              		.loc 3 687 0
 229 00bc 1846     		mov	r0, r3
 230 00be 04B0     		add	sp, sp, #16
 231              		@ sp needed
 232 00c0 7047     		bx	lr
 233              		.cfi_endproc
 234              	.LFE147:
 235              		.size	queue_lifo_remove, .-queue_lifo_remove
 236 00c2 00BF     		.align	2
 237 00c4 AFF30080 		.p2align 4,,15
 237      AFF30080 
 237      AFF30080 
 238              		.thumb
 239              		.thumb_func
 240              		.type	chSysLock, %function
 241              	chSysLock:
 242              	.LFB156:
 243              		.file 4 "../../ChibiOS/os/rt/include/chsys.h"
 244              		.loc 4 346 0
 245              		.cfi_startproc
 246              		@ args = 0, pretend = 0, frame = 0
 247              		@ frame_needed = 0, uses_anonymous_args = 0
 248 00d0 08B5     		push	{r3, lr}
 249              		.cfi_def_cfa_offset 8
 250              		.cfi_offset 3, -8
 251              		.cfi_offset 14, -4
 252              		.loc 4 348 0
 253 00d2 FFF795FF 		bl	port_lock
 254              		.loc 4 351 0
 255 00d6 08BD     		pop	{r3, pc}
 256              		.cfi_endproc
 257              	.LFE156:
 258              		.size	chSysLock, .-chSysLock
 259              		.align	2
 260 00d8 AFF30080 		.p2align 4,,15
 260      AFF30080 
 261              		.thumb
 262              		.thumb_func
 263              		.type	chSysUnlock, %function
 264              	chSysUnlock:
 265              	.LFB157:
 266              		.loc 4 358 0
 267              		.cfi_startproc
 268              		@ args = 0, pretend = 0, frame = 0
 269              		@ frame_needed = 0, uses_anonymous_args = 0
 270 00e0 08B5     		push	{r3, lr}
 271              		.cfi_def_cfa_offset 8
 272              		.cfi_offset 3, -8
 273              		.cfi_offset 14, -4
 274              		.loc 4 371 0
 275 00e2 FFF795FF 		bl	port_unlock
 276              		.loc 4 372 0
 277 00e6 08BD     		pop	{r3, pc}
ARM GAS  /tmp/ccbSVLRw.s 			page 6


 278              		.cfi_endproc
 279              	.LFE157:
 280              		.size	chSysUnlock, .-chSysUnlock
 281              		.align	2
 282 00e8 AFF30080 		.p2align 4,,15
 282      AFF30080 
 283              		.global	chSemObjectInit
 284              		.thumb
 285              		.thumb_func
 286              		.type	chSemObjectInit, %function
 287              	chSemObjectInit:
 288              	.LFB230:
 289              		.file 5 "../../ChibiOS/os/rt/src/chsem.c"
 290              		.loc 5 97 0
 291              		.cfi_startproc
 292              		@ args = 0, pretend = 0, frame = 8
 293              		@ frame_needed = 0, uses_anonymous_args = 0
 294 00f0 00B5     		push	{lr}
 295              		.cfi_def_cfa_offset 4
 296              		.cfi_offset 14, -4
 297 00f2 83B0     		sub	sp, sp, #12
 298              		.cfi_def_cfa_offset 16
 299 00f4 0190     		str	r0, [sp, #4]
 300 00f6 0091     		str	r1, [sp]
 301              		.loc 5 101 0
 302 00f8 019B     		ldr	r3, [sp, #4]
 303 00fa 1846     		mov	r0, r3
 304 00fc FFF790FF 		bl	queue_init
 305              		.loc 5 102 0
 306 0100 019B     		ldr	r3, [sp, #4]
 307 0102 009A     		ldr	r2, [sp]
 308 0104 9A60     		str	r2, [r3, #8]
 309              		.loc 5 103 0
 310 0106 03B0     		add	sp, sp, #12
 311              		@ sp needed
 312 0108 5DF804FB 		ldr	pc, [sp], #4
 313              		.cfi_endproc
 314              	.LFE230:
 315              		.size	chSemObjectInit, .-chSemObjectInit
 316              		.align	2
 317 010c AFF30080 		.p2align 4,,15
 318              		.global	chSemReset
 319              		.thumb
 320              		.thumb_func
 321              		.type	chSemReset, %function
 322              	chSemReset:
 323              	.LFB231:
 324              		.loc 5 120 0
 325              		.cfi_startproc
 326              		@ args = 0, pretend = 0, frame = 8
 327              		@ frame_needed = 0, uses_anonymous_args = 0
 328 0110 00B5     		push	{lr}
 329              		.cfi_def_cfa_offset 4
 330              		.cfi_offset 14, -4
 331 0112 83B0     		sub	sp, sp, #12
 332              		.cfi_def_cfa_offset 16
 333 0114 0190     		str	r0, [sp, #4]
ARM GAS  /tmp/ccbSVLRw.s 			page 7


 334 0116 0091     		str	r1, [sp]
 335              		.loc 5 122 0
 336 0118 FFF7DAFF 		bl	chSysLock
 337              		.loc 5 123 0
 338 011c 0198     		ldr	r0, [sp, #4]
 339 011e 0099     		ldr	r1, [sp]
 340 0120 FFF7FEFF 		bl	chSemResetI
 341              		.loc 5 124 0
 342 0124 FFF7FEFF 		bl	chSchRescheduleS
 343              		.loc 5 125 0
 344 0128 FFF7DAFF 		bl	chSysUnlock
 345              		.loc 5 126 0
 346 012c 03B0     		add	sp, sp, #12
 347              		@ sp needed
 348 012e 5DF804FB 		ldr	pc, [sp], #4
 349              		.cfi_endproc
 350              	.LFE231:
 351              		.size	chSemReset, .-chSemReset
 352 0132 00BF     		.align	2
 353 0134 AFF30080 		.p2align 4,,15
 353      AFF30080 
 353      AFF30080 
 354              		.global	chSemResetI
 355              		.thumb
 356              		.thumb_func
 357              		.type	chSemResetI, %function
 358              	chSemResetI:
 359              	.LFB232:
 360              		.loc 5 147 0
 361              		.cfi_startproc
 362              		@ args = 0, pretend = 0, frame = 16
 363              		@ frame_needed = 0, uses_anonymous_args = 0
 364 0140 00B5     		push	{lr}
 365              		.cfi_def_cfa_offset 4
 366              		.cfi_offset 14, -4
 367 0142 85B0     		sub	sp, sp, #20
 368              		.cfi_def_cfa_offset 24
 369 0144 0190     		str	r0, [sp, #4]
 370 0146 0091     		str	r1, [sp]
 371              		.loc 5 156 0
 372 0148 019B     		ldr	r3, [sp, #4]
 373 014a 9B68     		ldr	r3, [r3, #8]
 374 014c 0393     		str	r3, [sp, #12]
 375              		.loc 5 157 0
 376 014e 019B     		ldr	r3, [sp, #4]
 377 0150 009A     		ldr	r2, [sp]
 378 0152 9A60     		str	r2, [r3, #8]
 379              		.loc 5 158 0
 380 0154 0BE0     		b	.L14
 381              	.L15:
 382              		.loc 5 159 0
 383 0156 019B     		ldr	r3, [sp, #4]
 384 0158 1846     		mov	r0, r3
 385 015a FFF7A1FF 		bl	queue_lifo_remove
 386 015e 0346     		mov	r3, r0
 387 0160 1846     		mov	r0, r3
 388 0162 FFF7FEFF 		bl	chSchReadyI
ARM GAS  /tmp/ccbSVLRw.s 			page 8


 389 0166 0346     		mov	r3, r0
 390 0168 6FF00102 		mvn	r2, #1
 391 016c 1A62     		str	r2, [r3, #32]
 392              	.L14:
 393              		.loc 5 158 0 discriminator 1
 394 016e 039B     		ldr	r3, [sp, #12]
 395 0170 0133     		adds	r3, r3, #1
 396 0172 0393     		str	r3, [sp, #12]
 397 0174 039B     		ldr	r3, [sp, #12]
 398 0176 002B     		cmp	r3, #0
 399 0178 EDDD     		ble	.L15
 400              		.loc 5 161 0
 401 017a 05B0     		add	sp, sp, #20
 402              		@ sp needed
 403 017c 5DF804FB 		ldr	pc, [sp], #4
 404              		.cfi_endproc
 405              	.LFE232:
 406              		.size	chSemResetI, .-chSemResetI
 407              		.align	2
 408              		.p2align 4,,15
 409              		.global	chSemWait
 410              		.thumb
 411              		.thumb_func
 412              		.type	chSemWait, %function
 413              	chSemWait:
 414              	.LFB233:
 415              		.loc 5 175 0
 416              		.cfi_startproc
 417              		@ args = 0, pretend = 0, frame = 16
 418              		@ frame_needed = 0, uses_anonymous_args = 0
 419 0180 00B5     		push	{lr}
 420              		.cfi_def_cfa_offset 4
 421              		.cfi_offset 14, -4
 422 0182 85B0     		sub	sp, sp, #20
 423              		.cfi_def_cfa_offset 24
 424 0184 0190     		str	r0, [sp, #4]
 425              		.loc 5 178 0
 426 0186 FFF7A3FF 		bl	chSysLock
 427              		.loc 5 179 0
 428 018a 0198     		ldr	r0, [sp, #4]
 429 018c FFF7FEFF 		bl	chSemWaitS
 430 0190 0390     		str	r0, [sp, #12]
 431              		.loc 5 180 0
 432 0192 FFF7A5FF 		bl	chSysUnlock
 433              		.loc 5 182 0
 434 0196 039B     		ldr	r3, [sp, #12]
 435              		.loc 5 183 0
 436 0198 1846     		mov	r0, r3
 437 019a 05B0     		add	sp, sp, #20
 438              		@ sp needed
 439 019c 5DF804FB 		ldr	pc, [sp], #4
 440              		.cfi_endproc
 441              	.LFE233:
 442              		.size	chSemWait, .-chSemWait
 443              		.align	2
 444              		.p2align 4,,15
 445              		.global	chSemWaitS
ARM GAS  /tmp/ccbSVLRw.s 			page 9


 446              		.thumb
 447              		.thumb_func
 448              		.type	chSemWaitS, %function
 449              	chSemWaitS:
 450              	.LFB234:
 451              		.loc 5 197 0
 452              		.cfi_startproc
 453              		@ args = 0, pretend = 0, frame = 8
 454              		@ frame_needed = 0, uses_anonymous_args = 0
 455 01a0 00B5     		push	{lr}
 456              		.cfi_def_cfa_offset 4
 457              		.cfi_offset 14, -4
 458 01a2 83B0     		sub	sp, sp, #12
 459              		.cfi_def_cfa_offset 16
 460 01a4 0190     		str	r0, [sp, #4]
 461              		.loc 5 205 0
 462 01a6 019B     		ldr	r3, [sp, #4]
 463 01a8 9B68     		ldr	r3, [r3, #8]
 464 01aa 5A1E     		subs	r2, r3, #1
 465 01ac 019B     		ldr	r3, [sp, #4]
 466 01ae 9A60     		str	r2, [r3, #8]
 467 01b0 019B     		ldr	r3, [sp, #4]
 468 01b2 9B68     		ldr	r3, [r3, #8]
 469 01b4 002B     		cmp	r3, #0
 470 01b6 11DA     		bge	.L19
 471              		.loc 5 206 0
 472 01b8 0B4B     		ldr	r3, .L21
 473 01ba 9B69     		ldr	r3, [r3, #24]
 474 01bc 019A     		ldr	r2, [sp, #4]
 475 01be 1A62     		str	r2, [r3, #32]
 476              		.loc 5 207 0
 477 01c0 094B     		ldr	r3, .L21
 478 01c2 9A69     		ldr	r2, [r3, #24]
 479 01c4 019B     		ldr	r3, [sp, #4]
 480 01c6 1046     		mov	r0, r2
 481 01c8 1946     		mov	r1, r3
 482 01ca FFF739FF 		bl	queue_insert
 483              		.loc 5 208 0
 484 01ce 0520     		movs	r0, #5
 485 01d0 FFF7FEFF 		bl	chSchGoSleepS
 486              		.loc 5 210 0
 487 01d4 044B     		ldr	r3, .L21
 488 01d6 9B69     		ldr	r3, [r3, #24]
 489 01d8 1B6A     		ldr	r3, [r3, #32]
 490 01da 00E0     		b	.L20
 491              	.L19:
 492              		.loc 5 213 0
 493 01dc 0023     		movs	r3, #0
 494              	.L20:
 495              		.loc 5 214 0
 496 01de 1846     		mov	r0, r3
 497 01e0 03B0     		add	sp, sp, #12
 498              		@ sp needed
 499 01e2 5DF804FB 		ldr	pc, [sp], #4
 500              	.L22:
 501 01e6 00BF     		.align	2
 502              	.L21:
ARM GAS  /tmp/ccbSVLRw.s 			page 10


 503 01e8 00000000 		.word	ch
 504              		.cfi_endproc
 505              	.LFE234:
 506              		.size	chSemWaitS, .-chSemWaitS
 507              		.align	2
 508 01ec AFF30080 		.p2align 4,,15
 509              		.global	chSemWaitTimeout
 510              		.thumb
 511              		.thumb_func
 512              		.type	chSemWaitTimeout, %function
 513              	chSemWaitTimeout:
 514              	.LFB235:
 515              		.loc 5 235 0
 516              		.cfi_startproc
 517              		@ args = 0, pretend = 0, frame = 16
 518              		@ frame_needed = 0, uses_anonymous_args = 0
 519 01f0 00B5     		push	{lr}
 520              		.cfi_def_cfa_offset 4
 521              		.cfi_offset 14, -4
 522 01f2 85B0     		sub	sp, sp, #20
 523              		.cfi_def_cfa_offset 24
 524 01f4 0190     		str	r0, [sp, #4]
 525 01f6 0091     		str	r1, [sp]
 526              		.loc 5 238 0
 527 01f8 FFF76AFF 		bl	chSysLock
 528              		.loc 5 239 0
 529 01fc 0198     		ldr	r0, [sp, #4]
 530 01fe 0099     		ldr	r1, [sp]
 531 0200 FFF7FEFF 		bl	chSemWaitTimeoutS
 532 0204 0390     		str	r0, [sp, #12]
 533              		.loc 5 240 0
 534 0206 FFF76BFF 		bl	chSysUnlock
 535              		.loc 5 242 0
 536 020a 039B     		ldr	r3, [sp, #12]
 537              		.loc 5 243 0
 538 020c 1846     		mov	r0, r3
 539 020e 05B0     		add	sp, sp, #20
 540              		@ sp needed
 541 0210 5DF804FB 		ldr	pc, [sp], #4
 542              		.cfi_endproc
 543              	.LFE235:
 544              		.size	chSemWaitTimeout, .-chSemWaitTimeout
 545              		.align	2
 546 0214 AFF30080 		.p2align 4,,15
 546      AFF30080 
 546      AFF30080 
 547              		.global	chSemWaitTimeoutS
 548              		.thumb
 549              		.thumb_func
 550              		.type	chSemWaitTimeoutS, %function
 551              	chSemWaitTimeoutS:
 552              	.LFB236:
 553              		.loc 5 264 0
 554              		.cfi_startproc
 555              		@ args = 0, pretend = 0, frame = 8
 556              		@ frame_needed = 0, uses_anonymous_args = 0
 557 0220 00B5     		push	{lr}
ARM GAS  /tmp/ccbSVLRw.s 			page 11


 558              		.cfi_def_cfa_offset 4
 559              		.cfi_offset 14, -4
 560 0222 83B0     		sub	sp, sp, #12
 561              		.cfi_def_cfa_offset 16
 562 0224 0190     		str	r0, [sp, #4]
 563 0226 0091     		str	r1, [sp]
 564              		.loc 5 272 0
 565 0228 019B     		ldr	r3, [sp, #4]
 566 022a 9B68     		ldr	r3, [r3, #8]
 567 022c 5A1E     		subs	r2, r3, #1
 568 022e 019B     		ldr	r3, [sp, #4]
 569 0230 9A60     		str	r2, [r3, #8]
 570 0232 019B     		ldr	r3, [sp, #4]
 571 0234 9B68     		ldr	r3, [r3, #8]
 572 0236 002B     		cmp	r3, #0
 573 0238 1BDA     		bge	.L26
 574              		.loc 5 273 0
 575 023a 009B     		ldr	r3, [sp]
 576 023c 002B     		cmp	r3, #0
 577 023e 07D1     		bne	.L27
 578              		.loc 5 274 0
 579 0240 019B     		ldr	r3, [sp, #4]
 580 0242 9B68     		ldr	r3, [r3, #8]
 581 0244 5A1C     		adds	r2, r3, #1
 582 0246 019B     		ldr	r3, [sp, #4]
 583 0248 9A60     		str	r2, [r3, #8]
 584              		.loc 5 276 0
 585 024a 4FF0FF33 		mov	r3, #-1
 586 024e 11E0     		b	.L28
 587              	.L27:
 588              		.loc 5 278 0
 589 0250 0A4B     		ldr	r3, .L29
 590 0252 9B69     		ldr	r3, [r3, #24]
 591 0254 019A     		ldr	r2, [sp, #4]
 592 0256 1A62     		str	r2, [r3, #32]
 593              		.loc 5 279 0
 594 0258 084B     		ldr	r3, .L29
 595 025a 9A69     		ldr	r2, [r3, #24]
 596 025c 019B     		ldr	r3, [sp, #4]
 597 025e 1046     		mov	r0, r2
 598 0260 1946     		mov	r1, r3
 599 0262 FFF7EDFE 		bl	queue_insert
 600              		.loc 5 281 0
 601 0266 0520     		movs	r0, #5
 602 0268 0099     		ldr	r1, [sp]
 603 026a FFF7FEFF 		bl	chSchGoSleepTimeoutS
 604 026e 0346     		mov	r3, r0
 605 0270 00E0     		b	.L28
 606              	.L26:
 607              		.loc 5 284 0
 608 0272 0023     		movs	r3, #0
 609              	.L28:
 610              		.loc 5 285 0
 611 0274 1846     		mov	r0, r3
 612 0276 03B0     		add	sp, sp, #12
 613              		@ sp needed
 614 0278 5DF804FB 		ldr	pc, [sp], #4
ARM GAS  /tmp/ccbSVLRw.s 			page 12


 615              	.L30:
 616              		.align	2
 617              	.L29:
 618 027c 00000000 		.word	ch
 619              		.cfi_endproc
 620              	.LFE236:
 621              		.size	chSemWaitTimeoutS, .-chSemWaitTimeoutS
 622              		.align	2
 623              		.p2align 4,,15
 624              		.global	chSemSignal
 625              		.thumb
 626              		.thumb_func
 627              		.type	chSemSignal, %function
 628              	chSemSignal:
 629              	.LFB237:
 630              		.loc 5 294 0
 631              		.cfi_startproc
 632              		@ args = 0, pretend = 0, frame = 8
 633              		@ frame_needed = 0, uses_anonymous_args = 0
 634 0280 00B5     		push	{lr}
 635              		.cfi_def_cfa_offset 4
 636              		.cfi_offset 14, -4
 637 0282 83B0     		sub	sp, sp, #12
 638              		.cfi_def_cfa_offset 16
 639 0284 0190     		str	r0, [sp, #4]
 640              		.loc 5 301 0
 641 0286 FFF723FF 		bl	chSysLock
 642              		.loc 5 302 0
 643 028a 019B     		ldr	r3, [sp, #4]
 644 028c 9B68     		ldr	r3, [r3, #8]
 645 028e 5A1C     		adds	r2, r3, #1
 646 0290 019B     		ldr	r3, [sp, #4]
 647 0292 9A60     		str	r2, [r3, #8]
 648 0294 019B     		ldr	r3, [sp, #4]
 649 0296 9B68     		ldr	r3, [r3, #8]
 650 0298 002B     		cmp	r3, #0
 651 029a 08DC     		bgt	.L32
 652              		.loc 5 303 0
 653 029c 019B     		ldr	r3, [sp, #4]
 654 029e 1846     		mov	r0, r3
 655 02a0 FFF7E6FE 		bl	queue_fifo_remove
 656 02a4 0346     		mov	r3, r0
 657 02a6 1846     		mov	r0, r3
 658 02a8 0021     		movs	r1, #0
 659 02aa FFF7FEFF 		bl	chSchWakeupS
 660              	.L32:
 661              		.loc 5 305 0
 662 02ae FFF717FF 		bl	chSysUnlock
 663              		.loc 5 306 0
 664 02b2 03B0     		add	sp, sp, #12
 665              		@ sp needed
 666 02b4 5DF804FB 		ldr	pc, [sp], #4
 667              		.cfi_endproc
 668              	.LFE237:
 669              		.size	chSemSignal, .-chSemSignal
 670              		.align	2
 671 02b8 AFF30080 		.p2align 4,,15
ARM GAS  /tmp/ccbSVLRw.s 			page 13


 671      AFF30080 
 672              		.global	chSemSignalI
 673              		.thumb
 674              		.thumb_func
 675              		.type	chSemSignalI, %function
 676              	chSemSignalI:
 677              	.LFB238:
 678              		.loc 5 319 0
 679              		.cfi_startproc
 680              		@ args = 0, pretend = 0, frame = 16
 681              		@ frame_needed = 0, uses_anonymous_args = 0
 682 02c0 00B5     		push	{lr}
 683              		.cfi_def_cfa_offset 4
 684              		.cfi_offset 14, -4
 685 02c2 85B0     		sub	sp, sp, #20
 686              		.cfi_def_cfa_offset 24
 687 02c4 0190     		str	r0, [sp, #4]
 688              		.loc 5 327 0
 689 02c6 019B     		ldr	r3, [sp, #4]
 690 02c8 9B68     		ldr	r3, [r3, #8]
 691 02ca 5A1C     		adds	r2, r3, #1
 692 02cc 019B     		ldr	r3, [sp, #4]
 693 02ce 9A60     		str	r2, [r3, #8]
 694 02d0 019B     		ldr	r3, [sp, #4]
 695 02d2 9B68     		ldr	r3, [r3, #8]
 696 02d4 002B     		cmp	r3, #0
 697 02d6 0ADC     		bgt	.L33
 698              	.LBB10:
 699              		.loc 5 330 0
 700 02d8 019B     		ldr	r3, [sp, #4]
 701 02da 1846     		mov	r0, r3
 702 02dc FFF7C8FE 		bl	queue_fifo_remove
 703 02e0 0390     		str	r0, [sp, #12]
 704              		.loc 5 331 0
 705 02e2 039B     		ldr	r3, [sp, #12]
 706 02e4 0022     		movs	r2, #0
 707 02e6 1A62     		str	r2, [r3, #32]
 708              		.loc 5 332 0
 709 02e8 0398     		ldr	r0, [sp, #12]
 710 02ea FFF7FEFF 		bl	chSchReadyI
 711              	.L33:
 712              	.LBE10:
 713              		.loc 5 334 0
 714 02ee 05B0     		add	sp, sp, #20
 715              		@ sp needed
 716 02f0 5DF804FB 		ldr	pc, [sp], #4
 717              		.cfi_endproc
 718              	.LFE238:
 719              		.size	chSemSignalI, .-chSemSignalI
 720              		.align	2
 721 02f4 AFF30080 		.p2align 4,,15
 721      AFF30080 
 721      AFF30080 
 722              		.global	chSemAddCounterI
 723              		.thumb
 724              		.thumb_func
 725              		.type	chSemAddCounterI, %function
ARM GAS  /tmp/ccbSVLRw.s 			page 14


 726              	chSemAddCounterI:
 727              	.LFB239:
 728              		.loc 5 349 0
 729              		.cfi_startproc
 730              		@ args = 0, pretend = 0, frame = 8
 731              		@ frame_needed = 0, uses_anonymous_args = 0
 732 0300 00B5     		push	{lr}
 733              		.cfi_def_cfa_offset 4
 734              		.cfi_offset 14, -4
 735 0302 83B0     		sub	sp, sp, #12
 736              		.cfi_def_cfa_offset 16
 737 0304 0190     		str	r0, [sp, #4]
 738 0306 0091     		str	r1, [sp]
 739              		.loc 5 357 0
 740 0308 16E0     		b	.L36
 741              	.L38:
 742              		.loc 5 358 0
 743 030a 019B     		ldr	r3, [sp, #4]
 744 030c 9B68     		ldr	r3, [r3, #8]
 745 030e 5A1C     		adds	r2, r3, #1
 746 0310 019B     		ldr	r3, [sp, #4]
 747 0312 9A60     		str	r2, [r3, #8]
 748 0314 019B     		ldr	r3, [sp, #4]
 749 0316 9B68     		ldr	r3, [r3, #8]
 750 0318 002B     		cmp	r3, #0
 751 031a 0ADC     		bgt	.L37
 752              		.loc 5 359 0
 753 031c 019B     		ldr	r3, [sp, #4]
 754 031e 1846     		mov	r0, r3
 755 0320 FFF7A6FE 		bl	queue_fifo_remove
 756 0324 0346     		mov	r3, r0
 757 0326 1846     		mov	r0, r3
 758 0328 FFF7FEFF 		bl	chSchReadyI
 759 032c 0346     		mov	r3, r0
 760 032e 0022     		movs	r2, #0
 761 0330 1A62     		str	r2, [r3, #32]
 762              	.L37:
 763              		.loc 5 361 0
 764 0332 009B     		ldr	r3, [sp]
 765 0334 013B     		subs	r3, r3, #1
 766 0336 0093     		str	r3, [sp]
 767              	.L36:
 768              		.loc 5 357 0 discriminator 1
 769 0338 009B     		ldr	r3, [sp]
 770 033a 002B     		cmp	r3, #0
 771 033c E5DC     		bgt	.L38
 772              		.loc 5 363 0
 773 033e 03B0     		add	sp, sp, #12
 774              		@ sp needed
 775 0340 5DF804FB 		ldr	pc, [sp], #4
 776              		.cfi_endproc
 777              	.LFE239:
 778              		.size	chSemAddCounterI, .-chSemAddCounterI
 779              		.align	2
 780 0344 AFF30080 		.p2align 4,,15
 780      AFF30080 
 780      AFF30080 
ARM GAS  /tmp/ccbSVLRw.s 			page 15


 781              		.global	chSemSignalWait
 782              		.thumb
 783              		.thumb_func
 784              		.type	chSemSignalWait, %function
 785              	chSemSignalWait:
 786              	.LFB240:
 787              		.loc 5 378 0
 788              		.cfi_startproc
 789              		@ args = 0, pretend = 0, frame = 16
 790              		@ frame_needed = 0, uses_anonymous_args = 0
 791 0350 00B5     		push	{lr}
 792              		.cfi_def_cfa_offset 4
 793              		.cfi_offset 14, -4
 794 0352 85B0     		sub	sp, sp, #20
 795              		.cfi_def_cfa_offset 24
 796 0354 0190     		str	r0, [sp, #4]
 797 0356 0091     		str	r1, [sp]
 798              		.loc 5 389 0
 799 0358 FFF7BAFE 		bl	chSysLock
 800              		.loc 5 390 0
 801 035c 019B     		ldr	r3, [sp, #4]
 802 035e 9B68     		ldr	r3, [r3, #8]
 803 0360 5A1C     		adds	r2, r3, #1
 804 0362 019B     		ldr	r3, [sp, #4]
 805 0364 9A60     		str	r2, [r3, #8]
 806 0366 019B     		ldr	r3, [sp, #4]
 807 0368 9B68     		ldr	r3, [r3, #8]
 808 036a 002B     		cmp	r3, #0
 809 036c 0ADC     		bgt	.L40
 810              		.loc 5 391 0
 811 036e 019B     		ldr	r3, [sp, #4]
 812 0370 1846     		mov	r0, r3
 813 0372 FFF77DFE 		bl	queue_fifo_remove
 814 0376 0346     		mov	r3, r0
 815 0378 1846     		mov	r0, r3
 816 037a FFF7FEFF 		bl	chSchReadyI
 817 037e 0346     		mov	r3, r0
 818 0380 0022     		movs	r2, #0
 819 0382 1A62     		str	r2, [r3, #32]
 820              	.L40:
 821              		.loc 5 393 0
 822 0384 009B     		ldr	r3, [sp]
 823 0386 9B68     		ldr	r3, [r3, #8]
 824 0388 5A1E     		subs	r2, r3, #1
 825 038a 009B     		ldr	r3, [sp]
 826 038c 9A60     		str	r2, [r3, #8]
 827 038e 009B     		ldr	r3, [sp]
 828 0390 9B68     		ldr	r3, [r3, #8]
 829 0392 002B     		cmp	r3, #0
 830 0394 11DA     		bge	.L41
 831              	.LBB11:
 832              		.loc 5 394 0
 833 0396 0E4B     		ldr	r3, .L44
 834 0398 9B69     		ldr	r3, [r3, #24]
 835 039a 0293     		str	r3, [sp, #8]
 836              		.loc 5 395 0
 837 039c 009B     		ldr	r3, [sp]
ARM GAS  /tmp/ccbSVLRw.s 			page 16


 838 039e 0298     		ldr	r0, [sp, #8]
 839 03a0 1946     		mov	r1, r3
 840 03a2 FFF74DFE 		bl	queue_insert
 841              		.loc 5 396 0
 842 03a6 029B     		ldr	r3, [sp, #8]
 843 03a8 009A     		ldr	r2, [sp]
 844 03aa 1A62     		str	r2, [r3, #32]
 845              		.loc 5 397 0
 846 03ac 0520     		movs	r0, #5
 847 03ae FFF7FEFF 		bl	chSchGoSleepS
 848              		.loc 5 398 0
 849 03b2 029B     		ldr	r3, [sp, #8]
 850 03b4 1B6A     		ldr	r3, [r3, #32]
 851 03b6 0393     		str	r3, [sp, #12]
 852              	.LBE11:
 853 03b8 03E0     		b	.L42
 854              	.L41:
 855              		.loc 5 401 0
 856 03ba FFF7FEFF 		bl	chSchRescheduleS
 857              		.loc 5 402 0
 858 03be 0023     		movs	r3, #0
 859 03c0 0393     		str	r3, [sp, #12]
 860              	.L42:
 861              		.loc 5 404 0
 862 03c2 FFF78DFE 		bl	chSysUnlock
 863              		.loc 5 406 0
 864 03c6 039B     		ldr	r3, [sp, #12]
 865              		.loc 5 407 0
 866 03c8 1846     		mov	r0, r3
 867 03ca 05B0     		add	sp, sp, #20
 868              		@ sp needed
 869 03cc 5DF804FB 		ldr	pc, [sp], #4
 870              	.L45:
 871              		.align	2
 872              	.L44:
 873 03d0 00000000 		.word	ch
 874              		.cfi_endproc
 875              	.LFE240:
 876              		.size	chSemSignalWait, .-chSemSignalWait
 877              	.Letext0:
 878              		.file 6 "/nfs/nfs5/home/research/hardware/arm2/gcc-arm-embedded/gcc-arm-none-eabi-4_8-2014q2/arm-n
 879              		.file 7 "/nfs/nfs5/home/research/hardware/arm2/gcc-arm-embedded/gcc-arm-none-eabi-4_8-2014q2/arm-n
 880              		.file 8 "../../ChibiOS/os/rt/ports/ARMCMx/compilers/GCC/chtypes.h"
 881              		.file 9 "../../ChibiOS/os/rt/include/chsystypes.h"
 882              		.file 10 "../../ChibiOS/os/rt/ports/ARMCMx/chcore.h"
 883              		.file 11 "../../ChibiOS/os/rt/include/chtm.h"
 884              		.file 12 "../../ChibiOS/os/rt/include/chsem.h"
 885              		.file 13 "../../ChibiOS/os/rt/include/chmtx.h"
 886              		.file 14 "../../ChibiOS/os/ext/CMSIS/include/core_cm4.h"