ARM GAS  /tmp/ccbvaNLN.s 			page 1


   1              		.syntax unified
   2              		.cpu cortex-m4
   3              		.fpu softvfp
   4              		.eabi_attribute 20, 1
   5              		.eabi_attribute 21, 1
   6              		.eabi_attribute 23, 3
   7              		.eabi_attribute 24, 1
   8              		.eabi_attribute 25, 1
   9              		.eabi_attribute 26, 1
  10              		.eabi_attribute 30, 6
  11              		.eabi_attribute 34, 1
  12              		.eabi_attribute 18, 4
  13              		.thumb
  14              		.file	"chsys.c"
  15              		.text
  16              	.Ltext0:
  17              		.cfi_sections	.debug_frame
  18              		.align	2
  19              		.p2align 4,,15
  20              		.thumb
  21              		.thumb_func
  22              		.type	NVIC_SetPriorityGrouping, %function
  23              	NVIC_SetPriorityGrouping:
  24              	.LFB106:
  25              		.file 1 "../../ChibiOS/os/ext/CMSIS/include/core_cm4.h"
  26              		.loc 1 1516 0
  27              		.cfi_startproc
  28              		@ args = 0, pretend = 0, frame = 16
  29              		@ frame_needed = 0, uses_anonymous_args = 0
  30              		@ link register save eliminated.
  31 0000 84B0     		sub	sp, sp, #16
  32              		.cfi_def_cfa_offset 16
  33 0002 0190     		str	r0, [sp, #4]
  34              		.loc 1 1518 0
  35 0004 019B     		ldr	r3, [sp, #4]
  36 0006 03F00703 		and	r3, r3, #7
  37 000a 0393     		str	r3, [sp, #12]
  38              		.loc 1 1520 0
  39 000c 0A4B     		ldr	r3, .L2
  40 000e DB68     		ldr	r3, [r3, #12]
  41 0010 0293     		str	r3, [sp, #8]
  42              		.loc 1 1521 0
  43 0012 029A     		ldr	r2, [sp, #8]
  44 0014 4FF6FF03 		movw	r3, #63743
  45 0018 1340     		ands	r3, r3, r2
  46 001a 0293     		str	r3, [sp, #8]
  47              		.loc 1 1524 0
  48 001c 039B     		ldr	r3, [sp, #12]
  49 001e 1A02     		lsls	r2, r3, #8
  50              		.loc 1 1523 0
  51 0020 029B     		ldr	r3, [sp, #8]
  52 0022 1343     		orrs	r3, r3, r2
  53              		.loc 1 1522 0
  54 0024 43F0BF63 		orr	r3, r3, #100139008
  55 0028 43F40033 		orr	r3, r3, #131072
  56 002c 0293     		str	r3, [sp, #8]
  57              		.loc 1 1525 0
ARM GAS  /tmp/ccbvaNLN.s 			page 2


  58 002e 024B     		ldr	r3, .L2
  59 0030 029A     		ldr	r2, [sp, #8]
  60 0032 DA60     		str	r2, [r3, #12]
  61              		.loc 1 1526 0
  62 0034 04B0     		add	sp, sp, #16
  63              		@ sp needed
  64 0036 7047     		bx	lr
  65              	.L3:
  66              		.align	2
  67              	.L2:
  68 0038 00ED00E0 		.word	-536810240
  69              		.cfi_endproc
  70              	.LFE106:
  71              		.size	NVIC_SetPriorityGrouping, .-NVIC_SetPriorityGrouping
  72              		.align	2
  73 003c AFF30080 		.p2align 4,,15
  74              		.thumb
  75              		.thumb_func
  76              		.type	NVIC_SetPriority, %function
  77              	NVIC_SetPriority:
  78              	.LFB114:
  79              		.loc 1 1630 0
  80              		.cfi_startproc
  81              		@ args = 0, pretend = 0, frame = 8
  82              		@ frame_needed = 0, uses_anonymous_args = 0
  83              		@ link register save eliminated.
  84 0040 82B0     		sub	sp, sp, #8
  85              		.cfi_def_cfa_offset 8
  86 0042 0346     		mov	r3, r0
  87 0044 0091     		str	r1, [sp]
  88 0046 8DF80730 		strb	r3, [sp, #7]
  89              		.loc 1 1631 0
  90 004a 9DF90730 		ldrsb	r3, [sp, #7]
  91 004e 002B     		cmp	r3, #0
  92 0050 0CDA     		bge	.L5
  93              		.loc 1 1632 0
  94 0052 0C49     		ldr	r1, .L7
  95 0054 9DF80730 		ldrb	r3, [sp, #7]	@ zero_extendqisi2
  96 0058 03F00F03 		and	r3, r3, #15
  97 005c 043B     		subs	r3, r3, #4
  98 005e 009A     		ldr	r2, [sp]
  99 0060 D2B2     		uxtb	r2, r2
 100 0062 1201     		lsls	r2, r2, #4
 101 0064 D2B2     		uxtb	r2, r2
 102 0066 0B44     		add	r3, r3, r1
 103 0068 1A76     		strb	r2, [r3, #24]
 104 006a 09E0     		b	.L4
 105              	.L5:
 106              		.loc 1 1635 0
 107 006c 0649     		ldr	r1, .L7+4
 108 006e 9DF90730 		ldrsb	r3, [sp, #7]
 109 0072 009A     		ldr	r2, [sp]
 110 0074 D2B2     		uxtb	r2, r2
 111 0076 1201     		lsls	r2, r2, #4
 112 0078 D2B2     		uxtb	r2, r2
 113 007a 0B44     		add	r3, r3, r1
 114 007c 83F80023 		strb	r2, [r3, #768]
ARM GAS  /tmp/ccbvaNLN.s 			page 3


 115              	.L4:
 116              		.loc 1 1637 0
 117 0080 02B0     		add	sp, sp, #8
 118              		@ sp needed
 119 0082 7047     		bx	lr
 120              	.L8:
 121              		.align	2
 122              	.L7:
 123 0084 00ED00E0 		.word	-536810240
 124 0088 00E100E0 		.word	-536813312
 125              		.cfi_endproc
 126              	.LFE114:
 127              		.size	NVIC_SetPriority, .-NVIC_SetPriority
 128              		.align	2
 129 008c AFF30080 		.p2align 4,,15
 130              		.thumb
 131              		.thumb_func
 132              		.type	port_init, %function
 133              	port_init:
 134              	.LFB123:
 135              		.file 2 "../../ChibiOS/os/rt/ports/ARMCMx/chcore_v7m.h"
 136              		.loc 2 383 0
 137              		.cfi_startproc
 138              		@ args = 0, pretend = 0, frame = 0
 139              		@ frame_needed = 0, uses_anonymous_args = 0
 140 0090 08B5     		push	{r3, lr}
 141              		.cfi_def_cfa_offset 8
 142              		.cfi_offset 3, -8
 143              		.cfi_offset 14, -4
 144              		.loc 2 386 0
 145 0092 0E4B     		ldr	r3, .L10
 146 0094 0022     		movs	r2, #0
 147 0096 9A60     		str	r2, [r3, #8]
 148              		.loc 2 389 0
 149 0098 0320     		movs	r0, #3
 150 009a FFF7B1FF 		bl	NVIC_SetPriorityGrouping
 151              		.loc 2 392 0
 152 009e 0C4B     		ldr	r3, .L10+4
 153 00a0 0B4A     		ldr	r2, .L10+4
 154 00a2 D268     		ldr	r2, [r2, #12]
 155 00a4 42F08072 		orr	r2, r2, #16777216
 156 00a8 DA60     		str	r2, [r3, #12]
 157              		.loc 2 396 0
 158 00aa 0A4B     		ldr	r3, .L10+8
 159 00ac 094A     		ldr	r2, .L10+8
 160 00ae 1268     		ldr	r2, [r2]
 161 00b0 42F00102 		orr	r2, r2, #1
 162 00b4 1A60     		str	r2, [r3]
 163              		.loc 2 400 0
 164 00b6 6FF00400 		mvn	r0, #4
 165 00ba 0121     		movs	r1, #1
 166 00bc FFF7C0FF 		bl	NVIC_SetPriority
 167              		.loc 2 402 0
 168 00c0 6FF00100 		mvn	r0, #1
 169 00c4 0221     		movs	r1, #2
 170 00c6 FFF7BBFF 		bl	NVIC_SetPriority
 171              		.loc 2 403 0
ARM GAS  /tmp/ccbvaNLN.s 			page 4


 172 00ca 08BD     		pop	{r3, pc}
 173              	.L11:
 174              		.align	2
 175              	.L10:
 176 00cc 00ED00E0 		.word	-536810240
 177 00d0 F0ED00E0 		.word	-536810000
 178 00d4 001000E0 		.word	-536866816
 179              		.cfi_endproc
 180              	.LFE123:
 181              		.size	port_init, .-port_init
 182              		.align	2
 183 00d8 AFF30080 		.p2align 4,,15
 183      AFF30080 
 184              		.thumb
 185              		.thumb_func
 186              		.type	port_get_irq_status, %function
 187              	port_get_irq_status:
 188              	.LFB124:
 189              		.loc 2 410 0
 190              		.cfi_startproc
 191              		@ args = 0, pretend = 0, frame = 8
 192              		@ frame_needed = 0, uses_anonymous_args = 0
 193              		@ link register save eliminated.
 194 00e0 82B0     		sub	sp, sp, #8
 195              		.cfi_def_cfa_offset 8
 196              	.LBB16:
 197              	.LBB17:
 198              		.file 3 "../../ChibiOS/os/ext/CMSIS/include/core_cmFunc.h"
 199              		.loc 3 535 0
 200              	@ 535 "../../ChibiOS/os/ext/CMSIS/include/core_cmFunc.h" 1
 201 00e2 EFF31183 		MRS r3, basepri
 202              	@ 0 "" 2
 203              		.thumb
 204 00e6 0093     		str	r3, [sp]
 205              		.loc 3 536 0
 206 00e8 009B     		ldr	r3, [sp]
 207              	.LBE17:
 208              	.LBE16:
 209              		.loc 2 414 0
 210 00ea 0193     		str	r3, [sp, #4]
 211              		.loc 2 418 0
 212 00ec 019B     		ldr	r3, [sp, #4]
 213              		.loc 2 419 0
 214 00ee 1846     		mov	r0, r3
 215 00f0 02B0     		add	sp, sp, #8
 216              		@ sp needed
 217 00f2 7047     		bx	lr
 218              		.cfi_endproc
 219              	.LFE124:
 220              		.size	port_get_irq_status, .-port_get_irq_status
 221              		.align	2
 222 00f4 AFF30080 		.p2align 4,,15
 222      AFF30080 
 222      AFF30080 
 223              		.thumb
 224              		.thumb_func
 225              		.type	port_irq_enabled, %function
ARM GAS  /tmp/ccbvaNLN.s 			page 5


 226              	port_irq_enabled:
 227              	.LFB125:
 228              		.loc 2 430 0
 229              		.cfi_startproc
 230              		@ args = 0, pretend = 0, frame = 8
 231              		@ frame_needed = 0, uses_anonymous_args = 0
 232              		@ link register save eliminated.
 233 0100 82B0     		sub	sp, sp, #8
 234              		.cfi_def_cfa_offset 8
 235 0102 0190     		str	r0, [sp, #4]
 236              		.loc 2 433 0
 237 0104 019B     		ldr	r3, [sp, #4]
 238 0106 002B     		cmp	r3, #0
 239 0108 14BF     		ite	ne
 240 010a 0023     		movne	r3, #0
 241 010c 0123     		moveq	r3, #1
 242 010e DBB2     		uxtb	r3, r3
 243              		.loc 2 437 0
 244 0110 1846     		mov	r0, r3
 245 0112 02B0     		add	sp, sp, #8
 246              		@ sp needed
 247 0114 7047     		bx	lr
 248              		.cfi_endproc
 249              	.LFE125:
 250              		.size	port_irq_enabled, .-port_irq_enabled
 251 0116 00BF     		.align	2
 252 0118 AFF30080 		.p2align 4,,15
 252      AFF30080 
 253              		.thumb
 254              		.thumb_func
 255              		.type	port_is_isr_context, %function
 256              	port_is_isr_context:
 257              	.LFB126:
 258              		.loc 2 446 0
 259              		.cfi_startproc
 260              		@ args = 0, pretend = 0, frame = 8
 261              		@ frame_needed = 0, uses_anonymous_args = 0
 262              		@ link register save eliminated.
 263 0120 82B0     		sub	sp, sp, #8
 264              		.cfi_def_cfa_offset 8
 265              	.LBB18:
 266              	.LBB19:
 267              		.loc 3 385 0
 268              	@ 385 "../../ChibiOS/os/ext/CMSIS/include/core_cmFunc.h" 1
 269 0122 EFF30583 		MRS r3, ipsr
 270              	@ 0 "" 2
 271              		.thumb
 272 0126 0193     		str	r3, [sp, #4]
 273              		.loc 3 386 0
 274 0128 019B     		ldr	r3, [sp, #4]
 275              	.LBE19:
 276              	.LBE18:
 277              		.loc 2 448 0
 278 012a C3F30803 		ubfx	r3, r3, #0, #9
 279 012e 002B     		cmp	r3, #0
 280 0130 0CBF     		ite	eq
 281 0132 0023     		moveq	r3, #0
ARM GAS  /tmp/ccbvaNLN.s 			page 6


 282 0134 0123     		movne	r3, #1
 283 0136 DBB2     		uxtb	r3, r3
 284              		.loc 2 449 0
 285 0138 1846     		mov	r0, r3
 286 013a 02B0     		add	sp, sp, #8
 287              		@ sp needed
 288 013c 7047     		bx	lr
 289              		.cfi_endproc
 290              	.LFE126:
 291              		.size	port_is_isr_context, .-port_is_isr_context
 292 013e 00BF     		.align	2
 293              		.p2align 4,,15
 294              		.thumb
 295              		.thumb_func
 296              		.type	port_lock, %function
 297              	port_lock:
 298              	.LFB127:
 299              		.loc 2 456 0
 300              		.cfi_startproc
 301              		@ args = 0, pretend = 0, frame = 8
 302              		@ frame_needed = 0, uses_anonymous_args = 0
 303              		@ link register save eliminated.
 304 0140 82B0     		sub	sp, sp, #8
 305              		.cfi_def_cfa_offset 8
 306 0142 2023     		movs	r3, #32
 307 0144 0193     		str	r3, [sp, #4]
 308              	.LBB20:
 309              	.LBB21:
 310              		.loc 3 548 0
 311 0146 019B     		ldr	r3, [sp, #4]
 312              	@ 548 "../../ChibiOS/os/ext/CMSIS/include/core_cmFunc.h" 1
 313 0148 83F31188 		MSR basepri, r3
 314              	@ 0 "" 2
 315              		.thumb
 316              	.LBE21:
 317              	.LBE20:
 318              		.loc 2 473 0
 319 014c 02B0     		add	sp, sp, #8
 320              		@ sp needed
 321 014e 7047     		bx	lr
 322              		.cfi_endproc
 323              	.LFE127:
 324              		.size	port_lock, .-port_lock
 325              		.align	2
 326              		.p2align 4,,15
 327              		.thumb
 328              		.thumb_func
 329              		.type	port_unlock, %function
 330              	port_unlock:
 331              	.LFB128:
 332              		.loc 2 480 0
 333              		.cfi_startproc
 334              		@ args = 0, pretend = 0, frame = 8
 335              		@ frame_needed = 0, uses_anonymous_args = 0
 336              		@ link register save eliminated.
 337 0150 82B0     		sub	sp, sp, #8
 338              		.cfi_def_cfa_offset 8
ARM GAS  /tmp/ccbvaNLN.s 			page 7


 339 0152 0023     		movs	r3, #0
 340 0154 0193     		str	r3, [sp, #4]
 341              	.LBB22:
 342              	.LBB23:
 343              		.loc 3 548 0
 344 0156 019B     		ldr	r3, [sp, #4]
 345              	@ 548 "../../ChibiOS/os/ext/CMSIS/include/core_cmFunc.h" 1
 346 0158 83F31188 		MSR basepri, r3
 347              	@ 0 "" 2
 348              		.thumb
 349              	.LBE23:
 350              	.LBE22:
 351              		.loc 2 487 0
 352 015c 02B0     		add	sp, sp, #8
 353              		@ sp needed
 354 015e 7047     		bx	lr
 355              		.cfi_endproc
 356              	.LFE128:
 357              		.size	port_unlock, .-port_unlock
 358              		.align	2
 359              		.p2align 4,,15
 360              		.thumb
 361              		.thumb_func
 362              		.type	port_lock_from_isr, %function
 363              	port_lock_from_isr:
 364              	.LFB129:
 365              		.loc 2 495 0
 366              		.cfi_startproc
 367              		@ args = 0, pretend = 0, frame = 0
 368              		@ frame_needed = 0, uses_anonymous_args = 0
 369 0160 08B5     		push	{r3, lr}
 370              		.cfi_def_cfa_offset 8
 371              		.cfi_offset 3, -8
 372              		.cfi_offset 14, -4
 373              		.loc 2 497 0
 374 0162 FFF7EDFF 		bl	port_lock
 375              		.loc 2 498 0
 376 0166 08BD     		pop	{r3, pc}
 377              		.cfi_endproc
 378              	.LFE129:
 379              		.size	port_lock_from_isr, .-port_lock_from_isr
 380              		.align	2
 381 0168 AFF30080 		.p2align 4,,15
 381      AFF30080 
 382              		.thumb
 383              		.thumb_func
 384              		.type	port_unlock_from_isr, %function
 385              	port_unlock_from_isr:
 386              	.LFB130:
 387              		.loc 2 506 0
 388              		.cfi_startproc
 389              		@ args = 0, pretend = 0, frame = 0
 390              		@ frame_needed = 0, uses_anonymous_args = 0
 391 0170 08B5     		push	{r3, lr}
 392              		.cfi_def_cfa_offset 8
 393              		.cfi_offset 3, -8
 394              		.cfi_offset 14, -4
ARM GAS  /tmp/ccbvaNLN.s 			page 8


 395              		.loc 2 508 0
 396 0172 FFF7EDFF 		bl	port_unlock
 397              		.loc 2 509 0
 398 0176 08BD     		pop	{r3, pc}
 399              		.cfi_endproc
 400              	.LFE130:
 401              		.size	port_unlock_from_isr, .-port_unlock_from_isr
 402              		.align	2
 403 0178 AFF30080 		.p2align 4,,15
 403      AFF30080 
 404              		.thumb
 405              		.thumb_func
 406              		.type	port_disable, %function
 407              	port_disable:
 408              	.LFB131:
 409              		.loc 2 516 0
 410              		.cfi_startproc
 411              		@ args = 0, pretend = 0, frame = 0
 412              		@ frame_needed = 0, uses_anonymous_args = 0
 413              		@ link register save eliminated.
 414              	.LBB24:
 415              	.LBB25:
 416              		.loc 3 344 0
 417              	@ 344 "../../ChibiOS/os/ext/CMSIS/include/core_cmFunc.h" 1
 418 0180 72B6     		cpsid i
 419              	@ 0 "" 2
 420              		.thumb
 421              	.LBE25:
 422              	.LBE24:
 423              		.loc 2 519 0
 424 0182 7047     		bx	lr
 425              		.cfi_endproc
 426              	.LFE131:
 427              		.size	port_disable, .-port_disable
 428              		.align	2
 429 0184 AFF30080 		.p2align 4,,15
 429      AFF30080 
 429      AFF30080 
 430              		.thumb
 431              		.thumb_func
 432              		.type	port_enable, %function
 433              	port_enable:
 434              	.LFB133:
 435              		.loc 2 540 0
 436              		.cfi_startproc
 437              		@ args = 0, pretend = 0, frame = 8
 438              		@ frame_needed = 0, uses_anonymous_args = 0
 439              		@ link register save eliminated.
 440 0190 82B0     		sub	sp, sp, #8
 441              		.cfi_def_cfa_offset 8
 442 0192 0023     		movs	r3, #0
 443 0194 0193     		str	r3, [sp, #4]
 444              	.LBB26:
 445              	.LBB27:
 446              		.loc 3 548 0
 447 0196 019B     		ldr	r3, [sp, #4]
 448              	@ 548 "../../ChibiOS/os/ext/CMSIS/include/core_cmFunc.h" 1
ARM GAS  /tmp/ccbvaNLN.s 			page 9


 449 0198 83F31188 		MSR basepri, r3
 450              	@ 0 "" 2
 451              		.thumb
 452              	.LBE27:
 453              	.LBE26:
 454              	.LBB28:
 455              	.LBB29:
 456              		.loc 3 333 0
 457              	@ 333 "../../ChibiOS/os/ext/CMSIS/include/core_cmFunc.h" 1
 458 019c 62B6     		cpsie i
 459              	@ 0 "" 2
 460              		.thumb
 461              	.LBE29:
 462              	.LBE28:
 463              		.loc 2 546 0
 464 019e 02B0     		add	sp, sp, #8
 465              		@ sp needed
 466 01a0 7047     		bx	lr
 467              		.cfi_endproc
 468              	.LFE133:
 469              		.size	port_enable, .-port_enable
 470 01a2 00BF     		.align	2
 471 01a4 AFF30080 		.p2align 4,,15
 471      AFF30080 
 471      AFF30080 
 472              		.thumb
 473              		.thumb_func
 474              		.type	port_wait_for_interrupt, %function
 475              	port_wait_for_interrupt:
 476              	.LFB134:
 477              		.loc 2 556 0
 478              		.cfi_startproc
 479              		@ args = 0, pretend = 0, frame = 0
 480              		@ frame_needed = 0, uses_anonymous_args = 0
 481              		@ link register save eliminated.
 482              		.loc 2 561 0
 483 01b0 7047     		bx	lr
 484              		.cfi_endproc
 485              	.LFE134:
 486              		.size	port_wait_for_interrupt, .-port_wait_for_interrupt
 487 01b2 00BF     		.align	2
 488 01b4 AFF30080 		.p2align 4,,15
 488      AFF30080 
 488      AFF30080 
 489              		.thumb
 490              		.thumb_func
 491              		.type	port_rt_get_counter_value, %function
 492              	port_rt_get_counter_value:
 493              	.LFB135:
 494              		.loc 2 568 0
 495              		.cfi_startproc
 496              		@ args = 0, pretend = 0, frame = 0
 497              		@ frame_needed = 0, uses_anonymous_args = 0
 498              		@ link register save eliminated.
 499              		.loc 2 570 0
 500 01c0 014B     		ldr	r3, .L29
 501 01c2 5B68     		ldr	r3, [r3, #4]
ARM GAS  /tmp/ccbvaNLN.s 			page 10


 502              		.loc 2 571 0
 503 01c4 1846     		mov	r0, r3
 504 01c6 7047     		bx	lr
 505              	.L30:
 506              		.align	2
 507              	.L29:
 508 01c8 001000E0 		.word	-536866816
 509              		.cfi_endproc
 510              	.LFE135:
 511              		.size	port_rt_get_counter_value, .-port_rt_get_counter_value
 512              		.align	2
 513 01cc AFF30080 		.p2align 4,,15
 514              		.thumb
 515              		.thumb_func
 516              		.type	chSysEnable, %function
 517              	chSysEnable:
 518              	.LFB155:
 519              		.file 4 "../../ChibiOS/os/rt/include/chsys.h"
 520              		.loc 4 335 0
 521              		.cfi_startproc
 522              		@ args = 0, pretend = 0, frame = 0
 523              		@ frame_needed = 0, uses_anonymous_args = 0
 524 01d0 08B5     		push	{r3, lr}
 525              		.cfi_def_cfa_offset 8
 526              		.cfi_offset 3, -8
 527              		.cfi_offset 14, -4
 528              		.loc 4 338 0
 529 01d2 FFF7DDFF 		bl	port_enable
 530              		.loc 4 339 0
 531 01d6 08BD     		pop	{r3, pc}
 532              		.cfi_endproc
 533              	.LFE155:
 534              		.size	chSysEnable, .-chSysEnable
 535              		.align	2
 536 01d8 AFF30080 		.p2align 4,,15
 536      AFF30080 
 537              		.thumb
 538              		.thumb_func
 539              		.type	chSysLock, %function
 540              	chSysLock:
 541              	.LFB156:
 542              		.loc 4 346 0
 543              		.cfi_startproc
 544              		@ args = 0, pretend = 0, frame = 0
 545              		@ frame_needed = 0, uses_anonymous_args = 0
 546 01e0 08B5     		push	{r3, lr}
 547              		.cfi_def_cfa_offset 8
 548              		.cfi_offset 3, -8
 549              		.cfi_offset 14, -4
 550              		.loc 4 348 0
 551 01e2 FFF7ADFF 		bl	port_lock
 552              		.loc 4 351 0
 553 01e6 08BD     		pop	{r3, pc}
 554              		.cfi_endproc
 555              	.LFE156:
 556              		.size	chSysLock, .-chSysLock
 557              		.align	2
ARM GAS  /tmp/ccbvaNLN.s 			page 11


 558 01e8 AFF30080 		.p2align 4,,15
 558      AFF30080 
 559              		.thumb
 560              		.thumb_func
 561              		.type	chSysUnlock, %function
 562              	chSysUnlock:
 563              	.LFB157:
 564              		.loc 4 358 0
 565              		.cfi_startproc
 566              		@ args = 0, pretend = 0, frame = 0
 567              		@ frame_needed = 0, uses_anonymous_args = 0
 568 01f0 08B5     		push	{r3, lr}
 569              		.cfi_def_cfa_offset 8
 570              		.cfi_offset 3, -8
 571              		.cfi_offset 14, -4
 572              		.loc 4 371 0
 573 01f2 FFF7ADFF 		bl	port_unlock
 574              		.loc 4 372 0
 575 01f6 08BD     		pop	{r3, pc}
 576              		.cfi_endproc
 577              	.LFE157:
 578              		.size	chSysUnlock, .-chSysUnlock
 579              		.align	2
 580 01f8 AFF30080 		.p2align 4,,15
 580      AFF30080 
 581              		.thumb
 582              		.thumb_func
 583              		.type	chSysLockFromISR, %function
 584              	chSysLockFromISR:
 585              	.LFB158:
 586              		.loc 4 386 0
 587              		.cfi_startproc
 588              		@ args = 0, pretend = 0, frame = 0
 589              		@ frame_needed = 0, uses_anonymous_args = 0
 590 0200 08B5     		push	{r3, lr}
 591              		.cfi_def_cfa_offset 8
 592              		.cfi_offset 3, -8
 593              		.cfi_offset 14, -4
 594              		.loc 4 388 0
 595 0202 FFF7ADFF 		bl	port_lock_from_isr
 596              		.loc 4 391 0
 597 0206 08BD     		pop	{r3, pc}
 598              		.cfi_endproc
 599              	.LFE158:
 600              		.size	chSysLockFromISR, .-chSysLockFromISR
 601              		.align	2
 602 0208 AFF30080 		.p2align 4,,15
 602      AFF30080 
 603              		.thumb
 604              		.thumb_func
 605              		.type	chSysUnlockFromISR, %function
 606              	chSysUnlockFromISR:
 607              	.LFB159:
 608              		.loc 4 406 0
 609              		.cfi_startproc
 610              		@ args = 0, pretend = 0, frame = 0
 611              		@ frame_needed = 0, uses_anonymous_args = 0
ARM GAS  /tmp/ccbvaNLN.s 			page 12


 612 0210 08B5     		push	{r3, lr}
 613              		.cfi_def_cfa_offset 8
 614              		.cfi_offset 3, -8
 615              		.cfi_offset 14, -4
 616              		.loc 4 410 0
 617 0212 FFF7ADFF 		bl	port_unlock_from_isr
 618              		.loc 4 411 0
 619 0216 08BD     		pop	{r3, pc}
 620              		.cfi_endproc
 621              	.LFE159:
 622              		.size	chSysUnlockFromISR, .-chSysUnlockFromISR
 623              		.align	2
 624 0218 AFF30080 		.p2align 4,,15
 624      AFF30080 
 625              		.thumb
 626              		.thumb_func
 627              		.type	chVTDoTickI, %function
 628              	chVTDoTickI:
 629              	.LFB177:
 630              		.file 5 "../../ChibiOS/os/rt/include/chvt.h"
 631              		.loc 5 502 0
 632              		.cfi_startproc
 633              		@ args = 0, pretend = 0, frame = 8
 634              		@ frame_needed = 0, uses_anonymous_args = 0
 635 0220 00B5     		push	{lr}
 636              		.cfi_def_cfa_offset 4
 637              		.cfi_offset 14, -4
 638 0222 83B0     		sub	sp, sp, #12
 639              		.cfi_def_cfa_offset 16
 640              		.loc 5 507 0
 641 0224 184B     		ldr	r3, .L40
 642 0226 9B6A     		ldr	r3, [r3, #40]
 643 0228 5A1C     		adds	r2, r3, #1
 644 022a 174B     		ldr	r3, .L40
 645 022c 9A62     		str	r2, [r3, #40]
 646              		.loc 5 508 0
 647 022e 164B     		ldr	r3, .L40
 648 0230 DA69     		ldr	r2, [r3, #28]
 649 0232 164B     		ldr	r3, .L40+4
 650 0234 9A42     		cmp	r2, r3
 651 0236 24D0     		beq	.L36
 652              		.loc 5 510 0
 653 0238 134B     		ldr	r3, .L40
 654 023a DB69     		ldr	r3, [r3, #28]
 655 023c 9A68     		ldr	r2, [r3, #8]
 656 023e 013A     		subs	r2, r2, #1
 657 0240 9A60     		str	r2, [r3, #8]
 658              		.loc 5 511 0
 659 0242 19E0     		b	.L38
 660              	.L39:
 661              	.LBB30:
 662              		.loc 5 515 0
 663 0244 104B     		ldr	r3, .L40
 664 0246 DB69     		ldr	r3, [r3, #28]
 665 0248 0193     		str	r3, [sp, #4]
 666              		.loc 5 516 0
 667 024a 019B     		ldr	r3, [sp, #4]
ARM GAS  /tmp/ccbvaNLN.s 			page 13


 668 024c DB68     		ldr	r3, [r3, #12]
 669 024e 0093     		str	r3, [sp]
 670              		.loc 5 517 0
 671 0250 019B     		ldr	r3, [sp, #4]
 672 0252 0022     		movs	r2, #0
 673 0254 DA60     		str	r2, [r3, #12]
 674              		.loc 5 518 0
 675 0256 019B     		ldr	r3, [sp, #4]
 676 0258 1B68     		ldr	r3, [r3]
 677 025a 0C4A     		ldr	r2, .L40+4
 678 025c 5A60     		str	r2, [r3, #4]
 679              		.loc 5 519 0
 680 025e 019B     		ldr	r3, [sp, #4]
 681 0260 1A68     		ldr	r2, [r3]
 682 0262 094B     		ldr	r3, .L40
 683 0264 DA61     		str	r2, [r3, #28]
 684              		.loc 5 520 0
 685 0266 FFF7D3FF 		bl	chSysUnlockFromISR
 686              		.loc 5 521 0
 687 026a 019B     		ldr	r3, [sp, #4]
 688 026c 1A69     		ldr	r2, [r3, #16]
 689 026e 009B     		ldr	r3, [sp]
 690 0270 1046     		mov	r0, r2
 691 0272 9847     		blx	r3
 692              		.loc 5 522 0
 693 0274 FFF7C4FF 		bl	chSysLockFromISR
 694              	.L38:
 695              	.LBE30:
 696              		.loc 5 511 0 discriminator 1
 697 0278 034B     		ldr	r3, .L40
 698 027a DB69     		ldr	r3, [r3, #28]
 699 027c 9B68     		ldr	r3, [r3, #8]
 700 027e 002B     		cmp	r3, #0
 701 0280 E0D0     		beq	.L39
 702              	.L36:
 703              		.loc 5 587 0
 704 0282 03B0     		add	sp, sp, #12
 705              		@ sp needed
 706 0284 5DF804FB 		ldr	pc, [sp], #4
 707              	.L41:
 708              		.align	2
 709              	.L40:
 710 0288 00000000 		.word	ch
 711 028c 1C000000 		.word	ch+28
 712              		.cfi_endproc
 713              	.LFE177:
 714              		.size	chVTDoTickI, .-chVTDoTickI
 715              		.align	2
 716              		.p2align 4,,15
 717              		.thumb
 718              		.thumb_func
 719              		.type	chRegSetThreadName, %function
 720              	chRegSetThreadName:
 721              	.LFB187:
 722              		.file 6 "../../ChibiOS/os/rt/include/chregistry.h"
 723              		.loc 6 132 0
 724              		.cfi_startproc
ARM GAS  /tmp/ccbvaNLN.s 			page 14


 725              		@ args = 0, pretend = 0, frame = 8
 726              		@ frame_needed = 0, uses_anonymous_args = 0
 727              		@ link register save eliminated.
 728 0290 82B0     		sub	sp, sp, #8
 729              		.cfi_def_cfa_offset 8
 730 0292 0190     		str	r0, [sp, #4]
 731              		.loc 6 135 0
 732 0294 024B     		ldr	r3, .L43
 733 0296 9B69     		ldr	r3, [r3, #24]
 734 0298 019A     		ldr	r2, [sp, #4]
 735 029a 9A61     		str	r2, [r3, #24]
 736              		.loc 6 139 0
 737 029c 02B0     		add	sp, sp, #8
 738              		@ sp needed
 739 029e 7047     		bx	lr
 740              	.L44:
 741              		.align	2
 742              	.L43:
 743 02a0 00000000 		.word	ch
 744              		.cfi_endproc
 745              	.LFE187:
 746              		.size	chRegSetThreadName, .-chRegSetThreadName
 747              		.align	2
 748 02a4 AFF30080 		.p2align 4,,15
 748      AFF30080 
 748      AFF30080 
 749              		.thumb
 750              		.thumb_func
 751              		.type	chRegSetThreadNameX, %function
 752              	chRegSetThreadNameX:
 753              	.LFB189:
 754              		.loc 6 172 0
 755              		.cfi_startproc
 756              		@ args = 0, pretend = 0, frame = 8
 757              		@ frame_needed = 0, uses_anonymous_args = 0
 758              		@ link register save eliminated.
 759 02b0 82B0     		sub	sp, sp, #8
 760              		.cfi_def_cfa_offset 8
 761 02b2 0190     		str	r0, [sp, #4]
 762 02b4 0091     		str	r1, [sp]
 763              		.loc 6 175 0
 764 02b6 019B     		ldr	r3, [sp, #4]
 765 02b8 009A     		ldr	r2, [sp]
 766 02ba 9A61     		str	r2, [r3, #24]
 767              		.loc 6 180 0
 768 02bc 02B0     		add	sp, sp, #8
 769              		@ sp needed
 770 02be 7047     		bx	lr
 771              		.cfi_endproc
 772              	.LFE189:
 773              		.size	chRegSetThreadNameX, .-chRegSetThreadNameX
 774              		.align	2
 775              		.p2align 4,,15
 776              		.thumb
 777              		.thumb_func
 778              		.type	_idle_thread, %function
 779              	_idle_thread:
ARM GAS  /tmp/ccbvaNLN.s 			page 15


 780              	.LFB230:
 781              		.file 7 "../../ChibiOS/os/rt/src/chsys.c"
 782              		.loc 7 65 0
 783              		.cfi_startproc
 784              		@ args = 0, pretend = 0, frame = 8
 785              		@ frame_needed = 0, uses_anonymous_args = 0
 786 02c0 00B5     		push	{lr}
 787              		.cfi_def_cfa_offset 4
 788              		.cfi_offset 14, -4
 789 02c2 83B0     		sub	sp, sp, #12
 790              		.cfi_def_cfa_offset 16
 791 02c4 0190     		str	r0, [sp, #4]
 792              	.L47:
 793              		.loc 7 72 0 discriminator 1
 794 02c6 FFF773FF 		bl	port_wait_for_interrupt
 795              		.loc 7 75 0 discriminator 1
 796 02ca FCE7     		b	.L47
 797              		.cfi_endproc
 798              	.LFE230:
 799              		.size	_idle_thread, .-_idle_thread
 800              		.section	.rodata
 801              		.align	2
 802              	.LC0:
 803 0000 69646C65 		.ascii	"idle\000"
 803      00
 804 0005 000000   		.text
 805              		.align	2
 806 02cc AFF30080 		.p2align 4,,15
 807              		.global	chSysInit
 808              		.thumb
 809              		.thumb_func
 810              		.type	chSysInit, %function
 811              	chSysInit:
 812              	.LFB231:
 813              		.loc 7 93 0
 814              		.cfi_startproc
 815              		@ args = 0, pretend = 0, frame = 8
 816              		@ frame_needed = 0, uses_anonymous_args = 0
 817 02d0 00B5     		push	{lr}
 818              		.cfi_def_cfa_offset 4
 819              		.cfi_offset 14, -4
 820 02d2 85B0     		sub	sp, sp, #20
 821              		.cfi_def_cfa_offset 24
 822              		.loc 7 98 0
 823 02d4 FFF7DCFE 		bl	port_init
 824              		.loc 7 99 0
 825 02d8 FFF7FEFF 		bl	_scheduler_init
 826              		.loc 7 100 0
 827 02dc FFF7FEFF 		bl	_vt_init
 828              		.loc 7 102 0
 829 02e0 FFF7FEFF 		bl	_tm_init
 830              		.loc 7 105 0
 831 02e4 FFF7FEFF 		bl	_core_init
 832              		.loc 7 108 0
 833 02e8 FFF7FEFF 		bl	_heap_init
 834              		.loc 7 119 0
 835 02ec 0F48     		ldr	r0, .L49
ARM GAS  /tmp/ccbvaNLN.s 			page 16


 836 02ee 4021     		movs	r1, #64
 837 02f0 FFF7FEFF 		bl	_thread_init
 838 02f4 0246     		mov	r2, r0
 839 02f6 0E4B     		ldr	r3, .L49+4
 840 02f8 9A61     		str	r2, [r3, #24]
 841              		.loc 7 125 0
 842 02fa 0D4B     		ldr	r3, .L49+4
 843 02fc 9B69     		ldr	r3, [r3, #24]
 844 02fe 0122     		movs	r2, #1
 845 0300 1A77     		strb	r2, [r3, #28]
 846              		.loc 7 137 0
 847 0302 FFF765FF 		bl	chSysEnable
 848              		.loc 7 142 0
 849 0306 0B48     		ldr	r0, .L49+8
 850 0308 FFF7C2FF 		bl	chRegSetThreadName
 851              	.LBB31:
 852              		.loc 7 150 0
 853 030c 0023     		movs	r3, #0
 854 030e 0093     		str	r3, [sp]
 855 0310 0948     		ldr	r0, .L49+12
 856 0312 D821     		movs	r1, #216
 857 0314 0122     		movs	r2, #1
 858 0316 094B     		ldr	r3, .L49+16
 859 0318 FFF7FEFF 		bl	chThdCreateStatic
 860 031c 0390     		str	r0, [sp, #12]
 861              		.loc 7 155 0
 862 031e 0398     		ldr	r0, [sp, #12]
 863 0320 0749     		ldr	r1, .L49+20
 864 0322 FFF7C5FF 		bl	chRegSetThreadNameX
 865              	.LBE31:
 866              		.loc 7 158 0
 867 0326 05B0     		add	sp, sp, #20
 868              		@ sp needed
 869 0328 5DF804FB 		ldr	pc, [sp], #4
 870              	.L50:
 871              		.align	2
 872              	.L49:
 873 032c 30000000 		.word	ch+48
 874 0330 00000000 		.word	ch
 875 0334 00000000 		.word	ch_debug
 876 0338 78000000 		.word	ch+120
 877 033c 00000000 		.word	_idle_thread
 878 0340 00000000 		.word	.LC0
 879              		.cfi_endproc
 880              	.LFE231:
 881              		.size	chSysInit, .-chSysInit
 882              		.align	2
 883 0344 AFF30080 		.p2align 4,,15
 883      AFF30080 
 883      AFF30080 
 884              		.global	chSysHalt
 885              		.thumb
 886              		.thumb_func
 887              		.type	chSysHalt, %function
 888              	chSysHalt:
 889              	.LFB232:
 890              		.loc 7 172 0
ARM GAS  /tmp/ccbvaNLN.s 			page 17


 891              		.cfi_startproc
 892              		@ args = 0, pretend = 0, frame = 8
 893              		@ frame_needed = 0, uses_anonymous_args = 0
 894 0350 00B5     		push	{lr}
 895              		.cfi_def_cfa_offset 4
 896              		.cfi_offset 14, -4
 897 0352 83B0     		sub	sp, sp, #12
 898              		.cfi_def_cfa_offset 16
 899 0354 0190     		str	r0, [sp, #4]
 900              		.loc 7 174 0
 901 0356 FFF713FF 		bl	port_disable
 902              		.loc 7 181 0
 903 035a 024B     		ldr	r3, .L53
 904 035c 019A     		ldr	r2, [sp, #4]
 905 035e DA62     		str	r2, [r3, #44]
 906              	.L52:
 907              		.loc 7 185 0 discriminator 1
 908 0360 FEE7     		b	.L52
 909              	.L54:
 910 0362 00BF     		.align	2
 911              	.L53:
 912 0364 00000000 		.word	ch
 913              		.cfi_endproc
 914              	.LFE232:
 915              		.size	chSysHalt, .-chSysHalt
 916              		.align	2
 917 0368 AFF30080 		.p2align 4,,15
 917      AFF30080 
 918              		.global	chSysIntegrityCheckI
 919              		.thumb
 920              		.thumb_func
 921              		.type	chSysIntegrityCheckI, %function
 922              	chSysIntegrityCheckI:
 923              	.LFB233:
 924              		.loc 7 212 0
 925              		.cfi_startproc
 926              		@ args = 0, pretend = 0, frame = 24
 927              		@ frame_needed = 0, uses_anonymous_args = 0
 928              		@ link register save eliminated.
 929 0370 86B0     		sub	sp, sp, #24
 930              		.cfi_def_cfa_offset 24
 931 0372 0190     		str	r0, [sp, #4]
 932              		.loc 7 218 0
 933 0374 019B     		ldr	r3, [sp, #4]
 934 0376 03F00103 		and	r3, r3, #1
 935 037a 002B     		cmp	r3, #0
 936 037c 22D0     		beq	.L56
 937              	.LBB32:
 938              		.loc 7 222 0
 939 037e 0023     		movs	r3, #0
 940 0380 0593     		str	r3, [sp, #20]
 941              		.loc 7 223 0
 942 0382 3A4B     		ldr	r3, .L72
 943 0384 1B68     		ldr	r3, [r3]
 944 0386 0493     		str	r3, [sp, #16]
 945              		.loc 7 224 0
 946 0388 05E0     		b	.L57
ARM GAS  /tmp/ccbvaNLN.s 			page 18


 947              	.L58:
 948              		.loc 7 225 0
 949 038a 059B     		ldr	r3, [sp, #20]
 950 038c 0133     		adds	r3, r3, #1
 951 038e 0593     		str	r3, [sp, #20]
 952              		.loc 7 226 0
 953 0390 049B     		ldr	r3, [sp, #16]
 954 0392 1B68     		ldr	r3, [r3]
 955 0394 0493     		str	r3, [sp, #16]
 956              	.L57:
 957              		.loc 7 224 0 discriminator 1
 958 0396 049A     		ldr	r2, [sp, #16]
 959 0398 344B     		ldr	r3, .L72
 960 039a 9A42     		cmp	r2, r3
 961 039c F5D1     		bne	.L58
 962              		.loc 7 230 0
 963 039e 334B     		ldr	r3, .L72
 964 03a0 5B68     		ldr	r3, [r3, #4]
 965 03a2 0493     		str	r3, [sp, #16]
 966              		.loc 7 231 0
 967 03a4 05E0     		b	.L59
 968              	.L60:
 969              		.loc 7 232 0
 970 03a6 059B     		ldr	r3, [sp, #20]
 971 03a8 013B     		subs	r3, r3, #1
 972 03aa 0593     		str	r3, [sp, #20]
 973              		.loc 7 233 0
 974 03ac 049B     		ldr	r3, [sp, #16]
 975 03ae 5B68     		ldr	r3, [r3, #4]
 976 03b0 0493     		str	r3, [sp, #16]
 977              	.L59:
 978              		.loc 7 231 0 discriminator 1
 979 03b2 049A     		ldr	r2, [sp, #16]
 980 03b4 2D4B     		ldr	r3, .L72
 981 03b6 9A42     		cmp	r2, r3
 982 03b8 F5D1     		bne	.L60
 983              		.loc 7 237 0
 984 03ba 059B     		ldr	r3, [sp, #20]
 985 03bc 002B     		cmp	r3, #0
 986 03be 01D0     		beq	.L56
 987              		.loc 7 238 0
 988 03c0 0123     		movs	r3, #1
 989 03c2 50E0     		b	.L61
 990              	.L56:
 991              	.LBE32:
 992              		.loc 7 243 0
 993 03c4 019B     		ldr	r3, [sp, #4]
 994 03c6 03F00203 		and	r3, r3, #2
 995 03ca 002B     		cmp	r3, #0
 996 03cc 22D0     		beq	.L62
 997              	.LBB33:
 998              		.loc 7 247 0
 999 03ce 0023     		movs	r3, #0
 1000 03d0 0593     		str	r3, [sp, #20]
 1001              		.loc 7 248 0
 1002 03d2 264B     		ldr	r3, .L72
 1003 03d4 DB69     		ldr	r3, [r3, #28]
ARM GAS  /tmp/ccbvaNLN.s 			page 19


 1004 03d6 0393     		str	r3, [sp, #12]
 1005              		.loc 7 249 0
 1006 03d8 05E0     		b	.L63
 1007              	.L64:
 1008              		.loc 7 250 0
 1009 03da 059B     		ldr	r3, [sp, #20]
 1010 03dc 0133     		adds	r3, r3, #1
 1011 03de 0593     		str	r3, [sp, #20]
 1012              		.loc 7 251 0
 1013 03e0 039B     		ldr	r3, [sp, #12]
 1014 03e2 1B68     		ldr	r3, [r3]
 1015 03e4 0393     		str	r3, [sp, #12]
 1016              	.L63:
 1017              		.loc 7 249 0 discriminator 1
 1018 03e6 039A     		ldr	r2, [sp, #12]
 1019 03e8 214B     		ldr	r3, .L72+4
 1020 03ea 9A42     		cmp	r2, r3
 1021 03ec F5D1     		bne	.L64
 1022              		.loc 7 255 0
 1023 03ee 1F4B     		ldr	r3, .L72
 1024 03f0 1B6A     		ldr	r3, [r3, #32]
 1025 03f2 0393     		str	r3, [sp, #12]
 1026              		.loc 7 256 0
 1027 03f4 05E0     		b	.L65
 1028              	.L66:
 1029              		.loc 7 257 0
 1030 03f6 059B     		ldr	r3, [sp, #20]
 1031 03f8 013B     		subs	r3, r3, #1
 1032 03fa 0593     		str	r3, [sp, #20]
 1033              		.loc 7 258 0
 1034 03fc 039B     		ldr	r3, [sp, #12]
 1035 03fe 5B68     		ldr	r3, [r3, #4]
 1036 0400 0393     		str	r3, [sp, #12]
 1037              	.L65:
 1038              		.loc 7 256 0 discriminator 1
 1039 0402 039A     		ldr	r2, [sp, #12]
 1040 0404 1A4B     		ldr	r3, .L72+4
 1041 0406 9A42     		cmp	r2, r3
 1042 0408 F5D1     		bne	.L66
 1043              		.loc 7 262 0
 1044 040a 059B     		ldr	r3, [sp, #20]
 1045 040c 002B     		cmp	r3, #0
 1046 040e 01D0     		beq	.L62
 1047              		.loc 7 263 0
 1048 0410 0123     		movs	r3, #1
 1049 0412 28E0     		b	.L61
 1050              	.L62:
 1051              	.LBE33:
 1052              		.loc 7 268 0
 1053 0414 019B     		ldr	r3, [sp, #4]
 1054 0416 03F00403 		and	r3, r3, #4
 1055 041a 002B     		cmp	r3, #0
 1056 041c 22D0     		beq	.L67
 1057              	.LBB34:
 1058              		.loc 7 272 0
 1059 041e 0023     		movs	r3, #0
 1060 0420 0593     		str	r3, [sp, #20]
ARM GAS  /tmp/ccbvaNLN.s 			page 20


 1061              		.loc 7 273 0
 1062 0422 124B     		ldr	r3, .L72
 1063 0424 1B69     		ldr	r3, [r3, #16]
 1064 0426 0293     		str	r3, [sp, #8]
 1065              		.loc 7 274 0
 1066 0428 05E0     		b	.L68
 1067              	.L69:
 1068              		.loc 7 275 0
 1069 042a 059B     		ldr	r3, [sp, #20]
 1070 042c 0133     		adds	r3, r3, #1
 1071 042e 0593     		str	r3, [sp, #20]
 1072              		.loc 7 276 0
 1073 0430 029B     		ldr	r3, [sp, #8]
 1074 0432 1B69     		ldr	r3, [r3, #16]
 1075 0434 0293     		str	r3, [sp, #8]
 1076              	.L68:
 1077              		.loc 7 274 0 discriminator 1
 1078 0436 029A     		ldr	r2, [sp, #8]
 1079 0438 0C4B     		ldr	r3, .L72
 1080 043a 9A42     		cmp	r2, r3
 1081 043c F5D1     		bne	.L69
 1082              		.loc 7 280 0
 1083 043e 0B4B     		ldr	r3, .L72
 1084 0440 5B69     		ldr	r3, [r3, #20]
 1085 0442 0293     		str	r3, [sp, #8]
 1086              		.loc 7 281 0
 1087 0444 05E0     		b	.L70
 1088              	.L71:
 1089              		.loc 7 282 0
 1090 0446 059B     		ldr	r3, [sp, #20]
 1091 0448 013B     		subs	r3, r3, #1
 1092 044a 0593     		str	r3, [sp, #20]
 1093              		.loc 7 283 0
 1094 044c 029B     		ldr	r3, [sp, #8]
 1095 044e 5B69     		ldr	r3, [r3, #20]
 1096 0450 0293     		str	r3, [sp, #8]
 1097              	.L70:
 1098              		.loc 7 281 0 discriminator 1
 1099 0452 029A     		ldr	r2, [sp, #8]
 1100 0454 054B     		ldr	r3, .L72
 1101 0456 9A42     		cmp	r2, r3
 1102 0458 F5D1     		bne	.L71
 1103              		.loc 7 287 0
 1104 045a 059B     		ldr	r3, [sp, #20]
 1105 045c 002B     		cmp	r3, #0
 1106 045e 01D0     		beq	.L67
 1107              		.loc 7 288 0
 1108 0460 0123     		movs	r3, #1
 1109 0462 00E0     		b	.L61
 1110              	.L67:
 1111              	.LBE34:
 1112              		.loc 7 299 0
 1113 0464 0023     		movs	r3, #0
 1114              	.L61:
 1115              		.loc 7 300 0
 1116 0466 1846     		mov	r0, r3
 1117 0468 06B0     		add	sp, sp, #24
ARM GAS  /tmp/ccbvaNLN.s 			page 21


 1118              		@ sp needed
 1119 046a 7047     		bx	lr
 1120              	.L73:
 1121              		.align	2
 1122              	.L72:
 1123 046c 00000000 		.word	ch
 1124 0470 1C000000 		.word	ch+28
 1125              		.cfi_endproc
 1126              	.LFE233:
 1127              		.size	chSysIntegrityCheckI, .-chSysIntegrityCheckI
 1128              		.align	2
 1129 0474 AFF30080 		.p2align 4,,15
 1129      AFF30080 
 1129      AFF30080 
 1130              		.global	chSysTimerHandlerI
 1131              		.thumb
 1132              		.thumb_func
 1133              		.type	chSysTimerHandlerI, %function
 1134              	chSysTimerHandlerI:
 1135              	.LFB234:
 1136              		.loc 7 313 0
 1137              		.cfi_startproc
 1138              		@ args = 0, pretend = 0, frame = 0
 1139              		@ frame_needed = 0, uses_anonymous_args = 0
 1140 0480 08B5     		push	{r3, lr}
 1141              		.cfi_def_cfa_offset 8
 1142              		.cfi_offset 3, -8
 1143              		.cfi_offset 14, -4
 1144              		.loc 7 319 0
 1145 0482 074B     		ldr	r3, .L76
 1146 0484 9B69     		ldr	r3, [r3, #24]
 1147 0486 DB7F     		ldrb	r3, [r3, #31]	@ zero_extendqisi2
 1148 0488 002B     		cmp	r3, #0
 1149 048a 05D0     		beq	.L75
 1150              		.loc 7 321 0
 1151 048c 044B     		ldr	r3, .L76
 1152 048e 9B69     		ldr	r3, [r3, #24]
 1153 0490 DA7F     		ldrb	r2, [r3, #31]	@ zero_extendqisi2
 1154 0492 013A     		subs	r2, r2, #1
 1155 0494 D2B2     		uxtb	r2, r2
 1156 0496 DA77     		strb	r2, [r3, #31]
 1157              	.L75:
 1158              		.loc 7 327 0
 1159 0498 FFF7C2FE 		bl	chVTDoTickI
 1160              		.loc 7 331 0
 1161 049c 08BD     		pop	{r3, pc}
 1162              	.L77:
 1163 049e 00BF     		.align	2
 1164              	.L76:
 1165 04a0 00000000 		.word	ch
 1166              		.cfi_endproc
 1167              	.LFE234:
 1168              		.size	chSysTimerHandlerI, .-chSysTimerHandlerI
 1169              		.align	2
 1170 04a4 AFF30080 		.p2align 4,,15
 1170      AFF30080 
 1170      AFF30080 
ARM GAS  /tmp/ccbvaNLN.s 			page 22


 1171              		.global	chSysGetStatusAndLockX
 1172              		.thumb
 1173              		.thumb_func
 1174              		.type	chSysGetStatusAndLockX, %function
 1175              	chSysGetStatusAndLockX:
 1176              	.LFB235:
 1177              		.loc 7 346 0
 1178              		.cfi_startproc
 1179              		@ args = 0, pretend = 0, frame = 8
 1180              		@ frame_needed = 0, uses_anonymous_args = 0
 1181 04b0 00B5     		push	{lr}
 1182              		.cfi_def_cfa_offset 4
 1183              		.cfi_offset 14, -4
 1184 04b2 83B0     		sub	sp, sp, #12
 1185              		.cfi_def_cfa_offset 16
 1186              		.loc 7 348 0
 1187 04b4 FFF714FE 		bl	port_get_irq_status
 1188 04b8 0190     		str	r0, [sp, #4]
 1189              		.loc 7 349 0
 1190 04ba 0198     		ldr	r0, [sp, #4]
 1191 04bc FFF720FE 		bl	port_irq_enabled
 1192 04c0 0346     		mov	r3, r0
 1193 04c2 002B     		cmp	r3, #0
 1194 04c4 09D0     		beq	.L79
 1195              		.loc 7 350 0
 1196 04c6 FFF72BFE 		bl	port_is_isr_context
 1197 04ca 0346     		mov	r3, r0
 1198 04cc 002B     		cmp	r3, #0
 1199 04ce 02D0     		beq	.L80
 1200              		.loc 7 351 0
 1201 04d0 FFF796FE 		bl	chSysLockFromISR
 1202 04d4 01E0     		b	.L79
 1203              	.L80:
 1204              		.loc 7 354 0
 1205 04d6 FFF783FE 		bl	chSysLock
 1206              	.L79:
 1207              		.loc 7 357 0
 1208 04da 019B     		ldr	r3, [sp, #4]
 1209              		.loc 7 358 0
 1210 04dc 1846     		mov	r0, r3
 1211 04de 03B0     		add	sp, sp, #12
 1212              		@ sp needed
 1213 04e0 5DF804FB 		ldr	pc, [sp], #4
 1214              		.cfi_endproc
 1215              	.LFE235:
 1216              		.size	chSysGetStatusAndLockX, .-chSysGetStatusAndLockX
 1217              		.align	2
 1218 04e4 AFF30080 		.p2align 4,,15
 1218      AFF30080 
 1218      AFF30080 
 1219              		.global	chSysRestoreStatusX
 1220              		.thumb
 1221              		.thumb_func
 1222              		.type	chSysRestoreStatusX, %function
 1223              	chSysRestoreStatusX:
 1224              	.LFB236:
 1225              		.loc 7 369 0
ARM GAS  /tmp/ccbvaNLN.s 			page 23


 1226              		.cfi_startproc
 1227              		@ args = 0, pretend = 0, frame = 8
 1228              		@ frame_needed = 0, uses_anonymous_args = 0
 1229 04f0 00B5     		push	{lr}
 1230              		.cfi_def_cfa_offset 4
 1231              		.cfi_offset 14, -4
 1232 04f2 83B0     		sub	sp, sp, #12
 1233              		.cfi_def_cfa_offset 16
 1234 04f4 0190     		str	r0, [sp, #4]
 1235              		.loc 7 371 0
 1236 04f6 0198     		ldr	r0, [sp, #4]
 1237 04f8 FFF702FE 		bl	port_irq_enabled
 1238 04fc 0346     		mov	r3, r0
 1239 04fe 002B     		cmp	r3, #0
 1240 0500 0BD0     		beq	.L82
 1241              		.loc 7 372 0
 1242 0502 FFF70DFE 		bl	port_is_isr_context
 1243 0506 0346     		mov	r3, r0
 1244 0508 002B     		cmp	r3, #0
 1245 050a 02D0     		beq	.L84
 1246              		.loc 7 373 0
 1247 050c FFF780FE 		bl	chSysUnlockFromISR
 1248 0510 03E0     		b	.L82
 1249              	.L84:
 1250              		.loc 7 376 0
 1251 0512 FFF7FEFF 		bl	chSchRescheduleS
 1252              		.loc 7 377 0
 1253 0516 FFF76BFE 		bl	chSysUnlock
 1254              	.L82:
 1255              		.loc 7 380 0
 1256 051a 03B0     		add	sp, sp, #12
 1257              		@ sp needed
 1258 051c 5DF804FB 		ldr	pc, [sp], #4
 1259              		.cfi_endproc
 1260              	.LFE236:
 1261              		.size	chSysRestoreStatusX, .-chSysRestoreStatusX
 1262              		.align	2
 1263              		.p2align 4,,15
 1264              		.global	chSysIsCounterWithinX
 1265              		.thumb
 1266              		.thumb_func
 1267              		.type	chSysIsCounterWithinX, %function
 1268              	chSysIsCounterWithinX:
 1269              	.LFB237:
 1270              		.loc 7 401 0
 1271              		.cfi_startproc
 1272              		@ args = 0, pretend = 0, frame = 16
 1273              		@ frame_needed = 0, uses_anonymous_args = 0
 1274              		@ link register save eliminated.
 1275 0520 84B0     		sub	sp, sp, #16
 1276              		.cfi_def_cfa_offset 16
 1277 0522 0390     		str	r0, [sp, #12]
 1278 0524 0291     		str	r1, [sp, #8]
 1279 0526 0192     		str	r2, [sp, #4]
 1280              		.loc 7 403 0
 1281 0528 039A     		ldr	r2, [sp, #12]
 1282 052a 029B     		ldr	r3, [sp, #8]
ARM GAS  /tmp/ccbvaNLN.s 			page 24


 1283 052c D21A     		subs	r2, r2, r3
 1284 052e 0199     		ldr	r1, [sp, #4]
 1285 0530 029B     		ldr	r3, [sp, #8]
 1286 0532 CB1A     		subs	r3, r1, r3
 1287 0534 9A42     		cmp	r2, r3
 1288 0536 2CBF     		ite	cs
 1289 0538 0023     		movcs	r3, #0
 1290 053a 0123     		movcc	r3, #1
 1291 053c DBB2     		uxtb	r3, r3
 1292              		.loc 7 404 0
 1293 053e 1846     		mov	r0, r3
 1294 0540 04B0     		add	sp, sp, #16
 1295              		@ sp needed
 1296 0542 7047     		bx	lr
 1297              		.cfi_endproc
 1298              	.LFE237:
 1299              		.size	chSysIsCounterWithinX, .-chSysIsCounterWithinX
 1300              		.align	2
 1301 0544 AFF30080 		.p2align 4,,15
 1301      AFF30080 
 1301      AFF30080 
 1302              		.global	chSysPolledDelayX
 1303              		.thumb
 1304              		.thumb_func
 1305              		.type	chSysPolledDelayX, %function
 1306              	chSysPolledDelayX:
 1307              	.LFB238:
 1308              		.loc 7 417 0
 1309              		.cfi_startproc
 1310              		@ args = 0, pretend = 0, frame = 16
 1311              		@ frame_needed = 0, uses_anonymous_args = 0
 1312 0550 00B5     		push	{lr}
 1313              		.cfi_def_cfa_offset 4
 1314              		.cfi_offset 14, -4
 1315 0552 85B0     		sub	sp, sp, #20
 1316              		.cfi_def_cfa_offset 24
 1317 0554 0190     		str	r0, [sp, #4]
 1318              		.loc 7 418 0
 1319 0556 FFF733FE 		bl	port_rt_get_counter_value
 1320 055a 0390     		str	r0, [sp, #12]
 1321              		.loc 7 419 0
 1322 055c 039A     		ldr	r2, [sp, #12]
 1323 055e 019B     		ldr	r3, [sp, #4]
 1324 0560 1344     		add	r3, r3, r2
 1325 0562 0293     		str	r3, [sp, #8]
 1326              		.loc 7 421 0
 1327 0564 00BF     		nop
 1328              	.L88:
 1329              		.loc 7 421 0 is_stmt 0 discriminator 1
 1330 0566 FFF72BFE 		bl	port_rt_get_counter_value
 1331 056a 0346     		mov	r3, r0
 1332 056c 1846     		mov	r0, r3
 1333 056e 0399     		ldr	r1, [sp, #12]
 1334 0570 029A     		ldr	r2, [sp, #8]
 1335 0572 FFF7FEFF 		bl	chSysIsCounterWithinX
 1336 0576 0346     		mov	r3, r0
 1337 0578 002B     		cmp	r3, #0
ARM GAS  /tmp/ccbvaNLN.s 			page 25


 1338 057a F4D1     		bne	.L88
 1339              		.loc 7 423 0 is_stmt 1
 1340 057c 05B0     		add	sp, sp, #20
 1341              		@ sp needed
 1342 057e 5DF804FB 		ldr	pc, [sp], #4
 1343              		.cfi_endproc
 1344              	.LFE238:
 1345              		.size	chSysPolledDelayX, .-chSysPolledDelayX
 1346              	.Letext0:
 1347              		.file 8 "/nfs/nfs5/home/research/hardware/arm2/gcc-arm-embedded/gcc-arm-none-eabi-4_8-2014q2/arm-n
 1348              		.file 9 "/nfs/nfs5/home/research/hardware/arm2/gcc-arm-embedded/gcc-arm-none-eabi-4_8-2014q2/arm-n
 1349              		.file 10 "../../ChibiOS/os/rt/ports/ARMCMx/compilers/GCC/chtypes.h"
 1350              		.file 11 "../../ChibiOS/os/rt/include/chsystypes.h"
 1351              		.file 12 "../../ChibiOS/os/rt/include/chschd.h"
 1352              		.file 13 "../../ChibiOS/os/ext/CMSIS/ST/STM32L4xx/stm32l476xx.h"
 1353              		.file 14 "../../ChibiOS/os/rt/ports/ARMCMx/chcore.h"
 1354              		.file 15 "../../ChibiOS/os/rt/include/chtm.h"
 1355              		.file 16 "../../ChibiOS/os/rt/include/chsem.h"
 1356              		.file 17 "../../ChibiOS/os/rt/include/chmtx.h"
 1357              		.file 18 "../../ChibiOS/os/rt/include/chthreads.h"