ARM GAS  /tmp/ccPE0Erb.s 			page 1


   1              		.syntax unified
   2              		.cpu cortex-m4
   3              		.fpu softvfp
   4              		.eabi_attribute 20, 1
   5              		.eabi_attribute 21, 1
   6              		.eabi_attribute 23, 3
   7              		.eabi_attribute 24, 1
   8              		.eabi_attribute 25, 1
   9              		.eabi_attribute 26, 1
  10              		.eabi_attribute 30, 6
  11              		.eabi_attribute 34, 1
  12              		.eabi_attribute 18, 4
  13              		.thumb
  14              		.file	"chthreads.c"
  15              		.text
  16              	.Ltext0:
  17              		.cfi_sections	.debug_frame
  18              		.align	2
  19              		.p2align 4,,15
  20              		.thumb
  21              		.thumb_func
  22              		.type	port_lock, %function
  23              	port_lock:
  24              	.LFB127:
  25              		.file 1 "../../ChibiOS/os/rt/ports/ARMCMx/chcore_v7m.h"
  26              		.loc 1 456 0
  27              		.cfi_startproc
  28              		@ args = 0, pretend = 0, frame = 8
  29              		@ frame_needed = 0, uses_anonymous_args = 0
  30              		@ link register save eliminated.
  31 0000 82B0     		sub	sp, sp, #8
  32              		.cfi_def_cfa_offset 8
  33 0002 2023     		movs	r3, #32
  34 0004 0193     		str	r3, [sp, #4]
  35              	.LBB6:
  36              	.LBB7:
  37              		.file 2 "../../ChibiOS/os/ext/CMSIS/include/core_cmFunc.h"
  38              		.loc 2 548 0
  39 0006 019B     		ldr	r3, [sp, #4]
  40              	@ 548 "../../ChibiOS/os/ext/CMSIS/include/core_cmFunc.h" 1
  41 0008 83F31188 		MSR basepri, r3
  42              	@ 0 "" 2
  43              		.thumb
  44              	.LBE7:
  45              	.LBE6:
  46              		.loc 1 473 0
  47 000c 02B0     		add	sp, sp, #8
  48              		@ sp needed
  49 000e 7047     		bx	lr
  50              		.cfi_endproc
  51              	.LFE127:
  52              		.size	port_lock, .-port_lock
  53              		.align	2
  54              		.p2align 4,,15
  55              		.thumb
  56              		.thumb_func
  57              		.type	port_unlock, %function
ARM GAS  /tmp/ccPE0Erb.s 			page 2


  58              	port_unlock:
  59              	.LFB128:
  60              		.loc 1 480 0
  61              		.cfi_startproc
  62              		@ args = 0, pretend = 0, frame = 8
  63              		@ frame_needed = 0, uses_anonymous_args = 0
  64              		@ link register save eliminated.
  65 0010 82B0     		sub	sp, sp, #8
  66              		.cfi_def_cfa_offset 8
  67 0012 0023     		movs	r3, #0
  68 0014 0193     		str	r3, [sp, #4]
  69              	.LBB8:
  70              	.LBB9:
  71              		.loc 2 548 0
  72 0016 019B     		ldr	r3, [sp, #4]
  73              	@ 548 "../../ChibiOS/os/ext/CMSIS/include/core_cmFunc.h" 1
  74 0018 83F31188 		MSR basepri, r3
  75              	@ 0 "" 2
  76              		.thumb
  77              	.LBE9:
  78              	.LBE8:
  79              		.loc 1 487 0
  80 001c 02B0     		add	sp, sp, #8
  81              		@ sp needed
  82 001e 7047     		bx	lr
  83              		.cfi_endproc
  84              	.LFE128:
  85              		.size	port_unlock, .-port_unlock
  86              		.align	2
  87              		.p2align 4,,15
  88              		.thumb
  89              		.thumb_func
  90              		.type	list_init, %function
  91              	list_init:
  92              	.LFB136:
  93              		.file 3 "../../ChibiOS/os/rt/include/chschd.h"
  94              		.loc 3 564 0
  95              		.cfi_startproc
  96              		@ args = 0, pretend = 0, frame = 8
  97              		@ frame_needed = 0, uses_anonymous_args = 0
  98              		@ link register save eliminated.
  99 0020 82B0     		sub	sp, sp, #8
 100              		.cfi_def_cfa_offset 8
 101 0022 0190     		str	r0, [sp, #4]
 102              		.loc 3 566 0
 103 0024 019B     		ldr	r3, [sp, #4]
 104 0026 019A     		ldr	r2, [sp, #4]
 105 0028 1A60     		str	r2, [r3]
 106              		.loc 3 567 0
 107 002a 02B0     		add	sp, sp, #8
 108              		@ sp needed
 109 002c 7047     		bx	lr
 110              		.cfi_endproc
 111              	.LFE136:
 112              		.size	list_init, .-list_init
 113 002e 00BF     		.align	2
 114              		.p2align 4,,15
ARM GAS  /tmp/ccPE0Erb.s 			page 3


 115              		.thumb
 116              		.thumb_func
 117              		.type	list_notempty, %function
 118              	list_notempty:
 119              	.LFB138:
 120              		.loc 3 590 0
 121              		.cfi_startproc
 122              		@ args = 0, pretend = 0, frame = 8
 123              		@ frame_needed = 0, uses_anonymous_args = 0
 124              		@ link register save eliminated.
 125 0030 82B0     		sub	sp, sp, #8
 126              		.cfi_def_cfa_offset 8
 127 0032 0190     		str	r0, [sp, #4]
 128              		.loc 3 592 0
 129 0034 019B     		ldr	r3, [sp, #4]
 130 0036 1A68     		ldr	r2, [r3]
 131 0038 019B     		ldr	r3, [sp, #4]
 132 003a 9A42     		cmp	r2, r3
 133 003c 0CBF     		ite	eq
 134 003e 0023     		moveq	r3, #0
 135 0040 0123     		movne	r3, #1
 136 0042 DBB2     		uxtb	r3, r3
 137              		.loc 3 593 0
 138 0044 1846     		mov	r0, r3
 139 0046 02B0     		add	sp, sp, #8
 140              		@ sp needed
 141 0048 7047     		bx	lr
 142              		.cfi_endproc
 143              	.LFE138:
 144              		.size	list_notempty, .-list_notempty
 145 004a 00BF     		.align	2
 146 004c AFF30080 		.p2align 4,,15
 147              		.thumb
 148              		.thumb_func
 149              		.type	queue_init, %function
 150              	queue_init:
 151              	.LFB139:
 152              		.loc 3 602 0
 153              		.cfi_startproc
 154              		@ args = 0, pretend = 0, frame = 8
 155              		@ frame_needed = 0, uses_anonymous_args = 0
 156              		@ link register save eliminated.
 157 0050 82B0     		sub	sp, sp, #8
 158              		.cfi_def_cfa_offset 8
 159 0052 0190     		str	r0, [sp, #4]
 160              		.loc 3 604 0
 161 0054 019B     		ldr	r3, [sp, #4]
 162 0056 019A     		ldr	r2, [sp, #4]
 163 0058 1A60     		str	r2, [r3]
 164              		.loc 3 605 0
 165 005a 019B     		ldr	r3, [sp, #4]
 166 005c 019A     		ldr	r2, [sp, #4]
 167 005e 5A60     		str	r2, [r3, #4]
 168              		.loc 3 606 0
 169 0060 02B0     		add	sp, sp, #8
 170              		@ sp needed
 171 0062 7047     		bx	lr
ARM GAS  /tmp/ccPE0Erb.s 			page 4


 172              		.cfi_endproc
 173              	.LFE139:
 174              		.size	queue_init, .-queue_init
 175              		.align	2
 176 0064 AFF30080 		.p2align 4,,15
 176      AFF30080 
 176      AFF30080 
 177              		.thumb
 178              		.thumb_func
 179              		.type	queue_notempty, %function
 180              	queue_notempty:
 181              	.LFB141:
 182              		.loc 3 629 0
 183              		.cfi_startproc
 184              		@ args = 0, pretend = 0, frame = 8
 185              		@ frame_needed = 0, uses_anonymous_args = 0
 186              		@ link register save eliminated.
 187 0070 82B0     		sub	sp, sp, #8
 188              		.cfi_def_cfa_offset 8
 189 0072 0190     		str	r0, [sp, #4]
 190              		.loc 3 631 0
 191 0074 019B     		ldr	r3, [sp, #4]
 192 0076 1A68     		ldr	r2, [r3]
 193 0078 019B     		ldr	r3, [sp, #4]
 194 007a 9A42     		cmp	r2, r3
 195 007c 0CBF     		ite	eq
 196 007e 0023     		moveq	r3, #0
 197 0080 0123     		movne	r3, #1
 198 0082 DBB2     		uxtb	r3, r3
 199              		.loc 3 632 0
 200 0084 1846     		mov	r0, r3
 201 0086 02B0     		add	sp, sp, #8
 202              		@ sp needed
 203 0088 7047     		bx	lr
 204              		.cfi_endproc
 205              	.LFE141:
 206              		.size	queue_notempty, .-queue_notempty
 207 008a 00BF     		.align	2
 208 008c AFF30080 		.p2align 4,,15
 209              		.thumb
 210              		.thumb_func
 211              		.type	list_insert, %function
 212              	list_insert:
 213              	.LFB142:
 214              		.loc 3 637 0
 215              		.cfi_startproc
 216              		@ args = 0, pretend = 0, frame = 8
 217              		@ frame_needed = 0, uses_anonymous_args = 0
 218              		@ link register save eliminated.
 219 0090 82B0     		sub	sp, sp, #8
 220              		.cfi_def_cfa_offset 8
 221 0092 0190     		str	r0, [sp, #4]
 222 0094 0091     		str	r1, [sp]
 223              		.loc 3 639 0
 224 0096 009B     		ldr	r3, [sp]
 225 0098 1A68     		ldr	r2, [r3]
 226 009a 019B     		ldr	r3, [sp, #4]
ARM GAS  /tmp/ccPE0Erb.s 			page 5


 227 009c 1A60     		str	r2, [r3]
 228              		.loc 3 640 0
 229 009e 009B     		ldr	r3, [sp]
 230 00a0 019A     		ldr	r2, [sp, #4]
 231 00a2 1A60     		str	r2, [r3]
 232              		.loc 3 641 0
 233 00a4 02B0     		add	sp, sp, #8
 234              		@ sp needed
 235 00a6 7047     		bx	lr
 236              		.cfi_endproc
 237              	.LFE142:
 238              		.size	list_insert, .-list_insert
 239              		.align	2
 240 00a8 AFF30080 		.p2align 4,,15
 240      AFF30080 
 241              		.thumb
 242              		.thumb_func
 243              		.type	list_remove, %function
 244              	list_remove:
 245              	.LFB143:
 246              		.loc 3 643 0
 247              		.cfi_startproc
 248              		@ args = 0, pretend = 0, frame = 16
 249              		@ frame_needed = 0, uses_anonymous_args = 0
 250              		@ link register save eliminated.
 251 00b0 84B0     		sub	sp, sp, #16
 252              		.cfi_def_cfa_offset 16
 253 00b2 0190     		str	r0, [sp, #4]
 254              		.loc 3 645 0
 255 00b4 019B     		ldr	r3, [sp, #4]
 256 00b6 1B68     		ldr	r3, [r3]
 257 00b8 0393     		str	r3, [sp, #12]
 258              		.loc 3 646 0
 259 00ba 039B     		ldr	r3, [sp, #12]
 260 00bc 1A68     		ldr	r2, [r3]
 261 00be 019B     		ldr	r3, [sp, #4]
 262 00c0 1A60     		str	r2, [r3]
 263              		.loc 3 648 0
 264 00c2 039B     		ldr	r3, [sp, #12]
 265              		.loc 3 649 0
 266 00c4 1846     		mov	r0, r3
 267 00c6 04B0     		add	sp, sp, #16
 268              		@ sp needed
 269 00c8 7047     		bx	lr
 270              		.cfi_endproc
 271              	.LFE143:
 272              		.size	list_remove, .-list_remove
 273 00ca 00BF     		.align	2
 274 00cc AFF30080 		.p2align 4,,15
 275              		.thumb
 276              		.thumb_func
 277              		.type	queue_insert, %function
 278              	queue_insert:
 279              	.LFB145:
 280              		.loc 3 663 0
 281              		.cfi_startproc
 282              		@ args = 0, pretend = 0, frame = 8
ARM GAS  /tmp/ccPE0Erb.s 			page 6


 283              		@ frame_needed = 0, uses_anonymous_args = 0
 284              		@ link register save eliminated.
 285 00d0 82B0     		sub	sp, sp, #8
 286              		.cfi_def_cfa_offset 8
 287 00d2 0190     		str	r0, [sp, #4]
 288 00d4 0091     		str	r1, [sp]
 289              		.loc 3 665 0
 290 00d6 019B     		ldr	r3, [sp, #4]
 291 00d8 009A     		ldr	r2, [sp]
 292 00da 1A60     		str	r2, [r3]
 293              		.loc 3 666 0
 294 00dc 009B     		ldr	r3, [sp]
 295 00de 5A68     		ldr	r2, [r3, #4]
 296 00e0 019B     		ldr	r3, [sp, #4]
 297 00e2 5A60     		str	r2, [r3, #4]
 298              		.loc 3 667 0
 299 00e4 019B     		ldr	r3, [sp, #4]
 300 00e6 5B68     		ldr	r3, [r3, #4]
 301 00e8 019A     		ldr	r2, [sp, #4]
 302 00ea 1A60     		str	r2, [r3]
 303              		.loc 3 668 0
 304 00ec 009B     		ldr	r3, [sp]
 305 00ee 019A     		ldr	r2, [sp, #4]
 306 00f0 5A60     		str	r2, [r3, #4]
 307              		.loc 3 669 0
 308 00f2 02B0     		add	sp, sp, #8
 309              		@ sp needed
 310 00f4 7047     		bx	lr
 311              		.cfi_endproc
 312              	.LFE145:
 313              		.size	queue_insert, .-queue_insert
 314 00f6 00BF     		.align	2
 315 00f8 AFF30080 		.p2align 4,,15
 315      AFF30080 
 316              		.thumb
 317              		.thumb_func
 318              		.type	queue_fifo_remove, %function
 319              	queue_fifo_remove:
 320              	.LFB146:
 321              		.loc 3 671 0
 322              		.cfi_startproc
 323              		@ args = 0, pretend = 0, frame = 16
 324              		@ frame_needed = 0, uses_anonymous_args = 0
 325              		@ link register save eliminated.
 326 0100 84B0     		sub	sp, sp, #16
 327              		.cfi_def_cfa_offset 16
 328 0102 0190     		str	r0, [sp, #4]
 329              		.loc 3 672 0
 330 0104 019B     		ldr	r3, [sp, #4]
 331 0106 1B68     		ldr	r3, [r3]
 332 0108 0393     		str	r3, [sp, #12]
 333              		.loc 3 674 0
 334 010a 039B     		ldr	r3, [sp, #12]
 335 010c 1A68     		ldr	r2, [r3]
 336 010e 019B     		ldr	r3, [sp, #4]
 337 0110 1A60     		str	r2, [r3]
 338              		.loc 3 675 0
ARM GAS  /tmp/ccPE0Erb.s 			page 7


 339 0112 019B     		ldr	r3, [sp, #4]
 340 0114 1B68     		ldr	r3, [r3]
 341 0116 019A     		ldr	r2, [sp, #4]
 342 0118 5A60     		str	r2, [r3, #4]
 343              		.loc 3 677 0
 344 011a 039B     		ldr	r3, [sp, #12]
 345              		.loc 3 678 0
 346 011c 1846     		mov	r0, r3
 347 011e 04B0     		add	sp, sp, #16
 348              		@ sp needed
 349 0120 7047     		bx	lr
 350              		.cfi_endproc
 351              	.LFE146:
 352              		.size	queue_fifo_remove, .-queue_fifo_remove
 353 0122 00BF     		.align	2
 354 0124 AFF30080 		.p2align 4,,15
 354      AFF30080 
 354      AFF30080 
 355              		.thumb
 356              		.thumb_func
 357              		.type	chSchCanYieldS, %function
 358              	chSchCanYieldS:
 359              	.LFB150:
 360              		.loc 3 727 0
 361              		.cfi_startproc
 362              		@ args = 0, pretend = 0, frame = 0
 363              		@ frame_needed = 0, uses_anonymous_args = 0
 364              		@ link register save eliminated.
 365              		.loc 3 731 0
 366 0130 064B     		ldr	r3, .L17
 367 0132 1B68     		ldr	r3, [r3]
 368 0134 9A68     		ldr	r2, [r3, #8]
 369 0136 054B     		ldr	r3, .L17
 370 0138 9B69     		ldr	r3, [r3, #24]
 371 013a 9B68     		ldr	r3, [r3, #8]
 372 013c 9A42     		cmp	r2, r3
 373 013e 34BF     		ite	cc
 374 0140 0023     		movcc	r3, #0
 375 0142 0123     		movcs	r3, #1
 376 0144 DBB2     		uxtb	r3, r3
 377              		.loc 3 732 0
 378 0146 1846     		mov	r0, r3
 379 0148 7047     		bx	lr
 380              	.L18:
 381 014a 00BF     		.align	2
 382              	.L17:
 383 014c 00000000 		.word	ch
 384              		.cfi_endproc
 385              	.LFE150:
 386              		.size	chSchCanYieldS, .-chSchCanYieldS
 387              		.align	2
 388              		.p2align 4,,15
 389              		.thumb
 390              		.thumb_func
 391              		.type	chSchDoYieldS, %function
 392              	chSchDoYieldS:
 393              	.LFB151:
ARM GAS  /tmp/ccPE0Erb.s 			page 8


 394              		.loc 3 741 0
 395              		.cfi_startproc
 396              		@ args = 0, pretend = 0, frame = 0
 397              		@ frame_needed = 0, uses_anonymous_args = 0
 398 0150 08B5     		push	{r3, lr}
 399              		.cfi_def_cfa_offset 8
 400              		.cfi_offset 3, -8
 401              		.cfi_offset 14, -4
 402              		.loc 3 745 0
 403 0152 FFF7EDFF 		bl	chSchCanYieldS
 404 0156 0346     		mov	r3, r0
 405 0158 002B     		cmp	r3, #0
 406 015a 01D0     		beq	.L19
 407              		.loc 3 746 0
 408 015c FFF7FEFF 		bl	chSchDoRescheduleBehind
 409              	.L19:
 410              		.loc 3 748 0
 411 0160 08BD     		pop	{r3, pc}
 412              		.cfi_endproc
 413              	.LFE151:
 414              		.size	chSchDoYieldS, .-chSchDoYieldS
 415 0162 00BF     		.align	2
 416 0164 AFF30080 		.p2align 4,,15
 416      AFF30080 
 416      AFF30080 
 417              		.thumb
 418              		.thumb_func
 419              		.type	chSysLock, %function
 420              	chSysLock:
 421              	.LFB156:
 422              		.file 4 "../../ChibiOS/os/rt/include/chsys.h"
 423              		.loc 4 346 0
 424              		.cfi_startproc
 425              		@ args = 0, pretend = 0, frame = 0
 426              		@ frame_needed = 0, uses_anonymous_args = 0
 427 0170 08B5     		push	{r3, lr}
 428              		.cfi_def_cfa_offset 8
 429              		.cfi_offset 3, -8
 430              		.cfi_offset 14, -4
 431              		.loc 4 348 0
 432 0172 FFF745FF 		bl	port_lock
 433              		.loc 4 351 0
 434 0176 08BD     		pop	{r3, pc}
 435              		.cfi_endproc
 436              	.LFE156:
 437              		.size	chSysLock, .-chSysLock
 438              		.align	2
 439 0178 AFF30080 		.p2align 4,,15
 439      AFF30080 
 440              		.thumb
 441              		.thumb_func
 442              		.type	chSysUnlock, %function
 443              	chSysUnlock:
 444              	.LFB157:
 445              		.loc 4 358 0
 446              		.cfi_startproc
 447              		@ args = 0, pretend = 0, frame = 0
ARM GAS  /tmp/ccPE0Erb.s 			page 9


 448              		@ frame_needed = 0, uses_anonymous_args = 0
 449 0180 08B5     		push	{r3, lr}
 450              		.cfi_def_cfa_offset 8
 451              		.cfi_offset 3, -8
 452              		.cfi_offset 14, -4
 453              		.loc 4 371 0
 454 0182 FFF745FF 		bl	port_unlock
 455              		.loc 4 372 0
 456 0186 08BD     		pop	{r3, pc}
 457              		.cfi_endproc
 458              	.LFE157:
 459              		.size	chSysUnlock, .-chSysUnlock
 460              		.align	2
 461 0188 AFF30080 		.p2align 4,,15
 461      AFF30080 
 462              		.thumb
 463              		.thumb_func
 464              		.type	chVTGetSystemTimeX, %function
 465              	chVTGetSystemTimeX:
 466              	.LFB164:
 467              		.file 5 "../../ChibiOS/os/rt/include/chvt.h"
 468              		.loc 5 228 0
 469              		.cfi_startproc
 470              		@ args = 0, pretend = 0, frame = 0
 471              		@ frame_needed = 0, uses_anonymous_args = 0
 472              		@ link register save eliminated.
 473              		.loc 5 231 0
 474 0190 014B     		ldr	r3, .L25
 475 0192 9B6A     		ldr	r3, [r3, #40]
 476              		.loc 5 235 0
 477 0194 1846     		mov	r0, r3
 478 0196 7047     		bx	lr
 479              	.L26:
 480              		.align	2
 481              	.L25:
 482 0198 00000000 		.word	ch
 483              		.cfi_endproc
 484              	.LFE164:
 485              		.size	chVTGetSystemTimeX, .-chVTGetSystemTimeX
 486              		.align	2
 487 019c AFF30080 		.p2align 4,,15
 488              		.thumb
 489              		.thumb_func
 490              		.type	chVTIsTimeWithinX, %function
 491              	chVTIsTimeWithinX:
 492              	.LFB167:
 493              		.loc 5 286 0
 494              		.cfi_startproc
 495              		@ args = 0, pretend = 0, frame = 16
 496              		@ frame_needed = 0, uses_anonymous_args = 0
 497              		@ link register save eliminated.
 498 01a0 84B0     		sub	sp, sp, #16
 499              		.cfi_def_cfa_offset 16
 500 01a2 0390     		str	r0, [sp, #12]
 501 01a4 0291     		str	r1, [sp, #8]
 502 01a6 0192     		str	r2, [sp, #4]
 503              		.loc 5 288 0
ARM GAS  /tmp/ccPE0Erb.s 			page 10


 504 01a8 039A     		ldr	r2, [sp, #12]
 505 01aa 029B     		ldr	r3, [sp, #8]
 506 01ac D21A     		subs	r2, r2, r3
 507 01ae 0199     		ldr	r1, [sp, #4]
 508 01b0 029B     		ldr	r3, [sp, #8]
 509 01b2 CB1A     		subs	r3, r1, r3
 510 01b4 9A42     		cmp	r2, r3
 511 01b6 2CBF     		ite	cs
 512 01b8 0023     		movcs	r3, #0
 513 01ba 0123     		movcc	r3, #1
 514 01bc DBB2     		uxtb	r3, r3
 515              		.loc 5 289 0
 516 01be 1846     		mov	r0, r3
 517 01c0 04B0     		add	sp, sp, #16
 518              		@ sp needed
 519 01c2 7047     		bx	lr
 520              		.cfi_endproc
 521              	.LFE167:
 522              		.size	chVTIsTimeWithinX, .-chVTIsTimeWithinX
 523              		.align	2
 524 01c4 AFF30080 		.p2align 4,,15
 524      AFF30080 
 524      AFF30080 
 525              		.thumb
 526              		.thumb_func
 527              		.type	chThdGetSelfX, %function
 528              	chThdGetSelfX:
 529              	.LFB178:
 530              		.file 6 "../../ChibiOS/os/rt/include/chthreads.h"
 531              		.loc 6 174 0
 532              		.cfi_startproc
 533              		@ args = 0, pretend = 0, frame = 0
 534              		@ frame_needed = 0, uses_anonymous_args = 0
 535              		@ link register save eliminated.
 536              		.loc 6 176 0
 537 01d0 014B     		ldr	r3, .L31
 538 01d2 9B69     		ldr	r3, [r3, #24]
 539              		.loc 6 177 0
 540 01d4 1846     		mov	r0, r3
 541 01d6 7047     		bx	lr
 542              	.L32:
 543              		.align	2
 544              	.L31:
 545 01d8 00000000 		.word	ch
 546              		.cfi_endproc
 547              	.LFE178:
 548              		.size	chThdGetSelfX, .-chThdGetSelfX
 549              		.align	2
 550 01dc AFF30080 		.p2align 4,,15
 551              		.thumb
 552              		.thumb_func
 553              		.type	chThdStartI, %function
 554              	chThdStartI:
 555              	.LFB182:
 556              		.loc 6 245 0
 557              		.cfi_startproc
 558              		@ args = 0, pretend = 0, frame = 8
ARM GAS  /tmp/ccPE0Erb.s 			page 11


 559              		@ frame_needed = 0, uses_anonymous_args = 0
 560 01e0 00B5     		push	{lr}
 561              		.cfi_def_cfa_offset 4
 562              		.cfi_offset 14, -4
 563 01e2 83B0     		sub	sp, sp, #12
 564              		.cfi_def_cfa_offset 16
 565 01e4 0190     		str	r0, [sp, #4]
 566              		.loc 6 249 0
 567 01e6 0198     		ldr	r0, [sp, #4]
 568 01e8 FFF7FEFF 		bl	chSchReadyI
 569 01ec 0346     		mov	r3, r0
 570              		.loc 6 250 0
 571 01ee 1846     		mov	r0, r3
 572 01f0 03B0     		add	sp, sp, #12
 573              		@ sp needed
 574 01f2 5DF804FB 		ldr	pc, [sp], #4
 575              		.cfi_endproc
 576              	.LFE182:
 577              		.size	chThdStartI, .-chThdStartI
 578 01f6 00BF     		.align	2
 579 01f8 AFF30080 		.p2align 4,,15
 579      AFF30080 
 580              		.thumb
 581              		.thumb_func
 582              		.type	chThdSleepS, %function
 583              	chThdSleepS:
 584              	.LFB183:
 585              		.loc 6 264 0
 586              		.cfi_startproc
 587              		@ args = 0, pretend = 0, frame = 8
 588              		@ frame_needed = 0, uses_anonymous_args = 0
 589 0200 00B5     		push	{lr}
 590              		.cfi_def_cfa_offset 4
 591              		.cfi_offset 14, -4
 592 0202 83B0     		sub	sp, sp, #12
 593              		.cfi_def_cfa_offset 16
 594 0204 0190     		str	r0, [sp, #4]
 595              		.loc 6 268 0
 596 0206 0820     		movs	r0, #8
 597 0208 0199     		ldr	r1, [sp, #4]
 598 020a FFF7FEFF 		bl	chSchGoSleepTimeoutS
 599              		.loc 6 269 0
 600 020e 03B0     		add	sp, sp, #12
 601              		@ sp needed
 602 0210 5DF804FB 		ldr	pc, [sp], #4
 603              		.cfi_endproc
 604              	.LFE183:
 605              		.size	chThdSleepS, .-chThdSleepS
 606              		.align	2
 607 0214 AFF30080 		.p2align 4,,15
 607      AFF30080 
 607      AFF30080 
 608              		.thumb
 609              		.thumb_func
 610              		.type	chThdDoDequeueNextI, %function
 611              	chThdDoDequeueNextI:
 612              	.LFB186:
ARM GAS  /tmp/ccPE0Erb.s 			page 12


 613              		.loc 6 311 0
 614              		.cfi_startproc
 615              		@ args = 0, pretend = 0, frame = 16
 616              		@ frame_needed = 0, uses_anonymous_args = 0
 617 0220 00B5     		push	{lr}
 618              		.cfi_def_cfa_offset 4
 619              		.cfi_offset 14, -4
 620 0222 85B0     		sub	sp, sp, #20
 621              		.cfi_def_cfa_offset 24
 622 0224 0190     		str	r0, [sp, #4]
 623 0226 0091     		str	r1, [sp]
 624              		.loc 6 316 0
 625 0228 0198     		ldr	r0, [sp, #4]
 626 022a FFF769FF 		bl	queue_fifo_remove
 627 022e 0390     		str	r0, [sp, #12]
 628              		.loc 6 320 0
 629 0230 039B     		ldr	r3, [sp, #12]
 630 0232 009A     		ldr	r2, [sp]
 631 0234 1A62     		str	r2, [r3, #32]
 632              		.loc 6 321 0
 633 0236 0398     		ldr	r0, [sp, #12]
 634 0238 FFF7FEFF 		bl	chSchReadyI
 635              		.loc 6 322 0
 636 023c 05B0     		add	sp, sp, #20
 637              		@ sp needed
 638 023e 5DF804FB 		ldr	pc, [sp], #4
 639              		.cfi_endproc
 640              	.LFE186:
 641              		.size	chThdDoDequeueNextI, .-chThdDoDequeueNextI
 642 0242 00BF     		.align	2
 643 0244 AFF30080 		.p2align 4,,15
 643      AFF30080 
 643      AFF30080 
 644              		.global	_thread_init
 645              		.thumb
 646              		.thumb_func
 647              		.type	_thread_init, %function
 648              	_thread_init:
 649              	.LFB230:
 650              		.file 7 "../../ChibiOS/os/rt/src/chthreads.c"
 651              		.loc 7 91 0
 652              		.cfi_startproc
 653              		@ args = 0, pretend = 0, frame = 8
 654              		@ frame_needed = 0, uses_anonymous_args = 0
 655 0250 00B5     		push	{lr}
 656              		.cfi_def_cfa_offset 4
 657              		.cfi_offset 14, -4
 658 0252 83B0     		sub	sp, sp, #12
 659              		.cfi_def_cfa_offset 16
 660 0254 0190     		str	r0, [sp, #4]
 661 0256 0091     		str	r1, [sp]
 662              		.loc 7 93 0
 663 0258 019B     		ldr	r3, [sp, #4]
 664 025a 009A     		ldr	r2, [sp]
 665 025c 9A60     		str	r2, [r3, #8]
 666              		.loc 7 94 0
 667 025e 019B     		ldr	r3, [sp, #4]
ARM GAS  /tmp/ccPE0Erb.s 			page 13


 668 0260 0222     		movs	r2, #2
 669 0262 1A77     		strb	r2, [r3, #28]
 670              		.loc 7 95 0
 671 0264 019B     		ldr	r3, [sp, #4]
 672 0266 0022     		movs	r2, #0
 673 0268 5A77     		strb	r2, [r3, #29]
 674              		.loc 7 97 0
 675 026a 019B     		ldr	r3, [sp, #4]
 676 026c 0A22     		movs	r2, #10
 677 026e DA77     		strb	r2, [r3, #31]
 678              		.loc 7 100 0
 679 0270 019B     		ldr	r3, [sp, #4]
 680 0272 009A     		ldr	r2, [sp]
 681 0274 DA63     		str	r2, [r3, #60]
 682              		.loc 7 101 0
 683 0276 019B     		ldr	r3, [sp, #4]
 684 0278 0022     		movs	r2, #0
 685 027a 9A63     		str	r2, [r3, #56]
 686              		.loc 7 104 0
 687 027c 019B     		ldr	r3, [sp, #4]
 688 027e 0022     		movs	r2, #0
 689 0280 5A63     		str	r2, [r3, #52]
 690              		.loc 7 110 0
 691 0282 019B     		ldr	r3, [sp, #4]
 692 0284 0122     		movs	r2, #1
 693 0286 9A77     		strb	r2, [r3, #30]
 694              		.loc 7 113 0
 695 0288 019B     		ldr	r3, [sp, #4]
 696 028a 0022     		movs	r2, #0
 697 028c 9A61     		str	r2, [r3, #24]
 698              		.loc 7 114 0
 699 028e 019B     		ldr	r3, [sp, #4]
 700 0290 0D4A     		ldr	r2, .L39
 701 0292 1A61     		str	r2, [r3, #16]
 702 0294 0C4B     		ldr	r3, .L39
 703 0296 5A69     		ldr	r2, [r3, #20]
 704 0298 019B     		ldr	r3, [sp, #4]
 705 029a 5A61     		str	r2, [r3, #20]
 706 029c 019B     		ldr	r3, [sp, #4]
 707 029e 5B69     		ldr	r3, [r3, #20]
 708 02a0 019A     		ldr	r2, [sp, #4]
 709 02a2 1A61     		str	r2, [r3, #16]
 710 02a4 084B     		ldr	r3, .L39
 711 02a6 019A     		ldr	r2, [sp, #4]
 712 02a8 5A61     		str	r2, [r3, #20]
 713              		.loc 7 117 0
 714 02aa 019B     		ldr	r3, [sp, #4]
 715 02ac 2433     		adds	r3, r3, #36
 716 02ae 1846     		mov	r0, r3
 717 02b0 FFF7B6FE 		bl	list_init
 718              		.loc 7 120 0
 719 02b4 019B     		ldr	r3, [sp, #4]
 720 02b6 2833     		adds	r3, r3, #40
 721 02b8 1846     		mov	r0, r3
 722 02ba FFF7C9FE 		bl	queue_init
 723              		.loc 7 131 0
 724 02be 019B     		ldr	r3, [sp, #4]
ARM GAS  /tmp/ccPE0Erb.s 			page 14


 725              		.loc 7 132 0
 726 02c0 1846     		mov	r0, r3
 727 02c2 03B0     		add	sp, sp, #12
 728              		@ sp needed
 729 02c4 5DF804FB 		ldr	pc, [sp], #4
 730              	.L40:
 731              		.align	2
 732              	.L39:
 733 02c8 00000000 		.word	ch
 734              		.cfi_endproc
 735              	.LFE230:
 736              		.size	_thread_init, .-_thread_init
 737              		.align	2
 738 02cc AFF30080 		.p2align 4,,15
 739              		.global	chThdCreateI
 740              		.thumb
 741              		.thumb_func
 742              		.type	chThdCreateI, %function
 743              	chThdCreateI:
 744              	.LFB231:
 745              		.loc 7 177 0
 746              		.cfi_startproc
 747              		@ args = 4, pretend = 0, frame = 24
 748              		@ frame_needed = 0, uses_anonymous_args = 0
 749 02d0 00B5     		push	{lr}
 750              		.cfi_def_cfa_offset 4
 751              		.cfi_offset 14, -4
 752 02d2 87B0     		sub	sp, sp, #28
 753              		.cfi_def_cfa_offset 32
 754 02d4 0390     		str	r0, [sp, #12]
 755 02d6 0291     		str	r1, [sp, #8]
 756 02d8 0192     		str	r2, [sp, #4]
 757 02da 0093     		str	r3, [sp]
 758              		.loc 7 180 0
 759 02dc 039B     		ldr	r3, [sp, #12]
 760 02de 0593     		str	r3, [sp, #20]
 761              		.loc 7 186 0
 762 02e0 029B     		ldr	r3, [sp, #8]
 763 02e2 243B     		subs	r3, r3, #36
 764 02e4 039A     		ldr	r2, [sp, #12]
 765 02e6 1A44     		add	r2, r2, r3
 766 02e8 059B     		ldr	r3, [sp, #20]
 767 02ea DA60     		str	r2, [r3, #12]
 768 02ec 059B     		ldr	r3, [sp, #20]
 769 02ee DB68     		ldr	r3, [r3, #12]
 770 02f0 009A     		ldr	r2, [sp]
 771 02f2 1A60     		str	r2, [r3]
 772 02f4 059B     		ldr	r3, [sp, #20]
 773 02f6 DB68     		ldr	r3, [r3, #12]
 774 02f8 089A     		ldr	r2, [sp, #32]
 775 02fa 5A60     		str	r2, [r3, #4]
 776 02fc 059B     		ldr	r3, [sp, #20]
 777 02fe DB68     		ldr	r3, [r3, #12]
 778 0300 054A     		ldr	r2, .L43
 779 0302 1A62     		str	r2, [r3, #32]
 780              		.loc 7 188 0
 781 0304 0598     		ldr	r0, [sp, #20]
ARM GAS  /tmp/ccPE0Erb.s 			page 15


 782 0306 0199     		ldr	r1, [sp, #4]
 783 0308 FFF7FEFF 		bl	_thread_init
 784 030c 0346     		mov	r3, r0
 785              		.loc 7 189 0
 786 030e 1846     		mov	r0, r3
 787 0310 07B0     		add	sp, sp, #28
 788              		@ sp needed
 789 0312 5DF804FB 		ldr	pc, [sp], #4
 790              	.L44:
 791 0316 00BF     		.align	2
 792              	.L43:
 793 0318 00000000 		.word	_port_thread_start
 794              		.cfi_endproc
 795              	.LFE231:
 796              		.size	chThdCreateI, .-chThdCreateI
 797              		.align	2
 798 031c AFF30080 		.p2align 4,,15
 799              		.global	chThdCreateStatic
 800              		.thumb
 801              		.thumb_func
 802              		.type	chThdCreateStatic, %function
 803              	chThdCreateStatic:
 804              	.LFB232:
 805              		.loc 7 208 0
 806              		.cfi_startproc
 807              		@ args = 4, pretend = 0, frame = 24
 808              		@ frame_needed = 0, uses_anonymous_args = 0
 809 0320 00B5     		push	{lr}
 810              		.cfi_def_cfa_offset 4
 811              		.cfi_offset 14, -4
 812 0322 89B0     		sub	sp, sp, #36
 813              		.cfi_def_cfa_offset 40
 814 0324 0590     		str	r0, [sp, #20]
 815 0326 0491     		str	r1, [sp, #16]
 816 0328 0392     		str	r2, [sp, #12]
 817 032a 0293     		str	r3, [sp, #8]
 818              		.loc 7 220 0
 819 032c FFF720FF 		bl	chSysLock
 820              		.loc 7 221 0
 821 0330 0A9B     		ldr	r3, [sp, #40]
 822 0332 0093     		str	r3, [sp]
 823 0334 0598     		ldr	r0, [sp, #20]
 824 0336 0499     		ldr	r1, [sp, #16]
 825 0338 039A     		ldr	r2, [sp, #12]
 826 033a 029B     		ldr	r3, [sp, #8]
 827 033c FFF7FEFF 		bl	chThdCreateI
 828 0340 0790     		str	r0, [sp, #28]
 829              		.loc 7 222 0
 830 0342 0798     		ldr	r0, [sp, #28]
 831 0344 0021     		movs	r1, #0
 832 0346 FFF7FEFF 		bl	chSchWakeupS
 833              		.loc 7 223 0
 834 034a FFF719FF 		bl	chSysUnlock
 835              		.loc 7 225 0
 836 034e 079B     		ldr	r3, [sp, #28]
 837              		.loc 7 226 0
 838 0350 1846     		mov	r0, r3
ARM GAS  /tmp/ccPE0Erb.s 			page 16


 839 0352 09B0     		add	sp, sp, #36
 840              		@ sp needed
 841 0354 5DF804FB 		ldr	pc, [sp], #4
 842              		.cfi_endproc
 843              	.LFE232:
 844              		.size	chThdCreateStatic, .-chThdCreateStatic
 845              		.align	2
 846 0358 AFF30080 		.p2align 4,,15
 846      AFF30080 
 847              		.global	chThdStart
 848              		.thumb
 849              		.thumb_func
 850              		.type	chThdStart, %function
 851              	chThdStart:
 852              	.LFB233:
 853              		.loc 7 237 0
 854              		.cfi_startproc
 855              		@ args = 0, pretend = 0, frame = 8
 856              		@ frame_needed = 0, uses_anonymous_args = 0
 857 0360 00B5     		push	{lr}
 858              		.cfi_def_cfa_offset 4
 859              		.cfi_offset 14, -4
 860 0362 83B0     		sub	sp, sp, #12
 861              		.cfi_def_cfa_offset 16
 862 0364 0190     		str	r0, [sp, #4]
 863              		.loc 7 239 0
 864 0366 FFF703FF 		bl	chSysLock
 865              		.loc 7 240 0
 866 036a 0198     		ldr	r0, [sp, #4]
 867 036c FFF738FF 		bl	chThdStartI
 868 0370 0190     		str	r0, [sp, #4]
 869              		.loc 7 241 0
 870 0372 FFF705FF 		bl	chSysUnlock
 871              		.loc 7 243 0
 872 0376 019B     		ldr	r3, [sp, #4]
 873              		.loc 7 244 0
 874 0378 1846     		mov	r0, r3
 875 037a 03B0     		add	sp, sp, #12
 876              		@ sp needed
 877 037c 5DF804FB 		ldr	pc, [sp], #4
 878              		.cfi_endproc
 879              	.LFE233:
 880              		.size	chThdStart, .-chThdStart
 881              		.align	2
 882              		.p2align 4,,15
 883              		.global	chThdSetPriority
 884              		.thumb
 885              		.thumb_func
 886              		.type	chThdSetPriority, %function
 887              	chThdSetPriority:
 888              	.LFB234:
 889              		.loc 7 258 0
 890              		.cfi_startproc
 891              		@ args = 0, pretend = 0, frame = 16
 892              		@ frame_needed = 0, uses_anonymous_args = 0
 893 0380 00B5     		push	{lr}
 894              		.cfi_def_cfa_offset 4
ARM GAS  /tmp/ccPE0Erb.s 			page 17


 895              		.cfi_offset 14, -4
 896 0382 85B0     		sub	sp, sp, #20
 897              		.cfi_def_cfa_offset 24
 898 0384 0190     		str	r0, [sp, #4]
 899              		.loc 7 263 0
 900 0386 FFF7F3FE 		bl	chSysLock
 901              		.loc 7 265 0
 902 038a 114B     		ldr	r3, .L53
 903 038c 9B69     		ldr	r3, [r3, #24]
 904 038e DB6B     		ldr	r3, [r3, #60]
 905 0390 0393     		str	r3, [sp, #12]
 906              		.loc 7 266 0
 907 0392 0F4B     		ldr	r3, .L53
 908 0394 9B69     		ldr	r3, [r3, #24]
 909 0396 9A68     		ldr	r2, [r3, #8]
 910 0398 0D4B     		ldr	r3, .L53
 911 039a 9B69     		ldr	r3, [r3, #24]
 912 039c DB6B     		ldr	r3, [r3, #60]
 913 039e 9A42     		cmp	r2, r3
 914 03a0 05D0     		beq	.L50
 915              		.loc 7 266 0 is_stmt 0 discriminator 1
 916 03a2 0B4B     		ldr	r3, .L53
 917 03a4 9B69     		ldr	r3, [r3, #24]
 918 03a6 9A68     		ldr	r2, [r3, #8]
 919 03a8 019B     		ldr	r3, [sp, #4]
 920 03aa 9A42     		cmp	r2, r3
 921 03ac 03D2     		bcs	.L51
 922              	.L50:
 923              		.loc 7 267 0 is_stmt 1
 924 03ae 084B     		ldr	r3, .L53
 925 03b0 9B69     		ldr	r3, [r3, #24]
 926 03b2 019A     		ldr	r2, [sp, #4]
 927 03b4 9A60     		str	r2, [r3, #8]
 928              	.L51:
 929              		.loc 7 269 0
 930 03b6 064B     		ldr	r3, .L53
 931 03b8 9B69     		ldr	r3, [r3, #24]
 932 03ba 019A     		ldr	r2, [sp, #4]
 933 03bc DA63     		str	r2, [r3, #60]
 934              		.loc 7 274 0
 935 03be FFF7FEFF 		bl	chSchRescheduleS
 936              		.loc 7 275 0
 937 03c2 FFF7DDFE 		bl	chSysUnlock
 938              		.loc 7 277 0
 939 03c6 039B     		ldr	r3, [sp, #12]
 940              		.loc 7 278 0
 941 03c8 1846     		mov	r0, r3
 942 03ca 05B0     		add	sp, sp, #20
 943              		@ sp needed
 944 03cc 5DF804FB 		ldr	pc, [sp], #4
 945              	.L54:
 946              		.align	2
 947              	.L53:
 948 03d0 00000000 		.word	ch
 949              		.cfi_endproc
 950              	.LFE234:
 951              		.size	chThdSetPriority, .-chThdSetPriority
ARM GAS  /tmp/ccPE0Erb.s 			page 18


 952              		.align	2
 953 03d4 AFF30080 		.p2align 4,,15
 953      AFF30080 
 953      AFF30080 
 954              		.global	chThdTerminate
 955              		.thumb
 956              		.thumb_func
 957              		.type	chThdTerminate, %function
 958              	chThdTerminate:
 959              	.LFB235:
 960              		.loc 7 292 0
 961              		.cfi_startproc
 962              		@ args = 0, pretend = 0, frame = 8
 963              		@ frame_needed = 0, uses_anonymous_args = 0
 964 03e0 00B5     		push	{lr}
 965              		.cfi_def_cfa_offset 4
 966              		.cfi_offset 14, -4
 967 03e2 83B0     		sub	sp, sp, #12
 968              		.cfi_def_cfa_offset 16
 969 03e4 0190     		str	r0, [sp, #4]
 970              		.loc 7 294 0
 971 03e6 FFF7C3FE 		bl	chSysLock
 972              		.loc 7 295 0
 973 03ea 019B     		ldr	r3, [sp, #4]
 974 03ec 5B7F     		ldrb	r3, [r3, #29]	@ zero_extendqisi2
 975 03ee 43F00403 		orr	r3, r3, #4
 976 03f2 DAB2     		uxtb	r2, r3
 977 03f4 019B     		ldr	r3, [sp, #4]
 978 03f6 5A77     		strb	r2, [r3, #29]
 979              		.loc 7 296 0
 980 03f8 FFF7C2FE 		bl	chSysUnlock
 981              		.loc 7 297 0
 982 03fc 03B0     		add	sp, sp, #12
 983              		@ sp needed
 984 03fe 5DF804FB 		ldr	pc, [sp], #4
 985              		.cfi_endproc
 986              	.LFE235:
 987              		.size	chThdTerminate, .-chThdTerminate
 988 0402 00BF     		.align	2
 989 0404 AFF30080 		.p2align 4,,15
 989      AFF30080 
 989      AFF30080 
 990              		.global	chThdSleep
 991              		.thumb
 992              		.thumb_func
 993              		.type	chThdSleep, %function
 994              	chThdSleep:
 995              	.LFB236:
 996              		.loc 7 311 0
 997              		.cfi_startproc
 998              		@ args = 0, pretend = 0, frame = 8
 999              		@ frame_needed = 0, uses_anonymous_args = 0
 1000 0410 00B5     		push	{lr}
 1001              		.cfi_def_cfa_offset 4
 1002              		.cfi_offset 14, -4
 1003 0412 83B0     		sub	sp, sp, #12
 1004              		.cfi_def_cfa_offset 16
ARM GAS  /tmp/ccPE0Erb.s 			page 19


 1005 0414 0190     		str	r0, [sp, #4]
 1006              		.loc 7 313 0
 1007 0416 FFF7ABFE 		bl	chSysLock
 1008              		.loc 7 314 0
 1009 041a 0198     		ldr	r0, [sp, #4]
 1010 041c FFF7F0FE 		bl	chThdSleepS
 1011              		.loc 7 315 0
 1012 0420 FFF7AEFE 		bl	chSysUnlock
 1013              		.loc 7 316 0
 1014 0424 03B0     		add	sp, sp, #12
 1015              		@ sp needed
 1016 0426 5DF804FB 		ldr	pc, [sp], #4
 1017              		.cfi_endproc
 1018              	.LFE236:
 1019              		.size	chThdSleep, .-chThdSleep
 1020 042a 00BF     		.align	2
 1021 042c AFF30080 		.p2align 4,,15
 1022              		.global	chThdSleepUntil
 1023              		.thumb
 1024              		.thumb_func
 1025              		.type	chThdSleepUntil, %function
 1026              	chThdSleepUntil:
 1027              	.LFB237:
 1028              		.loc 7 331 0
 1029              		.cfi_startproc
 1030              		@ args = 0, pretend = 0, frame = 8
 1031              		@ frame_needed = 0, uses_anonymous_args = 0
 1032 0430 00B5     		push	{lr}
 1033              		.cfi_def_cfa_offset 4
 1034              		.cfi_offset 14, -4
 1035 0432 83B0     		sub	sp, sp, #12
 1036              		.cfi_def_cfa_offset 16
 1037 0434 0190     		str	r0, [sp, #4]
 1038              		.loc 7 333 0
 1039 0436 FFF79BFE 		bl	chSysLock
 1040              		.loc 7 334 0
 1041 043a FFF7A9FE 		bl	chVTGetSystemTimeX
 1042 043e 0346     		mov	r3, r0
 1043 0440 019A     		ldr	r2, [sp, #4]
 1044 0442 D31A     		subs	r3, r2, r3
 1045 0444 0193     		str	r3, [sp, #4]
 1046              		.loc 7 335 0
 1047 0446 019B     		ldr	r3, [sp, #4]
 1048 0448 002B     		cmp	r3, #0
 1049 044a 02D0     		beq	.L58
 1050              		.loc 7 336 0
 1051 044c 0198     		ldr	r0, [sp, #4]
 1052 044e FFF7D7FE 		bl	chThdSleepS
 1053              	.L58:
 1054              		.loc 7 338 0
 1055 0452 FFF795FE 		bl	chSysUnlock
 1056              		.loc 7 339 0
 1057 0456 03B0     		add	sp, sp, #12
 1058              		@ sp needed
 1059 0458 5DF804FB 		ldr	pc, [sp], #4
 1060              		.cfi_endproc
 1061              	.LFE237:
ARM GAS  /tmp/ccPE0Erb.s 			page 20


 1062              		.size	chThdSleepUntil, .-chThdSleepUntil
 1063              		.align	2
 1064 045c AFF30080 		.p2align 4,,15
 1065              		.global	chThdSleepUntilWindowed
 1066              		.thumb
 1067              		.thumb_func
 1068              		.type	chThdSleepUntilWindowed, %function
 1069              	chThdSleepUntilWindowed:
 1070              	.LFB238:
 1071              		.loc 7 355 0
 1072              		.cfi_startproc
 1073              		@ args = 0, pretend = 0, frame = 16
 1074              		@ frame_needed = 0, uses_anonymous_args = 0
 1075 0460 00B5     		push	{lr}
 1076              		.cfi_def_cfa_offset 4
 1077              		.cfi_offset 14, -4
 1078 0462 85B0     		sub	sp, sp, #20
 1079              		.cfi_def_cfa_offset 24
 1080 0464 0190     		str	r0, [sp, #4]
 1081 0466 0091     		str	r1, [sp]
 1082              		.loc 7 358 0
 1083 0468 FFF782FE 		bl	chSysLock
 1084              		.loc 7 359 0
 1085 046c FFF790FE 		bl	chVTGetSystemTimeX
 1086 0470 0390     		str	r0, [sp, #12]
 1087              		.loc 7 360 0
 1088 0472 0398     		ldr	r0, [sp, #12]
 1089 0474 0199     		ldr	r1, [sp, #4]
 1090 0476 009A     		ldr	r2, [sp]
 1091 0478 FFF792FE 		bl	chVTIsTimeWithinX
 1092 047c 0346     		mov	r3, r0
 1093 047e 002B     		cmp	r3, #0
 1094 0480 05D0     		beq	.L60
 1095              		.loc 7 361 0
 1096 0482 009A     		ldr	r2, [sp]
 1097 0484 039B     		ldr	r3, [sp, #12]
 1098 0486 D31A     		subs	r3, r2, r3
 1099 0488 1846     		mov	r0, r3
 1100 048a FFF7B9FE 		bl	chThdSleepS
 1101              	.L60:
 1102              		.loc 7 363 0
 1103 048e FFF777FE 		bl	chSysUnlock
 1104              		.loc 7 365 0
 1105 0492 009B     		ldr	r3, [sp]
 1106              		.loc 7 366 0
 1107 0494 1846     		mov	r0, r3
 1108 0496 05B0     		add	sp, sp, #20
 1109              		@ sp needed
 1110 0498 5DF804FB 		ldr	pc, [sp], #4
 1111              		.cfi_endproc
 1112              	.LFE238:
 1113              		.size	chThdSleepUntilWindowed, .-chThdSleepUntilWindowed
 1114              		.align	2
 1115 049c AFF30080 		.p2align 4,,15
 1116              		.global	chThdYield
 1117              		.thumb
 1118              		.thumb_func
ARM GAS  /tmp/ccPE0Erb.s 			page 21


 1119              		.type	chThdYield, %function
 1120              	chThdYield:
 1121              	.LFB239:
 1122              		.loc 7 375 0
 1123              		.cfi_startproc
 1124              		@ args = 0, pretend = 0, frame = 0
 1125              		@ frame_needed = 0, uses_anonymous_args = 0
 1126 04a0 08B5     		push	{r3, lr}
 1127              		.cfi_def_cfa_offset 8
 1128              		.cfi_offset 3, -8
 1129              		.cfi_offset 14, -4
 1130              		.loc 7 377 0
 1131 04a2 FFF765FE 		bl	chSysLock
 1132              		.loc 7 378 0
 1133 04a6 FFF753FE 		bl	chSchDoYieldS
 1134              		.loc 7 379 0
 1135 04aa FFF769FE 		bl	chSysUnlock
 1136              		.loc 7 380 0
 1137 04ae 08BD     		pop	{r3, pc}
 1138              		.cfi_endproc
 1139              	.LFE239:
 1140              		.size	chThdYield, .-chThdYield
 1141              		.align	2
 1142              		.p2align 4,,15
 1143              		.global	chThdExit
 1144              		.thumb
 1145              		.thumb_func
 1146              		.type	chThdExit, %function
 1147              	chThdExit:
 1148              	.LFB240:
 1149              		.loc 7 396 0
 1150              		.cfi_startproc
 1151              		@ args = 0, pretend = 0, frame = 8
 1152              		@ frame_needed = 0, uses_anonymous_args = 0
 1153 04b0 00B5     		push	{lr}
 1154              		.cfi_def_cfa_offset 4
 1155              		.cfi_offset 14, -4
 1156 04b2 83B0     		sub	sp, sp, #12
 1157              		.cfi_def_cfa_offset 16
 1158 04b4 0190     		str	r0, [sp, #4]
 1159              		.loc 7 398 0
 1160 04b6 FFF75BFE 		bl	chSysLock
 1161              		.loc 7 399 0
 1162 04ba 0198     		ldr	r0, [sp, #4]
 1163 04bc FFF7FEFF 		bl	chThdExitS
 1164              		.loc 7 401 0
 1165 04c0 03B0     		add	sp, sp, #12
 1166              		@ sp needed
 1167 04c2 5DF804FB 		ldr	pc, [sp], #4
 1168              		.cfi_endproc
 1169              	.LFE240:
 1170              		.size	chThdExit, .-chThdExit
 1171 04c6 00BF     		.align	2
 1172 04c8 AFF30080 		.p2align 4,,15
 1172      AFF30080 
 1173              		.global	chThdExitS
 1174              		.thumb
ARM GAS  /tmp/ccPE0Erb.s 			page 22


 1175              		.thumb_func
 1176              		.type	chThdExitS, %function
 1177              	chThdExitS:
 1178              	.LFB241:
 1179              		.loc 7 417 0
 1180              		.cfi_startproc
 1181              		@ args = 0, pretend = 0, frame = 16
 1182              		@ frame_needed = 0, uses_anonymous_args = 0
 1183 04d0 00B5     		push	{lr}
 1184              		.cfi_def_cfa_offset 4
 1185              		.cfi_offset 14, -4
 1186 04d2 85B0     		sub	sp, sp, #20
 1187              		.cfi_def_cfa_offset 24
 1188 04d4 0190     		str	r0, [sp, #4]
 1189              		.loc 7 418 0
 1190 04d6 174B     		ldr	r3, .L68
 1191 04d8 9B69     		ldr	r3, [r3, #24]
 1192 04da 0393     		str	r3, [sp, #12]
 1193              		.loc 7 420 0
 1194 04dc 039B     		ldr	r3, [sp, #12]
 1195 04de 019A     		ldr	r2, [sp, #4]
 1196 04e0 1A62     		str	r2, [r3, #32]
 1197              		.loc 7 425 0
 1198 04e2 08E0     		b	.L65
 1199              	.L66:
 1200              		.loc 7 426 0
 1201 04e4 039B     		ldr	r3, [sp, #12]
 1202 04e6 2433     		adds	r3, r3, #36
 1203 04e8 1846     		mov	r0, r3
 1204 04ea FFF7E1FD 		bl	list_remove
 1205 04ee 0346     		mov	r3, r0
 1206 04f0 1846     		mov	r0, r3
 1207 04f2 FFF7FEFF 		bl	chSchReadyI
 1208              	.L65:
 1209              		.loc 7 425 0 discriminator 1
 1210 04f6 039B     		ldr	r3, [sp, #12]
 1211 04f8 2433     		adds	r3, r3, #36
 1212 04fa 1846     		mov	r0, r3
 1213 04fc FFF798FD 		bl	list_notempty
 1214 0500 0346     		mov	r3, r0
 1215 0502 002B     		cmp	r3, #0
 1216 0504 EED1     		bne	.L66
 1217              		.loc 7 432 0
 1218 0506 039B     		ldr	r3, [sp, #12]
 1219 0508 5B7F     		ldrb	r3, [r3, #29]	@ zero_extendqisi2
 1220 050a 03F00303 		and	r3, r3, #3
 1221 050e 002B     		cmp	r3, #0
 1222 0510 09D1     		bne	.L67
 1223              		.loc 7 433 0
 1224 0512 039B     		ldr	r3, [sp, #12]
 1225 0514 5B69     		ldr	r3, [r3, #20]
 1226 0516 039A     		ldr	r2, [sp, #12]
 1227 0518 1269     		ldr	r2, [r2, #16]
 1228 051a 1A61     		str	r2, [r3, #16]
 1229 051c 039B     		ldr	r3, [sp, #12]
 1230 051e 1B69     		ldr	r3, [r3, #16]
 1231 0520 039A     		ldr	r2, [sp, #12]
ARM GAS  /tmp/ccPE0Erb.s 			page 23


 1232 0522 5269     		ldr	r2, [r2, #20]
 1233 0524 5A61     		str	r2, [r3, #20]
 1234              	.L67:
 1235              		.loc 7 436 0
 1236 0526 0F20     		movs	r0, #15
 1237 0528 FFF7FEFF 		bl	chSchGoSleepS
 1238              		.loc 7 440 0
 1239 052c 05B0     		add	sp, sp, #20
 1240              		@ sp needed
 1241 052e 5DF804FB 		ldr	pc, [sp], #4
 1242              	.L69:
 1243 0532 00BF     		.align	2
 1244              	.L68:
 1245 0534 00000000 		.word	ch
 1246              		.cfi_endproc
 1247              	.LFE241:
 1248              		.size	chThdExitS, .-chThdExitS
 1249              		.align	2
 1250 0538 AFF30080 		.p2align 4,,15
 1250      AFF30080 
 1251              		.global	chThdWait
 1252              		.thumb
 1253              		.thumb_func
 1254              		.type	chThdWait, %function
 1255              	chThdWait:
 1256              	.LFB242:
 1257              		.loc 7 474 0
 1258              		.cfi_startproc
 1259              		@ args = 0, pretend = 0, frame = 16
 1260              		@ frame_needed = 0, uses_anonymous_args = 0
 1261 0540 00B5     		push	{lr}
 1262              		.cfi_def_cfa_offset 4
 1263              		.cfi_offset 14, -4
 1264 0542 85B0     		sub	sp, sp, #20
 1265              		.cfi_def_cfa_offset 24
 1266 0544 0190     		str	r0, [sp, #4]
 1267              		.loc 7 479 0
 1268 0546 FFF713FE 		bl	chSysLock
 1269              		.loc 7 484 0
 1270 054a 019B     		ldr	r3, [sp, #4]
 1271 054c 1B7F     		ldrb	r3, [r3, #28]	@ zero_extendqisi2
 1272 054e 0F2B     		cmp	r3, #15
 1273 0550 0AD0     		beq	.L71
 1274              		.loc 7 485 0
 1275 0552 0C4B     		ldr	r3, .L73
 1276 0554 9A69     		ldr	r2, [r3, #24]
 1277 0556 019B     		ldr	r3, [sp, #4]
 1278 0558 2433     		adds	r3, r3, #36
 1279 055a 1046     		mov	r0, r2
 1280 055c 1946     		mov	r1, r3
 1281 055e FFF797FD 		bl	list_insert
 1282              		.loc 7 486 0
 1283 0562 0920     		movs	r0, #9
 1284 0564 FFF7FEFF 		bl	chSchGoSleepS
 1285              	.L71:
 1286              		.loc 7 488 0
 1287 0568 019B     		ldr	r3, [sp, #4]
ARM GAS  /tmp/ccPE0Erb.s 			page 24


 1288 056a 1B6A     		ldr	r3, [r3, #32]
 1289 056c 0393     		str	r3, [sp, #12]
 1290              		.loc 7 489 0
 1291 056e FFF707FE 		bl	chSysUnlock
 1292              		.loc 7 493 0
 1293 0572 0198     		ldr	r0, [sp, #4]
 1294 0574 FFF7FEFF 		bl	chThdRelease
 1295              		.loc 7 496 0
 1296 0578 039B     		ldr	r3, [sp, #12]
 1297              		.loc 7 497 0
 1298 057a 1846     		mov	r0, r3
 1299 057c 05B0     		add	sp, sp, #20
 1300              		@ sp needed
 1301 057e 5DF804FB 		ldr	pc, [sp], #4
 1302              	.L74:
 1303 0582 00BF     		.align	2
 1304              	.L73:
 1305 0584 00000000 		.word	ch
 1306              		.cfi_endproc
 1307              	.LFE242:
 1308              		.size	chThdWait, .-chThdWait
 1309              		.align	2
 1310 0588 AFF30080 		.p2align 4,,15
 1310      AFF30080 
 1311              		.global	chThdSuspendS
 1312              		.thumb
 1313              		.thumb_func
 1314              		.type	chThdSuspendS, %function
 1315              	chThdSuspendS:
 1316              	.LFB243:
 1317              		.loc 7 510 0
 1318              		.cfi_startproc
 1319              		@ args = 0, pretend = 0, frame = 16
 1320              		@ frame_needed = 0, uses_anonymous_args = 0
 1321 0590 00B5     		push	{lr}
 1322              		.cfi_def_cfa_offset 4
 1323              		.cfi_offset 14, -4
 1324 0592 85B0     		sub	sp, sp, #20
 1325              		.cfi_def_cfa_offset 24
 1326 0594 0190     		str	r0, [sp, #4]
 1327              		.loc 7 511 0
 1328 0596 FFF71BFE 		bl	chThdGetSelfX
 1329 059a 0390     		str	r0, [sp, #12]
 1330              		.loc 7 515 0
 1331 059c 019B     		ldr	r3, [sp, #4]
 1332 059e 039A     		ldr	r2, [sp, #12]
 1333 05a0 1A60     		str	r2, [r3]
 1334              		.loc 7 516 0
 1335 05a2 039B     		ldr	r3, [sp, #12]
 1336 05a4 019A     		ldr	r2, [sp, #4]
 1337 05a6 1A62     		str	r2, [r3, #32]
 1338              		.loc 7 517 0
 1339 05a8 0320     		movs	r0, #3
 1340 05aa FFF7FEFF 		bl	chSchGoSleepS
 1341              		.loc 7 519 0
 1342 05ae FFF70FFE 		bl	chThdGetSelfX
 1343 05b2 0346     		mov	r3, r0
ARM GAS  /tmp/ccPE0Erb.s 			page 25


 1344 05b4 1B6A     		ldr	r3, [r3, #32]
 1345              		.loc 7 520 0
 1346 05b6 1846     		mov	r0, r3
 1347 05b8 05B0     		add	sp, sp, #20
 1348              		@ sp needed
 1349 05ba 5DF804FB 		ldr	pc, [sp], #4
 1350              		.cfi_endproc
 1351              	.LFE243:
 1352              		.size	chThdSuspendS, .-chThdSuspendS
 1353 05be 00BF     		.align	2
 1354              		.p2align 4,,15
 1355              		.global	chThdSuspendTimeoutS
 1356              		.thumb
 1357              		.thumb_func
 1358              		.type	chThdSuspendTimeoutS, %function
 1359              	chThdSuspendTimeoutS:
 1360              	.LFB244:
 1361              		.loc 7 541 0
 1362              		.cfi_startproc
 1363              		@ args = 0, pretend = 0, frame = 16
 1364              		@ frame_needed = 0, uses_anonymous_args = 0
 1365 05c0 00B5     		push	{lr}
 1366              		.cfi_def_cfa_offset 4
 1367              		.cfi_offset 14, -4
 1368 05c2 85B0     		sub	sp, sp, #20
 1369              		.cfi_def_cfa_offset 24
 1370 05c4 0190     		str	r0, [sp, #4]
 1371 05c6 0091     		str	r1, [sp]
 1372              		.loc 7 542 0
 1373 05c8 FFF702FE 		bl	chThdGetSelfX
 1374 05cc 0390     		str	r0, [sp, #12]
 1375              		.loc 7 546 0
 1376 05ce 009B     		ldr	r3, [sp]
 1377 05d0 002B     		cmp	r3, #0
 1378 05d2 02D1     		bne	.L78
 1379              		.loc 7 547 0
 1380 05d4 4FF0FF33 		mov	r3, #-1
 1381 05d8 0AE0     		b	.L79
 1382              	.L78:
 1383              		.loc 7 550 0
 1384 05da 019B     		ldr	r3, [sp, #4]
 1385 05dc 039A     		ldr	r2, [sp, #12]
 1386 05de 1A60     		str	r2, [r3]
 1387              		.loc 7 551 0
 1388 05e0 039B     		ldr	r3, [sp, #12]
 1389 05e2 019A     		ldr	r2, [sp, #4]
 1390 05e4 1A62     		str	r2, [r3, #32]
 1391              		.loc 7 553 0
 1392 05e6 0320     		movs	r0, #3
 1393 05e8 0099     		ldr	r1, [sp]
 1394 05ea FFF7FEFF 		bl	chSchGoSleepTimeoutS
 1395 05ee 0346     		mov	r3, r0
 1396              	.L79:
 1397              		.loc 7 554 0
 1398 05f0 1846     		mov	r0, r3
 1399 05f2 05B0     		add	sp, sp, #20
 1400              		@ sp needed
ARM GAS  /tmp/ccPE0Erb.s 			page 26


 1401 05f4 5DF804FB 		ldr	pc, [sp], #4
 1402              		.cfi_endproc
 1403              	.LFE244:
 1404              		.size	chThdSuspendTimeoutS, .-chThdSuspendTimeoutS
 1405              		.align	2
 1406 05f8 AFF30080 		.p2align 4,,15
 1406      AFF30080 
 1407              		.global	chThdResumeI
 1408              		.thumb
 1409              		.thumb_func
 1410              		.type	chThdResumeI, %function
 1411              	chThdResumeI:
 1412              	.LFB245:
 1413              		.loc 7 566 0
 1414              		.cfi_startproc
 1415              		@ args = 0, pretend = 0, frame = 16
 1416              		@ frame_needed = 0, uses_anonymous_args = 0
 1417 0600 00B5     		push	{lr}
 1418              		.cfi_def_cfa_offset 4
 1419              		.cfi_offset 14, -4
 1420 0602 85B0     		sub	sp, sp, #20
 1421              		.cfi_def_cfa_offset 24
 1422 0604 0190     		str	r0, [sp, #4]
 1423 0606 0091     		str	r1, [sp]
 1424              		.loc 7 568 0
 1425 0608 019B     		ldr	r3, [sp, #4]
 1426 060a 1B68     		ldr	r3, [r3]
 1427 060c 002B     		cmp	r3, #0
 1428 060e 0BD0     		beq	.L80
 1429              	.LBB10:
 1430              		.loc 7 569 0
 1431 0610 019B     		ldr	r3, [sp, #4]
 1432 0612 1B68     		ldr	r3, [r3]
 1433 0614 0393     		str	r3, [sp, #12]
 1434              		.loc 7 574 0
 1435 0616 019B     		ldr	r3, [sp, #4]
 1436 0618 0022     		movs	r2, #0
 1437 061a 1A60     		str	r2, [r3]
 1438              		.loc 7 575 0
 1439 061c 039B     		ldr	r3, [sp, #12]
 1440 061e 009A     		ldr	r2, [sp]
 1441 0620 1A62     		str	r2, [r3, #32]
 1442              		.loc 7 576 0
 1443 0622 0398     		ldr	r0, [sp, #12]
 1444 0624 FFF7FEFF 		bl	chSchReadyI
 1445              	.L80:
 1446              	.LBE10:
 1447              		.loc 7 578 0
 1448 0628 05B0     		add	sp, sp, #20
 1449              		@ sp needed
 1450 062a 5DF804FB 		ldr	pc, [sp], #4
 1451              		.cfi_endproc
 1452              	.LFE245:
 1453              		.size	chThdResumeI, .-chThdResumeI
 1454 062e 00BF     		.align	2
 1455              		.p2align 4,,15
 1456              		.global	chThdResumeS
ARM GAS  /tmp/ccPE0Erb.s 			page 27


 1457              		.thumb
 1458              		.thumb_func
 1459              		.type	chThdResumeS, %function
 1460              	chThdResumeS:
 1461              	.LFB246:
 1462              		.loc 7 590 0
 1463              		.cfi_startproc
 1464              		@ args = 0, pretend = 0, frame = 16
 1465              		@ frame_needed = 0, uses_anonymous_args = 0
 1466 0630 00B5     		push	{lr}
 1467              		.cfi_def_cfa_offset 4
 1468              		.cfi_offset 14, -4
 1469 0632 85B0     		sub	sp, sp, #20
 1470              		.cfi_def_cfa_offset 24
 1471 0634 0190     		str	r0, [sp, #4]
 1472 0636 0091     		str	r1, [sp]
 1473              		.loc 7 592 0
 1474 0638 019B     		ldr	r3, [sp, #4]
 1475 063a 1B68     		ldr	r3, [r3]
 1476 063c 002B     		cmp	r3, #0
 1477 063e 09D0     		beq	.L82
 1478              	.LBB11:
 1479              		.loc 7 593 0
 1480 0640 019B     		ldr	r3, [sp, #4]
 1481 0642 1B68     		ldr	r3, [r3]
 1482 0644 0393     		str	r3, [sp, #12]
 1483              		.loc 7 598 0
 1484 0646 019B     		ldr	r3, [sp, #4]
 1485 0648 0022     		movs	r2, #0
 1486 064a 1A60     		str	r2, [r3]
 1487              		.loc 7 599 0
 1488 064c 0398     		ldr	r0, [sp, #12]
 1489 064e 0099     		ldr	r1, [sp]
 1490 0650 FFF7FEFF 		bl	chSchWakeupS
 1491              	.L82:
 1492              	.LBE11:
 1493              		.loc 7 601 0
 1494 0654 05B0     		add	sp, sp, #20
 1495              		@ sp needed
 1496 0656 5DF804FB 		ldr	pc, [sp], #4
 1497              		.cfi_endproc
 1498              	.LFE246:
 1499              		.size	chThdResumeS, .-chThdResumeS
 1500 065a 00BF     		.align	2
 1501 065c AFF30080 		.p2align 4,,15
 1502              		.global	chThdResume
 1503              		.thumb
 1504              		.thumb_func
 1505              		.type	chThdResume, %function
 1506              	chThdResume:
 1507              	.LFB247:
 1508              		.loc 7 613 0
 1509              		.cfi_startproc
 1510              		@ args = 0, pretend = 0, frame = 8
 1511              		@ frame_needed = 0, uses_anonymous_args = 0
 1512 0660 00B5     		push	{lr}
 1513              		.cfi_def_cfa_offset 4
ARM GAS  /tmp/ccPE0Erb.s 			page 28


 1514              		.cfi_offset 14, -4
 1515 0662 83B0     		sub	sp, sp, #12
 1516              		.cfi_def_cfa_offset 16
 1517 0664 0190     		str	r0, [sp, #4]
 1518 0666 0091     		str	r1, [sp]
 1519              		.loc 7 615 0
 1520 0668 FFF782FD 		bl	chSysLock
 1521              		.loc 7 616 0
 1522 066c 0198     		ldr	r0, [sp, #4]
 1523 066e 0099     		ldr	r1, [sp]
 1524 0670 FFF7FEFF 		bl	chThdResumeS
 1525              		.loc 7 617 0
 1526 0674 FFF784FD 		bl	chSysUnlock
 1527              		.loc 7 618 0
 1528 0678 03B0     		add	sp, sp, #12
 1529              		@ sp needed
 1530 067a 5DF804FB 		ldr	pc, [sp], #4
 1531              		.cfi_endproc
 1532              	.LFE247:
 1533              		.size	chThdResume, .-chThdResume
 1534 067e 00BF     		.align	2
 1535              		.p2align 4,,15
 1536              		.global	chThdEnqueueTimeoutS
 1537              		.thumb
 1538              		.thumb_func
 1539              		.type	chThdEnqueueTimeoutS, %function
 1540              	chThdEnqueueTimeoutS:
 1541              	.LFB248:
 1542              		.loc 7 643 0
 1543              		.cfi_startproc
 1544              		@ args = 0, pretend = 0, frame = 8
 1545              		@ frame_needed = 0, uses_anonymous_args = 0
 1546 0680 00B5     		push	{lr}
 1547              		.cfi_def_cfa_offset 4
 1548              		.cfi_offset 14, -4
 1549 0682 83B0     		sub	sp, sp, #12
 1550              		.cfi_def_cfa_offset 16
 1551 0684 0190     		str	r0, [sp, #4]
 1552 0686 0091     		str	r1, [sp]
 1553              		.loc 7 645 0
 1554 0688 009B     		ldr	r3, [sp]
 1555 068a 002B     		cmp	r3, #0
 1556 068c 02D1     		bne	.L86
 1557              		.loc 7 646 0
 1558 068e 4FF0FF33 		mov	r3, #-1
 1559 0692 0AE0     		b	.L87
 1560              	.L86:
 1561              		.loc 7 649 0
 1562 0694 074B     		ldr	r3, .L88
 1563 0696 9B69     		ldr	r3, [r3, #24]
 1564 0698 1846     		mov	r0, r3
 1565 069a 0199     		ldr	r1, [sp, #4]
 1566 069c FFF718FD 		bl	queue_insert
 1567              		.loc 7 651 0
 1568 06a0 0420     		movs	r0, #4
 1569 06a2 0099     		ldr	r1, [sp]
 1570 06a4 FFF7FEFF 		bl	chSchGoSleepTimeoutS
ARM GAS  /tmp/ccPE0Erb.s 			page 29


 1571 06a8 0346     		mov	r3, r0
 1572              	.L87:
 1573              		.loc 7 652 0
 1574 06aa 1846     		mov	r0, r3
 1575 06ac 03B0     		add	sp, sp, #12
 1576              		@ sp needed
 1577 06ae 5DF804FB 		ldr	pc, [sp], #4
 1578              	.L89:
 1579 06b2 00BF     		.align	2
 1580              	.L88:
 1581 06b4 00000000 		.word	ch
 1582              		.cfi_endproc
 1583              	.LFE248:
 1584              		.size	chThdEnqueueTimeoutS, .-chThdEnqueueTimeoutS
 1585              		.align	2
 1586 06b8 AFF30080 		.p2align 4,,15
 1586      AFF30080 
 1587              		.global	chThdDequeueNextI
 1588              		.thumb
 1589              		.thumb_func
 1590              		.type	chThdDequeueNextI, %function
 1591              	chThdDequeueNextI:
 1592              	.LFB249:
 1593              		.loc 7 663 0
 1594              		.cfi_startproc
 1595              		@ args = 0, pretend = 0, frame = 8
 1596              		@ frame_needed = 0, uses_anonymous_args = 0
 1597 06c0 00B5     		push	{lr}
 1598              		.cfi_def_cfa_offset 4
 1599              		.cfi_offset 14, -4
 1600 06c2 83B0     		sub	sp, sp, #12
 1601              		.cfi_def_cfa_offset 16
 1602 06c4 0190     		str	r0, [sp, #4]
 1603 06c6 0091     		str	r1, [sp]
 1604              		.loc 7 665 0
 1605 06c8 0198     		ldr	r0, [sp, #4]
 1606 06ca FFF7D1FC 		bl	queue_notempty
 1607 06ce 0346     		mov	r3, r0
 1608 06d0 002B     		cmp	r3, #0
 1609 06d2 03D0     		beq	.L90
 1610              		.loc 7 666 0
 1611 06d4 0198     		ldr	r0, [sp, #4]
 1612 06d6 0099     		ldr	r1, [sp]
 1613 06d8 FFF7A2FD 		bl	chThdDoDequeueNextI
 1614              	.L90:
 1615              		.loc 7 668 0
 1616 06dc 03B0     		add	sp, sp, #12
 1617              		@ sp needed
 1618 06de 5DF804FB 		ldr	pc, [sp], #4
 1619              		.cfi_endproc
 1620              	.LFE249:
 1621              		.size	chThdDequeueNextI, .-chThdDequeueNextI
 1622 06e2 00BF     		.align	2
 1623 06e4 AFF30080 		.p2align 4,,15
 1623      AFF30080 
 1623      AFF30080 
 1624              		.global	chThdDequeueAllI
ARM GAS  /tmp/ccPE0Erb.s 			page 30


 1625              		.thumb
 1626              		.thumb_func
 1627              		.type	chThdDequeueAllI, %function
 1628              	chThdDequeueAllI:
 1629              	.LFB250:
 1630              		.loc 7 678 0
 1631              		.cfi_startproc
 1632              		@ args = 0, pretend = 0, frame = 8
 1633              		@ frame_needed = 0, uses_anonymous_args = 0
 1634 06f0 00B5     		push	{lr}
 1635              		.cfi_def_cfa_offset 4
 1636              		.cfi_offset 14, -4
 1637 06f2 83B0     		sub	sp, sp, #12
 1638              		.cfi_def_cfa_offset 16
 1639 06f4 0190     		str	r0, [sp, #4]
 1640 06f6 0091     		str	r1, [sp]
 1641              		.loc 7 680 0
 1642 06f8 03E0     		b	.L93
 1643              	.L94:
 1644              		.loc 7 681 0
 1645 06fa 0198     		ldr	r0, [sp, #4]
 1646 06fc 0099     		ldr	r1, [sp]
 1647 06fe FFF78FFD 		bl	chThdDoDequeueNextI
 1648              	.L93:
 1649              		.loc 7 680 0 discriminator 1
 1650 0702 0198     		ldr	r0, [sp, #4]
 1651 0704 FFF7B4FC 		bl	queue_notempty
 1652 0708 0346     		mov	r3, r0
 1653 070a 002B     		cmp	r3, #0
 1654 070c F5D1     		bne	.L94
 1655              		.loc 7 683 0
 1656 070e 03B0     		add	sp, sp, #12
 1657              		@ sp needed
 1658 0710 5DF804FB 		ldr	pc, [sp], #4
 1659              		.cfi_endproc
 1660              	.LFE250:
 1661              		.size	chThdDequeueAllI, .-chThdDequeueAllI
 1662              	.Letext0:
 1663              		.file 8 "/nfs/nfs5/home/research/hardware/arm2/gcc-arm-embedded/gcc-arm-none-eabi-4_8-2014q2/lib/g
 1664              		.file 9 "/nfs/nfs5/home/research/hardware/arm2/gcc-arm-embedded/gcc-arm-none-eabi-4_8-2014q2/arm-n
 1665              		.file 10 "/nfs/nfs5/home/research/hardware/arm2/gcc-arm-embedded/gcc-arm-none-eabi-4_8-2014q2/arm-
 1666              		.file 11 "../../ChibiOS/os/rt/ports/ARMCMx/compilers/GCC/chtypes.h"
 1667              		.file 12 "../../ChibiOS/os/rt/include/chsystypes.h"
 1668              		.file 13 "../../ChibiOS/os/rt/ports/ARMCMx/chcore.h"
 1669              		.file 14 "../../ChibiOS/os/rt/include/chtm.h"
 1670              		.file 15 "../../ChibiOS/os/rt/include/chsem.h"
 1671              		.file 16 "../../ChibiOS/os/rt/include/chmtx.h"
 1672              		.file 17 "../../ChibiOS/os/ext/CMSIS/include/core_cm4.h"