ARM GAS  /tmp/cc1GdmOi.s 			page 1


   1              		.syntax unified
   2              		.cpu cortex-m4
   3              		.fpu softvfp
   4              		.eabi_attribute 20, 1
   5              		.eabi_attribute 21, 1
   6              		.eabi_attribute 23, 3
   7              		.eabi_attribute 24, 1
   8              		.eabi_attribute 25, 1
   9              		.eabi_attribute 26, 1
  10              		.eabi_attribute 30, 6
  11              		.eabi_attribute 34, 1
  12              		.eabi_attribute 18, 4
  13              		.thumb
  14              		.file	"chtm.c"
  15              		.text
  16              	.Ltext0:
  17              		.cfi_sections	.debug_frame
  18              		.align	2
  19              		.p2align 4,,15
  20              		.thumb
  21              		.thumb_func
  22              		.type	port_rt_get_counter_value, %function
  23              	port_rt_get_counter_value:
  24              	.LFB135:
  25              		.file 1 "../../ChibiOS/os/rt/ports/ARMCMx/chcore_v7m.h"
  26              		.loc 1 568 0
  27              		.cfi_startproc
  28              		@ args = 0, pretend = 0, frame = 0
  29              		@ frame_needed = 0, uses_anonymous_args = 0
  30              		@ link register save eliminated.
  31              		.loc 1 570 0
  32 0000 014B     		ldr	r3, .L3
  33 0002 5B68     		ldr	r3, [r3, #4]
  34              		.loc 1 571 0
  35 0004 1846     		mov	r0, r3
  36 0006 7047     		bx	lr
  37              	.L4:
  38              		.align	2
  39              	.L3:
  40 0008 001000E0 		.word	-536866816
  41              		.cfi_endproc
  42              	.LFE135:
  43              		.size	port_rt_get_counter_value, .-port_rt_get_counter_value
  44              		.align	2
  45 000c AFF30080 		.p2align 4,,15
  46              		.thumb
  47              		.thumb_func
  48              		.type	tm_stop, %function
  49              	tm_stop:
  50              	.LFB230:
  51              		.file 2 "../../ChibiOS/os/rt/src/chtm.c"
  52              		.loc 2 55 0
  53              		.cfi_startproc
  54              		@ args = 0, pretend = 0, frame = 16
  55              		@ frame_needed = 0, uses_anonymous_args = 0
  56              		@ link register save eliminated.
  57 0010 84B0     		sub	sp, sp, #16
ARM GAS  /tmp/cc1GdmOi.s 			page 2


  58              		.cfi_def_cfa_offset 16
  59 0012 0390     		str	r0, [sp, #12]
  60 0014 0291     		str	r1, [sp, #8]
  61 0016 0192     		str	r2, [sp, #4]
  62              		.loc 2 57 0
  63 0018 039B     		ldr	r3, [sp, #12]
  64 001a DB68     		ldr	r3, [r3, #12]
  65 001c 5A1C     		adds	r2, r3, #1
  66 001e 039B     		ldr	r3, [sp, #12]
  67 0020 DA60     		str	r2, [r3, #12]
  68              		.loc 2 58 0
  69 0022 039B     		ldr	r3, [sp, #12]
  70 0024 9B68     		ldr	r3, [r3, #8]
  71 0026 029A     		ldr	r2, [sp, #8]
  72 0028 D21A     		subs	r2, r2, r3
  73 002a 019B     		ldr	r3, [sp, #4]
  74 002c D21A     		subs	r2, r2, r3
  75 002e 039B     		ldr	r3, [sp, #12]
  76 0030 9A60     		str	r2, [r3, #8]
  77              		.loc 2 59 0
  78 0032 039B     		ldr	r3, [sp, #12]
  79 0034 D3E90401 		ldrd	r0, [r3, #16]
  80 0038 039B     		ldr	r3, [sp, #12]
  81 003a 9B68     		ldr	r3, [r3, #8]
  82 003c 1A46     		mov	r2, r3
  83 003e 4FF00003 		mov	r3, #0
  84 0042 1218     		adds	r2, r2, r0
  85 0044 43EB0103 		adc	r3, r3, r1
  86 0048 0399     		ldr	r1, [sp, #12]
  87 004a C1E90423 		strd	r2, [r1, #16]
  88              		.loc 2 60 0
  89 004e 039B     		ldr	r3, [sp, #12]
  90 0050 9A68     		ldr	r2, [r3, #8]
  91 0052 039B     		ldr	r3, [sp, #12]
  92 0054 5B68     		ldr	r3, [r3, #4]
  93 0056 9A42     		cmp	r2, r3
  94 0058 03D9     		bls	.L6
  95              		.loc 2 61 0
  96 005a 039B     		ldr	r3, [sp, #12]
  97 005c 9A68     		ldr	r2, [r3, #8]
  98 005e 039B     		ldr	r3, [sp, #12]
  99 0060 5A60     		str	r2, [r3, #4]
 100              	.L6:
 101              		.loc 2 63 0
 102 0062 039B     		ldr	r3, [sp, #12]
 103 0064 9A68     		ldr	r2, [r3, #8]
 104 0066 039B     		ldr	r3, [sp, #12]
 105 0068 1B68     		ldr	r3, [r3]
 106 006a 9A42     		cmp	r2, r3
 107 006c 03D2     		bcs	.L5
 108              		.loc 2 64 0
 109 006e 039B     		ldr	r3, [sp, #12]
 110 0070 9A68     		ldr	r2, [r3, #8]
 111 0072 039B     		ldr	r3, [sp, #12]
 112 0074 1A60     		str	r2, [r3]
 113              	.L5:
 114              		.loc 2 66 0
ARM GAS  /tmp/cc1GdmOi.s 			page 3


 115 0076 04B0     		add	sp, sp, #16
 116              		@ sp needed
 117 0078 7047     		bx	lr
 118              		.cfi_endproc
 119              	.LFE230:
 120              		.size	tm_stop, .-tm_stop
 121 007a 00BF     		.align	2
 122 007c AFF30080 		.p2align 4,,15
 123              		.global	_tm_init
 124              		.thumb
 125              		.thumb_func
 126              		.type	_tm_init, %function
 127              	_tm_init:
 128              	.LFB231:
 129              		.loc 2 77 0
 130              		.cfi_startproc
 131              		@ args = 0, pretend = 0, frame = 24
 132              		@ frame_needed = 0, uses_anonymous_args = 0
 133 0080 00B5     		push	{lr}
 134              		.cfi_def_cfa_offset 4
 135              		.cfi_offset 14, -4
 136 0082 87B0     		sub	sp, sp, #28
 137              		.cfi_def_cfa_offset 32
 138              		.loc 2 83 0
 139 0084 0A4B     		ldr	r3, .L9
 140 0086 0022     		movs	r2, #0
 141 0088 5A67     		str	r2, [r3, #116]
 142              		.loc 2 84 0
 143 008a 6B46     		mov	r3, sp
 144 008c 1846     		mov	r0, r3
 145 008e FFF7FEFF 		bl	chTMObjectInit
 146              		.loc 2 85 0
 147 0092 6B46     		mov	r3, sp
 148 0094 1846     		mov	r0, r3
 149 0096 FFF7FEFF 		bl	chTMStartMeasurementX
 150              		.loc 2 86 0
 151 009a 6B46     		mov	r3, sp
 152 009c 1846     		mov	r0, r3
 153 009e FFF7FEFF 		bl	chTMStopMeasurementX
 154              		.loc 2 87 0
 155 00a2 029A     		ldr	r2, [sp, #8]
 156 00a4 024B     		ldr	r3, .L9
 157 00a6 5A67     		str	r2, [r3, #116]
 158              		.loc 2 88 0
 159 00a8 07B0     		add	sp, sp, #28
 160              		@ sp needed
 161 00aa 5DF804FB 		ldr	pc, [sp], #4
 162              	.L10:
 163 00ae 00BF     		.align	2
 164              	.L9:
 165 00b0 00000000 		.word	ch
 166              		.cfi_endproc
 167              	.LFE231:
 168              		.size	_tm_init, .-_tm_init
 169              		.align	2
 170 00b4 AFF30080 		.p2align 4,,15
 170      AFF30080 
ARM GAS  /tmp/cc1GdmOi.s 			page 4


 170      AFF30080 
 171              		.global	chTMObjectInit
 172              		.thumb
 173              		.thumb_func
 174              		.type	chTMObjectInit, %function
 175              	chTMObjectInit:
 176              	.LFB232:
 177              		.loc 2 97 0
 178              		.cfi_startproc
 179              		@ args = 0, pretend = 0, frame = 8
 180              		@ frame_needed = 0, uses_anonymous_args = 0
 181              		@ link register save eliminated.
 182 00c0 82B0     		sub	sp, sp, #8
 183              		.cfi_def_cfa_offset 8
 184 00c2 0190     		str	r0, [sp, #4]
 185              		.loc 2 99 0
 186 00c4 019B     		ldr	r3, [sp, #4]
 187 00c6 4FF0FF32 		mov	r2, #-1
 188 00ca 1A60     		str	r2, [r3]
 189              		.loc 2 100 0
 190 00cc 019B     		ldr	r3, [sp, #4]
 191 00ce 0022     		movs	r2, #0
 192 00d0 5A60     		str	r2, [r3, #4]
 193              		.loc 2 101 0
 194 00d2 019B     		ldr	r3, [sp, #4]
 195 00d4 0022     		movs	r2, #0
 196 00d6 9A60     		str	r2, [r3, #8]
 197              		.loc 2 102 0
 198 00d8 019B     		ldr	r3, [sp, #4]
 199 00da 0022     		movs	r2, #0
 200 00dc DA60     		str	r2, [r3, #12]
 201              		.loc 2 103 0
 202 00de 0199     		ldr	r1, [sp, #4]
 203 00e0 4FF00002 		mov	r2, #0
 204 00e4 4FF00003 		mov	r3, #0
 205 00e8 C1E90423 		strd	r2, [r1, #16]
 206              		.loc 2 104 0
 207 00ec 02B0     		add	sp, sp, #8
 208              		@ sp needed
 209 00ee 7047     		bx	lr
 210              		.cfi_endproc
 211              	.LFE232:
 212              		.size	chTMObjectInit, .-chTMObjectInit
 213              		.align	2
 214              		.p2align 4,,15
 215              		.global	chTMStartMeasurementX
 216              		.thumb
 217              		.thumb_func
 218              		.type	chTMStartMeasurementX, %function
 219              	chTMStartMeasurementX:
 220              	.LFB233:
 221              		.loc 2 114 0
 222              		.cfi_startproc
 223              		@ args = 0, pretend = 0, frame = 8
 224              		@ frame_needed = 0, uses_anonymous_args = 0
 225 00f0 00B5     		push	{lr}
 226              		.cfi_def_cfa_offset 4
ARM GAS  /tmp/cc1GdmOi.s 			page 5


 227              		.cfi_offset 14, -4
 228 00f2 83B0     		sub	sp, sp, #12
 229              		.cfi_def_cfa_offset 16
 230 00f4 0190     		str	r0, [sp, #4]
 231              		.loc 2 116 0
 232 00f6 FFF783FF 		bl	port_rt_get_counter_value
 233 00fa 0246     		mov	r2, r0
 234 00fc 019B     		ldr	r3, [sp, #4]
 235 00fe 9A60     		str	r2, [r3, #8]
 236              		.loc 2 117 0
 237 0100 03B0     		add	sp, sp, #12
 238              		@ sp needed
 239 0102 5DF804FB 		ldr	pc, [sp], #4
 240              		.cfi_endproc
 241              	.LFE233:
 242              		.size	chTMStartMeasurementX, .-chTMStartMeasurementX
 243 0106 00BF     		.align	2
 244 0108 AFF30080 		.p2align 4,,15
 244      AFF30080 
 245              		.global	chTMStopMeasurementX
 246              		.thumb
 247              		.thumb_func
 248              		.type	chTMStopMeasurementX, %function
 249              	chTMStopMeasurementX:
 250              	.LFB234:
 251              		.loc 2 127 0
 252              		.cfi_startproc
 253              		@ args = 0, pretend = 0, frame = 8
 254              		@ frame_needed = 0, uses_anonymous_args = 0
 255 0110 00B5     		push	{lr}
 256              		.cfi_def_cfa_offset 4
 257              		.cfi_offset 14, -4
 258 0112 83B0     		sub	sp, sp, #12
 259              		.cfi_def_cfa_offset 16
 260 0114 0190     		str	r0, [sp, #4]
 261              		.loc 2 129 0
 262 0116 FFF773FF 		bl	port_rt_get_counter_value
 263 011a 0246     		mov	r2, r0
 264 011c 044B     		ldr	r3, .L14
 265 011e 5B6F     		ldr	r3, [r3, #116]
 266 0120 0198     		ldr	r0, [sp, #4]
 267 0122 1146     		mov	r1, r2
 268 0124 1A46     		mov	r2, r3
 269 0126 FFF773FF 		bl	tm_stop
 270              		.loc 2 130 0
 271 012a 03B0     		add	sp, sp, #12
 272              		@ sp needed
 273 012c 5DF804FB 		ldr	pc, [sp], #4
 274              	.L15:
 275              		.align	2
 276              	.L14:
 277 0130 00000000 		.word	ch
 278              		.cfi_endproc
 279              	.LFE234:
 280              		.size	chTMStopMeasurementX, .-chTMStopMeasurementX
 281              		.align	2
 282 0134 AFF30080 		.p2align 4,,15
ARM GAS  /tmp/cc1GdmOi.s 			page 6


 282      AFF30080 
 282      AFF30080 
 283              		.global	chTMChainMeasurementToX
 284              		.thumb
 285              		.thumb_func
 286              		.type	chTMChainMeasurementToX, %function
 287              	chTMChainMeasurementToX:
 288              	.LFB235:
 289              		.loc 2 145 0
 290              		.cfi_startproc
 291              		@ args = 0, pretend = 0, frame = 8
 292              		@ frame_needed = 0, uses_anonymous_args = 0
 293 0140 00B5     		push	{lr}
 294              		.cfi_def_cfa_offset 4
 295              		.cfi_offset 14, -4
 296 0142 83B0     		sub	sp, sp, #12
 297              		.cfi_def_cfa_offset 16
 298 0144 0190     		str	r0, [sp, #4]
 299 0146 0091     		str	r1, [sp]
 300              		.loc 2 148 0
 301 0148 FFF75AFF 		bl	port_rt_get_counter_value
 302 014c 0246     		mov	r2, r0
 303 014e 009B     		ldr	r3, [sp]
 304 0150 9A60     		str	r2, [r3, #8]
 305              		.loc 2 151 0
 306 0152 009B     		ldr	r3, [sp]
 307 0154 9B68     		ldr	r3, [r3, #8]
 308 0156 0198     		ldr	r0, [sp, #4]
 309 0158 1946     		mov	r1, r3
 310 015a 0022     		movs	r2, #0
 311 015c FFF758FF 		bl	tm_stop
 312              		.loc 2 152 0
 313 0160 03B0     		add	sp, sp, #12
 314              		@ sp needed
 315 0162 5DF804FB 		ldr	pc, [sp], #4
 316              		.cfi_endproc
 317              	.LFE235:
 318              		.size	chTMChainMeasurementToX, .-chTMChainMeasurementToX
 319              	.Letext0:
 320              		.file 3 "/nfs/nfs5/home/research/hardware/arm2/gcc-arm-embedded/gcc-arm-none-eabi-4_8-2014q2/arm-n
 321              		.file 4 "/nfs/nfs5/home/research/hardware/arm2/gcc-arm-embedded/gcc-arm-none-eabi-4_8-2014q2/arm-n
 322              		.file 5 "../../ChibiOS/os/rt/ports/ARMCMx/compilers/GCC/chtypes.h"
 323              		.file 6 "../../ChibiOS/os/rt/include/chsystypes.h"
 324              		.file 7 "../../ChibiOS/os/rt/include/chschd.h"
 325              		.file 8 "../../ChibiOS/os/ext/CMSIS/include/core_cm4.h"
 326              		.file 9 "../../ChibiOS/os/rt/ports/ARMCMx/chcore.h"
 327              		.file 10 "../../ChibiOS/os/rt/include/chtm.h"
 328              		.file 11 "../../ChibiOS/os/rt/include/chsem.h"
 329              		.file 12 "../../ChibiOS/os/rt/include/chmtx.h"