ARM GAS  /tmp/ccxtK8m3.s 			page 1


   1              		.syntax unified
   2              		.cpu cortex-m4
   3              		.fpu softvfp
   4              		.eabi_attribute 20, 1
   5              		.eabi_attribute 21, 1
   6              		.eabi_attribute 23, 3
   7              		.eabi_attribute 24, 1
   8              		.eabi_attribute 25, 1
   9              		.eabi_attribute 26, 1
  10              		.eabi_attribute 30, 6
  11              		.eabi_attribute 34, 1
  12              		.eabi_attribute 18, 4
  13              		.thumb
  14              		.file	"emu_uart.c"
  15              		.text
  16              	.Ltext0:
  17              		.cfi_sections	.debug_frame
  18              		.align	2
  19              		.p2align 4,,15
  20              		.thumb
  21              		.thumb_func
  22              		.type	port_lock, %function
  23              	port_lock:
  24              	.LFB127:
  25              		.file 1 "../../ChibiOS/os/rt/ports/ARMCMx/chcore_v7m.h"
  26              		.loc 1 456 0
  27              		.cfi_startproc
  28              		@ args = 0, pretend = 0, frame = 8
  29              		@ frame_needed = 0, uses_anonymous_args = 0
  30              		@ link register save eliminated.
  31 0000 82B0     		sub	sp, sp, #8
  32              		.cfi_def_cfa_offset 8
  33 0002 2023     		movs	r3, #32
  34 0004 0193     		str	r3, [sp, #4]
  35              	.LBB6:
  36              	.LBB7:
  37              		.file 2 "../../ChibiOS/os/ext/CMSIS/include/core_cmFunc.h"
  38              		.loc 2 548 0
  39 0006 019B     		ldr	r3, [sp, #4]
  40              	@ 548 "../../ChibiOS/os/ext/CMSIS/include/core_cmFunc.h" 1
  41 0008 83F31188 		MSR basepri, r3
  42              	@ 0 "" 2
  43              		.thumb
  44              	.LBE7:
  45              	.LBE6:
  46              		.loc 1 473 0
  47 000c 02B0     		add	sp, sp, #8
  48              		@ sp needed
  49 000e 7047     		bx	lr
  50              		.cfi_endproc
  51              	.LFE127:
  52              		.size	port_lock, .-port_lock
  53              		.align	2
  54              		.p2align 4,,15
  55              		.thumb
  56              		.thumb_func
  57              		.type	port_unlock, %function
ARM GAS  /tmp/ccxtK8m3.s 			page 2


  58              	port_unlock:
  59              	.LFB128:
  60              		.loc 1 480 0
  61              		.cfi_startproc
  62              		@ args = 0, pretend = 0, frame = 8
  63              		@ frame_needed = 0, uses_anonymous_args = 0
  64              		@ link register save eliminated.
  65 0010 82B0     		sub	sp, sp, #8
  66              		.cfi_def_cfa_offset 8
  67 0012 0023     		movs	r3, #0
  68 0014 0193     		str	r3, [sp, #4]
  69              	.LBB8:
  70              	.LBB9:
  71              		.loc 2 548 0
  72 0016 019B     		ldr	r3, [sp, #4]
  73              	@ 548 "../../ChibiOS/os/ext/CMSIS/include/core_cmFunc.h" 1
  74 0018 83F31188 		MSR basepri, r3
  75              	@ 0 "" 2
  76              		.thumb
  77              	.LBE9:
  78              	.LBE8:
  79              		.loc 1 487 0
  80 001c 02B0     		add	sp, sp, #8
  81              		@ sp needed
  82 001e 7047     		bx	lr
  83              		.cfi_endproc
  84              	.LFE128:
  85              		.size	port_unlock, .-port_unlock
  86              		.align	2
  87              		.p2align 4,,15
  88              		.thumb
  89              		.thumb_func
  90              		.type	chSysLock, %function
  91              	chSysLock:
  92              	.LFB156:
  93              		.file 3 "../../ChibiOS/os/rt/include/chsys.h"
  94              		.loc 3 346 0
  95              		.cfi_startproc
  96              		@ args = 0, pretend = 0, frame = 0
  97              		@ frame_needed = 0, uses_anonymous_args = 0
  98 0020 08B5     		push	{r3, lr}
  99              		.cfi_def_cfa_offset 8
 100              		.cfi_offset 3, -8
 101              		.cfi_offset 14, -4
 102              		.loc 3 348 0
 103 0022 FFF7EDFF 		bl	port_lock
 104              		.loc 3 351 0
 105 0026 08BD     		pop	{r3, pc}
 106              		.cfi_endproc
 107              	.LFE156:
 108              		.size	chSysLock, .-chSysLock
 109              		.align	2
 110 0028 AFF30080 		.p2align 4,,15
 110      AFF30080 
 111              		.thumb
 112              		.thumb_func
 113              		.type	chSysUnlock, %function
ARM GAS  /tmp/ccxtK8m3.s 			page 3


 114              	chSysUnlock:
 115              	.LFB157:
 116              		.loc 3 358 0
 117              		.cfi_startproc
 118              		@ args = 0, pretend = 0, frame = 0
 119              		@ frame_needed = 0, uses_anonymous_args = 0
 120 0030 08B5     		push	{r3, lr}
 121              		.cfi_def_cfa_offset 8
 122              		.cfi_offset 3, -8
 123              		.cfi_offset 14, -4
 124              		.loc 3 371 0
 125 0032 FFF7EDFF 		bl	port_unlock
 126              		.loc 3 372 0
 127 0036 08BD     		pop	{r3, pc}
 128              		.cfi_endproc
 129              	.LFE157:
 130              		.size	chSysUnlock, .-chSysUnlock
 131              		.align	2
 132 0038 AFF30080 		.p2align 4,,15
 132      AFF30080 
 133              		.thumb
 134              		.thumb_func
 135              		.type	chVTGetSystemTimeX, %function
 136              	chVTGetSystemTimeX:
 137              	.LFB164:
 138              		.file 4 "../../ChibiOS/os/rt/include/chvt.h"
 139              		.loc 4 228 0
 140              		.cfi_startproc
 141              		@ args = 0, pretend = 0, frame = 0
 142              		@ frame_needed = 0, uses_anonymous_args = 0
 143              		@ link register save eliminated.
 144              		.loc 4 231 0
 145 0040 014B     		ldr	r3, .L7
 146 0042 9B6A     		ldr	r3, [r3, #40]
 147              		.loc 4 235 0
 148 0044 1846     		mov	r0, r3
 149 0046 7047     		bx	lr
 150              	.L8:
 151              		.align	2
 152              	.L7:
 153 0048 00000000 		.word	ch
 154              		.cfi_endproc
 155              	.LFE164:
 156              		.size	chVTGetSystemTimeX, .-chVTGetSystemTimeX
 157              		.align	2
 158 004c AFF30080 		.p2align 4,,15
 159              		.thumb
 160              		.thumb_func
 161              		.type	chVTGetSystemTime, %function
 162              	chVTGetSystemTime:
 163              	.LFB165:
 164              		.loc 4 247 0
 165              		.cfi_startproc
 166              		@ args = 0, pretend = 0, frame = 8
 167              		@ frame_needed = 0, uses_anonymous_args = 0
 168 0050 00B5     		push	{lr}
 169              		.cfi_def_cfa_offset 4
ARM GAS  /tmp/ccxtK8m3.s 			page 4


 170              		.cfi_offset 14, -4
 171 0052 83B0     		sub	sp, sp, #12
 172              		.cfi_def_cfa_offset 16
 173              		.loc 4 250 0
 174 0054 FFF7E4FF 		bl	chSysLock
 175              		.loc 4 251 0
 176 0058 FFF7F2FF 		bl	chVTGetSystemTimeX
 177 005c 0190     		str	r0, [sp, #4]
 178              		.loc 4 252 0
 179 005e FFF7E7FF 		bl	chSysUnlock
 180              		.loc 4 254 0
 181 0062 019B     		ldr	r3, [sp, #4]
 182              		.loc 4 255 0
 183 0064 1846     		mov	r0, r3
 184 0066 03B0     		add	sp, sp, #12
 185              		@ sp needed
 186 0068 5DF804FB 		ldr	pc, [sp], #4
 187              		.cfi_endproc
 188              	.LFE165:
 189              		.size	chVTGetSystemTime, .-chVTGetSystemTime
 190              		.align	2
 191 006c AFF30080 		.p2align 4,,15
 192              		.thumb
 193              		.thumb_func
 194              		.type	chVTIsTimeWithinX, %function
 195              	chVTIsTimeWithinX:
 196              	.LFB167:
 197              		.loc 4 286 0
 198              		.cfi_startproc
 199              		@ args = 0, pretend = 0, frame = 16
 200              		@ frame_needed = 0, uses_anonymous_args = 0
 201              		@ link register save eliminated.
 202 0070 84B0     		sub	sp, sp, #16
 203              		.cfi_def_cfa_offset 16
 204 0072 0390     		str	r0, [sp, #12]
 205 0074 0291     		str	r1, [sp, #8]
 206 0076 0192     		str	r2, [sp, #4]
 207              		.loc 4 288 0
 208 0078 039A     		ldr	r2, [sp, #12]
 209 007a 029B     		ldr	r3, [sp, #8]
 210 007c D21A     		subs	r2, r2, r3
 211 007e 0199     		ldr	r1, [sp, #4]
 212 0080 029B     		ldr	r3, [sp, #8]
 213 0082 CB1A     		subs	r3, r1, r3
 214 0084 9A42     		cmp	r2, r3
 215 0086 2CBF     		ite	cs
 216 0088 0023     		movcs	r3, #0
 217 008a 0123     		movcc	r3, #1
 218 008c DBB2     		uxtb	r3, r3
 219              		.loc 4 289 0
 220 008e 1846     		mov	r0, r3
 221 0090 04B0     		add	sp, sp, #16
 222              		@ sp needed
 223 0092 7047     		bx	lr
 224              		.cfi_endproc
 225              	.LFE167:
 226              		.size	chVTIsTimeWithinX, .-chVTIsTimeWithinX
ARM GAS  /tmp/ccxtK8m3.s 			page 5


 227              		.align	2
 228 0094 AFF30080 		.p2align 4,,15
 228      AFF30080 
 228      AFF30080 
 229              		.thumb
 230              		.thumb_func
 231              		.type	chVTIsSystemTimeWithin, %function
 232              	chVTIsSystemTimeWithin:
 233              	.LFB169:
 234              		.loc 4 322 0
 235              		.cfi_startproc
 236              		@ args = 0, pretend = 0, frame = 8
 237              		@ frame_needed = 0, uses_anonymous_args = 0
 238 00a0 00B5     		push	{lr}
 239              		.cfi_def_cfa_offset 4
 240              		.cfi_offset 14, -4
 241 00a2 83B0     		sub	sp, sp, #12
 242              		.cfi_def_cfa_offset 16
 243 00a4 0190     		str	r0, [sp, #4]
 244 00a6 0091     		str	r1, [sp]
 245              		.loc 4 324 0
 246 00a8 FFF7D2FF 		bl	chVTGetSystemTime
 247 00ac 0346     		mov	r3, r0
 248 00ae 1846     		mov	r0, r3
 249 00b0 0199     		ldr	r1, [sp, #4]
 250 00b2 009A     		ldr	r2, [sp]
 251 00b4 FFF7DCFF 		bl	chVTIsTimeWithinX
 252 00b8 0346     		mov	r3, r0
 253              		.loc 4 325 0
 254 00ba 1846     		mov	r0, r3
 255 00bc 03B0     		add	sp, sp, #12
 256              		@ sp needed
 257 00be 5DF804FB 		ldr	pc, [sp], #4
 258              		.cfi_endproc
 259              	.LFE169:
 260              		.size	chVTIsSystemTimeWithin, .-chVTIsSystemTimeWithin
 261 00c2 00BF     		.align	2
 262 00c4 AFF30080 		.p2align 4,,15
 262      AFF30080 
 262      AFF30080 
 263              		.global	EUARTInitPins
 264              		.thumb
 265              		.thumb_func
 266              		.type	EUARTInitPins, %function
 267              	EUARTInitPins:
 268              	.LFB267:
 269              		.file 5 "emu_uart.c"
 270              		.loc 5 8 0
 271              		.cfi_startproc
 272              		@ args = 0, pretend = 0, frame = 0
 273              		@ frame_needed = 0, uses_anonymous_args = 0
 274 00d0 08B5     		push	{r3, lr}
 275              		.cfi_def_cfa_offset 8
 276              		.cfi_offset 3, -8
 277              		.cfi_offset 14, -4
 278              		.loc 5 10 0
 279 00d2 0848     		ldr	r0, .L17
ARM GAS  /tmp/ccxtK8m3.s 			page 6


 280 00d4 0121     		movs	r1, #1
 281 00d6 0022     		movs	r2, #0
 282 00d8 FFF7FEFF 		bl	_pal_lld_setgroupmode
 283              		.loc 5 11 0
 284 00dc 0548     		ldr	r0, .L17
 285 00de 0221     		movs	r1, #2
 286 00e0 0122     		movs	r2, #1
 287 00e2 FFF7FEFF 		bl	_pal_lld_setgroupmode
 288              		.loc 5 13 0
 289 00e6 034B     		ldr	r3, .L17
 290 00e8 0222     		movs	r2, #2
 291 00ea 1A83     		strh	r2, [r3, #24]	@ movhi
 292              		.loc 5 15 0
 293 00ec 0023     		movs	r3, #0
 294              		.loc 5 16 0
 295 00ee 1846     		mov	r0, r3
 296 00f0 08BD     		pop	{r3, pc}
 297              	.L18:
 298 00f2 00BF     		.align	2
 299              	.L17:
 300 00f4 00080048 		.word	1207961600
 301              		.cfi_endproc
 302              	.LFE267:
 303              		.size	EUARTInitPins, .-EUARTInitPins
 304              		.align	2
 305 00f8 AFF30080 		.p2align 4,,15
 305      AFF30080 
 306              		.global	EUARTInit
 307              		.thumb
 308              		.thumb_func
 309              		.type	EUARTInit, %function
 310              	EUARTInit:
 311              	.LFB268:
 312              		.loc 5 19 0
 313              		.cfi_startproc
 314              		@ args = 0, pretend = 0, frame = 8
 315              		@ frame_needed = 0, uses_anonymous_args = 0
 316 0100 00B5     		push	{lr}
 317              		.cfi_def_cfa_offset 4
 318              		.cfi_offset 14, -4
 319 0102 83B0     		sub	sp, sp, #12
 320              		.cfi_def_cfa_offset 16
 321 0104 0190     		str	r0, [sp, #4]
 322              		.loc 5 20 0
 323 0106 019B     		ldr	r3, [sp, #4]
 324 0108 0022     		movs	r2, #0
 325 010a 9A75     		strb	r2, [r3, #22]
 326              		.loc 5 21 0
 327 010c 019B     		ldr	r3, [sp, #4]
 328 010e 0822     		movs	r2, #8
 329 0110 1A70     		strb	r2, [r3]
 330              		.loc 5 22 0
 331 0112 019B     		ldr	r3, [sp, #4]
 332 0114 4FF49662 		mov	r2, #1200
 333 0118 5A60     		str	r2, [r3, #4]
 334              		.loc 5 23 0
 335 011a 019B     		ldr	r3, [sp, #4]
ARM GAS  /tmp/ccxtK8m3.s 			page 7


 336 011c 41F28832 		movw	r2, #5000
 337 0120 5A81     		strh	r2, [r3, #10]	@ movhi
 338              		.loc 5 24 0
 339 0122 019B     		ldr	r3, [sp, #4]
 340 0124 40F24132 		movw	r2, #833
 341 0128 1A81     		strh	r2, [r3, #8]	@ movhi
 342              		.loc 5 26 0
 343 012a 019B     		ldr	r3, [sp, #4]
 344 012c 0022     		movs	r2, #0
 345 012e 1A75     		strb	r2, [r3, #20]
 346              		.loc 5 27 0
 347 0130 019B     		ldr	r3, [sp, #4]
 348 0132 0022     		movs	r2, #0
 349 0134 5A75     		strb	r2, [r3, #21]
 350              		.loc 5 28 0
 351 0136 FFF7FEFF 		bl	EUARTInitPins
 352              		.loc 5 29 0
 353 013a 019B     		ldr	r3, [sp, #4]
 354 013c 0122     		movs	r2, #1
 355 013e 9A75     		strb	r2, [r3, #22]
 356              		.loc 5 30 0
 357 0140 03B0     		add	sp, sp, #12
 358              		@ sp needed
 359 0142 5DF804FB 		ldr	pc, [sp], #4
 360              		.cfi_endproc
 361              	.LFE268:
 362              		.size	EUARTInit, .-EUARTInit
 363 0146 00BF     		.align	2
 364 0148 AFF30080 		.p2align 4,,15
 364      AFF30080 
 365              		.global	EUARTPutChar
 366              		.thumb
 367              		.thumb_func
 368              		.type	EUARTPutChar, %function
 369              	EUARTPutChar:
 370              	.LFB269:
 371              		.loc 5 50 0
 372              		.cfi_startproc
 373              		@ args = 0, pretend = 0, frame = 24
 374              		@ frame_needed = 0, uses_anonymous_args = 0
 375 0150 00B5     		push	{lr}
 376              		.cfi_def_cfa_offset 4
 377              		.cfi_offset 14, -4
 378 0152 87B0     		sub	sp, sp, #28
 379              		.cfi_def_cfa_offset 32
 380 0154 0190     		str	r0, [sp, #4]
 381 0156 0B46     		mov	r3, r1
 382 0158 8DF80330 		strb	r3, [sp, #3]
 383              		.loc 5 53 0
 384 015c 9DF80330 		ldrb	r3, [sp, #3]
 385 0160 8DF81330 		strb	r3, [sp, #19]
 386              		.loc 5 56 0
 387 0164 FFF774FF 		bl	chVTGetSystemTime
 388 0168 0390     		str	r0, [sp, #12]
 389              		.loc 5 57 0
 390 016a 019B     		ldr	r3, [sp, #4]
 391 016c 1B89     		ldrh	r3, [r3, #8]
ARM GAS  /tmp/ccxtK8m3.s 			page 8


 392 016e 224A     		ldr	r2, .L26
 393 0170 02FB03F3 		mul	r3, r2, r3
 394 0174 03F57423 		add	r3, r3, #999424
 395 0178 03F23F23 		addw	r3, r3, #575
 396 017c 1F4A     		ldr	r2, .L26+4
 397 017e A2FB0313 		umull	r1, r3, r2, r3
 398 0182 9B0C     		lsrs	r3, r3, #18
 399 0184 0293     		str	r3, [sp, #8]
 400              		.loc 5 60 0
 401 0186 1E4B     		ldr	r3, .L26+8
 402 0188 0222     		movs	r2, #2
 403 018a 5A83     		strh	r2, [r3, #26]	@ movhi
 404              		.loc 5 61 0
 405 018c 039A     		ldr	r2, [sp, #12]
 406 018e 029B     		ldr	r3, [sp, #8]
 407 0190 1344     		add	r3, r3, r2
 408 0192 1846     		mov	r0, r3
 409 0194 FFF7FEFF 		bl	chThdSleepUntil
 410              		.loc 5 64 0
 411 0198 0023     		movs	r3, #0
 412 019a 0593     		str	r3, [sp, #20]
 413 019c 1EE0     		b	.L21
 414              	.L24:
 415              		.loc 5 67 0
 416 019e 9DF81330 		ldrb	r3, [sp, #19]	@ zero_extendqisi2
 417 01a2 03F00103 		and	r3, r3, #1
 418 01a6 002B     		cmp	r3, #0
 419 01a8 03D0     		beq	.L22
 420              		.loc 5 68 0
 421 01aa 154B     		ldr	r3, .L26+8
 422 01ac 0222     		movs	r2, #2
 423 01ae 1A83     		strh	r2, [r3, #24]	@ movhi
 424 01b0 02E0     		b	.L23
 425              	.L22:
 426              		.loc 5 70 0
 427 01b2 134B     		ldr	r3, .L26+8
 428 01b4 0222     		movs	r2, #2
 429 01b6 5A83     		strh	r2, [r3, #26]	@ movhi
 430              	.L23:
 431              		.loc 5 71 0
 432 01b8 9DF81330 		ldrb	r3, [sp, #19]	@ zero_extendqisi2
 433 01bc 5B08     		lsrs	r3, r3, #1
 434 01be 8DF81330 		strb	r3, [sp, #19]
 435              		.loc 5 73 0
 436 01c2 059B     		ldr	r3, [sp, #20]
 437 01c4 0233     		adds	r3, r3, #2
 438 01c6 029A     		ldr	r2, [sp, #8]
 439 01c8 02FB03F2 		mul	r2, r2, r3
 440 01cc 039B     		ldr	r3, [sp, #12]
 441 01ce 1344     		add	r3, r3, r2
 442 01d0 1846     		mov	r0, r3
 443 01d2 FFF7FEFF 		bl	chThdSleepUntil
 444              		.loc 5 64 0
 445 01d6 059B     		ldr	r3, [sp, #20]
 446 01d8 0133     		adds	r3, r3, #1
 447 01da 0593     		str	r3, [sp, #20]
 448              	.L21:
ARM GAS  /tmp/ccxtK8m3.s 			page 9


 449              		.loc 5 64 0 is_stmt 0 discriminator 1
 450 01dc 059B     		ldr	r3, [sp, #20]
 451 01de 072B     		cmp	r3, #7
 452 01e0 DDDD     		ble	.L24
 453              		.loc 5 79 0 is_stmt 1
 454 01e2 074B     		ldr	r3, .L26+8
 455 01e4 0222     		movs	r2, #2
 456 01e6 1A83     		strh	r2, [r3, #24]	@ movhi
 457              		.loc 5 80 0
 458 01e8 0298     		ldr	r0, [sp, #8]
 459 01ea FFF7FEFF 		bl	chThdSleep
 460              		.loc 5 81 0
 461 01ee 0023     		movs	r3, #0
 462              		.loc 5 82 0
 463 01f0 1846     		mov	r0, r3
 464 01f2 07B0     		add	sp, sp, #28
 465              		@ sp needed
 466 01f4 5DF804FB 		ldr	pc, [sp], #4
 467              	.L27:
 468              		.align	2
 469              	.L26:
 470 01f8 A0860100 		.word	100000
 471 01fc 83DE1B43 		.word	1125899907
 472 0200 00080048 		.word	1207961600
 473              		.cfi_endproc
 474              	.LFE269:
 475              		.size	EUARTPutChar, .-EUARTPutChar
 476              		.align	2
 477 0204 AFF30080 		.p2align 4,,15
 477      AFF30080 
 477      AFF30080 
 478              		.global	EUARTSendCommand
 479              		.thumb
 480              		.thumb_func
 481              		.type	EUARTSendCommand, %function
 482              	EUARTSendCommand:
 483              	.LFB270:
 484              		.loc 5 84 0
 485              		.cfi_startproc
 486              		@ args = 0, pretend = 0, frame = 24
 487              		@ frame_needed = 0, uses_anonymous_args = 0
 488 0210 00B5     		push	{lr}
 489              		.cfi_def_cfa_offset 4
 490              		.cfi_offset 14, -4
 491 0212 87B0     		sub	sp, sp, #28
 492              		.cfi_def_cfa_offset 32
 493 0214 0390     		str	r0, [sp, #12]
 494 0216 0291     		str	r1, [sp, #8]
 495 0218 0192     		str	r2, [sp, #4]
 496              		.loc 5 86 0
 497 021a 0023     		movs	r3, #0
 498 021c 0593     		str	r3, [sp, #20]
 499 021e 0AE0     		b	.L29
 500              	.L30:
 501              		.loc 5 87 0 discriminator 2
 502 0220 059B     		ldr	r3, [sp, #20]
 503 0222 029A     		ldr	r2, [sp, #8]
ARM GAS  /tmp/ccxtK8m3.s 			page 10


 504 0224 1344     		add	r3, r3, r2
 505 0226 1B78     		ldrb	r3, [r3]	@ zero_extendqisi2
 506 0228 0398     		ldr	r0, [sp, #12]
 507 022a 1946     		mov	r1, r3
 508 022c FFF7FEFF 		bl	EUARTPutChar
 509              		.loc 5 86 0 discriminator 2
 510 0230 059B     		ldr	r3, [sp, #20]
 511 0232 0133     		adds	r3, r3, #1
 512 0234 0593     		str	r3, [sp, #20]
 513              	.L29:
 514              		.loc 5 86 0 is_stmt 0 discriminator 1
 515 0236 059A     		ldr	r2, [sp, #20]
 516 0238 019B     		ldr	r3, [sp, #4]
 517 023a 9A42     		cmp	r2, r3
 518 023c F0DB     		blt	.L30
 519              		.loc 5 90 0 is_stmt 1
 520 023e 0398     		ldr	r0, [sp, #12]
 521 0240 0D21     		movs	r1, #13
 522 0242 FFF7FEFF 		bl	EUARTPutChar
 523              		.loc 5 91 0
 524 0246 0023     		movs	r3, #0
 525              		.loc 5 92 0
 526 0248 1846     		mov	r0, r3
 527 024a 07B0     		add	sp, sp, #28
 528              		@ sp needed
 529 024c 5DF804FB 		ldr	pc, [sp], #4
 530              		.cfi_endproc
 531              	.LFE270:
 532              		.size	EUARTSendCommand, .-EUARTSendCommand
 533              		.align	2
 534              		.p2align 4,,15
 535              		.global	EUARTGetChar
 536              		.thumb
 537              		.thumb_func
 538              		.type	EUARTGetChar, %function
 539              	EUARTGetChar:
 540              	.LFB271:
 541              		.loc 5 97 0
 542              		.cfi_startproc
 543              		@ args = 0, pretend = 0, frame = 40
 544              		@ frame_needed = 0, uses_anonymous_args = 0
 545 0250 00B5     		push	{lr}
 546              		.cfi_def_cfa_offset 4
 547              		.cfi_offset 14, -4
 548 0252 8BB0     		sub	sp, sp, #44
 549              		.cfi_def_cfa_offset 48
 550 0254 0190     		str	r0, [sp, #4]
 551 0256 0091     		str	r1, [sp]
 552              		.loc 5 100 0
 553 0258 0023     		movs	r3, #0
 554 025a 8DF81F30 		strb	r3, [sp, #31]
 555              		.loc 5 101 0
 556 025e 0023     		movs	r3, #0
 557 0260 8DF81E30 		strb	r3, [sp, #30]
 558              		.loc 5 103 0
 559 0264 0023     		movs	r3, #0
 560 0266 8DF81D30 		strb	r3, [sp, #29]
ARM GAS  /tmp/ccxtK8m3.s 			page 11


 561              		.loc 5 105 0
 562 026a FFF7F1FE 		bl	chVTGetSystemTime
 563 026e 0690     		str	r0, [sp, #24]
 564              		.loc 5 106 0
 565 0270 019B     		ldr	r3, [sp, #4]
 566 0272 5B89     		ldrh	r3, [r3, #10]
 567 0274 5F4A     		ldr	r2, .L44
 568 0276 02FB03F3 		mul	r3, r2, r3
 569 027a 03F2E732 		addw	r2, r3, #999
 570 027e 5E4B     		ldr	r3, .L44+4
 571 0280 A3FB0213 		umull	r1, r3, r3, r2
 572 0284 9A09     		lsrs	r2, r3, #6
 573 0286 069B     		ldr	r3, [sp, #24]
 574 0288 1344     		add	r3, r3, r2
 575 028a 0593     		str	r3, [sp, #20]
 576              		.loc 5 107 0
 577 028c 09E0     		b	.L33
 578              	.L35:
 579              		.loc 5 108 0
 580 028e 0698     		ldr	r0, [sp, #24]
 581 0290 0599     		ldr	r1, [sp, #20]
 582 0292 FFF705FF 		bl	chVTIsSystemTimeWithin
 583 0296 0346     		mov	r3, r0
 584 0298 83F00103 		eor	r3, r3, #1
 585 029c DBB2     		uxtb	r3, r3
 586 029e 8DF81D30 		strb	r3, [sp, #29]
 587              	.L33:
 588              		.loc 5 107 0 discriminator 1
 589 02a2 564B     		ldr	r3, .L44+8
 590 02a4 1B69     		ldr	r3, [r3, #16]
 591 02a6 03F00103 		and	r3, r3, #1
 592 02aa 002B     		cmp	r3, #0
 593 02ac 03D0     		beq	.L34
 594              		.loc 5 107 0 is_stmt 0 discriminator 2
 595 02ae 9DF81D30 		ldrb	r3, [sp, #29]	@ zero_extendqisi2
 596 02b2 002B     		cmp	r3, #0
 597 02b4 EBD0     		beq	.L35
 598              	.L34:
 599              		.loc 5 112 0 is_stmt 1
 600 02b6 9DF81D30 		ldrb	r3, [sp, #29]	@ zero_extendqisi2
 601 02ba 002B     		cmp	r3, #0
 602 02bc 04D0     		beq	.L36
 603              		.loc 5 113 0
 604 02be 009B     		ldr	r3, [sp]
 605 02c0 0022     		movs	r2, #0
 606 02c2 1A70     		strb	r2, [r3]
 607              		.loc 5 114 0
 608 02c4 0623     		movs	r3, #6
 609 02c6 91E0     		b	.L37
 610              	.L36:
 611              		.loc 5 117 0
 612 02c8 FFF7C2FE 		bl	chVTGetSystemTime
 613 02cc 0690     		str	r0, [sp, #24]
 614              		.loc 5 118 0
 615 02ce 019B     		ldr	r3, [sp, #4]
 616 02d0 1B89     		ldrh	r3, [r3, #8]
 617 02d2 484A     		ldr	r2, .L44
ARM GAS  /tmp/ccxtK8m3.s 			page 12


 618 02d4 02FB03F3 		mul	r3, r2, r3
 619 02d8 03F57423 		add	r3, r3, #999424
 620 02dc 03F23F23 		addw	r3, r3, #575
 621 02e0 474A     		ldr	r2, .L44+12
 622 02e2 A2FB0313 		umull	r1, r3, r2, r3
 623 02e6 9B0C     		lsrs	r3, r3, #18
 624 02e8 0493     		str	r3, [sp, #16]
 625              		.loc 5 119 0
 626 02ea 049B     		ldr	r3, [sp, #16]
 627 02ec 9B08     		lsrs	r3, r3, #2
 628 02ee 0393     		str	r3, [sp, #12]
 629              		.loc 5 120 0
 630 02f0 049A     		ldr	r2, [sp, #16]
 631 02f2 039B     		ldr	r3, [sp, #12]
 632 02f4 1344     		add	r3, r3, r2
 633 02f6 3F4A     		ldr	r2, .L44
 634 02f8 02FB03F3 		mul	r3, r2, r3
 635 02fc 03F57423 		add	r3, r3, #999424
 636 0300 03F23F23 		addw	r3, r3, #575
 637 0304 3E4A     		ldr	r2, .L44+12
 638 0306 A2FB0313 		umull	r1, r3, r2, r3
 639 030a 9B0C     		lsrs	r3, r3, #18
 640 030c 1846     		mov	r0, r3
 641 030e FFF7FEFF 		bl	chThdSleep
 642              		.loc 5 123 0
 643 0312 0123     		movs	r3, #1
 644 0314 0993     		str	r3, [sp, #36]
 645 0316 46E0     		b	.L38
 646              	.L42:
 647              		.loc 5 124 0
 648 0318 FFF782FE 		bl	chSysLock
 649              		.loc 5 125 0
 650 031c 0123     		movs	r3, #1
 651 031e 0893     		str	r3, [sp, #32]
 652 0320 1CE0     		b	.L39
 653              	.L40:
 654              		.loc 5 127 0 discriminator 2
 655 0322 364B     		ldr	r3, .L44+8
 656 0324 1B69     		ldr	r3, [r3, #16]
 657 0326 DBB2     		uxtb	r3, r3
 658 0328 03F00103 		and	r3, r3, #1
 659 032c DAB2     		uxtb	r2, r3
 660 032e 9DF81E30 		ldrb	r3, [sp, #30]
 661 0332 1344     		add	r3, r3, r2
 662 0334 8DF81E30 		strb	r3, [sp, #30]
 663              		.loc 5 128 0 discriminator 2
 664 0338 039B     		ldr	r3, [sp, #12]
 665 033a 2E4A     		ldr	r2, .L44
 666 033c 02FB03F3 		mul	r3, r2, r3
 667 0340 03F57423 		add	r3, r3, #999424
 668 0344 03F23F23 		addw	r3, r3, #575
 669 0348 2D4A     		ldr	r2, .L44+12
 670 034a A2FB0313 		umull	r1, r3, r2, r3
 671 034e 9B0C     		lsrs	r3, r3, #18
 672 0350 1846     		mov	r0, r3
 673 0352 FFF7FEFF 		bl	chThdSleep
 674              		.loc 5 125 0 discriminator 2
ARM GAS  /tmp/ccxtK8m3.s 			page 13


 675 0356 089B     		ldr	r3, [sp, #32]
 676 0358 0133     		adds	r3, r3, #1
 677 035a 0893     		str	r3, [sp, #32]
 678              	.L39:
 679              		.loc 5 125 0 is_stmt 0 discriminator 1
 680 035c 089B     		ldr	r3, [sp, #32]
 681 035e 032B     		cmp	r3, #3
 682 0360 DFDD     		ble	.L40
 683              		.loc 5 132 0 is_stmt 1
 684 0362 9DF81E30 		ldrb	r3, [sp, #30]	@ zero_extendqisi2
 685 0366 5B08     		lsrs	r3, r3, #1
 686 0368 DAB2     		uxtb	r2, r3
 687 036a 9DF81F30 		ldrb	r3, [sp, #31]
 688 036e 1343     		orrs	r3, r3, r2
 689 0370 8DF81F30 		strb	r3, [sp, #31]
 690              		.loc 5 133 0
 691 0374 099B     		ldr	r3, [sp, #36]
 692 0376 072B     		cmp	r3, #7
 693 0378 04DC     		bgt	.L41
 694              		.loc 5 133 0 is_stmt 0 discriminator 1
 695 037a 9DF81F30 		ldrb	r3, [sp, #31]
 696 037e 5B00     		lsls	r3, r3, #1
 697 0380 8DF81F30 		strb	r3, [sp, #31]
 698              	.L41:
 699              		.loc 5 134 0 is_stmt 1
 700 0384 0023     		movs	r3, #0
 701 0386 8DF81E30 		strb	r3, [sp, #30]
 702              		.loc 5 136 0
 703 038a FFF751FE 		bl	chSysUnlock
 704              		.loc 5 138 0
 705 038e 099B     		ldr	r3, [sp, #36]
 706 0390 049A     		ldr	r2, [sp, #16]
 707 0392 02FB03F2 		mul	r2, r2, r3
 708 0396 069B     		ldr	r3, [sp, #24]
 709 0398 1344     		add	r3, r3, r2
 710 039a 1846     		mov	r0, r3
 711 039c FFF7FEFF 		bl	chThdSleepUntil
 712              		.loc 5 123 0
 713 03a0 099B     		ldr	r3, [sp, #36]
 714 03a2 0133     		adds	r3, r3, #1
 715 03a4 0993     		str	r3, [sp, #36]
 716              	.L38:
 717              		.loc 5 123 0 is_stmt 0 discriminator 1
 718 03a6 099B     		ldr	r3, [sp, #36]
 719 03a8 082B     		cmp	r3, #8
 720 03aa B5DD     		ble	.L42
 721              		.loc 5 141 0 is_stmt 1
 722 03ac 039B     		ldr	r3, [sp, #12]
 723 03ae 114A     		ldr	r2, .L44
 724 03b0 02FB03F3 		mul	r3, r2, r3
 725 03b4 03F57423 		add	r3, r3, #999424
 726 03b8 03F23F23 		addw	r3, r3, #575
 727 03bc 104A     		ldr	r2, .L44+12
 728 03be A2FB0313 		umull	r1, r3, r2, r3
 729 03c2 9B0C     		lsrs	r3, r3, #18
 730 03c4 1846     		mov	r0, r3
 731 03c6 FFF7FEFF 		bl	chThdSleep
ARM GAS  /tmp/ccxtK8m3.s 			page 14


 732              		.loc 5 142 0
 733 03ca 0C4B     		ldr	r3, .L44+8
 734 03cc 1B69     		ldr	r3, [r3, #16]
 735 03ce 03F00103 		and	r3, r3, #1
 736 03d2 002B     		cmp	r3, #0
 737 03d4 05D1     		bne	.L43
 738              		.loc 5 145 0
 739 03d6 009B     		ldr	r3, [sp]
 740 03d8 9DF81F20 		ldrb	r2, [sp, #31]
 741 03dc 1A70     		strb	r2, [r3]
 742              		.loc 5 146 0
 743 03de 0723     		movs	r3, #7
 744 03e0 04E0     		b	.L37
 745              	.L43:
 746              		.loc 5 149 0
 747 03e2 009B     		ldr	r3, [sp]
 748 03e4 9DF81F20 		ldrb	r2, [sp, #31]
 749 03e8 1A70     		strb	r2, [r3]
 750              		.loc 5 150 0
 751 03ea 0123     		movs	r3, #1
 752              	.L37:
 753              		.loc 5 152 0
 754 03ec 1846     		mov	r0, r3
 755 03ee 0BB0     		add	sp, sp, #44
 756              		@ sp needed
 757 03f0 5DF804FB 		ldr	pc, [sp], #4
 758              	.L45:
 759              		.align	2
 760              	.L44:
 761 03f4 A0860100 		.word	100000
 762 03f8 D34D6210 		.word	274877907
 763 03fc 00080048 		.word	1207961600
 764 0400 83DE1B43 		.word	1125899907
 765              		.cfi_endproc
 766              	.LFE271:
 767              		.size	EUARTGetChar, .-EUARTGetChar
 768              	.Letext0:
 769              		.file 6 "/nfs/nfs5/home/research/hardware/arm2/gcc-arm-embedded/gcc-arm-none-eabi-4_8-2014q2/arm-n
 770              		.file 7 "/nfs/nfs5/home/research/hardware/arm2/gcc-arm-embedded/gcc-arm-none-eabi-4_8-2014q2/arm-n
 771              		.file 8 "../../ChibiOS/os/rt/ports/ARMCMx/compilers/GCC/chtypes.h"
 772              		.file 9 "../../ChibiOS/os/rt/include/chsystypes.h"
 773              		.file 10 "../../ChibiOS/os/rt/include/chschd.h"
 774              		.file 11 "../../ChibiOS/os/rt/ports/ARMCMx/chcore.h"
 775              		.file 12 "../../ChibiOS/os/rt/include/chtm.h"
 776              		.file 13 "../../ChibiOS/os/rt/include/chsem.h"
 777              		.file 14 "../../ChibiOS/os/rt/include/chmtx.h"
 778              		.file 15 "emu_uart.h"
 779              		.file 16 "../../ChibiOS/os/hal/ports/STM32/LLD/GPIOv3/pal_lld.h"
 780              		.file 17 "../../ChibiOS/os/ext/CMSIS/include/core_cm4.h"