ARM GAS  /tmp/ccmV6gDh.s 			page 1


   1              		.syntax unified
   2              		.cpu cortex-m4
   3              		.fpu softvfp
   4              		.eabi_attribute 20, 1
   5              		.eabi_attribute 21, 1
   6              		.eabi_attribute 23, 3
   7              		.eabi_attribute 24, 1
   8              		.eabi_attribute 25, 1
   9              		.eabi_attribute 26, 1
  10              		.eabi_attribute 30, 6
  11              		.eabi_attribute 34, 1
  12              		.eabi_attribute 18, 4
  13              		.thumb
  14              		.file	"evtimer.c"
  15              		.text
  16              	.Ltext0:
  17              		.cfi_sections	.debug_frame
  18              		.align	2
  19              		.p2align 4,,15
  20              		.thumb
  21              		.thumb_func
  22              		.type	port_lock, %function
  23              	port_lock:
  24              	.LFB127:
  25              		.file 1 "../../ChibiOS/os/rt/ports/ARMCMx/chcore_v7m.h"
  26              		.loc 1 456 0
  27              		.cfi_startproc
  28              		@ args = 0, pretend = 0, frame = 8
  29              		@ frame_needed = 0, uses_anonymous_args = 0
  30              		@ link register save eliminated.
  31 0000 82B0     		sub	sp, sp, #8
  32              		.cfi_def_cfa_offset 8
  33 0002 2023     		movs	r3, #32
  34 0004 0193     		str	r3, [sp, #4]
  35              	.LBB6:
  36              	.LBB7:
  37              		.file 2 "../../ChibiOS/os/ext/CMSIS/include/core_cmFunc.h"
  38              		.loc 2 548 0
  39 0006 019B     		ldr	r3, [sp, #4]
  40              	@ 548 "../../ChibiOS/os/ext/CMSIS/include/core_cmFunc.h" 1
  41 0008 83F31188 		MSR basepri, r3
  42              	@ 0 "" 2
  43              		.thumb
  44              	.LBE7:
  45              	.LBE6:
  46              		.loc 1 473 0
  47 000c 02B0     		add	sp, sp, #8
  48              		@ sp needed
  49 000e 7047     		bx	lr
  50              		.cfi_endproc
  51              	.LFE127:
  52              		.size	port_lock, .-port_lock
  53              		.align	2
  54              		.p2align 4,,15
  55              		.thumb
  56              		.thumb_func
  57              		.type	port_unlock, %function
ARM GAS  /tmp/ccmV6gDh.s 			page 2


  58              	port_unlock:
  59              	.LFB128:
  60              		.loc 1 480 0
  61              		.cfi_startproc
  62              		@ args = 0, pretend = 0, frame = 8
  63              		@ frame_needed = 0, uses_anonymous_args = 0
  64              		@ link register save eliminated.
  65 0010 82B0     		sub	sp, sp, #8
  66              		.cfi_def_cfa_offset 8
  67 0012 0023     		movs	r3, #0
  68 0014 0193     		str	r3, [sp, #4]
  69              	.LBB8:
  70              	.LBB9:
  71              		.loc 2 548 0
  72 0016 019B     		ldr	r3, [sp, #4]
  73              	@ 548 "../../ChibiOS/os/ext/CMSIS/include/core_cmFunc.h" 1
  74 0018 83F31188 		MSR basepri, r3
  75              	@ 0 "" 2
  76              		.thumb
  77              	.LBE9:
  78              	.LBE8:
  79              		.loc 1 487 0
  80 001c 02B0     		add	sp, sp, #8
  81              		@ sp needed
  82 001e 7047     		bx	lr
  83              		.cfi_endproc
  84              	.LFE128:
  85              		.size	port_unlock, .-port_unlock
  86              		.align	2
  87              		.p2align 4,,15
  88              		.thumb
  89              		.thumb_func
  90              		.type	port_lock_from_isr, %function
  91              	port_lock_from_isr:
  92              	.LFB129:
  93              		.loc 1 495 0
  94              		.cfi_startproc
  95              		@ args = 0, pretend = 0, frame = 0
  96              		@ frame_needed = 0, uses_anonymous_args = 0
  97 0020 08B5     		push	{r3, lr}
  98              		.cfi_def_cfa_offset 8
  99              		.cfi_offset 3, -8
 100              		.cfi_offset 14, -4
 101              		.loc 1 497 0
 102 0022 FFF7EDFF 		bl	port_lock
 103              		.loc 1 498 0
 104 0026 08BD     		pop	{r3, pc}
 105              		.cfi_endproc
 106              	.LFE129:
 107              		.size	port_lock_from_isr, .-port_lock_from_isr
 108              		.align	2
 109 0028 AFF30080 		.p2align 4,,15
 109      AFF30080 
 110              		.thumb
 111              		.thumb_func
 112              		.type	port_unlock_from_isr, %function
 113              	port_unlock_from_isr:
ARM GAS  /tmp/ccmV6gDh.s 			page 3


 114              	.LFB130:
 115              		.loc 1 506 0
 116              		.cfi_startproc
 117              		@ args = 0, pretend = 0, frame = 0
 118              		@ frame_needed = 0, uses_anonymous_args = 0
 119 0030 08B5     		push	{r3, lr}
 120              		.cfi_def_cfa_offset 8
 121              		.cfi_offset 3, -8
 122              		.cfi_offset 14, -4
 123              		.loc 1 508 0
 124 0032 FFF7EDFF 		bl	port_unlock
 125              		.loc 1 509 0
 126 0036 08BD     		pop	{r3, pc}
 127              		.cfi_endproc
 128              	.LFE130:
 129              		.size	port_unlock_from_isr, .-port_unlock_from_isr
 130              		.align	2
 131 0038 AFF30080 		.p2align 4,,15
 131      AFF30080 
 132              		.thumb
 133              		.thumb_func
 134              		.type	chSysLock, %function
 135              	chSysLock:
 136              	.LFB156:
 137              		.file 3 "../../ChibiOS/os/rt/include/chsys.h"
 138              		.loc 3 346 0
 139              		.cfi_startproc
 140              		@ args = 0, pretend = 0, frame = 0
 141              		@ frame_needed = 0, uses_anonymous_args = 0
 142 0040 08B5     		push	{r3, lr}
 143              		.cfi_def_cfa_offset 8
 144              		.cfi_offset 3, -8
 145              		.cfi_offset 14, -4
 146              		.loc 3 348 0
 147 0042 FFF7DDFF 		bl	port_lock
 148              		.loc 3 351 0
 149 0046 08BD     		pop	{r3, pc}
 150              		.cfi_endproc
 151              	.LFE156:
 152              		.size	chSysLock, .-chSysLock
 153              		.align	2
 154 0048 AFF30080 		.p2align 4,,15
 154      AFF30080 
 155              		.thumb
 156              		.thumb_func
 157              		.type	chSysUnlock, %function
 158              	chSysUnlock:
 159              	.LFB157:
 160              		.loc 3 358 0
 161              		.cfi_startproc
 162              		@ args = 0, pretend = 0, frame = 0
 163              		@ frame_needed = 0, uses_anonymous_args = 0
 164 0050 08B5     		push	{r3, lr}
 165              		.cfi_def_cfa_offset 8
 166              		.cfi_offset 3, -8
 167              		.cfi_offset 14, -4
 168              		.loc 3 371 0
ARM GAS  /tmp/ccmV6gDh.s 			page 4


 169 0052 FFF7DDFF 		bl	port_unlock
 170              		.loc 3 372 0
 171 0056 08BD     		pop	{r3, pc}
 172              		.cfi_endproc
 173              	.LFE157:
 174              		.size	chSysUnlock, .-chSysUnlock
 175              		.align	2
 176 0058 AFF30080 		.p2align 4,,15
 176      AFF30080 
 177              		.thumb
 178              		.thumb_func
 179              		.type	chSysLockFromISR, %function
 180              	chSysLockFromISR:
 181              	.LFB158:
 182              		.loc 3 386 0
 183              		.cfi_startproc
 184              		@ args = 0, pretend = 0, frame = 0
 185              		@ frame_needed = 0, uses_anonymous_args = 0
 186 0060 08B5     		push	{r3, lr}
 187              		.cfi_def_cfa_offset 8
 188              		.cfi_offset 3, -8
 189              		.cfi_offset 14, -4
 190              		.loc 3 388 0
 191 0062 FFF7DDFF 		bl	port_lock_from_isr
 192              		.loc 3 391 0
 193 0066 08BD     		pop	{r3, pc}
 194              		.cfi_endproc
 195              	.LFE158:
 196              		.size	chSysLockFromISR, .-chSysLockFromISR
 197              		.align	2
 198 0068 AFF30080 		.p2align 4,,15
 198      AFF30080 
 199              		.thumb
 200              		.thumb_func
 201              		.type	chSysUnlockFromISR, %function
 202              	chSysUnlockFromISR:
 203              	.LFB159:
 204              		.loc 3 406 0
 205              		.cfi_startproc
 206              		@ args = 0, pretend = 0, frame = 0
 207              		@ frame_needed = 0, uses_anonymous_args = 0
 208 0070 08B5     		push	{r3, lr}
 209              		.cfi_def_cfa_offset 8
 210              		.cfi_offset 3, -8
 211              		.cfi_offset 14, -4
 212              		.loc 3 410 0
 213 0072 FFF7DDFF 		bl	port_unlock_from_isr
 214              		.loc 3 411 0
 215 0076 08BD     		pop	{r3, pc}
 216              		.cfi_endproc
 217              	.LFE159:
 218              		.size	chSysUnlockFromISR, .-chSysUnlockFromISR
 219              		.align	2
 220 0078 AFF30080 		.p2align 4,,15
 220      AFF30080 
 221              		.thumb
 222              		.thumb_func
ARM GAS  /tmp/ccmV6gDh.s 			page 5


 223              		.type	chVTObjectInit, %function
 224              	chVTObjectInit:
 225              	.LFB163:
 226              		.file 4 "../../ChibiOS/os/rt/include/chvt.h"
 227              		.loc 4 210 0
 228              		.cfi_startproc
 229              		@ args = 0, pretend = 0, frame = 8
 230              		@ frame_needed = 0, uses_anonymous_args = 0
 231              		@ link register save eliminated.
 232 0080 82B0     		sub	sp, sp, #8
 233              		.cfi_def_cfa_offset 8
 234 0082 0190     		str	r0, [sp, #4]
 235              		.loc 4 212 0
 236 0084 019B     		ldr	r3, [sp, #4]
 237 0086 0022     		movs	r2, #0
 238 0088 DA60     		str	r2, [r3, #12]
 239              		.loc 4 213 0
 240 008a 02B0     		add	sp, sp, #8
 241              		@ sp needed
 242 008c 7047     		bx	lr
 243              		.cfi_endproc
 244              	.LFE163:
 245              		.size	chVTObjectInit, .-chVTObjectInit
 246 008e 00BF     		.align	2
 247              		.p2align 4,,15
 248              		.thumb
 249              		.thumb_func
 250              		.type	chVTIsArmedI, %function
 251              	chVTIsArmedI:
 252              	.LFB171:
 253              		.loc 4 373 0
 254              		.cfi_startproc
 255              		@ args = 0, pretend = 0, frame = 8
 256              		@ frame_needed = 0, uses_anonymous_args = 0
 257              		@ link register save eliminated.
 258 0090 82B0     		sub	sp, sp, #8
 259              		.cfi_def_cfa_offset 8
 260 0092 0190     		str	r0, [sp, #4]
 261              		.loc 4 377 0
 262 0094 019B     		ldr	r3, [sp, #4]
 263 0096 DB68     		ldr	r3, [r3, #12]
 264 0098 002B     		cmp	r3, #0
 265 009a 0CBF     		ite	eq
 266 009c 0023     		moveq	r3, #0
 267 009e 0123     		movne	r3, #1
 268 00a0 DBB2     		uxtb	r3, r3
 269              		.loc 4 378 0
 270 00a2 1846     		mov	r0, r3
 271 00a4 02B0     		add	sp, sp, #8
 272              		@ sp needed
 273 00a6 7047     		bx	lr
 274              		.cfi_endproc
 275              	.LFE171:
 276              		.size	chVTIsArmedI, .-chVTIsArmedI
 277              		.align	2
 278 00a8 AFF30080 		.p2align 4,,15
 278      AFF30080 
ARM GAS  /tmp/ccmV6gDh.s 			page 6


 279              		.thumb
 280              		.thumb_func
 281              		.type	chVTResetI, %function
 282              	chVTResetI:
 283              	.LFB173:
 284              		.loc 4 410 0
 285              		.cfi_startproc
 286              		@ args = 0, pretend = 0, frame = 8
 287              		@ frame_needed = 0, uses_anonymous_args = 0
 288 00b0 00B5     		push	{lr}
 289              		.cfi_def_cfa_offset 4
 290              		.cfi_offset 14, -4
 291 00b2 83B0     		sub	sp, sp, #12
 292              		.cfi_def_cfa_offset 16
 293 00b4 0190     		str	r0, [sp, #4]
 294              		.loc 4 412 0
 295 00b6 0198     		ldr	r0, [sp, #4]
 296 00b8 FFF7EAFF 		bl	chVTIsArmedI
 297 00bc 0346     		mov	r3, r0
 298 00be 002B     		cmp	r3, #0
 299 00c0 02D0     		beq	.L12
 300              		.loc 4 413 0
 301 00c2 0198     		ldr	r0, [sp, #4]
 302 00c4 FFF7FEFF 		bl	chVTDoResetI
 303              	.L12:
 304              		.loc 4 415 0
 305 00c8 03B0     		add	sp, sp, #12
 306              		@ sp needed
 307 00ca 5DF804FB 		ldr	pc, [sp], #4
 308              		.cfi_endproc
 309              	.LFE173:
 310              		.size	chVTResetI, .-chVTResetI
 311 00ce 00BF     		.align	2
 312              		.p2align 4,,15
 313              		.thumb
 314              		.thumb_func
 315              		.type	chVTSetI, %function
 316              	chVTSetI:
 317              	.LFB175:
 318              		.loc 4 457 0
 319              		.cfi_startproc
 320              		@ args = 0, pretend = 0, frame = 16
 321              		@ frame_needed = 0, uses_anonymous_args = 0
 322 00d0 00B5     		push	{lr}
 323              		.cfi_def_cfa_offset 4
 324              		.cfi_offset 14, -4
 325 00d2 85B0     		sub	sp, sp, #20
 326              		.cfi_def_cfa_offset 24
 327 00d4 0390     		str	r0, [sp, #12]
 328 00d6 0291     		str	r1, [sp, #8]
 329 00d8 0192     		str	r2, [sp, #4]
 330 00da 0093     		str	r3, [sp]
 331              		.loc 4 459 0
 332 00dc 0398     		ldr	r0, [sp, #12]
 333 00de FFF7E7FF 		bl	chVTResetI
 334              		.loc 4 460 0
 335 00e2 0398     		ldr	r0, [sp, #12]
ARM GAS  /tmp/ccmV6gDh.s 			page 7


 336 00e4 0299     		ldr	r1, [sp, #8]
 337 00e6 019A     		ldr	r2, [sp, #4]
 338 00e8 009B     		ldr	r3, [sp]
 339 00ea FFF7FEFF 		bl	chVTDoSetI
 340              		.loc 4 461 0
 341 00ee 05B0     		add	sp, sp, #20
 342              		@ sp needed
 343 00f0 5DF804FB 		ldr	pc, [sp], #4
 344              		.cfi_endproc
 345              	.LFE175:
 346              		.size	chVTSetI, .-chVTSetI
 347              		.align	2
 348 00f4 AFF30080 		.p2align 4,,15
 348      AFF30080 
 348      AFF30080 
 349              		.thumb
 350              		.thumb_func
 351              		.type	chVTSet, %function
 352              	chVTSet:
 353              	.LFB176:
 354              		.loc 4 486 0
 355              		.cfi_startproc
 356              		@ args = 0, pretend = 0, frame = 16
 357              		@ frame_needed = 0, uses_anonymous_args = 0
 358 0100 00B5     		push	{lr}
 359              		.cfi_def_cfa_offset 4
 360              		.cfi_offset 14, -4
 361 0102 85B0     		sub	sp, sp, #20
 362              		.cfi_def_cfa_offset 24
 363 0104 0390     		str	r0, [sp, #12]
 364 0106 0291     		str	r1, [sp, #8]
 365 0108 0192     		str	r2, [sp, #4]
 366 010a 0093     		str	r3, [sp]
 367              		.loc 4 488 0
 368 010c FFF798FF 		bl	chSysLock
 369              		.loc 4 489 0
 370 0110 0398     		ldr	r0, [sp, #12]
 371 0112 0299     		ldr	r1, [sp, #8]
 372 0114 019A     		ldr	r2, [sp, #4]
 373 0116 009B     		ldr	r3, [sp]
 374 0118 FFF7DAFF 		bl	chVTSetI
 375              		.loc 4 490 0
 376 011c FFF798FF 		bl	chSysUnlock
 377              		.loc 4 491 0
 378 0120 05B0     		add	sp, sp, #20
 379              		@ sp needed
 380 0122 5DF804FB 		ldr	pc, [sp], #4
 381              		.cfi_endproc
 382              	.LFE176:
 383              		.size	chVTSet, .-chVTSet
 384 0126 00BF     		.align	2
 385 0128 AFF30080 		.p2align 4,,15
 385      AFF30080 
 386              		.thumb
 387              		.thumb_func
 388              		.type	chEvtObjectInit, %function
 389              	chEvtObjectInit:
ARM GAS  /tmp/ccmV6gDh.s 			page 8


 390              	.LFB205:
 391              		.file 5 "../../ChibiOS/os/rt/include/chevents.h"
 392              		.loc 5 170 0
 393              		.cfi_startproc
 394              		@ args = 0, pretend = 0, frame = 8
 395              		@ frame_needed = 0, uses_anonymous_args = 0
 396              		@ link register save eliminated.
 397 0130 82B0     		sub	sp, sp, #8
 398              		.cfi_def_cfa_offset 8
 399 0132 0190     		str	r0, [sp, #4]
 400              		.loc 5 172 0
 401 0134 019B     		ldr	r3, [sp, #4]
 402 0136 019A     		ldr	r2, [sp, #4]
 403 0138 1A60     		str	r2, [r3]
 404              		.loc 5 173 0
 405 013a 02B0     		add	sp, sp, #8
 406              		@ sp needed
 407 013c 7047     		bx	lr
 408              		.cfi_endproc
 409              	.LFE205:
 410              		.size	chEvtObjectInit, .-chEvtObjectInit
 411 013e 00BF     		.align	2
 412              		.p2align 4,,15
 413              		.thumb
 414              		.thumb_func
 415              		.type	chEvtBroadcastI, %function
 416              	chEvtBroadcastI:
 417              	.LFB210:
 418              		.loc 5 254 0
 419              		.cfi_startproc
 420              		@ args = 0, pretend = 0, frame = 8
 421              		@ frame_needed = 0, uses_anonymous_args = 0
 422 0140 00B5     		push	{lr}
 423              		.cfi_def_cfa_offset 4
 424              		.cfi_offset 14, -4
 425 0142 83B0     		sub	sp, sp, #12
 426              		.cfi_def_cfa_offset 16
 427 0144 0190     		str	r0, [sp, #4]
 428              		.loc 5 256 0
 429 0146 0198     		ldr	r0, [sp, #4]
 430 0148 0021     		movs	r1, #0
 431 014a FFF7FEFF 		bl	chEvtBroadcastFlagsI
 432              		.loc 5 257 0
 433 014e 03B0     		add	sp, sp, #12
 434              		@ sp needed
 435 0150 5DF804FB 		ldr	pc, [sp], #4
 436              		.cfi_endproc
 437              	.LFE210:
 438              		.size	chEvtBroadcastI, .-chEvtBroadcastI
 439              		.align	2
 440 0154 AFF30080 		.p2align 4,,15
 440      AFF30080 
 440      AFF30080 
 441              		.thumb
 442              		.thumb_func
 443              		.type	tmrcb, %function
 444              	tmrcb:
ARM GAS  /tmp/ccmV6gDh.s 			page 9


 445              	.LFB231:
 446              		.file 6 "../../ChibiOS/os/various/evtimer.c"
 447              		.loc 6 48 0
 448              		.cfi_startproc
 449              		@ args = 0, pretend = 0, frame = 16
 450              		@ frame_needed = 0, uses_anonymous_args = 0
 451 0160 00B5     		push	{lr}
 452              		.cfi_def_cfa_offset 4
 453              		.cfi_offset 14, -4
 454 0162 85B0     		sub	sp, sp, #20
 455              		.cfi_def_cfa_offset 24
 456 0164 0190     		str	r0, [sp, #4]
 457              		.loc 6 49 0
 458 0166 019B     		ldr	r3, [sp, #4]
 459 0168 0393     		str	r3, [sp, #12]
 460              		.loc 6 51 0
 461 016a FFF779FF 		bl	chSysLockFromISR
 462              		.loc 6 52 0
 463 016e 039B     		ldr	r3, [sp, #12]
 464 0170 1433     		adds	r3, r3, #20
 465 0172 1846     		mov	r0, r3
 466 0174 FFF7E4FF 		bl	chEvtBroadcastI
 467              		.loc 6 53 0
 468 0178 039A     		ldr	r2, [sp, #12]
 469 017a 039B     		ldr	r3, [sp, #12]
 470 017c 9B69     		ldr	r3, [r3, #24]
 471 017e 1046     		mov	r0, r2
 472 0180 1946     		mov	r1, r3
 473 0182 044A     		ldr	r2, .L19
 474 0184 039B     		ldr	r3, [sp, #12]
 475 0186 FFF7FEFF 		bl	chVTDoSetI
 476              		.loc 6 54 0
 477 018a FFF771FF 		bl	chSysUnlockFromISR
 478              		.loc 6 55 0
 479 018e 05B0     		add	sp, sp, #20
 480              		@ sp needed
 481 0190 5DF804FB 		ldr	pc, [sp], #4
 482              	.L20:
 483              		.align	2
 484              	.L19:
 485 0194 00000000 		.word	tmrcb
 486              		.cfi_endproc
 487              	.LFE231:
 488              		.size	tmrcb, .-tmrcb
 489              		.align	2
 490 0198 AFF30080 		.p2align 4,,15
 490      AFF30080 
 491              		.global	evtObjectInit
 492              		.thumb
 493              		.thumb_func
 494              		.type	evtObjectInit, %function
 495              	evtObjectInit:
 496              	.LFB232:
 497              		.loc 6 67 0
 498              		.cfi_startproc
 499              		@ args = 0, pretend = 0, frame = 8
 500              		@ frame_needed = 0, uses_anonymous_args = 0
ARM GAS  /tmp/ccmV6gDh.s 			page 10


 501 01a0 00B5     		push	{lr}
 502              		.cfi_def_cfa_offset 4
 503              		.cfi_offset 14, -4
 504 01a2 83B0     		sub	sp, sp, #12
 505              		.cfi_def_cfa_offset 16
 506 01a4 0190     		str	r0, [sp, #4]
 507 01a6 0091     		str	r1, [sp]
 508              		.loc 6 69 0
 509 01a8 019B     		ldr	r3, [sp, #4]
 510 01aa 1433     		adds	r3, r3, #20
 511 01ac 1846     		mov	r0, r3
 512 01ae FFF7BFFF 		bl	chEvtObjectInit
 513              		.loc 6 70 0
 514 01b2 019B     		ldr	r3, [sp, #4]
 515 01b4 1846     		mov	r0, r3
 516 01b6 FFF763FF 		bl	chVTObjectInit
 517              		.loc 6 71 0
 518 01ba 019B     		ldr	r3, [sp, #4]
 519 01bc 009A     		ldr	r2, [sp]
 520 01be 9A61     		str	r2, [r3, #24]
 521              		.loc 6 72 0
 522 01c0 03B0     		add	sp, sp, #12
 523              		@ sp needed
 524 01c2 5DF804FB 		ldr	pc, [sp], #4
 525              		.cfi_endproc
 526              	.LFE232:
 527              		.size	evtObjectInit, .-evtObjectInit
 528 01c6 00BF     		.align	2
 529 01c8 AFF30080 		.p2align 4,,15
 529      AFF30080 
 530              		.global	evtStart
 531              		.thumb
 532              		.thumb_func
 533              		.type	evtStart, %function
 534              	evtStart:
 535              	.LFB233:
 536              		.loc 6 80 0
 537              		.cfi_startproc
 538              		@ args = 0, pretend = 0, frame = 8
 539              		@ frame_needed = 0, uses_anonymous_args = 0
 540 01d0 00B5     		push	{lr}
 541              		.cfi_def_cfa_offset 4
 542              		.cfi_offset 14, -4
 543 01d2 83B0     		sub	sp, sp, #12
 544              		.cfi_def_cfa_offset 16
 545 01d4 0190     		str	r0, [sp, #4]
 546              		.loc 6 82 0
 547 01d6 019A     		ldr	r2, [sp, #4]
 548 01d8 019B     		ldr	r3, [sp, #4]
 549 01da 9B69     		ldr	r3, [r3, #24]
 550 01dc 1046     		mov	r0, r2
 551 01de 1946     		mov	r1, r3
 552 01e0 034A     		ldr	r2, .L23
 553 01e2 019B     		ldr	r3, [sp, #4]
 554 01e4 FFF78CFF 		bl	chVTSet
 555              		.loc 6 83 0
 556 01e8 03B0     		add	sp, sp, #12
ARM GAS  /tmp/ccmV6gDh.s 			page 11


 557              		@ sp needed
 558 01ea 5DF804FB 		ldr	pc, [sp], #4
 559              	.L24:
 560 01ee 00BF     		.align	2
 561              	.L23:
 562 01f0 00000000 		.word	tmrcb
 563              		.cfi_endproc
 564              	.LFE233:
 565              		.size	evtStart, .-evtStart
 566              	.Letext0:
 567              		.file 7 "/nfs/nfs5/home/research/hardware/arm2/gcc-arm-embedded/gcc-arm-none-eabi-4_8-2014q2/arm-n
 568              		.file 8 "/nfs/nfs5/home/research/hardware/arm2/gcc-arm-embedded/gcc-arm-none-eabi-4_8-2014q2/arm-n
 569              		.file 9 "../../ChibiOS/os/rt/ports/ARMCMx/compilers/GCC/chtypes.h"
 570              		.file 10 "../../ChibiOS/os/rt/include/chsystypes.h"
 571              		.file 11 "../../ChibiOS/os/rt/include/chschd.h"
 572              		.file 12 "../../ChibiOS/os/rt/ports/ARMCMx/chcore.h"
 573              		.file 13 "../../ChibiOS/os/rt/include/chtm.h"
 574              		.file 14 "../../ChibiOS/os/rt/include/chsem.h"
 575              		.file 15 "../../ChibiOS/os/rt/include/chmtx.h"
 576              		.file 16 "../../ChibiOS/os/various/evtimer.h"
 577              		.file 17 "../../ChibiOS/os/ext/CMSIS/include/core_cm4.h"