ARM GAS  /tmp/ccmV6gDh.s 			page 1


   1              		.syntax unified
   2              		.cpu cortex-m4
   3              		.fpu softvfp
   4              		.eabi_attribute 20, 1
   5              		.eabi_attribute 21, 1
   6              		.eabi_attribute 23, 3
   7              		.eabi_attribute 24, 1
   8              		.eabi_attribute 25, 1
   9              		.eabi_attribute 26, 1
  10              		.eabi_attribute 30, 6
  11              		.eabi_attribute 34, 1
  12              		.eabi_attribute 18, 4
  13              		.thumb
  14              		.file	"evtimer.c"
  15              		.text
  16              	.Ltext0:
  17              		.cfi_sections	.debug_frame
  18              		.align	2
  19              		.p2align 4,,15
  20              		.thumb
  21              		.thumb_func
  22              		.type	port_lock, %function
  23              	port_lock:
  24              	.LFB127:
  25              		.file 1 "../../ChibiOS/os/rt/ports/ARMCMx/chcore_v7m.h"
  26              		.loc 1 456 0
  27              		.cfi_startproc
  28              		@ args = 0, pretend = 0, frame = 8
  29              		@ frame_needed = 0, uses_anonymous_args = 0
  30              		@ link register save eliminated.
  31 0000 82B0     		sub	sp, sp, #8
  32              		.cfi_def_cfa_offset 8
  33 0002 2023     		movs	r3, #32
  34 0004 0193     		str	r3, [sp, #4]
  35              	.LBB6:
  36              	.LBB7:
  37              		.file 2 "../../ChibiOS/os/ext/CMSIS/include/core_cmFunc.h"
  38              		.loc 2 548 0
  39 0006 019B     		ldr	r3, [sp, #4]
  40              	@ 548 "../../ChibiOS/os/ext/CMSIS/include/core_cmFunc.h" 1
  41 0008 83F31188 		MSR basepri, r3
  42              	@ 0 "" 2
  43              		.thumb
  44              	.LBE7:
  45              	.LBE6:
  46              		.loc 1 473 0
  47 000c 02B0     		add	sp, sp, #8
  48              		@ sp needed
  49 000e 7047     		bx	lr
  50              		.cfi_endproc
  51              	.LFE127:
  52              		.size	port_lock, .-port_lock
  53              		.align	2
  54              		.p2align 4,,15
  55              		.thumb
  56              		.thumb_func
  57              		.type	port_unlock, %function
ARM GAS  /tmp/ccmV6gDh.s 			page 2


  58              	port_unlock:
  59              	.LFB128:
  60              		.loc 1 480 0
  61              		.cfi_startproc
  62              		@ args = 0, pretend = 0, frame = 8
  63              		@ frame_needed = 0, uses_anonymous_args = 0
  64              		@ link register save eliminated.
  65 0010 82B0     		sub	sp, sp, #8
  66              		.cfi_def_cfa_offset 8
  67 0012 0023     		movs	r3, #0
  68 0014 0193     		str	r3, [sp, #4]
  69              	.LBB8:
  70              	.LBB9:
  71              		.loc 2 548 0
  72 0016 019B     		ldr	r3, [sp, #4]
  73              	@ 548 "../../ChibiOS/os/ext/CMSIS/include/core_cmFunc.h" 1
  74 0018 83F31188 		MSR basepri, r3
  75              	@ 0 "" 2
  76              		.thumb
  77              	.LBE9:
  78              	.LBE8:
  79              		.loc 1 487 0
  80 001c 02B0     		add	sp, sp, #8
  81              		@ sp needed
  82 001e 7047     		bx	lr
  83              		.cfi_endproc
  84              	.LFE128:
  85              		.size	port_unlock, .-port_unlock
  86              		.align	2
  87              		.p2align 4,,15
  88              		.thumb
  89              		.thumb_func
  90              		.type	port_lock_from_isr, %function
  91              	port_lock_from_isr:
  92              	.LFB129:
  93              		.loc 1 495 0
  94              		.cfi_startproc
  95              		@ args = 0, pretend = 0, frame = 0
  96              		@ frame_needed = 0, uses_anonymous_args = 0
  97 0020 08B5     		push	{r3, lr}
  98              		.cfi_def_cfa_offset 8
  99              		.cfi_offset 3, -8
 100              		.cfi_offset 14, -4
 101              		.loc 1 497 0
 102 0022 FFF7EDFF 		bl	port_lock
 103              		.loc 1 498 0
 104 0026 08BD     		pop	{r3, pc}
 105              		.cfi_endproc
 106              	.LFE129:
 107              		.size	port_lock_from_isr, .-port_lock_from_isr
 108              		.align	2
 109 0028 AFF30080 		.p2align 4,,15
 109      AFF30080 
 110              		.thumb
 111              		.thumb_func
 112              		.type	port_unlock_from_isr, %function
 113              	port_unlock_from_isr:
ARM GAS  /tmp/ccmV6gDh.s 			page 3


 114              	.LFB130:
 115              		.loc 1 506 0
 116              		.cfi_startproc
 117              		@ args = 0, pretend = 0, frame = 0
 118              		@ frame_needed = 0, uses_anonymous_args = 0
 119 0030 08B5     		push	{r3, lr}
 120              		.cfi_def_cfa_offset 8
 121              		.cfi_offset 3, -8
 122              		.cfi_offset 14, -4
 123              		.loc 1 508 0
 124 0032 FFF7EDFF 		bl	port_unlock
 125              		.loc 1 509 0
 126 0036 08BD     		pop	{r3, pc}
 127              		.cfi_endproc
 128              	.LFE130:
 129              		.size	port_unlock_from_isr, .-port_unlock_from_isr
 130              		.align	2
 131 0038 AFF30080 		.p2align 4,,15
 131      AFF30080 
 132              		.thumb
 133              		.thumb_func
 134              		.type	chSysLock, %function
 135              	chSysLock:
 136              	.LFB156:
 137              		.file 3 "../../ChibiOS/os/rt/include/chsys.h"
 138              		.loc 3 346 0
 139              		.cfi_startproc
 140              		@ args = 0, pretend = 0, frame = 0
 141              		@ frame_needed = 0, uses_anonymous_args = 0
 142 0040 08B5     		push	{r3, lr}
 143              		.cfi_def_cfa_offset 8
 144              		.cfi_offset 3, -8
 145              		.cfi_offset 14, -4
 146              		.loc 3 348 0
 147 0042 FFF7DDFF 		bl	port_lock
 148              		.loc 3 351 0
 149 0046 08BD     		pop	{r3, pc}
 150              		.cfi_endproc
 151              	.LFE156:
 152              		.size	chSysLock, .-chSysLock
 153              		.align	2
 154 0048 AFF30080 		.p2align 4,,15
 154      AFF30080 
 155              		.thumb
 156              		.thumb_func
 157              		.type	chSysUnlock, %function
 158              	chSysUnlock:
 159              	.LFB157:
 160              		.loc 3 358 0
 161              		.cfi_startproc
 162              		@ args = 0, pretend = 0, frame = 0
 163              		@ frame_needed = 0, uses_anonymous_args = 0
 164 0050 08B5     		push	{r3, lr}
 165              		.cfi_def_cfa_offset 8
 166              		.cfi_offset 3, -8
 167              		.cfi_offset 14, -4
 168              		.loc 3 371 0
ARM GAS  /tmp/ccmV6gDh.s 			page 4


 169 0052 FFF7DDFF 		bl	port_unlock
 170              		.loc 3 372 0
 171 0056 08BD     		pop	{r3, pc}
 172              		.cfi_endproc
 173              	.LFE157:
 174              		.size	chSysUnlock, .-chSysUnlock
 175              		.align	2
 176 0058 AFF30080 		.p2align 4,,15
 176      AFF30080 
 177              		.thumb
 178              		.thumb_func
 179              		.type	chSysLockFromISR, %function
 180              	chSysLockFromISR:
 181              	.LFB158:
 182              		.loc 3 386 0
 183              		.cfi_startproc
 184              		@ args = 0, pretend = 0, frame = 0
 185              		@ frame_needed = 0, uses_anonymous_args = 0
 186 0060 08B5     		push	{r3, lr}
 187              		.cfi_def_cfa_offset 8
 188              		.cfi_offset 3, -8
 189              		.cfi_offset 14, -4
 190              		.loc 3 388 0
 191 0062 FFF7DDFF 		bl	port_lock_from_isr
 192              		.loc 3 391 0
 193 0066 08BD     		pop	{r3, pc}
 194              		.cfi_endproc
 195              	.LFE158:
 196              		.size	chSysLockFromISR, .-chSysLockFromISR
 197              		.align	2
 198 0068 AFF30080 		.p2align 4,,15
 198      AFF30080 
 199              		.thumb
 200              		.thumb_func
 201              		.type	chSysUnlockFromISR, %function
 202              	chSysUnlockFromISR:
 203              	.LFB159:
 204              		.loc 3 406 0
 205              		.cfi_startproc
 206              		@ args = 0, pretend = 0, frame = 0
 207              		@ frame_needed = 0, uses_anonymous_args = 0
 208 0070 08B5     		push	{r3, lr}
 209              		.cfi_def_cfa_offset 8
 210              		.cfi_offset 3, -8
 211              		.cfi_offset 14, -4
 212              		.loc 3 410 0
 213 0072 FFF7DDFF 		bl	port_unlock_from_isr
 214              		.loc 3 411 0
 215 0076 08BD     		pop	{r3, pc}
 216              		.cfi_endproc
 217              	.LFE159:
 218              		.size	chSysUnlockFromISR, .-chSysUnlockFromISR
 219              		.align	2
 220 0078 AFF30080 		.p2align 4,,15
 220      AFF30080 
 221              		.thumb
 222              		.thumb_func
ARM GAS  /tmp/ccmV6gDh.s 			page 5


 223              		.type	chVTObjectInit, %function
 224              	chVTObjectInit:
 225              	.LFB163:
 226              		.file 4 "../../ChibiOS/os/rt/include/chvt.h"
 227              		.loc 4 210 0
 228              		.cfi_startproc
 229              		@ args = 0, pretend = 0, frame = 8
 230              		@ frame_needed = 0, uses_anonymous_args = 0
 231              		@ link register save eliminated.
 232 0080 82B0     		sub	sp, sp, #8
 233              		.cfi_def_cfa_offset 8
 234 0082 0190     		str	r0, [sp, #4]
 235              		.loc 4 212 0
 236 0084 019B     		ldr	r3, [sp, #4]
 237 0086 0022     		movs	r2, #0
 238 0088 DA60     		str	r2, [r3, #12]
 239              		.loc 4 213 0
 240 008a 02B0     		add	sp, sp, #8
 241              		@ sp needed
 242 008c 7047     		bx	lr
 243              		.cfi_endproc
 244              	.LFE163:
 245              		.size	chVTObjectInit, .-chVTObjectInit
 246 008e 00BF     		.align	2
 247              		.p2align 4,,15
 248              		.thumb
 249              		.thumb_func
 250              		.type	chVTIsArmedI, %function
 251              	chVTIsArmedI:
 252              	.LFB171:
 253              		.loc 4 373 0
 254              		.cfi_startproc
 255              		@ args = 0, pretend = 0, frame = 8
 256              		@ frame_needed = 0, uses_anonymous_args = 0
 257              		@ link register save eliminated.
 258 0090 82B0     		sub	sp, sp, #8
 259              		.cfi_def_cfa_offset 8
 260 0092 0190     		str	r0, [sp, #4]
 261              		.loc 4 377 0
 262 0094 019B     		ldr	r3, [sp, #4]
 263 0096 DB68     		ldr	r3, [r3, #12]
 264 0098 002B     		cmp	r3, #0
 265 009a 0CBF     		ite	eq
 266 009c 0023     		moveq	r3, #0
 267 009e 0123     		movne	r3, #1
 268 00a0 DBB2     		uxtb	r3, r3
 269              		.loc 4 378 0
 270 00a2 1846     		mov	r0, r3
 271 00a4 02B0     		add	sp, sp, #8
 272              		@ sp needed
 273 00a6 7047     		bx	lr
 274              		.cfi_endproc
 275              	.LFE171:
 276              		.size	chVTIsArmedI, .-chVTIsArmedI
 277              		.align	2
 278 00a8 AFF30080 		.p2align 4,,15
 278      AFF30080 
ARM GAS  /tmp/ccmV6gDh.s 			page 6


 279              		.thumb
 280              		.thumb_func
 281              		.type	chVTResetI, %function
 282              	chVTResetI:
 283              	.LFB173:
 284              		.loc 4 410 0
 285              		.cfi_startproc
 286              		@ args = 0, pretend = 0, frame = 8
 287              		@ frame_needed = 0, uses_anonymous_args = 0
 288 00b0 00B5     		push	{lr}
 289              		.cfi_def_cfa_offset 4
 290              		.cfi_offset 14, -4
 291 00b2 83B0     		sub	sp, sp, #12
 292              		.cfi_def_cfa_offset 16
 293 00b4 0190     		str	r0, [sp, #4]
 294              		.loc 4 412 0
 295 00b6 0198     		ldr	r0, [sp, #4]
 296 00b8 FFF7EAFF 		bl	chVTIsArmedI
 297 00bc 0346     		mov	r3, r0
 298 00be 002B     		cmp	r3, #0
 299 00c0 02D0     		beq	.L12
 300              		.loc 4 413 0
 301 00c2 0198     		ldr	r0, [sp, #4]
 302 00c4 FFF7FEFF 		bl	chVTDoResetI
 303              	.L12:
 304              		.loc 4 415 0
 305 00c8 03B0     		add	sp, sp, #12
 306              		@ sp needed
 307 00ca 5DF804FB 		ldr	pc, [sp], #4
 308              		.cfi_endproc
 309              	.LFE173:
 310              		.size	chVTResetI, .-chVTResetI
 311 00ce 00BF     		.align	2
 312              		.p2align 4,,15
 313              		.thumb
 314              		.thumb_func
 315              		.type	chVTSetI, %function
 316              	chVTSetI:
 317              	.LFB175:
 318              		.loc 4 457 0
 319              		.cfi_startproc
 320              		@ args = 0, pretend = 0, frame = 16
 321              		@ frame_needed = 0, uses_anonymous_args = 0
 322 00d0 00B5     		push	{lr}
 323              		.cfi_def_cfa_offset 4
 324              		.cfi_offset 14, -4
 325 00d2 85B0     		sub	sp, sp, #20
 326              		.cfi_def_cfa_offset 24
 327 00d4 0390     		str	r0, [sp, #12]
 328 00d6 0291     		str	r1, [sp, #8]
 329 00d8 0192     		str	r2, [sp, #4]
 330 00da 0093     		str	r3, [sp]
 331              		.loc 4 459 0
 332 00dc 0398     		ldr	r0, [sp, #12]
 333 00de FFF7E7FF 		bl	chVTResetI
 334              		.loc 4 460 0
 335 00e2 0398     		ldr	r0, [sp, #12]
ARM GAS  /tmp/ccmV6gDh.s 			page 7


 336 00e4 0299     		ldr	r1, [sp, #8]
 337 00e6 019A     		ldr	r2, [sp, #4]
 338 00e8 009B     		ldr	r3, [sp]
 339 00ea FFF7FEFF 		bl	chVTDoSetI
 340              		.loc 4 461 0
 341 00ee 05B0     		add	sp, sp, #20
 342              		@ sp needed
 343 00f0 5DF804FB 		ldr	pc, [sp], #4
 344              		.cfi_endproc
 345              	.LFE175:
 346              		.size	chVTSetI, .-chVTSetI
 347              		.align	2
 348 00f4 AFF30080 		.p2align 4,,15
 348      AFF30080 
 348      AFF30080 
 349              		.thumb
 350              		.thumb_func
 351              		.type	chVTSet, %function
 352              	chVTSet:
 353              	.LFB176:
 354              		.loc 4 486 0
 355              		.cfi_startproc
 356              		@ args = 0, pretend = 0, frame = 16
 357              		@ frame_needed = 0, uses_anonymous_args = 0
 358 0100 00B5     		push	{lr}
 359              		.cfi_def_cfa_offset 4
 360              		.cfi_offset 14, -4
 361 0102 85B0     		sub	sp, sp, #20
 362              		.cfi_def_cfa_offset 24
 363 0104 0390     		str	r0, [sp, #12]
 364 0106 0291     		str	r1, [sp, #8]
 365 0108 0192     		str	r2, [sp, #4]
 366 010a 0093     		str	r3, [sp]
 367              		.loc 4 488 0
 368 010c FFF798FF 		bl	chSysLock
 369              		.loc 4 489 0
 370 0110 0398     		ldr	r0, [sp, #12]
 371 0112 0299     		ldr	r1, [sp, #8]
 372 0114 019A     		ldr	r2, [sp, #4]
 373 0116 009B     		ldr	r3, [sp]
 374 0118 FFF7DAFF 		bl	chVTSetI
 375              		.loc 4 490 0
 376 011c FFF798FF 		bl	chSysUnlock
 377              		.loc 4 491 0
 378 0120 05B0     		add	sp, sp, #20
 379              		@ sp needed
 380 0122 5DF804FB 		ldr	pc, [sp], #4
 381              		.cfi_endproc
 382              	.LFE176:
 383              		.size	chVTSet, .-chVTSet
 384 0126 00BF     		.align	2
 385 0128 AFF30080 		.p2align 4,,15
 385      AFF30080 
 386              		.thumb
 387              		.thumb_func
 388              		.type	chEvtObjectInit, %function
 389              	chEvtObjectInit:
ARM GAS  /tmp/ccmV6gDh.s 			page 8


 390              	.LFB205:
 391              		.file 5 "../../ChibiOS/os/rt/include/chevents.h"
 392              		.loc 5 170 0
 393              		.cfi_startproc
 394              		@ args = 0, pretend = 0, frame = 8
 395              		@ frame_needed = 0, uses_anonymous_args = 0
 396              		@ link register save eliminated.
 397 0130 82B0     		sub	sp, sp, #8
 398              		.cfi_def_cfa_offset 8
 399 0132 0190     		str	r0, [sp, #4]
 400              		.loc 5 172 0
 401 0134 019B     		ldr	r3, [sp, #4]
 402 0136 019A     		ldr	r2, [sp, #4]
 403 0138 1A60     		str	r2, [r3]
 404              		.loc 5 173 0
 405 013a 02B0     		add	sp, sp, #8
 406              		@ sp needed
 407 013c 7047     		bx	lr
 408              		.cfi_endproc
 409              	.LFE205:
 410              		.size	chEvtObjectInit, .-chEvtObjectInit
 411 013e 00BF     		.align	2
 412              		.p2align 4,,15
 413              		.thumb
 414              		.thumb_func
 415              		.type	chEvtBroadcastI, %function
 416              	chEvtBroadcastI:
 417              	.LFB210:
 418              		.loc 5 254 0
 419              		.cfi_startproc
 420              		@ args = 0, pretend = 0, frame = 8
 421              		@ frame_needed = 0, uses_anonymous_args = 0
 422 0140 00B5     		push	{lr}
 423              		.cfi_def_cfa_offset 4
 424              		.cfi_offset 14, -4
 425 0142 83B0     		sub	sp, sp, #12
 426              		.cfi_def_cfa_offset 16
 427 0144 0190     		str	r0, [sp, #4]
 428              		.loc 5 256 0
 429 0146 0198     		ldr	r0, [sp, #4]
 430 0148 0021     		movs	r1, #0
 431 014a FFF7FEFF 		bl	chEvtBroadcastFlagsI
 432              		.loc 5 257 0
 433 014e 03B0     		add	sp, sp, #12
 434              		@ sp needed
 435 0150 5DF804FB 		ldr	pc, [sp], #4
 436              		.cfi_endproc
 437              	.LFE210:
 438              		.size	chEvtBroadcastI, .-chEvtBroadcastI
 439              		.align	2
 440 0154 AFF30080 		.p2align 4,,15
 440      AFF30080 
 440      AFF30080 
 441              		.thumb
 442              		.thumb_func
 443              		.type	tmrcb, %function
 444              	tmrcb:
ARM GAS  /tmp/ccmV6gDh.s 			page 9


 445              	.LFB231:
 446              		.file 6 "../../ChibiOS/os/various/evtimer.c"
 447              		.loc 6 48 0
 448              		.cfi_startproc
 449              		@ args = 0, pretend = 0, frame = 16
 450              		@ frame_needed = 0, uses_anonymous_args = 0
 451 0160 00B5     		push	{lr}
 452              		.cfi_def_cfa_offset 4
 453              		.cfi_offset 14, -4
 454 0162 85B0     		sub	sp, sp, #20
 455              		.cfi_def_cfa_offset 24
 456 0164 0190     		str	r0, [sp, #4]
 457              		.loc 6 49 0
 458 0166 019B     		ldr	r3, [sp, #4]
 459 0168 0393     		str	r3, [sp, #12]
 460              		.loc 6 51 0
 461 016a FFF779FF 		bl	chSysLockFromISR
 462              		.loc 6 52 0
 463 016e 039B     		ldr	r3, [sp, #12]
 464 0170 1433     		adds	r3, r3, #20
 465 0172 1846     		mov	r0, r3
 466 0174 FFF7E4FF 		bl	chEvtBroadcastI
 467              		.loc 6 53 0
 468 0178 039A     		ldr	r2, [sp, #12]
 469 017a 039B     		ldr	r3, [sp, #12]
 470 017c 9B69     		ldr	r3, [r3, #24]
 471 017e 1046     		mov	r0, r2
 472 0180 1946     		mov	r1, r3
 473 0182 044A     		ldr	r2, .L19
 474 0184 039B     		ldr	r3, [sp, #12]
 475 0186 FFF7FEFF 		bl	chVTDoSetI
 476              		.loc 6 54 0
 477 018a FFF771FF 		bl	chSysUnlockFromISR
 478              		.loc 6 55 0
 479 018e 05B0     		add	sp, sp, #20
 480              		@ sp needed
 481 0190 5DF804FB 		ldr	pc, [sp], #4
 482              	.L20:
 483              		.align	2
 484              	.L19:
 485 0194 00000000 		.word	tmrcb
 486              		.cfi_endproc
 487              	.LFE231:
 488              		.size	tmrcb, .-tmrcb
 489              		.align	2
 490 0198 AFF30080 		.p2align 4,,15
 490      AFF30080 
 491              		.global	evtObjectInit
 492              		.thumb
 493              		.thumb_func
 494              		.type	evtObjectInit, %function
 495              	evtObjectInit:
 496              	.LFB232:
 497              		.loc 6 67 0
 498              		.cfi_startproc
 499              		@ args = 0, pretend = 0, frame = 8
 500              		@ frame_needed = 0, uses_anonymous_args = 0
ARM GAS  /tmp/ccmV6gDh.s 			page 10


 501 01a0 00B5     		push	{lr}
 502              		.cfi_def_cfa_offset 4
 503              		.cfi_offset 14, -4
 504 01a2 83B0     		sub	sp, sp, #12
 505              		.cfi_def_cfa_offset 16
 506 01a4 0190     		str	r0, [sp, #4]
 507 01a6 0091     		str	r1, [sp]
 508              		.loc 6 69 0
 509 01a8 019B     		ldr	r3, [sp, #4]
 510 01aa 1433     		adds	r3, r3, #20
 511 01ac 1846     		mov	r0, r3
 512 01ae FFF7BFFF 		bl	chEvtObjectInit
 513              		.loc 6 70 0
 514 01b2 019B     		ldr	r3, [sp, #4]
 515 01b4 1846     		mov	r0, r3
 516 01b6 FFF763FF 		bl	chVTObjectInit
 517              		.loc 6 71 0
 518 01ba 019B     		ldr	r3, [sp, #4]
 519 01bc 009A     		ldr	r2, [sp]
 520 01be 9A61     		str	r2, [r3, #24]
 521              		.loc 6 72 0
 522 01c0 03B0     		add	sp, sp, #12
 523              		@ sp needed
 524 01c2 5DF804FB 		ldr	pc, [sp], #4
 525              		.cfi_endproc
 526              	.LFE232:
 527              		.size	evtObjectInit, .-evtObjectInit
 528 01c6 00BF     		.align	2
 529 01c8 AFF30080 		.p2align 4,,15
 529      AFF30080 
 530              		.global	evtStart
 531              		.thumb
 532              		.thumb_func
 533              		.type	evtStart, %function
 534              	evtStart:
 535              	.LFB233:
 536              		.loc 6 80 0
 537              		.cfi_startproc
 538              		@ args = 0, pretend = 0, frame = 8
 539              		@ frame_needed = 0, uses_anonymous_args = 0
 540 01d0 00B5     		push	{lr}
 541              		.cfi_def_cfa_offset 4
 542              		.cfi_offset 14, -4
 543 01d2 83B0     		sub	sp, sp, #12
 544              		.cfi_def_cfa_offset 16
 545 01d4 0190     		str	r0, [sp, #4]
 546              		.loc 6 82 0
 547 01d6 019A     		ldr	r2, [sp, #4]
 548 01d8 019B     		ldr	r3, [sp, #4]
 549 01da 9B69     		ldr	r3, [r3, #24]
 550 01dc 1046     		mov	r0, r2
 551 01de 1946     		mov	r1, r3
 552 01e0 034A     		ldr	r2, .L23
 553 01e2 019B     		ldr	r3, [sp, #4]
 554 01e4 FFF78CFF 		bl	chVTSet
 555              		.loc 6 83 0
 556 01e8 03B0     		add	sp, sp, #12
ARM GAS  /tmp/ccmV6gDh.s 			page 11


 557              		@ sp needed
 558 01ea 5DF804FB 		ldr	pc, [sp], #4
 559              	.L24:
 560 01ee 00BF     		.align	2
 561              	.L23:
 562 01f0 00000000 		.word	tmrcb
 563              		.cfi_endproc
 564              	.LFE233:
 565              		.size	evtStart, .-evtStart
 566              	.Letext0:
 567              		.file 7 "/nfs/nfs5/home/research/hardware/arm2/gcc-arm-embedded/gcc-arm-none-eabi-4_8-2014q2/arm-n
 568              		.file 8 "/nfs/nfs5/home/research/hardware/arm2/gcc-arm-embedded/gcc-arm-none-eabi-4_8-2014q2/arm-n
 569              		.file 9 "../../ChibiOS/os/rt/ports/ARMCMx/compilers/GCC/chtypes.h"
 570              		.file 10 "../../ChibiOS/os/rt/include/chsystypes.h"
 571              		.file 11 "../../ChibiOS/os/rt/include/chschd.h"
 572              		.file 12 "../../ChibiOS/os/rt/ports/ARMCMx/chcore.h"
 573              		.file 13 "../../ChibiOS/os/rt/include/chtm.h"
 574              		.file 14 "../../ChibiOS/os/rt/include/chsem.h"
 575              		.file 15 "../../ChibiOS/os/rt/include/chmtx.h"
 576              		.file 16 "../../ChibiOS/os/various/evtimer.h"
 577              		.file 17 "../../ChibiOS/os/ext/CMSIS/include/core_cm4.h"
 578 01f4 AFF30080 		.section	.debug_info,"",%progbits
 578      AFF30080 
 578      AFF30080 
 579              	.Ldebug_info0:
 580 0000 100A0000 		.4byte	0xa10
 581 0004 0400     		.2byte	0x4
 582 0006 00000000 		.4byte	.Ldebug_abbrev0
 583 000a 04       		.byte	0x4
 584 000b 01       		.uleb128 0x1
 585 000c 88020000 		.4byte	.LASF140
 586 0010 01       		.byte	0x1
 587 0011 47040000 		.4byte	.LASF141
 588 0015 5E000000 		.4byte	.LASF142
 589 0019 00000000 		.4byte	.Ltext0
 590 001d F4010000 		.4byte	.Letext0-.Ltext0
 591 0021 00000000 		.4byte	.Ldebug_line0
 592 0025 02       		.uleb128 0x2
 593 0026 04       		.byte	0x4
 594 0027 05       		.byte	0x5
 595 0028 696E7400 		.ascii	"int\000"
 596 002c 03       		.uleb128 0x3
 597 002d 04       		.byte	0x4
 598 002e 07       		.byte	0x7
 599 002f D4010000 		.4byte	.LASF0
 600 0033 03       		.uleb128 0x3
 601 0034 01       		.byte	0x1
 602 0035 06       		.byte	0x6
 603 0036 1D010000 		.4byte	.LASF1
 604 003a 04       		.uleb128 0x4
 605 003b 2F000000 		.4byte	.LASF5
 606 003f 07       		.byte	0x7
 607 0040 1C       		.byte	0x1c
 608 0041 45000000 		.4byte	0x45
 609 0045 03       		.uleb128 0x3
 610 0046 01       		.byte	0x1
 611 0047 08       		.byte	0x8
ARM GAS  /tmp/ccmV6gDh.s 			page 12


 612 0048 AA040000 		.4byte	.LASF2
 613 004c 03       		.uleb128 0x3
 614 004d 02       		.byte	0x2
 615 004e 05       		.byte	0x5
 616 004f D7040000 		.4byte	.LASF3
 617 0053 03       		.uleb128 0x3
 618 0054 02       		.byte	0x2
 619 0055 07       		.byte	0x7
 620 0056 1A020000 		.4byte	.LASF4
 621 005a 04       		.uleb128 0x4
 622 005b 4C030000 		.4byte	.LASF6
 623 005f 07       		.byte	0x7
 624 0060 37       		.byte	0x37
 625 0061 65000000 		.4byte	0x65
 626 0065 03       		.uleb128 0x3
 627 0066 04       		.byte	0x4
 628 0067 05       		.byte	0x5
 629 0068 60010000 		.4byte	.LASF7
 630 006c 04       		.uleb128 0x4
 631 006d 0A060000 		.4byte	.LASF8
 632 0071 07       		.byte	0x7
 633 0072 38       		.byte	0x38
 634 0073 77000000 		.4byte	0x77
 635 0077 03       		.uleb128 0x3
 636 0078 04       		.byte	0x4
 637 0079 07       		.byte	0x7
 638 007a AA050000 		.4byte	.LASF9
 639 007e 03       		.uleb128 0x3
 640 007f 08       		.byte	0x8
 641 0080 05       		.byte	0x5
 642 0081 0F010000 		.4byte	.LASF10
 643 0085 04       		.uleb128 0x4
 644 0086 34040000 		.4byte	.LASF11
 645 008a 07       		.byte	0x7
 646 008b 4E       		.byte	0x4e
 647 008c 90000000 		.4byte	0x90
 648 0090 03       		.uleb128 0x3
 649 0091 08       		.byte	0x8
 650 0092 07       		.byte	0x7
 651 0093 A5000000 		.4byte	.LASF12
 652 0097 04       		.uleb128 0x4
 653 0098 99060000 		.4byte	.LASF13
 654 009c 08       		.byte	0x8
 655 009d 2A       		.byte	0x2a
 656 009e 3A000000 		.4byte	0x3a
 657 00a2 04       		.uleb128 0x4
 658 00a3 A2040000 		.4byte	.LASF14
 659 00a7 08       		.byte	0x8
 660 00a8 41       		.byte	0x41
 661 00a9 5A000000 		.4byte	0x5a
 662 00ad 04       		.uleb128 0x4
 663 00ae 7C050000 		.4byte	.LASF15
 664 00b2 08       		.byte	0x8
 665 00b3 42       		.byte	0x42
 666 00b4 6C000000 		.4byte	0x6c
 667 00b8 04       		.uleb128 0x4
 668 00b9 26000000 		.4byte	.LASF16
ARM GAS  /tmp/ccmV6gDh.s 			page 13


 669 00bd 08       		.byte	0x8
 670 00be 4E       		.byte	0x4e
 671 00bf 85000000 		.4byte	0x85
 672 00c3 04       		.uleb128 0x4
 673 00c4 3C060000 		.4byte	.LASF17
 674 00c8 09       		.byte	0x9
 675 00c9 39       		.byte	0x39
 676 00ca AD000000 		.4byte	0xad
 677 00ce 04       		.uleb128 0x4
 678 00cf 08050000 		.4byte	.LASF18
 679 00d3 09       		.byte	0x9
 680 00d4 3C       		.byte	0x3c
 681 00d5 97000000 		.4byte	0x97
 682 00d9 04       		.uleb128 0x4
 683 00da 69010000 		.4byte	.LASF19
 684 00de 09       		.byte	0x9
 685 00df 3D       		.byte	0x3d
 686 00e0 97000000 		.4byte	0x97
 687 00e4 04       		.uleb128 0x4
 688 00e5 3F040000 		.4byte	.LASF20
 689 00e9 09       		.byte	0x9
 690 00ea 3E       		.byte	0x3e
 691 00eb 97000000 		.4byte	0x97
 692 00ef 04       		.uleb128 0x4
 693 00f0 4C010000 		.4byte	.LASF21
 694 00f4 09       		.byte	0x9
 695 00f5 3F       		.byte	0x3f
 696 00f6 97000000 		.4byte	0x97
 697 00fa 04       		.uleb128 0x4
 698 00fb 71040000 		.4byte	.LASF22
 699 00ff 09       		.byte	0x9
 700 0100 40       		.byte	0x40
 701 0101 AD000000 		.4byte	0xad
 702 0105 04       		.uleb128 0x4
 703 0106 59020000 		.4byte	.LASF23
 704 010a 09       		.byte	0x9
 705 010b 41       		.byte	0x41
 706 010c A2000000 		.4byte	0xa2
 707 0110 04       		.uleb128 0x4
 708 0111 40030000 		.4byte	.LASF24
 709 0115 09       		.byte	0x9
 710 0116 43       		.byte	0x43
 711 0117 AD000000 		.4byte	0xad
 712 011b 04       		.uleb128 0x4
 713 011c 4C020000 		.4byte	.LASF25
 714 0120 09       		.byte	0x9
 715 0121 44       		.byte	0x44
 716 0122 AD000000 		.4byte	0xad
 717 0126 04       		.uleb128 0x4
 718 0127 CE010000 		.4byte	.LASF26
 719 012b 09       		.byte	0x9
 720 012c 45       		.byte	0x45
 721 012d A2000000 		.4byte	0xa2
 722 0131 04       		.uleb128 0x4
 723 0132 EC050000 		.4byte	.LASF27
 724 0136 0A       		.byte	0xa
 725 0137 33       		.byte	0x33
ARM GAS  /tmp/ccmV6gDh.s 			page 14


 726 0138 AD000000 		.4byte	0xad
 727 013c 04       		.uleb128 0x4
 728 013d DC050000 		.4byte	.LASF28
 729 0141 0A       		.byte	0xa
 730 0142 3F       		.byte	0x3f
 731 0143 47010000 		.4byte	0x147
 732 0147 05       		.uleb128 0x5
 733 0148 2D020000 		.4byte	.LASF49
 734 014c 44       		.byte	0x44
 735 014d 0B       		.byte	0xb
 736 014e C2       		.byte	0xc2
 737 014f 40020000 		.4byte	0x240
 738 0153 06       		.uleb128 0x6
 739 0154 01050000 		.4byte	.LASF29
 740 0158 0B       		.byte	0xb
 741 0159 C3       		.byte	0xc3
 742 015a 4B020000 		.4byte	0x24b
 743 015e 00       		.byte	0
 744 015f 06       		.uleb128 0x6
 745 0160 6A040000 		.4byte	.LASF30
 746 0164 0B       		.byte	0xb
 747 0165 C5       		.byte	0xc5
 748 0166 4B020000 		.4byte	0x24b
 749 016a 04       		.byte	0x4
 750 016b 06       		.uleb128 0x6
 751 016c 08010000 		.4byte	.LASF31
 752 0170 0B       		.byte	0xb
 753 0171 C7       		.byte	0xc7
 754 0172 FA000000 		.4byte	0xfa
 755 0176 08       		.byte	0x8
 756 0177 06       		.uleb128 0x6
 757 0178 EC060000 		.4byte	.LASF32
 758 017c 0B       		.byte	0xb
 759 017d C8       		.byte	0xc8
 760 017e 7B040000 		.4byte	0x47b
 761 0182 0C       		.byte	0xc
 762 0183 06       		.uleb128 0x6
 763 0184 79010000 		.4byte	.LASF33
 764 0188 0B       		.byte	0xb
 765 0189 CA       		.byte	0xca
 766 018a 4B020000 		.4byte	0x24b
 767 018e 10       		.byte	0x10
 768 018f 06       		.uleb128 0x6
 769 0190 EC030000 		.4byte	.LASF34
 770 0194 0B       		.byte	0xb
 771 0195 CB       		.byte	0xcb
 772 0196 4B020000 		.4byte	0x24b
 773 019a 14       		.byte	0x14
 774 019b 06       		.uleb128 0x6
 775 019c B2060000 		.4byte	.LASF35
 776 01a0 0B       		.byte	0xb
 777 01a1 D2       		.byte	0xd2
 778 01a2 FA050000 		.4byte	0x5fa
 779 01a6 18       		.byte	0x18
 780 01a7 06       		.uleb128 0x6
 781 01a8 E1040000 		.4byte	.LASF36
 782 01ac 0B       		.byte	0xb
ARM GAS  /tmp/ccmV6gDh.s 			page 15


 783 01ad DD       		.byte	0xdd
 784 01ae D9000000 		.4byte	0xd9
 785 01b2 1C       		.byte	0x1c
 786 01b3 06       		.uleb128 0x6
 787 01b4 10050000 		.4byte	.LASF37
 788 01b8 0B       		.byte	0xb
 789 01b9 E1       		.byte	0xe1
 790 01ba CE000000 		.4byte	0xce
 791 01be 1D       		.byte	0x1d
 792 01bf 06       		.uleb128 0x6
 793 01c0 72010000 		.4byte	.LASF38
 794 01c4 0B       		.byte	0xb
 795 01c5 E6       		.byte	0xe6
 796 01c6 E4000000 		.4byte	0xe4
 797 01ca 1E       		.byte	0x1e
 798 01cb 06       		.uleb128 0x6
 799 01cc E9040000 		.4byte	.LASF39
 800 01d0 0B       		.byte	0xb
 801 01d1 EC       		.byte	0xec
 802 01d2 EF000000 		.4byte	0xef
 803 01d6 1F       		.byte	0x1f
 804 01d7 07       		.uleb128 0x7
 805 01d8 705F7500 		.ascii	"p_u\000"
 806 01dc 0B       		.byte	0xb
 807 01dd 3101     		.2byte	0x131
 808 01df 35050000 		.4byte	0x535
 809 01e3 20       		.byte	0x20
 810 01e4 08       		.uleb128 0x8
 811 01e5 A0030000 		.4byte	.LASF40
 812 01e9 0B       		.byte	0xb
 813 01ea 3601     		.2byte	0x136
 814 01ec 51020000 		.4byte	0x251
 815 01f0 24       		.byte	0x24
 816 01f1 08       		.uleb128 0x8
 817 01f2 F9010000 		.4byte	.LASF41
 818 01f6 0B       		.byte	0xb
 819 01f7 3C01     		.2byte	0x13c
 820 01f9 75020000 		.4byte	0x275
 821 01fd 28       		.byte	0x28
 822 01fe 08       		.uleb128 0x8
 823 01ff D0060000 		.4byte	.LASF42
 824 0203 0B       		.byte	0xb
 825 0204 4001     		.2byte	0x140
 826 0206 05010000 		.4byte	0x105
 827 020a 30       		.byte	0x30
 828 020b 08       		.uleb128 0x8
 829 020c 71050000 		.4byte	.LASF43
 830 0210 0B       		.byte	0xb
 831 0211 4601     		.2byte	0x146
 832 0213 10010000 		.4byte	0x110
 833 0217 34       		.byte	0x34
 834 0218 08       		.uleb128 0x8
 835 0219 CD040000 		.4byte	.LASF44
 836 021d 0B       		.byte	0xb
 837 021e 4D01     		.2byte	0x14d
 838 0220 F4050000 		.4byte	0x5f4
 839 0224 38       		.byte	0x38
ARM GAS  /tmp/ccmV6gDh.s 			page 16


 840 0225 08       		.uleb128 0x8
 841 0226 F6050000 		.4byte	.LASF45
 842 022a 0B       		.byte	0xb
 843 022b 5101     		.2byte	0x151
 844 022d FA000000 		.4byte	0xfa
 845 0231 3C       		.byte	0x3c
 846 0232 08       		.uleb128 0x8
 847 0233 29010000 		.4byte	.LASF46
 848 0237 0B       		.byte	0xb
 849 0238 5801     		.2byte	0x158
 850 023a 28030000 		.4byte	0x328
 851 023e 40       		.byte	0x40
 852 023f 00       		.byte	0
 853 0240 04       		.uleb128 0x4
 854 0241 B9030000 		.4byte	.LASF47
 855 0245 0A       		.byte	0xa
 856 0246 44       		.byte	0x44
 857 0247 4B020000 		.4byte	0x24b
 858 024b 09       		.uleb128 0x9
 859 024c 04       		.byte	0x4
 860 024d 3C010000 		.4byte	0x13c
 861 0251 04       		.uleb128 0x4
 862 0252 70030000 		.4byte	.LASF48
 863 0256 0A       		.byte	0xa
 864 0257 49       		.byte	0x49
 865 0258 5C020000 		.4byte	0x25c
 866 025c 05       		.uleb128 0x5
 867 025d 9A050000 		.4byte	.LASF50
 868 0261 04       		.byte	0x4
 869 0262 0B       		.byte	0xb
 870 0263 B0       		.byte	0xb0
 871 0264 75020000 		.4byte	0x275
 872 0268 06       		.uleb128 0x6
 873 0269 01050000 		.4byte	.LASF29
 874 026d 0B       		.byte	0xb
 875 026e B1       		.byte	0xb1
 876 026f 4B020000 		.4byte	0x24b
 877 0273 00       		.byte	0
 878 0274 00       		.byte	0
 879 0275 04       		.uleb128 0x4
 880 0276 65060000 		.4byte	.LASF51
 881 027a 0A       		.byte	0xa
 882 027b 50       		.byte	0x50
 883 027c 80020000 		.4byte	0x280
 884 0280 05       		.uleb128 0x5
 885 0281 F7000000 		.4byte	.LASF52
 886 0285 08       		.byte	0x8
 887 0286 0B       		.byte	0xb
 888 0287 B7       		.byte	0xb7
 889 0288 A5020000 		.4byte	0x2a5
 890 028c 06       		.uleb128 0x6
 891 028d 01050000 		.4byte	.LASF29
 892 0291 0B       		.byte	0xb
 893 0292 B8       		.byte	0xb8
 894 0293 4B020000 		.4byte	0x24b
 895 0297 00       		.byte	0
 896 0298 06       		.uleb128 0x6
ARM GAS  /tmp/ccmV6gDh.s 			page 17


 897 0299 6A040000 		.4byte	.LASF30
 898 029d 0B       		.byte	0xb
 899 029e B9       		.byte	0xb9
 900 029f 4B020000 		.4byte	0x24b
 901 02a3 04       		.byte	0x4
 902 02a4 00       		.byte	0
 903 02a5 04       		.uleb128 0x4
 904 02a6 0C000000 		.4byte	.LASF53
 905 02aa 0A       		.byte	0xa
 906 02ab 57       		.byte	0x57
 907 02ac B0020000 		.4byte	0x2b0
 908 02b0 0A       		.uleb128 0xa
 909 02b1 32030000 		.4byte	.LASF54
 910 02b5 1C       		.byte	0x1c
 911 02b6 0B       		.byte	0xb
 912 02b7 9001     		.2byte	0x190
 913 02b9 0C030000 		.4byte	0x30c
 914 02bd 08       		.uleb128 0x8
 915 02be 8C050000 		.4byte	.LASF55
 916 02c2 0B       		.byte	0xb
 917 02c3 9101     		.2byte	0x191
 918 02c5 75020000 		.4byte	0x275
 919 02c9 00       		.byte	0
 920 02ca 08       		.uleb128 0x8
 921 02cb F3040000 		.4byte	.LASF56
 922 02cf 0B       		.byte	0xb
 923 02d0 9201     		.2byte	0x192
 924 02d2 FA000000 		.4byte	0xfa
 925 02d6 08       		.byte	0x8
 926 02d7 08       		.uleb128 0x8
 927 02d8 F4030000 		.4byte	.LASF57
 928 02dc 0B       		.byte	0xb
 929 02dd 9401     		.2byte	0x194
 930 02df 7B040000 		.4byte	0x47b
 931 02e3 0C       		.byte	0xc
 932 02e4 08       		.uleb128 0x8
 933 02e5 89010000 		.4byte	.LASF58
 934 02e9 0B       		.byte	0xb
 935 02ea 9701     		.2byte	0x197
 936 02ec 4B020000 		.4byte	0x24b
 937 02f0 10       		.byte	0x10
 938 02f1 08       		.uleb128 0x8
 939 02f2 22040000 		.4byte	.LASF59
 940 02f6 0B       		.byte	0xb
 941 02f7 9801     		.2byte	0x198
 942 02f9 4B020000 		.4byte	0x24b
 943 02fd 14       		.byte	0x14
 944 02fe 08       		.uleb128 0x8
 945 02ff 18040000 		.4byte	.LASF60
 946 0303 0B       		.byte	0xb
 947 0304 9B01     		.2byte	0x19b
 948 0306 4B020000 		.4byte	0x24b
 949 030a 18       		.byte	0x18
 950 030b 00       		.byte	0
 951 030c 04       		.uleb128 0x4
 952 030d 01060000 		.4byte	.LASF61
 953 0311 0A       		.byte	0xa
ARM GAS  /tmp/ccmV6gDh.s 			page 18


 954 0312 5C       		.byte	0x5c
 955 0313 17030000 		.4byte	0x317
 956 0317 09       		.uleb128 0x9
 957 0318 04       		.byte	0x4
 958 0319 1D030000 		.4byte	0x31d
 959 031d 0B       		.uleb128 0xb
 960 031e 28030000 		.4byte	0x328
 961 0322 0C       		.uleb128 0xc
 962 0323 28030000 		.4byte	0x328
 963 0327 00       		.byte	0
 964 0328 0D       		.uleb128 0xd
 965 0329 04       		.byte	0x4
 966 032a 04       		.uleb128 0x4
 967 032b 90030000 		.4byte	.LASF62
 968 032f 0A       		.byte	0xa
 969 0330 61       		.byte	0x61
 970 0331 35030000 		.4byte	0x335
 971 0335 0A       		.uleb128 0xa
 972 0336 48050000 		.4byte	.LASF63
 973 033a 14       		.byte	0x14
 974 033b 0B       		.byte	0xb
 975 033c 6B01     		.2byte	0x16b
 976 033e 84030000 		.4byte	0x384
 977 0342 08       		.uleb128 0x8
 978 0343 E1010000 		.4byte	.LASF64
 979 0347 0B       		.byte	0xb
 980 0348 6C01     		.2byte	0x16c
 981 034a 0C060000 		.4byte	0x60c
 982 034e 00       		.byte	0
 983 034f 08       		.uleb128 0x8
 984 0350 9A010000 		.4byte	.LASF65
 985 0354 0B       		.byte	0xb
 986 0355 6D01     		.2byte	0x16d
 987 0357 0C060000 		.4byte	0x60c
 988 035b 04       		.byte	0x4
 989 035c 08       		.uleb128 0x8
 990 035d F0010000 		.4byte	.LASF66
 991 0361 0B       		.byte	0xb
 992 0362 6E01     		.2byte	0x16e
 993 0364 31010000 		.4byte	0x131
 994 0368 08       		.byte	0x8
 995 0369 08       		.uleb128 0x8
 996 036a F2060000 		.4byte	.LASF67
 997 036e 0B       		.byte	0xb
 998 036f 6F01     		.2byte	0x16f
 999 0371 0C030000 		.4byte	0x30c
 1000 0375 0C       		.byte	0xc
 1001 0376 08       		.uleb128 0x8
 1002 0377 57060000 		.4byte	.LASF68
 1003 037b 0B       		.byte	0xb
 1004 037c 7101     		.2byte	0x171
 1005 037e 28030000 		.4byte	0x328
 1006 0382 10       		.byte	0x10
 1007 0383 00       		.byte	0
 1008 0384 04       		.uleb128 0x4
 1009 0385 CE000000 		.4byte	.LASF69
 1010 0389 0A       		.byte	0xa
ARM GAS  /tmp/ccmV6gDh.s 			page 19


 1011 038a 66       		.byte	0x66
 1012 038b 8F030000 		.4byte	0x38f
 1013 038f 0A       		.uleb128 0xa
 1014 0390 CC030000 		.4byte	.LASF70
 1015 0394 10       		.byte	0x10
 1016 0395 0B       		.byte	0xb
 1017 0396 7B01     		.2byte	0x17b
 1018 0398 D1030000 		.4byte	0x3d1
 1019 039c 08       		.uleb128 0x8
 1020 039d E1010000 		.4byte	.LASF64
 1021 03a1 0B       		.byte	0xb
 1022 03a2 7C01     		.2byte	0x17c
 1023 03a4 0C060000 		.4byte	0x60c
 1024 03a8 00       		.byte	0
 1025 03a9 08       		.uleb128 0x8
 1026 03aa 9A010000 		.4byte	.LASF65
 1027 03ae 0B       		.byte	0xb
 1028 03af 7E01     		.2byte	0x17e
 1029 03b1 0C060000 		.4byte	0x60c
 1030 03b5 04       		.byte	0x4
 1031 03b6 08       		.uleb128 0x8
 1032 03b7 F0010000 		.4byte	.LASF66
 1033 03bb 0B       		.byte	0xb
 1034 03bc 8001     		.2byte	0x180
 1035 03be 31010000 		.4byte	0x131
 1036 03c2 08       		.byte	0x8
 1037 03c3 08       		.uleb128 0x8
 1038 03c4 B9060000 		.4byte	.LASF71
 1039 03c8 0B       		.byte	0xb
 1040 03c9 8201     		.2byte	0x182
 1041 03cb 12060000 		.4byte	0x612
 1042 03cf 0C       		.byte	0xc
 1043 03d0 00       		.byte	0
 1044 03d1 04       		.uleb128 0x4
 1045 03d2 45000000 		.4byte	.LASF72
 1046 03d6 0A       		.byte	0xa
 1047 03d7 6B       		.byte	0x6b
 1048 03d8 DC030000 		.4byte	0x3dc
 1049 03dc 0A       		.uleb128 0xa
 1050 03dd 8C040000 		.4byte	.LASF73
 1051 03e1 04       		.byte	0x4
 1052 03e2 0B       		.byte	0xb
 1053 03e3 A201     		.2byte	0x1a2
 1054 03e5 F7030000 		.4byte	0x3f7
 1055 03e9 08       		.uleb128 0x8
 1056 03ea 23060000 		.4byte	.LASF74
 1057 03ee 0B       		.byte	0xb
 1058 03ef AA01     		.2byte	0x1aa
 1059 03f1 17060000 		.4byte	0x617
 1060 03f5 00       		.byte	0
 1061 03f6 00       		.byte	0
 1062 03f7 04       		.uleb128 0x4
 1063 03f8 67020000 		.4byte	.LASF75
 1064 03fc 0A       		.byte	0xa
 1065 03fd 70       		.byte	0x70
 1066 03fe 02040000 		.4byte	0x402
 1067 0402 0E       		.uleb128 0xe
ARM GAS  /tmp/ccmV6gDh.s 			page 20


 1068 0403 56010000 		.4byte	.LASF76
 1069 0407 5001     		.2byte	0x150
 1070 0409 0B       		.byte	0xb
 1071 040a C201     		.2byte	0x1c2
 1072 040c 5E040000 		.4byte	0x45e
 1073 0410 08       		.uleb128 0x8
 1074 0411 86060000 		.4byte	.LASF77
 1075 0415 0B       		.byte	0xb
 1076 0416 C601     		.2byte	0x1c6
 1077 0418 A5020000 		.4byte	0x2a5
 1078 041c 00       		.byte	0
 1079 041d 08       		.uleb128 0x8
 1080 041e 39010000 		.4byte	.LASF78
 1081 0422 0B       		.byte	0xb
 1082 0423 CA01     		.2byte	0x1ca
 1083 0425 84030000 		.4byte	0x384
 1084 0429 1C       		.byte	0x1c
 1085 042a 07       		.uleb128 0x7
 1086 042b 64626700 		.ascii	"dbg\000"
 1087 042f 0B       		.byte	0xb
 1088 0430 CE01     		.2byte	0x1ce
 1089 0432 D1030000 		.4byte	0x3d1
 1090 0436 2C       		.byte	0x2c
 1091 0437 08       		.uleb128 0x8
 1092 0438 41020000 		.4byte	.LASF79
 1093 043c 0B       		.byte	0xb
 1094 043d D201     		.2byte	0x1d2
 1095 043f 3C010000 		.4byte	0x13c
 1096 0443 30       		.byte	0x30
 1097 0444 07       		.uleb128 0x7
 1098 0445 746D00   		.ascii	"tm\000"
 1099 0448 0B       		.byte	0xb
 1100 0449 D701     		.2byte	0x1d7
 1101 044b 2A050000 		.4byte	0x52a
 1102 044f 74       		.byte	0x74
 1103 0450 08       		.uleb128 0x8
 1104 0451 BF010000 		.4byte	.LASF80
 1105 0455 0B       		.byte	0xb
 1106 0456 E301     		.2byte	0x1e3
 1107 0458 1C060000 		.4byte	0x61c
 1108 045c 78       		.byte	0x78
 1109 045d 00       		.byte	0
 1110 045e 03       		.uleb128 0x3
 1111 045f 04       		.byte	0x4
 1112 0460 07       		.byte	0x7
 1113 0461 B0030000 		.4byte	.LASF81
 1114 0465 04       		.uleb128 0x4
 1115 0466 91010000 		.4byte	.LASF82
 1116 046a 0C       		.byte	0xc
 1117 046b 65       		.byte	0x65
 1118 046c 28030000 		.4byte	0x328
 1119 0470 04       		.uleb128 0x4
 1120 0471 65030000 		.4byte	.LASF83
 1121 0475 0C       		.byte	0xc
 1122 0476 6D       		.byte	0x6d
 1123 0477 B8000000 		.4byte	0xb8
 1124 047b 05       		.uleb128 0x5
ARM GAS  /tmp/ccmV6gDh.s 			page 21


 1125 047c 34060000 		.4byte	.LASF84
 1126 0480 04       		.byte	0x4
 1127 0481 0C       		.byte	0xc
 1128 0482 89       		.byte	0x89
 1129 0483 94040000 		.4byte	0x494
 1130 0487 0F       		.uleb128 0xf
 1131 0488 72313300 		.ascii	"r13\000"
 1132 048c 0C       		.byte	0xc
 1133 048d 8A       		.byte	0x8a
 1134 048e 0F050000 		.4byte	0x50f
 1135 0492 00       		.byte	0
 1136 0493 00       		.byte	0
 1137 0494 05       		.uleb128 0x5
 1138 0495 39000000 		.4byte	.LASF85
 1139 0499 24       		.byte	0x24
 1140 049a 01       		.byte	0x1
 1141 049b FD       		.byte	0xfd
 1142 049c 0F050000 		.4byte	0x50f
 1143 04a0 07       		.uleb128 0x7
 1144 04a1 723400   		.ascii	"r4\000"
 1145 04a4 01       		.byte	0x1
 1146 04a5 1001     		.2byte	0x110
 1147 04a7 65040000 		.4byte	0x465
 1148 04ab 00       		.byte	0
 1149 04ac 07       		.uleb128 0x7
 1150 04ad 723500   		.ascii	"r5\000"
 1151 04b0 01       		.byte	0x1
 1152 04b1 1101     		.2byte	0x111
 1153 04b3 65040000 		.4byte	0x465
 1154 04b7 04       		.byte	0x4
 1155 04b8 07       		.uleb128 0x7
 1156 04b9 723600   		.ascii	"r6\000"
 1157 04bc 01       		.byte	0x1
 1158 04bd 1201     		.2byte	0x112
 1159 04bf 65040000 		.4byte	0x465
 1160 04c3 08       		.byte	0x8
 1161 04c4 07       		.uleb128 0x7
 1162 04c5 723700   		.ascii	"r7\000"
 1163 04c8 01       		.byte	0x1
 1164 04c9 1301     		.2byte	0x113
 1165 04cb 65040000 		.4byte	0x465
 1166 04cf 0C       		.byte	0xc
 1167 04d0 07       		.uleb128 0x7
 1168 04d1 723800   		.ascii	"r8\000"
 1169 04d4 01       		.byte	0x1
 1170 04d5 1401     		.2byte	0x114
 1171 04d7 65040000 		.4byte	0x465
 1172 04db 10       		.byte	0x10
 1173 04dc 07       		.uleb128 0x7
 1174 04dd 723900   		.ascii	"r9\000"
 1175 04e0 01       		.byte	0x1
 1176 04e1 1501     		.2byte	0x115
 1177 04e3 65040000 		.4byte	0x465
 1178 04e7 14       		.byte	0x14
 1179 04e8 07       		.uleb128 0x7
 1180 04e9 72313000 		.ascii	"r10\000"
 1181 04ed 01       		.byte	0x1
ARM GAS  /tmp/ccmV6gDh.s 			page 22


 1182 04ee 1601     		.2byte	0x116
 1183 04f0 65040000 		.4byte	0x465
 1184 04f4 18       		.byte	0x18
 1185 04f5 07       		.uleb128 0x7
 1186 04f6 72313100 		.ascii	"r11\000"
 1187 04fa 01       		.byte	0x1
 1188 04fb 1701     		.2byte	0x117
 1189 04fd 65040000 		.4byte	0x465
 1190 0501 1C       		.byte	0x1c
 1191 0502 07       		.uleb128 0x7
 1192 0503 6C7200   		.ascii	"lr\000"
 1193 0506 01       		.byte	0x1
 1194 0507 1801     		.2byte	0x118
 1195 0509 65040000 		.4byte	0x465
 1196 050d 20       		.byte	0x20
 1197 050e 00       		.byte	0
 1198 050f 09       		.uleb128 0x9
 1199 0510 04       		.byte	0x4
 1200 0511 94040000 		.4byte	0x494
 1201 0515 10       		.uleb128 0x10
 1202 0516 04       		.byte	0x4
 1203 0517 0D       		.byte	0xd
 1204 0518 38       		.byte	0x38
 1205 0519 2A050000 		.4byte	0x52a
 1206 051d 06       		.uleb128 0x6
 1207 051e 2D060000 		.4byte	.LASF86
 1208 0522 0D       		.byte	0xd
 1209 0523 3C       		.byte	0x3c
 1210 0524 C3000000 		.4byte	0xc3
 1211 0528 00       		.byte	0
 1212 0529 00       		.byte	0
 1213 052a 04       		.uleb128 0x4
 1214 052b 02040000 		.4byte	.LASF87
 1215 052f 0D       		.byte	0xd
 1216 0530 3D       		.byte	0x3d
 1217 0531 15050000 		.4byte	0x515
 1218 0535 11       		.uleb128 0x11
 1219 0536 04       		.byte	0x4
 1220 0537 0B       		.byte	0xb
 1221 0538 FA       		.byte	0xfa
 1222 0539 92050000 		.4byte	0x592
 1223 053d 12       		.uleb128 0x12
 1224 053e 1F000000 		.4byte	.LASF88
 1225 0542 0B       		.byte	0xb
 1226 0543 0101     		.2byte	0x101
 1227 0545 05010000 		.4byte	0x105
 1228 0549 12       		.uleb128 0x12
 1229 054a BC000000 		.4byte	.LASF89
 1230 054e 0B       		.byte	0xb
 1231 054f 0801     		.2byte	0x108
 1232 0551 05010000 		.4byte	0x105
 1233 0555 12       		.uleb128 0x12
 1234 0556 81020000 		.4byte	.LASF90
 1235 055a 0B       		.byte	0xb
 1236 055b 0F01     		.2byte	0x10f
 1237 055d 28030000 		.4byte	0x328
 1238 0561 12       		.uleb128 0x12
ARM GAS  /tmp/ccmV6gDh.s 			page 23


 1239 0562 19000000 		.4byte	.LASF91
 1240 0566 0B       		.byte	0xb
 1241 0567 1601     		.2byte	0x116
 1242 0569 92050000 		.4byte	0x592
 1243 056d 12       		.uleb128 0x12
 1244 056e E9010000 		.4byte	.LASF92
 1245 0572 0B       		.byte	0xb
 1246 0573 1E01     		.2byte	0x11e
 1247 0575 BD050000 		.4byte	0x5bd
 1248 0579 12       		.uleb128 0x12
 1249 057a 85050000 		.4byte	.LASF93
 1250 057e 0B       		.byte	0xb
 1251 057f 2701     		.2byte	0x127
 1252 0581 F4050000 		.4byte	0x5f4
 1253 0585 12       		.uleb128 0x12
 1254 0586 FA040000 		.4byte	.LASF94
 1255 058a 0B       		.byte	0xb
 1256 058b 2F01     		.2byte	0x12f
 1257 058d 10010000 		.4byte	0x110
 1258 0591 00       		.byte	0
 1259 0592 09       		.uleb128 0x9
 1260 0593 04       		.byte	0x4
 1261 0594 40020000 		.4byte	0x240
 1262 0598 05       		.uleb128 0x5
 1263 0599 64050000 		.4byte	.LASF95
 1264 059d 0C       		.byte	0xc
 1265 059e 0E       		.byte	0xe
 1266 059f 34       		.byte	0x34
 1267 05a0 BD050000 		.4byte	0x5bd
 1268 05a4 06       		.uleb128 0x6
 1269 05a5 81010000 		.4byte	.LASF96
 1270 05a9 0E       		.byte	0xe
 1271 05aa 35       		.byte	0x35
 1272 05ab 75020000 		.4byte	0x275
 1273 05af 00       		.byte	0
 1274 05b0 06       		.uleb128 0x6
 1275 05b1 04020000 		.4byte	.LASF97
 1276 05b5 0E       		.byte	0xe
 1277 05b6 37       		.byte	0x37
 1278 05b7 26010000 		.4byte	0x126
 1279 05bb 08       		.byte	0x8
 1280 05bc 00       		.byte	0
 1281 05bd 09       		.uleb128 0x9
 1282 05be 04       		.byte	0x4
 1283 05bf 98050000 		.4byte	0x598
 1284 05c3 05       		.uleb128 0x5
 1285 05c4 75060000 		.4byte	.LASF98
 1286 05c8 10       		.byte	0x10
 1287 05c9 0F       		.byte	0xf
 1288 05ca 39       		.byte	0x39
 1289 05cb F4050000 		.4byte	0x5f4
 1290 05cf 06       		.uleb128 0x6
 1291 05d0 31010000 		.4byte	.LASF99
 1292 05d4 0F       		.byte	0xf
 1293 05d5 3A       		.byte	0x3a
 1294 05d6 75020000 		.4byte	0x275
 1295 05da 00       		.byte	0
ARM GAS  /tmp/ccmV6gDh.s 			page 24


 1296 05db 06       		.uleb128 0x6
 1297 05dc E4060000 		.4byte	.LASF100
 1298 05e0 0F       		.byte	0xf
 1299 05e1 3C       		.byte	0x3c
 1300 05e2 4B020000 		.4byte	0x24b
 1301 05e6 08       		.byte	0x8
 1302 05e7 06       		.uleb128 0x6
 1303 05e8 E5050000 		.4byte	.LASF101
 1304 05ec 0F       		.byte	0xf
 1305 05ed 3E       		.byte	0x3e
 1306 05ee 37060000 		.4byte	0x637
 1307 05f2 0C       		.byte	0xc
 1308 05f3 00       		.byte	0
 1309 05f4 09       		.uleb128 0x9
 1310 05f5 04       		.byte	0x4
 1311 05f6 C3050000 		.4byte	0x5c3
 1312 05fa 09       		.uleb128 0x9
 1313 05fb 04       		.byte	0x4
 1314 05fc 00060000 		.4byte	0x600
 1315 0600 13       		.uleb128 0x13
 1316 0601 05060000 		.4byte	0x605
 1317 0605 03       		.uleb128 0x3
 1318 0606 01       		.byte	0x1
 1319 0607 08       		.byte	0x8
 1320 0608 BC050000 		.4byte	.LASF102
 1321 060c 09       		.uleb128 0x9
 1322 060d 04       		.byte	0x4
 1323 060e 2A030000 		.4byte	0x32a
 1324 0612 14       		.uleb128 0x14
 1325 0613 31010000 		.4byte	0x131
 1326 0617 14       		.uleb128 0x14
 1327 0618 FA050000 		.4byte	0x5fa
 1328 061c 15       		.uleb128 0x15
 1329 061d 70040000 		.4byte	0x470
 1330 0621 2C060000 		.4byte	0x62c
 1331 0625 16       		.uleb128 0x16
 1332 0626 5E040000 		.4byte	0x45e
 1333 062a 1A       		.byte	0x1a
 1334 062b 00       		.byte	0
 1335 062c 04       		.uleb128 0x4
 1336 062d A2010000 		.4byte	.LASF103
 1337 0631 0F       		.byte	0xf
 1338 0632 34       		.byte	0x34
 1339 0633 C3050000 		.4byte	0x5c3
 1340 0637 09       		.uleb128 0x9
 1341 0638 04       		.byte	0x4
 1342 0639 2C060000 		.4byte	0x62c
 1343 063d 04       		.uleb128 0x4
 1344 063e 7F030000 		.4byte	.LASF104
 1345 0642 05       		.byte	0x5
 1346 0643 34       		.byte	0x34
 1347 0644 48060000 		.4byte	0x648
 1348 0648 05       		.uleb128 0x5
 1349 0649 FA060000 		.4byte	.LASF105
 1350 064d 14       		.byte	0x14
 1351 064e 05       		.byte	0x5
 1352 064f 39       		.byte	0x39
ARM GAS  /tmp/ccmV6gDh.s 			page 25


 1353 0650 91060000 		.4byte	0x691
 1354 0654 06       		.uleb128 0x6
 1355 0655 5F020000 		.4byte	.LASF106
 1356 0659 05       		.byte	0x5
 1357 065a 3A       		.byte	0x3a
 1358 065b 91060000 		.4byte	0x691
 1359 065f 00       		.byte	0
 1360 0660 06       		.uleb128 0x6
 1361 0661 B8040000 		.4byte	.LASF107
 1362 0665 05       		.byte	0x5
 1363 0666 3D       		.byte	0x3d
 1364 0667 4B020000 		.4byte	0x24b
 1365 066b 04       		.byte	0x4
 1366 066c 06       		.uleb128 0x6
 1367 066d 2A040000 		.4byte	.LASF108
 1368 0671 05       		.byte	0x5
 1369 0672 3F       		.byte	0x3f
 1370 0673 10010000 		.4byte	0x110
 1371 0677 08       		.byte	0x8
 1372 0678 06       		.uleb128 0x6
 1373 0679 C4040000 		.4byte	.LASF109
 1374 067d 05       		.byte	0x5
 1375 067e 41       		.byte	0x41
 1376 067f 1B010000 		.4byte	0x11b
 1377 0683 0C       		.byte	0xc
 1378 0684 06       		.uleb128 0x6
 1379 0685 37020000 		.4byte	.LASF110
 1380 0689 05       		.byte	0x5
 1381 068a 43       		.byte	0x43
 1382 068b 1B010000 		.4byte	0x11b
 1383 068f 10       		.byte	0x10
 1384 0690 00       		.byte	0
 1385 0691 09       		.uleb128 0x9
 1386 0692 04       		.byte	0x4
 1387 0693 3D060000 		.4byte	0x63d
 1388 0697 05       		.uleb128 0x5
 1389 0698 8C060000 		.4byte	.LASF111
 1390 069c 04       		.byte	0x4
 1391 069d 05       		.byte	0x5
 1392 069e 4A       		.byte	0x4a
 1393 069f B0060000 		.4byte	0x6b0
 1394 06a3 06       		.uleb128 0x6
 1395 06a4 7E060000 		.4byte	.LASF112
 1396 06a8 05       		.byte	0x5
 1397 06a9 4B       		.byte	0x4b
 1398 06aa 91060000 		.4byte	0x691
 1399 06ae 00       		.byte	0
 1400 06af 00       		.byte	0
 1401 06b0 04       		.uleb128 0x4
 1402 06b1 B0010000 		.4byte	.LASF113
 1403 06b5 05       		.byte	0x5
 1404 06b6 4E       		.byte	0x4e
 1405 06b7 97060000 		.4byte	0x697
 1406 06bb 10       		.uleb128 0x10
 1407 06bc 1C       		.byte	0x1c
 1408 06bd 10       		.byte	0x10
 1409 06be 36       		.byte	0x36
ARM GAS  /tmp/ccmV6gDh.s 			page 26


 1410 06bf E8060000 		.4byte	0x6e8
 1411 06c3 06       		.uleb128 0x6
 1412 06c4 94050000 		.4byte	.LASF114
 1413 06c8 10       		.byte	0x10
 1414 06c9 37       		.byte	0x37
 1415 06ca 2A030000 		.4byte	0x32a
 1416 06ce 00       		.byte	0
 1417 06cf 06       		.uleb128 0x6
 1418 06d0 AA030000 		.4byte	.LASF115
 1419 06d4 10       		.byte	0x10
 1420 06d5 38       		.byte	0x38
 1421 06d6 B0060000 		.4byte	0x6b0
 1422 06da 14       		.byte	0x14
 1423 06db 06       		.uleb128 0x6
 1424 06dc 00000000 		.4byte	.LASF116
 1425 06e0 10       		.byte	0x10
 1426 06e1 39       		.byte	0x39
 1427 06e2 31010000 		.4byte	0x131
 1428 06e6 18       		.byte	0x18
 1429 06e7 00       		.byte	0
 1430 06e8 04       		.uleb128 0x4
 1431 06e9 D6060000 		.4byte	.LASF117
 1432 06ed 10       		.byte	0x10
 1433 06ee 3A       		.byte	0x3a
 1434 06ef BB060000 		.4byte	0x6bb
 1435 06f3 17       		.uleb128 0x17
 1436 06f4 15060000 		.4byte	.LASF143
 1437 06f8 02       		.byte	0x2
 1438 06f9 2202     		.2byte	0x222
 1439 06fb 03       		.byte	0x3
 1440 06fc 0D070000 		.4byte	0x70d
 1441 0700 18       		.uleb128 0x18
 1442 0701 AA010000 		.4byte	.LASF144
 1443 0705 02       		.byte	0x2
 1444 0706 2202     		.2byte	0x222
 1445 0708 AD000000 		.4byte	0xad
 1446 070c 00       		.byte	0
 1447 070d 19       		.uleb128 0x19
 1448 070e 54000000 		.4byte	.LASF118
 1449 0712 01       		.byte	0x1
 1450 0713 C801     		.2byte	0x1c8
 1451 0715 00000000 		.4byte	.LFB127
 1452 0719 10000000 		.4byte	.LFE127-.LFB127
 1453 071d 01       		.uleb128 0x1
 1454 071e 9C       		.byte	0x9c
 1455 071f 3D070000 		.4byte	0x73d
 1456 0723 1A       		.uleb128 0x1a
 1457 0724 F3060000 		.4byte	0x6f3
 1458 0728 06000000 		.4byte	.LBB6
 1459 072c 06000000 		.4byte	.LBE6-.LBB6
 1460 0730 01       		.byte	0x1
 1461 0731 D001     		.2byte	0x1d0
 1462 0733 1B       		.uleb128 0x1b
 1463 0734 00070000 		.4byte	0x700
 1464 0738 02       		.uleb128 0x2
 1465 0739 91       		.byte	0x91
 1466 073a 7C       		.sleb128 -4
ARM GAS  /tmp/ccmV6gDh.s 			page 27


 1467 073b 00       		.byte	0
 1468 073c 00       		.byte	0
 1469 073d 19       		.uleb128 0x19
 1470 073e 40010000 		.4byte	.LASF119
 1471 0742 01       		.byte	0x1
 1472 0743 E001     		.2byte	0x1e0
 1473 0745 10000000 		.4byte	.LFB128
 1474 0749 10000000 		.4byte	.LFE128-.LFB128
 1475 074d 01       		.uleb128 0x1
 1476 074e 9C       		.byte	0x9c
 1477 074f 6D070000 		.4byte	0x76d
 1478 0753 1A       		.uleb128 0x1a
 1479 0754 F3060000 		.4byte	0x6f3
 1480 0758 16000000 		.4byte	.LBB8
 1481 075c 06000000 		.4byte	.LBE8-.LBB8
 1482 0760 01       		.byte	0x1
 1483 0761 E301     		.2byte	0x1e3
 1484 0763 1B       		.uleb128 0x1b
 1485 0764 00070000 		.4byte	0x700
 1486 0768 02       		.uleb128 0x2
 1487 0769 91       		.byte	0x91
 1488 076a 7C       		.sleb128 -4
 1489 076b 00       		.byte	0
 1490 076c 00       		.byte	0
 1491 076d 1C       		.uleb128 0x1c
 1492 076e 44060000 		.4byte	.LASF120
 1493 0772 01       		.byte	0x1
 1494 0773 EF01     		.2byte	0x1ef
 1495 0775 20000000 		.4byte	.LFB129
 1496 0779 08000000 		.4byte	.LFE129-.LFB129
 1497 077d 01       		.uleb128 0x1
 1498 077e 9C       		.byte	0x9c
 1499 077f 1C       		.uleb128 0x1c
 1500 0780 C7050000 		.4byte	.LASF121
 1501 0784 01       		.byte	0x1
 1502 0785 FA01     		.2byte	0x1fa
 1503 0787 30000000 		.4byte	.LFB130
 1504 078b 08000000 		.4byte	.LFE130-.LFB130
 1505 078f 01       		.uleb128 0x1
 1506 0790 9C       		.byte	0x9c
 1507 0791 1C       		.uleb128 0x1c
 1508 0792 21050000 		.4byte	.LASF122
 1509 0796 03       		.byte	0x3
 1510 0797 5A01     		.2byte	0x15a
 1511 0799 40000000 		.4byte	.LFB156
 1512 079d 08000000 		.4byte	.LFE156-.LFB156
 1513 07a1 01       		.uleb128 0x1
 1514 07a2 9C       		.byte	0x9c
 1515 07a3 1D       		.uleb128 0x1d
 1516 07a4 C4060000 		.4byte	.LASF123
 1517 07a8 03       		.byte	0x3
 1518 07a9 6601     		.2byte	0x166
 1519 07ab 50000000 		.4byte	.LFB157
 1520 07af 08000000 		.4byte	.LFE157-.LFB157
 1521 07b3 01       		.uleb128 0x1
 1522 07b4 9C       		.byte	0x9c
 1523 07b5 C3070000 		.4byte	0x7c3
ARM GAS  /tmp/ccmV6gDh.s 			page 28


 1524 07b9 1E       		.uleb128 0x1e
 1525 07ba 18050000 		.4byte	.LASF145
 1526 07be D3070000 		.4byte	0x7d3
 1527 07c2 00       		.byte	0
 1528 07c3 15       		.uleb128 0x15
 1529 07c4 05060000 		.4byte	0x605
 1530 07c8 D3070000 		.4byte	0x7d3
 1531 07cc 16       		.uleb128 0x16
 1532 07cd 5E040000 		.4byte	0x45e
 1533 07d1 0B       		.byte	0xb
 1534 07d2 00       		.byte	0
 1535 07d3 13       		.uleb128 0x13
 1536 07d4 C3070000 		.4byte	0x7c3
 1537 07d8 1C       		.uleb128 0x1c
 1538 07d9 A1060000 		.4byte	.LASF124
 1539 07dd 03       		.byte	0x3
 1540 07de 8201     		.2byte	0x182
 1541 07e0 60000000 		.4byte	.LFB158
 1542 07e4 08000000 		.4byte	.LFE158-.LFB158
 1543 07e8 01       		.uleb128 0x1
 1544 07e9 9C       		.byte	0x9c
 1545 07ea 1C       		.uleb128 0x1c
 1546 07eb 79040000 		.4byte	.LASF125
 1547 07ef 03       		.byte	0x3
 1548 07f0 9601     		.2byte	0x196
 1549 07f2 70000000 		.4byte	.LFB159
 1550 07f6 08000000 		.4byte	.LFE159-.LFB159
 1551 07fa 01       		.uleb128 0x1
 1552 07fb 9C       		.byte	0x9c
 1553 07fc 1F       		.uleb128 0x1f
 1554 07fd 56030000 		.4byte	.LASF126
 1555 0801 04       		.byte	0x4
 1556 0802 D2       		.byte	0xd2
 1557 0803 80000000 		.4byte	.LFB163
 1558 0807 0E000000 		.4byte	.LFE163-.LFB163
 1559 080b 01       		.uleb128 0x1
 1560 080c 9C       		.byte	0x9c
 1561 080d 20080000 		.4byte	0x820
 1562 0811 20       		.uleb128 0x20
 1563 0812 76747000 		.ascii	"vtp\000"
 1564 0816 04       		.byte	0x4
 1565 0817 D2       		.byte	0xd2
 1566 0818 0C060000 		.4byte	0x60c
 1567 081c 02       		.uleb128 0x2
 1568 081d 91       		.byte	0x91
 1569 081e 7C       		.sleb128 -4
 1570 081f 00       		.byte	0
 1571 0820 21       		.uleb128 0x21
 1572 0821 2B050000 		.4byte	.LASF146
 1573 0825 04       		.byte	0x4
 1574 0826 7501     		.2byte	0x175
 1575 0828 4A080000 		.4byte	0x84a
 1576 082c 90000000 		.4byte	.LFB171
 1577 0830 18000000 		.4byte	.LFE171-.LFB171
 1578 0834 01       		.uleb128 0x1
 1579 0835 9C       		.byte	0x9c
 1580 0836 4A080000 		.4byte	0x84a
ARM GAS  /tmp/ccmV6gDh.s 			page 29


 1581 083a 22       		.uleb128 0x22
 1582 083b 76747000 		.ascii	"vtp\000"
 1583 083f 04       		.byte	0x4
 1584 0840 7501     		.2byte	0x175
 1585 0842 0C060000 		.4byte	0x60c
 1586 0846 02       		.uleb128 0x2
 1587 0847 91       		.byte	0x91
 1588 0848 7C       		.sleb128 -4
 1589 0849 00       		.byte	0
 1590 084a 03       		.uleb128 0x3
 1591 084b 01       		.byte	0x1
 1592 084c 02       		.byte	0x2
 1593 084d 9C040000 		.4byte	.LASF127
 1594 0851 1D       		.uleb128 0x1d
 1595 0852 59050000 		.4byte	.LASF128
 1596 0856 04       		.byte	0x4
 1597 0857 9A01     		.2byte	0x19a
 1598 0859 B0000000 		.4byte	.LFB173
 1599 085d 1E000000 		.4byte	.LFE173-.LFB173
 1600 0861 01       		.uleb128 0x1
 1601 0862 9C       		.byte	0x9c
 1602 0863 77080000 		.4byte	0x877
 1603 0867 22       		.uleb128 0x22
 1604 0868 76747000 		.ascii	"vtp\000"
 1605 086c 04       		.byte	0x4
 1606 086d 9A01     		.2byte	0x19a
 1607 086f 0C060000 		.4byte	0x60c
 1608 0873 02       		.uleb128 0x2
 1609 0874 91       		.byte	0x91
 1610 0875 74       		.sleb128 -12
 1611 0876 00       		.byte	0
 1612 0877 1D       		.uleb128 0x1d
 1613 0878 E3030000 		.4byte	.LASF129
 1614 087c 04       		.byte	0x4
 1615 087d C801     		.2byte	0x1c8
 1616 087f D0000000 		.4byte	.LFB175
 1617 0883 24000000 		.4byte	.LFE175-.LFB175
 1618 0887 01       		.uleb128 0x1
 1619 0888 9C       		.byte	0x9c
 1620 0889 CA080000 		.4byte	0x8ca
 1621 088d 22       		.uleb128 0x22
 1622 088e 76747000 		.ascii	"vtp\000"
 1623 0892 04       		.byte	0x4
 1624 0893 C801     		.2byte	0x1c8
 1625 0895 0C060000 		.4byte	0x60c
 1626 0899 02       		.uleb128 0x2
 1627 089a 91       		.byte	0x91
 1628 089b 74       		.sleb128 -12
 1629 089c 23       		.uleb128 0x23
 1630 089d F1000000 		.4byte	.LASF130
 1631 08a1 04       		.byte	0x4
 1632 08a2 C801     		.2byte	0x1c8
 1633 08a4 31010000 		.4byte	0x131
 1634 08a8 02       		.uleb128 0x2
 1635 08a9 91       		.byte	0x91
 1636 08aa 70       		.sleb128 -16
 1637 08ab 23       		.uleb128 0x23
ARM GAS  /tmp/ccmV6gDh.s 			page 30


 1638 08ac 5E060000 		.4byte	.LASF131
 1639 08b0 04       		.byte	0x4
 1640 08b1 C901     		.2byte	0x1c9
 1641 08b3 0C030000 		.4byte	0x30c
 1642 08b7 02       		.uleb128 0x2
 1643 08b8 91       		.byte	0x91
 1644 08b9 6C       		.sleb128 -20
 1645 08ba 22       		.uleb128 0x22
 1646 08bb 70617200 		.ascii	"par\000"
 1647 08bf 04       		.byte	0x4
 1648 08c0 C901     		.2byte	0x1c9
 1649 08c2 28030000 		.4byte	0x328
 1650 08c6 02       		.uleb128 0x2
 1651 08c7 91       		.byte	0x91
 1652 08c8 68       		.sleb128 -24
 1653 08c9 00       		.byte	0
 1654 08ca 1D       		.uleb128 0x1d
 1655 08cb FA030000 		.4byte	.LASF132
 1656 08cf 04       		.byte	0x4
 1657 08d0 E501     		.2byte	0x1e5
 1658 08d2 00010000 		.4byte	.LFB176
 1659 08d6 26000000 		.4byte	.LFE176-.LFB176
 1660 08da 01       		.uleb128 0x1
 1661 08db 9C       		.byte	0x9c
 1662 08dc 1D090000 		.4byte	0x91d
 1663 08e0 22       		.uleb128 0x22
 1664 08e1 76747000 		.ascii	"vtp\000"
 1665 08e5 04       		.byte	0x4
 1666 08e6 E501     		.2byte	0x1e5
 1667 08e8 0C060000 		.4byte	0x60c
 1668 08ec 02       		.uleb128 0x2
 1669 08ed 91       		.byte	0x91
 1670 08ee 74       		.sleb128 -12
 1671 08ef 23       		.uleb128 0x23
 1672 08f0 F1000000 		.4byte	.LASF130
 1673 08f4 04       		.byte	0x4
 1674 08f5 E501     		.2byte	0x1e5
 1675 08f7 31010000 		.4byte	0x131
 1676 08fb 02       		.uleb128 0x2
 1677 08fc 91       		.byte	0x91
 1678 08fd 70       		.sleb128 -16
 1679 08fe 23       		.uleb128 0x23
 1680 08ff 5E060000 		.4byte	.LASF131
 1681 0903 04       		.byte	0x4
 1682 0904 E601     		.2byte	0x1e6
 1683 0906 0C030000 		.4byte	0x30c
 1684 090a 02       		.uleb128 0x2
 1685 090b 91       		.byte	0x91
 1686 090c 6C       		.sleb128 -20
 1687 090d 22       		.uleb128 0x22
 1688 090e 70617200 		.ascii	"par\000"
 1689 0912 04       		.byte	0x4
 1690 0913 E601     		.2byte	0x1e6
 1691 0915 28030000 		.4byte	0x328
 1692 0919 02       		.uleb128 0x2
 1693 091a 91       		.byte	0x91
 1694 091b 68       		.sleb128 -24
ARM GAS  /tmp/ccmV6gDh.s 			page 31


 1695 091c 00       		.byte	0
 1696 091d 1F       		.uleb128 0x1f
 1697 091e 0A020000 		.4byte	.LASF133
 1698 0922 05       		.byte	0x5
 1699 0923 AA       		.byte	0xaa
 1700 0924 30010000 		.4byte	.LFB205
 1701 0928 0E000000 		.4byte	.LFE205-.LFB205
 1702 092c 01       		.uleb128 0x1
 1703 092d 9C       		.byte	0x9c
 1704 092e 41090000 		.4byte	0x941
 1705 0932 20       		.uleb128 0x20
 1706 0933 65737000 		.ascii	"esp\000"
 1707 0937 05       		.byte	0x5
 1708 0938 AA       		.byte	0xaa
 1709 0939 41090000 		.4byte	0x941
 1710 093d 02       		.uleb128 0x2
 1711 093e 91       		.byte	0x91
 1712 093f 7C       		.sleb128 -4
 1713 0940 00       		.byte	0
 1714 0941 09       		.uleb128 0x9
 1715 0942 04       		.byte	0x4
 1716 0943 B0060000 		.4byte	0x6b0
 1717 0947 24       		.uleb128 0x24
 1718 0948 38050000 		.4byte	.LASF134
 1719 094c 05       		.byte	0x5
 1720 094d FE       		.byte	0xfe
 1721 094e 40010000 		.4byte	.LFB210
 1722 0952 14000000 		.4byte	.LFE210-.LFB210
 1723 0956 01       		.uleb128 0x1
 1724 0957 9C       		.byte	0x9c
 1725 0958 6B090000 		.4byte	0x96b
 1726 095c 20       		.uleb128 0x20
 1727 095d 65737000 		.ascii	"esp\000"
 1728 0961 05       		.byte	0x5
 1729 0962 FE       		.byte	0xfe
 1730 0963 41090000 		.4byte	0x941
 1731 0967 02       		.uleb128 0x2
 1732 0968 91       		.byte	0x91
 1733 0969 74       		.sleb128 -12
 1734 096a 00       		.byte	0
 1735 096b 24       		.uleb128 0x24
 1736 096c C1050000 		.4byte	.LASF135
 1737 0970 06       		.byte	0x6
 1738 0971 30       		.byte	0x30
 1739 0972 60010000 		.4byte	.LFB231
 1740 0976 38000000 		.4byte	.LFE231-.LFB231
 1741 097a 01       		.uleb128 0x1
 1742 097b 9C       		.byte	0x9c
 1743 097c 9B090000 		.4byte	0x99b
 1744 0980 20       		.uleb128 0x20
 1745 0981 7000     		.ascii	"p\000"
 1746 0983 06       		.byte	0x6
 1747 0984 30       		.byte	0x30
 1748 0985 28030000 		.4byte	0x328
 1749 0989 02       		.uleb128 0x2
 1750 098a 91       		.byte	0x91
 1751 098b 6C       		.sleb128 -20
ARM GAS  /tmp/ccmV6gDh.s 			page 32


 1752 098c 25       		.uleb128 0x25
 1753 098d 65747000 		.ascii	"etp\000"
 1754 0991 06       		.byte	0x6
 1755 0992 31       		.byte	0x31
 1756 0993 9B090000 		.4byte	0x99b
 1757 0997 02       		.uleb128 0x2
 1758 0998 91       		.byte	0x91
 1759 0999 74       		.sleb128 -12
 1760 099a 00       		.byte	0
 1761 099b 09       		.uleb128 0x9
 1762 099c 04       		.byte	0x4
 1763 099d E8060000 		.4byte	0x6e8
 1764 09a1 26       		.uleb128 0x26
 1765 09a2 73020000 		.4byte	.LASF137
 1766 09a6 06       		.byte	0x6
 1767 09a7 43       		.byte	0x43
 1768 09a8 A0010000 		.4byte	.LFB232
 1769 09ac 26000000 		.4byte	.LFE232-.LFB232
 1770 09b0 01       		.uleb128 0x1
 1771 09b1 9C       		.byte	0x9c
 1772 09b2 D3090000 		.4byte	0x9d3
 1773 09b6 20       		.uleb128 0x20
 1774 09b7 65747000 		.ascii	"etp\000"
 1775 09bb 06       		.byte	0x6
 1776 09bc 43       		.byte	0x43
 1777 09bd 9B090000 		.4byte	0x99b
 1778 09c1 02       		.uleb128 0x2
 1779 09c2 91       		.byte	0x91
 1780 09c3 74       		.sleb128 -12
 1781 09c4 27       		.uleb128 0x27
 1782 09c5 13040000 		.4byte	.LASF136
 1783 09c9 06       		.byte	0x6
 1784 09ca 43       		.byte	0x43
 1785 09cb 31010000 		.4byte	0x131
 1786 09cf 02       		.uleb128 0x2
 1787 09d0 91       		.byte	0x91
 1788 09d1 70       		.sleb128 -16
 1789 09d2 00       		.byte	0
 1790 09d3 26       		.uleb128 0x26
 1791 09d4 C5000000 		.4byte	.LASF138
 1792 09d8 06       		.byte	0x6
 1793 09d9 50       		.byte	0x50
 1794 09da D0010000 		.4byte	.LFB233
 1795 09de 24000000 		.4byte	.LFE233-.LFB233
 1796 09e2 01       		.uleb128 0x1
 1797 09e3 9C       		.byte	0x9c
 1798 09e4 F7090000 		.4byte	0x9f7
 1799 09e8 20       		.uleb128 0x20
 1800 09e9 65747000 		.ascii	"etp\000"
 1801 09ed 06       		.byte	0x6
 1802 09ee 50       		.byte	0x50
 1803 09ef 9B090000 		.4byte	0x99b
 1804 09f3 02       		.uleb128 0x2
 1805 09f4 91       		.byte	0x91
 1806 09f5 74       		.sleb128 -12
 1807 09f6 00       		.byte	0
 1808 09f7 28       		.uleb128 0x28
ARM GAS  /tmp/ccmV6gDh.s 			page 33


 1809 09f8 E4000000 		.4byte	.LASF139
 1810 09fc 11       		.byte	0x11
 1811 09fd FA06     		.2byte	0x6fa
 1812 09ff 030A0000 		.4byte	0xa03
 1813 0a03 14       		.uleb128 0x14
 1814 0a04 A2000000 		.4byte	0xa2
 1815 0a08 29       		.uleb128 0x29
 1816 0a09 636800   		.ascii	"ch\000"
 1817 0a0c 0B       		.byte	0xb
 1818 0a0d 0902     		.2byte	0x209
 1819 0a0f F7030000 		.4byte	0x3f7
 1820 0a13 00       		.byte	0
 1821              		.section	.debug_abbrev,"",%progbits
 1822              	.Ldebug_abbrev0:
 1823 0000 01       		.uleb128 0x1
 1824 0001 11       		.uleb128 0x11
 1825 0002 01       		.byte	0x1
 1826 0003 25       		.uleb128 0x25
 1827 0004 0E       		.uleb128 0xe
 1828 0005 13       		.uleb128 0x13
 1829 0006 0B       		.uleb128 0xb
 1830 0007 03       		.uleb128 0x3
 1831 0008 0E       		.uleb128 0xe
 1832 0009 1B       		.uleb128 0x1b
 1833 000a 0E       		.uleb128 0xe
 1834 000b 11       		.uleb128 0x11
 1835 000c 01       		.uleb128 0x1
 1836 000d 12       		.uleb128 0x12
 1837 000e 06       		.uleb128 0x6
 1838 000f 10       		.uleb128 0x10
 1839 0010 17       		.uleb128 0x17
 1840 0011 00       		.byte	0
 1841 0012 00       		.byte	0
 1842 0013 02       		.uleb128 0x2
 1843 0014 24       		.uleb128 0x24
 1844 0015 00       		.byte	0
 1845 0016 0B       		.uleb128 0xb
 1846 0017 0B       		.uleb128 0xb
 1847 0018 3E       		.uleb128 0x3e
 1848 0019 0B       		.uleb128 0xb
 1849 001a 03       		.uleb128 0x3
 1850 001b 08       		.uleb128 0x8
 1851 001c 00       		.byte	0
 1852 001d 00       		.byte	0
 1853 001e 03       		.uleb128 0x3
 1854 001f 24       		.uleb128 0x24
 1855 0020 00       		.byte	0
 1856 0021 0B       		.uleb128 0xb
 1857 0022 0B       		.uleb128 0xb
 1858 0023 3E       		.uleb128 0x3e
 1859 0024 0B       		.uleb128 0xb
 1860 0025 03       		.uleb128 0x3
 1861 0026 0E       		.uleb128 0xe
 1862 0027 00       		.byte	0
 1863 0028 00       		.byte	0
 1864 0029 04       		.uleb128 0x4
 1865 002a 16       		.uleb128 0x16
ARM GAS  /tmp/ccmV6gDh.s 			page 34


 1866 002b 00       		.byte	0
 1867 002c 03       		.uleb128 0x3
 1868 002d 0E       		.uleb128 0xe
 1869 002e 3A       		.uleb128 0x3a
 1870 002f 0B       		.uleb128 0xb
 1871 0030 3B       		.uleb128 0x3b
 1872 0031 0B       		.uleb128 0xb
 1873 0032 49       		.uleb128 0x49
 1874 0033 13       		.uleb128 0x13
 1875 0034 00       		.byte	0
 1876 0035 00       		.byte	0
 1877 0036 05       		.uleb128 0x5
 1878 0037 13       		.uleb128 0x13
 1879 0038 01       		.byte	0x1
 1880 0039 03       		.uleb128 0x3
 1881 003a 0E       		.uleb128 0xe
 1882 003b 0B       		.uleb128 0xb
 1883 003c 0B       		.uleb128 0xb
 1884 003d 3A       		.uleb128 0x3a
 1885 003e 0B       		.uleb128 0xb
 1886 003f 3B       		.uleb128 0x3b
 1887 0040 0B       		.uleb128 0xb
 1888 0041 01       		.uleb128 0x1
 1889 0042 13       		.uleb128 0x13
 1890 0043 00       		.byte	0
 1891 0044 00       		.byte	0
 1892 0045 06       		.uleb128 0x6
 1893 0046 0D       		.uleb128 0xd
 1894 0047 00       		.byte	0
 1895 0048 03       		.uleb128 0x3
 1896 0049 0E       		.uleb128 0xe
 1897 004a 3A       		.uleb128 0x3a
 1898 004b 0B       		.uleb128 0xb
 1899 004c 3B       		.uleb128 0x3b
 1900 004d 0B       		.uleb128 0xb
 1901 004e 49       		.uleb128 0x49
 1902 004f 13       		.uleb128 0x13
 1903 0050 38       		.uleb128 0x38
 1904 0051 0B       		.uleb128 0xb
 1905 0052 00       		.byte	0
 1906 0053 00       		.byte	0
 1907 0054 07       		.uleb128 0x7
 1908 0055 0D       		.uleb128 0xd
 1909 0056 00       		.byte	0
 1910 0057 03       		.uleb128 0x3
 1911 0058 08       		.uleb128 0x8
 1912 0059 3A       		.uleb128 0x3a
 1913 005a 0B       		.uleb128 0xb
 1914 005b 3B       		.uleb128 0x3b
 1915 005c 05       		.uleb128 0x5
 1916 005d 49       		.uleb128 0x49
 1917 005e 13       		.uleb128 0x13
 1918 005f 38       		.uleb128 0x38
 1919 0060 0B       		.uleb128 0xb
 1920 0061 00       		.byte	0
 1921 0062 00       		.byte	0
 1922 0063 08       		.uleb128 0x8
ARM GAS  /tmp/ccmV6gDh.s 			page 35


 1923 0064 0D       		.uleb128 0xd
 1924 0065 00       		.byte	0
 1925 0066 03       		.uleb128 0x3
 1926 0067 0E       		.uleb128 0xe
 1927 0068 3A       		.uleb128 0x3a
 1928 0069 0B       		.uleb128 0xb
 1929 006a 3B       		.uleb128 0x3b
 1930 006b 05       		.uleb128 0x5
 1931 006c 49       		.uleb128 0x49
 1932 006d 13       		.uleb128 0x13
 1933 006e 38       		.uleb128 0x38
 1934 006f 0B       		.uleb128 0xb
 1935 0070 00       		.byte	0
 1936 0071 00       		.byte	0
 1937 0072 09       		.uleb128 0x9
 1938 0073 0F       		.uleb128 0xf
 1939 0074 00       		.byte	0
 1940 0075 0B       		.uleb128 0xb
 1941 0076 0B       		.uleb128 0xb
 1942 0077 49       		.uleb128 0x49
 1943 0078 13       		.uleb128 0x13
 1944 0079 00       		.byte	0
 1945 007a 00       		.byte	0
 1946 007b 0A       		.uleb128 0xa
 1947 007c 13       		.uleb128 0x13
 1948 007d 01       		.byte	0x1
 1949 007e 03       		.uleb128 0x3
 1950 007f 0E       		.uleb128 0xe
 1951 0080 0B       		.uleb128 0xb
 1952 0081 0B       		.uleb128 0xb
 1953 0082 3A       		.uleb128 0x3a
 1954 0083 0B       		.uleb128 0xb
 1955 0084 3B       		.uleb128 0x3b
 1956 0085 05       		.uleb128 0x5
 1957 0086 01       		.uleb128 0x1
 1958 0087 13       		.uleb128 0x13
 1959 0088 00       		.byte	0
 1960 0089 00       		.byte	0
 1961 008a 0B       		.uleb128 0xb
 1962 008b 15       		.uleb128 0x15
 1963 008c 01       		.byte	0x1
 1964 008d 27       		.uleb128 0x27
 1965 008e 19       		.uleb128 0x19
 1966 008f 01       		.uleb128 0x1
 1967 0090 13       		.uleb128 0x13
 1968 0091 00       		.byte	0
 1969 0092 00       		.byte	0
 1970 0093 0C       		.uleb128 0xc
 1971 0094 05       		.uleb128 0x5
 1972 0095 00       		.byte	0
 1973 0096 49       		.uleb128 0x49
 1974 0097 13       		.uleb128 0x13
 1975 0098 00       		.byte	0
 1976 0099 00       		.byte	0
 1977 009a 0D       		.uleb128 0xd
 1978 009b 0F       		.uleb128 0xf
 1979 009c 00       		.byte	0
ARM GAS  /tmp/ccmV6gDh.s 			page 36


 1980 009d 0B       		.uleb128 0xb
 1981 009e 0B       		.uleb128 0xb
 1982 009f 00       		.byte	0
 1983 00a0 00       		.byte	0
 1984 00a1 0E       		.uleb128 0xe
 1985 00a2 13       		.uleb128 0x13
 1986 00a3 01       		.byte	0x1
 1987 00a4 03       		.uleb128 0x3
 1988 00a5 0E       		.uleb128 0xe
 1989 00a6 0B       		.uleb128 0xb
 1990 00a7 05       		.uleb128 0x5
 1991 00a8 3A       		.uleb128 0x3a
 1992 00a9 0B       		.uleb128 0xb
 1993 00aa 3B       		.uleb128 0x3b
 1994 00ab 05       		.uleb128 0x5
 1995 00ac 01       		.uleb128 0x1
 1996 00ad 13       		.uleb128 0x13
 1997 00ae 00       		.byte	0
 1998 00af 00       		.byte	0
 1999 00b0 0F       		.uleb128 0xf
 2000 00b1 0D       		.uleb128 0xd
 2001 00b2 00       		.byte	0
 2002 00b3 03       		.uleb128 0x3
 2003 00b4 08       		.uleb128 0x8
 2004 00b5 3A       		.uleb128 0x3a
 2005 00b6 0B       		.uleb128 0xb
 2006 00b7 3B       		.uleb128 0x3b
 2007 00b8 0B       		.uleb128 0xb
 2008 00b9 49       		.uleb128 0x49
 2009 00ba 13       		.uleb128 0x13
 2010 00bb 38       		.uleb128 0x38
 2011 00bc 0B       		.uleb128 0xb
 2012 00bd 00       		.byte	0
 2013 00be 00       		.byte	0
 2014 00bf 10       		.uleb128 0x10
 2015 00c0 13       		.uleb128 0x13
 2016 00c1 01       		.byte	0x1
 2017 00c2 0B       		.uleb128 0xb
 2018 00c3 0B       		.uleb128 0xb
 2019 00c4 3A       		.uleb128 0x3a
 2020 00c5 0B       		.uleb128 0xb
 2021 00c6 3B       		.uleb128 0x3b
 2022 00c7 0B       		.uleb128 0xb
 2023 00c8 01       		.uleb128 0x1
 2024 00c9 13       		.uleb128 0x13
 2025 00ca 00       		.byte	0
 2026 00cb 00       		.byte	0
 2027 00cc 11       		.uleb128 0x11
 2028 00cd 17       		.uleb128 0x17
 2029 00ce 01       		.byte	0x1
 2030 00cf 0B       		.uleb128 0xb
 2031 00d0 0B       		.uleb128 0xb
 2032 00d1 3A       		.uleb128 0x3a
 2033 00d2 0B       		.uleb128 0xb
 2034 00d3 3B       		.uleb128 0x3b
 2035 00d4 0B       		.uleb128 0xb
 2036 00d5 01       		.uleb128 0x1
ARM GAS  /tmp/ccmV6gDh.s 			page 37


 2037 00d6 13       		.uleb128 0x13
 2038 00d7 00       		.byte	0
 2039 00d8 00       		.byte	0
 2040 00d9 12       		.uleb128 0x12
 2041 00da 0D       		.uleb128 0xd
 2042 00db 00       		.byte	0
 2043 00dc 03       		.uleb128 0x3
 2044 00dd 0E       		.uleb128 0xe
 2045 00de 3A       		.uleb128 0x3a
 2046 00df 0B       		.uleb128 0xb
 2047 00e0 3B       		.uleb128 0x3b
 2048 00e1 05       		.uleb128 0x5
 2049 00e2 49       		.uleb128 0x49
 2050 00e3 13       		.uleb128 0x13
 2051 00e4 00       		.byte	0
 2052 00e5 00       		.byte	0
 2053 00e6 13       		.uleb128 0x13
 2054 00e7 26       		.uleb128 0x26
 2055 00e8 00       		.byte	0
 2056 00e9 49       		.uleb128 0x49
 2057 00ea 13       		.uleb128 0x13
 2058 00eb 00       		.byte	0
 2059 00ec 00       		.byte	0
 2060 00ed 14       		.uleb128 0x14
 2061 00ee 35       		.uleb128 0x35
 2062 00ef 00       		.byte	0
 2063 00f0 49       		.uleb128 0x49
 2064 00f1 13       		.uleb128 0x13
 2065 00f2 00       		.byte	0
 2066 00f3 00       		.byte	0
 2067 00f4 15       		.uleb128 0x15
 2068 00f5 01       		.uleb128 0x1
 2069 00f6 01       		.byte	0x1
 2070 00f7 49       		.uleb128 0x49
 2071 00f8 13       		.uleb128 0x13
 2072 00f9 01       		.uleb128 0x1
 2073 00fa 13       		.uleb128 0x13
 2074 00fb 00       		.byte	0
 2075 00fc 00       		.byte	0
 2076 00fd 16       		.uleb128 0x16
 2077 00fe 21       		.uleb128 0x21
 2078 00ff 00       		.byte	0
 2079 0100 49       		.uleb128 0x49
 2080 0101 13       		.uleb128 0x13
 2081 0102 2F       		.uleb128 0x2f
 2082 0103 0B       		.uleb128 0xb
 2083 0104 00       		.byte	0
 2084 0105 00       		.byte	0
 2085 0106 17       		.uleb128 0x17
 2086 0107 2E       		.uleb128 0x2e
 2087 0108 01       		.byte	0x1
 2088 0109 03       		.uleb128 0x3
 2089 010a 0E       		.uleb128 0xe
 2090 010b 3A       		.uleb128 0x3a
 2091 010c 0B       		.uleb128 0xb
 2092 010d 3B       		.uleb128 0x3b
 2093 010e 05       		.uleb128 0x5
ARM GAS  /tmp/ccmV6gDh.s 			page 38


 2094 010f 27       		.uleb128 0x27
 2095 0110 19       		.uleb128 0x19
 2096 0111 20       		.uleb128 0x20
 2097 0112 0B       		.uleb128 0xb
 2098 0113 01       		.uleb128 0x1
 2099 0114 13       		.uleb128 0x13
 2100 0115 00       		.byte	0
 2101 0116 00       		.byte	0
 2102 0117 18       		.uleb128 0x18
 2103 0118 05       		.uleb128 0x5
 2104 0119 00       		.byte	0
 2105 011a 03       		.uleb128 0x3
 2106 011b 0E       		.uleb128 0xe
 2107 011c 3A       		.uleb128 0x3a
 2108 011d 0B       		.uleb128 0xb
 2109 011e 3B       		.uleb128 0x3b
 2110 011f 05       		.uleb128 0x5
 2111 0120 49       		.uleb128 0x49
 2112 0121 13       		.uleb128 0x13
 2113 0122 00       		.byte	0
 2114 0123 00       		.byte	0
 2115 0124 19       		.uleb128 0x19
 2116 0125 2E       		.uleb128 0x2e
 2117 0126 01       		.byte	0x1
 2118 0127 03       		.uleb128 0x3
 2119 0128 0E       		.uleb128 0xe
 2120 0129 3A       		.uleb128 0x3a
 2121 012a 0B       		.uleb128 0xb
 2122 012b 3B       		.uleb128 0x3b
 2123 012c 05       		.uleb128 0x5
 2124 012d 27       		.uleb128 0x27
 2125 012e 19       		.uleb128 0x19
 2126 012f 11       		.uleb128 0x11
 2127 0130 01       		.uleb128 0x1
 2128 0131 12       		.uleb128 0x12
 2129 0132 06       		.uleb128 0x6
 2130 0133 40       		.uleb128 0x40
 2131 0134 18       		.uleb128 0x18
 2132 0135 9742     		.uleb128 0x2117
 2133 0137 19       		.uleb128 0x19
 2134 0138 01       		.uleb128 0x1
 2135 0139 13       		.uleb128 0x13
 2136 013a 00       		.byte	0
 2137 013b 00       		.byte	0
 2138 013c 1A       		.uleb128 0x1a
 2139 013d 1D       		.uleb128 0x1d
 2140 013e 01       		.byte	0x1
 2141 013f 31       		.uleb128 0x31
 2142 0140 13       		.uleb128 0x13
 2143 0141 11       		.uleb128 0x11
 2144 0142 01       		.uleb128 0x1
 2145 0143 12       		.uleb128 0x12
 2146 0144 06       		.uleb128 0x6
 2147 0145 58       		.uleb128 0x58
 2148 0146 0B       		.uleb128 0xb
 2149 0147 59       		.uleb128 0x59
 2150 0148 05       		.uleb128 0x5
ARM GAS  /tmp/ccmV6gDh.s 			page 39


 2151 0149 00       		.byte	0
 2152 014a 00       		.byte	0
 2153 014b 1B       		.uleb128 0x1b
 2154 014c 05       		.uleb128 0x5
 2155 014d 00       		.byte	0
 2156 014e 31       		.uleb128 0x31
 2157 014f 13       		.uleb128 0x13
 2158 0150 02       		.uleb128 0x2
 2159 0151 18       		.uleb128 0x18
 2160 0152 00       		.byte	0
 2161 0153 00       		.byte	0
 2162 0154 1C       		.uleb128 0x1c
 2163 0155 2E       		.uleb128 0x2e
 2164 0156 00       		.byte	0
 2165 0157 03       		.uleb128 0x3
 2166 0158 0E       		.uleb128 0xe
 2167 0159 3A       		.uleb128 0x3a
 2168 015a 0B       		.uleb128 0xb
 2169 015b 3B       		.uleb128 0x3b
 2170 015c 05       		.uleb128 0x5
 2171 015d 27       		.uleb128 0x27
 2172 015e 19       		.uleb128 0x19
 2173 015f 11       		.uleb128 0x11
 2174 0160 01       		.uleb128 0x1
 2175 0161 12       		.uleb128 0x12
 2176 0162 06       		.uleb128 0x6
 2177 0163 40       		.uleb128 0x40
 2178 0164 18       		.uleb128 0x18
 2179 0165 9642     		.uleb128 0x2116
 2180 0167 19       		.uleb128 0x19
 2181 0168 00       		.byte	0
 2182 0169 00       		.byte	0
 2183 016a 1D       		.uleb128 0x1d
 2184 016b 2E       		.uleb128 0x2e
 2185 016c 01       		.byte	0x1
 2186 016d 03       		.uleb128 0x3
 2187 016e 0E       		.uleb128 0xe
 2188 016f 3A       		.uleb128 0x3a
 2189 0170 0B       		.uleb128 0xb
 2190 0171 3B       		.uleb128 0x3b
 2191 0172 05       		.uleb128 0x5
 2192 0173 27       		.uleb128 0x27
 2193 0174 19       		.uleb128 0x19
 2194 0175 11       		.uleb128 0x11
 2195 0176 01       		.uleb128 0x1
 2196 0177 12       		.uleb128 0x12
 2197 0178 06       		.uleb128 0x6
 2198 0179 40       		.uleb128 0x40
 2199 017a 18       		.uleb128 0x18
 2200 017b 9642     		.uleb128 0x2116
 2201 017d 19       		.uleb128 0x19
 2202 017e 01       		.uleb128 0x1
 2203 017f 13       		.uleb128 0x13
 2204 0180 00       		.byte	0
 2205 0181 00       		.byte	0
 2206 0182 1E       		.uleb128 0x1e
 2207 0183 34       		.uleb128 0x34
ARM GAS  /tmp/ccmV6gDh.s 			page 40


 2208 0184 00       		.byte	0
 2209 0185 03       		.uleb128 0x3
 2210 0186 0E       		.uleb128 0xe
 2211 0187 49       		.uleb128 0x49
 2212 0188 13       		.uleb128 0x13
 2213 0189 34       		.uleb128 0x34
 2214 018a 19       		.uleb128 0x19
 2215 018b 00       		.byte	0
 2216 018c 00       		.byte	0
 2217 018d 1F       		.uleb128 0x1f
 2218 018e 2E       		.uleb128 0x2e
 2219 018f 01       		.byte	0x1
 2220 0190 03       		.uleb128 0x3
 2221 0191 0E       		.uleb128 0xe
 2222 0192 3A       		.uleb128 0x3a
 2223 0193 0B       		.uleb128 0xb
 2224 0194 3B       		.uleb128 0x3b
 2225 0195 0B       		.uleb128 0xb
 2226 0196 27       		.uleb128 0x27
 2227 0197 19       		.uleb128 0x19
 2228 0198 11       		.uleb128 0x11
 2229 0199 01       		.uleb128 0x1
 2230 019a 12       		.uleb128 0x12
 2231 019b 06       		.uleb128 0x6
 2232 019c 40       		.uleb128 0x40
 2233 019d 18       		.uleb128 0x18
 2234 019e 9742     		.uleb128 0x2117
 2235 01a0 19       		.uleb128 0x19
 2236 01a1 01       		.uleb128 0x1
 2237 01a2 13       		.uleb128 0x13
 2238 01a3 00       		.byte	0
 2239 01a4 00       		.byte	0
 2240 01a5 20       		.uleb128 0x20
 2241 01a6 05       		.uleb128 0x5
 2242 01a7 00       		.byte	0
 2243 01a8 03       		.uleb128 0x3
 2244 01a9 08       		.uleb128 0x8
 2245 01aa 3A       		.uleb128 0x3a
 2246 01ab 0B       		.uleb128 0xb
 2247 01ac 3B       		.uleb128 0x3b
 2248 01ad 0B       		.uleb128 0xb
 2249 01ae 49       		.uleb128 0x49
 2250 01af 13       		.uleb128 0x13
 2251 01b0 02       		.uleb128 0x2
 2252 01b1 18       		.uleb128 0x18
 2253 01b2 00       		.byte	0
 2254 01b3 00       		.byte	0
 2255 01b4 21       		.uleb128 0x21
 2256 01b5 2E       		.uleb128 0x2e
 2257 01b6 01       		.byte	0x1
 2258 01b7 03       		.uleb128 0x3
 2259 01b8 0E       		.uleb128 0xe
 2260 01b9 3A       		.uleb128 0x3a
 2261 01ba 0B       		.uleb128 0xb
 2262 01bb 3B       		.uleb128 0x3b
 2263 01bc 05       		.uleb128 0x5
 2264 01bd 27       		.uleb128 0x27
ARM GAS  /tmp/ccmV6gDh.s 			page 41


 2265 01be 19       		.uleb128 0x19
 2266 01bf 49       		.uleb128 0x49
 2267 01c0 13       		.uleb128 0x13
 2268 01c1 11       		.uleb128 0x11
 2269 01c2 01       		.uleb128 0x1
 2270 01c3 12       		.uleb128 0x12
 2271 01c4 06       		.uleb128 0x6
 2272 01c5 40       		.uleb128 0x40
 2273 01c6 18       		.uleb128 0x18
 2274 01c7 9742     		.uleb128 0x2117
 2275 01c9 19       		.uleb128 0x19
 2276 01ca 01       		.uleb128 0x1
 2277 01cb 13       		.uleb128 0x13
 2278 01cc 00       		.byte	0
 2279 01cd 00       		.byte	0
 2280 01ce 22       		.uleb128 0x22
 2281 01cf 05       		.uleb128 0x5
 2282 01d0 00       		.byte	0
 2283 01d1 03       		.uleb128 0x3
 2284 01d2 08       		.uleb128 0x8
 2285 01d3 3A       		.uleb128 0x3a
 2286 01d4 0B       		.uleb128 0xb
 2287 01d5 3B       		.uleb128 0x3b
 2288 01d6 05       		.uleb128 0x5
 2289 01d7 49       		.uleb128 0x49
 2290 01d8 13       		.uleb128 0x13
 2291 01d9 02       		.uleb128 0x2
 2292 01da 18       		.uleb128 0x18
 2293 01db 00       		.byte	0
 2294 01dc 00       		.byte	0
 2295 01dd 23       		.uleb128 0x23
 2296 01de 05       		.uleb128 0x5
 2297 01df 00       		.byte	0
 2298 01e0 03       		.uleb128 0x3
 2299 01e1 0E       		.uleb128 0xe
 2300 01e2 3A       		.uleb128 0x3a
 2301 01e3 0B       		.uleb128 0xb
 2302 01e4 3B       		.uleb128 0x3b
 2303 01e5 05       		.uleb128 0x5
 2304 01e6 49       		.uleb128 0x49
 2305 01e7 13       		.uleb128 0x13
 2306 01e8 02       		.uleb128 0x2
 2307 01e9 18       		.uleb128 0x18
 2308 01ea 00       		.byte	0
 2309 01eb 00       		.byte	0
 2310 01ec 24       		.uleb128 0x24
 2311 01ed 2E       		.uleb128 0x2e
 2312 01ee 01       		.byte	0x1
 2313 01ef 03       		.uleb128 0x3
 2314 01f0 0E       		.uleb128 0xe
 2315 01f1 3A       		.uleb128 0x3a
 2316 01f2 0B       		.uleb128 0xb
 2317 01f3 3B       		.uleb128 0x3b
 2318 01f4 0B       		.uleb128 0xb
 2319 01f5 27       		.uleb128 0x27
 2320 01f6 19       		.uleb128 0x19
 2321 01f7 11       		.uleb128 0x11
ARM GAS  /tmp/ccmV6gDh.s 			page 42


 2322 01f8 01       		.uleb128 0x1
 2323 01f9 12       		.uleb128 0x12
 2324 01fa 06       		.uleb128 0x6
 2325 01fb 40       		.uleb128 0x40
 2326 01fc 18       		.uleb128 0x18
 2327 01fd 9642     		.uleb128 0x2116
 2328 01ff 19       		.uleb128 0x19
 2329 0200 01       		.uleb128 0x1
 2330 0201 13       		.uleb128 0x13
 2331 0202 00       		.byte	0
 2332 0203 00       		.byte	0
 2333 0204 25       		.uleb128 0x25
 2334 0205 34       		.uleb128 0x34
 2335 0206 00       		.byte	0
 2336 0207 03       		.uleb128 0x3
 2337 0208 08       		.uleb128 0x8
 2338 0209 3A       		.uleb128 0x3a
 2339 020a 0B       		.uleb128 0xb
 2340 020b 3B       		.uleb128 0x3b
 2341 020c 0B       		.uleb128 0xb
 2342 020d 49       		.uleb128 0x49
 2343 020e 13       		.uleb128 0x13
 2344 020f 02       		.uleb128 0x2
 2345 0210 18       		.uleb128 0x18
 2346 0211 00       		.byte	0
 2347 0212 00       		.byte	0
 2348 0213 26       		.uleb128 0x26
 2349 0214 2E       		.uleb128 0x2e
 2350 0215 01       		.byte	0x1
 2351 0216 3F       		.uleb128 0x3f
 2352 0217 19       		.uleb128 0x19
 2353 0218 03       		.uleb128 0x3
 2354 0219 0E       		.uleb128 0xe
 2355 021a 3A       		.uleb128 0x3a
 2356 021b 0B       		.uleb128 0xb
 2357 021c 3B       		.uleb128 0x3b
 2358 021d 0B       		.uleb128 0xb
 2359 021e 27       		.uleb128 0x27
 2360 021f 19       		.uleb128 0x19
 2361 0220 11       		.uleb128 0x11
 2362 0221 01       		.uleb128 0x1
 2363 0222 12       		.uleb128 0x12
 2364 0223 06       		.uleb128 0x6
 2365 0224 40       		.uleb128 0x40
 2366 0225 18       		.uleb128 0x18
 2367 0226 9642     		.uleb128 0x2116
 2368 0228 19       		.uleb128 0x19
 2369 0229 01       		.uleb128 0x1
 2370 022a 13       		.uleb128 0x13
 2371 022b 00       		.byte	0
 2372 022c 00       		.byte	0
 2373 022d 27       		.uleb128 0x27
 2374 022e 05       		.uleb128 0x5
 2375 022f 00       		.byte	0
 2376 0230 03       		.uleb128 0x3
 2377 0231 0E       		.uleb128 0xe
 2378 0232 3A       		.uleb128 0x3a
ARM GAS  /tmp/ccmV6gDh.s 			page 43


 2379 0233 0B       		.uleb128 0xb
 2380 0234 3B       		.uleb128 0x3b
 2381 0235 0B       		.uleb128 0xb
 2382 0236 49       		.uleb128 0x49
 2383 0237 13       		.uleb128 0x13
 2384 0238 02       		.uleb128 0x2
 2385 0239 18       		.uleb128 0x18
 2386 023a 00       		.byte	0
 2387 023b 00       		.byte	0
 2388 023c 28       		.uleb128 0x28
 2389 023d 34       		.uleb128 0x34
 2390 023e 00       		.byte	0
 2391 023f 03       		.uleb128 0x3
 2392 0240 0E       		.uleb128 0xe
 2393 0241 3A       		.uleb128 0x3a
 2394 0242 0B       		.uleb128 0xb
 2395 0243 3B       		.uleb128 0x3b
 2396 0244 05       		.uleb128 0x5
 2397 0245 49       		.uleb128 0x49
 2398 0246 13       		.uleb128 0x13
 2399 0247 3F       		.uleb128 0x3f
 2400 0248 19       		.uleb128 0x19
 2401 0249 3C       		.uleb128 0x3c
 2402 024a 19       		.uleb128 0x19
 2403 024b 00       		.byte	0
 2404 024c 00       		.byte	0
 2405 024d 29       		.uleb128 0x29
 2406 024e 34       		.uleb128 0x34
 2407 024f 00       		.byte	0
 2408 0250 03       		.uleb128 0x3
 2409 0251 08       		.uleb128 0x8
 2410 0252 3A       		.uleb128 0x3a
 2411 0253 0B       		.uleb128 0xb
 2412 0254 3B       		.uleb128 0x3b
 2413 0255 05       		.uleb128 0x5
 2414 0256 49       		.uleb128 0x49
 2415 0257 13       		.uleb128 0x13
 2416 0258 3F       		.uleb128 0x3f
 2417 0259 19       		.uleb128 0x19
 2418 025a 3C       		.uleb128 0x3c
 2419 025b 19       		.uleb128 0x19
 2420 025c 00       		.byte	0
 2421 025d 00       		.byte	0
 2422 025e 00       		.byte	0
 2423              		.section	.debug_aranges,"",%progbits
 2424 0000 1C000000 		.4byte	0x1c
 2425 0004 0200     		.2byte	0x2
 2426 0006 00000000 		.4byte	.Ldebug_info0
 2427 000a 04       		.byte	0x4
 2428 000b 00       		.byte	0
 2429 000c 0000     		.2byte	0
 2430 000e 0000     		.2byte	0
 2431 0010 00000000 		.4byte	.Ltext0
 2432 0014 F4010000 		.4byte	.Letext0-.Ltext0
 2433 0018 00000000 		.4byte	0
 2434 001c 00000000 		.4byte	0
 2435              		.section	.debug_line,"",%progbits
ARM GAS  /tmp/ccmV6gDh.s 			page 44


 2436              	.Ldebug_line0:
 2437 0000 08030000 		.section	.debug_str,"MS",%progbits,1
 2437      02007802 
 2437      00000201 
 2437      FB0E0D00 
 2437      01010101 
 2438              	.LASF116:
 2439 0000 65745F69 		.ascii	"et_interval\000"
 2439      6E746572 
 2439      76616C00 
 2440              	.LASF53:
 2441 000c 72656164 		.ascii	"ready_list_t\000"
 2441      795F6C69 
 2441      73745F74 
 2441      00
 2442              	.LASF91:
 2443 0019 77747472 		.ascii	"wttrp\000"
 2443      7000
 2444              	.LASF88:
 2445 001f 7264796D 		.ascii	"rdymsg\000"
 2445      736700
 2446              	.LASF16:
 2447 0026 75696E74 		.ascii	"uint64_t\000"
 2447      36345F74 
 2447      00
 2448              	.LASF5:
 2449 002f 5F5F7569 		.ascii	"__uint8_t\000"
 2449      6E74385F 
 2449      7400
 2450              	.LASF85:
 2451 0039 706F7274 		.ascii	"port_intctx\000"
 2451      5F696E74 
 2451      63747800 
 2452              	.LASF72:
 2453 0045 73797374 		.ascii	"system_debug_t\000"
 2453      656D5F64 
 2453      65627567 
 2453      5F7400
 2454              	.LASF118:
 2455 0054 706F7274 		.ascii	"port_lock\000"
 2455      5F6C6F63 
 2455      6B00
 2456              	.LASF142:
 2457 005e 2F6E6673 		.ascii	"/nfs/nfs7/home/vvedanta/P442/p442-submissions/senso"
 2457      2F6E6673 
 2457      372F686F 
 2457      6D652F76 
 2457      76656461 
 2458 0091 7274696C 		.ascii	"rtile/final_project\000"
 2458      652F6669 
 2458      6E616C5F 
 2458      70726F6A 
 2458      65637400 
 2459              	.LASF12:
 2460 00a5 6C6F6E67 		.ascii	"long long unsigned int\000"
 2460      206C6F6E 
 2460      6720756E 
ARM GAS  /tmp/ccmV6gDh.s 			page 45


 2460      7369676E 
 2460      65642069 
 2461              	.LASF89:
 2462 00bc 65786974 		.ascii	"exitcode\000"
 2462      636F6465 
 2462      00
 2463              	.LASF138:
 2464 00c5 65767453 		.ascii	"evtStart\000"
 2464      74617274 
 2464      00
 2465              	.LASF69:
 2466 00ce 76697274 		.ascii	"virtual_timers_list_t\000"
 2466      75616C5F 
 2466      74696D65 
 2466      72735F6C 
 2466      6973745F 
 2467              	.LASF139:
 2468 00e4 49544D5F 		.ascii	"ITM_RxBuffer\000"
 2468      52784275 
 2468      66666572 
 2468      00
 2469              	.LASF130:
 2470 00f1 64656C61 		.ascii	"delay\000"
 2470      7900
 2471              	.LASF52:
 2472 00f7 63685F74 		.ascii	"ch_threads_queue\000"
 2472      68726561 
 2472      64735F71 
 2472      75657565 
 2472      00
 2473              	.LASF31:
 2474 0108 705F7072 		.ascii	"p_prio\000"
 2474      696F00
 2475              	.LASF10:
 2476 010f 6C6F6E67 		.ascii	"long long int\000"
 2476      206C6F6E 
 2476      6720696E 
 2476      7400
 2477              	.LASF1:
 2478 011d 7369676E 		.ascii	"signed char\000"
 2478      65642063 
 2478      68617200 
 2479              	.LASF46:
 2480 0129 705F6D70 		.ascii	"p_mpool\000"
 2480      6F6F6C00 
 2481              	.LASF99:
 2482 0131 6D5F7175 		.ascii	"m_queue\000"
 2482      65756500 
 2483              	.LASF78:
 2484 0139 76746C69 		.ascii	"vtlist\000"
 2484      737400
 2485              	.LASF119:
 2486 0140 706F7274 		.ascii	"port_unlock\000"
 2486      5F756E6C 
 2486      6F636B00 
 2487              	.LASF21:
 2488 014c 74736C69 		.ascii	"tslices_t\000"
ARM GAS  /tmp/ccmV6gDh.s 			page 46


 2488      6365735F 
 2488      7400
 2489              	.LASF76:
 2490 0156 63685F73 		.ascii	"ch_system\000"
 2490      79737465 
 2490      6D00
 2491              	.LASF7:
 2492 0160 6C6F6E67 		.ascii	"long int\000"
 2492      20696E74 
 2492      00
 2493              	.LASF19:
 2494 0169 74737461 		.ascii	"tstate_t\000"
 2494      74655F74 
 2494      00
 2495              	.LASF38:
 2496 0172 705F7265 		.ascii	"p_refs\000"
 2496      667300
 2497              	.LASF33:
 2498 0179 705F6E65 		.ascii	"p_newer\000"
 2498      77657200 
 2499              	.LASF96:
 2500 0181 735F7175 		.ascii	"s_queue\000"
 2500      65756500 
 2501              	.LASF58:
 2502 0189 725F6E65 		.ascii	"r_newer\000"
 2502      77657200 
 2503              	.LASF82:
 2504 0191 72656761 		.ascii	"regarm_t\000"
 2504      726D5F74 
 2504      00
 2505              	.LASF65:
 2506 019a 76745F70 		.ascii	"vt_prev\000"
 2506      72657600 
 2507              	.LASF103:
 2508 01a2 6D757465 		.ascii	"mutex_t\000"
 2508      785F7400 
 2509              	.LASF144:
 2510 01aa 76616C75 		.ascii	"value\000"
 2510      6500
 2511              	.LASF113:
 2512 01b0 6576656E 		.ascii	"event_source_t\000"
 2512      745F736F 
 2512      75726365 
 2512      5F7400
 2513              	.LASF80:
 2514 01bf 69646C65 		.ascii	"idle_thread_wa\000"
 2514      5F746872 
 2514      6561645F 
 2514      776100
 2515              	.LASF26:
 2516 01ce 636E745F 		.ascii	"cnt_t\000"
 2516      7400
 2517              	.LASF0:
 2518 01d4 756E7369 		.ascii	"unsigned int\000"
 2518      676E6564 
 2518      20696E74 
 2518      00
ARM GAS  /tmp/ccmV6gDh.s 			page 47


 2519              	.LASF64:
 2520 01e1 76745F6E 		.ascii	"vt_next\000"
 2520      65787400 
 2521              	.LASF92:
 2522 01e9 77747365 		.ascii	"wtsemp\000"
 2522      6D7000
 2523              	.LASF66:
 2524 01f0 76745F64 		.ascii	"vt_delta\000"
 2524      656C7461 
 2524      00
 2525              	.LASF41:
 2526 01f9 705F6D73 		.ascii	"p_msgqueue\000"
 2526      67717565 
 2526      756500
 2527              	.LASF97:
 2528 0204 735F636E 		.ascii	"s_cnt\000"
 2528      7400
 2529              	.LASF133:
 2530 020a 63684576 		.ascii	"chEvtObjectInit\000"
 2530      744F626A 
 2530      65637449 
 2530      6E697400 
 2531              	.LASF4:
 2532 021a 73686F72 		.ascii	"short unsigned int\000"
 2532      7420756E 
 2532      7369676E 
 2532      65642069 
 2532      6E7400
 2533              	.LASF49:
 2534 022d 63685F74 		.ascii	"ch_thread\000"
 2534      68726561 
 2534      6400
 2535              	.LASF110:
 2536 0237 656C5F77 		.ascii	"el_wflags\000"
 2536      666C6167 
 2536      7300
 2537              	.LASF79:
 2538 0241 6D61696E 		.ascii	"mainthread\000"
 2538      74687265 
 2538      616400
 2539              	.LASF25:
 2540 024c 6576656E 		.ascii	"eventflags_t\000"
 2540      74666C61 
 2540      67735F74 
 2540      00
 2541              	.LASF23:
 2542 0259 6D73675F 		.ascii	"msg_t\000"
 2542      7400
 2543              	.LASF106:
 2544 025f 656C5F6E 		.ascii	"el_next\000"
 2544      65787400 
 2545              	.LASF75:
 2546 0267 63685F73 		.ascii	"ch_system_t\000"
 2546      79737465 
 2546      6D5F7400 
 2547              	.LASF137:
 2548 0273 6576744F 		.ascii	"evtObjectInit\000"
ARM GAS  /tmp/ccmV6gDh.s 			page 48


 2548      626A6563 
 2548      74496E69 
 2548      7400
 2549              	.LASF90:
 2550 0281 77746F62 		.ascii	"wtobjp\000"
 2550      6A7000
 2551              	.LASF140:
 2552 0288 474E5520 		.ascii	"GNU C 4.8.4 20140526 (release) [ARM/embedded-4_8-br"
 2552      4320342E 
 2552      382E3420 
 2552      32303134 
 2552      30353236 
 2553 02bb 616E6368 		.ascii	"anch revision 211358] -mcpu=cortex-m4 -mno-thumb-in"
 2553      20726576 
 2553      6973696F 
 2553      6E203231 
 2553      31333538 
 2554 02ee 74657277 		.ascii	"terwork -mthumb -ggdb -O0 -fomit-frame-pointer -fal"
 2554      6F726B20 
 2554      2D6D7468 
 2554      756D6220 
 2554      2D676764 
 2555 0321 69676E2D 		.ascii	"ign-functions=16\000"
 2555      66756E63 
 2555      74696F6E 
 2555      733D3136 
 2555      00
 2556              	.LASF54:
 2557 0332 63685F72 		.ascii	"ch_ready_list\000"
 2557      65616479 
 2557      5F6C6973 
 2557      7400
 2558              	.LASF24:
 2559 0340 6576656E 		.ascii	"eventmask_t\000"
 2559      746D6173 
 2559      6B5F7400 
 2560              	.LASF6:
 2561 034c 5F5F696E 		.ascii	"__int32_t\000"
 2561      7433325F 
 2561      7400
 2562              	.LASF126:
 2563 0356 63685654 		.ascii	"chVTObjectInit\000"
 2563      4F626A65 
 2563      6374496E 
 2563      697400
 2564              	.LASF83:
 2565 0365 73746B61 		.ascii	"stkalign_t\000"
 2565      6C69676E 
 2565      5F7400
 2566              	.LASF48:
 2567 0370 74687265 		.ascii	"threads_list_t\000"
 2567      6164735F 
 2567      6C697374 
 2567      5F7400
 2568              	.LASF104:
 2569 037f 6576656E 		.ascii	"event_listener_t\000"
 2569      745F6C69 
ARM GAS  /tmp/ccmV6gDh.s 			page 49


 2569      7374656E 
 2569      65725F74 
 2569      00
 2570              	.LASF62:
 2571 0390 76697274 		.ascii	"virtual_timer_t\000"
 2571      75616C5F 
 2571      74696D65 
 2571      725F7400 
 2572              	.LASF40:
 2573 03a0 705F7761 		.ascii	"p_waiting\000"
 2573      6974696E 
 2573      6700
 2574              	.LASF115:
 2575 03aa 65745F65 		.ascii	"et_es\000"
 2575      7300
 2576              	.LASF81:
 2577 03b0 73697A65 		.ascii	"sizetype\000"
 2577      74797065 
 2577      00
 2578              	.LASF47:
 2579 03b9 74687265 		.ascii	"thread_reference_t\000"
 2579      61645F72 
 2579      65666572 
 2579      656E6365 
 2579      5F7400
 2580              	.LASF70:
 2581 03cc 63685F76 		.ascii	"ch_virtual_timers_list\000"
 2581      69727475 
 2581      616C5F74 
 2581      696D6572 
 2581      735F6C69 
 2582              	.LASF129:
 2583 03e3 63685654 		.ascii	"chVTSetI\000"
 2583      53657449 
 2583      00
 2584              	.LASF34:
 2585 03ec 705F6F6C 		.ascii	"p_older\000"
 2585      64657200 
 2586              	.LASF57:
 2587 03f4 725F6374 		.ascii	"r_ctx\000"
 2587      7800
 2588              	.LASF132:
 2589 03fa 63685654 		.ascii	"chVTSet\000"
 2589      53657400 
 2590              	.LASF87:
 2591 0402 746D5F63 		.ascii	"tm_calibration_t\000"
 2591      616C6962 
 2591      72617469 
 2591      6F6E5F74 
 2591      00
 2592              	.LASF136:
 2593 0413 74696D65 		.ascii	"time\000"
 2593      00
 2594              	.LASF60:
 2595 0418 725F6375 		.ascii	"r_current\000"
 2595      7272656E 
 2595      7400
ARM GAS  /tmp/ccmV6gDh.s 			page 50


 2596              	.LASF59:
 2597 0422 725F6F6C 		.ascii	"r_older\000"
 2597      64657200 
 2598              	.LASF108:
 2599 042a 656C5F65 		.ascii	"el_events\000"
 2599      76656E74 
 2599      7300
 2600              	.LASF11:
 2601 0434 5F5F7569 		.ascii	"__uint64_t\000"
 2601      6E743634 
 2601      5F7400
 2602              	.LASF20:
 2603 043f 74726566 		.ascii	"trefs_t\000"
 2603      735F7400 
 2604              	.LASF141:
 2605 0447 2E2E2F2E 		.ascii	"../../ChibiOS/os/various/evtimer.c\000"
 2605      2E2F4368 
 2605      6962694F 
 2605      532F6F73 
 2605      2F766172 
 2606              	.LASF30:
 2607 046a 705F7072 		.ascii	"p_prev\000"
 2607      657600
 2608              	.LASF22:
 2609 0471 74707269 		.ascii	"tprio_t\000"
 2609      6F5F7400 
 2610              	.LASF125:
 2611 0479 63685379 		.ascii	"chSysUnlockFromISR\000"
 2611      73556E6C 
 2611      6F636B46 
 2611      726F6D49 
 2611      535200
 2612              	.LASF73:
 2613 048c 63685F73 		.ascii	"ch_system_debug\000"
 2613      79737465 
 2613      6D5F6465 
 2613      62756700 
 2614              	.LASF127:
 2615 049c 5F426F6F 		.ascii	"_Bool\000"
 2615      6C00
 2616              	.LASF14:
 2617 04a2 696E7433 		.ascii	"int32_t\000"
 2617      325F7400 
 2618              	.LASF2:
 2619 04aa 756E7369 		.ascii	"unsigned char\000"
 2619      676E6564 
 2619      20636861 
 2619      7200
 2620              	.LASF107:
 2621 04b8 656C5F6C 		.ascii	"el_listener\000"
 2621      69737465 
 2621      6E657200 
 2622              	.LASF109:
 2623 04c4 656C5F66 		.ascii	"el_flags\000"
 2623      6C616773 
 2623      00
 2624              	.LASF44:
ARM GAS  /tmp/ccmV6gDh.s 			page 51


 2625 04cd 705F6D74 		.ascii	"p_mtxlist\000"
 2625      786C6973 
 2625      7400
 2626              	.LASF3:
 2627 04d7 73686F72 		.ascii	"short int\000"
 2627      7420696E 
 2627      7400
 2628              	.LASF36:
 2629 04e1 705F7374 		.ascii	"p_state\000"
 2629      61746500 
 2630              	.LASF39:
 2631 04e9 705F7072 		.ascii	"p_preempt\000"
 2631      65656D70 
 2631      7400
 2632              	.LASF56:
 2633 04f3 725F7072 		.ascii	"r_prio\000"
 2633      696F00
 2634              	.LASF94:
 2635 04fa 65776D61 		.ascii	"ewmask\000"
 2635      736B00
 2636              	.LASF29:
 2637 0501 705F6E65 		.ascii	"p_next\000"
 2637      787400
 2638              	.LASF18:
 2639 0508 746D6F64 		.ascii	"tmode_t\000"
 2639      655F7400 
 2640              	.LASF37:
 2641 0510 705F666C 		.ascii	"p_flags\000"
 2641      61677300 
 2642              	.LASF145:
 2643 0518 5F5F6675 		.ascii	"__func__\000"
 2643      6E635F5F 
 2643      00
 2644              	.LASF122:
 2645 0521 63685379 		.ascii	"chSysLock\000"
 2645      734C6F63 
 2645      6B00
 2646              	.LASF146:
 2647 052b 63685654 		.ascii	"chVTIsArmedI\000"
 2647      49734172 
 2647      6D656449 
 2647      00
 2648              	.LASF134:
 2649 0538 63684576 		.ascii	"chEvtBroadcastI\000"
 2649      7442726F 
 2649      61646361 
 2649      73744900 
 2650              	.LASF63:
 2651 0548 63685F76 		.ascii	"ch_virtual_timer\000"
 2651      69727475 
 2651      616C5F74 
 2651      696D6572 
 2651      00
 2652              	.LASF128:
 2653 0559 63685654 		.ascii	"chVTResetI\000"
 2653      52657365 
 2653      744900
ARM GAS  /tmp/ccmV6gDh.s 			page 52


 2654              	.LASF95:
 2655 0564 63685F73 		.ascii	"ch_semaphore\000"
 2655      656D6170 
 2655      686F7265 
 2655      00
 2656              	.LASF43:
 2657 0571 705F6570 		.ascii	"p_epending\000"
 2657      656E6469 
 2657      6E6700
 2658              	.LASF15:
 2659 057c 75696E74 		.ascii	"uint32_t\000"
 2659      33325F74 
 2659      00
 2660              	.LASF93:
 2661 0585 77746D74 		.ascii	"wtmtxp\000"
 2661      787000
 2662              	.LASF55:
 2663 058c 725F7175 		.ascii	"r_queue\000"
 2663      65756500 
 2664              	.LASF114:
 2665 0594 65745F76 		.ascii	"et_vt\000"
 2665      7400
 2666              	.LASF50:
 2667 059a 63685F74 		.ascii	"ch_threads_list\000"
 2667      68726561 
 2667      64735F6C 
 2667      69737400 
 2668              	.LASF9:
 2669 05aa 6C6F6E67 		.ascii	"long unsigned int\000"
 2669      20756E73 
 2669      69676E65 
 2669      6420696E 
 2669      7400
 2670              	.LASF102:
 2671 05bc 63686172 		.ascii	"char\000"
 2671      00
 2672              	.LASF135:
 2673 05c1 746D7263 		.ascii	"tmrcb\000"
 2673      6200
 2674              	.LASF121:
 2675 05c7 706F7274 		.ascii	"port_unlock_from_isr\000"
 2675      5F756E6C 
 2675      6F636B5F 
 2675      66726F6D 
 2675      5F697372 
 2676              	.LASF28:
 2677 05dc 74687265 		.ascii	"thread_t\000"
 2677      61645F74 
 2677      00
 2678              	.LASF101:
 2679 05e5 6D5F6E65 		.ascii	"m_next\000"
 2679      787400
 2680              	.LASF27:
 2681 05ec 73797374 		.ascii	"systime_t\000"
 2681      696D655F 
 2681      7400
 2682              	.LASF45:
ARM GAS  /tmp/ccmV6gDh.s 			page 53


 2683 05f6 705F7265 		.ascii	"p_realprio\000"
 2683      616C7072 
 2683      696F00
 2684              	.LASF61:
 2685 0601 76746675 		.ascii	"vtfunc_t\000"
 2685      6E635F74 
 2685      00
 2686              	.LASF8:
 2687 060a 5F5F7569 		.ascii	"__uint32_t\000"
 2687      6E743332 
 2687      5F7400
 2688              	.LASF143:
 2689 0615 5F5F7365 		.ascii	"__set_BASEPRI\000"
 2689      745F4241 
 2689      53455052 
 2689      4900
 2690              	.LASF74:
 2691 0623 70616E69 		.ascii	"panic_msg\000"
 2691      635F6D73 
 2691      6700
 2692              	.LASF86:
 2693 062d 6F666673 		.ascii	"offset\000"
 2693      657400
 2694              	.LASF84:
 2695 0634 636F6E74 		.ascii	"context\000"
 2695      65787400 
 2696              	.LASF17:
 2697 063c 7274636E 		.ascii	"rtcnt_t\000"
 2697      745F7400 
 2698              	.LASF120:
 2699 0644 706F7274 		.ascii	"port_lock_from_isr\000"
 2699      5F6C6F63 
 2699      6B5F6672 
 2699      6F6D5F69 
 2699      737200
 2700              	.LASF68:
 2701 0657 76745F70 		.ascii	"vt_par\000"
 2701      617200
 2702              	.LASF131:
 2703 065e 76746675 		.ascii	"vtfunc\000"
 2703      6E6300
 2704              	.LASF51:
 2705 0665 74687265 		.ascii	"threads_queue_t\000"
 2705      6164735F 
 2705      71756575 
 2705      655F7400 
 2706              	.LASF98:
 2707 0675 63685F6D 		.ascii	"ch_mutex\000"
 2707      75746578 
 2707      00
 2708              	.LASF112:
 2709 067e 65735F6E 		.ascii	"es_next\000"
 2709      65787400 
 2710              	.LASF77:
 2711 0686 726C6973 		.ascii	"rlist\000"
 2711      7400
 2712              	.LASF111:
ARM GAS  /tmp/ccmV6gDh.s 			page 54


 2713 068c 6576656E 		.ascii	"event_source\000"
 2713      745F736F 
 2713      75726365 
 2713      00
 2714              	.LASF13:
 2715 0699 75696E74 		.ascii	"uint8_t\000"
 2715      385F7400 
 2716              	.LASF124:
 2717 06a1 63685379 		.ascii	"chSysLockFromISR\000"
 2717      734C6F63 
 2717      6B46726F 
 2717      6D495352 
 2717      00
 2718              	.LASF35:
 2719 06b2 705F6E61 		.ascii	"p_name\000"
 2719      6D6500
 2720              	.LASF71:
 2721 06b9 76745F73 		.ascii	"vt_systime\000"
 2721      79737469 
 2721      6D6500
 2722              	.LASF123:
 2723 06c4 63685379 		.ascii	"chSysUnlock\000"
 2723      73556E6C 
 2723      6F636B00 
 2724              	.LASF42:
 2725 06d0 705F6D73 		.ascii	"p_msg\000"
 2725      6700
 2726              	.LASF117:
 2727 06d6 6576656E 		.ascii	"event_timer_t\000"
 2727      745F7469 
 2727      6D65725F 
 2727      7400
 2728              	.LASF100:
 2729 06e4 6D5F6F77 		.ascii	"m_owner\000"
 2729      6E657200 
 2730              	.LASF32:
 2731 06ec 705F6374 		.ascii	"p_ctx\000"
 2731      7800
 2732              	.LASF67:
 2733 06f2 76745F66 		.ascii	"vt_func\000"
 2733      756E6300 
 2734              	.LASF105:
 2735 06fa 6576656E 		.ascii	"event_listener\000"
 2735      745F6C69 
 2735      7374656E 
 2735      657200
 2736              		.ident	"GCC: (GNU Tools for ARM Embedded Processors) 4.8.4 20140526 (release) [ARM/embedded-4_8-br
ARM GAS  /tmp/ccmV6gDh.s 			page 55


DEFINED SYMBOLS
                            *ABS*:00000000 evtimer.c
     /tmp/ccmV6gDh.s:18     .text:00000000 $t
     /tmp/ccmV6gDh.s:23     .text:00000000 port_lock
     /tmp/ccmV6gDh.s:58     .text:00000010 port_unlock
     /tmp/ccmV6gDh.s:91     .text:00000020 port_lock_from_isr
     /tmp/ccmV6gDh.s:113    .text:00000030 port_unlock_from_isr
     /tmp/ccmV6gDh.s:135    .text:00000040 chSysLock
     /tmp/ccmV6gDh.s:158    .text:00000050 chSysUnlock
     /tmp/ccmV6gDh.s:180    .text:00000060 chSysLockFromISR
     /tmp/ccmV6gDh.s:202    .text:00000070 chSysUnlockFromISR
     /tmp/ccmV6gDh.s:224    .text:00000080 chVTObjectInit
     /tmp/ccmV6gDh.s:251    .text:00000090 chVTIsArmedI
     /tmp/ccmV6gDh.s:282    .text:000000b0 chVTResetI
     /tmp/ccmV6gDh.s:316    .text:000000d0 chVTSetI
     /tmp/ccmV6gDh.s:352    .text:00000100 chVTSet
     /tmp/ccmV6gDh.s:389    .text:00000130 chEvtObjectInit
     /tmp/ccmV6gDh.s:416    .text:00000140 chEvtBroadcastI
     /tmp/ccmV6gDh.s:444    .text:00000160 tmrcb
     /tmp/ccmV6gDh.s:485    .text:00000194 $d
     /tmp/ccmV6gDh.s:489    .text:00000198 $t
     /tmp/ccmV6gDh.s:495    .text:000001a0 evtObjectInit
     /tmp/ccmV6gDh.s:534    .text:000001d0 evtStart
     /tmp/ccmV6gDh.s:562    .text:000001f0 $d
                     .debug_frame:00000010 $d
     /tmp/ccmV6gDh.s:578    .text:000001f4 $t

UNDEFINED SYMBOLS
chVTDoResetI
chVTDoSetI
chEvtBroadcastFlagsI
