ARM GAS  /tmp/ccRqzMr7.s 			page 1


   1              		.syntax unified
   2              		.cpu cortex-m4
   3              		.fpu softvfp
   4              		.eabi_attribute 20, 1
   5              		.eabi_attribute 21, 1
   6              		.eabi_attribute 23, 3
   7              		.eabi_attribute 24, 1
   8              		.eabi_attribute 25, 1
   9              		.eabi_attribute 26, 1
  10              		.eabi_attribute 30, 6
  11              		.eabi_attribute 34, 1
  12              		.eabi_attribute 18, 4
  13              		.thumb
  14              		.file	"hal_buffers.c"
  15              		.text
  16              	.Ltext0:
  17              		.cfi_sections	.debug_frame
  18              		.align	2
  19              		.p2align 4,,15
  20              		.thumb
  21              		.thumb_func
  22              		.type	port_lock, %function
  23              	port_lock:
  24              	.LFB127:
  25              		.file 1 "../../ChibiOS/os/rt/ports/ARMCMx/chcore_v7m.h"
  26              		.loc 1 456 0
  27              		.cfi_startproc
  28              		@ args = 0, pretend = 0, frame = 8
  29              		@ frame_needed = 0, uses_anonymous_args = 0
  30              		@ link register save eliminated.
  31 0000 82B0     		sub	sp, sp, #8
  32              		.cfi_def_cfa_offset 8
  33 0002 2023     		movs	r3, #32
  34 0004 0193     		str	r3, [sp, #4]
  35              	.LBB6:
  36              	.LBB7:
  37              		.file 2 "../../ChibiOS/os/ext/CMSIS/include/core_cmFunc.h"
  38              		.loc 2 548 0
  39 0006 019B     		ldr	r3, [sp, #4]
  40              	@ 548 "../../ChibiOS/os/ext/CMSIS/include/core_cmFunc.h" 1
  41 0008 83F31188 		MSR basepri, r3
  42              	@ 0 "" 2
  43              		.thumb
  44              	.LBE7:
  45              	.LBE6:
  46              		.loc 1 473 0
  47 000c 02B0     		add	sp, sp, #8
  48              		@ sp needed
  49 000e 7047     		bx	lr
  50              		.cfi_endproc
  51              	.LFE127:
  52              		.size	port_lock, .-port_lock
  53              		.align	2
  54              		.p2align 4,,15
  55              		.thumb
  56              		.thumb_func
  57              		.type	port_unlock, %function
ARM GAS  /tmp/ccRqzMr7.s 			page 2


  58              	port_unlock:
  59              	.LFB128:
  60              		.loc 1 480 0
  61              		.cfi_startproc
  62              		@ args = 0, pretend = 0, frame = 8
  63              		@ frame_needed = 0, uses_anonymous_args = 0
  64              		@ link register save eliminated.
  65 0010 82B0     		sub	sp, sp, #8
  66              		.cfi_def_cfa_offset 8
  67 0012 0023     		movs	r3, #0
  68 0014 0193     		str	r3, [sp, #4]
  69              	.LBB8:
  70              	.LBB9:
  71              		.loc 2 548 0
  72 0016 019B     		ldr	r3, [sp, #4]
  73              	@ 548 "../../ChibiOS/os/ext/CMSIS/include/core_cmFunc.h" 1
  74 0018 83F31188 		MSR basepri, r3
  75              	@ 0 "" 2
  76              		.thumb
  77              	.LBE9:
  78              	.LBE8:
  79              		.loc 1 487 0
  80 001c 02B0     		add	sp, sp, #8
  81              		@ sp needed
  82 001e 7047     		bx	lr
  83              		.cfi_endproc
  84              	.LFE128:
  85              		.size	port_unlock, .-port_unlock
  86              		.align	2
  87              		.p2align 4,,15
  88              		.thumb
  89              		.thumb_func
  90              		.type	queue_init, %function
  91              	queue_init:
  92              	.LFB139:
  93              		.file 3 "../../ChibiOS/os/rt/include/chschd.h"
  94              		.loc 3 602 0
  95              		.cfi_startproc
  96              		@ args = 0, pretend = 0, frame = 8
  97              		@ frame_needed = 0, uses_anonymous_args = 0
  98              		@ link register save eliminated.
  99 0020 82B0     		sub	sp, sp, #8
 100              		.cfi_def_cfa_offset 8
 101 0022 0190     		str	r0, [sp, #4]
 102              		.loc 3 604 0
 103 0024 019B     		ldr	r3, [sp, #4]
 104 0026 019A     		ldr	r2, [sp, #4]
 105 0028 1A60     		str	r2, [r3]
 106              		.loc 3 605 0
 107 002a 019B     		ldr	r3, [sp, #4]
 108 002c 019A     		ldr	r2, [sp, #4]
 109 002e 5A60     		str	r2, [r3, #4]
 110              		.loc 3 606 0
 111 0030 02B0     		add	sp, sp, #8
 112              		@ sp needed
 113 0032 7047     		bx	lr
 114              		.cfi_endproc
ARM GAS  /tmp/ccRqzMr7.s 			page 3


 115              	.LFE139:
 116              		.size	queue_init, .-queue_init
 117              		.align	2
 118 0034 AFF30080 		.p2align 4,,15
 118      AFF30080 
 118      AFF30080 
 119              		.thumb
 120              		.thumb_func
 121              		.type	chSysLock, %function
 122              	chSysLock:
 123              	.LFB156:
 124              		.file 4 "../../ChibiOS/os/rt/include/chsys.h"
 125              		.loc 4 346 0
 126              		.cfi_startproc
 127              		@ args = 0, pretend = 0, frame = 0
 128              		@ frame_needed = 0, uses_anonymous_args = 0
 129 0040 08B5     		push	{r3, lr}
 130              		.cfi_def_cfa_offset 8
 131              		.cfi_offset 3, -8
 132              		.cfi_offset 14, -4
 133              		.loc 4 348 0
 134 0042 FFF7DDFF 		bl	port_lock
 135              		.loc 4 351 0
 136 0046 08BD     		pop	{r3, pc}
 137              		.cfi_endproc
 138              	.LFE156:
 139              		.size	chSysLock, .-chSysLock
 140              		.align	2
 141 0048 AFF30080 		.p2align 4,,15
 141      AFF30080 
 142              		.thumb
 143              		.thumb_func
 144              		.type	chSysUnlock, %function
 145              	chSysUnlock:
 146              	.LFB157:
 147              		.loc 4 358 0
 148              		.cfi_startproc
 149              		@ args = 0, pretend = 0, frame = 0
 150              		@ frame_needed = 0, uses_anonymous_args = 0
 151 0050 08B5     		push	{r3, lr}
 152              		.cfi_def_cfa_offset 8
 153              		.cfi_offset 3, -8
 154              		.cfi_offset 14, -4
 155              		.loc 4 371 0
 156 0052 FFF7DDFF 		bl	port_unlock
 157              		.loc 4 372 0
 158 0056 08BD     		pop	{r3, pc}
 159              		.cfi_endproc
 160              	.LFE157:
 161              		.size	chSysUnlock, .-chSysUnlock
 162              		.align	2
 163 0058 AFF30080 		.p2align 4,,15
 163      AFF30080 
 164              		.thumb
 165              		.thumb_func
 166              		.type	chVTGetSystemTimeX, %function
 167              	chVTGetSystemTimeX:
ARM GAS  /tmp/ccRqzMr7.s 			page 4


 168              	.LFB164:
 169              		.file 5 "../../ChibiOS/os/rt/include/chvt.h"
 170              		.loc 5 228 0
 171              		.cfi_startproc
 172              		@ args = 0, pretend = 0, frame = 0
 173              		@ frame_needed = 0, uses_anonymous_args = 0
 174              		@ link register save eliminated.
 175              		.loc 5 231 0
 176 0060 014B     		ldr	r3, .L8
 177 0062 9B6A     		ldr	r3, [r3, #40]
 178              		.loc 5 235 0
 179 0064 1846     		mov	r0, r3
 180 0066 7047     		bx	lr
 181              	.L9:
 182              		.align	2
 183              	.L8:
 184 0068 00000000 		.word	ch
 185              		.cfi_endproc
 186              	.LFE164:
 187              		.size	chVTGetSystemTimeX, .-chVTGetSystemTimeX
 188              		.align	2
 189 006c AFF30080 		.p2align 4,,15
 190              		.thumb
 191              		.thumb_func
 192              		.type	chThdQueueObjectInit, %function
 193              	chThdQueueObjectInit:
 194              	.LFB184:
 195              		.file 6 "../../ChibiOS/os/rt/include/chthreads.h"
 196              		.loc 6 278 0
 197              		.cfi_startproc
 198              		@ args = 0, pretend = 0, frame = 8
 199              		@ frame_needed = 0, uses_anonymous_args = 0
 200 0070 00B5     		push	{lr}
 201              		.cfi_def_cfa_offset 4
 202              		.cfi_offset 14, -4
 203 0072 83B0     		sub	sp, sp, #12
 204              		.cfi_def_cfa_offset 16
 205 0074 0190     		str	r0, [sp, #4]
 206              		.loc 6 280 0
 207 0076 0198     		ldr	r0, [sp, #4]
 208 0078 FFF7D2FF 		bl	queue_init
 209              		.loc 6 281 0
 210 007c 03B0     		add	sp, sp, #12
 211              		@ sp needed
 212 007e 5DF804FB 		ldr	pc, [sp], #4
 213              		.cfi_endproc
 214              	.LFE184:
 215              		.size	chThdQueueObjectInit, .-chThdQueueObjectInit
 216 0082 00BF     		.align	2
 217 0084 AFF30080 		.p2align 4,,15
 217      AFF30080 
 217      AFF30080 
 218              		.thumb
 219              		.thumb_func
 220              		.type	osalSysLock, %function
 221              	osalSysLock:
 222              	.LFB234:
ARM GAS  /tmp/ccRqzMr7.s 			page 5


 223              		.file 7 "../../ChibiOS/os/hal/osal/rt/osal.h"
 224              		.loc 7 491 0
 225              		.cfi_startproc
 226              		@ args = 0, pretend = 0, frame = 0
 227              		@ frame_needed = 0, uses_anonymous_args = 0
 228 0090 08B5     		push	{r3, lr}
 229              		.cfi_def_cfa_offset 8
 230              		.cfi_offset 3, -8
 231              		.cfi_offset 14, -4
 232              		.loc 7 493 0
 233 0092 FFF7D5FF 		bl	chSysLock
 234              		.loc 7 494 0
 235 0096 08BD     		pop	{r3, pc}
 236              		.cfi_endproc
 237              	.LFE234:
 238              		.size	osalSysLock, .-osalSysLock
 239              		.align	2
 240 0098 AFF30080 		.p2align 4,,15
 240      AFF30080 
 241              		.thumb
 242              		.thumb_func
 243              		.type	osalSysUnlock, %function
 244              	osalSysUnlock:
 245              	.LFB235:
 246              		.loc 7 502 0
 247              		.cfi_startproc
 248              		@ args = 0, pretend = 0, frame = 0
 249              		@ frame_needed = 0, uses_anonymous_args = 0
 250 00a0 08B5     		push	{r3, lr}
 251              		.cfi_def_cfa_offset 8
 252              		.cfi_offset 3, -8
 253              		.cfi_offset 14, -4
 254              		.loc 7 504 0
 255 00a2 FFF7D5FF 		bl	chSysUnlock
 256              		.loc 7 505 0
 257 00a6 08BD     		pop	{r3, pc}
 258              		.cfi_endproc
 259              	.LFE235:
 260              		.size	osalSysUnlock, .-osalSysUnlock
 261              		.align	2
 262 00a8 AFF30080 		.p2align 4,,15
 262      AFF30080 
 263              		.thumb
 264              		.thumb_func
 265              		.type	osalOsGetSystemTimeX, %function
 266              	osalOsGetSystemTimeX:
 267              	.LFB243:
 268              		.loc 7 616 0
 269              		.cfi_startproc
 270              		@ args = 0, pretend = 0, frame = 0
 271              		@ frame_needed = 0, uses_anonymous_args = 0
 272 00b0 08B5     		push	{r3, lr}
 273              		.cfi_def_cfa_offset 8
 274              		.cfi_offset 3, -8
 275              		.cfi_offset 14, -4
 276              		.loc 7 618 0
 277 00b2 FFF7D5FF 		bl	chVTGetSystemTimeX
ARM GAS  /tmp/ccRqzMr7.s 			page 6


 278 00b6 0346     		mov	r3, r0
 279              		.loc 7 619 0
 280 00b8 1846     		mov	r0, r3
 281 00ba 08BD     		pop	{r3, pc}
 282              		.cfi_endproc
 283              	.LFE243:
 284              		.size	osalOsGetSystemTimeX, .-osalOsGetSystemTimeX
 285              		.align	2
 286 00bc AFF30080 		.p2align 4,,15
 287              		.thumb
 288              		.thumb_func
 289              		.type	osalThreadQueueObjectInit, %function
 290              	osalThreadQueueObjectInit:
 291              	.LFB251:
 292              		.loc 7 753 0
 293              		.cfi_startproc
 294              		@ args = 0, pretend = 0, frame = 8
 295              		@ frame_needed = 0, uses_anonymous_args = 0
 296 00c0 00B5     		push	{lr}
 297              		.cfi_def_cfa_offset 4
 298              		.cfi_offset 14, -4
 299 00c2 83B0     		sub	sp, sp, #12
 300              		.cfi_def_cfa_offset 16
 301 00c4 0190     		str	r0, [sp, #4]
 302              		.loc 7 755 0
 303 00c6 0198     		ldr	r0, [sp, #4]
 304 00c8 FFF7D2FF 		bl	chThdQueueObjectInit
 305              		.loc 7 756 0
 306 00cc 03B0     		add	sp, sp, #12
 307              		@ sp needed
 308 00ce 5DF804FB 		ldr	pc, [sp], #4
 309              		.cfi_endproc
 310              	.LFE251:
 311              		.size	osalThreadQueueObjectInit, .-osalThreadQueueObjectInit
 312 00d2 00BF     		.align	2
 313 00d4 AFF30080 		.p2align 4,,15
 313      AFF30080 
 313      AFF30080 
 314              		.thumb
 315              		.thumb_func
 316              		.type	osalThreadEnqueueTimeoutS, %function
 317              	osalThreadEnqueueTimeoutS:
 318              	.LFB252:
 319              		.loc 7 782 0
 320              		.cfi_startproc
 321              		@ args = 0, pretend = 0, frame = 8
 322              		@ frame_needed = 0, uses_anonymous_args = 0
 323 00e0 00B5     		push	{lr}
 324              		.cfi_def_cfa_offset 4
 325              		.cfi_offset 14, -4
 326 00e2 83B0     		sub	sp, sp, #12
 327              		.cfi_def_cfa_offset 16
 328 00e4 0190     		str	r0, [sp, #4]
 329 00e6 0091     		str	r1, [sp]
 330              		.loc 7 784 0
 331 00e8 0198     		ldr	r0, [sp, #4]
 332 00ea 0099     		ldr	r1, [sp]
ARM GAS  /tmp/ccRqzMr7.s 			page 7


 333 00ec FFF7FEFF 		bl	chThdEnqueueTimeoutS
 334 00f0 0346     		mov	r3, r0
 335              		.loc 7 785 0
 336 00f2 1846     		mov	r0, r3
 337 00f4 03B0     		add	sp, sp, #12
 338              		@ sp needed
 339 00f6 5DF804FB 		ldr	pc, [sp], #4
 340              		.cfi_endproc
 341              	.LFE252:
 342              		.size	osalThreadEnqueueTimeoutS, .-osalThreadEnqueueTimeoutS
 343 00fa 00BF     		.align	2
 344 00fc AFF30080 		.p2align 4,,15
 345              		.thumb
 346              		.thumb_func
 347              		.type	osalThreadDequeueNextI, %function
 348              	osalThreadDequeueNextI:
 349              	.LFB253:
 350              		.loc 7 795 0
 351              		.cfi_startproc
 352              		@ args = 0, pretend = 0, frame = 8
 353              		@ frame_needed = 0, uses_anonymous_args = 0
 354 0100 00B5     		push	{lr}
 355              		.cfi_def_cfa_offset 4
 356              		.cfi_offset 14, -4
 357 0102 83B0     		sub	sp, sp, #12
 358              		.cfi_def_cfa_offset 16
 359 0104 0190     		str	r0, [sp, #4]
 360 0106 0091     		str	r1, [sp]
 361              		.loc 7 797 0
 362 0108 0198     		ldr	r0, [sp, #4]
 363 010a 0099     		ldr	r1, [sp]
 364 010c FFF7FEFF 		bl	chThdDequeueNextI
 365              		.loc 7 798 0
 366 0110 03B0     		add	sp, sp, #12
 367              		@ sp needed
 368 0112 5DF804FB 		ldr	pc, [sp], #4
 369              		.cfi_endproc
 370              	.LFE253:
 371              		.size	osalThreadDequeueNextI, .-osalThreadDequeueNextI
 372 0116 00BF     		.align	2
 373 0118 AFF30080 		.p2align 4,,15
 373      AFF30080 
 374              		.thumb
 375              		.thumb_func
 376              		.type	osalThreadDequeueAllI, %function
 377              	osalThreadDequeueAllI:
 378              	.LFB254:
 379              		.loc 7 808 0
 380              		.cfi_startproc
 381              		@ args = 0, pretend = 0, frame = 8
 382              		@ frame_needed = 0, uses_anonymous_args = 0
 383 0120 00B5     		push	{lr}
 384              		.cfi_def_cfa_offset 4
 385              		.cfi_offset 14, -4
 386 0122 83B0     		sub	sp, sp, #12
 387              		.cfi_def_cfa_offset 16
 388 0124 0190     		str	r0, [sp, #4]
ARM GAS  /tmp/ccRqzMr7.s 			page 8


 389 0126 0091     		str	r1, [sp]
 390              		.loc 7 810 0
 391 0128 0198     		ldr	r0, [sp, #4]
 392 012a 0099     		ldr	r1, [sp]
 393 012c FFF7FEFF 		bl	chThdDequeueAllI
 394              		.loc 7 811 0
 395 0130 03B0     		add	sp, sp, #12
 396              		@ sp needed
 397 0132 5DF804FB 		ldr	pc, [sp], #4
 398              		.cfi_endproc
 399              	.LFE254:
 400              		.size	osalThreadDequeueAllI, .-osalThreadDequeueAllI
 401 0136 00BF     		.align	2
 402 0138 AFF30080 		.p2align 4,,15
 402      AFF30080 
 403              		.global	ibqObjectInit
 404              		.thumb
 405              		.thumb_func
 406              		.type	ibqObjectInit, %function
 407              	ibqObjectInit:
 408              	.LFB267:
 409              		.file 8 "../../ChibiOS/os/hal/src/hal_buffers.c"
 410              		.loc 8 77 0
 411              		.cfi_startproc
 412              		@ args = 8, pretend = 0, frame = 16
 413              		@ frame_needed = 0, uses_anonymous_args = 0
 414 0140 00B5     		push	{lr}
 415              		.cfi_def_cfa_offset 4
 416              		.cfi_offset 14, -4
 417 0142 85B0     		sub	sp, sp, #20
 418              		.cfi_def_cfa_offset 24
 419 0144 0390     		str	r0, [sp, #12]
 420 0146 0291     		str	r1, [sp, #8]
 421 0148 0192     		str	r2, [sp, #4]
 422 014a 0093     		str	r3, [sp]
 423              		.loc 8 81 0
 424 014c 039B     		ldr	r3, [sp, #12]
 425 014e 1846     		mov	r0, r3
 426 0150 FFF7B6FF 		bl	osalThreadQueueObjectInit
 427              		.loc 8 82 0
 428 0154 039B     		ldr	r3, [sp, #12]
 429 0156 0022     		movs	r2, #0
 430 0158 9A60     		str	r2, [r3, #8]
 431              		.loc 8 83 0
 432 015a 039B     		ldr	r3, [sp, #12]
 433 015c 029A     		ldr	r2, [sp, #8]
 434 015e 1A61     		str	r2, [r3, #16]
 435              		.loc 8 84 0
 436 0160 039B     		ldr	r3, [sp, #12]
 437 0162 029A     		ldr	r2, [sp, #8]
 438 0164 DA60     		str	r2, [r3, #12]
 439              		.loc 8 85 0
 440 0166 019B     		ldr	r3, [sp, #4]
 441 0168 0433     		adds	r3, r3, #4
 442 016a 009A     		ldr	r2, [sp]
 443 016c 02FB03F3 		mul	r3, r2, r3
 444 0170 029A     		ldr	r2, [sp, #8]
ARM GAS  /tmp/ccRqzMr7.s 			page 9


 445 0172 1A44     		add	r2, r2, r3
 446 0174 039B     		ldr	r3, [sp, #12]
 447 0176 5A61     		str	r2, [r3, #20]
 448              		.loc 8 86 0
 449 0178 019B     		ldr	r3, [sp, #4]
 450 017a 1A1D     		adds	r2, r3, #4
 451 017c 039B     		ldr	r3, [sp, #12]
 452 017e 9A61     		str	r2, [r3, #24]
 453              		.loc 8 87 0
 454 0180 039B     		ldr	r3, [sp, #12]
 455 0182 009A     		ldr	r2, [sp]
 456 0184 DA61     		str	r2, [r3, #28]
 457              		.loc 8 88 0
 458 0186 039B     		ldr	r3, [sp, #12]
 459 0188 029A     		ldr	r2, [sp, #8]
 460 018a 1A62     		str	r2, [r3, #32]
 461              		.loc 8 89 0
 462 018c 039B     		ldr	r3, [sp, #12]
 463 018e 0022     		movs	r2, #0
 464 0190 5A62     		str	r2, [r3, #36]
 465              		.loc 8 90 0
 466 0192 039B     		ldr	r3, [sp, #12]
 467 0194 0022     		movs	r2, #0
 468 0196 9A62     		str	r2, [r3, #40]
 469              		.loc 8 91 0
 470 0198 039B     		ldr	r3, [sp, #12]
 471 019a 069A     		ldr	r2, [sp, #24]
 472 019c DA62     		str	r2, [r3, #44]
 473              		.loc 8 92 0
 474 019e 039B     		ldr	r3, [sp, #12]
 475 01a0 079A     		ldr	r2, [sp, #28]
 476 01a2 1A63     		str	r2, [r3, #48]
 477              		.loc 8 93 0
 478 01a4 05B0     		add	sp, sp, #20
 479              		@ sp needed
 480 01a6 5DF804FB 		ldr	pc, [sp], #4
 481              		.cfi_endproc
 482              	.LFE267:
 483              		.size	ibqObjectInit, .-ibqObjectInit
 484 01aa 00BF     		.align	2
 485 01ac AFF30080 		.p2align 4,,15
 486              		.global	ibqResetI
 487              		.thumb
 488              		.thumb_func
 489              		.type	ibqResetI, %function
 490              	ibqResetI:
 491              	.LFB268:
 492              		.loc 8 106 0
 493              		.cfi_startproc
 494              		@ args = 0, pretend = 0, frame = 8
 495              		@ frame_needed = 0, uses_anonymous_args = 0
 496 01b0 00B5     		push	{lr}
 497              		.cfi_def_cfa_offset 4
 498              		.cfi_offset 14, -4
 499 01b2 83B0     		sub	sp, sp, #12
 500              		.cfi_def_cfa_offset 16
 501 01b4 0190     		str	r0, [sp, #4]
ARM GAS  /tmp/ccRqzMr7.s 			page 10


 502              		.loc 8 110 0
 503 01b6 019B     		ldr	r3, [sp, #4]
 504 01b8 0022     		movs	r2, #0
 505 01ba 9A60     		str	r2, [r3, #8]
 506              		.loc 8 111 0
 507 01bc 019B     		ldr	r3, [sp, #4]
 508 01be 1A6A     		ldr	r2, [r3, #32]
 509 01c0 019B     		ldr	r3, [sp, #4]
 510 01c2 1A61     		str	r2, [r3, #16]
 511              		.loc 8 112 0
 512 01c4 019B     		ldr	r3, [sp, #4]
 513 01c6 1A6A     		ldr	r2, [r3, #32]
 514 01c8 019B     		ldr	r3, [sp, #4]
 515 01ca DA60     		str	r2, [r3, #12]
 516              		.loc 8 113 0
 517 01cc 019B     		ldr	r3, [sp, #4]
 518 01ce 0022     		movs	r2, #0
 519 01d0 5A62     		str	r2, [r3, #36]
 520              		.loc 8 114 0
 521 01d2 019B     		ldr	r3, [sp, #4]
 522 01d4 0022     		movs	r2, #0
 523 01d6 9A62     		str	r2, [r3, #40]
 524              		.loc 8 115 0
 525 01d8 019B     		ldr	r3, [sp, #4]
 526 01da 1846     		mov	r0, r3
 527 01dc 6FF00101 		mvn	r1, #1
 528 01e0 FFF79EFF 		bl	osalThreadDequeueAllI
 529              		.loc 8 116 0
 530 01e4 03B0     		add	sp, sp, #12
 531              		@ sp needed
 532 01e6 5DF804FB 		ldr	pc, [sp], #4
 533              		.cfi_endproc
 534              	.LFE268:
 535              		.size	ibqResetI, .-ibqResetI
 536 01ea 00BF     		.align	2
 537 01ec AFF30080 		.p2align 4,,15
 538              		.global	ibqGetEmptyBufferI
 539              		.thumb
 540              		.thumb_func
 541              		.type	ibqGetEmptyBufferI, %function
 542              	ibqGetEmptyBufferI:
 543              	.LFB269:
 544              		.loc 8 128 0
 545              		.cfi_startproc
 546              		@ args = 0, pretend = 0, frame = 8
 547              		@ frame_needed = 0, uses_anonymous_args = 0
 548              		@ link register save eliminated.
 549 01f0 82B0     		sub	sp, sp, #8
 550              		.cfi_def_cfa_offset 8
 551 01f2 0190     		str	r0, [sp, #4]
 552              		.loc 8 132 0
 553 01f4 019B     		ldr	r3, [sp, #4]
 554 01f6 DA68     		ldr	r2, [r3, #12]
 555 01f8 019B     		ldr	r3, [sp, #4]
 556 01fa 1B69     		ldr	r3, [r3, #16]
 557 01fc 9A42     		cmp	r2, r3
 558 01fe 05D1     		bne	.L23
ARM GAS  /tmp/ccRqzMr7.s 			page 11


 559              		.loc 8 132 0 is_stmt 0 discriminator 1
 560 0200 019B     		ldr	r3, [sp, #4]
 561 0202 9B68     		ldr	r3, [r3, #8]
 562 0204 002B     		cmp	r3, #0
 563 0206 01D0     		beq	.L23
 564              		.loc 8 132 0 discriminator 3
 565 0208 0123     		movs	r3, #1
 566 020a 00E0     		b	.L24
 567              	.L23:
 568              		.loc 8 132 0 discriminator 2
 569 020c 0023     		movs	r3, #0
 570              	.L24:
 571              		.loc 8 132 0 discriminator 4
 572 020e 03F00103 		and	r3, r3, #1
 573 0212 DBB2     		uxtb	r3, r3
 574 0214 002B     		cmp	r3, #0
 575 0216 01D0     		beq	.L25
 576              		.loc 8 133 0 is_stmt 1
 577 0218 0023     		movs	r3, #0
 578 021a 02E0     		b	.L26
 579              	.L25:
 580              		.loc 8 136 0
 581 021c 019B     		ldr	r3, [sp, #4]
 582 021e DB68     		ldr	r3, [r3, #12]
 583 0220 0433     		adds	r3, r3, #4
 584              	.L26:
 585              		.loc 8 137 0
 586 0222 1846     		mov	r0, r3
 587 0224 02B0     		add	sp, sp, #8
 588              		@ sp needed
 589 0226 7047     		bx	lr
 590              		.cfi_endproc
 591              	.LFE269:
 592              		.size	ibqGetEmptyBufferI, .-ibqGetEmptyBufferI
 593              		.align	2
 594 0228 AFF30080 		.p2align 4,,15
 594      AFF30080 
 595              		.global	ibqPostFullBufferI
 596              		.thumb
 597              		.thumb_func
 598              		.type	ibqPostFullBufferI, %function
 599              	ibqPostFullBufferI:
 600              	.LFB270:
 601              		.loc 8 147 0
 602              		.cfi_startproc
 603              		@ args = 0, pretend = 0, frame = 8
 604              		@ frame_needed = 0, uses_anonymous_args = 0
 605 0230 00B5     		push	{lr}
 606              		.cfi_def_cfa_offset 4
 607              		.cfi_offset 14, -4
 608 0232 83B0     		sub	sp, sp, #12
 609              		.cfi_def_cfa_offset 16
 610 0234 0190     		str	r0, [sp, #4]
 611 0236 0091     		str	r1, [sp]
 612              		.loc 8 155 0
 613 0238 019B     		ldr	r3, [sp, #4]
 614 023a DB68     		ldr	r3, [r3, #12]
ARM GAS  /tmp/ccRqzMr7.s 			page 12


 615 023c 009A     		ldr	r2, [sp]
 616 023e 1A60     		str	r2, [r3]
 617              		.loc 8 158 0
 618 0240 019B     		ldr	r3, [sp, #4]
 619 0242 9B68     		ldr	r3, [r3, #8]
 620 0244 5A1C     		adds	r2, r3, #1
 621 0246 019B     		ldr	r3, [sp, #4]
 622 0248 9A60     		str	r2, [r3, #8]
 623              		.loc 8 159 0
 624 024a 019B     		ldr	r3, [sp, #4]
 625 024c DA68     		ldr	r2, [r3, #12]
 626 024e 019B     		ldr	r3, [sp, #4]
 627 0250 9B69     		ldr	r3, [r3, #24]
 628 0252 1A44     		add	r2, r2, r3
 629 0254 019B     		ldr	r3, [sp, #4]
 630 0256 DA60     		str	r2, [r3, #12]
 631              		.loc 8 160 0
 632 0258 019B     		ldr	r3, [sp, #4]
 633 025a DA68     		ldr	r2, [r3, #12]
 634 025c 019B     		ldr	r3, [sp, #4]
 635 025e 5B69     		ldr	r3, [r3, #20]
 636 0260 9A42     		cmp	r2, r3
 637 0262 03D3     		bcc	.L28
 638              		.loc 8 161 0
 639 0264 019B     		ldr	r3, [sp, #4]
 640 0266 1A6A     		ldr	r2, [r3, #32]
 641 0268 019B     		ldr	r3, [sp, #4]
 642 026a DA60     		str	r2, [r3, #12]
 643              	.L28:
 644              		.loc 8 165 0
 645 026c 019B     		ldr	r3, [sp, #4]
 646 026e 1846     		mov	r0, r3
 647 0270 0021     		movs	r1, #0
 648 0272 FFF745FF 		bl	osalThreadDequeueNextI
 649              		.loc 8 166 0
 650 0276 03B0     		add	sp, sp, #12
 651              		@ sp needed
 652 0278 5DF804FB 		ldr	pc, [sp], #4
 653              		.cfi_endproc
 654              	.LFE270:
 655              		.size	ibqPostFullBufferI, .-ibqPostFullBufferI
 656              		.align	2
 657 027c AFF30080 		.p2align 4,,15
 658              		.global	ibqGetFullBufferTimeout
 659              		.thumb
 660              		.thumb_func
 661              		.type	ibqGetFullBufferTimeout, %function
 662              	ibqGetFullBufferTimeout:
 663              	.LFB271:
 664              		.loc 8 189 0
 665              		.cfi_startproc
 666              		@ args = 0, pretend = 0, frame = 16
 667              		@ frame_needed = 0, uses_anonymous_args = 0
 668 0280 00B5     		push	{lr}
 669              		.cfi_def_cfa_offset 4
 670              		.cfi_offset 14, -4
 671 0282 85B0     		sub	sp, sp, #20
ARM GAS  /tmp/ccRqzMr7.s 			page 13


 672              		.cfi_def_cfa_offset 24
 673 0284 0190     		str	r0, [sp, #4]
 674 0286 0091     		str	r1, [sp]
 675              		.loc 8 192 0
 676 0288 FFF702FF 		bl	osalSysLock
 677              		.loc 8 193 0
 678 028c 0198     		ldr	r0, [sp, #4]
 679 028e 0099     		ldr	r1, [sp]
 680 0290 FFF7FEFF 		bl	ibqGetFullBufferTimeoutS
 681 0294 0390     		str	r0, [sp, #12]
 682              		.loc 8 194 0
 683 0296 FFF703FF 		bl	osalSysUnlock
 684              		.loc 8 196 0
 685 029a 039B     		ldr	r3, [sp, #12]
 686              		.loc 8 197 0
 687 029c 1846     		mov	r0, r3
 688 029e 05B0     		add	sp, sp, #20
 689              		@ sp needed
 690 02a0 5DF804FB 		ldr	pc, [sp], #4
 691              		.cfi_endproc
 692              	.LFE271:
 693              		.size	ibqGetFullBufferTimeout, .-ibqGetFullBufferTimeout
 694              		.align	2
 695 02a4 AFF30080 		.p2align 4,,15
 695      AFF30080 
 695      AFF30080 
 696              		.global	ibqGetFullBufferTimeoutS
 697              		.thumb
 698              		.thumb_func
 699              		.type	ibqGetFullBufferTimeoutS, %function
 700              	ibqGetFullBufferTimeoutS:
 701              	.LFB272:
 702              		.loc 8 220 0
 703              		.cfi_startproc
 704              		@ args = 0, pretend = 0, frame = 16
 705              		@ frame_needed = 0, uses_anonymous_args = 0
 706 02b0 00B5     		push	{lr}
 707              		.cfi_def_cfa_offset 4
 708              		.cfi_offset 14, -4
 709 02b2 85B0     		sub	sp, sp, #20
 710              		.cfi_def_cfa_offset 24
 711 02b4 0190     		str	r0, [sp, #4]
 712 02b6 0091     		str	r1, [sp]
 713              		.loc 8 224 0
 714 02b8 0AE0     		b	.L32
 715              	.L34:
 716              	.LBB10:
 717              		.loc 8 225 0
 718 02ba 019B     		ldr	r3, [sp, #4]
 719 02bc 1846     		mov	r0, r3
 720 02be 0099     		ldr	r1, [sp]
 721 02c0 FFF70EFF 		bl	osalThreadEnqueueTimeoutS
 722 02c4 0390     		str	r0, [sp, #12]
 723              		.loc 8 226 0
 724 02c6 039B     		ldr	r3, [sp, #12]
 725 02c8 002B     		cmp	r3, #0
 726 02ca 01DA     		bge	.L32
ARM GAS  /tmp/ccRqzMr7.s 			page 14


 727              		.loc 8 227 0
 728 02cc 039B     		ldr	r3, [sp, #12]
 729 02ce 11E0     		b	.L33
 730              	.L32:
 731              	.LBE10:
 732              		.loc 8 224 0 discriminator 1
 733 02d0 019B     		ldr	r3, [sp, #4]
 734 02d2 9B68     		ldr	r3, [r3, #8]
 735 02d4 002B     		cmp	r3, #0
 736 02d6 F0D0     		beq	.L34
 737              		.loc 8 234 0
 738 02d8 019B     		ldr	r3, [sp, #4]
 739 02da 1B69     		ldr	r3, [r3, #16]
 740 02dc 1A1D     		adds	r2, r3, #4
 741 02de 019B     		ldr	r3, [sp, #4]
 742 02e0 5A62     		str	r2, [r3, #36]
 743              		.loc 8 235 0
 744 02e2 019B     		ldr	r3, [sp, #4]
 745 02e4 5A6A     		ldr	r2, [r3, #36]
 746 02e6 019B     		ldr	r3, [sp, #4]
 747 02e8 1B69     		ldr	r3, [r3, #16]
 748 02ea 1B68     		ldr	r3, [r3]
 749 02ec 1A44     		add	r2, r2, r3
 750 02ee 019B     		ldr	r3, [sp, #4]
 751 02f0 9A62     		str	r2, [r3, #40]
 752              		.loc 8 237 0
 753 02f2 0023     		movs	r3, #0
 754              	.L33:
 755              		.loc 8 238 0
 756 02f4 1846     		mov	r0, r3
 757 02f6 05B0     		add	sp, sp, #20
 758              		@ sp needed
 759 02f8 5DF804FB 		ldr	pc, [sp], #4
 760              		.cfi_endproc
 761              	.LFE272:
 762              		.size	ibqGetFullBufferTimeoutS, .-ibqGetFullBufferTimeoutS
 763              		.align	2
 764 02fc AFF30080 		.p2align 4,,15
 765              		.global	ibqReleaseEmptyBuffer
 766              		.thumb
 767              		.thumb_func
 768              		.type	ibqReleaseEmptyBuffer, %function
 769              	ibqReleaseEmptyBuffer:
 770              	.LFB273:
 771              		.loc 8 248 0
 772              		.cfi_startproc
 773              		@ args = 0, pretend = 0, frame = 8
 774              		@ frame_needed = 0, uses_anonymous_args = 0
 775 0300 00B5     		push	{lr}
 776              		.cfi_def_cfa_offset 4
 777              		.cfi_offset 14, -4
 778 0302 83B0     		sub	sp, sp, #12
 779              		.cfi_def_cfa_offset 16
 780 0304 0190     		str	r0, [sp, #4]
 781              		.loc 8 250 0
 782 0306 FFF7C3FE 		bl	osalSysLock
 783              		.loc 8 251 0
ARM GAS  /tmp/ccRqzMr7.s 			page 15


 784 030a 0198     		ldr	r0, [sp, #4]
 785 030c FFF7FEFF 		bl	ibqReleaseEmptyBufferS
 786              		.loc 8 252 0
 787 0310 FFF7C6FE 		bl	osalSysUnlock
 788              		.loc 8 253 0
 789 0314 03B0     		add	sp, sp, #12
 790              		@ sp needed
 791 0316 5DF804FB 		ldr	pc, [sp], #4
 792              		.cfi_endproc
 793              	.LFE273:
 794              		.size	ibqReleaseEmptyBuffer, .-ibqReleaseEmptyBuffer
 795 031a 00BF     		.align	2
 796 031c AFF30080 		.p2align 4,,15
 797              		.global	ibqReleaseEmptyBufferS
 798              		.thumb
 799              		.thumb_func
 800              		.type	ibqReleaseEmptyBufferS, %function
 801              	ibqReleaseEmptyBufferS:
 802              	.LFB274:
 803              		.loc 8 263 0
 804              		.cfi_startproc
 805              		@ args = 0, pretend = 0, frame = 8
 806              		@ frame_needed = 0, uses_anonymous_args = 0
 807 0320 00B5     		push	{lr}
 808              		.cfi_def_cfa_offset 4
 809              		.cfi_offset 14, -4
 810 0322 83B0     		sub	sp, sp, #12
 811              		.cfi_def_cfa_offset 16
 812 0324 0190     		str	r0, [sp, #4]
 813              		.loc 8 269 0
 814 0326 019B     		ldr	r3, [sp, #4]
 815 0328 9B68     		ldr	r3, [r3, #8]
 816 032a 5A1E     		subs	r2, r3, #1
 817 032c 019B     		ldr	r3, [sp, #4]
 818 032e 9A60     		str	r2, [r3, #8]
 819              		.loc 8 270 0
 820 0330 019B     		ldr	r3, [sp, #4]
 821 0332 1A69     		ldr	r2, [r3, #16]
 822 0334 019B     		ldr	r3, [sp, #4]
 823 0336 9B69     		ldr	r3, [r3, #24]
 824 0338 1A44     		add	r2, r2, r3
 825 033a 019B     		ldr	r3, [sp, #4]
 826 033c 1A61     		str	r2, [r3, #16]
 827              		.loc 8 271 0
 828 033e 019B     		ldr	r3, [sp, #4]
 829 0340 1A69     		ldr	r2, [r3, #16]
 830 0342 019B     		ldr	r3, [sp, #4]
 831 0344 5B69     		ldr	r3, [r3, #20]
 832 0346 9A42     		cmp	r2, r3
 833 0348 03D3     		bcc	.L37
 834              		.loc 8 272 0
 835 034a 019B     		ldr	r3, [sp, #4]
 836 034c 1A6A     		ldr	r2, [r3, #32]
 837 034e 019B     		ldr	r3, [sp, #4]
 838 0350 1A61     		str	r2, [r3, #16]
 839              	.L37:
 840              		.loc 8 276 0
ARM GAS  /tmp/ccRqzMr7.s 			page 16


 841 0352 019B     		ldr	r3, [sp, #4]
 842 0354 0022     		movs	r2, #0
 843 0356 5A62     		str	r2, [r3, #36]
 844              		.loc 8 279 0
 845 0358 019B     		ldr	r3, [sp, #4]
 846 035a DB6A     		ldr	r3, [r3, #44]
 847 035c 002B     		cmp	r3, #0
 848 035e 03D0     		beq	.L36
 849              		.loc 8 280 0
 850 0360 019B     		ldr	r3, [sp, #4]
 851 0362 DB6A     		ldr	r3, [r3, #44]
 852 0364 0198     		ldr	r0, [sp, #4]
 853 0366 9847     		blx	r3
 854              	.L36:
 855              		.loc 8 282 0
 856 0368 03B0     		add	sp, sp, #12
 857              		@ sp needed
 858 036a 5DF804FB 		ldr	pc, [sp], #4
 859              		.cfi_endproc
 860              	.LFE274:
 861              		.size	ibqReleaseEmptyBufferS, .-ibqReleaseEmptyBufferS
 862 036e 00BF     		.align	2
 863              		.p2align 4,,15
 864              		.global	ibqGetTimeout
 865              		.thumb
 866              		.thumb_func
 867              		.type	ibqGetTimeout, %function
 868              	ibqGetTimeout:
 869              	.LFB275:
 870              		.loc 8 302 0
 871              		.cfi_startproc
 872              		@ args = 0, pretend = 0, frame = 16
 873              		@ frame_needed = 0, uses_anonymous_args = 0
 874 0370 00B5     		push	{lr}
 875              		.cfi_def_cfa_offset 4
 876              		.cfi_offset 14, -4
 877 0372 85B0     		sub	sp, sp, #20
 878              		.cfi_def_cfa_offset 24
 879 0374 0190     		str	r0, [sp, #4]
 880 0376 0091     		str	r1, [sp]
 881              		.loc 8 305 0
 882 0378 FFF78AFE 		bl	osalSysLock
 883              		.loc 8 308 0
 884 037c 019B     		ldr	r3, [sp, #4]
 885 037e 5B6A     		ldr	r3, [r3, #36]
 886 0380 002B     		cmp	r3, #0
 887 0382 0BD1     		bne	.L40
 888              		.loc 8 309 0
 889 0384 0198     		ldr	r0, [sp, #4]
 890 0386 0099     		ldr	r1, [sp]
 891 0388 FFF7FEFF 		bl	ibqGetFullBufferTimeoutS
 892 038c 0390     		str	r0, [sp, #12]
 893              		.loc 8 310 0
 894 038e 039B     		ldr	r3, [sp, #12]
 895 0390 002B     		cmp	r3, #0
 896 0392 03D0     		beq	.L40
 897              		.loc 8 311 0
ARM GAS  /tmp/ccRqzMr7.s 			page 17


 898 0394 FFF784FE 		bl	osalSysUnlock
 899              		.loc 8 312 0
 900 0398 039B     		ldr	r3, [sp, #12]
 901 039a 14E0     		b	.L41
 902              	.L40:
 903              		.loc 8 317 0
 904 039c 019B     		ldr	r3, [sp, #4]
 905 039e 5B6A     		ldr	r3, [r3, #36]
 906 03a0 1B78     		ldrb	r3, [r3]	@ zero_extendqisi2
 907 03a2 0393     		str	r3, [sp, #12]
 908              		.loc 8 318 0
 909 03a4 019B     		ldr	r3, [sp, #4]
 910 03a6 5B6A     		ldr	r3, [r3, #36]
 911 03a8 5A1C     		adds	r2, r3, #1
 912 03aa 019B     		ldr	r3, [sp, #4]
 913 03ac 5A62     		str	r2, [r3, #36]
 914              		.loc 8 322 0
 915 03ae 019B     		ldr	r3, [sp, #4]
 916 03b0 5A6A     		ldr	r2, [r3, #36]
 917 03b2 019B     		ldr	r3, [sp, #4]
 918 03b4 9B6A     		ldr	r3, [r3, #40]
 919 03b6 9A42     		cmp	r2, r3
 920 03b8 02D3     		bcc	.L42
 921              		.loc 8 323 0
 922 03ba 0198     		ldr	r0, [sp, #4]
 923 03bc FFF7FEFF 		bl	ibqReleaseEmptyBufferS
 924              	.L42:
 925              		.loc 8 326 0
 926 03c0 FFF76EFE 		bl	osalSysUnlock
 927              		.loc 8 327 0
 928 03c4 039B     		ldr	r3, [sp, #12]
 929              	.L41:
 930              		.loc 8 328 0
 931 03c6 1846     		mov	r0, r3
 932 03c8 05B0     		add	sp, sp, #20
 933              		@ sp needed
 934 03ca 5DF804FB 		ldr	pc, [sp], #4
 935              		.cfi_endproc
 936              	.LFE275:
 937              		.size	ibqGetTimeout, .-ibqGetTimeout
 938 03ce 00BF     		.align	2
 939              		.p2align 4,,15
 940              		.global	ibqReadTimeout
 941              		.thumb
 942              		.thumb_func
 943              		.type	ibqReadTimeout, %function
 944              	ibqReadTimeout:
 945              	.LFB276:
 946              		.loc 8 352 0
 947              		.cfi_startproc
 948              		@ args = 0, pretend = 0, frame = 40
 949              		@ frame_needed = 0, uses_anonymous_args = 0
 950 03d0 00B5     		push	{lr}
 951              		.cfi_def_cfa_offset 4
 952              		.cfi_offset 14, -4
 953 03d2 8BB0     		sub	sp, sp, #44
 954              		.cfi_def_cfa_offset 48
ARM GAS  /tmp/ccRqzMr7.s 			page 18


 955 03d4 0390     		str	r0, [sp, #12]
 956 03d6 0291     		str	r1, [sp, #8]
 957 03d8 0192     		str	r2, [sp, #4]
 958 03da 0093     		str	r3, [sp]
 959              		.loc 8 353 0
 960 03dc 0023     		movs	r3, #0
 961 03de 0993     		str	r3, [sp, #36]
 962              		.loc 8 356 0
 963 03e0 FFF756FE 		bl	osalSysLock
 964              		.loc 8 359 0
 965 03e4 FFF764FE 		bl	osalOsGetSystemTimeX
 966 03e8 0246     		mov	r2, r0
 967 03ea 009B     		ldr	r3, [sp]
 968 03ec 1344     		add	r3, r3, r2
 969 03ee 0693     		str	r3, [sp, #24]
 970              	.L55:
 971              	.LBB11:
 972              		.loc 8 365 0
 973 03f0 039B     		ldr	r3, [sp, #12]
 974 03f2 5B6A     		ldr	r3, [r3, #36]
 975 03f4 002B     		cmp	r3, #0
 976 03f6 26D1     		bne	.L44
 977              	.LBB12:
 978              		.loc 8 370 0
 979 03f8 009B     		ldr	r3, [sp]
 980 03fa B3F1FF3F 		cmp	r3, #-1
 981 03fe 02D0     		beq	.L45
 982              		.loc 8 370 0 is_stmt 0 discriminator 1
 983 0400 009B     		ldr	r3, [sp]
 984 0402 002B     		cmp	r3, #0
 985 0404 05D1     		bne	.L46
 986              	.L45:
 987              		.loc 8 371 0 is_stmt 1
 988 0406 0398     		ldr	r0, [sp, #12]
 989 0408 0099     		ldr	r1, [sp]
 990 040a FFF7FEFF 		bl	ibqGetFullBufferTimeoutS
 991 040e 0790     		str	r0, [sp, #28]
 992 0410 12E0     		b	.L47
 993              	.L46:
 994              	.LBB13:
 995              		.loc 8 374 0
 996 0412 FFF74DFE 		bl	osalOsGetSystemTimeX
 997 0416 0346     		mov	r3, r0
 998 0418 069A     		ldr	r2, [sp, #24]
 999 041a D31A     		subs	r3, r2, r3
 1000 041c 0593     		str	r3, [sp, #20]
 1001              		.loc 8 379 0
 1002 041e 059A     		ldr	r2, [sp, #20]
 1003 0420 009B     		ldr	r3, [sp]
 1004 0422 9A42     		cmp	r2, r3
 1005 0424 03D9     		bls	.L48
 1006              		.loc 8 380 0
 1007 0426 FFF73BFE 		bl	osalSysUnlock
 1008              		.loc 8 381 0
 1009 042a 099B     		ldr	r3, [sp, #36]
 1010 042c 5CE0     		b	.L49
 1011              	.L48:
ARM GAS  /tmp/ccRqzMr7.s 			page 19


 1012              		.loc 8 383 0
 1013 042e 0398     		ldr	r0, [sp, #12]
 1014 0430 0599     		ldr	r1, [sp, #20]
 1015 0432 FFF7FEFF 		bl	ibqGetFullBufferTimeoutS
 1016 0436 0790     		str	r0, [sp, #28]
 1017              	.L47:
 1018              	.LBE13:
 1019              		.loc 8 387 0
 1020 0438 079B     		ldr	r3, [sp, #28]
 1021 043a 002B     		cmp	r3, #0
 1022 043c 03D0     		beq	.L44
 1023              		.loc 8 388 0
 1024 043e FFF72FFE 		bl	osalSysUnlock
 1025              		.loc 8 389 0
 1026 0442 099B     		ldr	r3, [sp, #36]
 1027 0444 50E0     		b	.L49
 1028              	.L44:
 1029              	.LBE12:
 1030              		.loc 8 394 0
 1031 0446 039B     		ldr	r3, [sp, #12]
 1032 0448 9B6A     		ldr	r3, [r3, #40]
 1033 044a 1A46     		mov	r2, r3
 1034 044c 039B     		ldr	r3, [sp, #12]
 1035 044e 5B6A     		ldr	r3, [r3, #36]
 1036 0450 D31A     		subs	r3, r2, r3
 1037 0452 0893     		str	r3, [sp, #32]
 1038              		.loc 8 395 0
 1039 0454 019A     		ldr	r2, [sp, #4]
 1040 0456 099B     		ldr	r3, [sp, #36]
 1041 0458 D21A     		subs	r2, r2, r3
 1042 045a 089B     		ldr	r3, [sp, #32]
 1043 045c 9A42     		cmp	r2, r3
 1044 045e 03D2     		bcs	.L50
 1045              		.loc 8 396 0
 1046 0460 019A     		ldr	r2, [sp, #4]
 1047 0462 099B     		ldr	r3, [sp, #36]
 1048 0464 D31A     		subs	r3, r2, r3
 1049 0466 0893     		str	r3, [sp, #32]
 1050              	.L50:
 1051              		.loc 8 401 0
 1052 0468 089B     		ldr	r3, [sp, #32]
 1053 046a 402B     		cmp	r3, #64
 1054 046c 13D9     		bls	.L51
 1055              		.loc 8 403 0
 1056 046e 039B     		ldr	r3, [sp, #12]
 1057 0470 5B6A     		ldr	r3, [r3, #36]
 1058 0472 0298     		ldr	r0, [sp, #8]
 1059 0474 1946     		mov	r1, r3
 1060 0476 4022     		movs	r2, #64
 1061 0478 FFF7FEFF 		bl	memcpy
 1062              		.loc 8 404 0
 1063 047c 029B     		ldr	r3, [sp, #8]
 1064 047e 4033     		adds	r3, r3, #64
 1065 0480 0293     		str	r3, [sp, #8]
 1066              		.loc 8 405 0
 1067 0482 039B     		ldr	r3, [sp, #12]
 1068 0484 5B6A     		ldr	r3, [r3, #36]
ARM GAS  /tmp/ccRqzMr7.s 			page 20


 1069 0486 03F14002 		add	r2, r3, #64
 1070 048a 039B     		ldr	r3, [sp, #12]
 1071 048c 5A62     		str	r2, [r3, #36]
 1072              		.loc 8 406 0
 1073 048e 099B     		ldr	r3, [sp, #36]
 1074 0490 4033     		adds	r3, r3, #64
 1075 0492 0993     		str	r3, [sp, #36]
 1076 0494 14E0     		b	.L52
 1077              	.L51:
 1078              		.loc 8 409 0
 1079 0496 039B     		ldr	r3, [sp, #12]
 1080 0498 5B6A     		ldr	r3, [r3, #36]
 1081 049a 0298     		ldr	r0, [sp, #8]
 1082 049c 1946     		mov	r1, r3
 1083 049e 089A     		ldr	r2, [sp, #32]
 1084 04a0 FFF7FEFF 		bl	memcpy
 1085              		.loc 8 410 0
 1086 04a4 029A     		ldr	r2, [sp, #8]
 1087 04a6 089B     		ldr	r3, [sp, #32]
 1088 04a8 1344     		add	r3, r3, r2
 1089 04aa 0293     		str	r3, [sp, #8]
 1090              		.loc 8 411 0
 1091 04ac 039B     		ldr	r3, [sp, #12]
 1092 04ae 5A6A     		ldr	r2, [r3, #36]
 1093 04b0 089B     		ldr	r3, [sp, #32]
 1094 04b2 1A44     		add	r2, r2, r3
 1095 04b4 039B     		ldr	r3, [sp, #12]
 1096 04b6 5A62     		str	r2, [r3, #36]
 1097              		.loc 8 412 0
 1098 04b8 099A     		ldr	r2, [sp, #36]
 1099 04ba 089B     		ldr	r3, [sp, #32]
 1100 04bc 1344     		add	r3, r3, r2
 1101 04be 0993     		str	r3, [sp, #36]
 1102              	.L52:
 1103              		.loc 8 416 0
 1104 04c0 039B     		ldr	r3, [sp, #12]
 1105 04c2 5A6A     		ldr	r2, [r3, #36]
 1106 04c4 039B     		ldr	r3, [sp, #12]
 1107 04c6 9B6A     		ldr	r3, [r3, #40]
 1108 04c8 9A42     		cmp	r2, r3
 1109 04ca 02D3     		bcc	.L53
 1110              		.loc 8 417 0
 1111 04cc 0398     		ldr	r0, [sp, #12]
 1112 04ce FFF7FEFF 		bl	ibqReleaseEmptyBufferS
 1113              	.L53:
 1114              		.loc 8 421 0
 1115 04d2 FFF7E5FD 		bl	osalSysUnlock
 1116              		.loc 8 422 0
 1117 04d6 099A     		ldr	r2, [sp, #36]
 1118 04d8 019B     		ldr	r3, [sp, #4]
 1119 04da 9A42     		cmp	r2, r3
 1120 04dc 01D3     		bcc	.L54
 1121              		.loc 8 423 0
 1122 04de 099B     		ldr	r3, [sp, #36]
 1123 04e0 02E0     		b	.L49
 1124              	.L54:
 1125              		.loc 8 425 0
ARM GAS  /tmp/ccRqzMr7.s 			page 21


 1126 04e2 FFF7D5FD 		bl	osalSysLock
 1127              	.LBE11:
 1128              		.loc 8 426 0
 1129 04e6 83E7     		b	.L55
 1130              	.L49:
 1131              		.loc 8 427 0
 1132 04e8 1846     		mov	r0, r3
 1133 04ea 0BB0     		add	sp, sp, #44
 1134              		@ sp needed
 1135 04ec 5DF804FB 		ldr	pc, [sp], #4
 1136              		.cfi_endproc
 1137              	.LFE276:
 1138              		.size	ibqReadTimeout, .-ibqReadTimeout
 1139              		.align	2
 1140              		.p2align 4,,15
 1141              		.global	obqObjectInit
 1142              		.thumb
 1143              		.thumb_func
 1144              		.type	obqObjectInit, %function
 1145              	obqObjectInit:
 1146              	.LFB277:
 1147              		.loc 8 443 0
 1148              		.cfi_startproc
 1149              		@ args = 8, pretend = 0, frame = 16
 1150              		@ frame_needed = 0, uses_anonymous_args = 0
 1151 04f0 00B5     		push	{lr}
 1152              		.cfi_def_cfa_offset 4
 1153              		.cfi_offset 14, -4
 1154 04f2 85B0     		sub	sp, sp, #20
 1155              		.cfi_def_cfa_offset 24
 1156 04f4 0390     		str	r0, [sp, #12]
 1157 04f6 0291     		str	r1, [sp, #8]
 1158 04f8 0192     		str	r2, [sp, #4]
 1159 04fa 0093     		str	r3, [sp]
 1160              		.loc 8 447 0
 1161 04fc 039B     		ldr	r3, [sp, #12]
 1162 04fe 1846     		mov	r0, r3
 1163 0500 FFF7DEFD 		bl	osalThreadQueueObjectInit
 1164              		.loc 8 448 0
 1165 0504 039B     		ldr	r3, [sp, #12]
 1166 0506 009A     		ldr	r2, [sp]
 1167 0508 9A60     		str	r2, [r3, #8]
 1168              		.loc 8 449 0
 1169 050a 039B     		ldr	r3, [sp, #12]
 1170 050c 029A     		ldr	r2, [sp, #8]
 1171 050e 1A61     		str	r2, [r3, #16]
 1172              		.loc 8 450 0
 1173 0510 039B     		ldr	r3, [sp, #12]
 1174 0512 029A     		ldr	r2, [sp, #8]
 1175 0514 DA60     		str	r2, [r3, #12]
 1176              		.loc 8 451 0
 1177 0516 019B     		ldr	r3, [sp, #4]
 1178 0518 0433     		adds	r3, r3, #4
 1179 051a 009A     		ldr	r2, [sp]
 1180 051c 02FB03F3 		mul	r3, r2, r3
 1181 0520 029A     		ldr	r2, [sp, #8]
 1182 0522 1A44     		add	r2, r2, r3
ARM GAS  /tmp/ccRqzMr7.s 			page 22


 1183 0524 039B     		ldr	r3, [sp, #12]
 1184 0526 5A61     		str	r2, [r3, #20]
 1185              		.loc 8 452 0
 1186 0528 019B     		ldr	r3, [sp, #4]
 1187 052a 1A1D     		adds	r2, r3, #4
 1188 052c 039B     		ldr	r3, [sp, #12]
 1189 052e 9A61     		str	r2, [r3, #24]
 1190              		.loc 8 453 0
 1191 0530 039B     		ldr	r3, [sp, #12]
 1192 0532 009A     		ldr	r2, [sp]
 1193 0534 DA61     		str	r2, [r3, #28]
 1194              		.loc 8 454 0
 1195 0536 039B     		ldr	r3, [sp, #12]
 1196 0538 029A     		ldr	r2, [sp, #8]
 1197 053a 1A62     		str	r2, [r3, #32]
 1198              		.loc 8 455 0
 1199 053c 039B     		ldr	r3, [sp, #12]
 1200 053e 0022     		movs	r2, #0
 1201 0540 5A62     		str	r2, [r3, #36]
 1202              		.loc 8 456 0
 1203 0542 039B     		ldr	r3, [sp, #12]
 1204 0544 0022     		movs	r2, #0
 1205 0546 9A62     		str	r2, [r3, #40]
 1206              		.loc 8 457 0
 1207 0548 039B     		ldr	r3, [sp, #12]
 1208 054a 069A     		ldr	r2, [sp, #24]
 1209 054c DA62     		str	r2, [r3, #44]
 1210              		.loc 8 458 0
 1211 054e 039B     		ldr	r3, [sp, #12]
 1212 0550 079A     		ldr	r2, [sp, #28]
 1213 0552 1A63     		str	r2, [r3, #48]
 1214              		.loc 8 459 0
 1215 0554 05B0     		add	sp, sp, #20
 1216              		@ sp needed
 1217 0556 5DF804FB 		ldr	pc, [sp], #4
 1218              		.cfi_endproc
 1219              	.LFE277:
 1220              		.size	obqObjectInit, .-obqObjectInit
 1221 055a 00BF     		.align	2
 1222 055c AFF30080 		.p2align 4,,15
 1223              		.global	obqResetI
 1224              		.thumb
 1225              		.thumb_func
 1226              		.type	obqResetI, %function
 1227              	obqResetI:
 1228              	.LFB278:
 1229              		.loc 8 472 0
 1230              		.cfi_startproc
 1231              		@ args = 0, pretend = 0, frame = 8
 1232              		@ frame_needed = 0, uses_anonymous_args = 0
 1233 0560 00B5     		push	{lr}
 1234              		.cfi_def_cfa_offset 4
 1235              		.cfi_offset 14, -4
 1236 0562 83B0     		sub	sp, sp, #12
 1237              		.cfi_def_cfa_offset 16
 1238 0564 0190     		str	r0, [sp, #4]
 1239              		.loc 8 476 0
ARM GAS  /tmp/ccRqzMr7.s 			page 23


 1240 0566 019B     		ldr	r3, [sp, #4]
 1241 0568 DA69     		ldr	r2, [r3, #28]
 1242 056a 019B     		ldr	r3, [sp, #4]
 1243 056c 9A60     		str	r2, [r3, #8]
 1244              		.loc 8 477 0
 1245 056e 019B     		ldr	r3, [sp, #4]
 1246 0570 1A6A     		ldr	r2, [r3, #32]
 1247 0572 019B     		ldr	r3, [sp, #4]
 1248 0574 1A61     		str	r2, [r3, #16]
 1249              		.loc 8 478 0
 1250 0576 019B     		ldr	r3, [sp, #4]
 1251 0578 1A6A     		ldr	r2, [r3, #32]
 1252 057a 019B     		ldr	r3, [sp, #4]
 1253 057c DA60     		str	r2, [r3, #12]
 1254              		.loc 8 479 0
 1255 057e 019B     		ldr	r3, [sp, #4]
 1256 0580 0022     		movs	r2, #0
 1257 0582 5A62     		str	r2, [r3, #36]
 1258              		.loc 8 480 0
 1259 0584 019B     		ldr	r3, [sp, #4]
 1260 0586 0022     		movs	r2, #0
 1261 0588 9A62     		str	r2, [r3, #40]
 1262              		.loc 8 481 0
 1263 058a 019B     		ldr	r3, [sp, #4]
 1264 058c 1846     		mov	r0, r3
 1265 058e 6FF00101 		mvn	r1, #1
 1266 0592 FFF7C5FD 		bl	osalThreadDequeueAllI
 1267              		.loc 8 482 0
 1268 0596 03B0     		add	sp, sp, #12
 1269              		@ sp needed
 1270 0598 5DF804FB 		ldr	pc, [sp], #4
 1271              		.cfi_endproc
 1272              	.LFE278:
 1273              		.size	obqResetI, .-obqResetI
 1274              		.align	2
 1275 059c AFF30080 		.p2align 4,,15
 1276              		.global	obqGetFullBufferI
 1277              		.thumb
 1278              		.thumb_func
 1279              		.type	obqGetFullBufferI, %function
 1280              	obqGetFullBufferI:
 1281              	.LFB279:
 1282              		.loc 8 496 0
 1283              		.cfi_startproc
 1284              		@ args = 0, pretend = 0, frame = 8
 1285              		@ frame_needed = 0, uses_anonymous_args = 0
 1286              		@ link register save eliminated.
 1287 05a0 82B0     		sub	sp, sp, #8
 1288              		.cfi_def_cfa_offset 8
 1289 05a2 0190     		str	r0, [sp, #4]
 1290 05a4 0091     		str	r1, [sp]
 1291              		.loc 8 500 0
 1292 05a6 019B     		ldr	r3, [sp, #4]
 1293 05a8 DA68     		ldr	r2, [r3, #12]
 1294 05aa 019B     		ldr	r3, [sp, #4]
 1295 05ac 1B69     		ldr	r3, [r3, #16]
 1296 05ae 9A42     		cmp	r2, r3
ARM GAS  /tmp/ccRqzMr7.s 			page 24


 1297 05b0 05D1     		bne	.L59
 1298              		.loc 8 500 0 is_stmt 0 discriminator 1
 1299 05b2 019B     		ldr	r3, [sp, #4]
 1300 05b4 9B68     		ldr	r3, [r3, #8]
 1301 05b6 002B     		cmp	r3, #0
 1302 05b8 01D0     		beq	.L59
 1303              		.loc 8 500 0 discriminator 3
 1304 05ba 0123     		movs	r3, #1
 1305 05bc 00E0     		b	.L60
 1306              	.L59:
 1307              		.loc 8 500 0 discriminator 2
 1308 05be 0023     		movs	r3, #0
 1309              	.L60:
 1310              		.loc 8 500 0 discriminator 4
 1311 05c0 03F00103 		and	r3, r3, #1
 1312 05c4 DBB2     		uxtb	r3, r3
 1313 05c6 002B     		cmp	r3, #0
 1314 05c8 01D0     		beq	.L61
 1315              		.loc 8 501 0 is_stmt 1
 1316 05ca 0023     		movs	r3, #0
 1317 05cc 07E0     		b	.L62
 1318              	.L61:
 1319              		.loc 8 505 0
 1320 05ce 019B     		ldr	r3, [sp, #4]
 1321 05d0 1B69     		ldr	r3, [r3, #16]
 1322 05d2 1A68     		ldr	r2, [r3]
 1323 05d4 009B     		ldr	r3, [sp]
 1324 05d6 1A60     		str	r2, [r3]
 1325              		.loc 8 507 0
 1326 05d8 019B     		ldr	r3, [sp, #4]
 1327 05da 1B69     		ldr	r3, [r3, #16]
 1328 05dc 0433     		adds	r3, r3, #4
 1329              	.L62:
 1330              		.loc 8 508 0
 1331 05de 1846     		mov	r0, r3
 1332 05e0 02B0     		add	sp, sp, #8
 1333              		@ sp needed
 1334 05e2 7047     		bx	lr
 1335              		.cfi_endproc
 1336              	.LFE279:
 1337              		.size	obqGetFullBufferI, .-obqGetFullBufferI
 1338              		.align	2
 1339 05e4 AFF30080 		.p2align 4,,15
 1339      AFF30080 
 1339      AFF30080 
 1340              		.global	obqReleaseEmptyBufferI
 1341              		.thumb
 1342              		.thumb_func
 1343              		.type	obqReleaseEmptyBufferI, %function
 1344              	obqReleaseEmptyBufferI:
 1345              	.LFB280:
 1346              		.loc 8 517 0
 1347              		.cfi_startproc
 1348              		@ args = 0, pretend = 0, frame = 8
 1349              		@ frame_needed = 0, uses_anonymous_args = 0
 1350 05f0 00B5     		push	{lr}
 1351              		.cfi_def_cfa_offset 4
ARM GAS  /tmp/ccRqzMr7.s 			page 25


 1352              		.cfi_offset 14, -4
 1353 05f2 83B0     		sub	sp, sp, #12
 1354              		.cfi_def_cfa_offset 16
 1355 05f4 0190     		str	r0, [sp, #4]
 1356              		.loc 8 523 0
 1357 05f6 019B     		ldr	r3, [sp, #4]
 1358 05f8 9B68     		ldr	r3, [r3, #8]
 1359 05fa 5A1C     		adds	r2, r3, #1
 1360 05fc 019B     		ldr	r3, [sp, #4]
 1361 05fe 9A60     		str	r2, [r3, #8]
 1362              		.loc 8 524 0
 1363 0600 019B     		ldr	r3, [sp, #4]
 1364 0602 1A69     		ldr	r2, [r3, #16]
 1365 0604 019B     		ldr	r3, [sp, #4]
 1366 0606 9B69     		ldr	r3, [r3, #24]
 1367 0608 1A44     		add	r2, r2, r3
 1368 060a 019B     		ldr	r3, [sp, #4]
 1369 060c 1A61     		str	r2, [r3, #16]
 1370              		.loc 8 525 0
 1371 060e 019B     		ldr	r3, [sp, #4]
 1372 0610 1A69     		ldr	r2, [r3, #16]
 1373 0612 019B     		ldr	r3, [sp, #4]
 1374 0614 5B69     		ldr	r3, [r3, #20]
 1375 0616 9A42     		cmp	r2, r3
 1376 0618 03D3     		bcc	.L64
 1377              		.loc 8 526 0
 1378 061a 019B     		ldr	r3, [sp, #4]
 1379 061c 1A6A     		ldr	r2, [r3, #32]
 1380 061e 019B     		ldr	r3, [sp, #4]
 1381 0620 1A61     		str	r2, [r3, #16]
 1382              	.L64:
 1383              		.loc 8 530 0
 1384 0622 019B     		ldr	r3, [sp, #4]
 1385 0624 1846     		mov	r0, r3
 1386 0626 0021     		movs	r1, #0
 1387 0628 FFF76AFD 		bl	osalThreadDequeueNextI
 1388              		.loc 8 531 0
 1389 062c 03B0     		add	sp, sp, #12
 1390              		@ sp needed
 1391 062e 5DF804FB 		ldr	pc, [sp], #4
 1392              		.cfi_endproc
 1393              	.LFE280:
 1394              		.size	obqReleaseEmptyBufferI, .-obqReleaseEmptyBufferI
 1395 0632 00BF     		.align	2
 1396 0634 AFF30080 		.p2align 4,,15
 1396      AFF30080 
 1396      AFF30080 
 1397              		.global	obqGetEmptyBufferTimeout
 1398              		.thumb
 1399              		.thumb_func
 1400              		.type	obqGetEmptyBufferTimeout, %function
 1401              	obqGetEmptyBufferTimeout:
 1402              	.LFB281:
 1403              		.loc 8 554 0
 1404              		.cfi_startproc
 1405              		@ args = 0, pretend = 0, frame = 16
 1406              		@ frame_needed = 0, uses_anonymous_args = 0
ARM GAS  /tmp/ccRqzMr7.s 			page 26


 1407 0640 00B5     		push	{lr}
 1408              		.cfi_def_cfa_offset 4
 1409              		.cfi_offset 14, -4
 1410 0642 85B0     		sub	sp, sp, #20
 1411              		.cfi_def_cfa_offset 24
 1412 0644 0190     		str	r0, [sp, #4]
 1413 0646 0091     		str	r1, [sp]
 1414              		.loc 8 557 0
 1415 0648 FFF722FD 		bl	osalSysLock
 1416              		.loc 8 558 0
 1417 064c 0198     		ldr	r0, [sp, #4]
 1418 064e 0099     		ldr	r1, [sp]
 1419 0650 FFF7FEFF 		bl	obqGetEmptyBufferTimeoutS
 1420 0654 0390     		str	r0, [sp, #12]
 1421              		.loc 8 559 0
 1422 0656 FFF723FD 		bl	osalSysUnlock
 1423              		.loc 8 561 0
 1424 065a 039B     		ldr	r3, [sp, #12]
 1425              		.loc 8 562 0
 1426 065c 1846     		mov	r0, r3
 1427 065e 05B0     		add	sp, sp, #20
 1428              		@ sp needed
 1429 0660 5DF804FB 		ldr	pc, [sp], #4
 1430              		.cfi_endproc
 1431              	.LFE281:
 1432              		.size	obqGetEmptyBufferTimeout, .-obqGetEmptyBufferTimeout
 1433              		.align	2
 1434 0664 AFF30080 		.p2align 4,,15
 1434      AFF30080 
 1434      AFF30080 
 1435              		.global	obqGetEmptyBufferTimeoutS
 1436              		.thumb
 1437              		.thumb_func
 1438              		.type	obqGetEmptyBufferTimeoutS, %function
 1439              	obqGetEmptyBufferTimeoutS:
 1440              	.LFB282:
 1441              		.loc 8 585 0
 1442              		.cfi_startproc
 1443              		@ args = 0, pretend = 0, frame = 16
 1444              		@ frame_needed = 0, uses_anonymous_args = 0
 1445 0670 00B5     		push	{lr}
 1446              		.cfi_def_cfa_offset 4
 1447              		.cfi_offset 14, -4
 1448 0672 85B0     		sub	sp, sp, #20
 1449              		.cfi_def_cfa_offset 24
 1450 0674 0190     		str	r0, [sp, #4]
 1451 0676 0091     		str	r1, [sp]
 1452              		.loc 8 589 0
 1453 0678 0AE0     		b	.L68
 1454              	.L70:
 1455              	.LBB14:
 1456              		.loc 8 590 0
 1457 067a 019B     		ldr	r3, [sp, #4]
 1458 067c 1846     		mov	r0, r3
 1459 067e 0099     		ldr	r1, [sp]
 1460 0680 FFF72EFD 		bl	osalThreadEnqueueTimeoutS
 1461 0684 0390     		str	r0, [sp, #12]
ARM GAS  /tmp/ccRqzMr7.s 			page 27


 1462              		.loc 8 591 0
 1463 0686 039B     		ldr	r3, [sp, #12]
 1464 0688 002B     		cmp	r3, #0
 1465 068a 01DA     		bge	.L68
 1466              		.loc 8 592 0
 1467 068c 039B     		ldr	r3, [sp, #12]
 1468 068e 10E0     		b	.L69
 1469              	.L68:
 1470              	.LBE14:
 1471              		.loc 8 589 0 discriminator 1
 1472 0690 019B     		ldr	r3, [sp, #4]
 1473 0692 9B68     		ldr	r3, [r3, #8]
 1474 0694 002B     		cmp	r3, #0
 1475 0696 F0D0     		beq	.L70
 1476              		.loc 8 599 0
 1477 0698 019B     		ldr	r3, [sp, #4]
 1478 069a DB68     		ldr	r3, [r3, #12]
 1479 069c 1A1D     		adds	r2, r3, #4
 1480 069e 019B     		ldr	r3, [sp, #4]
 1481 06a0 5A62     		str	r2, [r3, #36]
 1482              		.loc 8 600 0
 1483 06a2 019B     		ldr	r3, [sp, #4]
 1484 06a4 DA68     		ldr	r2, [r3, #12]
 1485 06a6 019B     		ldr	r3, [sp, #4]
 1486 06a8 9B69     		ldr	r3, [r3, #24]
 1487 06aa 1A44     		add	r2, r2, r3
 1488 06ac 019B     		ldr	r3, [sp, #4]
 1489 06ae 9A62     		str	r2, [r3, #40]
 1490              		.loc 8 602 0
 1491 06b0 0023     		movs	r3, #0
 1492              	.L69:
 1493              		.loc 8 603 0
 1494 06b2 1846     		mov	r0, r3
 1495 06b4 05B0     		add	sp, sp, #20
 1496              		@ sp needed
 1497 06b6 5DF804FB 		ldr	pc, [sp], #4
 1498              		.cfi_endproc
 1499              	.LFE282:
 1500              		.size	obqGetEmptyBufferTimeoutS, .-obqGetEmptyBufferTimeoutS
 1501 06ba 00BF     		.align	2
 1502 06bc AFF30080 		.p2align 4,,15
 1503              		.global	obqPostFullBuffer
 1504              		.thumb
 1505              		.thumb_func
 1506              		.type	obqPostFullBuffer, %function
 1507              	obqPostFullBuffer:
 1508              	.LFB283:
 1509              		.loc 8 614 0
 1510              		.cfi_startproc
 1511              		@ args = 0, pretend = 0, frame = 8
 1512              		@ frame_needed = 0, uses_anonymous_args = 0
 1513 06c0 00B5     		push	{lr}
 1514              		.cfi_def_cfa_offset 4
 1515              		.cfi_offset 14, -4
 1516 06c2 83B0     		sub	sp, sp, #12
 1517              		.cfi_def_cfa_offset 16
 1518 06c4 0190     		str	r0, [sp, #4]
ARM GAS  /tmp/ccRqzMr7.s 			page 28


 1519 06c6 0091     		str	r1, [sp]
 1520              		.loc 8 616 0
 1521 06c8 FFF7E2FC 		bl	osalSysLock
 1522              		.loc 8 617 0
 1523 06cc 0198     		ldr	r0, [sp, #4]
 1524 06ce 0099     		ldr	r1, [sp]
 1525 06d0 FFF7FEFF 		bl	obqPostFullBufferS
 1526              		.loc 8 618 0
 1527 06d4 FFF7E4FC 		bl	osalSysUnlock
 1528              		.loc 8 619 0
 1529 06d8 03B0     		add	sp, sp, #12
 1530              		@ sp needed
 1531 06da 5DF804FB 		ldr	pc, [sp], #4
 1532              		.cfi_endproc
 1533              	.LFE283:
 1534              		.size	obqPostFullBuffer, .-obqPostFullBuffer
 1535 06de 00BF     		.align	2
 1536              		.p2align 4,,15
 1537              		.global	obqPostFullBufferS
 1538              		.thumb
 1539              		.thumb_func
 1540              		.type	obqPostFullBufferS, %function
 1541              	obqPostFullBufferS:
 1542              	.LFB284:
 1543              		.loc 8 630 0
 1544              		.cfi_startproc
 1545              		@ args = 0, pretend = 0, frame = 8
 1546              		@ frame_needed = 0, uses_anonymous_args = 0
 1547 06e0 00B5     		push	{lr}
 1548              		.cfi_def_cfa_offset 4
 1549              		.cfi_offset 14, -4
 1550 06e2 83B0     		sub	sp, sp, #12
 1551              		.cfi_def_cfa_offset 16
 1552 06e4 0190     		str	r0, [sp, #4]
 1553 06e6 0091     		str	r1, [sp]
 1554              		.loc 8 637 0
 1555 06e8 019B     		ldr	r3, [sp, #4]
 1556 06ea DB68     		ldr	r3, [r3, #12]
 1557 06ec 009A     		ldr	r2, [sp]
 1558 06ee 1A60     		str	r2, [r3]
 1559              		.loc 8 640 0
 1560 06f0 019B     		ldr	r3, [sp, #4]
 1561 06f2 9B68     		ldr	r3, [r3, #8]
 1562 06f4 5A1E     		subs	r2, r3, #1
 1563 06f6 019B     		ldr	r3, [sp, #4]
 1564 06f8 9A60     		str	r2, [r3, #8]
 1565              		.loc 8 641 0
 1566 06fa 019B     		ldr	r3, [sp, #4]
 1567 06fc DA68     		ldr	r2, [r3, #12]
 1568 06fe 019B     		ldr	r3, [sp, #4]
 1569 0700 9B69     		ldr	r3, [r3, #24]
 1570 0702 1A44     		add	r2, r2, r3
 1571 0704 019B     		ldr	r3, [sp, #4]
 1572 0706 DA60     		str	r2, [r3, #12]
 1573              		.loc 8 642 0
 1574 0708 019B     		ldr	r3, [sp, #4]
 1575 070a DA68     		ldr	r2, [r3, #12]
ARM GAS  /tmp/ccRqzMr7.s 			page 29


 1576 070c 019B     		ldr	r3, [sp, #4]
 1577 070e 5B69     		ldr	r3, [r3, #20]
 1578 0710 9A42     		cmp	r2, r3
 1579 0712 03D3     		bcc	.L73
 1580              		.loc 8 643 0
 1581 0714 019B     		ldr	r3, [sp, #4]
 1582 0716 1A6A     		ldr	r2, [r3, #32]
 1583 0718 019B     		ldr	r3, [sp, #4]
 1584 071a DA60     		str	r2, [r3, #12]
 1585              	.L73:
 1586              		.loc 8 647 0
 1587 071c 019B     		ldr	r3, [sp, #4]
 1588 071e 0022     		movs	r2, #0
 1589 0720 5A62     		str	r2, [r3, #36]
 1590              		.loc 8 650 0
 1591 0722 019B     		ldr	r3, [sp, #4]
 1592 0724 DB6A     		ldr	r3, [r3, #44]
 1593 0726 002B     		cmp	r3, #0
 1594 0728 03D0     		beq	.L72
 1595              		.loc 8 651 0
 1596 072a 019B     		ldr	r3, [sp, #4]
 1597 072c DB6A     		ldr	r3, [r3, #44]
 1598 072e 0198     		ldr	r0, [sp, #4]
 1599 0730 9847     		blx	r3
 1600              	.L72:
 1601              		.loc 8 653 0
 1602 0732 03B0     		add	sp, sp, #12
 1603              		@ sp needed
 1604 0734 5DF804FB 		ldr	pc, [sp], #4
 1605              		.cfi_endproc
 1606              	.LFE284:
 1607              		.size	obqPostFullBufferS, .-obqPostFullBufferS
 1608              		.align	2
 1609 0738 AFF30080 		.p2align 4,,15
 1609      AFF30080 
 1610              		.global	obqPutTimeout
 1611              		.thumb
 1612              		.thumb_func
 1613              		.type	obqPutTimeout, %function
 1614              	obqPutTimeout:
 1615              	.LFB285:
 1616              		.loc 8 675 0
 1617              		.cfi_startproc
 1618              		@ args = 0, pretend = 0, frame = 24
 1619              		@ frame_needed = 0, uses_anonymous_args = 0
 1620 0740 00B5     		push	{lr}
 1621              		.cfi_def_cfa_offset 4
 1622              		.cfi_offset 14, -4
 1623 0742 87B0     		sub	sp, sp, #28
 1624              		.cfi_def_cfa_offset 32
 1625 0744 0390     		str	r0, [sp, #12]
 1626 0746 0B46     		mov	r3, r1
 1627 0748 0192     		str	r2, [sp, #4]
 1628 074a 8DF80B30 		strb	r3, [sp, #11]
 1629              		.loc 8 678 0
 1630 074e FFF79FFC 		bl	osalSysLock
 1631              		.loc 8 681 0
ARM GAS  /tmp/ccRqzMr7.s 			page 30


 1632 0752 039B     		ldr	r3, [sp, #12]
 1633 0754 5B6A     		ldr	r3, [r3, #36]
 1634 0756 002B     		cmp	r3, #0
 1635 0758 0BD1     		bne	.L76
 1636              		.loc 8 682 0
 1637 075a 0398     		ldr	r0, [sp, #12]
 1638 075c 0199     		ldr	r1, [sp, #4]
 1639 075e FFF7FEFF 		bl	obqGetEmptyBufferTimeoutS
 1640 0762 0590     		str	r0, [sp, #20]
 1641              		.loc 8 683 0
 1642 0764 059B     		ldr	r3, [sp, #20]
 1643 0766 002B     		cmp	r3, #0
 1644 0768 03D0     		beq	.L76
 1645              		.loc 8 684 0
 1646 076a FFF799FC 		bl	osalSysUnlock
 1647              		.loc 8 685 0
 1648 076e 059B     		ldr	r3, [sp, #20]
 1649 0770 19E0     		b	.L77
 1650              	.L76:
 1651              		.loc 8 690 0
 1652 0772 039B     		ldr	r3, [sp, #12]
 1653 0774 5B6A     		ldr	r3, [r3, #36]
 1654 0776 9DF80B20 		ldrb	r2, [sp, #11]
 1655 077a 1A70     		strb	r2, [r3]
 1656              		.loc 8 691 0
 1657 077c 039B     		ldr	r3, [sp, #12]
 1658 077e 5B6A     		ldr	r3, [r3, #36]
 1659 0780 5A1C     		adds	r2, r3, #1
 1660 0782 039B     		ldr	r3, [sp, #12]
 1661 0784 5A62     		str	r2, [r3, #36]
 1662              		.loc 8 695 0
 1663 0786 039B     		ldr	r3, [sp, #12]
 1664 0788 5A6A     		ldr	r2, [r3, #36]
 1665 078a 039B     		ldr	r3, [sp, #12]
 1666 078c 9B6A     		ldr	r3, [r3, #40]
 1667 078e 9A42     		cmp	r2, r3
 1668 0790 06D3     		bcc	.L78
 1669              		.loc 8 696 0
 1670 0792 039B     		ldr	r3, [sp, #12]
 1671 0794 9B69     		ldr	r3, [r3, #24]
 1672 0796 043B     		subs	r3, r3, #4
 1673 0798 0398     		ldr	r0, [sp, #12]
 1674 079a 1946     		mov	r1, r3
 1675 079c FFF7FEFF 		bl	obqPostFullBufferS
 1676              	.L78:
 1677              		.loc 8 699 0
 1678 07a0 FFF77EFC 		bl	osalSysUnlock
 1679              		.loc 8 700 0
 1680 07a4 0023     		movs	r3, #0
 1681              	.L77:
 1682              		.loc 8 701 0
 1683 07a6 1846     		mov	r0, r3
 1684 07a8 07B0     		add	sp, sp, #28
 1685              		@ sp needed
 1686 07aa 5DF804FB 		ldr	pc, [sp], #4
 1687              		.cfi_endproc
 1688              	.LFE285:
ARM GAS  /tmp/ccRqzMr7.s 			page 31


 1689              		.size	obqPutTimeout, .-obqPutTimeout
 1690 07ae 00BF     		.align	2
 1691              		.p2align 4,,15
 1692              		.global	obqWriteTimeout
 1693              		.thumb
 1694              		.thumb_func
 1695              		.type	obqWriteTimeout, %function
 1696              	obqWriteTimeout:
 1697              	.LFB286:
 1698              		.loc 8 725 0
 1699              		.cfi_startproc
 1700              		@ args = 0, pretend = 0, frame = 40
 1701              		@ frame_needed = 0, uses_anonymous_args = 0
 1702 07b0 00B5     		push	{lr}
 1703              		.cfi_def_cfa_offset 4
 1704              		.cfi_offset 14, -4
 1705 07b2 8BB0     		sub	sp, sp, #44
 1706              		.cfi_def_cfa_offset 48
 1707 07b4 0390     		str	r0, [sp, #12]
 1708 07b6 0291     		str	r1, [sp, #8]
 1709 07b8 0192     		str	r2, [sp, #4]
 1710 07ba 0093     		str	r3, [sp]
 1711              		.loc 8 726 0
 1712 07bc 0023     		movs	r3, #0
 1713 07be 0993     		str	r3, [sp, #36]
 1714              		.loc 8 729 0
 1715 07c0 FFF766FC 		bl	osalSysLock
 1716              		.loc 8 732 0
 1717 07c4 FFF774FC 		bl	osalOsGetSystemTimeX
 1718 07c8 0246     		mov	r2, r0
 1719 07ca 009B     		ldr	r3, [sp]
 1720 07cc 1344     		add	r3, r3, r2
 1721 07ce 0693     		str	r3, [sp, #24]
 1722              	.L91:
 1723              	.LBB15:
 1724              		.loc 8 738 0
 1725 07d0 039B     		ldr	r3, [sp, #12]
 1726 07d2 5B6A     		ldr	r3, [r3, #36]
 1727 07d4 002B     		cmp	r3, #0
 1728 07d6 26D1     		bne	.L80
 1729              	.LBB16:
 1730              		.loc 8 743 0
 1731 07d8 009B     		ldr	r3, [sp]
 1732 07da B3F1FF3F 		cmp	r3, #-1
 1733 07de 02D0     		beq	.L81
 1734              		.loc 8 743 0 is_stmt 0 discriminator 1
 1735 07e0 009B     		ldr	r3, [sp]
 1736 07e2 002B     		cmp	r3, #0
 1737 07e4 05D1     		bne	.L82
 1738              	.L81:
 1739              		.loc 8 744 0 is_stmt 1
 1740 07e6 0398     		ldr	r0, [sp, #12]
 1741 07e8 0099     		ldr	r1, [sp]
 1742 07ea FFF7FEFF 		bl	obqGetEmptyBufferTimeoutS
 1743 07ee 0790     		str	r0, [sp, #28]
 1744 07f0 12E0     		b	.L83
 1745              	.L82:
ARM GAS  /tmp/ccRqzMr7.s 			page 32


 1746              	.LBB17:
 1747              		.loc 8 747 0
 1748 07f2 FFF75DFC 		bl	osalOsGetSystemTimeX
 1749 07f6 0346     		mov	r3, r0
 1750 07f8 069A     		ldr	r2, [sp, #24]
 1751 07fa D31A     		subs	r3, r2, r3
 1752 07fc 0593     		str	r3, [sp, #20]
 1753              		.loc 8 752 0
 1754 07fe 059A     		ldr	r2, [sp, #20]
 1755 0800 009B     		ldr	r3, [sp]
 1756 0802 9A42     		cmp	r2, r3
 1757 0804 03D9     		bls	.L84
 1758              		.loc 8 753 0
 1759 0806 FFF74BFC 		bl	osalSysUnlock
 1760              		.loc 8 754 0
 1761 080a 099B     		ldr	r3, [sp, #36]
 1762 080c 60E0     		b	.L85
 1763              	.L84:
 1764              		.loc 8 756 0
 1765 080e 0398     		ldr	r0, [sp, #12]
 1766 0810 0599     		ldr	r1, [sp, #20]
 1767 0812 FFF7FEFF 		bl	obqGetEmptyBufferTimeoutS
 1768 0816 0790     		str	r0, [sp, #28]
 1769              	.L83:
 1770              	.LBE17:
 1771              		.loc 8 760 0
 1772 0818 079B     		ldr	r3, [sp, #28]
 1773 081a 002B     		cmp	r3, #0
 1774 081c 03D0     		beq	.L80
 1775              		.loc 8 761 0
 1776 081e FFF73FFC 		bl	osalSysUnlock
 1777              		.loc 8 762 0
 1778 0822 099B     		ldr	r3, [sp, #36]
 1779 0824 54E0     		b	.L85
 1780              	.L80:
 1781              	.LBE16:
 1782              		.loc 8 767 0
 1783 0826 039B     		ldr	r3, [sp, #12]
 1784 0828 9B6A     		ldr	r3, [r3, #40]
 1785 082a 1A46     		mov	r2, r3
 1786 082c 039B     		ldr	r3, [sp, #12]
 1787 082e 5B6A     		ldr	r3, [r3, #36]
 1788 0830 D31A     		subs	r3, r2, r3
 1789 0832 0893     		str	r3, [sp, #32]
 1790              		.loc 8 768 0
 1791 0834 019A     		ldr	r2, [sp, #4]
 1792 0836 099B     		ldr	r3, [sp, #36]
 1793 0838 D21A     		subs	r2, r2, r3
 1794 083a 089B     		ldr	r3, [sp, #32]
 1795 083c 9A42     		cmp	r2, r3
 1796 083e 03D2     		bcs	.L86
 1797              		.loc 8 769 0
 1798 0840 019A     		ldr	r2, [sp, #4]
 1799 0842 099B     		ldr	r3, [sp, #36]
 1800 0844 D31A     		subs	r3, r2, r3
 1801 0846 0893     		str	r3, [sp, #32]
 1802              	.L86:
ARM GAS  /tmp/ccRqzMr7.s 			page 33


 1803              		.loc 8 774 0
 1804 0848 089B     		ldr	r3, [sp, #32]
 1805 084a 402B     		cmp	r3, #64
 1806 084c 13D9     		bls	.L87
 1807              		.loc 8 776 0
 1808 084e 039B     		ldr	r3, [sp, #12]
 1809 0850 5B6A     		ldr	r3, [r3, #36]
 1810 0852 1846     		mov	r0, r3
 1811 0854 0299     		ldr	r1, [sp, #8]
 1812 0856 4022     		movs	r2, #64
 1813 0858 FFF7FEFF 		bl	memcpy
 1814              		.loc 8 777 0
 1815 085c 029B     		ldr	r3, [sp, #8]
 1816 085e 4033     		adds	r3, r3, #64
 1817 0860 0293     		str	r3, [sp, #8]
 1818              		.loc 8 778 0
 1819 0862 039B     		ldr	r3, [sp, #12]
 1820 0864 5B6A     		ldr	r3, [r3, #36]
 1821 0866 03F14002 		add	r2, r3, #64
 1822 086a 039B     		ldr	r3, [sp, #12]
 1823 086c 5A62     		str	r2, [r3, #36]
 1824              		.loc 8 779 0
 1825 086e 099B     		ldr	r3, [sp, #36]
 1826 0870 4033     		adds	r3, r3, #64
 1827 0872 0993     		str	r3, [sp, #36]
 1828 0874 14E0     		b	.L88
 1829              	.L87:
 1830              		.loc 8 782 0
 1831 0876 039B     		ldr	r3, [sp, #12]
 1832 0878 5B6A     		ldr	r3, [r3, #36]
 1833 087a 1846     		mov	r0, r3
 1834 087c 0299     		ldr	r1, [sp, #8]
 1835 087e 089A     		ldr	r2, [sp, #32]
 1836 0880 FFF7FEFF 		bl	memcpy
 1837              		.loc 8 783 0
 1838 0884 029A     		ldr	r2, [sp, #8]
 1839 0886 089B     		ldr	r3, [sp, #32]
 1840 0888 1344     		add	r3, r3, r2
 1841 088a 0293     		str	r3, [sp, #8]
 1842              		.loc 8 784 0
 1843 088c 039B     		ldr	r3, [sp, #12]
 1844 088e 5A6A     		ldr	r2, [r3, #36]
 1845 0890 089B     		ldr	r3, [sp, #32]
 1846 0892 1A44     		add	r2, r2, r3
 1847 0894 039B     		ldr	r3, [sp, #12]
 1848 0896 5A62     		str	r2, [r3, #36]
 1849              		.loc 8 785 0
 1850 0898 099A     		ldr	r2, [sp, #36]
 1851 089a 089B     		ldr	r3, [sp, #32]
 1852 089c 1344     		add	r3, r3, r2
 1853 089e 0993     		str	r3, [sp, #36]
 1854              	.L88:
 1855              		.loc 8 789 0
 1856 08a0 039B     		ldr	r3, [sp, #12]
 1857 08a2 5A6A     		ldr	r2, [r3, #36]
 1858 08a4 039B     		ldr	r3, [sp, #12]
 1859 08a6 9B6A     		ldr	r3, [r3, #40]
ARM GAS  /tmp/ccRqzMr7.s 			page 34


 1860 08a8 9A42     		cmp	r2, r3
 1861 08aa 06D3     		bcc	.L89
 1862              		.loc 8 790 0
 1863 08ac 039B     		ldr	r3, [sp, #12]
 1864 08ae 9B69     		ldr	r3, [r3, #24]
 1865 08b0 043B     		subs	r3, r3, #4
 1866 08b2 0398     		ldr	r0, [sp, #12]
 1867 08b4 1946     		mov	r1, r3
 1868 08b6 FFF7FEFF 		bl	obqPostFullBufferS
 1869              	.L89:
 1870              		.loc 8 794 0
 1871 08ba FFF7F1FB 		bl	osalSysUnlock
 1872              		.loc 8 795 0
 1873 08be 099A     		ldr	r2, [sp, #36]
 1874 08c0 019B     		ldr	r3, [sp, #4]
 1875 08c2 9A42     		cmp	r2, r3
 1876 08c4 01D3     		bcc	.L90
 1877              		.loc 8 796 0
 1878 08c6 099B     		ldr	r3, [sp, #36]
 1879 08c8 02E0     		b	.L85
 1880              	.L90:
 1881              		.loc 8 798 0
 1882 08ca FFF7E1FB 		bl	osalSysLock
 1883              	.LBE15:
 1884              		.loc 8 799 0
 1885 08ce 7FE7     		b	.L91
 1886              	.L85:
 1887              		.loc 8 800 0
 1888 08d0 1846     		mov	r0, r3
 1889 08d2 0BB0     		add	sp, sp, #44
 1890              		@ sp needed
 1891 08d4 5DF804FB 		ldr	pc, [sp], #4
 1892              		.cfi_endproc
 1893              	.LFE286:
 1894              		.size	obqWriteTimeout, .-obqWriteTimeout
 1895              		.align	2
 1896 08d8 AFF30080 		.p2align 4,,15
 1896      AFF30080 
 1897              		.global	obqTryFlushI
 1898              		.thumb
 1899              		.thumb_func
 1900              		.type	obqTryFlushI, %function
 1901              	obqTryFlushI:
 1902              	.LFB287:
 1903              		.loc 8 815 0
 1904              		.cfi_startproc
 1905              		@ args = 0, pretend = 0, frame = 16
 1906              		@ frame_needed = 0, uses_anonymous_args = 0
 1907              		@ link register save eliminated.
 1908 08e0 84B0     		sub	sp, sp, #16
 1909              		.cfi_def_cfa_offset 16
 1910 08e2 0190     		str	r0, [sp, #4]
 1911              		.loc 8 821 0
 1912 08e4 019B     		ldr	r3, [sp, #4]
 1913 08e6 DA68     		ldr	r2, [r3, #12]
 1914 08e8 019B     		ldr	r3, [sp, #4]
 1915 08ea 1B69     		ldr	r3, [r3, #16]
ARM GAS  /tmp/ccRqzMr7.s 			page 35


 1916 08ec 9A42     		cmp	r2, r3
 1917 08ee 05D1     		bne	.L93
 1918              		.loc 8 821 0 is_stmt 0 discriminator 1
 1919 08f0 019B     		ldr	r3, [sp, #4]
 1920 08f2 9B68     		ldr	r3, [r3, #8]
 1921 08f4 002B     		cmp	r3, #0
 1922 08f6 01D0     		beq	.L93
 1923              		.loc 8 821 0 discriminator 3
 1924 08f8 0123     		movs	r3, #1
 1925 08fa 00E0     		b	.L94
 1926              	.L93:
 1927              		.loc 8 821 0 discriminator 2
 1928 08fc 0023     		movs	r3, #0
 1929              	.L94:
 1930              		.loc 8 821 0 discriminator 4
 1931 08fe 03F00103 		and	r3, r3, #1
 1932 0902 DBB2     		uxtb	r3, r3
 1933 0904 002B     		cmp	r3, #0
 1934 0906 2DD0     		beq	.L95
 1935              		.loc 8 821 0 discriminator 1
 1936 0908 019B     		ldr	r3, [sp, #4]
 1937 090a 5B6A     		ldr	r3, [r3, #36]
 1938 090c 002B     		cmp	r3, #0
 1939 090e 29D0     		beq	.L95
 1940              	.LBB18:
 1941              		.loc 8 822 0 is_stmt 1
 1942 0910 019B     		ldr	r3, [sp, #4]
 1943 0912 5B6A     		ldr	r3, [r3, #36]
 1944 0914 1A46     		mov	r2, r3
 1945 0916 019B     		ldr	r3, [sp, #4]
 1946 0918 DB68     		ldr	r3, [r3, #12]
 1947 091a D31A     		subs	r3, r2, r3
 1948 091c 043B     		subs	r3, r3, #4
 1949 091e 0393     		str	r3, [sp, #12]
 1950              		.loc 8 824 0
 1951 0920 039B     		ldr	r3, [sp, #12]
 1952 0922 002B     		cmp	r3, #0
 1953 0924 1ED0     		beq	.L95
 1954              		.loc 8 827 0
 1955 0926 019B     		ldr	r3, [sp, #4]
 1956 0928 DB68     		ldr	r3, [r3, #12]
 1957 092a 039A     		ldr	r2, [sp, #12]
 1958 092c 1A60     		str	r2, [r3]
 1959              		.loc 8 830 0
 1960 092e 019B     		ldr	r3, [sp, #4]
 1961 0930 9B68     		ldr	r3, [r3, #8]
 1962 0932 5A1E     		subs	r2, r3, #1
 1963 0934 019B     		ldr	r3, [sp, #4]
 1964 0936 9A60     		str	r2, [r3, #8]
 1965              		.loc 8 831 0
 1966 0938 019B     		ldr	r3, [sp, #4]
 1967 093a DA68     		ldr	r2, [r3, #12]
 1968 093c 019B     		ldr	r3, [sp, #4]
 1969 093e 9B69     		ldr	r3, [r3, #24]
 1970 0940 1A44     		add	r2, r2, r3
 1971 0942 019B     		ldr	r3, [sp, #4]
 1972 0944 DA60     		str	r2, [r3, #12]
ARM GAS  /tmp/ccRqzMr7.s 			page 36


 1973              		.loc 8 832 0
 1974 0946 019B     		ldr	r3, [sp, #4]
 1975 0948 DA68     		ldr	r2, [r3, #12]
 1976 094a 019B     		ldr	r3, [sp, #4]
 1977 094c 5B69     		ldr	r3, [r3, #20]
 1978 094e 9A42     		cmp	r2, r3
 1979 0950 03D3     		bcc	.L96
 1980              		.loc 8 833 0
 1981 0952 019B     		ldr	r3, [sp, #4]
 1982 0954 1A6A     		ldr	r2, [r3, #32]
 1983 0956 019B     		ldr	r3, [sp, #4]
 1984 0958 DA60     		str	r2, [r3, #12]
 1985              	.L96:
 1986              		.loc 8 837 0
 1987 095a 019B     		ldr	r3, [sp, #4]
 1988 095c 0022     		movs	r2, #0
 1989 095e 5A62     		str	r2, [r3, #36]
 1990              		.loc 8 839 0
 1991 0960 0123     		movs	r3, #1
 1992 0962 00E0     		b	.L97
 1993              	.L95:
 1994              	.LBE18:
 1995              		.loc 8 842 0
 1996 0964 0023     		movs	r3, #0
 1997              	.L97:
 1998              		.loc 8 843 0
 1999 0966 1846     		mov	r0, r3
 2000 0968 04B0     		add	sp, sp, #16
 2001              		@ sp needed
 2002 096a 7047     		bx	lr
 2003              		.cfi_endproc
 2004              	.LFE287:
 2005              		.size	obqTryFlushI, .-obqTryFlushI
 2006              		.align	2
 2007 096c AFF30080 		.p2align 4,,15
 2008              		.global	obqFlush
 2009              		.thumb
 2010              		.thumb_func
 2011              		.type	obqFlush, %function
 2012              	obqFlush:
 2013              	.LFB288:
 2014              		.loc 8 852 0
 2015              		.cfi_startproc
 2016              		@ args = 0, pretend = 0, frame = 16
 2017              		@ frame_needed = 0, uses_anonymous_args = 0
 2018 0970 00B5     		push	{lr}
 2019              		.cfi_def_cfa_offset 4
 2020              		.cfi_offset 14, -4
 2021 0972 85B0     		sub	sp, sp, #20
 2022              		.cfi_def_cfa_offset 24
 2023 0974 0190     		str	r0, [sp, #4]
 2024              		.loc 8 854 0
 2025 0976 FFF78BFB 		bl	osalSysLock
 2026              		.loc 8 857 0
 2027 097a 019B     		ldr	r3, [sp, #4]
 2028 097c 5B6A     		ldr	r3, [r3, #36]
 2029 097e 002B     		cmp	r3, #0
ARM GAS  /tmp/ccRqzMr7.s 			page 37


 2030 0980 0ED0     		beq	.L99
 2031              	.LBB19:
 2032              		.loc 8 858 0
 2033 0982 019B     		ldr	r3, [sp, #4]
 2034 0984 5B6A     		ldr	r3, [r3, #36]
 2035 0986 1A46     		mov	r2, r3
 2036 0988 019B     		ldr	r3, [sp, #4]
 2037 098a DB68     		ldr	r3, [r3, #12]
 2038 098c D31A     		subs	r3, r2, r3
 2039 098e 043B     		subs	r3, r3, #4
 2040 0990 0393     		str	r3, [sp, #12]
 2041              		.loc 8 860 0
 2042 0992 039B     		ldr	r3, [sp, #12]
 2043 0994 002B     		cmp	r3, #0
 2044 0996 03D0     		beq	.L99
 2045              		.loc 8 861 0
 2046 0998 0198     		ldr	r0, [sp, #4]
 2047 099a 0399     		ldr	r1, [sp, #12]
 2048 099c FFF7FEFF 		bl	obqPostFullBufferS
 2049              	.L99:
 2050              	.LBE19:
 2051              		.loc 8 865 0
 2052 09a0 FFF77EFB 		bl	osalSysUnlock
 2053              		.loc 8 866 0
 2054 09a4 05B0     		add	sp, sp, #20
 2055              		@ sp needed
 2056 09a6 5DF804FB 		ldr	pc, [sp], #4
 2057              		.cfi_endproc
 2058              	.LFE288:
 2059              		.size	obqFlush, .-obqFlush
 2060              	.Letext0:
 2061              		.file 9 "/nfs/nfs5/home/research/hardware/arm2/gcc-arm-embedded/gcc-arm-none-eabi-4_8-2014q2/lib/g
 2062              		.file 10 "/nfs/nfs5/home/research/hardware/arm2/gcc-arm-embedded/gcc-arm-none-eabi-4_8-2014q2/arm-
 2063              		.file 11 "/nfs/nfs5/home/research/hardware/arm2/gcc-arm-embedded/gcc-arm-none-eabi-4_8-2014q2/arm-
 2064              		.file 12 "../../ChibiOS/os/rt/ports/ARMCMx/compilers/GCC/chtypes.h"
 2065              		.file 13 "../../ChibiOS/os/rt/include/chsystypes.h"
 2066              		.file 14 "../../ChibiOS/os/rt/ports/ARMCMx/chcore.h"
 2067              		.file 15 "../../ChibiOS/os/rt/include/chtm.h"
 2068              		.file 16 "../../ChibiOS/os/rt/include/chsem.h"
 2069              		.file 17 "../../ChibiOS/os/rt/include/chmtx.h"
 2070              		.file 18 "../../ChibiOS/os/hal/include/hal_buffers.h"
 2071              		.file 19 "../../ChibiOS/os/ext/CMSIS/include/core_cm4.h"
 2072 09aa 00BFAFF3 		.section	.debug_info,"",%progbits
 2072      0080
 2073              	.Ldebug_info0:
 2074 0000 9C100000 		.4byte	0x109c
 2075 0004 0400     		.2byte	0x4
 2076 0006 00000000 		.4byte	.Ldebug_abbrev0
 2077 000a 04       		.byte	0x4
 2078 000b 01       		.uleb128 0x1
 2079 000c 58030000 		.4byte	.LASF166
 2080 0010 01       		.byte	0x1
 2081 0011 DB060000 		.4byte	.LASF167
 2082 0015 69000000 		.4byte	.LASF168
 2083 0019 00000000 		.4byte	.Ltext0
 2084 001d AA090000 		.4byte	.Letext0-.Ltext0
 2085 0021 00000000 		.4byte	.Ldebug_line0
ARM GAS  /tmp/ccRqzMr7.s 			page 38


 2086 0025 02       		.uleb128 0x2
 2087 0026 04       		.byte	0x4
 2088 0027 05       		.byte	0x5
 2089 0028 696E7400 		.ascii	"int\000"
 2090 002c 03       		.uleb128 0x3
 2091 002d 20000000 		.4byte	.LASF2
 2092 0031 09       		.byte	0x9
 2093 0032 D4       		.byte	0xd4
 2094 0033 37000000 		.4byte	0x37
 2095 0037 04       		.uleb128 0x4
 2096 0038 04       		.byte	0x4
 2097 0039 07       		.byte	0x7
 2098 003a BA020000 		.4byte	.LASF0
 2099 003e 04       		.uleb128 0x4
 2100 003f 01       		.byte	0x1
 2101 0040 06       		.byte	0x6
 2102 0041 2F010000 		.4byte	.LASF1
 2103 0045 03       		.uleb128 0x3
 2104 0046 37000000 		.4byte	.LASF3
 2105 004a 0A       		.byte	0xa
 2106 004b 1C       		.byte	0x1c
 2107 004c 50000000 		.4byte	0x50
 2108 0050 04       		.uleb128 0x4
 2109 0051 01       		.byte	0x1
 2110 0052 08       		.byte	0x8
 2111 0053 9F050000 		.4byte	.LASF4
 2112 0057 04       		.uleb128 0x4
 2113 0058 02       		.byte	0x2
 2114 0059 05       		.byte	0x5
 2115 005a C5050000 		.4byte	.LASF5
 2116 005e 04       		.uleb128 0x4
 2117 005f 02       		.byte	0x2
 2118 0060 07       		.byte	0x7
 2119 0061 16030000 		.4byte	.LASF6
 2120 0065 03       		.uleb128 0x3
 2121 0066 36040000 		.4byte	.LASF7
 2122 006a 0A       		.byte	0xa
 2123 006b 37       		.byte	0x37
 2124 006c 70000000 		.4byte	0x70
 2125 0070 04       		.uleb128 0x4
 2126 0071 04       		.byte	0x4
 2127 0072 05       		.byte	0x5
 2128 0073 9F010000 		.4byte	.LASF8
 2129 0077 03       		.uleb128 0x3
 2130 0078 2F070000 		.4byte	.LASF9
 2131 007c 0A       		.byte	0xa
 2132 007d 38       		.byte	0x38
 2133 007e 82000000 		.4byte	0x82
 2134 0082 04       		.uleb128 0x4
 2135 0083 04       		.byte	0x4
 2136 0084 07       		.byte	0x7
 2137 0085 AB060000 		.4byte	.LASF10
 2138 0089 04       		.uleb128 0x4
 2139 008a 08       		.byte	0x8
 2140 008b 05       		.byte	0x5
 2141 008c C3010000 		.4byte	.LASF11
 2142 0090 03       		.uleb128 0x3
ARM GAS  /tmp/ccRqzMr7.s 			page 39


 2143 0091 32050000 		.4byte	.LASF12
 2144 0095 0A       		.byte	0xa
 2145 0096 4E       		.byte	0x4e
 2146 0097 9B000000 		.4byte	0x9b
 2147 009b 04       		.uleb128 0x4
 2148 009c 08       		.byte	0x8
 2149 009d 07       		.byte	0x7
 2150 009e B0000000 		.4byte	.LASF13
 2151 00a2 04       		.uleb128 0x4
 2152 00a3 04       		.byte	0x4
 2153 00a4 07       		.byte	0x7
 2154 00a5 C7020000 		.4byte	.LASF14
 2155 00a9 05       		.uleb128 0x5
 2156 00aa 04       		.byte	0x4
 2157 00ab 04       		.uleb128 0x4
 2158 00ac 01       		.byte	0x1
 2159 00ad 08       		.byte	0x8
 2160 00ae C4060000 		.4byte	.LASF15
 2161 00b2 06       		.uleb128 0x6
 2162 00b3 04       		.byte	0x4
 2163 00b4 B8000000 		.4byte	0xb8
 2164 00b8 07       		.uleb128 0x7
 2165 00b9 AB000000 		.4byte	0xab
 2166 00bd 08       		.uleb128 0x8
 2167 00be AB000000 		.4byte	0xab
 2168 00c2 CD000000 		.4byte	0xcd
 2169 00c6 09       		.uleb128 0x9
 2170 00c7 A2000000 		.4byte	0xa2
 2171 00cb 19       		.byte	0x19
 2172 00cc 00       		.byte	0
 2173 00cd 08       		.uleb128 0x8
 2174 00ce AB000000 		.4byte	0xab
 2175 00d2 DD000000 		.4byte	0xdd
 2176 00d6 09       		.uleb128 0x9
 2177 00d7 A2000000 		.4byte	0xa2
 2178 00db 18       		.byte	0x18
 2179 00dc 00       		.byte	0
 2180 00dd 03       		.uleb128 0x3
 2181 00de 27070000 		.4byte	.LASF16
 2182 00e2 0B       		.byte	0xb
 2183 00e3 2A       		.byte	0x2a
 2184 00e4 45000000 		.4byte	0x45
 2185 00e8 03       		.uleb128 0x3
 2186 00e9 97050000 		.4byte	.LASF17
 2187 00ed 0B       		.byte	0xb
 2188 00ee 41       		.byte	0x41
 2189 00ef 65000000 		.4byte	0x65
 2190 00f3 03       		.uleb128 0x3
 2191 00f4 65060000 		.4byte	.LASF18
 2192 00f8 0B       		.byte	0xb
 2193 00f9 42       		.byte	0x42
 2194 00fa 77000000 		.4byte	0x77
 2195 00fe 03       		.uleb128 0x3
 2196 00ff 2E000000 		.4byte	.LASF19
 2197 0103 0B       		.byte	0xb
 2198 0104 4E       		.byte	0x4e
 2199 0105 90000000 		.4byte	0x90
ARM GAS  /tmp/ccRqzMr7.s 			page 40


 2200 0109 03       		.uleb128 0x3
 2201 010a 7A040000 		.4byte	.LASF20
 2202 010e 0C       		.byte	0xc
 2203 010f 39       		.byte	0x39
 2204 0110 F3000000 		.4byte	0xf3
 2205 0114 03       		.uleb128 0x3
 2206 0115 50030000 		.4byte	.LASF21
 2207 0119 0C       		.byte	0xc
 2208 011a 3C       		.byte	0x3c
 2209 011b DD000000 		.4byte	0xdd
 2210 011f 03       		.uleb128 0x3
 2211 0120 D1010000 		.4byte	.LASF22
 2212 0124 0C       		.byte	0xc
 2213 0125 3D       		.byte	0x3d
 2214 0126 DD000000 		.4byte	0xdd
 2215 012a 03       		.uleb128 0x3
 2216 012b 46050000 		.4byte	.LASF23
 2217 012f 0C       		.byte	0xc
 2218 0130 3E       		.byte	0x3e
 2219 0131 DD000000 		.4byte	0xdd
 2220 0135 03       		.uleb128 0x3
 2221 0136 8F010000 		.4byte	.LASF24
 2222 013a 0C       		.byte	0xc
 2223 013b 3F       		.byte	0x3f
 2224 013c DD000000 		.4byte	0xdd
 2225 0140 03       		.uleb128 0x3
 2226 0141 00000000 		.4byte	.LASF25
 2227 0145 0C       		.byte	0xc
 2228 0146 40       		.byte	0x40
 2229 0147 F3000000 		.4byte	0xf3
 2230 014b 03       		.uleb128 0x3
 2231 014c 3E030000 		.4byte	.LASF26
 2232 0150 0C       		.byte	0xc
 2233 0151 41       		.byte	0x41
 2234 0152 E8000000 		.4byte	0xe8
 2235 0156 03       		.uleb128 0x3
 2236 0157 2A040000 		.4byte	.LASF27
 2237 015b 0C       		.byte	0xc
 2238 015c 43       		.byte	0x43
 2239 015d F3000000 		.4byte	0xf3
 2240 0161 03       		.uleb128 0x3
 2241 0162 A1020000 		.4byte	.LASF28
 2242 0166 0C       		.byte	0xc
 2243 0167 45       		.byte	0x45
 2244 0168 E8000000 		.4byte	0xe8
 2245 016c 03       		.uleb128 0x3
 2246 016d 12070000 		.4byte	.LASF29
 2247 0171 0D       		.byte	0xd
 2248 0172 33       		.byte	0x33
 2249 0173 F3000000 		.4byte	0xf3
 2250 0177 03       		.uleb128 0x3
 2251 0178 02070000 		.4byte	.LASF30
 2252 017c 0D       		.byte	0xd
 2253 017d 3F       		.byte	0x3f
 2254 017e 82010000 		.4byte	0x182
 2255 0182 0A       		.uleb128 0xa
 2256 0183 29030000 		.4byte	.LASF51
ARM GAS  /tmp/ccRqzMr7.s 			page 41


 2257 0187 44       		.byte	0x44
 2258 0188 03       		.byte	0x3
 2259 0189 C2       		.byte	0xc2
 2260 018a 7B020000 		.4byte	0x27b
 2261 018e 0B       		.uleb128 0xb
 2262 018f F5050000 		.4byte	.LASF31
 2263 0193 03       		.byte	0x3
 2264 0194 C3       		.byte	0xc3
 2265 0195 86020000 		.4byte	0x286
 2266 0199 00       		.byte	0
 2267 019a 0B       		.uleb128 0xb
 2268 019b 5E050000 		.4byte	.LASF32
 2269 019f 03       		.byte	0x3
 2270 01a0 C5       		.byte	0xc5
 2271 01a1 86020000 		.4byte	0x286
 2272 01a5 04       		.byte	0x4
 2273 01a6 0B       		.uleb128 0xb
 2274 01a7 1B010000 		.4byte	.LASF33
 2275 01ab 03       		.byte	0x3
 2276 01ac C7       		.byte	0xc7
 2277 01ad 40010000 		.4byte	0x140
 2278 01b1 08       		.byte	0x8
 2279 01b2 0B       		.uleb128 0xb
 2280 01b3 A1080000 		.4byte	.LASF34
 2281 01b7 03       		.byte	0x3
 2282 01b8 C8       		.byte	0xc8
 2283 01b9 AD040000 		.4byte	0x4ad
 2284 01bd 0C       		.byte	0xc
 2285 01be 0B       		.uleb128 0xb
 2286 01bf F3010000 		.4byte	.LASF35
 2287 01c3 03       		.byte	0x3
 2288 01c4 CA       		.byte	0xca
 2289 01c5 86020000 		.4byte	0x286
 2290 01c9 10       		.byte	0x10
 2291 01ca 0B       		.uleb128 0xb
 2292 01cb E4040000 		.4byte	.LASF36
 2293 01cf 03       		.byte	0x3
 2294 01d0 CB       		.byte	0xcb
 2295 01d1 86020000 		.4byte	0x286
 2296 01d5 14       		.byte	0x14
 2297 01d6 0B       		.uleb128 0xb
 2298 01d7 1F080000 		.4byte	.LASF37
 2299 01db 03       		.byte	0x3
 2300 01dc D2       		.byte	0xd2
 2301 01dd B2000000 		.4byte	0xb2
 2302 01e1 18       		.byte	0x18
 2303 01e2 0B       		.uleb128 0xb
 2304 01e3 BD050000 		.4byte	.LASF38
 2305 01e7 03       		.byte	0x3
 2306 01e8 DD       		.byte	0xdd
 2307 01e9 1F010000 		.4byte	0x11f
 2308 01ed 1C       		.byte	0x1c
 2309 01ee 0B       		.uleb128 0xb
 2310 01ef 76080000 		.4byte	.LASF39
 2311 01f3 03       		.byte	0x3
 2312 01f4 E1       		.byte	0xe1
 2313 01f5 14010000 		.4byte	0x114
ARM GAS  /tmp/ccRqzMr7.s 			page 42


 2314 01f9 1D       		.byte	0x1d
 2315 01fa 0B       		.uleb128 0xb
 2316 01fb CC070000 		.4byte	.LASF40
 2317 01ff 03       		.byte	0x3
 2318 0200 E6       		.byte	0xe6
 2319 0201 2A010000 		.4byte	0x12a
 2320 0205 1E       		.byte	0x1e
 2321 0206 0B       		.uleb128 0xb
 2322 0207 CF050000 		.4byte	.LASF41
 2323 020b 03       		.byte	0x3
 2324 020c EC       		.byte	0xec
 2325 020d 35010000 		.4byte	0x135
 2326 0211 1F       		.byte	0x1f
 2327 0212 0C       		.uleb128 0xc
 2328 0213 705F7500 		.ascii	"p_u\000"
 2329 0217 03       		.byte	0x3
 2330 0218 3101     		.2byte	0x131
 2331 021a 67050000 		.4byte	0x567
 2332 021e 20       		.byte	0x20
 2333 021f 0D       		.uleb128 0xd
 2334 0220 A7080000 		.4byte	.LASF42
 2335 0224 03       		.byte	0x3
 2336 0225 3601     		.2byte	0x136
 2337 0227 8C020000 		.4byte	0x28c
 2338 022b 24       		.byte	0x24
 2339 022c 0D       		.uleb128 0xd
 2340 022d 80070000 		.4byte	.LASF43
 2341 0231 03       		.byte	0x3
 2342 0232 3C01     		.2byte	0x13c
 2343 0234 B0020000 		.4byte	0x2b0
 2344 0238 28       		.byte	0x28
 2345 0239 0D       		.uleb128 0xd
 2346 023a 8A080000 		.4byte	.LASF44
 2347 023e 03       		.byte	0x3
 2348 023f 4001     		.2byte	0x140
 2349 0241 4B010000 		.4byte	0x14b
 2350 0245 30       		.byte	0x30
 2351 0246 0D       		.uleb128 0xd
 2352 0247 5A060000 		.4byte	.LASF45
 2353 024b 03       		.byte	0x3
 2354 024c 4601     		.2byte	0x146
 2355 024e 56010000 		.4byte	0x156
 2356 0252 34       		.byte	0x34
 2357 0253 0D       		.uleb128 0xd
 2358 0254 B9010000 		.4byte	.LASF46
 2359 0258 03       		.byte	0x3
 2360 0259 4D01     		.2byte	0x14d
 2361 025b 26060000 		.4byte	0x626
 2362 025f 38       		.byte	0x38
 2363 0260 0D       		.uleb128 0xd
 2364 0261 1C070000 		.4byte	.LASF47
 2365 0265 03       		.byte	0x3
 2366 0266 5101     		.2byte	0x151
 2367 0268 40010000 		.4byte	0x140
 2368 026c 3C       		.byte	0x3c
 2369 026d 0D       		.uleb128 0xd
 2370 026e 19020000 		.4byte	.LASF48
ARM GAS  /tmp/ccRqzMr7.s 			page 43


 2371 0272 03       		.byte	0x3
 2372 0273 5801     		.2byte	0x158
 2373 0275 A9000000 		.4byte	0xa9
 2374 0279 40       		.byte	0x40
 2375 027a 00       		.byte	0
 2376 027b 03       		.uleb128 0x3
 2377 027c 82040000 		.4byte	.LASF49
 2378 0280 0D       		.byte	0xd
 2379 0281 44       		.byte	0x44
 2380 0282 86020000 		.4byte	0x286
 2381 0286 06       		.uleb128 0x6
 2382 0287 04       		.byte	0x4
 2383 0288 77010000 		.4byte	0x177
 2384 028c 03       		.uleb128 0x3
 2385 028d 52080000 		.4byte	.LASF50
 2386 0291 0D       		.byte	0xd
 2387 0292 49       		.byte	0x49
 2388 0293 97020000 		.4byte	0x297
 2389 0297 0A       		.uleb128 0xa
 2390 0298 88060000 		.4byte	.LASF52
 2391 029c 04       		.byte	0x4
 2392 029d 03       		.byte	0x3
 2393 029e B0       		.byte	0xb0
 2394 029f B0020000 		.4byte	0x2b0
 2395 02a3 0B       		.uleb128 0xb
 2396 02a4 F5050000 		.4byte	.LASF31
 2397 02a8 03       		.byte	0x3
 2398 02a9 B1       		.byte	0xb1
 2399 02aa 86020000 		.4byte	0x286
 2400 02ae 00       		.byte	0
 2401 02af 00       		.byte	0
 2402 02b0 03       		.uleb128 0x3
 2403 02b1 BC070000 		.4byte	.LASF53
 2404 02b5 0D       		.byte	0xd
 2405 02b6 50       		.byte	0x50
 2406 02b7 BB020000 		.4byte	0x2bb
 2407 02bb 0A       		.uleb128 0xa
 2408 02bc 0A010000 		.4byte	.LASF54
 2409 02c0 08       		.byte	0x8
 2410 02c1 03       		.byte	0x3
 2411 02c2 B7       		.byte	0xb7
 2412 02c3 E0020000 		.4byte	0x2e0
 2413 02c7 0B       		.uleb128 0xb
 2414 02c8 F5050000 		.4byte	.LASF31
 2415 02cc 03       		.byte	0x3
 2416 02cd B8       		.byte	0xb8
 2417 02ce 86020000 		.4byte	0x286
 2418 02d2 00       		.byte	0
 2419 02d3 0B       		.uleb128 0xb
 2420 02d4 5E050000 		.4byte	.LASF32
 2421 02d8 03       		.byte	0x3
 2422 02d9 B9       		.byte	0xb9
 2423 02da 86020000 		.4byte	0x286
 2424 02de 04       		.byte	0x4
 2425 02df 00       		.byte	0
 2426 02e0 03       		.uleb128 0x3
 2427 02e1 AF070000 		.4byte	.LASF55
ARM GAS  /tmp/ccRqzMr7.s 			page 44


 2428 02e5 0D       		.byte	0xd
 2429 02e6 57       		.byte	0x57
 2430 02e7 EB020000 		.4byte	0x2eb
 2431 02eb 0E       		.uleb128 0xe
 2432 02ec 1C040000 		.4byte	.LASF56
 2433 02f0 1C       		.byte	0x1c
 2434 02f1 03       		.byte	0x3
 2435 02f2 9001     		.2byte	0x190
 2436 02f4 47030000 		.4byte	0x347
 2437 02f8 0D       		.uleb128 0xd
 2438 02f9 75060000 		.4byte	.LASF57
 2439 02fd 03       		.byte	0x3
 2440 02fe 9101     		.2byte	0x191
 2441 0300 B0020000 		.4byte	0x2b0
 2442 0304 00       		.byte	0
 2443 0305 0D       		.uleb128 0xd
 2444 0306 D9050000 		.4byte	.LASF58
 2445 030a 03       		.byte	0x3
 2446 030b 9201     		.2byte	0x192
 2447 030d 40010000 		.4byte	0x140
 2448 0311 08       		.byte	0x8
 2449 0312 0D       		.uleb128 0xd
 2450 0313 FA040000 		.4byte	.LASF59
 2451 0317 03       		.byte	0x3
 2452 0318 9401     		.2byte	0x194
 2453 031a AD040000 		.4byte	0x4ad
 2454 031e 0C       		.byte	0xc
 2455 031f 0D       		.uleb128 0xd
 2456 0320 11020000 		.4byte	.LASF60
 2457 0324 03       		.byte	0x3
 2458 0325 9701     		.2byte	0x197
 2459 0327 86020000 		.4byte	0x286
 2460 032b 10       		.byte	0x10
 2461 032c 0D       		.uleb128 0xd
 2462 032d 2A050000 		.4byte	.LASF61
 2463 0331 03       		.byte	0x3
 2464 0332 9801     		.2byte	0x198
 2465 0334 86020000 		.4byte	0x286
 2466 0338 14       		.byte	0x14
 2467 0339 0D       		.uleb128 0xd
 2468 033a 20050000 		.4byte	.LASF62
 2469 033e 03       		.byte	0x3
 2470 033f 9B01     		.2byte	0x19b
 2471 0341 86020000 		.4byte	0x286
 2472 0345 18       		.byte	0x18
 2473 0346 00       		.byte	0
 2474 0347 03       		.uleb128 0x3
 2475 0348 07030000 		.4byte	.LASF63
 2476 034c 0D       		.byte	0xd
 2477 034d 5C       		.byte	0x5c
 2478 034e 52030000 		.4byte	0x352
 2479 0352 06       		.uleb128 0x6
 2480 0353 04       		.byte	0x4
 2481 0354 58030000 		.4byte	0x358
 2482 0358 0F       		.uleb128 0xf
 2483 0359 63030000 		.4byte	0x363
 2484 035d 10       		.uleb128 0x10
ARM GAS  /tmp/ccRqzMr7.s 			page 45


 2485 035e A9000000 		.4byte	0xa9
 2486 0362 00       		.byte	0
 2487 0363 03       		.uleb128 0x3
 2488 0364 4E050000 		.4byte	.LASF64
 2489 0368 0D       		.byte	0xd
 2490 0369 61       		.byte	0x61
 2491 036a 6E030000 		.4byte	0x36e
 2492 036e 0E       		.uleb128 0xe
 2493 036f 3C060000 		.4byte	.LASF65
 2494 0373 14       		.byte	0x14
 2495 0374 03       		.byte	0x3
 2496 0375 6B01     		.2byte	0x16b
 2497 0377 BD030000 		.4byte	0x3bd
 2498 037b 0D       		.uleb128 0xd
 2499 037c EF020000 		.4byte	.LASF66
 2500 0380 03       		.byte	0x3
 2501 0381 6C01     		.2byte	0x16c
 2502 0383 2C060000 		.4byte	0x62c
 2503 0387 00       		.byte	0
 2504 0388 0D       		.uleb128 0xd
 2505 0389 2A020000 		.4byte	.LASF67
 2506 038d 03       		.byte	0x3
 2507 038e 6D01     		.2byte	0x16d
 2508 0390 2C060000 		.4byte	0x62c
 2509 0394 04       		.byte	0x4
 2510 0395 0D       		.uleb128 0xd
 2511 0396 D7020000 		.4byte	.LASF68
 2512 039a 03       		.byte	0x3
 2513 039b 6E01     		.2byte	0x16e
 2514 039d 6C010000 		.4byte	0x16c
 2515 03a1 08       		.byte	0x8
 2516 03a2 0D       		.uleb128 0xd
 2517 03a3 AC040000 		.4byte	.LASF69
 2518 03a7 03       		.byte	0x3
 2519 03a8 6F01     		.2byte	0x16f
 2520 03aa 47030000 		.4byte	0x347
 2521 03ae 0C       		.byte	0xc
 2522 03af 0D       		.uleb128 0xd
 2523 03b0 9D070000 		.4byte	.LASF70
 2524 03b4 03       		.byte	0x3
 2525 03b5 7101     		.2byte	0x171
 2526 03b7 A9000000 		.4byte	0xa9
 2527 03bb 10       		.byte	0x10
 2528 03bc 00       		.byte	0
 2529 03bd 03       		.uleb128 0x3
 2530 03be E7000000 		.4byte	.LASF71
 2531 03c2 0D       		.byte	0xd
 2532 03c3 66       		.byte	0x66
 2533 03c4 C8030000 		.4byte	0x3c8
 2534 03c8 0E       		.uleb128 0xe
 2535 03c9 95040000 		.4byte	.LASF72
 2536 03cd 10       		.byte	0x10
 2537 03ce 03       		.byte	0x3
 2538 03cf 7B01     		.2byte	0x17b
 2539 03d1 0A040000 		.4byte	0x40a
 2540 03d5 0D       		.uleb128 0xd
 2541 03d6 EF020000 		.4byte	.LASF66
ARM GAS  /tmp/ccRqzMr7.s 			page 46


 2542 03da 03       		.byte	0x3
 2543 03db 7C01     		.2byte	0x17c
 2544 03dd 2C060000 		.4byte	0x62c
 2545 03e1 00       		.byte	0
 2546 03e2 0D       		.uleb128 0xd
 2547 03e3 2A020000 		.4byte	.LASF67
 2548 03e7 03       		.byte	0x3
 2549 03e8 7E01     		.2byte	0x17e
 2550 03ea 2C060000 		.4byte	0x62c
 2551 03ee 04       		.byte	0x4
 2552 03ef 0D       		.uleb128 0xd
 2553 03f0 D7020000 		.4byte	.LASF68
 2554 03f4 03       		.byte	0x3
 2555 03f5 8001     		.2byte	0x180
 2556 03f7 6C010000 		.4byte	0x16c
 2557 03fb 08       		.byte	0x8
 2558 03fc 0D       		.uleb128 0xd
 2559 03fd 7D060000 		.4byte	.LASF73
 2560 0401 03       		.byte	0x3
 2561 0402 8201     		.2byte	0x182
 2562 0404 32060000 		.4byte	0x632
 2563 0408 0C       		.byte	0xc
 2564 0409 00       		.byte	0
 2565 040a 03       		.uleb128 0x3
 2566 040b E0020000 		.4byte	.LASF74
 2567 040f 0D       		.byte	0xd
 2568 0410 6B       		.byte	0x6b
 2569 0411 15040000 		.4byte	0x415
 2570 0415 0E       		.uleb128 0xe
 2571 0416 81050000 		.4byte	.LASF75
 2572 041a 04       		.byte	0x4
 2573 041b 03       		.byte	0x3
 2574 041c A201     		.2byte	0x1a2
 2575 041e 30040000 		.4byte	0x430
 2576 0422 0D       		.uleb128 0xd
 2577 0423 48070000 		.4byte	.LASF76
 2578 0427 03       		.byte	0x3
 2579 0428 AA01     		.2byte	0x1aa
 2580 042a 37060000 		.4byte	0x637
 2581 042e 00       		.byte	0
 2582 042f 00       		.byte	0
 2583 0430 03       		.uleb128 0x3
 2584 0431 44030000 		.4byte	.LASF77
 2585 0435 0D       		.byte	0xd
 2586 0436 70       		.byte	0x70
 2587 0437 3B040000 		.4byte	0x43b
 2588 043b 11       		.uleb128 0x11
 2589 043c 14060000 		.4byte	.LASF78
 2590 0440 5001     		.2byte	0x150
 2591 0442 03       		.byte	0x3
 2592 0443 C201     		.2byte	0x1c2
 2593 0445 97040000 		.4byte	0x497
 2594 0449 0D       		.uleb128 0xd
 2595 044a EA070000 		.4byte	.LASF79
 2596 044e 03       		.byte	0x3
 2597 044f C601     		.2byte	0x1c6
 2598 0451 E0020000 		.4byte	0x2e0
ARM GAS  /tmp/ccRqzMr7.s 			page 47


 2599 0455 00       		.byte	0
 2600 0456 0D       		.uleb128 0xd
 2601 0457 4D000000 		.4byte	.LASF80
 2602 045b 03       		.byte	0x3
 2603 045c CA01     		.2byte	0x1ca
 2604 045e BD030000 		.4byte	0x3bd
 2605 0462 1C       		.byte	0x1c
 2606 0463 0C       		.uleb128 0xc
 2607 0464 64626700 		.ascii	"dbg\000"
 2608 0468 03       		.byte	0x3
 2609 0469 CE01     		.2byte	0x1ce
 2610 046b 0A040000 		.4byte	0x40a
 2611 046f 2C       		.byte	0x2c
 2612 0470 0D       		.uleb128 0xd
 2613 0471 33030000 		.4byte	.LASF81
 2614 0475 03       		.byte	0x3
 2615 0476 D201     		.2byte	0x1d2
 2616 0478 77010000 		.4byte	0x177
 2617 047c 30       		.byte	0x30
 2618 047d 0C       		.uleb128 0xc
 2619 047e 746D00   		.ascii	"tm\000"
 2620 0481 03       		.byte	0x3
 2621 0482 D701     		.2byte	0x1d7
 2622 0484 5C050000 		.4byte	0x55c
 2623 0488 74       		.byte	0x74
 2624 0489 0D       		.uleb128 0xd
 2625 048a 89020000 		.4byte	.LASF82
 2626 048e 03       		.byte	0x3
 2627 048f E301     		.2byte	0x1e3
 2628 0491 3C060000 		.4byte	0x63c
 2629 0495 78       		.byte	0x78
 2630 0496 00       		.byte	0
 2631 0497 03       		.uleb128 0x3
 2632 0498 21020000 		.4byte	.LASF83
 2633 049c 0E       		.byte	0xe
 2634 049d 65       		.byte	0x65
 2635 049e A9000000 		.4byte	0xa9
 2636 04a2 03       		.uleb128 0x3
 2637 04a3 5A040000 		.4byte	.LASF84
 2638 04a7 0E       		.byte	0xe
 2639 04a8 6D       		.byte	0x6d
 2640 04a9 FE000000 		.4byte	0xfe
 2641 04ad 0A       		.uleb128 0xa
 2642 04ae 59070000 		.4byte	.LASF85
 2643 04b2 04       		.byte	0x4
 2644 04b3 0E       		.byte	0xe
 2645 04b4 89       		.byte	0x89
 2646 04b5 C6040000 		.4byte	0x4c6
 2647 04b9 12       		.uleb128 0x12
 2648 04ba 72313300 		.ascii	"r13\000"
 2649 04be 0E       		.byte	0xe
 2650 04bf 8A       		.byte	0x8a
 2651 04c0 41050000 		.4byte	0x541
 2652 04c4 00       		.byte	0
 2653 04c5 00       		.byte	0
 2654 04c6 0A       		.uleb128 0xa
 2655 04c7 41000000 		.4byte	.LASF86
ARM GAS  /tmp/ccRqzMr7.s 			page 48


 2656 04cb 24       		.byte	0x24
 2657 04cc 01       		.byte	0x1
 2658 04cd FD       		.byte	0xfd
 2659 04ce 41050000 		.4byte	0x541
 2660 04d2 0C       		.uleb128 0xc
 2661 04d3 723400   		.ascii	"r4\000"
 2662 04d6 01       		.byte	0x1
 2663 04d7 1001     		.2byte	0x110
 2664 04d9 97040000 		.4byte	0x497
 2665 04dd 00       		.byte	0
 2666 04de 0C       		.uleb128 0xc
 2667 04df 723500   		.ascii	"r5\000"
 2668 04e2 01       		.byte	0x1
 2669 04e3 1101     		.2byte	0x111
 2670 04e5 97040000 		.4byte	0x497
 2671 04e9 04       		.byte	0x4
 2672 04ea 0C       		.uleb128 0xc
 2673 04eb 723600   		.ascii	"r6\000"
 2674 04ee 01       		.byte	0x1
 2675 04ef 1201     		.2byte	0x112
 2676 04f1 97040000 		.4byte	0x497
 2677 04f5 08       		.byte	0x8
 2678 04f6 0C       		.uleb128 0xc
 2679 04f7 723700   		.ascii	"r7\000"
 2680 04fa 01       		.byte	0x1
 2681 04fb 1301     		.2byte	0x113
 2682 04fd 97040000 		.4byte	0x497
 2683 0501 0C       		.byte	0xc
 2684 0502 0C       		.uleb128 0xc
 2685 0503 723800   		.ascii	"r8\000"
 2686 0506 01       		.byte	0x1
 2687 0507 1401     		.2byte	0x114
 2688 0509 97040000 		.4byte	0x497
 2689 050d 10       		.byte	0x10
 2690 050e 0C       		.uleb128 0xc
 2691 050f 723900   		.ascii	"r9\000"
 2692 0512 01       		.byte	0x1
 2693 0513 1501     		.2byte	0x115
 2694 0515 97040000 		.4byte	0x497
 2695 0519 14       		.byte	0x14
 2696 051a 0C       		.uleb128 0xc
 2697 051b 72313000 		.ascii	"r10\000"
 2698 051f 01       		.byte	0x1
 2699 0520 1601     		.2byte	0x116
 2700 0522 97040000 		.4byte	0x497
 2701 0526 18       		.byte	0x18
 2702 0527 0C       		.uleb128 0xc
 2703 0528 72313100 		.ascii	"r11\000"
 2704 052c 01       		.byte	0x1
 2705 052d 1701     		.2byte	0x117
 2706 052f 97040000 		.4byte	0x497
 2707 0533 1C       		.byte	0x1c
 2708 0534 0C       		.uleb128 0xc
 2709 0535 6C7200   		.ascii	"lr\000"
 2710 0538 01       		.byte	0x1
 2711 0539 1801     		.2byte	0x118
 2712 053b 97040000 		.4byte	0x497
ARM GAS  /tmp/ccRqzMr7.s 			page 49


 2713 053f 20       		.byte	0x20
 2714 0540 00       		.byte	0
 2715 0541 06       		.uleb128 0x6
 2716 0542 04       		.byte	0x4
 2717 0543 C6040000 		.4byte	0x4c6
 2718 0547 13       		.uleb128 0x13
 2719 0548 04       		.byte	0x4
 2720 0549 0F       		.byte	0xf
 2721 054a 38       		.byte	0x38
 2722 054b 5C050000 		.4byte	0x55c
 2723 054f 0B       		.uleb128 0xb
 2724 0550 52070000 		.4byte	.LASF87
 2725 0554 0F       		.byte	0xf
 2726 0555 3C       		.byte	0x3c
 2727 0556 09010000 		.4byte	0x109
 2728 055a 00       		.byte	0
 2729 055b 00       		.byte	0
 2730 055c 03       		.uleb128 0x3
 2731 055d 0A050000 		.4byte	.LASF88
 2732 0561 0F       		.byte	0xf
 2733 0562 3D       		.byte	0x3d
 2734 0563 47050000 		.4byte	0x547
 2735 0567 14       		.uleb128 0x14
 2736 0568 04       		.byte	0x4
 2737 0569 03       		.byte	0x3
 2738 056a FA       		.byte	0xfa
 2739 056b C4050000 		.4byte	0x5c4
 2740 056f 15       		.uleb128 0x15
 2741 0570 27000000 		.4byte	.LASF89
 2742 0574 03       		.byte	0x3
 2743 0575 0101     		.2byte	0x101
 2744 0577 4B010000 		.4byte	0x14b
 2745 057b 15       		.uleb128 0x15
 2746 057c C7000000 		.4byte	.LASF90
 2747 0580 03       		.byte	0x3
 2748 0581 0801     		.2byte	0x108
 2749 0583 4B010000 		.4byte	0x14b
 2750 0587 15       		.uleb128 0x15
 2751 0588 E0050000 		.4byte	.LASF91
 2752 058c 03       		.byte	0x3
 2753 058d 0F01     		.2byte	0x10f
 2754 058f A9000000 		.4byte	0xa9
 2755 0593 15       		.uleb128 0x15
 2756 0594 99010000 		.4byte	.LASF92
 2757 0598 03       		.byte	0x3
 2758 0599 1601     		.2byte	0x116
 2759 059b C4050000 		.4byte	0x5c4
 2760 059f 15       		.uleb128 0x15
 2761 05a0 D0020000 		.4byte	.LASF93
 2762 05a4 03       		.byte	0x3
 2763 05a5 1E01     		.2byte	0x11e
 2764 05a7 EF050000 		.4byte	0x5ef
 2765 05ab 15       		.uleb128 0x15
 2766 05ac 6E060000 		.4byte	.LASF94
 2767 05b0 03       		.byte	0x3
 2768 05b1 2701     		.2byte	0x127
 2769 05b3 26060000 		.4byte	0x626
ARM GAS  /tmp/ccRqzMr7.s 			page 50


 2770 05b7 15       		.uleb128 0x15
 2771 05b8 3B010000 		.4byte	.LASF95
 2772 05bc 03       		.byte	0x3
 2773 05bd 2F01     		.2byte	0x12f
 2774 05bf 56010000 		.4byte	0x156
 2775 05c3 00       		.byte	0
 2776 05c4 06       		.uleb128 0x6
 2777 05c5 04       		.byte	0x4
 2778 05c6 7B020000 		.4byte	0x27b
 2779 05ca 0A       		.uleb128 0xa
 2780 05cb 4D060000 		.4byte	.LASF96
 2781 05cf 0C       		.byte	0xc
 2782 05d0 10       		.byte	0x10
 2783 05d1 34       		.byte	0x34
 2784 05d2 EF050000 		.4byte	0x5ef
 2785 05d6 0B       		.uleb128 0xb
 2786 05d7 FB010000 		.4byte	.LASF97
 2787 05db 10       		.byte	0x10
 2788 05dc 35       		.byte	0x35
 2789 05dd B0020000 		.4byte	0x2b0
 2790 05e1 00       		.byte	0
 2791 05e2 0B       		.uleb128 0xb
 2792 05e3 10030000 		.4byte	.LASF98
 2793 05e7 10       		.byte	0x10
 2794 05e8 37       		.byte	0x37
 2795 05e9 61010000 		.4byte	0x161
 2796 05ed 08       		.byte	0x8
 2797 05ee 00       		.byte	0
 2798 05ef 06       		.uleb128 0x6
 2799 05f0 04       		.byte	0x4
 2800 05f1 CA050000 		.4byte	0x5ca
 2801 05f5 0A       		.uleb128 0xa
 2802 05f6 10080000 		.4byte	.LASF99
 2803 05fa 10       		.byte	0x10
 2804 05fb 11       		.byte	0x11
 2805 05fc 39       		.byte	0x39
 2806 05fd 26060000 		.4byte	0x626
 2807 0601 0B       		.uleb128 0xb
 2808 0602 5E010000 		.4byte	.LASF100
 2809 0606 11       		.byte	0x11
 2810 0607 3A       		.byte	0x3a
 2811 0608 B0020000 		.4byte	0x2b0
 2812 060c 00       		.byte	0
 2813 060d 0B       		.uleb128 0xb
 2814 060e 99080000 		.4byte	.LASF101
 2815 0612 11       		.byte	0x11
 2816 0613 3C       		.byte	0x3c
 2817 0614 86020000 		.4byte	0x286
 2818 0618 08       		.byte	0x8
 2819 0619 0B       		.uleb128 0xb
 2820 061a 0B070000 		.4byte	.LASF102
 2821 061e 11       		.byte	0x11
 2822 061f 3E       		.byte	0x3e
 2823 0620 57060000 		.4byte	0x657
 2824 0624 0C       		.byte	0xc
 2825 0625 00       		.byte	0
 2826 0626 06       		.uleb128 0x6
ARM GAS  /tmp/ccRqzMr7.s 			page 51


 2827 0627 04       		.byte	0x4
 2828 0628 F5050000 		.4byte	0x5f5
 2829 062c 06       		.uleb128 0x6
 2830 062d 04       		.byte	0x4
 2831 062e 63030000 		.4byte	0x363
 2832 0632 16       		.uleb128 0x16
 2833 0633 6C010000 		.4byte	0x16c
 2834 0637 16       		.uleb128 0x16
 2835 0638 B2000000 		.4byte	0xb2
 2836 063c 08       		.uleb128 0x8
 2837 063d A2040000 		.4byte	0x4a2
 2838 0641 4C060000 		.4byte	0x64c
 2839 0645 09       		.uleb128 0x9
 2840 0646 A2000000 		.4byte	0xa2
 2841 064a 1A       		.byte	0x1a
 2842 064b 00       		.byte	0
 2843 064c 03       		.uleb128 0x3
 2844 064d 7B020000 		.4byte	.LASF103
 2845 0651 11       		.byte	0x11
 2846 0652 34       		.byte	0x34
 2847 0653 F5050000 		.4byte	0x5f5
 2848 0657 06       		.uleb128 0x6
 2849 0658 04       		.byte	0x4
 2850 0659 4C060000 		.4byte	0x64c
 2851 065d 16       		.uleb128 0x16
 2852 065e 2C000000 		.4byte	0x2c
 2853 0662 06       		.uleb128 0x6
 2854 0663 04       		.byte	0x4
 2855 0664 DD000000 		.4byte	0xdd
 2856 0668 06       		.uleb128 0x6
 2857 0669 04       		.byte	0x4
 2858 066a 6E060000 		.4byte	0x66e
 2859 066e 07       		.uleb128 0x7
 2860 066f DD000000 		.4byte	0xdd
 2861 0673 04       		.uleb128 0x4
 2862 0674 01       		.byte	0x1
 2863 0675 02       		.byte	0x2
 2864 0676 91050000 		.4byte	.LASF104
 2865 067a 03       		.uleb128 0x3
 2866 067b 68020000 		.4byte	.LASF105
 2867 067f 12       		.byte	0x12
 2868 0680 2F       		.byte	0x2f
 2869 0681 85060000 		.4byte	0x685
 2870 0685 0A       		.uleb128 0xa
 2871 0686 A8010000 		.4byte	.LASF106
 2872 068a 34       		.byte	0x34
 2873 068b 12       		.byte	0x12
 2874 068c 3B       		.byte	0x3b
 2875 068d 21070000 		.4byte	0x721
 2876 0691 0B       		.uleb128 0xb
 2877 0692 54020000 		.4byte	.LASF107
 2878 0696 12       		.byte	0x12
 2879 0697 3F       		.byte	0x3f
 2880 0698 B0020000 		.4byte	0x2b0
 2881 069c 00       		.byte	0
 2882 069d 0B       		.uleb128 0xb
 2883 069e 3D050000 		.4byte	.LASF108
ARM GAS  /tmp/ccRqzMr7.s 			page 52


 2884 06a2 12       		.byte	0x12
 2885 06a3 43       		.byte	0x43
 2886 06a4 5D060000 		.4byte	0x65d
 2887 06a8 08       		.byte	0x8
 2888 06a9 0B       		.uleb128 0xb
 2889 06aa F0070000 		.4byte	.LASF109
 2890 06ae 12       		.byte	0x12
 2891 06af 47       		.byte	0x47
 2892 06b0 62060000 		.4byte	0x662
 2893 06b4 0C       		.byte	0xc
 2894 06b5 0B       		.uleb128 0xb
 2895 06b6 4D020000 		.4byte	.LASF110
 2896 06ba 12       		.byte	0x12
 2897 06bb 4B       		.byte	0x4b
 2898 06bc 62060000 		.4byte	0x662
 2899 06c0 10       		.byte	0x10
 2900 06c1 0B       		.uleb128 0xb
 2901 06c2 DF040000 		.4byte	.LASF111
 2902 06c6 12       		.byte	0x12
 2903 06c7 4F       		.byte	0x4f
 2904 06c8 62060000 		.4byte	0x662
 2905 06cc 14       		.byte	0x14
 2906 06cd 0B       		.uleb128 0xb
 2907 06ce AD050000 		.4byte	.LASF112
 2908 06d2 12       		.byte	0x12
 2909 06d3 56       		.byte	0x56
 2910 06d4 2C000000 		.4byte	0x2c
 2911 06d8 18       		.byte	0x18
 2912 06d9 12       		.uleb128 0x12
 2913 06da 626E00   		.ascii	"bn\000"
 2914 06dd 12       		.byte	0x12
 2915 06de 5A       		.byte	0x5a
 2916 06df 2C000000 		.4byte	0x2c
 2917 06e3 1C       		.byte	0x1c
 2918 06e4 0B       		.uleb128 0xb
 2919 06e5 FF020000 		.4byte	.LASF113
 2920 06e9 12       		.byte	0x12
 2921 06ea 5E       		.byte	0x5e
 2922 06eb 62060000 		.4byte	0x662
 2923 06ef 20       		.byte	0x20
 2924 06f0 12       		.uleb128 0x12
 2925 06f1 70747200 		.ascii	"ptr\000"
 2926 06f5 12       		.byte	0x12
 2927 06f6 63       		.byte	0x63
 2928 06f7 62060000 		.4byte	0x662
 2929 06fb 24       		.byte	0x24
 2930 06fc 12       		.uleb128 0x12
 2931 06fd 746F7000 		.ascii	"top\000"
 2932 0701 12       		.byte	0x12
 2933 0702 67       		.byte	0x67
 2934 0703 62060000 		.4byte	0x662
 2935 0707 28       		.byte	0x28
 2936 0708 0B       		.uleb128 0xb
 2937 0709 BD060000 		.4byte	.LASF114
 2938 070d 12       		.byte	0x12
 2939 070e 6B       		.byte	0x6b
 2940 070f 21070000 		.4byte	0x721
ARM GAS  /tmp/ccRqzMr7.s 			page 53


 2941 0713 2C       		.byte	0x2c
 2942 0714 0B       		.uleb128 0xb
 2943 0715 7B070000 		.4byte	.LASF115
 2944 0719 12       		.byte	0x12
 2945 071a 6F       		.byte	0x6f
 2946 071b A9000000 		.4byte	0xa9
 2947 071f 30       		.byte	0x30
 2948 0720 00       		.byte	0
 2949 0721 03       		.uleb128 0x3
 2950 0722 A4070000 		.4byte	.LASF116
 2951 0726 12       		.byte	0x12
 2952 0727 36       		.byte	0x36
 2953 0728 2C070000 		.4byte	0x72c
 2954 072c 06       		.uleb128 0x6
 2955 072d 04       		.byte	0x4
 2956 072e 32070000 		.4byte	0x732
 2957 0732 0F       		.uleb128 0xf
 2958 0733 3D070000 		.4byte	0x73d
 2959 0737 10       		.uleb128 0x10
 2960 0738 3D070000 		.4byte	0x73d
 2961 073c 00       		.byte	0
 2962 073d 06       		.uleb128 0x6
 2963 073e 04       		.byte	0x4
 2964 073f 7A060000 		.4byte	0x67a
 2965 0743 03       		.uleb128 0x3
 2966 0744 37020000 		.4byte	.LASF117
 2967 0748 12       		.byte	0x12
 2968 0749 75       		.byte	0x75
 2969 074a 7A060000 		.4byte	0x67a
 2970 074e 03       		.uleb128 0x3
 2971 074f 6A050000 		.4byte	.LASF118
 2972 0753 12       		.byte	0x12
 2973 0754 7A       		.byte	0x7a
 2974 0755 7A060000 		.4byte	0x67a
 2975 0759 17       		.uleb128 0x17
 2976 075a 3A070000 		.4byte	.LASF169
 2977 075e 02       		.byte	0x2
 2978 075f 2202     		.2byte	0x222
 2979 0761 03       		.byte	0x3
 2980 0762 73070000 		.4byte	0x773
 2981 0766 18       		.uleb128 0x18
 2982 0767 83020000 		.4byte	.LASF170
 2983 076b 02       		.byte	0x2
 2984 076c 2202     		.2byte	0x222
 2985 076e F3000000 		.4byte	0xf3
 2986 0772 00       		.byte	0
 2987 0773 19       		.uleb128 0x19
 2988 0774 5F000000 		.4byte	.LASF119
 2989 0778 01       		.byte	0x1
 2990 0779 C801     		.2byte	0x1c8
 2991 077b 00000000 		.4byte	.LFB127
 2992 077f 10000000 		.4byte	.LFE127-.LFB127
 2993 0783 01       		.uleb128 0x1
 2994 0784 9C       		.byte	0x9c
 2995 0785 A3070000 		.4byte	0x7a3
 2996 0789 1A       		.uleb128 0x1a
 2997 078a 59070000 		.4byte	0x759
ARM GAS  /tmp/ccRqzMr7.s 			page 54


 2998 078e 06000000 		.4byte	.LBB6
 2999 0792 06000000 		.4byte	.LBE6-.LBB6
 3000 0796 01       		.byte	0x1
 3001 0797 D001     		.2byte	0x1d0
 3002 0799 1B       		.uleb128 0x1b
 3003 079a 66070000 		.4byte	0x766
 3004 079e 02       		.uleb128 0x2
 3005 079f 91       		.byte	0x91
 3006 07a0 7C       		.sleb128 -4
 3007 07a1 00       		.byte	0
 3008 07a2 00       		.byte	0
 3009 07a3 19       		.uleb128 0x19
 3010 07a4 83010000 		.4byte	.LASF120
 3011 07a8 01       		.byte	0x1
 3012 07a9 E001     		.2byte	0x1e0
 3013 07ab 10000000 		.4byte	.LFB128
 3014 07af 10000000 		.4byte	.LFE128-.LFB128
 3015 07b3 01       		.uleb128 0x1
 3016 07b4 9C       		.byte	0x9c
 3017 07b5 D3070000 		.4byte	0x7d3
 3018 07b9 1A       		.uleb128 0x1a
 3019 07ba 59070000 		.4byte	0x759
 3020 07be 16000000 		.4byte	.LBB8
 3021 07c2 06000000 		.4byte	.LBE8-.LBB8
 3022 07c6 01       		.byte	0x1
 3023 07c7 E301     		.2byte	0x1e3
 3024 07c9 1B       		.uleb128 0x1b
 3025 07ca 66070000 		.4byte	0x766
 3026 07ce 02       		.uleb128 0x2
 3027 07cf 91       		.byte	0x91
 3028 07d0 7C       		.sleb128 -4
 3029 07d1 00       		.byte	0
 3030 07d2 00       		.byte	0
 3031 07d3 19       		.uleb128 0x19
 3032 07d4 54000000 		.4byte	.LASF121
 3033 07d8 03       		.byte	0x3
 3034 07d9 5A02     		.2byte	0x25a
 3035 07db 20000000 		.4byte	.LFB139
 3036 07df 14000000 		.4byte	.LFE139-.LFB139
 3037 07e3 01       		.uleb128 0x1
 3038 07e4 9C       		.byte	0x9c
 3039 07e5 F9070000 		.4byte	0x7f9
 3040 07e9 1C       		.uleb128 0x1c
 3041 07ea 74717000 		.ascii	"tqp\000"
 3042 07ee 03       		.byte	0x3
 3043 07ef 5A02     		.2byte	0x25a
 3044 07f1 F9070000 		.4byte	0x7f9
 3045 07f5 02       		.uleb128 0x2
 3046 07f6 91       		.byte	0x91
 3047 07f7 7C       		.sleb128 -4
 3048 07f8 00       		.byte	0
 3049 07f9 06       		.uleb128 0x6
 3050 07fa 04       		.byte	0x4
 3051 07fb B0020000 		.4byte	0x2b0
 3052 07ff 1D       		.uleb128 0x1d
 3053 0800 0A060000 		.4byte	.LASF124
 3054 0804 04       		.byte	0x4
ARM GAS  /tmp/ccRqzMr7.s 			page 55


 3055 0805 5A01     		.2byte	0x15a
 3056 0807 40000000 		.4byte	.LFB156
 3057 080b 08000000 		.4byte	.LFE156-.LFB156
 3058 080f 01       		.uleb128 0x1
 3059 0810 9C       		.byte	0x9c
 3060 0811 1E       		.uleb128 0x1e
 3061 0812 7E080000 		.4byte	.LASF122
 3062 0816 04       		.byte	0x4
 3063 0817 6601     		.2byte	0x166
 3064 0819 50000000 		.4byte	.LFB157
 3065 081d 08000000 		.4byte	.LFE157-.LFB157
 3066 0821 01       		.uleb128 0x1
 3067 0822 9C       		.byte	0x9c
 3068 0823 31080000 		.4byte	0x831
 3069 0827 1F       		.uleb128 0x1f
 3070 0828 01060000 		.4byte	.LASF136
 3071 082c 41080000 		.4byte	0x841
 3072 0830 00       		.byte	0
 3073 0831 08       		.uleb128 0x8
 3074 0832 AB000000 		.4byte	0xab
 3075 0836 41080000 		.4byte	0x841
 3076 083a 09       		.uleb128 0x9
 3077 083b A2000000 		.4byte	0xa2
 3078 083f 0B       		.byte	0xb
 3079 0840 00       		.byte	0
 3080 0841 07       		.uleb128 0x7
 3081 0842 31080000 		.4byte	0x831
 3082 0846 20       		.uleb128 0x20
 3083 0847 A7020000 		.4byte	.LASF127
 3084 084b 05       		.byte	0x5
 3085 084c E4       		.byte	0xe4
 3086 084d 6C010000 		.4byte	0x16c
 3087 0851 60000000 		.4byte	.LFB164
 3088 0855 0C000000 		.4byte	.LFE164-.LFB164
 3089 0859 01       		.uleb128 0x1
 3090 085a 9C       		.byte	0x9c
 3091 085b 1E       		.uleb128 0x1e
 3092 085c 65040000 		.4byte	.LASF123
 3093 0860 06       		.byte	0x6
 3094 0861 1601     		.2byte	0x116
 3095 0863 70000000 		.4byte	.LFB184
 3096 0867 12000000 		.4byte	.LFE184-.LFB184
 3097 086b 01       		.uleb128 0x1
 3098 086c 9C       		.byte	0x9c
 3099 086d 81080000 		.4byte	0x881
 3100 0871 1C       		.uleb128 0x1c
 3101 0872 74717000 		.ascii	"tqp\000"
 3102 0876 06       		.byte	0x6
 3103 0877 1601     		.2byte	0x116
 3104 0879 F9070000 		.4byte	0x7f9
 3105 087d 02       		.uleb128 0x2
 3106 087e 91       		.byte	0x91
 3107 087f 74       		.sleb128 -12
 3108 0880 00       		.byte	0
 3109 0881 1D       		.uleb128 0x1d
 3110 0882 5C020000 		.4byte	.LASF125
 3111 0886 07       		.byte	0x7
ARM GAS  /tmp/ccRqzMr7.s 			page 56


 3112 0887 EB01     		.2byte	0x1eb
 3113 0889 90000000 		.4byte	.LFB234
 3114 088d 08000000 		.4byte	.LFE234-.LFB234
 3115 0891 01       		.uleb128 0x1
 3116 0892 9C       		.byte	0x9c
 3117 0893 1D       		.uleb128 0x1d
 3118 0894 2E060000 		.4byte	.LASF126
 3119 0898 07       		.byte	0x7
 3120 0899 F601     		.2byte	0x1f6
 3121 089b A0000000 		.4byte	.LFB235
 3122 089f 08000000 		.4byte	.LFE235-.LFB235
 3123 08a3 01       		.uleb128 0x1
 3124 08a4 9C       		.byte	0x9c
 3125 08a5 21       		.uleb128 0x21
 3126 08a6 61080000 		.4byte	.LASF128
 3127 08aa 07       		.byte	0x7
 3128 08ab 6802     		.2byte	0x268
 3129 08ad 6C010000 		.4byte	0x16c
 3130 08b1 B0000000 		.4byte	.LFB243
 3131 08b5 0C000000 		.4byte	.LFE243-.LFB243
 3132 08b9 01       		.uleb128 0x1
 3133 08ba 9C       		.byte	0x9c
 3134 08bb 1E       		.uleb128 0x1e
 3135 08bc 61070000 		.4byte	.LASF129
 3136 08c0 07       		.byte	0x7
 3137 08c1 F102     		.2byte	0x2f1
 3138 08c3 C0000000 		.4byte	.LFB251
 3139 08c7 12000000 		.4byte	.LFE251-.LFB251
 3140 08cb 01       		.uleb128 0x1
 3141 08cc 9C       		.byte	0x9c
 3142 08cd E1080000 		.4byte	0x8e1
 3143 08d1 1C       		.uleb128 0x1c
 3144 08d2 74717000 		.ascii	"tqp\000"
 3145 08d6 07       		.byte	0x7
 3146 08d7 F102     		.2byte	0x2f1
 3147 08d9 F9070000 		.4byte	0x7f9
 3148 08dd 02       		.uleb128 0x2
 3149 08de 91       		.byte	0x91
 3150 08df 74       		.sleb128 -12
 3151 08e0 00       		.byte	0
 3152 08e1 22       		.uleb128 0x22
 3153 08e2 02040000 		.4byte	.LASF171
 3154 08e6 07       		.byte	0x7
 3155 08e7 0D03     		.2byte	0x30d
 3156 08e9 4B010000 		.4byte	0x14b
 3157 08ed E0000000 		.4byte	.LFB252
 3158 08f1 1A000000 		.4byte	.LFE252-.LFB252
 3159 08f5 01       		.uleb128 0x1
 3160 08f6 9C       		.byte	0x9c
 3161 08f7 1A090000 		.4byte	0x91a
 3162 08fb 1C       		.uleb128 0x1c
 3163 08fc 74717000 		.ascii	"tqp\000"
 3164 0900 07       		.byte	0x7
 3165 0901 0D03     		.2byte	0x30d
 3166 0903 F9070000 		.4byte	0x7f9
 3167 0907 02       		.uleb128 0x2
 3168 0908 91       		.byte	0x91
ARM GAS  /tmp/ccRqzMr7.s 			page 57


 3169 0909 74       		.sleb128 -12
 3170 090a 23       		.uleb128 0x23
 3171 090b 1B050000 		.4byte	.LASF130
 3172 090f 07       		.byte	0x7
 3173 0910 0E03     		.2byte	0x30e
 3174 0912 6C010000 		.4byte	0x16c
 3175 0916 02       		.uleb128 0x2
 3176 0917 91       		.byte	0x91
 3177 0918 70       		.sleb128 -16
 3178 0919 00       		.byte	0
 3179 091a 1E       		.uleb128 0x1e
 3180 091b 42010000 		.4byte	.LASF131
 3181 091f 07       		.byte	0x7
 3182 0920 1B03     		.2byte	0x31b
 3183 0922 00010000 		.4byte	.LFB253
 3184 0926 16000000 		.4byte	.LFE253-.LFB253
 3185 092a 01       		.uleb128 0x1
 3186 092b 9C       		.byte	0x9c
 3187 092c 4F090000 		.4byte	0x94f
 3188 0930 1C       		.uleb128 0x1c
 3189 0931 74717000 		.ascii	"tqp\000"
 3190 0935 07       		.byte	0x7
 3191 0936 1B03     		.2byte	0x31b
 3192 0938 F9070000 		.4byte	0x7f9
 3193 093c 02       		.uleb128 0x2
 3194 093d 91       		.byte	0x91
 3195 093e 74       		.sleb128 -12
 3196 093f 1C       		.uleb128 0x1c
 3197 0940 6D736700 		.ascii	"msg\000"
 3198 0944 07       		.byte	0x7
 3199 0945 1B03     		.2byte	0x31b
 3200 0947 4B010000 		.4byte	0x14b
 3201 094b 02       		.uleb128 0x2
 3202 094c 91       		.byte	0x91
 3203 094d 70       		.sleb128 -16
 3204 094e 00       		.byte	0
 3205 094f 1E       		.uleb128 0x1e
 3206 0950 3C080000 		.4byte	.LASF132
 3207 0954 07       		.byte	0x7
 3208 0955 2803     		.2byte	0x328
 3209 0957 20010000 		.4byte	.LFB254
 3210 095b 16000000 		.4byte	.LFE254-.LFB254
 3211 095f 01       		.uleb128 0x1
 3212 0960 9C       		.byte	0x9c
 3213 0961 84090000 		.4byte	0x984
 3214 0965 1C       		.uleb128 0x1c
 3215 0966 74717000 		.ascii	"tqp\000"
 3216 096a 07       		.byte	0x7
 3217 096b 2803     		.2byte	0x328
 3218 096d F9070000 		.4byte	0x7f9
 3219 0971 02       		.uleb128 0x2
 3220 0972 91       		.byte	0x91
 3221 0973 74       		.sleb128 -12
 3222 0974 1C       		.uleb128 0x1c
 3223 0975 6D736700 		.ascii	"msg\000"
 3224 0979 07       		.byte	0x7
 3225 097a 2803     		.2byte	0x328
ARM GAS  /tmp/ccRqzMr7.s 			page 58


 3226 097c 4B010000 		.4byte	0x14b
 3227 0980 02       		.uleb128 0x2
 3228 0981 91       		.byte	0x91
 3229 0982 70       		.sleb128 -16
 3230 0983 00       		.byte	0
 3231 0984 24       		.uleb128 0x24
 3232 0985 03020000 		.4byte	.LASF137
 3233 0989 08       		.byte	0x8
 3234 098a 4B       		.byte	0x4b
 3235 098b 40010000 		.4byte	.LFB267
 3236 098f 6A000000 		.4byte	.LFE267-.LFB267
 3237 0993 01       		.uleb128 0x1
 3238 0994 9C       		.byte	0x9c
 3239 0995 F4090000 		.4byte	0x9f4
 3240 0999 25       		.uleb128 0x25
 3241 099a 32020000 		.4byte	.LASF133
 3242 099e 08       		.byte	0x8
 3243 099f 4B       		.byte	0x4b
 3244 09a0 F4090000 		.4byte	0x9f4
 3245 09a4 02       		.uleb128 0x2
 3246 09a5 91       		.byte	0x91
 3247 09a6 74       		.sleb128 -12
 3248 09a7 26       		.uleb128 0x26
 3249 09a8 627000   		.ascii	"bp\000"
 3250 09ab 08       		.byte	0x8
 3251 09ac 4B       		.byte	0x4b
 3252 09ad 62060000 		.4byte	0x662
 3253 09b1 02       		.uleb128 0x2
 3254 09b2 91       		.byte	0x91
 3255 09b3 70       		.sleb128 -16
 3256 09b4 25       		.uleb128 0x25
 3257 09b5 59010000 		.4byte	.LASF134
 3258 09b9 08       		.byte	0x8
 3259 09ba 4C       		.byte	0x4c
 3260 09bb 2C000000 		.4byte	0x2c
 3261 09bf 02       		.uleb128 0x2
 3262 09c0 91       		.byte	0x91
 3263 09c1 6C       		.sleb128 -20
 3264 09c2 26       		.uleb128 0x26
 3265 09c3 6E00     		.ascii	"n\000"
 3266 09c5 08       		.byte	0x8
 3267 09c6 4C       		.byte	0x4c
 3268 09c7 2C000000 		.4byte	0x2c
 3269 09cb 02       		.uleb128 0x2
 3270 09cc 91       		.byte	0x91
 3271 09cd 68       		.sleb128 -24
 3272 09ce 25       		.uleb128 0x25
 3273 09cf FC050000 		.4byte	.LASF135
 3274 09d3 08       		.byte	0x8
 3275 09d4 4D       		.byte	0x4d
 3276 09d5 21070000 		.4byte	0x721
 3277 09d9 02       		.uleb128 0x2
 3278 09da 91       		.byte	0x91
 3279 09db 00       		.sleb128 0
 3280 09dc 25       		.uleb128 0x25
 3281 09dd 7B070000 		.4byte	.LASF115
 3282 09e1 08       		.byte	0x8
ARM GAS  /tmp/ccRqzMr7.s 			page 59


 3283 09e2 4D       		.byte	0x4d
 3284 09e3 A9000000 		.4byte	0xa9
 3285 09e7 02       		.uleb128 0x2
 3286 09e8 91       		.byte	0x91
 3287 09e9 04       		.sleb128 4
 3288 09ea 1F       		.uleb128 0x1f
 3289 09eb 01060000 		.4byte	.LASF136
 3290 09ef 0A0A0000 		.4byte	0xa0a
 3291 09f3 00       		.byte	0
 3292 09f4 06       		.uleb128 0x6
 3293 09f5 04       		.byte	0x4
 3294 09f6 43070000 		.4byte	0x743
 3295 09fa 08       		.uleb128 0x8
 3296 09fb AB000000 		.4byte	0xab
 3297 09ff 0A0A0000 		.4byte	0xa0a
 3298 0a03 09       		.uleb128 0x9
 3299 0a04 A2000000 		.4byte	0xa2
 3300 0a08 0D       		.byte	0xd
 3301 0a09 00       		.byte	0
 3302 0a0a 07       		.uleb128 0x7
 3303 0a0b FA090000 		.4byte	0x9fa
 3304 0a0f 24       		.uleb128 0x24
 3305 0a10 B3050000 		.4byte	.LASF138
 3306 0a14 08       		.byte	0x8
 3307 0a15 6A       		.byte	0x6a
 3308 0a16 B0010000 		.4byte	.LFB268
 3309 0a1a 3A000000 		.4byte	.LFE268-.LFB268
 3310 0a1e 01       		.uleb128 0x1
 3311 0a1f 9C       		.byte	0x9c
 3312 0a20 330A0000 		.4byte	0xa33
 3313 0a24 25       		.uleb128 0x25
 3314 0a25 32020000 		.4byte	.LASF133
 3315 0a29 08       		.byte	0x8
 3316 0a2a 6A       		.byte	0x6a
 3317 0a2b F4090000 		.4byte	0x9f4
 3318 0a2f 02       		.uleb128 0x2
 3319 0a30 91       		.byte	0x91
 3320 0a31 74       		.sleb128 -12
 3321 0a32 00       		.byte	0
 3322 0a33 27       		.uleb128 0x27
 3323 0a34 08000000 		.4byte	.LASF140
 3324 0a38 08       		.byte	0x8
 3325 0a39 80       		.byte	0x80
 3326 0a3a 62060000 		.4byte	0x662
 3327 0a3e F0010000 		.4byte	.LFB269
 3328 0a42 38000000 		.4byte	.LFE269-.LFB269
 3329 0a46 01       		.uleb128 0x1
 3330 0a47 9C       		.byte	0x9c
 3331 0a48 5B0A0000 		.4byte	0xa5b
 3332 0a4c 25       		.uleb128 0x25
 3333 0a4d 32020000 		.4byte	.LASF133
 3334 0a51 08       		.byte	0x8
 3335 0a52 80       		.byte	0x80
 3336 0a53 F4090000 		.4byte	0x9f4
 3337 0a57 02       		.uleb128 0x2
 3338 0a58 91       		.byte	0x91
 3339 0a59 7C       		.sleb128 -4
ARM GAS  /tmp/ccRqzMr7.s 			page 60


 3340 0a5a 00       		.byte	0
 3341 0a5b 24       		.uleb128 0x24
 3342 0a5c CC040000 		.4byte	.LASF139
 3343 0a60 08       		.byte	0x8
 3344 0a61 93       		.byte	0x93
 3345 0a62 30020000 		.4byte	.LFB270
 3346 0a66 4C000000 		.4byte	.LFE270-.LFB270
 3347 0a6a 01       		.uleb128 0x1
 3348 0a6b 9C       		.byte	0x9c
 3349 0a6c 960A0000 		.4byte	0xa96
 3350 0a70 25       		.uleb128 0x25
 3351 0a71 32020000 		.4byte	.LASF133
 3352 0a75 08       		.byte	0x8
 3353 0a76 93       		.byte	0x93
 3354 0a77 F4090000 		.4byte	0x9f4
 3355 0a7b 02       		.uleb128 0x2
 3356 0a7c 91       		.byte	0x91
 3357 0a7d 74       		.sleb128 -12
 3358 0a7e 25       		.uleb128 0x25
 3359 0a7f 59010000 		.4byte	.LASF134
 3360 0a83 08       		.byte	0x8
 3361 0a84 93       		.byte	0x93
 3362 0a85 2C000000 		.4byte	0x2c
 3363 0a89 02       		.uleb128 0x2
 3364 0a8a 91       		.byte	0x91
 3365 0a8b 70       		.sleb128 -16
 3366 0a8c 1F       		.uleb128 0x1f
 3367 0a8d 01060000 		.4byte	.LASF136
 3368 0a91 A60A0000 		.4byte	0xaa6
 3369 0a95 00       		.byte	0
 3370 0a96 08       		.uleb128 0x8
 3371 0a97 AB000000 		.4byte	0xab
 3372 0a9b A60A0000 		.4byte	0xaa6
 3373 0a9f 09       		.uleb128 0x9
 3374 0aa0 A2000000 		.4byte	0xa2
 3375 0aa4 12       		.byte	0x12
 3376 0aa5 00       		.byte	0
 3377 0aa6 07       		.uleb128 0x7
 3378 0aa7 960A0000 		.4byte	0xa96
 3379 0aab 28       		.uleb128 0x28
 3380 0aac B4040000 		.4byte	.LASF141
 3381 0ab0 08       		.byte	0x8
 3382 0ab1 BC       		.byte	0xbc
 3383 0ab2 4B010000 		.4byte	0x14b
 3384 0ab6 80020000 		.4byte	.LFB271
 3385 0aba 24000000 		.4byte	.LFE271-.LFB271
 3386 0abe 01       		.uleb128 0x1
 3387 0abf 9C       		.byte	0x9c
 3388 0ac0 EF0A0000 		.4byte	0xaef
 3389 0ac4 25       		.uleb128 0x25
 3390 0ac5 32020000 		.4byte	.LASF133
 3391 0ac9 08       		.byte	0x8
 3392 0aca BC       		.byte	0xbc
 3393 0acb F4090000 		.4byte	0x9f4
 3394 0acf 02       		.uleb128 0x2
 3395 0ad0 91       		.byte	0x91
 3396 0ad1 6C       		.sleb128 -20
ARM GAS  /tmp/ccRqzMr7.s 			page 61


 3397 0ad2 25       		.uleb128 0x25
 3398 0ad3 F7020000 		.4byte	.LASF142
 3399 0ad7 08       		.byte	0x8
 3400 0ad8 BD       		.byte	0xbd
 3401 0ad9 6C010000 		.4byte	0x16c
 3402 0add 02       		.uleb128 0x2
 3403 0ade 91       		.byte	0x91
 3404 0adf 68       		.sleb128 -24
 3405 0ae0 29       		.uleb128 0x29
 3406 0ae1 6D736700 		.ascii	"msg\000"
 3407 0ae5 08       		.byte	0x8
 3408 0ae6 BE       		.byte	0xbe
 3409 0ae7 4B010000 		.4byte	0x14b
 3410 0aeb 02       		.uleb128 0x2
 3411 0aec 91       		.byte	0x91
 3412 0aed 74       		.sleb128 -12
 3413 0aee 00       		.byte	0
 3414 0aef 28       		.uleb128 0x28
 3415 0af0 DA010000 		.4byte	.LASF143
 3416 0af4 08       		.byte	0x8
 3417 0af5 DB       		.byte	0xdb
 3418 0af6 4B010000 		.4byte	0x14b
 3419 0afa B0020000 		.4byte	.LFB272
 3420 0afe 4C000000 		.4byte	.LFE272-.LFB272
 3421 0b02 01       		.uleb128 0x1
 3422 0b03 9C       		.byte	0x9c
 3423 0b04 460B0000 		.4byte	0xb46
 3424 0b08 25       		.uleb128 0x25
 3425 0b09 32020000 		.4byte	.LASF133
 3426 0b0d 08       		.byte	0x8
 3427 0b0e DB       		.byte	0xdb
 3428 0b0f F4090000 		.4byte	0x9f4
 3429 0b13 02       		.uleb128 0x2
 3430 0b14 91       		.byte	0x91
 3431 0b15 6C       		.sleb128 -20
 3432 0b16 25       		.uleb128 0x25
 3433 0b17 F7020000 		.4byte	.LASF142
 3434 0b1b 08       		.byte	0x8
 3435 0b1c DC       		.byte	0xdc
 3436 0b1d 6C010000 		.4byte	0x16c
 3437 0b21 02       		.uleb128 0x2
 3438 0b22 91       		.byte	0x91
 3439 0b23 68       		.sleb128 -24
 3440 0b24 1F       		.uleb128 0x1f
 3441 0b25 01060000 		.4byte	.LASF136
 3442 0b29 460B0000 		.4byte	0xb46
 3443 0b2d 2A       		.uleb128 0x2a
 3444 0b2e BA020000 		.4byte	.LBB10
 3445 0b32 16000000 		.4byte	.LBE10-.LBB10
 3446 0b36 29       		.uleb128 0x29
 3447 0b37 6D736700 		.ascii	"msg\000"
 3448 0b3b 08       		.byte	0x8
 3449 0b3c E1       		.byte	0xe1
 3450 0b3d 4B010000 		.4byte	0x14b
 3451 0b41 02       		.uleb128 0x2
 3452 0b42 91       		.byte	0x91
 3453 0b43 74       		.sleb128 -12
ARM GAS  /tmp/ccRqzMr7.s 			page 62


 3454 0b44 00       		.byte	0
 3455 0b45 00       		.byte	0
 3456 0b46 07       		.uleb128 0x7
 3457 0b47 CD000000 		.4byte	0xcd
 3458 0b4b 24       		.uleb128 0x24
 3459 0b4c 26080000 		.4byte	.LASF144
 3460 0b50 08       		.byte	0x8
 3461 0b51 F8       		.byte	0xf8
 3462 0b52 00030000 		.4byte	.LFB273
 3463 0b56 1A000000 		.4byte	.LFE273-.LFB273
 3464 0b5a 01       		.uleb128 0x1
 3465 0b5b 9C       		.byte	0x9c
 3466 0b5c 6F0B0000 		.4byte	0xb6f
 3467 0b60 25       		.uleb128 0x25
 3468 0b61 32020000 		.4byte	.LASF133
 3469 0b65 08       		.byte	0x8
 3470 0b66 F8       		.byte	0xf8
 3471 0b67 F4090000 		.4byte	0x9f4
 3472 0b6b 02       		.uleb128 0x2
 3473 0b6c 91       		.byte	0x91
 3474 0b6d 74       		.sleb128 -12
 3475 0b6e 00       		.byte	0
 3476 0b6f 2B       		.uleb128 0x2b
 3477 0b70 D0000000 		.4byte	.LASF145
 3478 0b74 08       		.byte	0x8
 3479 0b75 0701     		.2byte	0x107
 3480 0b77 20030000 		.4byte	.LFB274
 3481 0b7b 4E000000 		.4byte	.LFE274-.LFB274
 3482 0b7f 01       		.uleb128 0x1
 3483 0b80 9C       		.byte	0x9c
 3484 0b81 9E0B0000 		.4byte	0xb9e
 3485 0b85 23       		.uleb128 0x23
 3486 0b86 32020000 		.4byte	.LASF133
 3487 0b8a 08       		.byte	0x8
 3488 0b8b 0701     		.2byte	0x107
 3489 0b8d F4090000 		.4byte	0x9f4
 3490 0b91 02       		.uleb128 0x2
 3491 0b92 91       		.byte	0x91
 3492 0b93 74       		.sleb128 -12
 3493 0b94 1F       		.uleb128 0x1f
 3494 0b95 01060000 		.4byte	.LASF136
 3495 0b99 AE0B0000 		.4byte	0xbae
 3496 0b9d 00       		.byte	0
 3497 0b9e 08       		.uleb128 0x8
 3498 0b9f AB000000 		.4byte	0xab
 3499 0ba3 AE0B0000 		.4byte	0xbae
 3500 0ba7 09       		.uleb128 0x9
 3501 0ba8 A2000000 		.4byte	0xa2
 3502 0bac 16       		.byte	0x16
 3503 0bad 00       		.byte	0
 3504 0bae 07       		.uleb128 0x7
 3505 0baf 9E0B0000 		.4byte	0xb9e
 3506 0bb3 2C       		.uleb128 0x2c
 3507 0bb4 66010000 		.4byte	.LASF146
 3508 0bb8 08       		.byte	0x8
 3509 0bb9 2E01     		.2byte	0x12e
 3510 0bbb 4B010000 		.4byte	0x14b
ARM GAS  /tmp/ccRqzMr7.s 			page 63


 3511 0bbf 70030000 		.4byte	.LFB275
 3512 0bc3 5E000000 		.4byte	.LFE275-.LFB275
 3513 0bc7 01       		.uleb128 0x1
 3514 0bc8 9C       		.byte	0x9c
 3515 0bc9 FB0B0000 		.4byte	0xbfb
 3516 0bcd 23       		.uleb128 0x23
 3517 0bce 32020000 		.4byte	.LASF133
 3518 0bd2 08       		.byte	0x8
 3519 0bd3 2E01     		.2byte	0x12e
 3520 0bd5 F4090000 		.4byte	0x9f4
 3521 0bd9 02       		.uleb128 0x2
 3522 0bda 91       		.byte	0x91
 3523 0bdb 6C       		.sleb128 -20
 3524 0bdc 23       		.uleb128 0x23
 3525 0bdd F7020000 		.4byte	.LASF142
 3526 0be1 08       		.byte	0x8
 3527 0be2 2E01     		.2byte	0x12e
 3528 0be4 6C010000 		.4byte	0x16c
 3529 0be8 02       		.uleb128 0x2
 3530 0be9 91       		.byte	0x91
 3531 0bea 68       		.sleb128 -24
 3532 0beb 2D       		.uleb128 0x2d
 3533 0bec 6D736700 		.ascii	"msg\000"
 3534 0bf0 08       		.byte	0x8
 3535 0bf1 2F01     		.2byte	0x12f
 3536 0bf3 4B010000 		.4byte	0x14b
 3537 0bf7 02       		.uleb128 0x2
 3538 0bf8 91       		.byte	0x91
 3539 0bf9 74       		.sleb128 -12
 3540 0bfa 00       		.byte	0
 3541 0bfb 2C       		.uleb128 0x2c
 3542 0bfc 74010000 		.4byte	.LASF147
 3543 0c00 08       		.byte	0x8
 3544 0c01 5F01     		.2byte	0x15f
 3545 0c03 2C000000 		.4byte	0x2c
 3546 0c07 D0030000 		.4byte	.LFB276
 3547 0c0b 20010000 		.4byte	.LFE276-.LFB276
 3548 0c0f 01       		.uleb128 0x1
 3549 0c10 9C       		.byte	0x9c
 3550 0c11 B60C0000 		.4byte	0xcb6
 3551 0c15 23       		.uleb128 0x23
 3552 0c16 32020000 		.4byte	.LASF133
 3553 0c1a 08       		.byte	0x8
 3554 0c1b 5F01     		.2byte	0x15f
 3555 0c1d F4090000 		.4byte	0x9f4
 3556 0c21 02       		.uleb128 0x2
 3557 0c22 91       		.byte	0x91
 3558 0c23 5C       		.sleb128 -36
 3559 0c24 1C       		.uleb128 0x1c
 3560 0c25 627000   		.ascii	"bp\000"
 3561 0c28 08       		.byte	0x8
 3562 0c29 5F01     		.2byte	0x15f
 3563 0c2b 62060000 		.4byte	0x662
 3564 0c2f 02       		.uleb128 0x2
 3565 0c30 91       		.byte	0x91
 3566 0c31 58       		.sleb128 -40
 3567 0c32 1C       		.uleb128 0x1c
ARM GAS  /tmp/ccRqzMr7.s 			page 64


 3568 0c33 6E00     		.ascii	"n\000"
 3569 0c35 08       		.byte	0x8
 3570 0c36 6001     		.2byte	0x160
 3571 0c38 2C000000 		.4byte	0x2c
 3572 0c3c 02       		.uleb128 0x2
 3573 0c3d 91       		.byte	0x91
 3574 0c3e 54       		.sleb128 -44
 3575 0c3f 23       		.uleb128 0x23
 3576 0c40 F7020000 		.4byte	.LASF142
 3577 0c44 08       		.byte	0x8
 3578 0c45 6001     		.2byte	0x160
 3579 0c47 6C010000 		.4byte	0x16c
 3580 0c4b 02       		.uleb128 0x2
 3581 0c4c 91       		.byte	0x91
 3582 0c4d 50       		.sleb128 -48
 3583 0c4e 2D       		.uleb128 0x2d
 3584 0c4f 7200     		.ascii	"r\000"
 3585 0c51 08       		.byte	0x8
 3586 0c52 6101     		.2byte	0x161
 3587 0c54 2C000000 		.4byte	0x2c
 3588 0c58 02       		.uleb128 0x2
 3589 0c59 91       		.byte	0x91
 3590 0c5a 74       		.sleb128 -12
 3591 0c5b 2E       		.uleb128 0x2e
 3592 0c5c 90080000 		.4byte	.LASF148
 3593 0c60 08       		.byte	0x8
 3594 0c61 6201     		.2byte	0x162
 3595 0c63 6C010000 		.4byte	0x16c
 3596 0c67 02       		.uleb128 0x2
 3597 0c68 91       		.byte	0x91
 3598 0c69 68       		.sleb128 -24
 3599 0c6a 2A       		.uleb128 0x2a
 3600 0c6b F0030000 		.4byte	.LBB11
 3601 0c6f F6000000 		.4byte	.LBE11-.LBB11
 3602 0c73 2E       		.uleb128 0x2e
 3603 0c74 59010000 		.4byte	.LASF134
 3604 0c78 08       		.byte	0x8
 3605 0c79 6A01     		.2byte	0x16a
 3606 0c7b 2C000000 		.4byte	0x2c
 3607 0c7f 02       		.uleb128 0x2
 3608 0c80 91       		.byte	0x91
 3609 0c81 70       		.sleb128 -16
 3610 0c82 2A       		.uleb128 0x2a
 3611 0c83 F8030000 		.4byte	.LBB12
 3612 0c87 4E000000 		.4byte	.LBE12-.LBB12
 3613 0c8b 2D       		.uleb128 0x2d
 3614 0c8c 6D736700 		.ascii	"msg\000"
 3615 0c90 08       		.byte	0x8
 3616 0c91 6E01     		.2byte	0x16e
 3617 0c93 4B010000 		.4byte	0x14b
 3618 0c97 02       		.uleb128 0x2
 3619 0c98 91       		.byte	0x91
 3620 0c99 6C       		.sleb128 -20
 3621 0c9a 2A       		.uleb128 0x2a
 3622 0c9b 12040000 		.4byte	.LBB13
 3623 0c9f 26000000 		.4byte	.LBE13-.LBB13
 3624 0ca3 2E       		.uleb128 0x2e
ARM GAS  /tmp/ccRqzMr7.s 			page 65


 3625 0ca4 B1080000 		.4byte	.LASF149
 3626 0ca8 08       		.byte	0x8
 3627 0ca9 7601     		.2byte	0x176
 3628 0cab 6C010000 		.4byte	0x16c
 3629 0caf 02       		.uleb128 0x2
 3630 0cb0 91       		.byte	0x91
 3631 0cb1 64       		.sleb128 -28
 3632 0cb2 00       		.byte	0
 3633 0cb3 00       		.byte	0
 3634 0cb4 00       		.byte	0
 3635 0cb5 00       		.byte	0
 3636 0cb6 2B       		.uleb128 0x2b
 3637 0cb7 EC040000 		.4byte	.LASF150
 3638 0cbb 08       		.byte	0x8
 3639 0cbc B901     		.2byte	0x1b9
 3640 0cbe F0040000 		.4byte	.LFB277
 3641 0cc2 6A000000 		.4byte	.LFE277-.LFB277
 3642 0cc6 01       		.uleb128 0x1
 3643 0cc7 9C       		.byte	0x9c
 3644 0cc8 2D0D0000 		.4byte	0xd2d
 3645 0ccc 23       		.uleb128 0x23
 3646 0ccd 65050000 		.4byte	.LASF151
 3647 0cd1 08       		.byte	0x8
 3648 0cd2 B901     		.2byte	0x1b9
 3649 0cd4 2D0D0000 		.4byte	0xd2d
 3650 0cd8 02       		.uleb128 0x2
 3651 0cd9 91       		.byte	0x91
 3652 0cda 74       		.sleb128 -12
 3653 0cdb 1C       		.uleb128 0x1c
 3654 0cdc 627000   		.ascii	"bp\000"
 3655 0cdf 08       		.byte	0x8
 3656 0ce0 B901     		.2byte	0x1b9
 3657 0ce2 62060000 		.4byte	0x662
 3658 0ce6 02       		.uleb128 0x2
 3659 0ce7 91       		.byte	0x91
 3660 0ce8 70       		.sleb128 -16
 3661 0ce9 23       		.uleb128 0x23
 3662 0cea 59010000 		.4byte	.LASF134
 3663 0cee 08       		.byte	0x8
 3664 0cef BA01     		.2byte	0x1ba
 3665 0cf1 2C000000 		.4byte	0x2c
 3666 0cf5 02       		.uleb128 0x2
 3667 0cf6 91       		.byte	0x91
 3668 0cf7 6C       		.sleb128 -20
 3669 0cf8 1C       		.uleb128 0x1c
 3670 0cf9 6E00     		.ascii	"n\000"
 3671 0cfb 08       		.byte	0x8
 3672 0cfc BA01     		.2byte	0x1ba
 3673 0cfe 2C000000 		.4byte	0x2c
 3674 0d02 02       		.uleb128 0x2
 3675 0d03 91       		.byte	0x91
 3676 0d04 68       		.sleb128 -24
 3677 0d05 23       		.uleb128 0x23
 3678 0d06 1B000000 		.4byte	.LASF152
 3679 0d0a 08       		.byte	0x8
 3680 0d0b BB01     		.2byte	0x1bb
 3681 0d0d 21070000 		.4byte	0x721
ARM GAS  /tmp/ccRqzMr7.s 			page 66


 3682 0d11 02       		.uleb128 0x2
 3683 0d12 91       		.byte	0x91
 3684 0d13 00       		.sleb128 0
 3685 0d14 23       		.uleb128 0x23
 3686 0d15 7B070000 		.4byte	.LASF115
 3687 0d19 08       		.byte	0x8
 3688 0d1a BB01     		.2byte	0x1bb
 3689 0d1c A9000000 		.4byte	0xa9
 3690 0d20 02       		.uleb128 0x2
 3691 0d21 91       		.byte	0x91
 3692 0d22 04       		.sleb128 4
 3693 0d23 1F       		.uleb128 0x1f
 3694 0d24 01060000 		.4byte	.LASF136
 3695 0d28 330D0000 		.4byte	0xd33
 3696 0d2c 00       		.byte	0
 3697 0d2d 06       		.uleb128 0x6
 3698 0d2e 04       		.byte	0x4
 3699 0d2f 4E070000 		.4byte	0x74e
 3700 0d33 07       		.uleb128 0x7
 3701 0d34 FA090000 		.4byte	0x9fa
 3702 0d38 2B       		.uleb128 0x2b
 3703 0d39 00050000 		.4byte	.LASF153
 3704 0d3d 08       		.byte	0x8
 3705 0d3e D801     		.2byte	0x1d8
 3706 0d40 60050000 		.4byte	.LFB278
 3707 0d44 3C000000 		.4byte	.LFE278-.LFB278
 3708 0d48 01       		.uleb128 0x1
 3709 0d49 9C       		.byte	0x9c
 3710 0d4a 5E0D0000 		.4byte	0xd5e
 3711 0d4e 23       		.uleb128 0x23
 3712 0d4f 65050000 		.4byte	.LASF151
 3713 0d53 08       		.byte	0x8
 3714 0d54 D801     		.2byte	0x1d8
 3715 0d56 2D0D0000 		.4byte	0xd2d
 3716 0d5a 02       		.uleb128 0x2
 3717 0d5b 91       		.byte	0x91
 3718 0d5c 74       		.sleb128 -12
 3719 0d5d 00       		.byte	0
 3720 0d5e 2F       		.uleb128 0x2f
 3721 0d5f 8B070000 		.4byte	.LASF154
 3722 0d63 08       		.byte	0x8
 3723 0d64 EF01     		.2byte	0x1ef
 3724 0d66 62060000 		.4byte	0x662
 3725 0d6a A0050000 		.4byte	.LFB279
 3726 0d6e 44000000 		.4byte	.LFE279-.LFB279
 3727 0d72 01       		.uleb128 0x1
 3728 0d73 9C       		.byte	0x9c
 3729 0d74 970D0000 		.4byte	0xd97
 3730 0d78 23       		.uleb128 0x23
 3731 0d79 65050000 		.4byte	.LASF151
 3732 0d7d 08       		.byte	0x8
 3733 0d7e EF01     		.2byte	0x1ef
 3734 0d80 2D0D0000 		.4byte	0xd2d
 3735 0d84 02       		.uleb128 0x2
 3736 0d85 91       		.byte	0x91
 3737 0d86 7C       		.sleb128 -4
 3738 0d87 23       		.uleb128 0x23
ARM GAS  /tmp/ccRqzMr7.s 			page 67


 3739 0d88 19080000 		.4byte	.LASF155
 3740 0d8c 08       		.byte	0x8
 3741 0d8d F001     		.2byte	0x1f0
 3742 0d8f 970D0000 		.4byte	0xd97
 3743 0d93 02       		.uleb128 0x2
 3744 0d94 91       		.byte	0x91
 3745 0d95 78       		.sleb128 -8
 3746 0d96 00       		.byte	0
 3747 0d97 06       		.uleb128 0x6
 3748 0d98 04       		.byte	0x4
 3749 0d99 2C000000 		.4byte	0x2c
 3750 0d9d 2B       		.uleb128 0x2b
 3751 0d9e D3070000 		.4byte	.LASF156
 3752 0da2 08       		.byte	0x8
 3753 0da3 0502     		.2byte	0x205
 3754 0da5 F0050000 		.4byte	.LFB280
 3755 0da9 42000000 		.4byte	.LFE280-.LFB280
 3756 0dad 01       		.uleb128 0x1
 3757 0dae 9C       		.byte	0x9c
 3758 0daf CC0D0000 		.4byte	0xdcc
 3759 0db3 23       		.uleb128 0x23
 3760 0db4 65050000 		.4byte	.LASF151
 3761 0db8 08       		.byte	0x8
 3762 0db9 0502     		.2byte	0x205
 3763 0dbb 2D0D0000 		.4byte	0xd2d
 3764 0dbf 02       		.uleb128 0x2
 3765 0dc0 91       		.byte	0x91
 3766 0dc1 74       		.sleb128 -12
 3767 0dc2 1F       		.uleb128 0x1f
 3768 0dc3 01060000 		.4byte	.LASF136
 3769 0dc7 CC0D0000 		.4byte	0xdcc
 3770 0dcb 00       		.byte	0
 3771 0dcc 07       		.uleb128 0x7
 3772 0dcd 9E0B0000 		.4byte	0xb9e
 3773 0dd1 2C       		.uleb128 0x2c
 3774 0dd2 F7070000 		.4byte	.LASF157
 3775 0dd6 08       		.byte	0x8
 3776 0dd7 2902     		.2byte	0x229
 3777 0dd9 4B010000 		.4byte	0x14b
 3778 0ddd 40060000 		.4byte	.LFB281
 3779 0de1 24000000 		.4byte	.LFE281-.LFB281
 3780 0de5 01       		.uleb128 0x1
 3781 0de6 9C       		.byte	0x9c
 3782 0de7 190E0000 		.4byte	0xe19
 3783 0deb 23       		.uleb128 0x23
 3784 0dec 65050000 		.4byte	.LASF151
 3785 0df0 08       		.byte	0x8
 3786 0df1 2902     		.2byte	0x229
 3787 0df3 2D0D0000 		.4byte	0xd2d
 3788 0df7 02       		.uleb128 0x2
 3789 0df8 91       		.byte	0x91
 3790 0df9 6C       		.sleb128 -20
 3791 0dfa 23       		.uleb128 0x23
 3792 0dfb F7020000 		.4byte	.LASF142
 3793 0dff 08       		.byte	0x8
 3794 0e00 2A02     		.2byte	0x22a
 3795 0e02 6C010000 		.4byte	0x16c
ARM GAS  /tmp/ccRqzMr7.s 			page 68


 3796 0e06 02       		.uleb128 0x2
 3797 0e07 91       		.byte	0x91
 3798 0e08 68       		.sleb128 -24
 3799 0e09 2D       		.uleb128 0x2d
 3800 0e0a 6D736700 		.ascii	"msg\000"
 3801 0e0e 08       		.byte	0x8
 3802 0e0f 2B02     		.2byte	0x22b
 3803 0e11 4B010000 		.4byte	0x14b
 3804 0e15 02       		.uleb128 0x2
 3805 0e16 91       		.byte	0x91
 3806 0e17 74       		.sleb128 -12
 3807 0e18 00       		.byte	0
 3808 0e19 2C       		.uleb128 0x2c
 3809 0e1a 40040000 		.4byte	.LASF158
 3810 0e1e 08       		.byte	0x8
 3811 0e1f 4802     		.2byte	0x248
 3812 0e21 4B010000 		.4byte	0x14b
 3813 0e25 70060000 		.4byte	.LFB282
 3814 0e29 4A000000 		.4byte	.LFE282-.LFB282
 3815 0e2d 01       		.uleb128 0x1
 3816 0e2e 9C       		.byte	0x9c
 3817 0e2f 740E0000 		.4byte	0xe74
 3818 0e33 23       		.uleb128 0x23
 3819 0e34 65050000 		.4byte	.LASF151
 3820 0e38 08       		.byte	0x8
 3821 0e39 4802     		.2byte	0x248
 3822 0e3b 2D0D0000 		.4byte	0xd2d
 3823 0e3f 02       		.uleb128 0x2
 3824 0e40 91       		.byte	0x91
 3825 0e41 6C       		.sleb128 -20
 3826 0e42 23       		.uleb128 0x23
 3827 0e43 F7020000 		.4byte	.LASF142
 3828 0e47 08       		.byte	0x8
 3829 0e48 4902     		.2byte	0x249
 3830 0e4a 6C010000 		.4byte	0x16c
 3831 0e4e 02       		.uleb128 0x2
 3832 0e4f 91       		.byte	0x91
 3833 0e50 68       		.sleb128 -24
 3834 0e51 1F       		.uleb128 0x1f
 3835 0e52 01060000 		.4byte	.LASF136
 3836 0e56 740E0000 		.4byte	0xe74
 3837 0e5a 2A       		.uleb128 0x2a
 3838 0e5b 7A060000 		.4byte	.LBB14
 3839 0e5f 16000000 		.4byte	.LBE14-.LBB14
 3840 0e63 2D       		.uleb128 0x2d
 3841 0e64 6D736700 		.ascii	"msg\000"
 3842 0e68 08       		.byte	0x8
 3843 0e69 4E02     		.2byte	0x24e
 3844 0e6b 4B010000 		.4byte	0x14b
 3845 0e6f 02       		.uleb128 0x2
 3846 0e70 91       		.byte	0x91
 3847 0e71 74       		.sleb128 -12
 3848 0e72 00       		.byte	0
 3849 0e73 00       		.byte	0
 3850 0e74 07       		.uleb128 0x7
 3851 0e75 BD000000 		.4byte	0xbd
 3852 0e79 2B       		.uleb128 0x2b
ARM GAS  /tmp/ccRqzMr7.s 			page 69


 3853 0e7a C9060000 		.4byte	.LASF159
 3854 0e7e 08       		.byte	0x8
 3855 0e7f 6602     		.2byte	0x266
 3856 0e81 C0060000 		.4byte	.LFB283
 3857 0e85 1E000000 		.4byte	.LFE283-.LFB283
 3858 0e89 01       		.uleb128 0x1
 3859 0e8a 9C       		.byte	0x9c
 3860 0e8b AE0E0000 		.4byte	0xeae
 3861 0e8f 23       		.uleb128 0x23
 3862 0e90 65050000 		.4byte	.LASF151
 3863 0e94 08       		.byte	0x8
 3864 0e95 6602     		.2byte	0x266
 3865 0e97 2D0D0000 		.4byte	0xd2d
 3866 0e9b 02       		.uleb128 0x2
 3867 0e9c 91       		.byte	0x91
 3868 0e9d 74       		.sleb128 -12
 3869 0e9e 23       		.uleb128 0x23
 3870 0e9f 59010000 		.4byte	.LASF134
 3871 0ea3 08       		.byte	0x8
 3872 0ea4 6602     		.2byte	0x266
 3873 0ea6 2C000000 		.4byte	0x2c
 3874 0eaa 02       		.uleb128 0x2
 3875 0eab 91       		.byte	0x91
 3876 0eac 70       		.sleb128 -16
 3877 0ead 00       		.byte	0
 3878 0eae 2B       		.uleb128 0x2b
 3879 0eaf 98060000 		.4byte	.LASF160
 3880 0eb3 08       		.byte	0x8
 3881 0eb4 7602     		.2byte	0x276
 3882 0eb6 E0060000 		.4byte	.LFB284
 3883 0eba 58000000 		.4byte	.LFE284-.LFB284
 3884 0ebe 01       		.uleb128 0x1
 3885 0ebf 9C       		.byte	0x9c
 3886 0ec0 EC0E0000 		.4byte	0xeec
 3887 0ec4 23       		.uleb128 0x23
 3888 0ec5 65050000 		.4byte	.LASF151
 3889 0ec9 08       		.byte	0x8
 3890 0eca 7602     		.2byte	0x276
 3891 0ecc 2D0D0000 		.4byte	0xd2d
 3892 0ed0 02       		.uleb128 0x2
 3893 0ed1 91       		.byte	0x91
 3894 0ed2 74       		.sleb128 -12
 3895 0ed3 23       		.uleb128 0x23
 3896 0ed4 59010000 		.4byte	.LASF134
 3897 0ed8 08       		.byte	0x8
 3898 0ed9 7602     		.2byte	0x276
 3899 0edb 2C000000 		.4byte	0x2c
 3900 0edf 02       		.uleb128 0x2
 3901 0ee0 91       		.byte	0x91
 3902 0ee1 70       		.sleb128 -16
 3903 0ee2 1F       		.uleb128 0x1f
 3904 0ee3 01060000 		.4byte	.LASF136
 3905 0ee7 EC0E0000 		.4byte	0xeec
 3906 0eeb 00       		.byte	0
 3907 0eec 07       		.uleb128 0x7
 3908 0eed 960A0000 		.4byte	0xa96
 3909 0ef1 2C       		.uleb128 0x2c
ARM GAS  /tmp/ccRqzMr7.s 			page 70


 3910 0ef2 E7050000 		.4byte	.LASF161
 3911 0ef6 08       		.byte	0x8
 3912 0ef7 A202     		.2byte	0x2a2
 3913 0ef9 4B010000 		.4byte	0x14b
 3914 0efd 40070000 		.4byte	.LFB285
 3915 0f01 6E000000 		.4byte	.LFE285-.LFB285
 3916 0f05 01       		.uleb128 0x1
 3917 0f06 9C       		.byte	0x9c
 3918 0f07 460F0000 		.4byte	0xf46
 3919 0f0b 23       		.uleb128 0x23
 3920 0f0c 65050000 		.4byte	.LASF151
 3921 0f10 08       		.byte	0x8
 3922 0f11 A202     		.2byte	0x2a2
 3923 0f13 2D0D0000 		.4byte	0xd2d
 3924 0f17 02       		.uleb128 0x2
 3925 0f18 91       		.byte	0x91
 3926 0f19 6C       		.sleb128 -20
 3927 0f1a 1C       		.uleb128 0x1c
 3928 0f1b 6200     		.ascii	"b\000"
 3929 0f1d 08       		.byte	0x8
 3930 0f1e A202     		.2byte	0x2a2
 3931 0f20 DD000000 		.4byte	0xdd
 3932 0f24 02       		.uleb128 0x2
 3933 0f25 91       		.byte	0x91
 3934 0f26 6B       		.sleb128 -21
 3935 0f27 23       		.uleb128 0x23
 3936 0f28 F7020000 		.4byte	.LASF142
 3937 0f2c 08       		.byte	0x8
 3938 0f2d A302     		.2byte	0x2a3
 3939 0f2f 6C010000 		.4byte	0x16c
 3940 0f33 02       		.uleb128 0x2
 3941 0f34 91       		.byte	0x91
 3942 0f35 64       		.sleb128 -28
 3943 0f36 2D       		.uleb128 0x2d
 3944 0f37 6D736700 		.ascii	"msg\000"
 3945 0f3b 08       		.byte	0x8
 3946 0f3c A402     		.2byte	0x2a4
 3947 0f3e 4B010000 		.4byte	0x14b
 3948 0f42 02       		.uleb128 0x2
 3949 0f43 91       		.byte	0x91
 3950 0f44 74       		.sleb128 -12
 3951 0f45 00       		.byte	0
 3952 0f46 2C       		.uleb128 0x2c
 3953 0f47 1E060000 		.4byte	.LASF162
 3954 0f4b 08       		.byte	0x8
 3955 0f4c D402     		.2byte	0x2d4
 3956 0f4e 2C000000 		.4byte	0x2c
 3957 0f52 B0070000 		.4byte	.LFB286
 3958 0f56 28010000 		.4byte	.LFE286-.LFB286
 3959 0f5a 01       		.uleb128 0x1
 3960 0f5b 9C       		.byte	0x9c
 3961 0f5c 01100000 		.4byte	0x1001
 3962 0f60 23       		.uleb128 0x23
 3963 0f61 65050000 		.4byte	.LASF151
 3964 0f65 08       		.byte	0x8
 3965 0f66 D402     		.2byte	0x2d4
 3966 0f68 2D0D0000 		.4byte	0xd2d
ARM GAS  /tmp/ccRqzMr7.s 			page 71


 3967 0f6c 02       		.uleb128 0x2
 3968 0f6d 91       		.byte	0x91
 3969 0f6e 5C       		.sleb128 -36
 3970 0f6f 1C       		.uleb128 0x1c
 3971 0f70 627000   		.ascii	"bp\000"
 3972 0f73 08       		.byte	0x8
 3973 0f74 D402     		.2byte	0x2d4
 3974 0f76 68060000 		.4byte	0x668
 3975 0f7a 02       		.uleb128 0x2
 3976 0f7b 91       		.byte	0x91
 3977 0f7c 58       		.sleb128 -40
 3978 0f7d 1C       		.uleb128 0x1c
 3979 0f7e 6E00     		.ascii	"n\000"
 3980 0f80 08       		.byte	0x8
 3981 0f81 D502     		.2byte	0x2d5
 3982 0f83 2C000000 		.4byte	0x2c
 3983 0f87 02       		.uleb128 0x2
 3984 0f88 91       		.byte	0x91
 3985 0f89 54       		.sleb128 -44
 3986 0f8a 23       		.uleb128 0x23
 3987 0f8b F7020000 		.4byte	.LASF142
 3988 0f8f 08       		.byte	0x8
 3989 0f90 D502     		.2byte	0x2d5
 3990 0f92 6C010000 		.4byte	0x16c
 3991 0f96 02       		.uleb128 0x2
 3992 0f97 91       		.byte	0x91
 3993 0f98 50       		.sleb128 -48
 3994 0f99 2D       		.uleb128 0x2d
 3995 0f9a 7700     		.ascii	"w\000"
 3996 0f9c 08       		.byte	0x8
 3997 0f9d D602     		.2byte	0x2d6
 3998 0f9f 2C000000 		.4byte	0x2c
 3999 0fa3 02       		.uleb128 0x2
 4000 0fa4 91       		.byte	0x91
 4001 0fa5 74       		.sleb128 -12
 4002 0fa6 2E       		.uleb128 0x2e
 4003 0fa7 90080000 		.4byte	.LASF148
 4004 0fab 08       		.byte	0x8
 4005 0fac D702     		.2byte	0x2d7
 4006 0fae 6C010000 		.4byte	0x16c
 4007 0fb2 02       		.uleb128 0x2
 4008 0fb3 91       		.byte	0x91
 4009 0fb4 68       		.sleb128 -24
 4010 0fb5 2A       		.uleb128 0x2a
 4011 0fb6 D0070000 		.4byte	.LBB15
 4012 0fba FE000000 		.4byte	.LBE15-.LBB15
 4013 0fbe 2E       		.uleb128 0x2e
 4014 0fbf 59010000 		.4byte	.LASF134
 4015 0fc3 08       		.byte	0x8
 4016 0fc4 DF02     		.2byte	0x2df
 4017 0fc6 2C000000 		.4byte	0x2c
 4018 0fca 02       		.uleb128 0x2
 4019 0fcb 91       		.byte	0x91
 4020 0fcc 70       		.sleb128 -16
 4021 0fcd 2A       		.uleb128 0x2a
 4022 0fce D8070000 		.4byte	.LBB16
 4023 0fd2 4E000000 		.4byte	.LBE16-.LBB16
ARM GAS  /tmp/ccRqzMr7.s 			page 72


 4024 0fd6 2D       		.uleb128 0x2d
 4025 0fd7 6D736700 		.ascii	"msg\000"
 4026 0fdb 08       		.byte	0x8
 4027 0fdc E302     		.2byte	0x2e3
 4028 0fde 4B010000 		.4byte	0x14b
 4029 0fe2 02       		.uleb128 0x2
 4030 0fe3 91       		.byte	0x91
 4031 0fe4 6C       		.sleb128 -20
 4032 0fe5 2A       		.uleb128 0x2a
 4033 0fe6 F2070000 		.4byte	.LBB17
 4034 0fea 26000000 		.4byte	.LBE17-.LBB17
 4035 0fee 2E       		.uleb128 0x2e
 4036 0fef B1080000 		.4byte	.LASF149
 4037 0ff3 08       		.byte	0x8
 4038 0ff4 EB02     		.2byte	0x2eb
 4039 0ff6 6C010000 		.4byte	0x16c
 4040 0ffa 02       		.uleb128 0x2
 4041 0ffb 91       		.byte	0x91
 4042 0ffc 64       		.sleb128 -28
 4043 0ffd 00       		.byte	0
 4044 0ffe 00       		.byte	0
 4045 0fff 00       		.byte	0
 4046 1000 00       		.byte	0
 4047 1001 2F       		.uleb128 0x2f
 4048 1002 22010000 		.4byte	.LASF163
 4049 1006 08       		.byte	0x8
 4050 1007 2F03     		.2byte	0x32f
 4051 1009 73060000 		.4byte	0x673
 4052 100d E0080000 		.4byte	.LFB287
 4053 1011 8C000000 		.4byte	.LFE287-.LFB287
 4054 1015 01       		.uleb128 0x1
 4055 1016 9C       		.byte	0x9c
 4056 1017 44100000 		.4byte	0x1044
 4057 101b 23       		.uleb128 0x23
 4058 101c 65050000 		.4byte	.LASF151
 4059 1020 08       		.byte	0x8
 4060 1021 2F03     		.2byte	0x32f
 4061 1023 2D0D0000 		.4byte	0xd2d
 4062 1027 02       		.uleb128 0x2
 4063 1028 91       		.byte	0x91
 4064 1029 74       		.sleb128 -12
 4065 102a 2A       		.uleb128 0x2a
 4066 102b 10090000 		.4byte	.LBB18
 4067 102f 54000000 		.4byte	.LBE18-.LBB18
 4068 1033 2E       		.uleb128 0x2e
 4069 1034 59010000 		.4byte	.LASF134
 4070 1038 08       		.byte	0x8
 4071 1039 3603     		.2byte	0x336
 4072 103b 2C000000 		.4byte	0x2c
 4073 103f 02       		.uleb128 0x2
 4074 1040 91       		.byte	0x91
 4075 1041 7C       		.sleb128 -4
 4076 1042 00       		.byte	0
 4077 1043 00       		.byte	0
 4078 1044 2B       		.uleb128 0x2b
 4079 1045 98020000 		.4byte	.LASF164
 4080 1049 08       		.byte	0x8
ARM GAS  /tmp/ccRqzMr7.s 			page 73


 4081 104a 5403     		.2byte	0x354
 4082 104c 70090000 		.4byte	.LFB288
 4083 1050 3A000000 		.4byte	.LFE288-.LFB288
 4084 1054 01       		.uleb128 0x1
 4085 1055 9C       		.byte	0x9c
 4086 1056 83100000 		.4byte	0x1083
 4087 105a 23       		.uleb128 0x23
 4088 105b 65050000 		.4byte	.LASF151
 4089 105f 08       		.byte	0x8
 4090 1060 5403     		.2byte	0x354
 4091 1062 2D0D0000 		.4byte	0xd2d
 4092 1066 02       		.uleb128 0x2
 4093 1067 91       		.byte	0x91
 4094 1068 6C       		.sleb128 -20
 4095 1069 2A       		.uleb128 0x2a
 4096 106a 82090000 		.4byte	.LBB19
 4097 106e 1E000000 		.4byte	.LBE19-.LBB19
 4098 1072 2E       		.uleb128 0x2e
 4099 1073 59010000 		.4byte	.LASF134
 4100 1077 08       		.byte	0x8
 4101 1078 5A03     		.2byte	0x35a
 4102 107a 2C000000 		.4byte	0x2c
 4103 107e 02       		.uleb128 0x2
 4104 107f 91       		.byte	0x91
 4105 1080 74       		.sleb128 -12
 4106 1081 00       		.byte	0
 4107 1082 00       		.byte	0
 4108 1083 30       		.uleb128 0x30
 4109 1084 FD000000 		.4byte	.LASF165
 4110 1088 13       		.byte	0x13
 4111 1089 FA06     		.2byte	0x6fa
 4112 108b 8F100000 		.4byte	0x108f
 4113 108f 16       		.uleb128 0x16
 4114 1090 E8000000 		.4byte	0xe8
 4115 1094 31       		.uleb128 0x31
 4116 1095 636800   		.ascii	"ch\000"
 4117 1098 03       		.byte	0x3
 4118 1099 0902     		.2byte	0x209
 4119 109b 30040000 		.4byte	0x430
 4120 109f 00       		.byte	0
 4121              		.section	.debug_abbrev,"",%progbits
 4122              	.Ldebug_abbrev0:
 4123 0000 01       		.uleb128 0x1
 4124 0001 11       		.uleb128 0x11
 4125 0002 01       		.byte	0x1
 4126 0003 25       		.uleb128 0x25
 4127 0004 0E       		.uleb128 0xe
 4128 0005 13       		.uleb128 0x13
 4129 0006 0B       		.uleb128 0xb
 4130 0007 03       		.uleb128 0x3
 4131 0008 0E       		.uleb128 0xe
 4132 0009 1B       		.uleb128 0x1b
 4133 000a 0E       		.uleb128 0xe
 4134 000b 11       		.uleb128 0x11
 4135 000c 01       		.uleb128 0x1
 4136 000d 12       		.uleb128 0x12
 4137 000e 06       		.uleb128 0x6
ARM GAS  /tmp/ccRqzMr7.s 			page 74


 4138 000f 10       		.uleb128 0x10
 4139 0010 17       		.uleb128 0x17
 4140 0011 00       		.byte	0
 4141 0012 00       		.byte	0
 4142 0013 02       		.uleb128 0x2
 4143 0014 24       		.uleb128 0x24
 4144 0015 00       		.byte	0
 4145 0016 0B       		.uleb128 0xb
 4146 0017 0B       		.uleb128 0xb
 4147 0018 3E       		.uleb128 0x3e
 4148 0019 0B       		.uleb128 0xb
 4149 001a 03       		.uleb128 0x3
 4150 001b 08       		.uleb128 0x8
 4151 001c 00       		.byte	0
 4152 001d 00       		.byte	0
 4153 001e 03       		.uleb128 0x3
 4154 001f 16       		.uleb128 0x16
 4155 0020 00       		.byte	0
 4156 0021 03       		.uleb128 0x3
 4157 0022 0E       		.uleb128 0xe
 4158 0023 3A       		.uleb128 0x3a
 4159 0024 0B       		.uleb128 0xb
 4160 0025 3B       		.uleb128 0x3b
 4161 0026 0B       		.uleb128 0xb
 4162 0027 49       		.uleb128 0x49
 4163 0028 13       		.uleb128 0x13
 4164 0029 00       		.byte	0
 4165 002a 00       		.byte	0
 4166 002b 04       		.uleb128 0x4
 4167 002c 24       		.uleb128 0x24
 4168 002d 00       		.byte	0
 4169 002e 0B       		.uleb128 0xb
 4170 002f 0B       		.uleb128 0xb
 4171 0030 3E       		.uleb128 0x3e
 4172 0031 0B       		.uleb128 0xb
 4173 0032 03       		.uleb128 0x3
 4174 0033 0E       		.uleb128 0xe
 4175 0034 00       		.byte	0
 4176 0035 00       		.byte	0
 4177 0036 05       		.uleb128 0x5
 4178 0037 0F       		.uleb128 0xf
 4179 0038 00       		.byte	0
 4180 0039 0B       		.uleb128 0xb
 4181 003a 0B       		.uleb128 0xb
 4182 003b 00       		.byte	0
 4183 003c 00       		.byte	0
 4184 003d 06       		.uleb128 0x6
 4185 003e 0F       		.uleb128 0xf
 4186 003f 00       		.byte	0
 4187 0040 0B       		.uleb128 0xb
 4188 0041 0B       		.uleb128 0xb
 4189 0042 49       		.uleb128 0x49
 4190 0043 13       		.uleb128 0x13
 4191 0044 00       		.byte	0
 4192 0045 00       		.byte	0
 4193 0046 07       		.uleb128 0x7
 4194 0047 26       		.uleb128 0x26
ARM GAS  /tmp/ccRqzMr7.s 			page 75


 4195 0048 00       		.byte	0
 4196 0049 49       		.uleb128 0x49
 4197 004a 13       		.uleb128 0x13
 4198 004b 00       		.byte	0
 4199 004c 00       		.byte	0
 4200 004d 08       		.uleb128 0x8
 4201 004e 01       		.uleb128 0x1
 4202 004f 01       		.byte	0x1
 4203 0050 49       		.uleb128 0x49
 4204 0051 13       		.uleb128 0x13
 4205 0052 01       		.uleb128 0x1
 4206 0053 13       		.uleb128 0x13
 4207 0054 00       		.byte	0
 4208 0055 00       		.byte	0
 4209 0056 09       		.uleb128 0x9
 4210 0057 21       		.uleb128 0x21
 4211 0058 00       		.byte	0
 4212 0059 49       		.uleb128 0x49
 4213 005a 13       		.uleb128 0x13
 4214 005b 2F       		.uleb128 0x2f
 4215 005c 0B       		.uleb128 0xb
 4216 005d 00       		.byte	0
 4217 005e 00       		.byte	0
 4218 005f 0A       		.uleb128 0xa
 4219 0060 13       		.uleb128 0x13
 4220 0061 01       		.byte	0x1
 4221 0062 03       		.uleb128 0x3
 4222 0063 0E       		.uleb128 0xe
 4223 0064 0B       		.uleb128 0xb
 4224 0065 0B       		.uleb128 0xb
 4225 0066 3A       		.uleb128 0x3a
 4226 0067 0B       		.uleb128 0xb
 4227 0068 3B       		.uleb128 0x3b
 4228 0069 0B       		.uleb128 0xb
 4229 006a 01       		.uleb128 0x1
 4230 006b 13       		.uleb128 0x13
 4231 006c 00       		.byte	0
 4232 006d 00       		.byte	0
 4233 006e 0B       		.uleb128 0xb
 4234 006f 0D       		.uleb128 0xd
 4235 0070 00       		.byte	0
 4236 0071 03       		.uleb128 0x3
 4237 0072 0E       		.uleb128 0xe
 4238 0073 3A       		.uleb128 0x3a
 4239 0074 0B       		.uleb128 0xb
 4240 0075 3B       		.uleb128 0x3b
 4241 0076 0B       		.uleb128 0xb
 4242 0077 49       		.uleb128 0x49
 4243 0078 13       		.uleb128 0x13
 4244 0079 38       		.uleb128 0x38
 4245 007a 0B       		.uleb128 0xb
 4246 007b 00       		.byte	0
 4247 007c 00       		.byte	0
 4248 007d 0C       		.uleb128 0xc
 4249 007e 0D       		.uleb128 0xd
 4250 007f 00       		.byte	0
 4251 0080 03       		.uleb128 0x3
ARM GAS  /tmp/ccRqzMr7.s 			page 76


 4252 0081 08       		.uleb128 0x8
 4253 0082 3A       		.uleb128 0x3a
 4254 0083 0B       		.uleb128 0xb
 4255 0084 3B       		.uleb128 0x3b
 4256 0085 05       		.uleb128 0x5
 4257 0086 49       		.uleb128 0x49
 4258 0087 13       		.uleb128 0x13
 4259 0088 38       		.uleb128 0x38
 4260 0089 0B       		.uleb128 0xb
 4261 008a 00       		.byte	0
 4262 008b 00       		.byte	0
 4263 008c 0D       		.uleb128 0xd
 4264 008d 0D       		.uleb128 0xd
 4265 008e 00       		.byte	0
 4266 008f 03       		.uleb128 0x3
 4267 0090 0E       		.uleb128 0xe
 4268 0091 3A       		.uleb128 0x3a
 4269 0092 0B       		.uleb128 0xb
 4270 0093 3B       		.uleb128 0x3b
 4271 0094 05       		.uleb128 0x5
 4272 0095 49       		.uleb128 0x49
 4273 0096 13       		.uleb128 0x13
 4274 0097 38       		.uleb128 0x38
 4275 0098 0B       		.uleb128 0xb
 4276 0099 00       		.byte	0
 4277 009a 00       		.byte	0
 4278 009b 0E       		.uleb128 0xe
 4279 009c 13       		.uleb128 0x13
 4280 009d 01       		.byte	0x1
 4281 009e 03       		.uleb128 0x3
 4282 009f 0E       		.uleb128 0xe
 4283 00a0 0B       		.uleb128 0xb
 4284 00a1 0B       		.uleb128 0xb
 4285 00a2 3A       		.uleb128 0x3a
 4286 00a3 0B       		.uleb128 0xb
 4287 00a4 3B       		.uleb128 0x3b
 4288 00a5 05       		.uleb128 0x5
 4289 00a6 01       		.uleb128 0x1
 4290 00a7 13       		.uleb128 0x13
 4291 00a8 00       		.byte	0
 4292 00a9 00       		.byte	0
 4293 00aa 0F       		.uleb128 0xf
 4294 00ab 15       		.uleb128 0x15
 4295 00ac 01       		.byte	0x1
 4296 00ad 27       		.uleb128 0x27
 4297 00ae 19       		.uleb128 0x19
 4298 00af 01       		.uleb128 0x1
 4299 00b0 13       		.uleb128 0x13
 4300 00b1 00       		.byte	0
 4301 00b2 00       		.byte	0
 4302 00b3 10       		.uleb128 0x10
 4303 00b4 05       		.uleb128 0x5
 4304 00b5 00       		.byte	0
 4305 00b6 49       		.uleb128 0x49
 4306 00b7 13       		.uleb128 0x13
 4307 00b8 00       		.byte	0
 4308 00b9 00       		.byte	0
ARM GAS  /tmp/ccRqzMr7.s 			page 77


 4309 00ba 11       		.uleb128 0x11
 4310 00bb 13       		.uleb128 0x13
 4311 00bc 01       		.byte	0x1
 4312 00bd 03       		.uleb128 0x3
 4313 00be 0E       		.uleb128 0xe
 4314 00bf 0B       		.uleb128 0xb
 4315 00c0 05       		.uleb128 0x5
 4316 00c1 3A       		.uleb128 0x3a
 4317 00c2 0B       		.uleb128 0xb
 4318 00c3 3B       		.uleb128 0x3b
 4319 00c4 05       		.uleb128 0x5
 4320 00c5 01       		.uleb128 0x1
 4321 00c6 13       		.uleb128 0x13
 4322 00c7 00       		.byte	0
 4323 00c8 00       		.byte	0
 4324 00c9 12       		.uleb128 0x12
 4325 00ca 0D       		.uleb128 0xd
 4326 00cb 00       		.byte	0
 4327 00cc 03       		.uleb128 0x3
 4328 00cd 08       		.uleb128 0x8
 4329 00ce 3A       		.uleb128 0x3a
 4330 00cf 0B       		.uleb128 0xb
 4331 00d0 3B       		.uleb128 0x3b
 4332 00d1 0B       		.uleb128 0xb
 4333 00d2 49       		.uleb128 0x49
 4334 00d3 13       		.uleb128 0x13
 4335 00d4 38       		.uleb128 0x38
 4336 00d5 0B       		.uleb128 0xb
 4337 00d6 00       		.byte	0
 4338 00d7 00       		.byte	0
 4339 00d8 13       		.uleb128 0x13
 4340 00d9 13       		.uleb128 0x13
 4341 00da 01       		.byte	0x1
 4342 00db 0B       		.uleb128 0xb
 4343 00dc 0B       		.uleb128 0xb
 4344 00dd 3A       		.uleb128 0x3a
 4345 00de 0B       		.uleb128 0xb
 4346 00df 3B       		.uleb128 0x3b
 4347 00e0 0B       		.uleb128 0xb
 4348 00e1 01       		.uleb128 0x1
 4349 00e2 13       		.uleb128 0x13
 4350 00e3 00       		.byte	0
 4351 00e4 00       		.byte	0
 4352 00e5 14       		.uleb128 0x14
 4353 00e6 17       		.uleb128 0x17
 4354 00e7 01       		.byte	0x1
 4355 00e8 0B       		.uleb128 0xb
 4356 00e9 0B       		.uleb128 0xb
 4357 00ea 3A       		.uleb128 0x3a
 4358 00eb 0B       		.uleb128 0xb
 4359 00ec 3B       		.uleb128 0x3b
 4360 00ed 0B       		.uleb128 0xb
 4361 00ee 01       		.uleb128 0x1
 4362 00ef 13       		.uleb128 0x13
 4363 00f0 00       		.byte	0
 4364 00f1 00       		.byte	0
 4365 00f2 15       		.uleb128 0x15
ARM GAS  /tmp/ccRqzMr7.s 			page 78


 4366 00f3 0D       		.uleb128 0xd
 4367 00f4 00       		.byte	0
 4368 00f5 03       		.uleb128 0x3
 4369 00f6 0E       		.uleb128 0xe
 4370 00f7 3A       		.uleb128 0x3a
 4371 00f8 0B       		.uleb128 0xb
 4372 00f9 3B       		.uleb128 0x3b
 4373 00fa 05       		.uleb128 0x5
 4374 00fb 49       		.uleb128 0x49
 4375 00fc 13       		.uleb128 0x13
 4376 00fd 00       		.byte	0
 4377 00fe 00       		.byte	0
 4378 00ff 16       		.uleb128 0x16
 4379 0100 35       		.uleb128 0x35
 4380 0101 00       		.byte	0
 4381 0102 49       		.uleb128 0x49
 4382 0103 13       		.uleb128 0x13
 4383 0104 00       		.byte	0
 4384 0105 00       		.byte	0
 4385 0106 17       		.uleb128 0x17
 4386 0107 2E       		.uleb128 0x2e
 4387 0108 01       		.byte	0x1
 4388 0109 03       		.uleb128 0x3
 4389 010a 0E       		.uleb128 0xe
 4390 010b 3A       		.uleb128 0x3a
 4391 010c 0B       		.uleb128 0xb
 4392 010d 3B       		.uleb128 0x3b
 4393 010e 05       		.uleb128 0x5
 4394 010f 27       		.uleb128 0x27
 4395 0110 19       		.uleb128 0x19
 4396 0111 20       		.uleb128 0x20
 4397 0112 0B       		.uleb128 0xb
 4398 0113 01       		.uleb128 0x1
 4399 0114 13       		.uleb128 0x13
 4400 0115 00       		.byte	0
 4401 0116 00       		.byte	0
 4402 0117 18       		.uleb128 0x18
 4403 0118 05       		.uleb128 0x5
 4404 0119 00       		.byte	0
 4405 011a 03       		.uleb128 0x3
 4406 011b 0E       		.uleb128 0xe
 4407 011c 3A       		.uleb128 0x3a
 4408 011d 0B       		.uleb128 0xb
 4409 011e 3B       		.uleb128 0x3b
 4410 011f 05       		.uleb128 0x5
 4411 0120 49       		.uleb128 0x49
 4412 0121 13       		.uleb128 0x13
 4413 0122 00       		.byte	0
 4414 0123 00       		.byte	0
 4415 0124 19       		.uleb128 0x19
 4416 0125 2E       		.uleb128 0x2e
 4417 0126 01       		.byte	0x1
 4418 0127 03       		.uleb128 0x3
 4419 0128 0E       		.uleb128 0xe
 4420 0129 3A       		.uleb128 0x3a
 4421 012a 0B       		.uleb128 0xb
 4422 012b 3B       		.uleb128 0x3b
ARM GAS  /tmp/ccRqzMr7.s 			page 79


 4423 012c 05       		.uleb128 0x5
 4424 012d 27       		.uleb128 0x27
 4425 012e 19       		.uleb128 0x19
 4426 012f 11       		.uleb128 0x11
 4427 0130 01       		.uleb128 0x1
 4428 0131 12       		.uleb128 0x12
 4429 0132 06       		.uleb128 0x6
 4430 0133 40       		.uleb128 0x40
 4431 0134 18       		.uleb128 0x18
 4432 0135 9742     		.uleb128 0x2117
 4433 0137 19       		.uleb128 0x19
 4434 0138 01       		.uleb128 0x1
 4435 0139 13       		.uleb128 0x13
 4436 013a 00       		.byte	0
 4437 013b 00       		.byte	0
 4438 013c 1A       		.uleb128 0x1a
 4439 013d 1D       		.uleb128 0x1d
 4440 013e 01       		.byte	0x1
 4441 013f 31       		.uleb128 0x31
 4442 0140 13       		.uleb128 0x13
 4443 0141 11       		.uleb128 0x11
 4444 0142 01       		.uleb128 0x1
 4445 0143 12       		.uleb128 0x12
 4446 0144 06       		.uleb128 0x6
 4447 0145 58       		.uleb128 0x58
 4448 0146 0B       		.uleb128 0xb
 4449 0147 59       		.uleb128 0x59
 4450 0148 05       		.uleb128 0x5
 4451 0149 00       		.byte	0
 4452 014a 00       		.byte	0
 4453 014b 1B       		.uleb128 0x1b
 4454 014c 05       		.uleb128 0x5
 4455 014d 00       		.byte	0
 4456 014e 31       		.uleb128 0x31
 4457 014f 13       		.uleb128 0x13
 4458 0150 02       		.uleb128 0x2
 4459 0151 18       		.uleb128 0x18
 4460 0152 00       		.byte	0
 4461 0153 00       		.byte	0
 4462 0154 1C       		.uleb128 0x1c
 4463 0155 05       		.uleb128 0x5
 4464 0156 00       		.byte	0
 4465 0157 03       		.uleb128 0x3
 4466 0158 08       		.uleb128 0x8
 4467 0159 3A       		.uleb128 0x3a
 4468 015a 0B       		.uleb128 0xb
 4469 015b 3B       		.uleb128 0x3b
 4470 015c 05       		.uleb128 0x5
 4471 015d 49       		.uleb128 0x49
 4472 015e 13       		.uleb128 0x13
 4473 015f 02       		.uleb128 0x2
 4474 0160 18       		.uleb128 0x18
 4475 0161 00       		.byte	0
 4476 0162 00       		.byte	0
 4477 0163 1D       		.uleb128 0x1d
 4478 0164 2E       		.uleb128 0x2e
 4479 0165 00       		.byte	0
ARM GAS  /tmp/ccRqzMr7.s 			page 80


 4480 0166 03       		.uleb128 0x3
 4481 0167 0E       		.uleb128 0xe
 4482 0168 3A       		.uleb128 0x3a
 4483 0169 0B       		.uleb128 0xb
 4484 016a 3B       		.uleb128 0x3b
 4485 016b 05       		.uleb128 0x5
 4486 016c 27       		.uleb128 0x27
 4487 016d 19       		.uleb128 0x19
 4488 016e 11       		.uleb128 0x11
 4489 016f 01       		.uleb128 0x1
 4490 0170 12       		.uleb128 0x12
 4491 0171 06       		.uleb128 0x6
 4492 0172 40       		.uleb128 0x40
 4493 0173 18       		.uleb128 0x18
 4494 0174 9642     		.uleb128 0x2116
 4495 0176 19       		.uleb128 0x19
 4496 0177 00       		.byte	0
 4497 0178 00       		.byte	0
 4498 0179 1E       		.uleb128 0x1e
 4499 017a 2E       		.uleb128 0x2e
 4500 017b 01       		.byte	0x1
 4501 017c 03       		.uleb128 0x3
 4502 017d 0E       		.uleb128 0xe
 4503 017e 3A       		.uleb128 0x3a
 4504 017f 0B       		.uleb128 0xb
 4505 0180 3B       		.uleb128 0x3b
 4506 0181 05       		.uleb128 0x5
 4507 0182 27       		.uleb128 0x27
 4508 0183 19       		.uleb128 0x19
 4509 0184 11       		.uleb128 0x11
 4510 0185 01       		.uleb128 0x1
 4511 0186 12       		.uleb128 0x12
 4512 0187 06       		.uleb128 0x6
 4513 0188 40       		.uleb128 0x40
 4514 0189 18       		.uleb128 0x18
 4515 018a 9642     		.uleb128 0x2116
 4516 018c 19       		.uleb128 0x19
 4517 018d 01       		.uleb128 0x1
 4518 018e 13       		.uleb128 0x13
 4519 018f 00       		.byte	0
 4520 0190 00       		.byte	0
 4521 0191 1F       		.uleb128 0x1f
 4522 0192 34       		.uleb128 0x34
 4523 0193 00       		.byte	0
 4524 0194 03       		.uleb128 0x3
 4525 0195 0E       		.uleb128 0xe
 4526 0196 49       		.uleb128 0x49
 4527 0197 13       		.uleb128 0x13
 4528 0198 34       		.uleb128 0x34
 4529 0199 19       		.uleb128 0x19
 4530 019a 00       		.byte	0
 4531 019b 00       		.byte	0
 4532 019c 20       		.uleb128 0x20
 4533 019d 2E       		.uleb128 0x2e
 4534 019e 00       		.byte	0
 4535 019f 03       		.uleb128 0x3
 4536 01a0 0E       		.uleb128 0xe
ARM GAS  /tmp/ccRqzMr7.s 			page 81


 4537 01a1 3A       		.uleb128 0x3a
 4538 01a2 0B       		.uleb128 0xb
 4539 01a3 3B       		.uleb128 0x3b
 4540 01a4 0B       		.uleb128 0xb
 4541 01a5 27       		.uleb128 0x27
 4542 01a6 19       		.uleb128 0x19
 4543 01a7 49       		.uleb128 0x49
 4544 01a8 13       		.uleb128 0x13
 4545 01a9 11       		.uleb128 0x11
 4546 01aa 01       		.uleb128 0x1
 4547 01ab 12       		.uleb128 0x12
 4548 01ac 06       		.uleb128 0x6
 4549 01ad 40       		.uleb128 0x40
 4550 01ae 18       		.uleb128 0x18
 4551 01af 9742     		.uleb128 0x2117
 4552 01b1 19       		.uleb128 0x19
 4553 01b2 00       		.byte	0
 4554 01b3 00       		.byte	0
 4555 01b4 21       		.uleb128 0x21
 4556 01b5 2E       		.uleb128 0x2e
 4557 01b6 00       		.byte	0
 4558 01b7 03       		.uleb128 0x3
 4559 01b8 0E       		.uleb128 0xe
 4560 01b9 3A       		.uleb128 0x3a
 4561 01ba 0B       		.uleb128 0xb
 4562 01bb 3B       		.uleb128 0x3b
 4563 01bc 05       		.uleb128 0x5
 4564 01bd 27       		.uleb128 0x27
 4565 01be 19       		.uleb128 0x19
 4566 01bf 49       		.uleb128 0x49
 4567 01c0 13       		.uleb128 0x13
 4568 01c1 11       		.uleb128 0x11
 4569 01c2 01       		.uleb128 0x1
 4570 01c3 12       		.uleb128 0x12
 4571 01c4 06       		.uleb128 0x6
 4572 01c5 40       		.uleb128 0x40
 4573 01c6 18       		.uleb128 0x18
 4574 01c7 9642     		.uleb128 0x2116
 4575 01c9 19       		.uleb128 0x19
 4576 01ca 00       		.byte	0
 4577 01cb 00       		.byte	0
 4578 01cc 22       		.uleb128 0x22
 4579 01cd 2E       		.uleb128 0x2e
 4580 01ce 01       		.byte	0x1
 4581 01cf 03       		.uleb128 0x3
 4582 01d0 0E       		.uleb128 0xe
 4583 01d1 3A       		.uleb128 0x3a
 4584 01d2 0B       		.uleb128 0xb
 4585 01d3 3B       		.uleb128 0x3b
 4586 01d4 05       		.uleb128 0x5
 4587 01d5 27       		.uleb128 0x27
 4588 01d6 19       		.uleb128 0x19
 4589 01d7 49       		.uleb128 0x49
 4590 01d8 13       		.uleb128 0x13
 4591 01d9 11       		.uleb128 0x11
 4592 01da 01       		.uleb128 0x1
 4593 01db 12       		.uleb128 0x12
ARM GAS  /tmp/ccRqzMr7.s 			page 82


 4594 01dc 06       		.uleb128 0x6
 4595 01dd 40       		.uleb128 0x40
 4596 01de 18       		.uleb128 0x18
 4597 01df 9642     		.uleb128 0x2116
 4598 01e1 19       		.uleb128 0x19
 4599 01e2 01       		.uleb128 0x1
 4600 01e3 13       		.uleb128 0x13
 4601 01e4 00       		.byte	0
 4602 01e5 00       		.byte	0
 4603 01e6 23       		.uleb128 0x23
 4604 01e7 05       		.uleb128 0x5
 4605 01e8 00       		.byte	0
 4606 01e9 03       		.uleb128 0x3
 4607 01ea 0E       		.uleb128 0xe
 4608 01eb 3A       		.uleb128 0x3a
 4609 01ec 0B       		.uleb128 0xb
 4610 01ed 3B       		.uleb128 0x3b
 4611 01ee 05       		.uleb128 0x5
 4612 01ef 49       		.uleb128 0x49
 4613 01f0 13       		.uleb128 0x13
 4614 01f1 02       		.uleb128 0x2
 4615 01f2 18       		.uleb128 0x18
 4616 01f3 00       		.byte	0
 4617 01f4 00       		.byte	0
 4618 01f5 24       		.uleb128 0x24
 4619 01f6 2E       		.uleb128 0x2e
 4620 01f7 01       		.byte	0x1
 4621 01f8 3F       		.uleb128 0x3f
 4622 01f9 19       		.uleb128 0x19
 4623 01fa 03       		.uleb128 0x3
 4624 01fb 0E       		.uleb128 0xe
 4625 01fc 3A       		.uleb128 0x3a
 4626 01fd 0B       		.uleb128 0xb
 4627 01fe 3B       		.uleb128 0x3b
 4628 01ff 0B       		.uleb128 0xb
 4629 0200 27       		.uleb128 0x27
 4630 0201 19       		.uleb128 0x19
 4631 0202 11       		.uleb128 0x11
 4632 0203 01       		.uleb128 0x1
 4633 0204 12       		.uleb128 0x12
 4634 0205 06       		.uleb128 0x6
 4635 0206 40       		.uleb128 0x40
 4636 0207 18       		.uleb128 0x18
 4637 0208 9642     		.uleb128 0x2116
 4638 020a 19       		.uleb128 0x19
 4639 020b 01       		.uleb128 0x1
 4640 020c 13       		.uleb128 0x13
 4641 020d 00       		.byte	0
 4642 020e 00       		.byte	0
 4643 020f 25       		.uleb128 0x25
 4644 0210 05       		.uleb128 0x5
 4645 0211 00       		.byte	0
 4646 0212 03       		.uleb128 0x3
 4647 0213 0E       		.uleb128 0xe
 4648 0214 3A       		.uleb128 0x3a
 4649 0215 0B       		.uleb128 0xb
 4650 0216 3B       		.uleb128 0x3b
ARM GAS  /tmp/ccRqzMr7.s 			page 83


 4651 0217 0B       		.uleb128 0xb
 4652 0218 49       		.uleb128 0x49
 4653 0219 13       		.uleb128 0x13
 4654 021a 02       		.uleb128 0x2
 4655 021b 18       		.uleb128 0x18
 4656 021c 00       		.byte	0
 4657 021d 00       		.byte	0
 4658 021e 26       		.uleb128 0x26
 4659 021f 05       		.uleb128 0x5
 4660 0220 00       		.byte	0
 4661 0221 03       		.uleb128 0x3
 4662 0222 08       		.uleb128 0x8
 4663 0223 3A       		.uleb128 0x3a
 4664 0224 0B       		.uleb128 0xb
 4665 0225 3B       		.uleb128 0x3b
 4666 0226 0B       		.uleb128 0xb
 4667 0227 49       		.uleb128 0x49
 4668 0228 13       		.uleb128 0x13
 4669 0229 02       		.uleb128 0x2
 4670 022a 18       		.uleb128 0x18
 4671 022b 00       		.byte	0
 4672 022c 00       		.byte	0
 4673 022d 27       		.uleb128 0x27
 4674 022e 2E       		.uleb128 0x2e
 4675 022f 01       		.byte	0x1
 4676 0230 3F       		.uleb128 0x3f
 4677 0231 19       		.uleb128 0x19
 4678 0232 03       		.uleb128 0x3
 4679 0233 0E       		.uleb128 0xe
 4680 0234 3A       		.uleb128 0x3a
 4681 0235 0B       		.uleb128 0xb
 4682 0236 3B       		.uleb128 0x3b
 4683 0237 0B       		.uleb128 0xb
 4684 0238 27       		.uleb128 0x27
 4685 0239 19       		.uleb128 0x19
 4686 023a 49       		.uleb128 0x49
 4687 023b 13       		.uleb128 0x13
 4688 023c 11       		.uleb128 0x11
 4689 023d 01       		.uleb128 0x1
 4690 023e 12       		.uleb128 0x12
 4691 023f 06       		.uleb128 0x6
 4692 0240 40       		.uleb128 0x40
 4693 0241 18       		.uleb128 0x18
 4694 0242 9742     		.uleb128 0x2117
 4695 0244 19       		.uleb128 0x19
 4696 0245 01       		.uleb128 0x1
 4697 0246 13       		.uleb128 0x13
 4698 0247 00       		.byte	0
 4699 0248 00       		.byte	0
 4700 0249 28       		.uleb128 0x28
 4701 024a 2E       		.uleb128 0x2e
 4702 024b 01       		.byte	0x1
 4703 024c 3F       		.uleb128 0x3f
 4704 024d 19       		.uleb128 0x19
 4705 024e 03       		.uleb128 0x3
 4706 024f 0E       		.uleb128 0xe
 4707 0250 3A       		.uleb128 0x3a
ARM GAS  /tmp/ccRqzMr7.s 			page 84


 4708 0251 0B       		.uleb128 0xb
 4709 0252 3B       		.uleb128 0x3b
 4710 0253 0B       		.uleb128 0xb
 4711 0254 27       		.uleb128 0x27
 4712 0255 19       		.uleb128 0x19
 4713 0256 49       		.uleb128 0x49
 4714 0257 13       		.uleb128 0x13
 4715 0258 11       		.uleb128 0x11
 4716 0259 01       		.uleb128 0x1
 4717 025a 12       		.uleb128 0x12
 4718 025b 06       		.uleb128 0x6
 4719 025c 40       		.uleb128 0x40
 4720 025d 18       		.uleb128 0x18
 4721 025e 9642     		.uleb128 0x2116
 4722 0260 19       		.uleb128 0x19
 4723 0261 01       		.uleb128 0x1
 4724 0262 13       		.uleb128 0x13
 4725 0263 00       		.byte	0
 4726 0264 00       		.byte	0
 4727 0265 29       		.uleb128 0x29
 4728 0266 34       		.uleb128 0x34
 4729 0267 00       		.byte	0
 4730 0268 03       		.uleb128 0x3
 4731 0269 08       		.uleb128 0x8
 4732 026a 3A       		.uleb128 0x3a
 4733 026b 0B       		.uleb128 0xb
 4734 026c 3B       		.uleb128 0x3b
 4735 026d 0B       		.uleb128 0xb
 4736 026e 49       		.uleb128 0x49
 4737 026f 13       		.uleb128 0x13
 4738 0270 02       		.uleb128 0x2
 4739 0271 18       		.uleb128 0x18
 4740 0272 00       		.byte	0
 4741 0273 00       		.byte	0
 4742 0274 2A       		.uleb128 0x2a
 4743 0275 0B       		.uleb128 0xb
 4744 0276 01       		.byte	0x1
 4745 0277 11       		.uleb128 0x11
 4746 0278 01       		.uleb128 0x1
 4747 0279 12       		.uleb128 0x12
 4748 027a 06       		.uleb128 0x6
 4749 027b 00       		.byte	0
 4750 027c 00       		.byte	0
 4751 027d 2B       		.uleb128 0x2b
 4752 027e 2E       		.uleb128 0x2e
 4753 027f 01       		.byte	0x1
 4754 0280 3F       		.uleb128 0x3f
 4755 0281 19       		.uleb128 0x19
 4756 0282 03       		.uleb128 0x3
 4757 0283 0E       		.uleb128 0xe
 4758 0284 3A       		.uleb128 0x3a
 4759 0285 0B       		.uleb128 0xb
 4760 0286 3B       		.uleb128 0x3b
 4761 0287 05       		.uleb128 0x5
 4762 0288 27       		.uleb128 0x27
 4763 0289 19       		.uleb128 0x19
 4764 028a 11       		.uleb128 0x11
ARM GAS  /tmp/ccRqzMr7.s 			page 85


 4765 028b 01       		.uleb128 0x1
 4766 028c 12       		.uleb128 0x12
 4767 028d 06       		.uleb128 0x6
 4768 028e 40       		.uleb128 0x40
 4769 028f 18       		.uleb128 0x18
 4770 0290 9642     		.uleb128 0x2116
 4771 0292 19       		.uleb128 0x19
 4772 0293 01       		.uleb128 0x1
 4773 0294 13       		.uleb128 0x13
 4774 0295 00       		.byte	0
 4775 0296 00       		.byte	0
 4776 0297 2C       		.uleb128 0x2c
 4777 0298 2E       		.uleb128 0x2e
 4778 0299 01       		.byte	0x1
 4779 029a 3F       		.uleb128 0x3f
 4780 029b 19       		.uleb128 0x19
 4781 029c 03       		.uleb128 0x3
 4782 029d 0E       		.uleb128 0xe
 4783 029e 3A       		.uleb128 0x3a
 4784 029f 0B       		.uleb128 0xb
 4785 02a0 3B       		.uleb128 0x3b
 4786 02a1 05       		.uleb128 0x5
 4787 02a2 27       		.uleb128 0x27
 4788 02a3 19       		.uleb128 0x19
 4789 02a4 49       		.uleb128 0x49
 4790 02a5 13       		.uleb128 0x13
 4791 02a6 11       		.uleb128 0x11
 4792 02a7 01       		.uleb128 0x1
 4793 02a8 12       		.uleb128 0x12
 4794 02a9 06       		.uleb128 0x6
 4795 02aa 40       		.uleb128 0x40
 4796 02ab 18       		.uleb128 0x18
 4797 02ac 9642     		.uleb128 0x2116
 4798 02ae 19       		.uleb128 0x19
 4799 02af 01       		.uleb128 0x1
 4800 02b0 13       		.uleb128 0x13
 4801 02b1 00       		.byte	0
 4802 02b2 00       		.byte	0
 4803 02b3 2D       		.uleb128 0x2d
 4804 02b4 34       		.uleb128 0x34
 4805 02b5 00       		.byte	0
 4806 02b6 03       		.uleb128 0x3
 4807 02b7 08       		.uleb128 0x8
 4808 02b8 3A       		.uleb128 0x3a
 4809 02b9 0B       		.uleb128 0xb
 4810 02ba 3B       		.uleb128 0x3b
 4811 02bb 05       		.uleb128 0x5
 4812 02bc 49       		.uleb128 0x49
 4813 02bd 13       		.uleb128 0x13
 4814 02be 02       		.uleb128 0x2
 4815 02bf 18       		.uleb128 0x18
 4816 02c0 00       		.byte	0
 4817 02c1 00       		.byte	0
 4818 02c2 2E       		.uleb128 0x2e
 4819 02c3 34       		.uleb128 0x34
 4820 02c4 00       		.byte	0
 4821 02c5 03       		.uleb128 0x3
ARM GAS  /tmp/ccRqzMr7.s 			page 86


 4822 02c6 0E       		.uleb128 0xe
 4823 02c7 3A       		.uleb128 0x3a
 4824 02c8 0B       		.uleb128 0xb
 4825 02c9 3B       		.uleb128 0x3b
 4826 02ca 05       		.uleb128 0x5
 4827 02cb 49       		.uleb128 0x49
 4828 02cc 13       		.uleb128 0x13
 4829 02cd 02       		.uleb128 0x2
 4830 02ce 18       		.uleb128 0x18
 4831 02cf 00       		.byte	0
 4832 02d0 00       		.byte	0
 4833 02d1 2F       		.uleb128 0x2f
 4834 02d2 2E       		.uleb128 0x2e
 4835 02d3 01       		.byte	0x1
 4836 02d4 3F       		.uleb128 0x3f
 4837 02d5 19       		.uleb128 0x19
 4838 02d6 03       		.uleb128 0x3
 4839 02d7 0E       		.uleb128 0xe
 4840 02d8 3A       		.uleb128 0x3a
 4841 02d9 0B       		.uleb128 0xb
 4842 02da 3B       		.uleb128 0x3b
 4843 02db 05       		.uleb128 0x5
 4844 02dc 27       		.uleb128 0x27
 4845 02dd 19       		.uleb128 0x19
 4846 02de 49       		.uleb128 0x49
 4847 02df 13       		.uleb128 0x13
 4848 02e0 11       		.uleb128 0x11
 4849 02e1 01       		.uleb128 0x1
 4850 02e2 12       		.uleb128 0x12
 4851 02e3 06       		.uleb128 0x6
 4852 02e4 40       		.uleb128 0x40
 4853 02e5 18       		.uleb128 0x18
 4854 02e6 9742     		.uleb128 0x2117
 4855 02e8 19       		.uleb128 0x19
 4856 02e9 01       		.uleb128 0x1
 4857 02ea 13       		.uleb128 0x13
 4858 02eb 00       		.byte	0
 4859 02ec 00       		.byte	0
 4860 02ed 30       		.uleb128 0x30
 4861 02ee 34       		.uleb128 0x34
 4862 02ef 00       		.byte	0
 4863 02f0 03       		.uleb128 0x3
 4864 02f1 0E       		.uleb128 0xe
 4865 02f2 3A       		.uleb128 0x3a
 4866 02f3 0B       		.uleb128 0xb
 4867 02f4 3B       		.uleb128 0x3b
 4868 02f5 05       		.uleb128 0x5
 4869 02f6 49       		.uleb128 0x49
 4870 02f7 13       		.uleb128 0x13
 4871 02f8 3F       		.uleb128 0x3f
 4872 02f9 19       		.uleb128 0x19
 4873 02fa 3C       		.uleb128 0x3c
 4874 02fb 19       		.uleb128 0x19
 4875 02fc 00       		.byte	0
 4876 02fd 00       		.byte	0
 4877 02fe 31       		.uleb128 0x31
 4878 02ff 34       		.uleb128 0x34
ARM GAS  /tmp/ccRqzMr7.s 			page 87


 4879 0300 00       		.byte	0
 4880 0301 03       		.uleb128 0x3
 4881 0302 08       		.uleb128 0x8
 4882 0303 3A       		.uleb128 0x3a
 4883 0304 0B       		.uleb128 0xb
 4884 0305 3B       		.uleb128 0x3b
 4885 0306 05       		.uleb128 0x5
 4886 0307 49       		.uleb128 0x49
 4887 0308 13       		.uleb128 0x13
 4888 0309 3F       		.uleb128 0x3f
 4889 030a 19       		.uleb128 0x19
 4890 030b 3C       		.uleb128 0x3c
 4891 030c 19       		.uleb128 0x19
 4892 030d 00       		.byte	0
 4893 030e 00       		.byte	0
 4894 030f 00       		.byte	0
 4895              		.section	.debug_aranges,"",%progbits
 4896 0000 1C000000 		.4byte	0x1c
 4897 0004 0200     		.2byte	0x2
 4898 0006 00000000 		.4byte	.Ldebug_info0
 4899 000a 04       		.byte	0x4
 4900 000b 00       		.byte	0
 4901 000c 0000     		.2byte	0
 4902 000e 0000     		.2byte	0
 4903 0010 00000000 		.4byte	.Ltext0
 4904 0014 AA090000 		.4byte	.Letext0-.Ltext0
 4905 0018 00000000 		.4byte	0
 4906 001c 00000000 		.4byte	0
 4907              		.section	.debug_line,"",%progbits
 4908              	.Ldebug_line0:
 4909 0000 4C050000 		.section	.debug_str,"MS",%progbits,1
 4909      02004903 
 4909      00000201 
 4909      FB0E0D00 
 4909      01010101 
 4910              	.LASF25:
 4911 0000 74707269 		.ascii	"tprio_t\000"
 4911      6F5F7400 
 4912              	.LASF140:
 4913 0008 69627147 		.ascii	"ibqGetEmptyBufferI\000"
 4913      6574456D 
 4913      70747942 
 4913      75666665 
 4913      724900
 4914              	.LASF152:
 4915 001b 6F6E6679 		.ascii	"onfy\000"
 4915      00
 4916              	.LASF2:
 4917 0020 73697A65 		.ascii	"size_t\000"
 4917      5F7400
 4918              	.LASF89:
 4919 0027 7264796D 		.ascii	"rdymsg\000"
 4919      736700
 4920              	.LASF19:
 4921 002e 75696E74 		.ascii	"uint64_t\000"
 4921      36345F74 
 4921      00
ARM GAS  /tmp/ccRqzMr7.s 			page 88


 4922              	.LASF3:
 4923 0037 5F5F7569 		.ascii	"__uint8_t\000"
 4923      6E74385F 
 4923      7400
 4924              	.LASF86:
 4925 0041 706F7274 		.ascii	"port_intctx\000"
 4925      5F696E74 
 4925      63747800 
 4926              	.LASF80:
 4927 004d 76746C69 		.ascii	"vtlist\000"
 4927      737400
 4928              	.LASF121:
 4929 0054 71756575 		.ascii	"queue_init\000"
 4929      655F696E 
 4929      697400
 4930              	.LASF119:
 4931 005f 706F7274 		.ascii	"port_lock\000"
 4931      5F6C6F63 
 4931      6B00
 4932              	.LASF168:
 4933 0069 2F6E6673 		.ascii	"/nfs/nfs7/home/vvedanta/P442/p442-submissions/senso"
 4933      2F6E6673 
 4933      372F686F 
 4933      6D652F76 
 4933      76656461 
 4934 009c 7274696C 		.ascii	"rtile/final_project\000"
 4934      652F6669 
 4934      6E616C5F 
 4934      70726F6A 
 4934      65637400 
 4935              	.LASF13:
 4936 00b0 6C6F6E67 		.ascii	"long long unsigned int\000"
 4936      206C6F6E 
 4936      6720756E 
 4936      7369676E 
 4936      65642069 
 4937              	.LASF90:
 4938 00c7 65786974 		.ascii	"exitcode\000"
 4938      636F6465 
 4938      00
 4939              	.LASF145:
 4940 00d0 69627152 		.ascii	"ibqReleaseEmptyBufferS\000"
 4940      656C6561 
 4940      7365456D 
 4940      70747942 
 4940      75666665 
 4941              	.LASF71:
 4942 00e7 76697274 		.ascii	"virtual_timers_list_t\000"
 4942      75616C5F 
 4942      74696D65 
 4942      72735F6C 
 4942      6973745F 
 4943              	.LASF165:
 4944 00fd 49544D5F 		.ascii	"ITM_RxBuffer\000"
 4944      52784275 
 4944      66666572 
 4944      00
ARM GAS  /tmp/ccRqzMr7.s 			page 89


 4945              	.LASF54:
 4946 010a 63685F74 		.ascii	"ch_threads_queue\000"
 4946      68726561 
 4946      64735F71 
 4946      75657565 
 4946      00
 4947              	.LASF33:
 4948 011b 705F7072 		.ascii	"p_prio\000"
 4948      696F00
 4949              	.LASF163:
 4950 0122 6F627154 		.ascii	"obqTryFlushI\000"
 4950      7279466C 
 4950      75736849 
 4950      00
 4951              	.LASF1:
 4952 012f 7369676E 		.ascii	"signed char\000"
 4952      65642063 
 4952      68617200 
 4953              	.LASF95:
 4954 013b 65776D61 		.ascii	"ewmask\000"
 4954      736B00
 4955              	.LASF131:
 4956 0142 6F73616C 		.ascii	"osalThreadDequeueNextI\000"
 4956      54687265 
 4956      61644465 
 4956      71756575 
 4956      654E6578 
 4957              	.LASF134:
 4958 0159 73697A65 		.ascii	"size\000"
 4958      00
 4959              	.LASF100:
 4960 015e 6D5F7175 		.ascii	"m_queue\000"
 4960      65756500 
 4961              	.LASF146:
 4962 0166 69627147 		.ascii	"ibqGetTimeout\000"
 4962      65745469 
 4962      6D656F75 
 4962      7400
 4963              	.LASF147:
 4964 0174 69627152 		.ascii	"ibqReadTimeout\000"
 4964      65616454 
 4964      696D656F 
 4964      757400
 4965              	.LASF120:
 4966 0183 706F7274 		.ascii	"port_unlock\000"
 4966      5F756E6C 
 4966      6F636B00 
 4967              	.LASF24:
 4968 018f 74736C69 		.ascii	"tslices_t\000"
 4968      6365735F 
 4968      7400
 4969              	.LASF92:
 4970 0199 77747472 		.ascii	"wttrp\000"
 4970      7000
 4971              	.LASF8:
 4972 019f 6C6F6E67 		.ascii	"long int\000"
 4972      20696E74 
ARM GAS  /tmp/ccRqzMr7.s 			page 90


 4972      00
 4973              	.LASF106:
 4974 01a8 696F5F62 		.ascii	"io_buffers_queue\000"
 4974      75666665 
 4974      72735F71 
 4974      75657565 
 4974      00
 4975              	.LASF46:
 4976 01b9 705F6D74 		.ascii	"p_mtxlist\000"
 4976      786C6973 
 4976      7400
 4977              	.LASF11:
 4978 01c3 6C6F6E67 		.ascii	"long long int\000"
 4978      206C6F6E 
 4978      6720696E 
 4978      7400
 4979              	.LASF22:
 4980 01d1 74737461 		.ascii	"tstate_t\000"
 4980      74655F74 
 4980      00
 4981              	.LASF143:
 4982 01da 69627147 		.ascii	"ibqGetFullBufferTimeoutS\000"
 4982      65744675 
 4982      6C6C4275 
 4982      66666572 
 4982      54696D65 
 4983              	.LASF35:
 4984 01f3 705F6E65 		.ascii	"p_newer\000"
 4984      77657200 
 4985              	.LASF97:
 4986 01fb 735F7175 		.ascii	"s_queue\000"
 4986      65756500 
 4987              	.LASF137:
 4988 0203 6962714F 		.ascii	"ibqObjectInit\000"
 4988      626A6563 
 4988      74496E69 
 4988      7400
 4989              	.LASF60:
 4990 0211 725F6E65 		.ascii	"r_newer\000"
 4990      77657200 
 4991              	.LASF48:
 4992 0219 705F6D70 		.ascii	"p_mpool\000"
 4992      6F6F6C00 
 4993              	.LASF83:
 4994 0221 72656761 		.ascii	"regarm_t\000"
 4994      726D5F74 
 4994      00
 4995              	.LASF67:
 4996 022a 76745F70 		.ascii	"vt_prev\000"
 4996      72657600 
 4997              	.LASF133:
 4998 0232 69627170 		.ascii	"ibqp\000"
 4998      00
 4999              	.LASF117:
 5000 0237 696E7075 		.ascii	"input_buffers_queue_t\000"
 5000      745F6275 
 5000      66666572 
ARM GAS  /tmp/ccRqzMr7.s 			page 91


 5000      735F7175 
 5000      6575655F 
 5001              	.LASF110:
 5002 024d 62726470 		.ascii	"brdptr\000"
 5002      747200
 5003              	.LASF107:
 5004 0254 77616974 		.ascii	"waiting\000"
 5004      696E6700 
 5005              	.LASF125:
 5006 025c 6F73616C 		.ascii	"osalSysLock\000"
 5006      5379734C 
 5006      6F636B00 
 5007              	.LASF105:
 5008 0268 696F5F62 		.ascii	"io_buffers_queue_t\000"
 5008      75666665 
 5008      72735F71 
 5008      75657565 
 5008      5F7400
 5009              	.LASF103:
 5010 027b 6D757465 		.ascii	"mutex_t\000"
 5010      785F7400 
 5011              	.LASF170:
 5012 0283 76616C75 		.ascii	"value\000"
 5012      6500
 5013              	.LASF82:
 5014 0289 69646C65 		.ascii	"idle_thread_wa\000"
 5014      5F746872 
 5014      6561645F 
 5014      776100
 5015              	.LASF164:
 5016 0298 6F627146 		.ascii	"obqFlush\000"
 5016      6C757368 
 5016      00
 5017              	.LASF28:
 5018 02a1 636E745F 		.ascii	"cnt_t\000"
 5018      7400
 5019              	.LASF127:
 5020 02a7 63685654 		.ascii	"chVTGetSystemTimeX\000"
 5020      47657453 
 5020      79737465 
 5020      6D54696D 
 5020      655800
 5021              	.LASF0:
 5022 02ba 756E7369 		.ascii	"unsigned int\000"
 5022      676E6564 
 5022      20696E74 
 5022      00
 5023              	.LASF14:
 5024 02c7 73697A65 		.ascii	"sizetype\000"
 5024      74797065 
 5024      00
 5025              	.LASF93:
 5026 02d0 77747365 		.ascii	"wtsemp\000"
 5026      6D7000
 5027              	.LASF68:
 5028 02d7 76745F64 		.ascii	"vt_delta\000"
 5028      656C7461 
ARM GAS  /tmp/ccRqzMr7.s 			page 92


 5028      00
 5029              	.LASF74:
 5030 02e0 73797374 		.ascii	"system_debug_t\000"
 5030      656D5F64 
 5030      65627567 
 5030      5F7400
 5031              	.LASF66:
 5032 02ef 76745F6E 		.ascii	"vt_next\000"
 5032      65787400 
 5033              	.LASF142:
 5034 02f7 74696D65 		.ascii	"timeout\000"
 5034      6F757400 
 5035              	.LASF113:
 5036 02ff 62756666 		.ascii	"buffers\000"
 5036      65727300 
 5037              	.LASF63:
 5038 0307 76746675 		.ascii	"vtfunc_t\000"
 5038      6E635F74 
 5038      00
 5039              	.LASF98:
 5040 0310 735F636E 		.ascii	"s_cnt\000"
 5040      7400
 5041              	.LASF6:
 5042 0316 73686F72 		.ascii	"short unsigned int\000"
 5042      7420756E 
 5042      7369676E 
 5042      65642069 
 5042      6E7400
 5043              	.LASF51:
 5044 0329 63685F74 		.ascii	"ch_thread\000"
 5044      68726561 
 5044      6400
 5045              	.LASF81:
 5046 0333 6D61696E 		.ascii	"mainthread\000"
 5046      74687265 
 5046      616400
 5047              	.LASF26:
 5048 033e 6D73675F 		.ascii	"msg_t\000"
 5048      7400
 5049              	.LASF77:
 5050 0344 63685F73 		.ascii	"ch_system_t\000"
 5050      79737465 
 5050      6D5F7400 
 5051              	.LASF21:
 5052 0350 746D6F64 		.ascii	"tmode_t\000"
 5052      655F7400 
 5053              	.LASF166:
 5054 0358 474E5520 		.ascii	"GNU C 4.8.4 20140526 (release) [ARM/embedded-4_8-br"
 5054      4320342E 
 5054      382E3420 
 5054      32303134 
 5054      30353236 
 5055 038b 616E6368 		.ascii	"anch revision 211358] -mcpu=cortex-m4 -mno-thumb-in"
 5055      20726576 
 5055      6973696F 
 5055      6E203231 
 5055      31333538 
ARM GAS  /tmp/ccRqzMr7.s 			page 93


 5056 03be 74657277 		.ascii	"terwork -mthumb -ggdb -O0 -fomit-frame-pointer -fal"
 5056      6F726B20 
 5056      2D6D7468 
 5056      756D6220 
 5056      2D676764 
 5057 03f1 69676E2D 		.ascii	"ign-functions=16\000"
 5057      66756E63 
 5057      74696F6E 
 5057      733D3136 
 5057      00
 5058              	.LASF171:
 5059 0402 6F73616C 		.ascii	"osalThreadEnqueueTimeoutS\000"
 5059      54687265 
 5059      6164456E 
 5059      71756575 
 5059      6554696D 
 5060              	.LASF56:
 5061 041c 63685F72 		.ascii	"ch_ready_list\000"
 5061      65616479 
 5061      5F6C6973 
 5061      7400
 5062              	.LASF27:
 5063 042a 6576656E 		.ascii	"eventmask_t\000"
 5063      746D6173 
 5063      6B5F7400 
 5064              	.LASF7:
 5065 0436 5F5F696E 		.ascii	"__int32_t\000"
 5065      7433325F 
 5065      7400
 5066              	.LASF158:
 5067 0440 6F627147 		.ascii	"obqGetEmptyBufferTimeoutS\000"
 5067      6574456D 
 5067      70747942 
 5067      75666665 
 5067      7254696D 
 5068              	.LASF84:
 5069 045a 73746B61 		.ascii	"stkalign_t\000"
 5069      6C69676E 
 5069      5F7400
 5070              	.LASF123:
 5071 0465 63685468 		.ascii	"chThdQueueObjectInit\000"
 5071      64517565 
 5071      75654F62 
 5071      6A656374 
 5071      496E6974 
 5072              	.LASF20:
 5073 047a 7274636E 		.ascii	"rtcnt_t\000"
 5073      745F7400 
 5074              	.LASF49:
 5075 0482 74687265 		.ascii	"thread_reference_t\000"
 5075      61645F72 
 5075      65666572 
 5075      656E6365 
 5075      5F7400
 5076              	.LASF72:
 5077 0495 63685F76 		.ascii	"ch_virtual_timers_list\000"
 5077      69727475 
ARM GAS  /tmp/ccRqzMr7.s 			page 94


 5077      616C5F74 
 5077      696D6572 
 5077      735F6C69 
 5078              	.LASF69:
 5079 04ac 76745F66 		.ascii	"vt_func\000"
 5079      756E6300 
 5080              	.LASF141:
 5081 04b4 69627147 		.ascii	"ibqGetFullBufferTimeout\000"
 5081      65744675 
 5081      6C6C4275 
 5081      66666572 
 5081      54696D65 
 5082              	.LASF139:
 5083 04cc 69627150 		.ascii	"ibqPostFullBufferI\000"
 5083      6F737446 
 5083      756C6C42 
 5083      75666665 
 5083      724900
 5084              	.LASF111:
 5085 04df 62746F70 		.ascii	"btop\000"
 5085      00
 5086              	.LASF36:
 5087 04e4 705F6F6C 		.ascii	"p_older\000"
 5087      64657200 
 5088              	.LASF150:
 5089 04ec 6F62714F 		.ascii	"obqObjectInit\000"
 5089      626A6563 
 5089      74496E69 
 5089      7400
 5090              	.LASF59:
 5091 04fa 725F6374 		.ascii	"r_ctx\000"
 5091      7800
 5092              	.LASF153:
 5093 0500 6F627152 		.ascii	"obqResetI\000"
 5093      65736574 
 5093      4900
 5094              	.LASF88:
 5095 050a 746D5F63 		.ascii	"tm_calibration_t\000"
 5095      616C6962 
 5095      72617469 
 5095      6F6E5F74 
 5095      00
 5096              	.LASF130:
 5097 051b 74696D65 		.ascii	"time\000"
 5097      00
 5098              	.LASF62:
 5099 0520 725F6375 		.ascii	"r_current\000"
 5099      7272656E 
 5099      7400
 5100              	.LASF61:
 5101 052a 725F6F6C 		.ascii	"r_older\000"
 5101      64657200 
 5102              	.LASF12:
 5103 0532 5F5F7569 		.ascii	"__uint64_t\000"
 5103      6E743634 
 5103      5F7400
 5104              	.LASF108:
ARM GAS  /tmp/ccRqzMr7.s 			page 95


 5105 053d 62636F75 		.ascii	"bcounter\000"
 5105      6E746572 
 5105      00
 5106              	.LASF23:
 5107 0546 74726566 		.ascii	"trefs_t\000"
 5107      735F7400 
 5108              	.LASF64:
 5109 054e 76697274 		.ascii	"virtual_timer_t\000"
 5109      75616C5F 
 5109      74696D65 
 5109      725F7400 
 5110              	.LASF32:
 5111 055e 705F7072 		.ascii	"p_prev\000"
 5111      657600
 5112              	.LASF151:
 5113 0565 6F627170 		.ascii	"obqp\000"
 5113      00
 5114              	.LASF118:
 5115 056a 6F757470 		.ascii	"output_buffers_queue_t\000"
 5115      75745F62 
 5115      75666665 
 5115      72735F71 
 5115      75657565 
 5116              	.LASF75:
 5117 0581 63685F73 		.ascii	"ch_system_debug\000"
 5117      79737465 
 5117      6D5F6465 
 5117      62756700 
 5118              	.LASF104:
 5119 0591 5F426F6F 		.ascii	"_Bool\000"
 5119      6C00
 5120              	.LASF17:
 5121 0597 696E7433 		.ascii	"int32_t\000"
 5121      325F7400 
 5122              	.LASF4:
 5123 059f 756E7369 		.ascii	"unsigned char\000"
 5123      676E6564 
 5123      20636861 
 5123      7200
 5124              	.LASF112:
 5125 05ad 6273697A 		.ascii	"bsize\000"
 5125      6500
 5126              	.LASF138:
 5127 05b3 69627152 		.ascii	"ibqResetI\000"
 5127      65736574 
 5127      4900
 5128              	.LASF38:
 5129 05bd 705F7374 		.ascii	"p_state\000"
 5129      61746500 
 5130              	.LASF5:
 5131 05c5 73686F72 		.ascii	"short int\000"
 5131      7420696E 
 5131      7400
 5132              	.LASF41:
 5133 05cf 705F7072 		.ascii	"p_preempt\000"
 5133      65656D70 
 5133      7400
ARM GAS  /tmp/ccRqzMr7.s 			page 96


 5134              	.LASF58:
 5135 05d9 725F7072 		.ascii	"r_prio\000"
 5135      696F00
 5136              	.LASF91:
 5137 05e0 77746F62 		.ascii	"wtobjp\000"
 5137      6A7000
 5138              	.LASF161:
 5139 05e7 6F627150 		.ascii	"obqPutTimeout\000"
 5139      75745469 
 5139      6D656F75 
 5139      7400
 5140              	.LASF31:
 5141 05f5 705F6E65 		.ascii	"p_next\000"
 5141      787400
 5142              	.LASF135:
 5143 05fc 696E6679 		.ascii	"infy\000"
 5143      00
 5144              	.LASF136:
 5145 0601 5F5F6675 		.ascii	"__func__\000"
 5145      6E635F5F 
 5145      00
 5146              	.LASF124:
 5147 060a 63685379 		.ascii	"chSysLock\000"
 5147      734C6F63 
 5147      6B00
 5148              	.LASF78:
 5149 0614 63685F73 		.ascii	"ch_system\000"
 5149      79737465 
 5149      6D00
 5150              	.LASF162:
 5151 061e 6F627157 		.ascii	"obqWriteTimeout\000"
 5151      72697465 
 5151      54696D65 
 5151      6F757400 
 5152              	.LASF126:
 5153 062e 6F73616C 		.ascii	"osalSysUnlock\000"
 5153      53797355 
 5153      6E6C6F63 
 5153      6B00
 5154              	.LASF65:
 5155 063c 63685F76 		.ascii	"ch_virtual_timer\000"
 5155      69727475 
 5155      616C5F74 
 5155      696D6572 
 5155      00
 5156              	.LASF96:
 5157 064d 63685F73 		.ascii	"ch_semaphore\000"
 5157      656D6170 
 5157      686F7265 
 5157      00
 5158              	.LASF45:
 5159 065a 705F6570 		.ascii	"p_epending\000"
 5159      656E6469 
 5159      6E6700
 5160              	.LASF18:
 5161 0665 75696E74 		.ascii	"uint32_t\000"
 5161      33325F74 
ARM GAS  /tmp/ccRqzMr7.s 			page 97


 5161      00
 5162              	.LASF94:
 5163 066e 77746D74 		.ascii	"wtmtxp\000"
 5163      787000
 5164              	.LASF57:
 5165 0675 725F7175 		.ascii	"r_queue\000"
 5165      65756500 
 5166              	.LASF73:
 5167 067d 76745F73 		.ascii	"vt_systime\000"
 5167      79737469 
 5167      6D6500
 5168              	.LASF52:
 5169 0688 63685F74 		.ascii	"ch_threads_list\000"
 5169      68726561 
 5169      64735F6C 
 5169      69737400 
 5170              	.LASF160:
 5171 0698 6F627150 		.ascii	"obqPostFullBufferS\000"
 5171      6F737446 
 5171      756C6C42 
 5171      75666665 
 5171      725300
 5172              	.LASF10:
 5173 06ab 6C6F6E67 		.ascii	"long unsigned int\000"
 5173      20756E73 
 5173      69676E65 
 5173      6420696E 
 5173      7400
 5174              	.LASF114:
 5175 06bd 6E6F7469 		.ascii	"notify\000"
 5175      667900
 5176              	.LASF15:
 5177 06c4 63686172 		.ascii	"char\000"
 5177      00
 5178              	.LASF159:
 5179 06c9 6F627150 		.ascii	"obqPostFullBuffer\000"
 5179      6F737446 
 5179      756C6C42 
 5179      75666665 
 5179      7200
 5180              	.LASF167:
 5181 06db 2E2E2F2E 		.ascii	"../../ChibiOS/os/hal/src/hal_buffers.c\000"
 5181      2E2F4368 
 5181      6962694F 
 5181      532F6F73 
 5181      2F68616C 
 5182              	.LASF30:
 5183 0702 74687265 		.ascii	"thread_t\000"
 5183      61645F74 
 5183      00
 5184              	.LASF102:
 5185 070b 6D5F6E65 		.ascii	"m_next\000"
 5185      787400
 5186              	.LASF29:
 5187 0712 73797374 		.ascii	"systime_t\000"
 5187      696D655F 
 5187      7400
ARM GAS  /tmp/ccRqzMr7.s 			page 98


 5188              	.LASF47:
 5189 071c 705F7265 		.ascii	"p_realprio\000"
 5189      616C7072 
 5189      696F00
 5190              	.LASF16:
 5191 0727 75696E74 		.ascii	"uint8_t\000"
 5191      385F7400 
 5192              	.LASF9:
 5193 072f 5F5F7569 		.ascii	"__uint32_t\000"
 5193      6E743332 
 5193      5F7400
 5194              	.LASF169:
 5195 073a 5F5F7365 		.ascii	"__set_BASEPRI\000"
 5195      745F4241 
 5195      53455052 
 5195      4900
 5196              	.LASF76:
 5197 0748 70616E69 		.ascii	"panic_msg\000"
 5197      635F6D73 
 5197      6700
 5198              	.LASF87:
 5199 0752 6F666673 		.ascii	"offset\000"
 5199      657400
 5200              	.LASF85:
 5201 0759 636F6E74 		.ascii	"context\000"
 5201      65787400 
 5202              	.LASF129:
 5203 0761 6F73616C 		.ascii	"osalThreadQueueObjectInit\000"
 5203      54687265 
 5203      61645175 
 5203      6575654F 
 5203      626A6563 
 5204              	.LASF115:
 5205 077b 6C696E6B 		.ascii	"link\000"
 5205      00
 5206              	.LASF43:
 5207 0780 705F6D73 		.ascii	"p_msgqueue\000"
 5207      67717565 
 5207      756500
 5208              	.LASF154:
 5209 078b 6F627147 		.ascii	"obqGetFullBufferI\000"
 5209      65744675 
 5209      6C6C4275 
 5209      66666572 
 5209      4900
 5210              	.LASF70:
 5211 079d 76745F70 		.ascii	"vt_par\000"
 5211      617200
 5212              	.LASF116:
 5213 07a4 62716E6F 		.ascii	"bqnotify_t\000"
 5213      74696679 
 5213      5F7400
 5214              	.LASF55:
 5215 07af 72656164 		.ascii	"ready_list_t\000"
 5215      795F6C69 
 5215      73745F74 
 5215      00
ARM GAS  /tmp/ccRqzMr7.s 			page 99


 5216              	.LASF53:
 5217 07bc 74687265 		.ascii	"threads_queue_t\000"
 5217      6164735F 
 5217      71756575 
 5217      655F7400 
 5218              	.LASF40:
 5219 07cc 705F7265 		.ascii	"p_refs\000"
 5219      667300
 5220              	.LASF156:
 5221 07d3 6F627152 		.ascii	"obqReleaseEmptyBufferI\000"
 5221      656C6561 
 5221      7365456D 
 5221      70747942 
 5221      75666665 
 5222              	.LASF79:
 5223 07ea 726C6973 		.ascii	"rlist\000"
 5223      7400
 5224              	.LASF109:
 5225 07f0 62777270 		.ascii	"bwrptr\000"
 5225      747200
 5226              	.LASF157:
 5227 07f7 6F627147 		.ascii	"obqGetEmptyBufferTimeout\000"
 5227      6574456D 
 5227      70747942 
 5227      75666665 
 5227      7254696D 
 5228              	.LASF99:
 5229 0810 63685F6D 		.ascii	"ch_mutex\000"
 5229      75746578 
 5229      00
 5230              	.LASF155:
 5231 0819 73697A65 		.ascii	"sizep\000"
 5231      7000
 5232              	.LASF37:
 5233 081f 705F6E61 		.ascii	"p_name\000"
 5233      6D6500
 5234              	.LASF144:
 5235 0826 69627152 		.ascii	"ibqReleaseEmptyBuffer\000"
 5235      656C6561 
 5235      7365456D 
 5235      70747942 
 5235      75666665 
 5236              	.LASF132:
 5237 083c 6F73616C 		.ascii	"osalThreadDequeueAllI\000"
 5237      54687265 
 5237      61644465 
 5237      71756575 
 5237      65416C6C 
 5238              	.LASF50:
 5239 0852 74687265 		.ascii	"threads_list_t\000"
 5239      6164735F 
 5239      6C697374 
 5239      5F7400
 5240              	.LASF128:
 5241 0861 6F73616C 		.ascii	"osalOsGetSystemTimeX\000"
 5241      4F734765 
 5241      74537973 
ARM GAS  /tmp/ccRqzMr7.s 			page 100


 5241      74656D54 
 5241      696D6558 
 5242              	.LASF39:
 5243 0876 705F666C 		.ascii	"p_flags\000"
 5243      61677300 
 5244              	.LASF122:
 5245 087e 63685379 		.ascii	"chSysUnlock\000"
 5245      73556E6C 
 5245      6F636B00 
 5246              	.LASF44:
 5247 088a 705F6D73 		.ascii	"p_msg\000"
 5247      6700
 5248              	.LASF148:
 5249 0890 64656164 		.ascii	"deadline\000"
 5249      6C696E65 
 5249      00
 5250              	.LASF101:
 5251 0899 6D5F6F77 		.ascii	"m_owner\000"
 5251      6E657200 
 5252              	.LASF34:
 5253 08a1 705F6374 		.ascii	"p_ctx\000"
 5253      7800
 5254              	.LASF42:
 5255 08a7 705F7761 		.ascii	"p_waiting\000"
 5255      6974696E 
 5255      6700
 5256              	.LASF149:
 5257 08b1 6E657874 		.ascii	"next_timeout\000"
 5257      5F74696D 
 5257      656F7574 
 5257      00
 5258              		.ident	"GCC: (GNU Tools for ARM Embedded Processors) 4.8.4 20140526 (release) [ARM/embedded-4_8-br
ARM GAS  /tmp/ccRqzMr7.s 			page 101


DEFINED SYMBOLS
                            *ABS*:00000000 hal_buffers.c
     /tmp/ccRqzMr7.s:18     .text:00000000 $t
     /tmp/ccRqzMr7.s:23     .text:00000000 port_lock
     /tmp/ccRqzMr7.s:58     .text:00000010 port_unlock
     /tmp/ccRqzMr7.s:91     .text:00000020 queue_init
     /tmp/ccRqzMr7.s:122    .text:00000040 chSysLock
     /tmp/ccRqzMr7.s:145    .text:00000050 chSysUnlock
     /tmp/ccRqzMr7.s:167    .text:00000060 chVTGetSystemTimeX
     /tmp/ccRqzMr7.s:184    .text:00000068 $d
     /tmp/ccRqzMr7.s:188    .text:0000006c $t
     /tmp/ccRqzMr7.s:193    .text:00000070 chThdQueueObjectInit
     /tmp/ccRqzMr7.s:221    .text:00000090 osalSysLock
     /tmp/ccRqzMr7.s:244    .text:000000a0 osalSysUnlock
     /tmp/ccRqzMr7.s:266    .text:000000b0 osalOsGetSystemTimeX
     /tmp/ccRqzMr7.s:290    .text:000000c0 osalThreadQueueObjectInit
     /tmp/ccRqzMr7.s:317    .text:000000e0 osalThreadEnqueueTimeoutS
     /tmp/ccRqzMr7.s:348    .text:00000100 osalThreadDequeueNextI
     /tmp/ccRqzMr7.s:377    .text:00000120 osalThreadDequeueAllI
     /tmp/ccRqzMr7.s:407    .text:00000140 ibqObjectInit
     /tmp/ccRqzMr7.s:490    .text:000001b0 ibqResetI
     /tmp/ccRqzMr7.s:542    .text:000001f0 ibqGetEmptyBufferI
     /tmp/ccRqzMr7.s:599    .text:00000230 ibqPostFullBufferI
     /tmp/ccRqzMr7.s:662    .text:00000280 ibqGetFullBufferTimeout
     /tmp/ccRqzMr7.s:700    .text:000002b0 ibqGetFullBufferTimeoutS
     /tmp/ccRqzMr7.s:769    .text:00000300 ibqReleaseEmptyBuffer
     /tmp/ccRqzMr7.s:801    .text:00000320 ibqReleaseEmptyBufferS
     /tmp/ccRqzMr7.s:868    .text:00000370 ibqGetTimeout
     /tmp/ccRqzMr7.s:944    .text:000003d0 ibqReadTimeout
     /tmp/ccRqzMr7.s:1145   .text:000004f0 obqObjectInit
     /tmp/ccRqzMr7.s:1227   .text:00000560 obqResetI
     /tmp/ccRqzMr7.s:1280   .text:000005a0 obqGetFullBufferI
     /tmp/ccRqzMr7.s:1344   .text:000005f0 obqReleaseEmptyBufferI
     /tmp/ccRqzMr7.s:1401   .text:00000640 obqGetEmptyBufferTimeout
     /tmp/ccRqzMr7.s:1439   .text:00000670 obqGetEmptyBufferTimeoutS
     /tmp/ccRqzMr7.s:1507   .text:000006c0 obqPostFullBuffer
     /tmp/ccRqzMr7.s:1541   .text:000006e0 obqPostFullBufferS
     /tmp/ccRqzMr7.s:1614   .text:00000740 obqPutTimeout
     /tmp/ccRqzMr7.s:1696   .text:000007b0 obqWriteTimeout
     /tmp/ccRqzMr7.s:1901   .text:000008e0 obqTryFlushI
     /tmp/ccRqzMr7.s:2012   .text:00000970 obqFlush
                     .debug_frame:00000010 $d

UNDEFINED SYMBOLS
ch
chThdEnqueueTimeoutS
chThdDequeueNextI
chThdDequeueAllI
memcpy
