ARM GAS  /tmp/cc24C8If.s 			page 1


   1              		.syntax unified
   2              		.cpu cortex-m4
   3              		.fpu softvfp
   4              		.eabi_attribute 20, 1
   5              		.eabi_attribute 21, 1
   6              		.eabi_attribute 23, 3
   7              		.eabi_attribute 24, 1
   8              		.eabi_attribute 25, 1
   9              		.eabi_attribute 26, 1
  10              		.eabi_attribute 30, 6
  11              		.eabi_attribute 34, 1
  12              		.eabi_attribute 18, 4
  13              		.thumb
  14              		.file	"hal_mmcsd.c"
  15              		.text
  16              	.Ltext0:
  17              		.cfi_sections	.debug_frame
  18              		.align	2
  19              		.p2align 4,,15
  20              		.global	_mmcsd_get_slice
  21              		.thumb
  22              		.thumb_func
  23              		.type	_mmcsd_get_slice, %function
  24              	_mmcsd_get_slice:
  25              	.LFB267:
  26              		.file 1 "../../ChibiOS/os/hal/src/hal_mmcsd.c"
  27              		.loc 1 63 0
  28              		.cfi_startproc
  29              		@ args = 0, pretend = 0, frame = 32
  30              		@ frame_needed = 0, uses_anonymous_args = 0
  31              		@ link register save eliminated.
  32 0000 88B0     		sub	sp, sp, #32
  33              		.cfi_def_cfa_offset 32
  34 0002 0390     		str	r0, [sp, #12]
  35 0004 0291     		str	r1, [sp, #8]
  36 0006 0192     		str	r2, [sp, #4]
  37              		.loc 1 69 0
  38 0008 019B     		ldr	r3, [sp, #4]
  39 000a 5B09     		lsrs	r3, r3, #5
  40 000c 0793     		str	r3, [sp, #28]
  41              		.loc 1 70 0
  42 000e 019B     		ldr	r3, [sp, #4]
  43 0010 03F01F03 		and	r3, r3, #31
  44 0014 0693     		str	r3, [sp, #24]
  45              		.loc 1 71 0
  46 0016 029B     		ldr	r3, [sp, #8]
  47 0018 5B09     		lsrs	r3, r3, #5
  48 001a 0593     		str	r3, [sp, #20]
  49              		.loc 1 72 0
  50 001c 029B     		ldr	r3, [sp, #8]
  51 001e 03F01F03 		and	r3, r3, #31
  52 0022 0133     		adds	r3, r3, #1
  53 0024 0122     		movs	r2, #1
  54 0026 02FA03F3 		lsl	r3, r2, r3
  55 002a 013B     		subs	r3, r3, #1
  56 002c 0493     		str	r3, [sp, #16]
  57              		.loc 1 75 0
ARM GAS  /tmp/cc24C8If.s 			page 2


  58 002e 079A     		ldr	r2, [sp, #28]
  59 0030 059B     		ldr	r3, [sp, #20]
  60 0032 9A42     		cmp	r2, r3
  61 0034 14D2     		bcs	.L2
  62              		.loc 1 76 0
  63 0036 079B     		ldr	r3, [sp, #28]
  64 0038 9B00     		lsls	r3, r3, #2
  65 003a 039A     		ldr	r2, [sp, #12]
  66 003c 1344     		add	r3, r3, r2
  67 003e 1A68     		ldr	r2, [r3]
  68 0040 069B     		ldr	r3, [sp, #24]
  69 0042 DA40     		lsrs	r2, r2, r3
  70              		.loc 1 77 0
  71 0044 059B     		ldr	r3, [sp, #20]
  72 0046 9B00     		lsls	r3, r3, #2
  73 0048 0399     		ldr	r1, [sp, #12]
  74 004a 0B44     		add	r3, r3, r1
  75 004c 1968     		ldr	r1, [r3]
  76 004e 049B     		ldr	r3, [sp, #16]
  77 0050 1940     		ands	r1, r1, r3
  78 0052 069B     		ldr	r3, [sp, #24]
  79 0054 C3F12003 		rsb	r3, r3, #32
  80 0058 01FA03F3 		lsl	r3, r1, r3
  81              		.loc 1 76 0
  82 005c 1343     		orrs	r3, r3, r2
  83 005e 09E0     		b	.L3
  84              	.L2:
  85              		.loc 1 79 0
  86 0060 079B     		ldr	r3, [sp, #28]
  87 0062 9B00     		lsls	r3, r3, #2
  88 0064 039A     		ldr	r2, [sp, #12]
  89 0066 1344     		add	r3, r3, r2
  90 0068 1A68     		ldr	r2, [r3]
  91 006a 049B     		ldr	r3, [sp, #16]
  92 006c 1A40     		ands	r2, r2, r3
  93 006e 069B     		ldr	r3, [sp, #24]
  94 0070 22FA03F3 		lsr	r3, r2, r3
  95              	.L3:
  96              		.loc 1 80 0
  97 0074 1846     		mov	r0, r3
  98 0076 08B0     		add	sp, sp, #32
  99              		@ sp needed
 100 0078 7047     		bx	lr
 101              		.cfi_endproc
 102              	.LFE267:
 103              		.size	_mmcsd_get_slice, .-_mmcsd_get_slice
 104 007a 00BF     		.align	2
 105 007c AFF30080 		.p2align 4,,15
 106              		.global	_mmcsd_get_capacity
 107              		.thumb
 108              		.thumb_func
 109              		.type	_mmcsd_get_capacity, %function
 110              	_mmcsd_get_capacity:
 111              	.LFB268:
 112              		.loc 1 93 0
 113              		.cfi_startproc
 114              		@ args = 0, pretend = 0, frame = 24
ARM GAS  /tmp/cc24C8If.s 			page 3


 115              		@ frame_needed = 0, uses_anonymous_args = 0
 116 0080 00B5     		push	{lr}
 117              		.cfi_def_cfa_offset 4
 118              		.cfi_offset 14, -4
 119 0082 87B0     		sub	sp, sp, #28
 120              		.cfi_def_cfa_offset 32
 121 0084 0190     		str	r0, [sp, #4]
 122              		.loc 1 98 0
 123 0086 0198     		ldr	r0, [sp, #4]
 124 0088 7F21     		movs	r1, #127
 125 008a 7E22     		movs	r2, #126
 126 008c FFF7FEFF 		bl	_mmcsd_get_slice
 127 0090 0346     		mov	r3, r0
 128 0092 002B     		cmp	r3, #0
 129 0094 04D0     		beq	.L6
 130 0096 012B     		cmp	r3, #1
 131 0098 1ED0     		beq	.L7
 132              		.loc 1 110 0
 133 009a 00BF     		nop
 134              		.loc 1 112 0
 135 009c 0023     		movs	r3, #0
 136 009e 23E0     		b	.L8
 137              	.L6:
 138              		.loc 1 101 0
 139 00a0 0198     		ldr	r0, [sp, #4]
 140 00a2 4921     		movs	r1, #73
 141 00a4 3E22     		movs	r2, #62
 142 00a6 FFF7FEFF 		bl	_mmcsd_get_slice
 143 00aa 0590     		str	r0, [sp, #20]
 144              		.loc 1 102 0
 145 00ac 0198     		ldr	r0, [sp, #4]
 146 00ae 3121     		movs	r1, #49
 147 00b0 2F22     		movs	r2, #47
 148 00b2 FFF7FEFF 		bl	_mmcsd_get_slice
 149 00b6 0490     		str	r0, [sp, #16]
 150              		.loc 1 103 0
 151 00b8 0198     		ldr	r0, [sp, #4]
 152 00ba 5321     		movs	r1, #83
 153 00bc 5022     		movs	r2, #80
 154 00be FFF7FEFF 		bl	_mmcsd_get_slice
 155 00c2 0390     		str	r0, [sp, #12]
 156              		.loc 1 104 0
 157 00c4 059B     		ldr	r3, [sp, #20]
 158 00c6 5A1C     		adds	r2, r3, #1
 159 00c8 049B     		ldr	r3, [sp, #16]
 160 00ca 0233     		adds	r3, r3, #2
 161 00cc 9A40     		lsls	r2, r2, r3
 162 00ce 039B     		ldr	r3, [sp, #12]
 163 00d0 093B     		subs	r3, r3, #9
 164 00d2 02FA03F3 		lsl	r3, r2, r3
 165 00d6 07E0     		b	.L8
 166              	.L7:
 167              		.loc 1 107 0
 168 00d8 0198     		ldr	r0, [sp, #4]
 169 00da 4521     		movs	r1, #69
 170 00dc 3022     		movs	r2, #48
 171 00de FFF7FEFF 		bl	_mmcsd_get_slice
ARM GAS  /tmp/cc24C8If.s 			page 4


 172 00e2 0346     		mov	r3, r0
 173 00e4 0133     		adds	r3, r3, #1
 174 00e6 9B02     		lsls	r3, r3, #10
 175              	.L8:
 176              		.loc 1 113 0
 177 00e8 1846     		mov	r0, r3
 178 00ea 07B0     		add	sp, sp, #28
 179              		@ sp needed
 180 00ec 5DF804FB 		ldr	pc, [sp], #4
 181              		.cfi_endproc
 182              	.LFE268:
 183              		.size	_mmcsd_get_capacity, .-_mmcsd_get_capacity
 184              		.align	2
 185              		.p2align 4,,15
 186              		.global	_mmcsd_get_capacity_ext
 187              		.thumb
 188              		.thumb_func
 189              		.type	_mmcsd_get_capacity_ext, %function
 190              	_mmcsd_get_capacity_ext:
 191              	.LFB269:
 192              		.loc 1 125 0
 193              		.cfi_startproc
 194              		@ args = 0, pretend = 0, frame = 8
 195              		@ frame_needed = 0, uses_anonymous_args = 0
 196              		@ link register save eliminated.
 197 00f0 82B0     		sub	sp, sp, #8
 198              		.cfi_def_cfa_offset 8
 199 00f2 0190     		str	r0, [sp, #4]
 200              		.loc 1 129 0
 201 00f4 019B     		ldr	r3, [sp, #4]
 202 00f6 D733     		adds	r3, r3, #215
 203 00f8 1B78     		ldrb	r3, [r3]	@ zero_extendqisi2
 204 00fa 1A06     		lsls	r2, r3, #24
 205              		.loc 1 130 0
 206 00fc 019B     		ldr	r3, [sp, #4]
 207 00fe D633     		adds	r3, r3, #214
 208 0100 1B78     		ldrb	r3, [r3]	@ zero_extendqisi2
 209 0102 1B04     		lsls	r3, r3, #16
 210              		.loc 1 129 0
 211 0104 1A44     		add	r2, r2, r3
 212              		.loc 1 131 0
 213 0106 019B     		ldr	r3, [sp, #4]
 214 0108 D533     		adds	r3, r3, #213
 215 010a 1B78     		ldrb	r3, [r3]	@ zero_extendqisi2
 216 010c 1B02     		lsls	r3, r3, #8
 217              		.loc 1 130 0
 218 010e 1A44     		add	r2, r2, r3
 219              		.loc 1 132 0
 220 0110 019B     		ldr	r3, [sp, #4]
 221 0112 D433     		adds	r3, r3, #212
 222 0114 1B78     		ldrb	r3, [r3]	@ zero_extendqisi2
 223              		.loc 1 129 0
 224 0116 1344     		add	r3, r3, r2
 225              		.loc 1 133 0
 226 0118 1846     		mov	r0, r3
 227 011a 02B0     		add	sp, sp, #8
 228              		@ sp needed
ARM GAS  /tmp/cc24C8If.s 			page 5


 229 011c 7047     		bx	lr
 230              		.cfi_endproc
 231              	.LFE269:
 232              		.size	_mmcsd_get_capacity_ext, .-_mmcsd_get_capacity_ext
 233 011e 00BF     		.align	2
 234              		.p2align 4,,15
 235              		.global	_mmcsd_unpack_sdc_cid
 236              		.thumb
 237              		.thumb_func
 238              		.type	_mmcsd_unpack_sdc_cid, %function
 239              	_mmcsd_unpack_sdc_cid:
 240              	.LFB270:
 241              		.loc 1 144 0
 242              		.cfi_startproc
 243              		@ args = 0, pretend = 0, frame = 16
 244              		@ frame_needed = 0, uses_anonymous_args = 0
 245 0120 00B5     		push	{lr}
 246              		.cfi_def_cfa_offset 4
 247              		.cfi_offset 14, -4
 248 0122 85B0     		sub	sp, sp, #20
 249              		.cfi_def_cfa_offset 24
 250 0124 0190     		str	r0, [sp, #4]
 251 0126 0091     		str	r1, [sp]
 252              		.loc 1 149 0
 253 0128 019B     		ldr	r3, [sp, #4]
 254 012a 0833     		adds	r3, r3, #8
 255 012c 0393     		str	r3, [sp, #12]
 256              		.loc 1 150 0
 257 012e 0398     		ldr	r0, [sp, #12]
 258 0130 0721     		movs	r1, #7
 259 0132 0122     		movs	r2, #1
 260 0134 FFF7FEFF 		bl	_mmcsd_get_slice
 261 0138 0346     		mov	r3, r0
 262 013a DAB2     		uxtb	r2, r3
 263 013c 009B     		ldr	r3, [sp]
 264 013e 1A75     		strb	r2, [r3, #20]
 265              		.loc 1 151 0
 266 0140 0398     		ldr	r0, [sp, #12]
 267 0142 1321     		movs	r1, #19
 268 0144 0C22     		movs	r2, #12
 269 0146 FFF7FEFF 		bl	_mmcsd_get_slice
 270 014a 0346     		mov	r3, r0
 271 014c 9BB2     		uxth	r3, r3
 272 014e 03F5FA63 		add	r3, r3, #2000
 273 0152 9AB2     		uxth	r2, r3
 274 0154 009B     		ldr	r3, [sp]
 275 0156 5A82     		strh	r2, [r3, #18]	@ movhi
 276              		.loc 1 153 0
 277 0158 0398     		ldr	r0, [sp, #12]
 278 015a 0B21     		movs	r1, #11
 279 015c 0822     		movs	r2, #8
 280 015e FFF7FEFF 		bl	_mmcsd_get_slice
 281 0162 0346     		mov	r3, r0
 282 0164 DAB2     		uxtb	r2, r3
 283 0166 009B     		ldr	r3, [sp]
 284 0168 1A74     		strb	r2, [r3, #16]
 285              		.loc 1 154 0
ARM GAS  /tmp/cc24C8If.s 			page 6


 286 016a 0398     		ldr	r0, [sp, #12]
 287 016c 7F21     		movs	r1, #127
 288 016e 7822     		movs	r2, #120
 289 0170 FFF7FEFF 		bl	_mmcsd_get_slice
 290 0174 0346     		mov	r3, r0
 291 0176 DAB2     		uxtb	r2, r3
 292 0178 009B     		ldr	r3, [sp]
 293 017a 1A70     		strb	r2, [r3]
 294              		.loc 1 155 0
 295 017c 0398     		ldr	r0, [sp, #12]
 296 017e 7721     		movs	r1, #119
 297 0180 6822     		movs	r2, #104
 298 0182 FFF7FEFF 		bl	_mmcsd_get_slice
 299 0186 0346     		mov	r3, r0
 300 0188 9AB2     		uxth	r2, r3
 301 018a 009B     		ldr	r3, [sp]
 302 018c 5A80     		strh	r2, [r3, #2]	@ movhi
 303              		.loc 1 156 0
 304 018e 0398     		ldr	r0, [sp, #12]
 305 0190 4721     		movs	r1, #71
 306 0192 4022     		movs	r2, #64
 307 0194 FFF7FEFF 		bl	_mmcsd_get_slice
 308 0198 0346     		mov	r3, r0
 309 019a DAB2     		uxtb	r2, r3
 310 019c 009B     		ldr	r3, [sp]
 311 019e 1A72     		strb	r2, [r3, #8]
 312              		.loc 1 157 0
 313 01a0 0398     		ldr	r0, [sp, #12]
 314 01a2 4F21     		movs	r1, #79
 315 01a4 4822     		movs	r2, #72
 316 01a6 FFF7FEFF 		bl	_mmcsd_get_slice
 317 01aa 0346     		mov	r3, r0
 318 01ac DAB2     		uxtb	r2, r3
 319 01ae 009B     		ldr	r3, [sp]
 320 01b0 DA71     		strb	r2, [r3, #7]
 321              		.loc 1 158 0
 322 01b2 0398     		ldr	r0, [sp, #12]
 323 01b4 5721     		movs	r1, #87
 324 01b6 5022     		movs	r2, #80
 325 01b8 FFF7FEFF 		bl	_mmcsd_get_slice
 326 01bc 0346     		mov	r3, r0
 327 01be DAB2     		uxtb	r2, r3
 328 01c0 009B     		ldr	r3, [sp]
 329 01c2 9A71     		strb	r2, [r3, #6]
 330              		.loc 1 159 0
 331 01c4 0398     		ldr	r0, [sp, #12]
 332 01c6 5F21     		movs	r1, #95
 333 01c8 5822     		movs	r2, #88
 334 01ca FFF7FEFF 		bl	_mmcsd_get_slice
 335 01ce 0346     		mov	r3, r0
 336 01d0 DAB2     		uxtb	r2, r3
 337 01d2 009B     		ldr	r3, [sp]
 338 01d4 5A71     		strb	r2, [r3, #5]
 339              		.loc 1 160 0
 340 01d6 0398     		ldr	r0, [sp, #12]
 341 01d8 6721     		movs	r1, #103
 342 01da 6022     		movs	r2, #96
ARM GAS  /tmp/cc24C8If.s 			page 7


 343 01dc FFF7FEFF 		bl	_mmcsd_get_slice
 344 01e0 0346     		mov	r3, r0
 345 01e2 DAB2     		uxtb	r2, r3
 346 01e4 009B     		ldr	r3, [sp]
 347 01e6 1A71     		strb	r2, [r3, #4]
 348              		.loc 1 161 0
 349 01e8 0398     		ldr	r0, [sp, #12]
 350 01ea 3F21     		movs	r1, #63
 351 01ec 3C22     		movs	r2, #60
 352 01ee FFF7FEFF 		bl	_mmcsd_get_slice
 353 01f2 0346     		mov	r3, r0
 354 01f4 DAB2     		uxtb	r2, r3
 355 01f6 009B     		ldr	r3, [sp]
 356 01f8 5A72     		strb	r2, [r3, #9]
 357              		.loc 1 162 0
 358 01fa 0398     		ldr	r0, [sp, #12]
 359 01fc 3B21     		movs	r1, #59
 360 01fe 3822     		movs	r2, #56
 361 0200 FFF7FEFF 		bl	_mmcsd_get_slice
 362 0204 0346     		mov	r3, r0
 363 0206 DAB2     		uxtb	r2, r3
 364 0208 009B     		ldr	r3, [sp]
 365 020a 9A72     		strb	r2, [r3, #10]
 366              		.loc 1 163 0
 367 020c 0398     		ldr	r0, [sp, #12]
 368 020e 3721     		movs	r1, #55
 369 0210 1822     		movs	r2, #24
 370 0212 FFF7FEFF 		bl	_mmcsd_get_slice
 371 0216 0246     		mov	r2, r0
 372 0218 009B     		ldr	r3, [sp]
 373 021a DA60     		str	r2, [r3, #12]
 374              		.loc 1 164 0
 375 021c 05B0     		add	sp, sp, #20
 376              		@ sp needed
 377 021e 5DF804FB 		ldr	pc, [sp], #4
 378              		.cfi_endproc
 379              	.LFE270:
 380              		.size	_mmcsd_unpack_sdc_cid, .-_mmcsd_unpack_sdc_cid
 381 0222 00BF     		.align	2
 382 0224 AFF30080 		.p2align 4,,15
 382      AFF30080 
 382      AFF30080 
 383              		.global	_mmcsd_unpack_mmc_cid
 384              		.thumb
 385              		.thumb_func
 386              		.type	_mmcsd_unpack_mmc_cid, %function
 387              	_mmcsd_unpack_mmc_cid:
 388              	.LFB271:
 389              		.loc 1 175 0
 390              		.cfi_startproc
 391              		@ args = 0, pretend = 0, frame = 16
 392              		@ frame_needed = 0, uses_anonymous_args = 0
 393 0230 00B5     		push	{lr}
 394              		.cfi_def_cfa_offset 4
 395              		.cfi_offset 14, -4
 396 0232 85B0     		sub	sp, sp, #20
 397              		.cfi_def_cfa_offset 24
ARM GAS  /tmp/cc24C8If.s 			page 8


 398 0234 0190     		str	r0, [sp, #4]
 399 0236 0091     		str	r1, [sp]
 400              		.loc 1 180 0
 401 0238 019B     		ldr	r3, [sp, #4]
 402 023a 0833     		adds	r3, r3, #8
 403 023c 0393     		str	r3, [sp, #12]
 404              		.loc 1 181 0
 405 023e 0398     		ldr	r0, [sp, #12]
 406 0240 0721     		movs	r1, #7
 407 0242 0122     		movs	r2, #1
 408 0244 FFF7FEFF 		bl	_mmcsd_get_slice
 409 0248 0346     		mov	r3, r0
 410 024a DAB2     		uxtb	r2, r3
 411 024c 009B     		ldr	r3, [sp]
 412 024e 1A75     		strb	r2, [r3, #20]
 413              		.loc 1 182 0
 414 0250 0398     		ldr	r0, [sp, #12]
 415 0252 0B21     		movs	r1, #11
 416 0254 0822     		movs	r2, #8
 417 0256 FFF7FEFF 		bl	_mmcsd_get_slice
 418 025a 0346     		mov	r3, r0
 419 025c 9BB2     		uxth	r3, r3
 420 025e 03F2CD73 		addw	r3, r3, #1997
 421 0262 9AB2     		uxth	r2, r3
 422 0264 009B     		ldr	r3, [sp]
 423 0266 5A82     		strh	r2, [r3, #18]	@ movhi
 424              		.loc 1 184 0
 425 0268 0398     		ldr	r0, [sp, #12]
 426 026a 0F21     		movs	r1, #15
 427 026c 0C22     		movs	r2, #12
 428 026e FFF7FEFF 		bl	_mmcsd_get_slice
 429 0272 0346     		mov	r3, r0
 430 0274 DAB2     		uxtb	r2, r3
 431 0276 009B     		ldr	r3, [sp]
 432 0278 1A74     		strb	r2, [r3, #16]
 433              		.loc 1 185 0
 434 027a 0398     		ldr	r0, [sp, #12]
 435 027c 7F21     		movs	r1, #127
 436 027e 7822     		movs	r2, #120
 437 0280 FFF7FEFF 		bl	_mmcsd_get_slice
 438 0284 0346     		mov	r3, r0
 439 0286 DAB2     		uxtb	r2, r3
 440 0288 009B     		ldr	r3, [sp]
 441 028a 1A70     		strb	r2, [r3]
 442              		.loc 1 186 0
 443 028c 0398     		ldr	r0, [sp, #12]
 444 028e 7721     		movs	r1, #119
 445 0290 6822     		movs	r2, #104
 446 0292 FFF7FEFF 		bl	_mmcsd_get_slice
 447 0296 0346     		mov	r3, r0
 448 0298 9AB2     		uxth	r2, r3
 449 029a 009B     		ldr	r3, [sp]
 450 029c 5A80     		strh	r2, [r3, #2]	@ movhi
 451              		.loc 1 187 0
 452 029e 0398     		ldr	r0, [sp, #12]
 453 02a0 3F21     		movs	r1, #63
 454 02a2 3822     		movs	r2, #56
ARM GAS  /tmp/cc24C8If.s 			page 9


 455 02a4 FFF7FEFF 		bl	_mmcsd_get_slice
 456 02a8 0346     		mov	r3, r0
 457 02aa DAB2     		uxtb	r2, r3
 458 02ac 009B     		ldr	r3, [sp]
 459 02ae 5A72     		strb	r2, [r3, #9]
 460              		.loc 1 188 0
 461 02b0 0398     		ldr	r0, [sp, #12]
 462 02b2 4721     		movs	r1, #71
 463 02b4 4022     		movs	r2, #64
 464 02b6 FFF7FEFF 		bl	_mmcsd_get_slice
 465 02ba 0346     		mov	r3, r0
 466 02bc DAB2     		uxtb	r2, r3
 467 02be 009B     		ldr	r3, [sp]
 468 02c0 1A72     		strb	r2, [r3, #8]
 469              		.loc 1 189 0
 470 02c2 0398     		ldr	r0, [sp, #12]
 471 02c4 4F21     		movs	r1, #79
 472 02c6 4822     		movs	r2, #72
 473 02c8 FFF7FEFF 		bl	_mmcsd_get_slice
 474 02cc 0346     		mov	r3, r0
 475 02ce DAB2     		uxtb	r2, r3
 476 02d0 009B     		ldr	r3, [sp]
 477 02d2 DA71     		strb	r2, [r3, #7]
 478              		.loc 1 190 0
 479 02d4 0398     		ldr	r0, [sp, #12]
 480 02d6 5721     		movs	r1, #87
 481 02d8 5022     		movs	r2, #80
 482 02da FFF7FEFF 		bl	_mmcsd_get_slice
 483 02de 0346     		mov	r3, r0
 484 02e0 DAB2     		uxtb	r2, r3
 485 02e2 009B     		ldr	r3, [sp]
 486 02e4 9A71     		strb	r2, [r3, #6]
 487              		.loc 1 191 0
 488 02e6 0398     		ldr	r0, [sp, #12]
 489 02e8 5F21     		movs	r1, #95
 490 02ea 5822     		movs	r2, #88
 491 02ec FFF7FEFF 		bl	_mmcsd_get_slice
 492 02f0 0346     		mov	r3, r0
 493 02f2 DAB2     		uxtb	r2, r3
 494 02f4 009B     		ldr	r3, [sp]
 495 02f6 5A71     		strb	r2, [r3, #5]
 496              		.loc 1 192 0
 497 02f8 0398     		ldr	r0, [sp, #12]
 498 02fa 6721     		movs	r1, #103
 499 02fc 6022     		movs	r2, #96
 500 02fe FFF7FEFF 		bl	_mmcsd_get_slice
 501 0302 0346     		mov	r3, r0
 502 0304 DAB2     		uxtb	r2, r3
 503 0306 009B     		ldr	r3, [sp]
 504 0308 1A71     		strb	r2, [r3, #4]
 505              		.loc 1 193 0
 506 030a 0398     		ldr	r0, [sp, #12]
 507 030c 3721     		movs	r1, #55
 508 030e 3422     		movs	r2, #52
 509 0310 FFF7FEFF 		bl	_mmcsd_get_slice
 510 0314 0346     		mov	r3, r0
 511 0316 DAB2     		uxtb	r2, r3
ARM GAS  /tmp/cc24C8If.s 			page 10


 512 0318 009B     		ldr	r3, [sp]
 513 031a 9A72     		strb	r2, [r3, #10]
 514              		.loc 1 194 0
 515 031c 0398     		ldr	r0, [sp, #12]
 516 031e 3321     		movs	r1, #51
 517 0320 3022     		movs	r2, #48
 518 0322 FFF7FEFF 		bl	_mmcsd_get_slice
 519 0326 0346     		mov	r3, r0
 520 0328 DAB2     		uxtb	r2, r3
 521 032a 009B     		ldr	r3, [sp]
 522 032c DA72     		strb	r2, [r3, #11]
 523              		.loc 1 195 0
 524 032e 0398     		ldr	r0, [sp, #12]
 525 0330 2F21     		movs	r1, #47
 526 0332 1022     		movs	r2, #16
 527 0334 FFF7FEFF 		bl	_mmcsd_get_slice
 528 0338 0246     		mov	r2, r0
 529 033a 009B     		ldr	r3, [sp]
 530 033c DA60     		str	r2, [r3, #12]
 531              		.loc 1 196 0
 532 033e 05B0     		add	sp, sp, #20
 533              		@ sp needed
 534 0340 5DF804FB 		ldr	pc, [sp], #4
 535              		.cfi_endproc
 536              	.LFE271:
 537              		.size	_mmcsd_unpack_mmc_cid, .-_mmcsd_unpack_mmc_cid
 538              		.align	2
 539 0344 AFF30080 		.p2align 4,,15
 539      AFF30080 
 539      AFF30080 
 540              		.global	_mmcsd_unpack_csd_mmc
 541              		.thumb
 542              		.thumb_func
 543              		.type	_mmcsd_unpack_csd_mmc, %function
 544              	_mmcsd_unpack_csd_mmc:
 545              	.LFB272:
 546              		.loc 1 207 0
 547              		.cfi_startproc
 548              		@ args = 0, pretend = 0, frame = 16
 549              		@ frame_needed = 0, uses_anonymous_args = 0
 550 0350 00B5     		push	{lr}
 551              		.cfi_def_cfa_offset 4
 552              		.cfi_offset 14, -4
 553 0352 85B0     		sub	sp, sp, #20
 554              		.cfi_def_cfa_offset 24
 555 0354 0190     		str	r0, [sp, #4]
 556 0356 0091     		str	r1, [sp]
 557              		.loc 1 212 0
 558 0358 019B     		ldr	r3, [sp, #4]
 559 035a 1833     		adds	r3, r3, #24
 560 035c 0393     		str	r3, [sp, #12]
 561              		.loc 1 213 0
 562 035e 0398     		ldr	r0, [sp, #12]
 563 0360 4921     		movs	r1, #73
 564 0362 3E22     		movs	r2, #62
 565 0364 FFF7FEFF 		bl	_mmcsd_get_slice
 566 0368 0346     		mov	r3, r0
ARM GAS  /tmp/cc24C8If.s 			page 11


 567 036a 9AB2     		uxth	r2, r3
 568 036c 009B     		ldr	r3, [sp]
 569 036e DA81     		strh	r2, [r3, #14]	@ movhi
 570              		.loc 1 214 0
 571 0370 0398     		ldr	r0, [sp, #12]
 572 0372 3121     		movs	r1, #49
 573 0374 2F22     		movs	r2, #47
 574 0376 FFF7FEFF 		bl	_mmcsd_get_slice
 575 037a 0346     		mov	r3, r0
 576 037c DAB2     		uxtb	r2, r3
 577 037e 009B     		ldr	r3, [sp]
 578 0380 1A75     		strb	r2, [r3, #20]
 579              		.loc 1 215 0
 580 0382 0398     		ldr	r0, [sp, #12]
 581 0384 5F21     		movs	r1, #95
 582 0386 5422     		movs	r2, #84
 583 0388 FFF7FEFF 		bl	_mmcsd_get_slice
 584 038c 0346     		mov	r3, r0
 585 038e 9AB2     		uxth	r2, r3
 586 0390 009B     		ldr	r3, [sp]
 587 0392 DA80     		strh	r2, [r3, #6]	@ movhi
 588              		.loc 1 216 0
 589 0394 0398     		ldr	r0, [sp, #12]
 590 0396 0E21     		movs	r1, #14
 591 0398 0E22     		movs	r2, #14
 592 039a FFF7FEFF 		bl	_mmcsd_get_slice
 593 039e 0346     		mov	r3, r0
 594 03a0 DAB2     		uxtb	r2, r3
 595 03a2 009B     		ldr	r3, [sp]
 596 03a4 DA77     		strb	r2, [r3, #31]
 597              		.loc 1 217 0
 598 03a6 0398     		ldr	r0, [sp, #12]
 599 03a8 0721     		movs	r1, #7
 600 03aa 0122     		movs	r2, #1
 601 03ac FFF7FEFF 		bl	_mmcsd_get_slice
 602 03b0 0346     		mov	r3, r0
 603 03b2 DAB2     		uxtb	r2, r3
 604 03b4 009B     		ldr	r3, [sp]
 605 03b6 83F82420 		strb	r2, [r3, #36]
 606              		.loc 1 218 0
 607 03ba 0398     		ldr	r0, [sp, #12]
 608 03bc 7F21     		movs	r1, #127
 609 03be 7E22     		movs	r2, #126
 610 03c0 FFF7FEFF 		bl	_mmcsd_get_slice
 611 03c4 0346     		mov	r3, r0
 612 03c6 DAB2     		uxtb	r2, r3
 613 03c8 009B     		ldr	r3, [sp]
 614 03ca 1A70     		strb	r2, [r3]
 615              		.loc 1 219 0
 616 03cc 0398     		ldr	r0, [sp, #12]
 617 03ce 4C21     		movs	r1, #76
 618 03d0 4C22     		movs	r2, #76
 619 03d2 FFF7FEFF 		bl	_mmcsd_get_slice
 620 03d6 0346     		mov	r3, r0
 621 03d8 DAB2     		uxtb	r2, r3
 622 03da 009B     		ldr	r3, [sp]
 623 03dc 1A73     		strb	r2, [r3, #12]
ARM GAS  /tmp/cc24C8If.s 			page 12


 624              		.loc 1 220 0
 625 03de 0398     		ldr	r0, [sp, #12]
 626 03e0 0921     		movs	r1, #9
 627 03e2 0822     		movs	r2, #8
 628 03e4 FFF7FEFF 		bl	_mmcsd_get_slice
 629 03e8 0346     		mov	r3, r0
 630 03ea DAB2     		uxtb	r2, r3
 631 03ec 009B     		ldr	r3, [sp]
 632 03ee 83F82320 		strb	r2, [r3, #35]
 633              		.loc 1 221 0
 634 03f2 0398     		ldr	r0, [sp, #12]
 635 03f4 2921     		movs	r1, #41
 636 03f6 2522     		movs	r2, #37
 637 03f8 FFF7FEFF 		bl	_mmcsd_get_slice
 638 03fc 0346     		mov	r3, r0
 639 03fe DAB2     		uxtb	r2, r3
 640 0400 009B     		ldr	r3, [sp]
 641 0402 9A75     		strb	r2, [r3, #22]
 642              		.loc 1 222 0
 643 0404 0398     		ldr	r0, [sp, #12]
 644 0406 2E21     		movs	r1, #46
 645 0408 2A22     		movs	r2, #42
 646 040a FFF7FEFF 		bl	_mmcsd_get_slice
 647 040e 0346     		mov	r3, r0
 648 0410 DAB2     		uxtb	r2, r3
 649 0412 009B     		ldr	r3, [sp]
 650 0414 5A75     		strb	r2, [r3, #21]
 651              		.loc 1 223 0
 652 0416 0398     		ldr	r0, [sp, #12]
 653 0418 0B21     		movs	r1, #11
 654 041a 0A22     		movs	r2, #10
 655 041c FFF7FEFF 		bl	_mmcsd_get_slice
 656 0420 0346     		mov	r3, r0
 657 0422 DAB2     		uxtb	r2, r3
 658 0424 009B     		ldr	r3, [sp]
 659 0426 83F82220 		strb	r2, [r3, #34]
 660              		.loc 1 224 0
 661 042a 0398     		ldr	r0, [sp, #12]
 662 042c 0F21     		movs	r1, #15
 663 042e 0F22     		movs	r2, #15
 664 0430 FFF7FEFF 		bl	_mmcsd_get_slice
 665 0434 0346     		mov	r3, r0
 666 0436 DAB2     		uxtb	r2, r3
 667 0438 009B     		ldr	r3, [sp]
 668 043a 9A77     		strb	r2, [r3, #30]
 669              		.loc 1 225 0
 670 043c 0398     		ldr	r0, [sp, #12]
 671 043e 6F21     		movs	r1, #111
 672 0440 6822     		movs	r2, #104
 673 0442 FFF7FEFF 		bl	_mmcsd_get_slice
 674 0446 0346     		mov	r3, r0
 675 0448 DAB2     		uxtb	r2, r3
 676 044a 009B     		ldr	r3, [sp]
 677 044c DA70     		strb	r2, [r3, #3]
 678              		.loc 1 226 0
 679 044e 0398     		ldr	r0, [sp, #12]
 680 0450 0D21     		movs	r1, #13
ARM GAS  /tmp/cc24C8If.s 			page 13


 681 0452 0D22     		movs	r2, #13
 682 0454 FFF7FEFF 		bl	_mmcsd_get_slice
 683 0458 0346     		mov	r3, r0
 684 045a DAB2     		uxtb	r2, r3
 685 045c 009B     		ldr	r3, [sp]
 686 045e 83F82020 		strb	r2, [r3, #32]
 687              		.loc 1 227 0
 688 0462 0398     		ldr	r0, [sp, #12]
 689 0464 1C21     		movs	r1, #28
 690 0466 1A22     		movs	r2, #26
 691 0468 FFF7FEFF 		bl	_mmcsd_get_slice
 692 046c 0346     		mov	r3, r0
 693 046e DAB2     		uxtb	r2, r3
 694 0470 009B     		ldr	r3, [sp]
 695 0472 9A76     		strb	r2, [r3, #26]
 696              		.loc 1 228 0
 697 0474 0398     		ldr	r0, [sp, #12]
 698 0476 5321     		movs	r1, #83
 699 0478 5022     		movs	r2, #80
 700 047a FFF7FEFF 		bl	_mmcsd_get_slice
 701 047e 0346     		mov	r3, r0
 702 0480 DAB2     		uxtb	r2, r3
 703 0482 009B     		ldr	r3, [sp]
 704 0484 1A72     		strb	r2, [r3, #8]
 705              		.loc 1 229 0
 706 0486 0398     		ldr	r0, [sp, #12]
 707 0488 4F21     		movs	r1, #79
 708 048a 4F22     		movs	r2, #79
 709 048c FFF7FEFF 		bl	_mmcsd_get_slice
 710 0490 0346     		mov	r3, r0
 711 0492 DAB2     		uxtb	r2, r3
 712 0494 009B     		ldr	r3, [sp]
 713 0496 5A72     		strb	r2, [r3, #9]
 714              		.loc 1 230 0
 715 0498 0398     		ldr	r0, [sp, #12]
 716 049a 4D21     		movs	r1, #77
 717 049c 4D22     		movs	r2, #77
 718 049e FFF7FEFF 		bl	_mmcsd_get_slice
 719 04a2 0346     		mov	r3, r0
 720 04a4 DAB2     		uxtb	r2, r3
 721 04a6 009B     		ldr	r3, [sp]
 722 04a8 DA72     		strb	r2, [r3, #11]
 723              		.loc 1 231 0
 724 04aa 0398     		ldr	r0, [sp, #12]
 725 04ac 7D21     		movs	r1, #125
 726 04ae 7A22     		movs	r2, #122
 727 04b0 FFF7FEFF 		bl	_mmcsd_get_slice
 728 04b4 0346     		mov	r3, r0
 729 04b6 DAB2     		uxtb	r2, r3
 730 04b8 009B     		ldr	r3, [sp]
 731 04ba 5A70     		strb	r2, [r3, #1]
 732              		.loc 1 232 0
 733 04bc 0398     		ldr	r0, [sp, #12]
 734 04be 7721     		movs	r1, #119
 735 04c0 7022     		movs	r2, #112
 736 04c2 FFF7FEFF 		bl	_mmcsd_get_slice
 737 04c6 0346     		mov	r3, r0
ARM GAS  /tmp/cc24C8If.s 			page 14


 738 04c8 DAB2     		uxtb	r2, r3
 739 04ca 009B     		ldr	r3, [sp]
 740 04cc 9A70     		strb	r2, [r3, #2]
 741              		.loc 1 233 0
 742 04ce 0398     		ldr	r0, [sp, #12]
 743 04d0 0C21     		movs	r1, #12
 744 04d2 0C22     		movs	r2, #12
 745 04d4 FFF7FEFF 		bl	_mmcsd_get_slice
 746 04d8 0346     		mov	r3, r0
 747 04da DAB2     		uxtb	r2, r3
 748 04dc 009B     		ldr	r3, [sp]
 749 04de 83F82120 		strb	r2, [r3, #33]
 750              		.loc 1 234 0
 751 04e2 0398     		ldr	r0, [sp, #12]
 752 04e4 6721     		movs	r1, #103
 753 04e6 6022     		movs	r2, #96
 754 04e8 FFF7FEFF 		bl	_mmcsd_get_slice
 755 04ec 0346     		mov	r3, r0
 756 04ee DAB2     		uxtb	r2, r3
 757 04f0 009B     		ldr	r3, [sp]
 758 04f2 1A71     		strb	r2, [r3, #4]
 759              		.loc 1 235 0
 760 04f4 0398     		ldr	r0, [sp, #12]
 761 04f6 3A21     		movs	r1, #58
 762 04f8 3822     		movs	r2, #56
 763 04fa FFF7FEFF 		bl	_mmcsd_get_slice
 764 04fe 0346     		mov	r3, r0
 765 0500 DAB2     		uxtb	r2, r3
 766 0502 009B     		ldr	r3, [sp]
 767 0504 5A74     		strb	r2, [r3, #17]
 768              		.loc 1 236 0
 769 0506 0398     		ldr	r0, [sp, #12]
 770 0508 3D21     		movs	r1, #61
 771 050a 3B22     		movs	r2, #59
 772 050c FFF7FEFF 		bl	_mmcsd_get_slice
 773 0510 0346     		mov	r3, r0
 774 0512 DAB2     		uxtb	r2, r3
 775 0514 009B     		ldr	r3, [sp]
 776 0516 1A74     		strb	r2, [r3, #16]
 777              		.loc 1 237 0
 778 0518 0398     		ldr	r0, [sp, #12]
 779 051a 3421     		movs	r1, #52
 780 051c 3222     		movs	r2, #50
 781 051e FFF7FEFF 		bl	_mmcsd_get_slice
 782 0522 0346     		mov	r3, r0
 783 0524 DAB2     		uxtb	r2, r3
 784 0526 009B     		ldr	r3, [sp]
 785 0528 DA74     		strb	r2, [r3, #19]
 786              		.loc 1 238 0
 787 052a 0398     		ldr	r0, [sp, #12]
 788 052c 3721     		movs	r1, #55
 789 052e 3522     		movs	r2, #53
 790 0530 FFF7FEFF 		bl	_mmcsd_get_slice
 791 0534 0346     		mov	r3, r0
 792 0536 DAB2     		uxtb	r2, r3
 793 0538 009B     		ldr	r3, [sp]
 794 053a 9A74     		strb	r2, [r3, #18]
ARM GAS  /tmp/cc24C8If.s 			page 15


 795              		.loc 1 239 0
 796 053c 0398     		ldr	r0, [sp, #12]
 797 053e 1F21     		movs	r1, #31
 798 0540 1F22     		movs	r2, #31
 799 0542 FFF7FEFF 		bl	_mmcsd_get_slice
 800 0546 0346     		mov	r3, r0
 801 0548 DAB2     		uxtb	r2, r3
 802 054a 009B     		ldr	r3, [sp]
 803 054c 1A76     		strb	r2, [r3, #24]
 804              		.loc 1 240 0
 805 054e 0398     		ldr	r0, [sp, #12]
 806 0550 2421     		movs	r1, #36
 807 0552 2022     		movs	r2, #32
 808 0554 FFF7FEFF 		bl	_mmcsd_get_slice
 809 0558 0346     		mov	r3, r0
 810 055a DAB2     		uxtb	r2, r3
 811 055c 009B     		ldr	r3, [sp]
 812 055e DA75     		strb	r2, [r3, #23]
 813              		.loc 1 241 0
 814 0560 0398     		ldr	r0, [sp, #12]
 815 0562 1921     		movs	r1, #25
 816 0564 1622     		movs	r2, #22
 817 0566 FFF7FEFF 		bl	_mmcsd_get_slice
 818 056a 0346     		mov	r3, r0
 819 056c DAB2     		uxtb	r2, r3
 820 056e 009B     		ldr	r3, [sp]
 821 0570 DA76     		strb	r2, [r3, #27]
 822              		.loc 1 242 0
 823 0572 0398     		ldr	r0, [sp, #12]
 824 0574 1521     		movs	r1, #21
 825 0576 1522     		movs	r2, #21
 826 0578 FFF7FEFF 		bl	_mmcsd_get_slice
 827 057c 0346     		mov	r3, r0
 828 057e DAB2     		uxtb	r2, r3
 829 0580 009B     		ldr	r3, [sp]
 830 0582 1A77     		strb	r2, [r3, #28]
 831              		.loc 1 243 0
 832 0584 0398     		ldr	r0, [sp, #12]
 833 0586 4E21     		movs	r1, #78
 834 0588 4E22     		movs	r2, #78
 835 058a FFF7FEFF 		bl	_mmcsd_get_slice
 836 058e 0346     		mov	r3, r0
 837 0590 DAB2     		uxtb	r2, r3
 838 0592 009B     		ldr	r3, [sp]
 839 0594 9A72     		strb	r2, [r3, #10]
 840              		.loc 1 244 0
 841 0596 05B0     		add	sp, sp, #20
 842              		@ sp needed
 843 0598 5DF804FB 		ldr	pc, [sp], #4
 844              		.cfi_endproc
 845              	.LFE272:
 846              		.size	_mmcsd_unpack_csd_mmc, .-_mmcsd_unpack_csd_mmc
 847              		.align	2
 848 059c AFF30080 		.p2align 4,,15
 849              		.global	_mmcsd_unpack_csd_v10
 850              		.thumb
 851              		.thumb_func
ARM GAS  /tmp/cc24C8If.s 			page 16


 852              		.type	_mmcsd_unpack_csd_v10, %function
 853              	_mmcsd_unpack_csd_v10:
 854              	.LFB273:
 855              		.loc 1 255 0
 856              		.cfi_startproc
 857              		@ args = 0, pretend = 0, frame = 16
 858              		@ frame_needed = 0, uses_anonymous_args = 0
 859 05a0 00B5     		push	{lr}
 860              		.cfi_def_cfa_offset 4
 861              		.cfi_offset 14, -4
 862 05a2 85B0     		sub	sp, sp, #20
 863              		.cfi_def_cfa_offset 24
 864 05a4 0190     		str	r0, [sp, #4]
 865 05a6 0091     		str	r1, [sp]
 866              		.loc 1 260 0
 867 05a8 019B     		ldr	r3, [sp, #4]
 868 05aa 1833     		adds	r3, r3, #24
 869 05ac 0393     		str	r3, [sp, #12]
 870              		.loc 1 261 0
 871 05ae 0398     		ldr	r0, [sp, #12]
 872 05b0 4921     		movs	r1, #73
 873 05b2 3E22     		movs	r2, #62
 874 05b4 FFF7FEFF 		bl	_mmcsd_get_slice
 875 05b8 0346     		mov	r3, r0
 876 05ba 9AB2     		uxth	r2, r3
 877 05bc 009B     		ldr	r3, [sp]
 878 05be 9A81     		strh	r2, [r3, #12]	@ movhi
 879              		.loc 1 262 0
 880 05c0 0398     		ldr	r0, [sp, #12]
 881 05c2 3121     		movs	r1, #49
 882 05c4 2F22     		movs	r2, #47
 883 05c6 FFF7FEFF 		bl	_mmcsd_get_slice
 884 05ca 0346     		mov	r3, r0
 885 05cc DAB2     		uxtb	r2, r3
 886 05ce 009B     		ldr	r3, [sp]
 887 05d0 9A74     		strb	r2, [r3, #18]
 888              		.loc 1 263 0
 889 05d2 0398     		ldr	r0, [sp, #12]
 890 05d4 5F21     		movs	r1, #95
 891 05d6 5422     		movs	r2, #84
 892 05d8 FFF7FEFF 		bl	_mmcsd_get_slice
 893 05dc 0346     		mov	r3, r0
 894 05de 9AB2     		uxth	r2, r3
 895 05e0 009B     		ldr	r3, [sp]
 896 05e2 9A80     		strh	r2, [r3, #4]	@ movhi
 897              		.loc 1 264 0
 898 05e4 0398     		ldr	r0, [sp, #12]
 899 05e6 0E21     		movs	r1, #14
 900 05e8 0E22     		movs	r2, #14
 901 05ea FFF7FEFF 		bl	_mmcsd_get_slice
 902 05ee 0346     		mov	r3, r0
 903 05f0 DAB2     		uxtb	r2, r3
 904 05f2 009B     		ldr	r3, [sp]
 905 05f4 DA76     		strb	r2, [r3, #27]
 906              		.loc 1 265 0
 907 05f6 0398     		ldr	r0, [sp, #12]
 908 05f8 0721     		movs	r1, #7
ARM GAS  /tmp/cc24C8If.s 			page 17


 909 05fa 0122     		movs	r2, #1
 910 05fc FFF7FEFF 		bl	_mmcsd_get_slice
 911 0600 0346     		mov	r3, r0
 912 0602 DAB2     		uxtb	r2, r3
 913 0604 009B     		ldr	r3, [sp]
 914 0606 DA77     		strb	r2, [r3, #31]
 915              		.loc 1 266 0
 916 0608 0398     		ldr	r0, [sp, #12]
 917 060a 7F21     		movs	r1, #127
 918 060c 7E22     		movs	r2, #126
 919 060e FFF7FEFF 		bl	_mmcsd_get_slice
 920 0612 0346     		mov	r3, r0
 921 0614 DAB2     		uxtb	r2, r3
 922 0616 009B     		ldr	r3, [sp]
 923 0618 1A70     		strb	r2, [r3]
 924              		.loc 1 267 0
 925 061a 0398     		ldr	r0, [sp, #12]
 926 061c 4C21     		movs	r1, #76
 927 061e 4C22     		movs	r2, #76
 928 0620 FFF7FEFF 		bl	_mmcsd_get_slice
 929 0624 0346     		mov	r3, r0
 930 0626 DAB2     		uxtb	r2, r3
 931 0628 009B     		ldr	r3, [sp]
 932 062a 9A72     		strb	r2, [r3, #10]
 933              		.loc 1 268 0
 934 062c 0398     		ldr	r0, [sp, #12]
 935 062e 2E21     		movs	r1, #46
 936 0630 2E22     		movs	r2, #46
 937 0632 FFF7FEFF 		bl	_mmcsd_get_slice
 938 0636 0346     		mov	r3, r0
 939 0638 DAB2     		uxtb	r2, r3
 940 063a 009B     		ldr	r3, [sp]
 941 063c DA74     		strb	r2, [r3, #19]
 942              		.loc 1 269 0
 943 063e 0398     		ldr	r0, [sp, #12]
 944 0640 2D21     		movs	r1, #45
 945 0642 2722     		movs	r2, #39
 946 0644 FFF7FEFF 		bl	_mmcsd_get_slice
 947 0648 0346     		mov	r3, r0
 948 064a DAB2     		uxtb	r2, r3
 949 064c 009B     		ldr	r3, [sp]
 950 064e 1A75     		strb	r2, [r3, #20]
 951              		.loc 1 270 0
 952 0650 0398     		ldr	r0, [sp, #12]
 953 0652 0B21     		movs	r1, #11
 954 0654 0A22     		movs	r2, #10
 955 0656 FFF7FEFF 		bl	_mmcsd_get_slice
 956 065a 0346     		mov	r3, r0
 957 065c DAB2     		uxtb	r2, r3
 958 065e 009B     		ldr	r3, [sp]
 959 0660 9A77     		strb	r2, [r3, #30]
 960              		.loc 1 271 0
 961 0662 0398     		ldr	r0, [sp, #12]
 962 0664 0F21     		movs	r1, #15
 963 0666 0F22     		movs	r2, #15
 964 0668 FFF7FEFF 		bl	_mmcsd_get_slice
 965 066c 0346     		mov	r3, r0
ARM GAS  /tmp/cc24C8If.s 			page 18


 966 066e DAB2     		uxtb	r2, r3
 967 0670 009B     		ldr	r3, [sp]
 968 0672 9A76     		strb	r2, [r3, #26]
 969              		.loc 1 272 0
 970 0674 0398     		ldr	r0, [sp, #12]
 971 0676 6F21     		movs	r1, #111
 972 0678 6822     		movs	r2, #104
 973 067a FFF7FEFF 		bl	_mmcsd_get_slice
 974 067e 0346     		mov	r3, r0
 975 0680 DAB2     		uxtb	r2, r3
 976 0682 009B     		ldr	r3, [sp]
 977 0684 9A70     		strb	r2, [r3, #2]
 978              		.loc 1 273 0
 979 0686 0398     		ldr	r0, [sp, #12]
 980 0688 0D21     		movs	r1, #13
 981 068a 0D22     		movs	r2, #13
 982 068c FFF7FEFF 		bl	_mmcsd_get_slice
 983 0690 0346     		mov	r3, r0
 984 0692 DAB2     		uxtb	r2, r3
 985 0694 009B     		ldr	r3, [sp]
 986 0696 1A77     		strb	r2, [r3, #28]
 987              		.loc 1 274 0
 988 0698 0398     		ldr	r0, [sp, #12]
 989 069a 1C21     		movs	r1, #28
 990 069c 1A22     		movs	r2, #26
 991 069e FFF7FEFF 		bl	_mmcsd_get_slice
 992 06a2 0346     		mov	r3, r0
 993 06a4 DAB2     		uxtb	r2, r3
 994 06a6 009B     		ldr	r3, [sp]
 995 06a8 DA75     		strb	r2, [r3, #23]
 996              		.loc 1 275 0
 997 06aa 0398     		ldr	r0, [sp, #12]
 998 06ac 5321     		movs	r1, #83
 999 06ae 5022     		movs	r2, #80
 1000 06b0 FFF7FEFF 		bl	_mmcsd_get_slice
 1001 06b4 0346     		mov	r3, r0
 1002 06b6 DAB2     		uxtb	r2, r3
 1003 06b8 009B     		ldr	r3, [sp]
 1004 06ba 9A71     		strb	r2, [r3, #6]
 1005              		.loc 1 276 0
 1006 06bc 0398     		ldr	r0, [sp, #12]
 1007 06be 4F21     		movs	r1, #79
 1008 06c0 4F22     		movs	r2, #79
 1009 06c2 FFF7FEFF 		bl	_mmcsd_get_slice
 1010 06c6 0346     		mov	r3, r0
 1011 06c8 DAB2     		uxtb	r2, r3
 1012 06ca 009B     		ldr	r3, [sp]
 1013 06cc DA71     		strb	r2, [r3, #7]
 1014              		.loc 1 277 0
 1015 06ce 0398     		ldr	r0, [sp, #12]
 1016 06d0 4D21     		movs	r1, #77
 1017 06d2 4D22     		movs	r2, #77
 1018 06d4 FFF7FEFF 		bl	_mmcsd_get_slice
 1019 06d8 0346     		mov	r3, r0
 1020 06da DAB2     		uxtb	r2, r3
 1021 06dc 009B     		ldr	r3, [sp]
 1022 06de 5A72     		strb	r2, [r3, #9]
ARM GAS  /tmp/cc24C8If.s 			page 19


 1023              		.loc 1 278 0
 1024 06e0 0398     		ldr	r0, [sp, #12]
 1025 06e2 7721     		movs	r1, #119
 1026 06e4 7022     		movs	r2, #112
 1027 06e6 FFF7FEFF 		bl	_mmcsd_get_slice
 1028 06ea 0346     		mov	r3, r0
 1029 06ec DAB2     		uxtb	r2, r3
 1030 06ee 009B     		ldr	r3, [sp]
 1031 06f0 5A70     		strb	r2, [r3, #1]
 1032              		.loc 1 279 0
 1033 06f2 0398     		ldr	r0, [sp, #12]
 1034 06f4 0C21     		movs	r1, #12
 1035 06f6 0C22     		movs	r2, #12
 1036 06f8 FFF7FEFF 		bl	_mmcsd_get_slice
 1037 06fc 0346     		mov	r3, r0
 1038 06fe DAB2     		uxtb	r2, r3
 1039 0700 009B     		ldr	r3, [sp]
 1040 0702 5A77     		strb	r2, [r3, #29]
 1041              		.loc 1 280 0
 1042 0704 0398     		ldr	r0, [sp, #12]
 1043 0706 6721     		movs	r1, #103
 1044 0708 6022     		movs	r2, #96
 1045 070a FFF7FEFF 		bl	_mmcsd_get_slice
 1046 070e 0346     		mov	r3, r0
 1047 0710 DAB2     		uxtb	r2, r3
 1048 0712 009B     		ldr	r3, [sp]
 1049 0714 DA70     		strb	r2, [r3, #3]
 1050              		.loc 1 281 0
 1051 0716 0398     		ldr	r0, [sp, #12]
 1052 0718 1F21     		movs	r1, #31
 1053 071a 1F22     		movs	r2, #31
 1054 071c FFF7FEFF 		bl	_mmcsd_get_slice
 1055 0720 0346     		mov	r3, r0
 1056 0722 DAB2     		uxtb	r2, r3
 1057 0724 009B     		ldr	r3, [sp]
 1058 0726 9A75     		strb	r2, [r3, #22]
 1059              		.loc 1 282 0
 1060 0728 0398     		ldr	r0, [sp, #12]
 1061 072a 2621     		movs	r1, #38
 1062 072c 2022     		movs	r2, #32
 1063 072e FFF7FEFF 		bl	_mmcsd_get_slice
 1064 0732 0346     		mov	r3, r0
 1065 0734 DAB2     		uxtb	r2, r3
 1066 0736 009B     		ldr	r3, [sp]
 1067 0738 5A75     		strb	r2, [r3, #21]
 1068              		.loc 1 283 0
 1069 073a 0398     		ldr	r0, [sp, #12]
 1070 073c 1921     		movs	r1, #25
 1071 073e 0C22     		movs	r2, #12
 1072 0740 FFF7FEFF 		bl	_mmcsd_get_slice
 1073 0744 0346     		mov	r3, r0
 1074 0746 DAB2     		uxtb	r2, r3
 1075 0748 009B     		ldr	r3, [sp]
 1076 074a 1A76     		strb	r2, [r3, #24]
 1077              		.loc 1 284 0
 1078 074c 0398     		ldr	r0, [sp, #12]
 1079 074e 1521     		movs	r1, #21
ARM GAS  /tmp/cc24C8If.s 			page 20


 1080 0750 1522     		movs	r2, #21
 1081 0752 FFF7FEFF 		bl	_mmcsd_get_slice
 1082 0756 0346     		mov	r3, r0
 1083 0758 DAB2     		uxtb	r2, r3
 1084 075a 009B     		ldr	r3, [sp]
 1085 075c 5A76     		strb	r2, [r3, #25]
 1086              		.loc 1 285 0
 1087 075e 0398     		ldr	r0, [sp, #12]
 1088 0760 4E21     		movs	r1, #78
 1089 0762 4E22     		movs	r2, #78
 1090 0764 FFF7FEFF 		bl	_mmcsd_get_slice
 1091 0768 0346     		mov	r3, r0
 1092 076a DAB2     		uxtb	r2, r3
 1093 076c 009B     		ldr	r3, [sp]
 1094 076e 1A72     		strb	r2, [r3, #8]
 1095              		.loc 1 286 0
 1096 0770 05B0     		add	sp, sp, #20
 1097              		@ sp needed
 1098 0772 5DF804FB 		ldr	pc, [sp], #4
 1099              		.cfi_endproc
 1100              	.LFE273:
 1101              		.size	_mmcsd_unpack_csd_v10, .-_mmcsd_unpack_csd_v10
 1102 0776 00BF     		.align	2
 1103 0778 AFF30080 		.p2align 4,,15
 1103      AFF30080 
 1104              		.global	_mmcsd_unpack_csd_v20
 1105              		.thumb
 1106              		.thumb_func
 1107              		.type	_mmcsd_unpack_csd_v20, %function
 1108              	_mmcsd_unpack_csd_v20:
 1109              	.LFB274:
 1110              		.loc 1 297 0
 1111              		.cfi_startproc
 1112              		@ args = 0, pretend = 0, frame = 16
 1113              		@ frame_needed = 0, uses_anonymous_args = 0
 1114 0780 00B5     		push	{lr}
 1115              		.cfi_def_cfa_offset 4
 1116              		.cfi_offset 14, -4
 1117 0782 85B0     		sub	sp, sp, #20
 1118              		.cfi_def_cfa_offset 24
 1119 0784 0190     		str	r0, [sp, #4]
 1120 0786 0091     		str	r1, [sp]
 1121              		.loc 1 302 0
 1122 0788 019B     		ldr	r3, [sp, #4]
 1123 078a 1833     		adds	r3, r3, #24
 1124 078c 0393     		str	r3, [sp, #12]
 1125              		.loc 1 303 0
 1126 078e 0398     		ldr	r0, [sp, #12]
 1127 0790 4521     		movs	r1, #69
 1128 0792 3022     		movs	r2, #48
 1129 0794 FFF7FEFF 		bl	_mmcsd_get_slice
 1130 0798 0246     		mov	r2, r0
 1131 079a 009B     		ldr	r3, [sp]
 1132 079c DA60     		str	r2, [r3, #12]
 1133              		.loc 1 304 0
 1134 079e 0398     		ldr	r0, [sp, #12]
 1135 07a0 0721     		movs	r1, #7
ARM GAS  /tmp/cc24C8If.s 			page 21


 1136 07a2 0122     		movs	r2, #1
 1137 07a4 FFF7FEFF 		bl	_mmcsd_get_slice
 1138 07a8 0346     		mov	r3, r0
 1139 07aa DAB2     		uxtb	r2, r3
 1140 07ac 009B     		ldr	r3, [sp]
 1141 07ae 1A77     		strb	r2, [r3, #28]
 1142              		.loc 1 305 0
 1143 07b0 0398     		ldr	r0, [sp, #12]
 1144 07b2 5F21     		movs	r1, #95
 1145 07b4 5422     		movs	r2, #84
 1146 07b6 FFF7FEFF 		bl	_mmcsd_get_slice
 1147 07ba 0346     		mov	r3, r0
 1148 07bc 9AB2     		uxth	r2, r3
 1149 07be 009B     		ldr	r3, [sp]
 1150 07c0 9A80     		strh	r2, [r3, #4]	@ movhi
 1151              		.loc 1 306 0
 1152 07c2 0398     		ldr	r0, [sp, #12]
 1153 07c4 0E21     		movs	r1, #14
 1154 07c6 0E22     		movs	r2, #14
 1155 07c8 FFF7FEFF 		bl	_mmcsd_get_slice
 1156 07cc 0346     		mov	r3, r0
 1157 07ce DAB2     		uxtb	r2, r3
 1158 07d0 009B     		ldr	r3, [sp]
 1159 07d2 1A76     		strb	r2, [r3, #24]
 1160              		.loc 1 307 0
 1161 07d4 0398     		ldr	r0, [sp, #12]
 1162 07d6 7F21     		movs	r1, #127
 1163 07d8 7E22     		movs	r2, #126
 1164 07da FFF7FEFF 		bl	_mmcsd_get_slice
 1165 07de 0346     		mov	r3, r0
 1166 07e0 DAB2     		uxtb	r2, r3
 1167 07e2 009B     		ldr	r3, [sp]
 1168 07e4 1A70     		strb	r2, [r3]
 1169              		.loc 1 308 0
 1170 07e6 0398     		ldr	r0, [sp, #12]
 1171 07e8 4C21     		movs	r1, #76
 1172 07ea 4C22     		movs	r2, #76
 1173 07ec FFF7FEFF 		bl	_mmcsd_get_slice
 1174 07f0 0346     		mov	r3, r0
 1175 07f2 DAB2     		uxtb	r2, r3
 1176 07f4 009B     		ldr	r3, [sp]
 1177 07f6 9A72     		strb	r2, [r3, #10]
 1178              		.loc 1 309 0
 1179 07f8 0398     		ldr	r0, [sp, #12]
 1180 07fa 2E21     		movs	r1, #46
 1181 07fc 2E22     		movs	r2, #46
 1182 07fe FFF7FEFF 		bl	_mmcsd_get_slice
 1183 0802 0346     		mov	r3, r0
 1184 0804 DAB2     		uxtb	r2, r3
 1185 0806 009B     		ldr	r3, [sp]
 1186 0808 1A74     		strb	r2, [r3, #16]
 1187              		.loc 1 310 0
 1188 080a 0398     		ldr	r0, [sp, #12]
 1189 080c 0B21     		movs	r1, #11
 1190 080e 0A22     		movs	r2, #10
 1191 0810 FFF7FEFF 		bl	_mmcsd_get_slice
 1192 0814 0346     		mov	r3, r0
ARM GAS  /tmp/cc24C8If.s 			page 22


 1193 0816 DAB2     		uxtb	r2, r3
 1194 0818 009B     		ldr	r3, [sp]
 1195 081a DA76     		strb	r2, [r3, #27]
 1196              		.loc 1 311 0
 1197 081c 0398     		ldr	r0, [sp, #12]
 1198 081e 0F21     		movs	r1, #15
 1199 0820 0F22     		movs	r2, #15
 1200 0822 FFF7FEFF 		bl	_mmcsd_get_slice
 1201 0826 0346     		mov	r3, r0
 1202 0828 DAB2     		uxtb	r2, r3
 1203 082a 009B     		ldr	r3, [sp]
 1204 082c DA75     		strb	r2, [r3, #23]
 1205              		.loc 1 312 0
 1206 082e 0398     		ldr	r0, [sp, #12]
 1207 0830 6F21     		movs	r1, #111
 1208 0832 6822     		movs	r2, #104
 1209 0834 FFF7FEFF 		bl	_mmcsd_get_slice
 1210 0838 0346     		mov	r3, r0
 1211 083a DAB2     		uxtb	r2, r3
 1212 083c 009B     		ldr	r3, [sp]
 1213 083e 9A70     		strb	r2, [r3, #2]
 1214              		.loc 1 313 0
 1215 0840 0398     		ldr	r0, [sp, #12]
 1216 0842 0D21     		movs	r1, #13
 1217 0844 0D22     		movs	r2, #13
 1218 0846 FFF7FEFF 		bl	_mmcsd_get_slice
 1219 084a 0346     		mov	r3, r0
 1220 084c DAB2     		uxtb	r2, r3
 1221 084e 009B     		ldr	r3, [sp]
 1222 0850 5A76     		strb	r2, [r3, #25]
 1223              		.loc 1 314 0
 1224 0852 0398     		ldr	r0, [sp, #12]
 1225 0854 1C21     		movs	r1, #28
 1226 0856 1A22     		movs	r2, #26
 1227 0858 FFF7FEFF 		bl	_mmcsd_get_slice
 1228 085c 0346     		mov	r3, r0
 1229 085e DAB2     		uxtb	r2, r3
 1230 0860 009B     		ldr	r3, [sp]
 1231 0862 1A75     		strb	r2, [r3, #20]
 1232              		.loc 1 315 0
 1233 0864 0398     		ldr	r0, [sp, #12]
 1234 0866 5321     		movs	r1, #83
 1235 0868 5022     		movs	r2, #80
 1236 086a FFF7FEFF 		bl	_mmcsd_get_slice
 1237 086e 0346     		mov	r3, r0
 1238 0870 DAB2     		uxtb	r2, r3
 1239 0872 009B     		ldr	r3, [sp]
 1240 0874 9A71     		strb	r2, [r3, #6]
 1241              		.loc 1 316 0
 1242 0876 0398     		ldr	r0, [sp, #12]
 1243 0878 4F21     		movs	r1, #79
 1244 087a 4F22     		movs	r2, #79
 1245 087c FFF7FEFF 		bl	_mmcsd_get_slice
 1246 0880 0346     		mov	r3, r0
 1247 0882 DAB2     		uxtb	r2, r3
 1248 0884 009B     		ldr	r3, [sp]
 1249 0886 DA71     		strb	r2, [r3, #7]
ARM GAS  /tmp/cc24C8If.s 			page 23


 1250              		.loc 1 317 0
 1251 0888 0398     		ldr	r0, [sp, #12]
 1252 088a 4D21     		movs	r1, #77
 1253 088c 4D22     		movs	r2, #77
 1254 088e FFF7FEFF 		bl	_mmcsd_get_slice
 1255 0892 0346     		mov	r3, r0
 1256 0894 DAB2     		uxtb	r2, r3
 1257 0896 009B     		ldr	r3, [sp]
 1258 0898 5A72     		strb	r2, [r3, #9]
 1259              		.loc 1 318 0
 1260 089a 0398     		ldr	r0, [sp, #12]
 1261 089c 2D21     		movs	r1, #45
 1262 089e 2722     		movs	r2, #39
 1263 08a0 FFF7FEFF 		bl	_mmcsd_get_slice
 1264 08a4 0346     		mov	r3, r0
 1265 08a6 DAB2     		uxtb	r2, r3
 1266 08a8 009B     		ldr	r3, [sp]
 1267 08aa 5A74     		strb	r2, [r3, #17]
 1268              		.loc 1 319 0
 1269 08ac 0398     		ldr	r0, [sp, #12]
 1270 08ae 7721     		movs	r1, #119
 1271 08b0 7022     		movs	r2, #112
 1272 08b2 FFF7FEFF 		bl	_mmcsd_get_slice
 1273 08b6 0346     		mov	r3, r0
 1274 08b8 DAB2     		uxtb	r2, r3
 1275 08ba 009B     		ldr	r3, [sp]
 1276 08bc 5A70     		strb	r2, [r3, #1]
 1277              		.loc 1 320 0
 1278 08be 0398     		ldr	r0, [sp, #12]
 1279 08c0 0C21     		movs	r1, #12
 1280 08c2 0C22     		movs	r2, #12
 1281 08c4 FFF7FEFF 		bl	_mmcsd_get_slice
 1282 08c8 0346     		mov	r3, r0
 1283 08ca DAB2     		uxtb	r2, r3
 1284 08cc 009B     		ldr	r3, [sp]
 1285 08ce 9A76     		strb	r2, [r3, #26]
 1286              		.loc 1 321 0
 1287 08d0 0398     		ldr	r0, [sp, #12]
 1288 08d2 6721     		movs	r1, #103
 1289 08d4 6022     		movs	r2, #96
 1290 08d6 FFF7FEFF 		bl	_mmcsd_get_slice
 1291 08da 0346     		mov	r3, r0
 1292 08dc DAB2     		uxtb	r2, r3
 1293 08de 009B     		ldr	r3, [sp]
 1294 08e0 DA70     		strb	r2, [r3, #3]
 1295              		.loc 1 322 0
 1296 08e2 0398     		ldr	r0, [sp, #12]
 1297 08e4 1F21     		movs	r1, #31
 1298 08e6 1F22     		movs	r2, #31
 1299 08e8 FFF7FEFF 		bl	_mmcsd_get_slice
 1300 08ec 0346     		mov	r3, r0
 1301 08ee DAB2     		uxtb	r2, r3
 1302 08f0 009B     		ldr	r3, [sp]
 1303 08f2 DA74     		strb	r2, [r3, #19]
 1304              		.loc 1 323 0
 1305 08f4 0398     		ldr	r0, [sp, #12]
 1306 08f6 2621     		movs	r1, #38
ARM GAS  /tmp/cc24C8If.s 			page 24


 1307 08f8 2022     		movs	r2, #32
 1308 08fa FFF7FEFF 		bl	_mmcsd_get_slice
 1309 08fe 0346     		mov	r3, r0
 1310 0900 DAB2     		uxtb	r2, r3
 1311 0902 009B     		ldr	r3, [sp]
 1312 0904 9A74     		strb	r2, [r3, #18]
 1313              		.loc 1 324 0
 1314 0906 0398     		ldr	r0, [sp, #12]
 1315 0908 1921     		movs	r1, #25
 1316 090a 0C22     		movs	r2, #12
 1317 090c FFF7FEFF 		bl	_mmcsd_get_slice
 1318 0910 0346     		mov	r3, r0
 1319 0912 DAB2     		uxtb	r2, r3
 1320 0914 009B     		ldr	r3, [sp]
 1321 0916 5A75     		strb	r2, [r3, #21]
 1322              		.loc 1 325 0
 1323 0918 0398     		ldr	r0, [sp, #12]
 1324 091a 1521     		movs	r1, #21
 1325 091c 1522     		movs	r2, #21
 1326 091e FFF7FEFF 		bl	_mmcsd_get_slice
 1327 0922 0346     		mov	r3, r0
 1328 0924 DAB2     		uxtb	r2, r3
 1329 0926 009B     		ldr	r3, [sp]
 1330 0928 9A75     		strb	r2, [r3, #22]
 1331              		.loc 1 326 0
 1332 092a 0398     		ldr	r0, [sp, #12]
 1333 092c 4E21     		movs	r1, #78
 1334 092e 4E22     		movs	r2, #78
 1335 0930 FFF7FEFF 		bl	_mmcsd_get_slice
 1336 0934 0346     		mov	r3, r0
 1337 0936 DAB2     		uxtb	r2, r3
 1338 0938 009B     		ldr	r3, [sp]
 1339 093a 1A72     		strb	r2, [r3, #8]
 1340              		.loc 1 327 0
 1341 093c 05B0     		add	sp, sp, #20
 1342              		@ sp needed
 1343 093e 5DF804FB 		ldr	pc, [sp], #4
 1344              		.cfi_endproc
 1345              	.LFE274:
 1346              		.size	_mmcsd_unpack_csd_v20, .-_mmcsd_unpack_csd_v20
 1347              	.Letext0:
 1348              		.file 2 "/nfs/nfs5/home/research/hardware/arm2/gcc-arm-embedded/gcc-arm-none-eabi-4_8-2014q2/arm-n
 1349              		.file 3 "/nfs/nfs5/home/research/hardware/arm2/gcc-arm-embedded/gcc-arm-none-eabi-4_8-2014q2/arm-n
 1350              		.file 4 "../../ChibiOS/os/rt/ports/ARMCMx/compilers/GCC/chtypes.h"
 1351              		.file 5 "../../ChibiOS/os/rt/include/chsystypes.h"
 1352              		.file 6 "../../ChibiOS/os/rt/include/chschd.h"
 1353              		.file 7 "../../ChibiOS/os/rt/ports/ARMCMx/chcore.h"
 1354              		.file 8 "../../ChibiOS/os/rt/ports/ARMCMx/chcore_v7m.h"
 1355              		.file 9 "../../ChibiOS/os/rt/include/chtm.h"
 1356              		.file 10 "../../ChibiOS/os/rt/include/chsem.h"
 1357              		.file 11 "../../ChibiOS/os/rt/include/chmtx.h"
 1358              		.file 12 "../../ChibiOS/os/hal/include/hal_ioblock.h"
 1359              		.file 13 "../../ChibiOS/os/hal/include/hal_mmcsd.h"
 1360              		.file 14 "../../ChibiOS/os/ext/CMSIS/include/core_cm4.h"