ARM GAS  /tmp/ccRqzMr7.s 			page 1


   1              		.syntax unified
   2              		.cpu cortex-m4
   3              		.fpu softvfp
   4              		.eabi_attribute 20, 1
   5              		.eabi_attribute 21, 1
   6              		.eabi_attribute 23, 3
   7              		.eabi_attribute 24, 1
   8              		.eabi_attribute 25, 1
   9              		.eabi_attribute 26, 1
  10              		.eabi_attribute 30, 6
  11              		.eabi_attribute 34, 1
  12              		.eabi_attribute 18, 4
  13              		.thumb
  14              		.file	"hal_buffers.c"
  15              		.text
  16              	.Ltext0:
  17              		.cfi_sections	.debug_frame
  18              		.align	2
  19              		.p2align 4,,15
  20              		.thumb
  21              		.thumb_func
  22              		.type	port_lock, %function
  23              	port_lock:
  24              	.LFB127:
  25              		.file 1 "../../ChibiOS/os/rt/ports/ARMCMx/chcore_v7m.h"
  26              		.loc 1 456 0
  27              		.cfi_startproc
  28              		@ args = 0, pretend = 0, frame = 8
  29              		@ frame_needed = 0, uses_anonymous_args = 0
  30              		@ link register save eliminated.
  31 0000 82B0     		sub	sp, sp, #8
  32              		.cfi_def_cfa_offset 8
  33 0002 2023     		movs	r3, #32
  34 0004 0193     		str	r3, [sp, #4]
  35              	.LBB6:
  36              	.LBB7:
  37              		.file 2 "../../ChibiOS/os/ext/CMSIS/include/core_cmFunc.h"
  38              		.loc 2 548 0
  39 0006 019B     		ldr	r3, [sp, #4]
  40              	@ 548 "../../ChibiOS/os/ext/CMSIS/include/core_cmFunc.h" 1
  41 0008 83F31188 		MSR basepri, r3
  42              	@ 0 "" 2
  43              		.thumb
  44              	.LBE7:
  45              	.LBE6:
  46              		.loc 1 473 0
  47 000c 02B0     		add	sp, sp, #8
  48              		@ sp needed
  49 000e 7047     		bx	lr
  50              		.cfi_endproc
  51              	.LFE127:
  52              		.size	port_lock, .-port_lock
  53              		.align	2
  54              		.p2align 4,,15
  55              		.thumb
  56              		.thumb_func
  57              		.type	port_unlock, %function
ARM GAS  /tmp/ccRqzMr7.s 			page 2


  58              	port_unlock:
  59              	.LFB128:
  60              		.loc 1 480 0
  61              		.cfi_startproc
  62              		@ args = 0, pretend = 0, frame = 8
  63              		@ frame_needed = 0, uses_anonymous_args = 0
  64              		@ link register save eliminated.
  65 0010 82B0     		sub	sp, sp, #8
  66              		.cfi_def_cfa_offset 8
  67 0012 0023     		movs	r3, #0
  68 0014 0193     		str	r3, [sp, #4]
  69              	.LBB8:
  70              	.LBB9:
  71              		.loc 2 548 0
  72 0016 019B     		ldr	r3, [sp, #4]
  73              	@ 548 "../../ChibiOS/os/ext/CMSIS/include/core_cmFunc.h" 1
  74 0018 83F31188 		MSR basepri, r3
  75              	@ 0 "" 2
  76              		.thumb
  77              	.LBE9:
  78              	.LBE8:
  79              		.loc 1 487 0
  80 001c 02B0     		add	sp, sp, #8
  81              		@ sp needed
  82 001e 7047     		bx	lr
  83              		.cfi_endproc
  84              	.LFE128:
  85              		.size	port_unlock, .-port_unlock
  86              		.align	2
  87              		.p2align 4,,15
  88              		.thumb
  89              		.thumb_func
  90              		.type	queue_init, %function
  91              	queue_init:
  92              	.LFB139:
  93              		.file 3 "../../ChibiOS/os/rt/include/chschd.h"
  94              		.loc 3 602 0
  95              		.cfi_startproc
  96              		@ args = 0, pretend = 0, frame = 8
  97              		@ frame_needed = 0, uses_anonymous_args = 0
  98              		@ link register save eliminated.
  99 0020 82B0     		sub	sp, sp, #8
 100              		.cfi_def_cfa_offset 8
 101 0022 0190     		str	r0, [sp, #4]
 102              		.loc 3 604 0
 103 0024 019B     		ldr	r3, [sp, #4]
 104 0026 019A     		ldr	r2, [sp, #4]
 105 0028 1A60     		str	r2, [r3]
 106              		.loc 3 605 0
 107 002a 019B     		ldr	r3, [sp, #4]
 108 002c 019A     		ldr	r2, [sp, #4]
 109 002e 5A60     		str	r2, [r3, #4]
 110              		.loc 3 606 0
 111 0030 02B0     		add	sp, sp, #8
 112              		@ sp needed
 113 0032 7047     		bx	lr
 114              		.cfi_endproc
ARM GAS  /tmp/ccRqzMr7.s 			page 3


 115              	.LFE139:
 116              		.size	queue_init, .-queue_init
 117              		.align	2
 118 0034 AFF30080 		.p2align 4,,15
 118      AFF30080 
 118      AFF30080 
 119              		.thumb
 120              		.thumb_func
 121              		.type	chSysLock, %function
 122              	chSysLock:
 123              	.LFB156:
 124              		.file 4 "../../ChibiOS/os/rt/include/chsys.h"
 125              		.loc 4 346 0
 126              		.cfi_startproc
 127              		@ args = 0, pretend = 0, frame = 0
 128              		@ frame_needed = 0, uses_anonymous_args = 0
 129 0040 08B5     		push	{r3, lr}
 130              		.cfi_def_cfa_offset 8
 131              		.cfi_offset 3, -8
 132              		.cfi_offset 14, -4
 133              		.loc 4 348 0
 134 0042 FFF7DDFF 		bl	port_lock
 135              		.loc 4 351 0
 136 0046 08BD     		pop	{r3, pc}
 137              		.cfi_endproc
 138              	.LFE156:
 139              		.size	chSysLock, .-chSysLock
 140              		.align	2
 141 0048 AFF30080 		.p2align 4,,15
 141      AFF30080 
 142              		.thumb
 143              		.thumb_func
 144              		.type	chSysUnlock, %function
 145              	chSysUnlock:
 146              	.LFB157:
 147              		.loc 4 358 0
 148              		.cfi_startproc
 149              		@ args = 0, pretend = 0, frame = 0
 150              		@ frame_needed = 0, uses_anonymous_args = 0
 151 0050 08B5     		push	{r3, lr}
 152              		.cfi_def_cfa_offset 8
 153              		.cfi_offset 3, -8
 154              		.cfi_offset 14, -4
 155              		.loc 4 371 0
 156 0052 FFF7DDFF 		bl	port_unlock
 157              		.loc 4 372 0
 158 0056 08BD     		pop	{r3, pc}
 159              		.cfi_endproc
 160              	.LFE157:
 161              		.size	chSysUnlock, .-chSysUnlock
 162              		.align	2
 163 0058 AFF30080 		.p2align 4,,15
 163      AFF30080 
 164              		.thumb
 165              		.thumb_func
 166              		.type	chVTGetSystemTimeX, %function
 167              	chVTGetSystemTimeX:
ARM GAS  /tmp/ccRqzMr7.s 			page 4


 168              	.LFB164:
 169              		.file 5 "../../ChibiOS/os/rt/include/chvt.h"
 170              		.loc 5 228 0
 171              		.cfi_startproc
 172              		@ args = 0, pretend = 0, frame = 0
 173              		@ frame_needed = 0, uses_anonymous_args = 0
 174              		@ link register save eliminated.
 175              		.loc 5 231 0
 176 0060 014B     		ldr	r3, .L8
 177 0062 9B6A     		ldr	r3, [r3, #40]
 178              		.loc 5 235 0
 179 0064 1846     		mov	r0, r3
 180 0066 7047     		bx	lr
 181              	.L9:
 182              		.align	2
 183              	.L8:
 184 0068 00000000 		.word	ch
 185              		.cfi_endproc
 186              	.LFE164:
 187              		.size	chVTGetSystemTimeX, .-chVTGetSystemTimeX
 188              		.align	2
 189 006c AFF30080 		.p2align 4,,15
 190              		.thumb
 191              		.thumb_func
 192              		.type	chThdQueueObjectInit, %function
 193              	chThdQueueObjectInit:
 194              	.LFB184:
 195              		.file 6 "../../ChibiOS/os/rt/include/chthreads.h"
 196              		.loc 6 278 0
 197              		.cfi_startproc
 198              		@ args = 0, pretend = 0, frame = 8
 199              		@ frame_needed = 0, uses_anonymous_args = 0
 200 0070 00B5     		push	{lr}
 201              		.cfi_def_cfa_offset 4
 202              		.cfi_offset 14, -4
 203 0072 83B0     		sub	sp, sp, #12
 204              		.cfi_def_cfa_offset 16
 205 0074 0190     		str	r0, [sp, #4]
 206              		.loc 6 280 0
 207 0076 0198     		ldr	r0, [sp, #4]
 208 0078 FFF7D2FF 		bl	queue_init
 209              		.loc 6 281 0
 210 007c 03B0     		add	sp, sp, #12
 211              		@ sp needed
 212 007e 5DF804FB 		ldr	pc, [sp], #4
 213              		.cfi_endproc
 214              	.LFE184:
 215              		.size	chThdQueueObjectInit, .-chThdQueueObjectInit
 216 0082 00BF     		.align	2
 217 0084 AFF30080 		.p2align 4,,15
 217      AFF30080 
 217      AFF30080 
 218              		.thumb
 219              		.thumb_func
 220              		.type	osalSysLock, %function
 221              	osalSysLock:
 222              	.LFB234:
ARM GAS  /tmp/ccRqzMr7.s 			page 5


 223              		.file 7 "../../ChibiOS/os/hal/osal/rt/osal.h"
 224              		.loc 7 491 0
 225              		.cfi_startproc
 226              		@ args = 0, pretend = 0, frame = 0
 227              		@ frame_needed = 0, uses_anonymous_args = 0
 228 0090 08B5     		push	{r3, lr}
 229              		.cfi_def_cfa_offset 8
 230              		.cfi_offset 3, -8
 231              		.cfi_offset 14, -4
 232              		.loc 7 493 0
 233 0092 FFF7D5FF 		bl	chSysLock
 234              		.loc 7 494 0
 235 0096 08BD     		pop	{r3, pc}
 236              		.cfi_endproc
 237              	.LFE234:
 238              		.size	osalSysLock, .-osalSysLock
 239              		.align	2
 240 0098 AFF30080 		.p2align 4,,15
 240      AFF30080 
 241              		.thumb
 242              		.thumb_func
 243              		.type	osalSysUnlock, %function
 244              	osalSysUnlock:
 245              	.LFB235:
 246              		.loc 7 502 0
 247              		.cfi_startproc
 248              		@ args = 0, pretend = 0, frame = 0
 249              		@ frame_needed = 0, uses_anonymous_args = 0
 250 00a0 08B5     		push	{r3, lr}
 251              		.cfi_def_cfa_offset 8
 252              		.cfi_offset 3, -8
 253              		.cfi_offset 14, -4
 254              		.loc 7 504 0
 255 00a2 FFF7D5FF 		bl	chSysUnlock
 256              		.loc 7 505 0
 257 00a6 08BD     		pop	{r3, pc}
 258              		.cfi_endproc
 259              	.LFE235:
 260              		.size	osalSysUnlock, .-osalSysUnlock
 261              		.align	2
 262 00a8 AFF30080 		.p2align 4,,15
 262      AFF30080 
 263              		.thumb
 264              		.thumb_func
 265              		.type	osalOsGetSystemTimeX, %function
 266              	osalOsGetSystemTimeX:
 267              	.LFB243:
 268              		.loc 7 616 0
 269              		.cfi_startproc
 270              		@ args = 0, pretend = 0, frame = 0
 271              		@ frame_needed = 0, uses_anonymous_args = 0
 272 00b0 08B5     		push	{r3, lr}
 273              		.cfi_def_cfa_offset 8
 274              		.cfi_offset 3, -8
 275              		.cfi_offset 14, -4
 276              		.loc 7 618 0
 277 00b2 FFF7D5FF 		bl	chVTGetSystemTimeX
ARM GAS  /tmp/ccRqzMr7.s 			page 6


 278 00b6 0346     		mov	r3, r0
 279              		.loc 7 619 0
 280 00b8 1846     		mov	r0, r3
 281 00ba 08BD     		pop	{r3, pc}
 282              		.cfi_endproc
 283              	.LFE243:
 284              		.size	osalOsGetSystemTimeX, .-osalOsGetSystemTimeX
 285              		.align	2
 286 00bc AFF30080 		.p2align 4,,15
 287              		.thumb
 288              		.thumb_func
 289              		.type	osalThreadQueueObjectInit, %function
 290              	osalThreadQueueObjectInit:
 291              	.LFB251:
 292              		.loc 7 753 0
 293              		.cfi_startproc
 294              		@ args = 0, pretend = 0, frame = 8
 295              		@ frame_needed = 0, uses_anonymous_args = 0
 296 00c0 00B5     		push	{lr}
 297              		.cfi_def_cfa_offset 4
 298              		.cfi_offset 14, -4
 299 00c2 83B0     		sub	sp, sp, #12
 300              		.cfi_def_cfa_offset 16
 301 00c4 0190     		str	r0, [sp, #4]
 302              		.loc 7 755 0
 303 00c6 0198     		ldr	r0, [sp, #4]
 304 00c8 FFF7D2FF 		bl	chThdQueueObjectInit
 305              		.loc 7 756 0
 306 00cc 03B0     		add	sp, sp, #12
 307              		@ sp needed
 308 00ce 5DF804FB 		ldr	pc, [sp], #4
 309              		.cfi_endproc
 310              	.LFE251:
 311              		.size	osalThreadQueueObjectInit, .-osalThreadQueueObjectInit
 312 00d2 00BF     		.align	2
 313 00d4 AFF30080 		.p2align 4,,15
 313      AFF30080 
 313      AFF30080 
 314              		.thumb
 315              		.thumb_func
 316              		.type	osalThreadEnqueueTimeoutS, %function
 317              	osalThreadEnqueueTimeoutS:
 318              	.LFB252:
 319              		.loc 7 782 0
 320              		.cfi_startproc
 321              		@ args = 0, pretend = 0, frame = 8
 322              		@ frame_needed = 0, uses_anonymous_args = 0
 323 00e0 00B5     		push	{lr}
 324              		.cfi_def_cfa_offset 4
 325              		.cfi_offset 14, -4
 326 00e2 83B0     		sub	sp, sp, #12
 327              		.cfi_def_cfa_offset 16
 328 00e4 0190     		str	r0, [sp, #4]
 329 00e6 0091     		str	r1, [sp]
 330              		.loc 7 784 0
 331 00e8 0198     		ldr	r0, [sp, #4]
 332 00ea 0099     		ldr	r1, [sp]
ARM GAS  /tmp/ccRqzMr7.s 			page 7


 333 00ec FFF7FEFF 		bl	chThdEnqueueTimeoutS
 334 00f0 0346     		mov	r3, r0
 335              		.loc 7 785 0
 336 00f2 1846     		mov	r0, r3
 337 00f4 03B0     		add	sp, sp, #12
 338              		@ sp needed
 339 00f6 5DF804FB 		ldr	pc, [sp], #4
 340              		.cfi_endproc
 341              	.LFE252:
 342              		.size	osalThreadEnqueueTimeoutS, .-osalThreadEnqueueTimeoutS
 343 00fa 00BF     		.align	2
 344 00fc AFF30080 		.p2align 4,,15
 345              		.thumb
 346              		.thumb_func
 347              		.type	osalThreadDequeueNextI, %function
 348              	osalThreadDequeueNextI:
 349              	.LFB253:
 350              		.loc 7 795 0
 351              		.cfi_startproc
 352              		@ args = 0, pretend = 0, frame = 8
 353              		@ frame_needed = 0, uses_anonymous_args = 0
 354 0100 00B5     		push	{lr}
 355              		.cfi_def_cfa_offset 4
 356              		.cfi_offset 14, -4
 357 0102 83B0     		sub	sp, sp, #12
 358              		.cfi_def_cfa_offset 16
 359 0104 0190     		str	r0, [sp, #4]
 360 0106 0091     		str	r1, [sp]
 361              		.loc 7 797 0
 362 0108 0198     		ldr	r0, [sp, #4]
 363 010a 0099     		ldr	r1, [sp]
 364 010c FFF7FEFF 		bl	chThdDequeueNextI
 365              		.loc 7 798 0
 366 0110 03B0     		add	sp, sp, #12
 367              		@ sp needed
 368 0112 5DF804FB 		ldr	pc, [sp], #4
 369              		.cfi_endproc
 370              	.LFE253:
 371              		.size	osalThreadDequeueNextI, .-osalThreadDequeueNextI
 372 0116 00BF     		.align	2
 373 0118 AFF30080 		.p2align 4,,15
 373      AFF30080 
 374              		.thumb
 375              		.thumb_func
 376              		.type	osalThreadDequeueAllI, %function
 377              	osalThreadDequeueAllI:
 378              	.LFB254:
 379              		.loc 7 808 0
 380              		.cfi_startproc
 381              		@ args = 0, pretend = 0, frame = 8
 382              		@ frame_needed = 0, uses_anonymous_args = 0
 383 0120 00B5     		push	{lr}
 384              		.cfi_def_cfa_offset 4
 385              		.cfi_offset 14, -4
 386 0122 83B0     		sub	sp, sp, #12
 387              		.cfi_def_cfa_offset 16
 388 0124 0190     		str	r0, [sp, #4]
ARM GAS  /tmp/ccRqzMr7.s 			page 8


 389 0126 0091     		str	r1, [sp]
 390              		.loc 7 810 0
 391 0128 0198     		ldr	r0, [sp, #4]
 392 012a 0099     		ldr	r1, [sp]
 393 012c FFF7FEFF 		bl	chThdDequeueAllI
 394              		.loc 7 811 0
 395 0130 03B0     		add	sp, sp, #12
 396              		@ sp needed
 397 0132 5DF804FB 		ldr	pc, [sp], #4
 398              		.cfi_endproc
 399              	.LFE254:
 400              		.size	osalThreadDequeueAllI, .-osalThreadDequeueAllI
 401 0136 00BF     		.align	2
 402 0138 AFF30080 		.p2align 4,,15
 402      AFF30080 
 403              		.global	ibqObjectInit
 404              		.thumb
 405              		.thumb_func
 406              		.type	ibqObjectInit, %function
 407              	ibqObjectInit:
 408              	.LFB267:
 409              		.file 8 "../../ChibiOS/os/hal/src/hal_buffers.c"
 410              		.loc 8 77 0
 411              		.cfi_startproc
 412              		@ args = 8, pretend = 0, frame = 16
 413              		@ frame_needed = 0, uses_anonymous_args = 0
 414 0140 00B5     		push	{lr}
 415              		.cfi_def_cfa_offset 4
 416              		.cfi_offset 14, -4
 417 0142 85B0     		sub	sp, sp, #20
 418              		.cfi_def_cfa_offset 24
 419 0144 0390     		str	r0, [sp, #12]
 420 0146 0291     		str	r1, [sp, #8]
 421 0148 0192     		str	r2, [sp, #4]
 422 014a 0093     		str	r3, [sp]
 423              		.loc 8 81 0
 424 014c 039B     		ldr	r3, [sp, #12]
 425 014e 1846     		mov	r0, r3
 426 0150 FFF7B6FF 		bl	osalThreadQueueObjectInit
 427              		.loc 8 82 0
 428 0154 039B     		ldr	r3, [sp, #12]
 429 0156 0022     		movs	r2, #0
 430 0158 9A60     		str	r2, [r3, #8]
 431              		.loc 8 83 0
 432 015a 039B     		ldr	r3, [sp, #12]
 433 015c 029A     		ldr	r2, [sp, #8]
 434 015e 1A61     		str	r2, [r3, #16]
 435              		.loc 8 84 0
 436 0160 039B     		ldr	r3, [sp, #12]
 437 0162 029A     		ldr	r2, [sp, #8]
 438 0164 DA60     		str	r2, [r3, #12]
 439              		.loc 8 85 0
 440 0166 019B     		ldr	r3, [sp, #4]
 441 0168 0433     		adds	r3, r3, #4
 442 016a 009A     		ldr	r2, [sp]
 443 016c 02FB03F3 		mul	r3, r2, r3
 444 0170 029A     		ldr	r2, [sp, #8]
ARM GAS  /tmp/ccRqzMr7.s 			page 9


 445 0172 1A44     		add	r2, r2, r3
 446 0174 039B     		ldr	r3, [sp, #12]
 447 0176 5A61     		str	r2, [r3, #20]
 448              		.loc 8 86 0
 449 0178 019B     		ldr	r3, [sp, #4]
 450 017a 1A1D     		adds	r2, r3, #4
 451 017c 039B     		ldr	r3, [sp, #12]
 452 017e 9A61     		str	r2, [r3, #24]
 453              		.loc 8 87 0
 454 0180 039B     		ldr	r3, [sp, #12]
 455 0182 009A     		ldr	r2, [sp]
 456 0184 DA61     		str	r2, [r3, #28]
 457              		.loc 8 88 0
 458 0186 039B     		ldr	r3, [sp, #12]
 459 0188 029A     		ldr	r2, [sp, #8]
 460 018a 1A62     		str	r2, [r3, #32]
 461              		.loc 8 89 0
 462 018c 039B     		ldr	r3, [sp, #12]
 463 018e 0022     		movs	r2, #0
 464 0190 5A62     		str	r2, [r3, #36]
 465              		.loc 8 90 0
 466 0192 039B     		ldr	r3, [sp, #12]
 467 0194 0022     		movs	r2, #0
 468 0196 9A62     		str	r2, [r3, #40]
 469              		.loc 8 91 0
 470 0198 039B     		ldr	r3, [sp, #12]
 471 019a 069A     		ldr	r2, [sp, #24]
 472 019c DA62     		str	r2, [r3, #44]
 473              		.loc 8 92 0
 474 019e 039B     		ldr	r3, [sp, #12]
 475 01a0 079A     		ldr	r2, [sp, #28]
 476 01a2 1A63     		str	r2, [r3, #48]
 477              		.loc 8 93 0
 478 01a4 05B0     		add	sp, sp, #20
 479              		@ sp needed
 480 01a6 5DF804FB 		ldr	pc, [sp], #4
 481              		.cfi_endproc
 482              	.LFE267:
 483              		.size	ibqObjectInit, .-ibqObjectInit
 484 01aa 00BF     		.align	2
 485 01ac AFF30080 		.p2align 4,,15
 486              		.global	ibqResetI
 487              		.thumb
 488              		.thumb_func
 489              		.type	ibqResetI, %function
 490              	ibqResetI:
 491              	.LFB268:
 492              		.loc 8 106 0
 493              		.cfi_startproc
 494              		@ args = 0, pretend = 0, frame = 8
 495              		@ frame_needed = 0, uses_anonymous_args = 0
 496 01b0 00B5     		push	{lr}
 497              		.cfi_def_cfa_offset 4
 498              		.cfi_offset 14, -4
 499 01b2 83B0     		sub	sp, sp, #12
 500              		.cfi_def_cfa_offset 16
 501 01b4 0190     		str	r0, [sp, #4]
ARM GAS  /tmp/ccRqzMr7.s 			page 10


 502              		.loc 8 110 0
 503 01b6 019B     		ldr	r3, [sp, #4]
 504 01b8 0022     		movs	r2, #0
 505 01ba 9A60     		str	r2, [r3, #8]
 506              		.loc 8 111 0
 507 01bc 019B     		ldr	r3, [sp, #4]
 508 01be 1A6A     		ldr	r2, [r3, #32]
 509 01c0 019B     		ldr	r3, [sp, #4]
 510 01c2 1A61     		str	r2, [r3, #16]
 511              		.loc 8 112 0
 512 01c4 019B     		ldr	r3, [sp, #4]
 513 01c6 1A6A     		ldr	r2, [r3, #32]
 514 01c8 019B     		ldr	r3, [sp, #4]
 515 01ca DA60     		str	r2, [r3, #12]
 516              		.loc 8 113 0
 517 01cc 019B     		ldr	r3, [sp, #4]
 518 01ce 0022     		movs	r2, #0
 519 01d0 5A62     		str	r2, [r3, #36]
 520              		.loc 8 114 0
 521 01d2 019B     		ldr	r3, [sp, #4]
 522 01d4 0022     		movs	r2, #0
 523 01d6 9A62     		str	r2, [r3, #40]
 524              		.loc 8 115 0
 525 01d8 019B     		ldr	r3, [sp, #4]
 526 01da 1846     		mov	r0, r3
 527 01dc 6FF00101 		mvn	r1, #1
 528 01e0 FFF79EFF 		bl	osalThreadDequeueAllI
 529              		.loc 8 116 0
 530 01e4 03B0     		add	sp, sp, #12
 531              		@ sp needed
 532 01e6 5DF804FB 		ldr	pc, [sp], #4
 533              		.cfi_endproc
 534              	.LFE268:
 535              		.size	ibqResetI, .-ibqResetI
 536 01ea 00BF     		.align	2
 537 01ec AFF30080 		.p2align 4,,15
 538              		.global	ibqGetEmptyBufferI
 539              		.thumb
 540              		.thumb_func
 541              		.type	ibqGetEmptyBufferI, %function
 542              	ibqGetEmptyBufferI:
 543              	.LFB269:
 544              		.loc 8 128 0
 545              		.cfi_startproc
 546              		@ args = 0, pretend = 0, frame = 8
 547              		@ frame_needed = 0, uses_anonymous_args = 0
 548              		@ link register save eliminated.
 549 01f0 82B0     		sub	sp, sp, #8
 550              		.cfi_def_cfa_offset 8
 551 01f2 0190     		str	r0, [sp, #4]
 552              		.loc 8 132 0
 553 01f4 019B     		ldr	r3, [sp, #4]
 554 01f6 DA68     		ldr	r2, [r3, #12]
 555 01f8 019B     		ldr	r3, [sp, #4]
 556 01fa 1B69     		ldr	r3, [r3, #16]
 557 01fc 9A42     		cmp	r2, r3
 558 01fe 05D1     		bne	.L23
ARM GAS  /tmp/ccRqzMr7.s 			page 11


 559              		.loc 8 132 0 is_stmt 0 discriminator 1
 560 0200 019B     		ldr	r3, [sp, #4]
 561 0202 9B68     		ldr	r3, [r3, #8]
 562 0204 002B     		cmp	r3, #0
 563 0206 01D0     		beq	.L23
 564              		.loc 8 132 0 discriminator 3
 565 0208 0123     		movs	r3, #1
 566 020a 00E0     		b	.L24
 567              	.L23:
 568              		.loc 8 132 0 discriminator 2
 569 020c 0023     		movs	r3, #0
 570              	.L24:
 571              		.loc 8 132 0 discriminator 4
 572 020e 03F00103 		and	r3, r3, #1
 573 0212 DBB2     		uxtb	r3, r3
 574 0214 002B     		cmp	r3, #0
 575 0216 01D0     		beq	.L25
 576              		.loc 8 133 0 is_stmt 1
 577 0218 0023     		movs	r3, #0
 578 021a 02E0     		b	.L26
 579              	.L25:
 580              		.loc 8 136 0
 581 021c 019B     		ldr	r3, [sp, #4]
 582 021e DB68     		ldr	r3, [r3, #12]
 583 0220 0433     		adds	r3, r3, #4
 584              	.L26:
 585              		.loc 8 137 0
 586 0222 1846     		mov	r0, r3
 587 0224 02B0     		add	sp, sp, #8
 588              		@ sp needed
 589 0226 7047     		bx	lr
 590              		.cfi_endproc
 591              	.LFE269:
 592              		.size	ibqGetEmptyBufferI, .-ibqGetEmptyBufferI
 593              		.align	2
 594 0228 AFF30080 		.p2align 4,,15
 594      AFF30080 
 595              		.global	ibqPostFullBufferI
 596              		.thumb
 597              		.thumb_func
 598              		.type	ibqPostFullBufferI, %function
 599              	ibqPostFullBufferI:
 600              	.LFB270:
 601              		.loc 8 147 0
 602              		.cfi_startproc
 603              		@ args = 0, pretend = 0, frame = 8
 604              		@ frame_needed = 0, uses_anonymous_args = 0
 605 0230 00B5     		push	{lr}
 606              		.cfi_def_cfa_offset 4
 607              		.cfi_offset 14, -4
 608 0232 83B0     		sub	sp, sp, #12
 609              		.cfi_def_cfa_offset 16
 610 0234 0190     		str	r0, [sp, #4]
 611 0236 0091     		str	r1, [sp]
 612              		.loc 8 155 0
 613 0238 019B     		ldr	r3, [sp, #4]
 614 023a DB68     		ldr	r3, [r3, #12]
ARM GAS  /tmp/ccRqzMr7.s 			page 12


 615 023c 009A     		ldr	r2, [sp]
 616 023e 1A60     		str	r2, [r3]
 617              		.loc 8 158 0
 618 0240 019B     		ldr	r3, [sp, #4]
 619 0242 9B68     		ldr	r3, [r3, #8]
 620 0244 5A1C     		adds	r2, r3, #1
 621 0246 019B     		ldr	r3, [sp, #4]
 622 0248 9A60     		str	r2, [r3, #8]
 623              		.loc 8 159 0
 624 024a 019B     		ldr	r3, [sp, #4]
 625 024c DA68     		ldr	r2, [r3, #12]
 626 024e 019B     		ldr	r3, [sp, #4]
 627 0250 9B69     		ldr	r3, [r3, #24]
 628 0252 1A44     		add	r2, r2, r3
 629 0254 019B     		ldr	r3, [sp, #4]
 630 0256 DA60     		str	r2, [r3, #12]
 631              		.loc 8 160 0
 632 0258 019B     		ldr	r3, [sp, #4]
 633 025a DA68     		ldr	r2, [r3, #12]
 634 025c 019B     		ldr	r3, [sp, #4]
 635 025e 5B69     		ldr	r3, [r3, #20]
 636 0260 9A42     		cmp	r2, r3
 637 0262 03D3     		bcc	.L28
 638              		.loc 8 161 0
 639 0264 019B     		ldr	r3, [sp, #4]
 640 0266 1A6A     		ldr	r2, [r3, #32]
 641 0268 019B     		ldr	r3, [sp, #4]
 642 026a DA60     		str	r2, [r3, #12]
 643              	.L28:
 644              		.loc 8 165 0
 645 026c 019B     		ldr	r3, [sp, #4]
 646 026e 1846     		mov	r0, r3
 647 0270 0021     		movs	r1, #0
 648 0272 FFF745FF 		bl	osalThreadDequeueNextI
 649              		.loc 8 166 0
 650 0276 03B0     		add	sp, sp, #12
 651              		@ sp needed
 652 0278 5DF804FB 		ldr	pc, [sp], #4
 653              		.cfi_endproc
 654              	.LFE270:
 655              		.size	ibqPostFullBufferI, .-ibqPostFullBufferI
 656              		.align	2
 657 027c AFF30080 		.p2align 4,,15
 658              		.global	ibqGetFullBufferTimeout
 659              		.thumb
 660              		.thumb_func
 661              		.type	ibqGetFullBufferTimeout, %function
 662              	ibqGetFullBufferTimeout:
 663              	.LFB271:
 664              		.loc 8 189 0
 665              		.cfi_startproc
 666              		@ args = 0, pretend = 0, frame = 16
 667              		@ frame_needed = 0, uses_anonymous_args = 0
 668 0280 00B5     		push	{lr}
 669              		.cfi_def_cfa_offset 4
 670              		.cfi_offset 14, -4
 671 0282 85B0     		sub	sp, sp, #20
ARM GAS  /tmp/ccRqzMr7.s 			page 13


 672              		.cfi_def_cfa_offset 24
 673 0284 0190     		str	r0, [sp, #4]
 674 0286 0091     		str	r1, [sp]
 675              		.loc 8 192 0
 676 0288 FFF702FF 		bl	osalSysLock
 677              		.loc 8 193 0
 678 028c 0198     		ldr	r0, [sp, #4]
 679 028e 0099     		ldr	r1, [sp]
 680 0290 FFF7FEFF 		bl	ibqGetFullBufferTimeoutS
 681 0294 0390     		str	r0, [sp, #12]
 682              		.loc 8 194 0
 683 0296 FFF703FF 		bl	osalSysUnlock
 684              		.loc 8 196 0
 685 029a 039B     		ldr	r3, [sp, #12]
 686              		.loc 8 197 0
 687 029c 1846     		mov	r0, r3
 688 029e 05B0     		add	sp, sp, #20
 689              		@ sp needed
 690 02a0 5DF804FB 		ldr	pc, [sp], #4
 691              		.cfi_endproc
 692              	.LFE271:
 693              		.size	ibqGetFullBufferTimeout, .-ibqGetFullBufferTimeout
 694              		.align	2
 695 02a4 AFF30080 		.p2align 4,,15
 695      AFF30080 
 695      AFF30080 
 696              		.global	ibqGetFullBufferTimeoutS
 697              		.thumb
 698              		.thumb_func
 699              		.type	ibqGetFullBufferTimeoutS, %function
 700              	ibqGetFullBufferTimeoutS:
 701              	.LFB272:
 702              		.loc 8 220 0
 703              		.cfi_startproc
 704              		@ args = 0, pretend = 0, frame = 16
 705              		@ frame_needed = 0, uses_anonymous_args = 0
 706 02b0 00B5     		push	{lr}
 707              		.cfi_def_cfa_offset 4
 708              		.cfi_offset 14, -4
 709 02b2 85B0     		sub	sp, sp, #20
 710              		.cfi_def_cfa_offset 24
 711 02b4 0190     		str	r0, [sp, #4]
 712 02b6 0091     		str	r1, [sp]
 713              		.loc 8 224 0
 714 02b8 0AE0     		b	.L32
 715              	.L34:
 716              	.LBB10:
 717              		.loc 8 225 0
 718 02ba 019B     		ldr	r3, [sp, #4]
 719 02bc 1846     		mov	r0, r3
 720 02be 0099     		ldr	r1, [sp]
 721 02c0 FFF70EFF 		bl	osalThreadEnqueueTimeoutS
 722 02c4 0390     		str	r0, [sp, #12]
 723              		.loc 8 226 0
 724 02c6 039B     		ldr	r3, [sp, #12]
 725 02c8 002B     		cmp	r3, #0
 726 02ca 01DA     		bge	.L32
ARM GAS  /tmp/ccRqzMr7.s 			page 14


 727              		.loc 8 227 0
 728 02cc 039B     		ldr	r3, [sp, #12]
 729 02ce 11E0     		b	.L33
 730              	.L32:
 731              	.LBE10:
 732              		.loc 8 224 0 discriminator 1
 733 02d0 019B     		ldr	r3, [sp, #4]
 734 02d2 9B68     		ldr	r3, [r3, #8]
 735 02d4 002B     		cmp	r3, #0
 736 02d6 F0D0     		beq	.L34
 737              		.loc 8 234 0
 738 02d8 019B     		ldr	r3, [sp, #4]
 739 02da 1B69     		ldr	r3, [r3, #16]
 740 02dc 1A1D     		adds	r2, r3, #4
 741 02de 019B     		ldr	r3, [sp, #4]
 742 02e0 5A62     		str	r2, [r3, #36]
 743              		.loc 8 235 0
 744 02e2 019B     		ldr	r3, [sp, #4]
 745 02e4 5A6A     		ldr	r2, [r3, #36]
 746 02e6 019B     		ldr	r3, [sp, #4]
 747 02e8 1B69     		ldr	r3, [r3, #16]
 748 02ea 1B68     		ldr	r3, [r3]
 749 02ec 1A44     		add	r2, r2, r3
 750 02ee 019B     		ldr	r3, [sp, #4]
 751 02f0 9A62     		str	r2, [r3, #40]
 752              		.loc 8 237 0
 753 02f2 0023     		movs	r3, #0
 754              	.L33:
 755              		.loc 8 238 0
 756 02f4 1846     		mov	r0, r3
 757 02f6 05B0     		add	sp, sp, #20
 758              		@ sp needed
 759 02f8 5DF804FB 		ldr	pc, [sp], #4
 760              		.cfi_endproc
 761              	.LFE272:
 762              		.size	ibqGetFullBufferTimeoutS, .-ibqGetFullBufferTimeoutS
 763              		.align	2
 764 02fc AFF30080 		.p2align 4,,15
 765              		.global	ibqReleaseEmptyBuffer
 766              		.thumb
 767              		.thumb_func
 768              		.type	ibqReleaseEmptyBuffer, %function
 769              	ibqReleaseEmptyBuffer:
 770              	.LFB273:
 771              		.loc 8 248 0
 772              		.cfi_startproc
 773              		@ args = 0, pretend = 0, frame = 8
 774              		@ frame_needed = 0, uses_anonymous_args = 0
 775 0300 00B5     		push	{lr}
 776              		.cfi_def_cfa_offset 4
 777              		.cfi_offset 14, -4
 778 0302 83B0     		sub	sp, sp, #12
 779              		.cfi_def_cfa_offset 16
 780 0304 0190     		str	r0, [sp, #4]
 781              		.loc 8 250 0
 782 0306 FFF7C3FE 		bl	osalSysLock
 783              		.loc 8 251 0
ARM GAS  /tmp/ccRqzMr7.s 			page 15


 784 030a 0198     		ldr	r0, [sp, #4]
 785 030c FFF7FEFF 		bl	ibqReleaseEmptyBufferS
 786              		.loc 8 252 0
 787 0310 FFF7C6FE 		bl	osalSysUnlock
 788              		.loc 8 253 0
 789 0314 03B0     		add	sp, sp, #12
 790              		@ sp needed
 791 0316 5DF804FB 		ldr	pc, [sp], #4
 792              		.cfi_endproc
 793              	.LFE273:
 794              		.size	ibqReleaseEmptyBuffer, .-ibqReleaseEmptyBuffer
 795 031a 00BF     		.align	2
 796 031c AFF30080 		.p2align 4,,15
 797              		.global	ibqReleaseEmptyBufferS
 798              		.thumb
 799              		.thumb_func
 800              		.type	ibqReleaseEmptyBufferS, %function
 801              	ibqReleaseEmptyBufferS:
 802              	.LFB274:
 803              		.loc 8 263 0
 804              		.cfi_startproc
 805              		@ args = 0, pretend = 0, frame = 8
 806              		@ frame_needed = 0, uses_anonymous_args = 0
 807 0320 00B5     		push	{lr}
 808              		.cfi_def_cfa_offset 4
 809              		.cfi_offset 14, -4
 810 0322 83B0     		sub	sp, sp, #12
 811              		.cfi_def_cfa_offset 16
 812 0324 0190     		str	r0, [sp, #4]
 813              		.loc 8 269 0
 814 0326 019B     		ldr	r3, [sp, #4]
 815 0328 9B68     		ldr	r3, [r3, #8]
 816 032a 5A1E     		subs	r2, r3, #1
 817 032c 019B     		ldr	r3, [sp, #4]
 818 032e 9A60     		str	r2, [r3, #8]
 819              		.loc 8 270 0
 820 0330 019B     		ldr	r3, [sp, #4]
 821 0332 1A69     		ldr	r2, [r3, #16]
 822 0334 019B     		ldr	r3, [sp, #4]
 823 0336 9B69     		ldr	r3, [r3, #24]
 824 0338 1A44     		add	r2, r2, r3
 825 033a 019B     		ldr	r3, [sp, #4]
 826 033c 1A61     		str	r2, [r3, #16]
 827              		.loc 8 271 0
 828 033e 019B     		ldr	r3, [sp, #4]
 829 0340 1A69     		ldr	r2, [r3, #16]
 830 0342 019B     		ldr	r3, [sp, #4]
 831 0344 5B69     		ldr	r3, [r3, #20]
 832 0346 9A42     		cmp	r2, r3
 833 0348 03D3     		bcc	.L37
 834              		.loc 8 272 0
 835 034a 019B     		ldr	r3, [sp, #4]
 836 034c 1A6A     		ldr	r2, [r3, #32]
 837 034e 019B     		ldr	r3, [sp, #4]
 838 0350 1A61     		str	r2, [r3, #16]
 839              	.L37:
 840              		.loc 8 276 0
ARM GAS  /tmp/ccRqzMr7.s 			page 16


 841 0352 019B     		ldr	r3, [sp, #4]
 842 0354 0022     		movs	r2, #0
 843 0356 5A62     		str	r2, [r3, #36]
 844              		.loc 8 279 0
 845 0358 019B     		ldr	r3, [sp, #4]
 846 035a DB6A     		ldr	r3, [r3, #44]
 847 035c 002B     		cmp	r3, #0
 848 035e 03D0     		beq	.L36
 849              		.loc 8 280 0
 850 0360 019B     		ldr	r3, [sp, #4]
 851 0362 DB6A     		ldr	r3, [r3, #44]
 852 0364 0198     		ldr	r0, [sp, #4]
 853 0366 9847     		blx	r3
 854              	.L36:
 855              		.loc 8 282 0
 856 0368 03B0     		add	sp, sp, #12
 857              		@ sp needed
 858 036a 5DF804FB 		ldr	pc, [sp], #4
 859              		.cfi_endproc
 860              	.LFE274:
 861              		.size	ibqReleaseEmptyBufferS, .-ibqReleaseEmptyBufferS
 862 036e 00BF     		.align	2
 863              		.p2align 4,,15
 864              		.global	ibqGetTimeout
 865              		.thumb
 866              		.thumb_func
 867              		.type	ibqGetTimeout, %function
 868              	ibqGetTimeout:
 869              	.LFB275:
 870              		.loc 8 302 0
 871              		.cfi_startproc
 872              		@ args = 0, pretend = 0, frame = 16
 873              		@ frame_needed = 0, uses_anonymous_args = 0
 874 0370 00B5     		push	{lr}
 875              		.cfi_def_cfa_offset 4
 876              		.cfi_offset 14, -4
 877 0372 85B0     		sub	sp, sp, #20
 878              		.cfi_def_cfa_offset 24
 879 0374 0190     		str	r0, [sp, #4]
 880 0376 0091     		str	r1, [sp]
 881              		.loc 8 305 0
 882 0378 FFF78AFE 		bl	osalSysLock
 883              		.loc 8 308 0
 884 037c 019B     		ldr	r3, [sp, #4]
 885 037e 5B6A     		ldr	r3, [r3, #36]
 886 0380 002B     		cmp	r3, #0
 887 0382 0BD1     		bne	.L40
 888              		.loc 8 309 0
 889 0384 0198     		ldr	r0, [sp, #4]
 890 0386 0099     		ldr	r1, [sp]
 891 0388 FFF7FEFF 		bl	ibqGetFullBufferTimeoutS
 892 038c 0390     		str	r0, [sp, #12]
 893              		.loc 8 310 0
 894 038e 039B     		ldr	r3, [sp, #12]
 895 0390 002B     		cmp	r3, #0
 896 0392 03D0     		beq	.L40
 897              		.loc 8 311 0
ARM GAS  /tmp/ccRqzMr7.s 			page 17


 898 0394 FFF784FE 		bl	osalSysUnlock
 899              		.loc 8 312 0
 900 0398 039B     		ldr	r3, [sp, #12]
 901 039a 14E0     		b	.L41
 902              	.L40:
 903              		.loc 8 317 0
 904 039c 019B     		ldr	r3, [sp, #4]
 905 039e 5B6A     		ldr	r3, [r3, #36]
 906 03a0 1B78     		ldrb	r3, [r3]	@ zero_extendqisi2
 907 03a2 0393     		str	r3, [sp, #12]
 908              		.loc 8 318 0
 909 03a4 019B     		ldr	r3, [sp, #4]
 910 03a6 5B6A     		ldr	r3, [r3, #36]
 911 03a8 5A1C     		adds	r2, r3, #1
 912 03aa 019B     		ldr	r3, [sp, #4]
 913 03ac 5A62     		str	r2, [r3, #36]
 914              		.loc 8 322 0
 915 03ae 019B     		ldr	r3, [sp, #4]
 916 03b0 5A6A     		ldr	r2, [r3, #36]
 917 03b2 019B     		ldr	r3, [sp, #4]
 918 03b4 9B6A     		ldr	r3, [r3, #40]
 919 03b6 9A42     		cmp	r2, r3
 920 03b8 02D3     		bcc	.L42
 921              		.loc 8 323 0
 922 03ba 0198     		ldr	r0, [sp, #4]
 923 03bc FFF7FEFF 		bl	ibqReleaseEmptyBufferS
 924              	.L42:
 925              		.loc 8 326 0
 926 03c0 FFF76EFE 		bl	osalSysUnlock
 927              		.loc 8 327 0
 928 03c4 039B     		ldr	r3, [sp, #12]
 929              	.L41:
 930              		.loc 8 328 0
 931 03c6 1846     		mov	r0, r3
 932 03c8 05B0     		add	sp, sp, #20
 933              		@ sp needed
 934 03ca 5DF804FB 		ldr	pc, [sp], #4
 935              		.cfi_endproc
 936              	.LFE275:
 937              		.size	ibqGetTimeout, .-ibqGetTimeout
 938 03ce 00BF     		.align	2
 939              		.p2align 4,,15
 940              		.global	ibqReadTimeout
 941              		.thumb
 942              		.thumb_func
 943              		.type	ibqReadTimeout, %function
 944              	ibqReadTimeout:
 945              	.LFB276:
 946              		.loc 8 352 0
 947              		.cfi_startproc
 948              		@ args = 0, pretend = 0, frame = 40
 949              		@ frame_needed = 0, uses_anonymous_args = 0
 950 03d0 00B5     		push	{lr}
 951              		.cfi_def_cfa_offset 4
 952              		.cfi_offset 14, -4
 953 03d2 8BB0     		sub	sp, sp, #44
 954              		.cfi_def_cfa_offset 48
ARM GAS  /tmp/ccRqzMr7.s 			page 18


 955 03d4 0390     		str	r0, [sp, #12]
 956 03d6 0291     		str	r1, [sp, #8]
 957 03d8 0192     		str	r2, [sp, #4]
 958 03da 0093     		str	r3, [sp]
 959              		.loc 8 353 0
 960 03dc 0023     		movs	r3, #0
 961 03de 0993     		str	r3, [sp, #36]
 962              		.loc 8 356 0
 963 03e0 FFF756FE 		bl	osalSysLock
 964              		.loc 8 359 0
 965 03e4 FFF764FE 		bl	osalOsGetSystemTimeX
 966 03e8 0246     		mov	r2, r0
 967 03ea 009B     		ldr	r3, [sp]
 968 03ec 1344     		add	r3, r3, r2
 969 03ee 0693     		str	r3, [sp, #24]
 970              	.L55:
 971              	.LBB11:
 972              		.loc 8 365 0
 973 03f0 039B     		ldr	r3, [sp, #12]
 974 03f2 5B6A     		ldr	r3, [r3, #36]
 975 03f4 002B     		cmp	r3, #0
 976 03f6 26D1     		bne	.L44
 977              	.LBB12:
 978              		.loc 8 370 0
 979 03f8 009B     		ldr	r3, [sp]
 980 03fa B3F1FF3F 		cmp	r3, #-1
 981 03fe 02D0     		beq	.L45
 982              		.loc 8 370 0 is_stmt 0 discriminator 1
 983 0400 009B     		ldr	r3, [sp]
 984 0402 002B     		cmp	r3, #0
 985 0404 05D1     		bne	.L46
 986              	.L45:
 987              		.loc 8 371 0 is_stmt 1
 988 0406 0398     		ldr	r0, [sp, #12]
 989 0408 0099     		ldr	r1, [sp]
 990 040a FFF7FEFF 		bl	ibqGetFullBufferTimeoutS
 991 040e 0790     		str	r0, [sp, #28]
 992 0410 12E0     		b	.L47
 993              	.L46:
 994              	.LBB13:
 995              		.loc 8 374 0
 996 0412 FFF74DFE 		bl	osalOsGetSystemTimeX
 997 0416 0346     		mov	r3, r0
 998 0418 069A     		ldr	r2, [sp, #24]
 999 041a D31A     		subs	r3, r2, r3
 1000 041c 0593     		str	r3, [sp, #20]
 1001              		.loc 8 379 0
 1002 041e 059A     		ldr	r2, [sp, #20]
 1003 0420 009B     		ldr	r3, [sp]
 1004 0422 9A42     		cmp	r2, r3
 1005 0424 03D9     		bls	.L48
 1006              		.loc 8 380 0
 1007 0426 FFF73BFE 		bl	osalSysUnlock
 1008              		.loc 8 381 0
 1009 042a 099B     		ldr	r3, [sp, #36]
 1010 042c 5CE0     		b	.L49
 1011              	.L48:
ARM GAS  /tmp/ccRqzMr7.s 			page 19


 1012              		.loc 8 383 0
 1013 042e 0398     		ldr	r0, [sp, #12]
 1014 0430 0599     		ldr	r1, [sp, #20]
 1015 0432 FFF7FEFF 		bl	ibqGetFullBufferTimeoutS
 1016 0436 0790     		str	r0, [sp, #28]
 1017              	.L47:
 1018              	.LBE13:
 1019              		.loc 8 387 0
 1020 0438 079B     		ldr	r3, [sp, #28]
 1021 043a 002B     		cmp	r3, #0
 1022 043c 03D0     		beq	.L44
 1023              		.loc 8 388 0
 1024 043e FFF72FFE 		bl	osalSysUnlock
 1025              		.loc 8 389 0
 1026 0442 099B     		ldr	r3, [sp, #36]
 1027 0444 50E0     		b	.L49
 1028              	.L44:
 1029              	.LBE12:
 1030              		.loc 8 394 0
 1031 0446 039B     		ldr	r3, [sp, #12]
 1032 0448 9B6A     		ldr	r3, [r3, #40]
 1033 044a 1A46     		mov	r2, r3
 1034 044c 039B     		ldr	r3, [sp, #12]
 1035 044e 5B6A     		ldr	r3, [r3, #36]
 1036 0450 D31A     		subs	r3, r2, r3
 1037 0452 0893     		str	r3, [sp, #32]
 1038              		.loc 8 395 0
 1039 0454 019A     		ldr	r2, [sp, #4]
 1040 0456 099B     		ldr	r3, [sp, #36]
 1041 0458 D21A     		subs	r2, r2, r3
 1042 045a 089B     		ldr	r3, [sp, #32]
 1043 045c 9A42     		cmp	r2, r3
 1044 045e 03D2     		bcs	.L50
 1045              		.loc 8 396 0
 1046 0460 019A     		ldr	r2, [sp, #4]
 1047 0462 099B     		ldr	r3, [sp, #36]
 1048 0464 D31A     		subs	r3, r2, r3
 1049 0466 0893     		str	r3, [sp, #32]
 1050              	.L50:
 1051              		.loc 8 401 0
 1052 0468 089B     		ldr	r3, [sp, #32]
 1053 046a 402B     		cmp	r3, #64
 1054 046c 13D9     		bls	.L51
 1055              		.loc 8 403 0
 1056 046e 039B     		ldr	r3, [sp, #12]
 1057 0470 5B6A     		ldr	r3, [r3, #36]
 1058 0472 0298     		ldr	r0, [sp, #8]
 1059 0474 1946     		mov	r1, r3
 1060 0476 4022     		movs	r2, #64
 1061 0478 FFF7FEFF 		bl	memcpy
 1062              		.loc 8 404 0
 1063 047c 029B     		ldr	r3, [sp, #8]
 1064 047e 4033     		adds	r3, r3, #64
 1065 0480 0293     		str	r3, [sp, #8]
 1066              		.loc 8 405 0
 1067 0482 039B     		ldr	r3, [sp, #12]
 1068 0484 5B6A     		ldr	r3, [r3, #36]
ARM GAS  /tmp/ccRqzMr7.s 			page 20


 1069 0486 03F14002 		add	r2, r3, #64
 1070 048a 039B     		ldr	r3, [sp, #12]
 1071 048c 5A62     		str	r2, [r3, #36]
 1072              		.loc 8 406 0
 1073 048e 099B     		ldr	r3, [sp, #36]
 1074 0490 4033     		adds	r3, r3, #64
 1075 0492 0993     		str	r3, [sp, #36]
 1076 0494 14E0     		b	.L52
 1077              	.L51:
 1078              		.loc 8 409 0
 1079 0496 039B     		ldr	r3, [sp, #12]
 1080 0498 5B6A     		ldr	r3, [r3, #36]
 1081 049a 0298     		ldr	r0, [sp, #8]
 1082 049c 1946     		mov	r1, r3
 1083 049e 089A     		ldr	r2, [sp, #32]
 1084 04a0 FFF7FEFF 		bl	memcpy
 1085              		.loc 8 410 0
 1086 04a4 029A     		ldr	r2, [sp, #8]
 1087 04a6 089B     		ldr	r3, [sp, #32]
 1088 04a8 1344     		add	r3, r3, r2
 1089 04aa 0293     		str	r3, [sp, #8]
 1090              		.loc 8 411 0
 1091 04ac 039B     		ldr	r3, [sp, #12]
 1092 04ae 5A6A     		ldr	r2, [r3, #36]
 1093 04b0 089B     		ldr	r3, [sp, #32]
 1094 04b2 1A44     		add	r2, r2, r3
 1095 04b4 039B     		ldr	r3, [sp, #12]
 1096 04b6 5A62     		str	r2, [r3, #36]
 1097              		.loc 8 412 0
 1098 04b8 099A     		ldr	r2, [sp, #36]
 1099 04ba 089B     		ldr	r3, [sp, #32]
 1100 04bc 1344     		add	r3, r3, r2
 1101 04be 0993     		str	r3, [sp, #36]
 1102              	.L52:
 1103              		.loc 8 416 0
 1104 04c0 039B     		ldr	r3, [sp, #12]
 1105 04c2 5A6A     		ldr	r2, [r3, #36]
 1106 04c4 039B     		ldr	r3, [sp, #12]
 1107 04c6 9B6A     		ldr	r3, [r3, #40]
 1108 04c8 9A42     		cmp	r2, r3
 1109 04ca 02D3     		bcc	.L53
 1110              		.loc 8 417 0
 1111 04cc 0398     		ldr	r0, [sp, #12]
 1112 04ce FFF7FEFF 		bl	ibqReleaseEmptyBufferS
 1113              	.L53:
 1114              		.loc 8 421 0
 1115 04d2 FFF7E5FD 		bl	osalSysUnlock
 1116              		.loc 8 422 0
 1117 04d6 099A     		ldr	r2, [sp, #36]
 1118 04d8 019B     		ldr	r3, [sp, #4]
 1119 04da 9A42     		cmp	r2, r3
 1120 04dc 01D3     		bcc	.L54
 1121              		.loc 8 423 0
 1122 04de 099B     		ldr	r3, [sp, #36]
 1123 04e0 02E0     		b	.L49
 1124              	.L54:
 1125              		.loc 8 425 0
ARM GAS  /tmp/ccRqzMr7.s 			page 21


 1126 04e2 FFF7D5FD 		bl	osalSysLock
 1127              	.LBE11:
 1128              		.loc 8 426 0
 1129 04e6 83E7     		b	.L55
 1130              	.L49:
 1131              		.loc 8 427 0
 1132 04e8 1846     		mov	r0, r3
 1133 04ea 0BB0     		add	sp, sp, #44
 1134              		@ sp needed
 1135 04ec 5DF804FB 		ldr	pc, [sp], #4
 1136              		.cfi_endproc
 1137              	.LFE276:
 1138              		.size	ibqReadTimeout, .-ibqReadTimeout
 1139              		.align	2
 1140              		.p2align 4,,15
 1141              		.global	obqObjectInit
 1142              		.thumb
 1143              		.thumb_func
 1144              		.type	obqObjectInit, %function
 1145              	obqObjectInit:
 1146              	.LFB277:
 1147              		.loc 8 443 0
 1148              		.cfi_startproc
 1149              		@ args = 8, pretend = 0, frame = 16
 1150              		@ frame_needed = 0, uses_anonymous_args = 0
 1151 04f0 00B5     		push	{lr}
 1152              		.cfi_def_cfa_offset 4
 1153              		.cfi_offset 14, -4
 1154 04f2 85B0     		sub	sp, sp, #20
 1155              		.cfi_def_cfa_offset 24
 1156 04f4 0390     		str	r0, [sp, #12]
 1157 04f6 0291     		str	r1, [sp, #8]
 1158 04f8 0192     		str	r2, [sp, #4]
 1159 04fa 0093     		str	r3, [sp]
 1160              		.loc 8 447 0
 1161 04fc 039B     		ldr	r3, [sp, #12]
 1162 04fe 1846     		mov	r0, r3
 1163 0500 FFF7DEFD 		bl	osalThreadQueueObjectInit
 1164              		.loc 8 448 0
 1165 0504 039B     		ldr	r3, [sp, #12]
 1166 0506 009A     		ldr	r2, [sp]
 1167 0508 9A60     		str	r2, [r3, #8]
 1168              		.loc 8 449 0
 1169 050a 039B     		ldr	r3, [sp, #12]
 1170 050c 029A     		ldr	r2, [sp, #8]
 1171 050e 1A61     		str	r2, [r3, #16]
 1172              		.loc 8 450 0
 1173 0510 039B     		ldr	r3, [sp, #12]
 1174 0512 029A     		ldr	r2, [sp, #8]
 1175 0514 DA60     		str	r2, [r3, #12]
 1176              		.loc 8 451 0
 1177 0516 019B     		ldr	r3, [sp, #4]
 1178 0518 0433     		adds	r3, r3, #4
 1179 051a 009A     		ldr	r2, [sp]
 1180 051c 02FB03F3 		mul	r3, r2, r3
 1181 0520 029A     		ldr	r2, [sp, #8]
 1182 0522 1A44     		add	r2, r2, r3
ARM GAS  /tmp/ccRqzMr7.s 			page 22


 1183 0524 039B     		ldr	r3, [sp, #12]
 1184 0526 5A61     		str	r2, [r3, #20]
 1185              		.loc 8 452 0
 1186 0528 019B     		ldr	r3, [sp, #4]
 1187 052a 1A1D     		adds	r2, r3, #4
 1188 052c 039B     		ldr	r3, [sp, #12]
 1189 052e 9A61     		str	r2, [r3, #24]
 1190              		.loc 8 453 0
 1191 0530 039B     		ldr	r3, [sp, #12]
 1192 0532 009A     		ldr	r2, [sp]
 1193 0534 DA61     		str	r2, [r3, #28]
 1194              		.loc 8 454 0
 1195 0536 039B     		ldr	r3, [sp, #12]
 1196 0538 029A     		ldr	r2, [sp, #8]
 1197 053a 1A62     		str	r2, [r3, #32]
 1198              		.loc 8 455 0
 1199 053c 039B     		ldr	r3, [sp, #12]
 1200 053e 0022     		movs	r2, #0
 1201 0540 5A62     		str	r2, [r3, #36]
 1202              		.loc 8 456 0
 1203 0542 039B     		ldr	r3, [sp, #12]
 1204 0544 0022     		movs	r2, #0
 1205 0546 9A62     		str	r2, [r3, #40]
 1206              		.loc 8 457 0
 1207 0548 039B     		ldr	r3, [sp, #12]
 1208 054a 069A     		ldr	r2, [sp, #24]
 1209 054c DA62     		str	r2, [r3, #44]
 1210              		.loc 8 458 0
 1211 054e 039B     		ldr	r3, [sp, #12]
 1212 0550 079A     		ldr	r2, [sp, #28]
 1213 0552 1A63     		str	r2, [r3, #48]
 1214              		.loc 8 459 0
 1215 0554 05B0     		add	sp, sp, #20
 1216              		@ sp needed
 1217 0556 5DF804FB 		ldr	pc, [sp], #4
 1218              		.cfi_endproc
 1219              	.LFE277:
 1220              		.size	obqObjectInit, .-obqObjectInit
 1221 055a 00BF     		.align	2
 1222 055c AFF30080 		.p2align 4,,15
 1223              		.global	obqResetI
 1224              		.thumb
 1225              		.thumb_func
 1226              		.type	obqResetI, %function
 1227              	obqResetI:
 1228              	.LFB278:
 1229              		.loc 8 472 0
 1230              		.cfi_startproc
 1231              		@ args = 0, pretend = 0, frame = 8
 1232              		@ frame_needed = 0, uses_anonymous_args = 0
 1233 0560 00B5     		push	{lr}
 1234              		.cfi_def_cfa_offset 4
 1235              		.cfi_offset 14, -4
 1236 0562 83B0     		sub	sp, sp, #12
 1237              		.cfi_def_cfa_offset 16
 1238 0564 0190     		str	r0, [sp, #4]
 1239              		.loc 8 476 0
ARM GAS  /tmp/ccRqzMr7.s 			page 23


 1240 0566 019B     		ldr	r3, [sp, #4]
 1241 0568 DA69     		ldr	r2, [r3, #28]
 1242 056a 019B     		ldr	r3, [sp, #4]
 1243 056c 9A60     		str	r2, [r3, #8]
 1244              		.loc 8 477 0
 1245 056e 019B     		ldr	r3, [sp, #4]
 1246 0570 1A6A     		ldr	r2, [r3, #32]
 1247 0572 019B     		ldr	r3, [sp, #4]
 1248 0574 1A61     		str	r2, [r3, #16]
 1249              		.loc 8 478 0
 1250 0576 019B     		ldr	r3, [sp, #4]
 1251 0578 1A6A     		ldr	r2, [r3, #32]
 1252 057a 019B     		ldr	r3, [sp, #4]
 1253 057c DA60     		str	r2, [r3, #12]
 1254              		.loc 8 479 0
 1255 057e 019B     		ldr	r3, [sp, #4]
 1256 0580 0022     		movs	r2, #0
 1257 0582 5A62     		str	r2, [r3, #36]
 1258              		.loc 8 480 0
 1259 0584 019B     		ldr	r3, [sp, #4]
 1260 0586 0022     		movs	r2, #0
 1261 0588 9A62     		str	r2, [r3, #40]
 1262              		.loc 8 481 0
 1263 058a 019B     		ldr	r3, [sp, #4]
 1264 058c 1846     		mov	r0, r3
 1265 058e 6FF00101 		mvn	r1, #1
 1266 0592 FFF7C5FD 		bl	osalThreadDequeueAllI
 1267              		.loc 8 482 0
 1268 0596 03B0     		add	sp, sp, #12
 1269              		@ sp needed
 1270 0598 5DF804FB 		ldr	pc, [sp], #4
 1271              		.cfi_endproc
 1272              	.LFE278:
 1273              		.size	obqResetI, .-obqResetI
 1274              		.align	2
 1275 059c AFF30080 		.p2align 4,,15
 1276              		.global	obqGetFullBufferI
 1277              		.thumb
 1278              		.thumb_func
 1279              		.type	obqGetFullBufferI, %function
 1280              	obqGetFullBufferI:
 1281              	.LFB279:
 1282              		.loc 8 496 0
 1283              		.cfi_startproc
 1284              		@ args = 0, pretend = 0, frame = 8
 1285              		@ frame_needed = 0, uses_anonymous_args = 0
 1286              		@ link register save eliminated.
 1287 05a0 82B0     		sub	sp, sp, #8
 1288              		.cfi_def_cfa_offset 8
 1289 05a2 0190     		str	r0, [sp, #4]
 1290 05a4 0091     		str	r1, [sp]
 1291              		.loc 8 500 0
 1292 05a6 019B     		ldr	r3, [sp, #4]
 1293 05a8 DA68     		ldr	r2, [r3, #12]
 1294 05aa 019B     		ldr	r3, [sp, #4]
 1295 05ac 1B69     		ldr	r3, [r3, #16]
 1296 05ae 9A42     		cmp	r2, r3
ARM GAS  /tmp/ccRqzMr7.s 			page 24


 1297 05b0 05D1     		bne	.L59
 1298              		.loc 8 500 0 is_stmt 0 discriminator 1
 1299 05b2 019B     		ldr	r3, [sp, #4]
 1300 05b4 9B68     		ldr	r3, [r3, #8]
 1301 05b6 002B     		cmp	r3, #0
 1302 05b8 01D0     		beq	.L59
 1303              		.loc 8 500 0 discriminator 3
 1304 05ba 0123     		movs	r3, #1
 1305 05bc 00E0     		b	.L60
 1306              	.L59:
 1307              		.loc 8 500 0 discriminator 2
 1308 05be 0023     		movs	r3, #0
 1309              	.L60:
 1310              		.loc 8 500 0 discriminator 4
 1311 05c0 03F00103 		and	r3, r3, #1
 1312 05c4 DBB2     		uxtb	r3, r3
 1313 05c6 002B     		cmp	r3, #0
 1314 05c8 01D0     		beq	.L61
 1315              		.loc 8 501 0 is_stmt 1
 1316 05ca 0023     		movs	r3, #0
 1317 05cc 07E0     		b	.L62
 1318              	.L61:
 1319              		.loc 8 505 0
 1320 05ce 019B     		ldr	r3, [sp, #4]
 1321 05d0 1B69     		ldr	r3, [r3, #16]
 1322 05d2 1A68     		ldr	r2, [r3]
 1323 05d4 009B     		ldr	r3, [sp]
 1324 05d6 1A60     		str	r2, [r3]
 1325              		.loc 8 507 0
 1326 05d8 019B     		ldr	r3, [sp, #4]
 1327 05da 1B69     		ldr	r3, [r3, #16]
 1328 05dc 0433     		adds	r3, r3, #4
 1329              	.L62:
 1330              		.loc 8 508 0
 1331 05de 1846     		mov	r0, r3
 1332 05e0 02B0     		add	sp, sp, #8
 1333              		@ sp needed
 1334 05e2 7047     		bx	lr
 1335              		.cfi_endproc
 1336              	.LFE279:
 1337              		.size	obqGetFullBufferI, .-obqGetFullBufferI
 1338              		.align	2
 1339 05e4 AFF30080 		.p2align 4,,15
 1339      AFF30080 
 1339      AFF30080 
 1340              		.global	obqReleaseEmptyBufferI
 1341              		.thumb
 1342              		.thumb_func
 1343              		.type	obqReleaseEmptyBufferI, %function
 1344              	obqReleaseEmptyBufferI:
 1345              	.LFB280:
 1346              		.loc 8 517 0
 1347              		.cfi_startproc
 1348              		@ args = 0, pretend = 0, frame = 8
 1349              		@ frame_needed = 0, uses_anonymous_args = 0
 1350 05f0 00B5     		push	{lr}
 1351              		.cfi_def_cfa_offset 4
ARM GAS  /tmp/ccRqzMr7.s 			page 25


 1352              		.cfi_offset 14, -4
 1353 05f2 83B0     		sub	sp, sp, #12
 1354              		.cfi_def_cfa_offset 16
 1355 05f4 0190     		str	r0, [sp, #4]
 1356              		.loc 8 523 0
 1357 05f6 019B     		ldr	r3, [sp, #4]
 1358 05f8 9B68     		ldr	r3, [r3, #8]
 1359 05fa 5A1C     		adds	r2, r3, #1
 1360 05fc 019B     		ldr	r3, [sp, #4]
 1361 05fe 9A60     		str	r2, [r3, #8]
 1362              		.loc 8 524 0
 1363 0600 019B     		ldr	r3, [sp, #4]
 1364 0602 1A69     		ldr	r2, [r3, #16]
 1365 0604 019B     		ldr	r3, [sp, #4]
 1366 0606 9B69     		ldr	r3, [r3, #24]
 1367 0608 1A44     		add	r2, r2, r3
 1368 060a 019B     		ldr	r3, [sp, #4]
 1369 060c 1A61     		str	r2, [r3, #16]
 1370              		.loc 8 525 0
 1371 060e 019B     		ldr	r3, [sp, #4]
 1372 0610 1A69     		ldr	r2, [r3, #16]
 1373 0612 019B     		ldr	r3, [sp, #4]
 1374 0614 5B69     		ldr	r3, [r3, #20]
 1375 0616 9A42     		cmp	r2, r3
 1376 0618 03D3     		bcc	.L64
 1377              		.loc 8 526 0
 1378 061a 019B     		ldr	r3, [sp, #4]
 1379 061c 1A6A     		ldr	r2, [r3, #32]
 1380 061e 019B     		ldr	r3, [sp, #4]
 1381 0620 1A61     		str	r2, [r3, #16]
 1382              	.L64:
 1383              		.loc 8 530 0
 1384 0622 019B     		ldr	r3, [sp, #4]
 1385 0624 1846     		mov	r0, r3
 1386 0626 0021     		movs	r1, #0
 1387 0628 FFF76AFD 		bl	osalThreadDequeueNextI
 1388              		.loc 8 531 0
 1389 062c 03B0     		add	sp, sp, #12
 1390              		@ sp needed
 1391 062e 5DF804FB 		ldr	pc, [sp], #4
 1392              		.cfi_endproc
 1393              	.LFE280:
 1394              		.size	obqReleaseEmptyBufferI, .-obqReleaseEmptyBufferI
 1395 0632 00BF     		.align	2
 1396 0634 AFF30080 		.p2align 4,,15
 1396      AFF30080 
 1396      AFF30080 
 1397              		.global	obqGetEmptyBufferTimeout
 1398              		.thumb
 1399              		.thumb_func
 1400              		.type	obqGetEmptyBufferTimeout, %function
 1401              	obqGetEmptyBufferTimeout:
 1402              	.LFB281:
 1403              		.loc 8 554 0
 1404              		.cfi_startproc
 1405              		@ args = 0, pretend = 0, frame = 16
 1406              		@ frame_needed = 0, uses_anonymous_args = 0
ARM GAS  /tmp/ccRqzMr7.s 			page 26


 1407 0640 00B5     		push	{lr}
 1408              		.cfi_def_cfa_offset 4
 1409              		.cfi_offset 14, -4
 1410 0642 85B0     		sub	sp, sp, #20
 1411              		.cfi_def_cfa_offset 24
 1412 0644 0190     		str	r0, [sp, #4]
 1413 0646 0091     		str	r1, [sp]
 1414              		.loc 8 557 0
 1415 0648 FFF722FD 		bl	osalSysLock
 1416              		.loc 8 558 0
 1417 064c 0198     		ldr	r0, [sp, #4]
 1418 064e 0099     		ldr	r1, [sp]
 1419 0650 FFF7FEFF 		bl	obqGetEmptyBufferTimeoutS
 1420 0654 0390     		str	r0, [sp, #12]
 1421              		.loc 8 559 0
 1422 0656 FFF723FD 		bl	osalSysUnlock
 1423              		.loc 8 561 0
 1424 065a 039B     		ldr	r3, [sp, #12]
 1425              		.loc 8 562 0
 1426 065c 1846     		mov	r0, r3
 1427 065e 05B0     		add	sp, sp, #20
 1428              		@ sp needed
 1429 0660 5DF804FB 		ldr	pc, [sp], #4
 1430              		.cfi_endproc
 1431              	.LFE281:
 1432              		.size	obqGetEmptyBufferTimeout, .-obqGetEmptyBufferTimeout
 1433              		.align	2
 1434 0664 AFF30080 		.p2align 4,,15
 1434      AFF30080 
 1434      AFF30080 
 1435              		.global	obqGetEmptyBufferTimeoutS
 1436              		.thumb
 1437              		.thumb_func
 1438              		.type	obqGetEmptyBufferTimeoutS, %function
 1439              	obqGetEmptyBufferTimeoutS:
 1440              	.LFB282:
 1441              		.loc 8 585 0
 1442              		.cfi_startproc
 1443              		@ args = 0, pretend = 0, frame = 16
 1444              		@ frame_needed = 0, uses_anonymous_args = 0
 1445 0670 00B5     		push	{lr}
 1446              		.cfi_def_cfa_offset 4
 1447              		.cfi_offset 14, -4
 1448 0672 85B0     		sub	sp, sp, #20
 1449              		.cfi_def_cfa_offset 24
 1450 0674 0190     		str	r0, [sp, #4]
 1451 0676 0091     		str	r1, [sp]
 1452              		.loc 8 589 0
 1453 0678 0AE0     		b	.L68
 1454              	.L70:
 1455              	.LBB14:
 1456              		.loc 8 590 0
 1457 067a 019B     		ldr	r3, [sp, #4]
 1458 067c 1846     		mov	r0, r3
 1459 067e 0099     		ldr	r1, [sp]
 1460 0680 FFF72EFD 		bl	osalThreadEnqueueTimeoutS
 1461 0684 0390     		str	r0, [sp, #12]
ARM GAS  /tmp/ccRqzMr7.s 			page 27


 1462              		.loc 8 591 0
 1463 0686 039B     		ldr	r3, [sp, #12]
 1464 0688 002B     		cmp	r3, #0
 1465 068a 01DA     		bge	.L68
 1466              		.loc 8 592 0
 1467 068c 039B     		ldr	r3, [sp, #12]
 1468 068e 10E0     		b	.L69
 1469              	.L68:
 1470              	.LBE14:
 1471              		.loc 8 589 0 discriminator 1
 1472 0690 019B     		ldr	r3, [sp, #4]
 1473 0692 9B68     		ldr	r3, [r3, #8]
 1474 0694 002B     		cmp	r3, #0
 1475 0696 F0D0     		beq	.L70
 1476              		.loc 8 599 0
 1477 0698 019B     		ldr	r3, [sp, #4]
 1478 069a DB68     		ldr	r3, [r3, #12]
 1479 069c 1A1D     		adds	r2, r3, #4
 1480 069e 019B     		ldr	r3, [sp, #4]
 1481 06a0 5A62     		str	r2, [r3, #36]
 1482              		.loc 8 600 0
 1483 06a2 019B     		ldr	r3, [sp, #4]
 1484 06a4 DA68     		ldr	r2, [r3, #12]
 1485 06a6 019B     		ldr	r3, [sp, #4]
 1486 06a8 9B69     		ldr	r3, [r3, #24]
 1487 06aa 1A44     		add	r2, r2, r3
 1488 06ac 019B     		ldr	r3, [sp, #4]
 1489 06ae 9A62     		str	r2, [r3, #40]
 1490              		.loc 8 602 0
 1491 06b0 0023     		movs	r3, #0
 1492              	.L69:
 1493              		.loc 8 603 0
 1494 06b2 1846     		mov	r0, r3
 1495 06b4 05B0     		add	sp, sp, #20
 1496              		@ sp needed
 1497 06b6 5DF804FB 		ldr	pc, [sp], #4
 1498              		.cfi_endproc
 1499              	.LFE282:
 1500              		.size	obqGetEmptyBufferTimeoutS, .-obqGetEmptyBufferTimeoutS
 1501 06ba 00BF     		.align	2
 1502 06bc AFF30080 		.p2align 4,,15
 1503              		.global	obqPostFullBuffer
 1504              		.thumb
 1505              		.thumb_func
 1506              		.type	obqPostFullBuffer, %function
 1507              	obqPostFullBuffer:
 1508              	.LFB283:
 1509              		.loc 8 614 0
 1510              		.cfi_startproc
 1511              		@ args = 0, pretend = 0, frame = 8
 1512              		@ frame_needed = 0, uses_anonymous_args = 0
 1513 06c0 00B5     		push	{lr}
 1514              		.cfi_def_cfa_offset 4
 1515              		.cfi_offset 14, -4
 1516 06c2 83B0     		sub	sp, sp, #12
 1517              		.cfi_def_cfa_offset 16
 1518 06c4 0190     		str	r0, [sp, #4]
ARM GAS  /tmp/ccRqzMr7.s 			page 28


 1519 06c6 0091     		str	r1, [sp]
 1520              		.loc 8 616 0
 1521 06c8 FFF7E2FC 		bl	osalSysLock
 1522              		.loc 8 617 0
 1523 06cc 0198     		ldr	r0, [sp, #4]
 1524 06ce 0099     		ldr	r1, [sp]
 1525 06d0 FFF7FEFF 		bl	obqPostFullBufferS
 1526              		.loc 8 618 0
 1527 06d4 FFF7E4FC 		bl	osalSysUnlock
 1528              		.loc 8 619 0
 1529 06d8 03B0     		add	sp, sp, #12
 1530              		@ sp needed
 1531 06da 5DF804FB 		ldr	pc, [sp], #4
 1532              		.cfi_endproc
 1533              	.LFE283:
 1534              		.size	obqPostFullBuffer, .-obqPostFullBuffer
 1535 06de 00BF     		.align	2
 1536              		.p2align 4,,15
 1537              		.global	obqPostFullBufferS
 1538              		.thumb
 1539              		.thumb_func
 1540              		.type	obqPostFullBufferS, %function
 1541              	obqPostFullBufferS:
 1542              	.LFB284:
 1543              		.loc 8 630 0
 1544              		.cfi_startproc
 1545              		@ args = 0, pretend = 0, frame = 8
 1546              		@ frame_needed = 0, uses_anonymous_args = 0
 1547 06e0 00B5     		push	{lr}
 1548              		.cfi_def_cfa_offset 4
 1549              		.cfi_offset 14, -4
 1550 06e2 83B0     		sub	sp, sp, #12
 1551              		.cfi_def_cfa_offset 16
 1552 06e4 0190     		str	r0, [sp, #4]
 1553 06e6 0091     		str	r1, [sp]
 1554              		.loc 8 637 0
 1555 06e8 019B     		ldr	r3, [sp, #4]
 1556 06ea DB68     		ldr	r3, [r3, #12]
 1557 06ec 009A     		ldr	r2, [sp]
 1558 06ee 1A60     		str	r2, [r3]
 1559              		.loc 8 640 0
 1560 06f0 019B     		ldr	r3, [sp, #4]
 1561 06f2 9B68     		ldr	r3, [r3, #8]
 1562 06f4 5A1E     		subs	r2, r3, #1
 1563 06f6 019B     		ldr	r3, [sp, #4]
 1564 06f8 9A60     		str	r2, [r3, #8]
 1565              		.loc 8 641 0
 1566 06fa 019B     		ldr	r3, [sp, #4]
 1567 06fc DA68     		ldr	r2, [r3, #12]
 1568 06fe 019B     		ldr	r3, [sp, #4]
 1569 0700 9B69     		ldr	r3, [r3, #24]
 1570 0702 1A44     		add	r2, r2, r3
 1571 0704 019B     		ldr	r3, [sp, #4]
 1572 0706 DA60     		str	r2, [r3, #12]
 1573              		.loc 8 642 0
 1574 0708 019B     		ldr	r3, [sp, #4]
 1575 070a DA68     		ldr	r2, [r3, #12]
ARM GAS  /tmp/ccRqzMr7.s 			page 29


 1576 070c 019B     		ldr	r3, [sp, #4]
 1577 070e 5B69     		ldr	r3, [r3, #20]
 1578 0710 9A42     		cmp	r2, r3
 1579 0712 03D3     		bcc	.L73
 1580              		.loc 8 643 0
 1581 0714 019B     		ldr	r3, [sp, #4]
 1582 0716 1A6A     		ldr	r2, [r3, #32]
 1583 0718 019B     		ldr	r3, [sp, #4]
 1584 071a DA60     		str	r2, [r3, #12]
 1585              	.L73:
 1586              		.loc 8 647 0
 1587 071c 019B     		ldr	r3, [sp, #4]
 1588 071e 0022     		movs	r2, #0
 1589 0720 5A62     		str	r2, [r3, #36]
 1590              		.loc 8 650 0
 1591 0722 019B     		ldr	r3, [sp, #4]
 1592 0724 DB6A     		ldr	r3, [r3, #44]
 1593 0726 002B     		cmp	r3, #0
 1594 0728 03D0     		beq	.L72
 1595              		.loc 8 651 0
 1596 072a 019B     		ldr	r3, [sp, #4]
 1597 072c DB6A     		ldr	r3, [r3, #44]
 1598 072e 0198     		ldr	r0, [sp, #4]
 1599 0730 9847     		blx	r3
 1600              	.L72:
 1601              		.loc 8 653 0
 1602 0732 03B0     		add	sp, sp, #12
 1603              		@ sp needed
 1604 0734 5DF804FB 		ldr	pc, [sp], #4
 1605              		.cfi_endproc
 1606              	.LFE284:
 1607              		.size	obqPostFullBufferS, .-obqPostFullBufferS
 1608              		.align	2
 1609 0738 AFF30080 		.p2align 4,,15
 1609      AFF30080 
 1610              		.global	obqPutTimeout
 1611              		.thumb
 1612              		.thumb_func
 1613              		.type	obqPutTimeout, %function
 1614              	obqPutTimeout:
 1615              	.LFB285:
 1616              		.loc 8 675 0
 1617              		.cfi_startproc
 1618              		@ args = 0, pretend = 0, frame = 24
 1619              		@ frame_needed = 0, uses_anonymous_args = 0
 1620 0740 00B5     		push	{lr}
 1621              		.cfi_def_cfa_offset 4
 1622              		.cfi_offset 14, -4
 1623 0742 87B0     		sub	sp, sp, #28
 1624              		.cfi_def_cfa_offset 32
 1625 0744 0390     		str	r0, [sp, #12]
 1626 0746 0B46     		mov	r3, r1
 1627 0748 0192     		str	r2, [sp, #4]
 1628 074a 8DF80B30 		strb	r3, [sp, #11]
 1629              		.loc 8 678 0
 1630 074e FFF79FFC 		bl	osalSysLock
 1631              		.loc 8 681 0
ARM GAS  /tmp/ccRqzMr7.s 			page 30


 1632 0752 039B     		ldr	r3, [sp, #12]
 1633 0754 5B6A     		ldr	r3, [r3, #36]
 1634 0756 002B     		cmp	r3, #0
 1635 0758 0BD1     		bne	.L76
 1636              		.loc 8 682 0
 1637 075a 0398     		ldr	r0, [sp, #12]
 1638 075c 0199     		ldr	r1, [sp, #4]
 1639 075e FFF7FEFF 		bl	obqGetEmptyBufferTimeoutS
 1640 0762 0590     		str	r0, [sp, #20]
 1641              		.loc 8 683 0
 1642 0764 059B     		ldr	r3, [sp, #20]
 1643 0766 002B     		cmp	r3, #0
 1644 0768 03D0     		beq	.L76
 1645              		.loc 8 684 0
 1646 076a FFF799FC 		bl	osalSysUnlock
 1647              		.loc 8 685 0
 1648 076e 059B     		ldr	r3, [sp, #20]
 1649 0770 19E0     		b	.L77
 1650              	.L76:
 1651              		.loc 8 690 0
 1652 0772 039B     		ldr	r3, [sp, #12]
 1653 0774 5B6A     		ldr	r3, [r3, #36]
 1654 0776 9DF80B20 		ldrb	r2, [sp, #11]
 1655 077a 1A70     		strb	r2, [r3]
 1656              		.loc 8 691 0
 1657 077c 039B     		ldr	r3, [sp, #12]
 1658 077e 5B6A     		ldr	r3, [r3, #36]
 1659 0780 5A1C     		adds	r2, r3, #1
 1660 0782 039B     		ldr	r3, [sp, #12]
 1661 0784 5A62     		str	r2, [r3, #36]
 1662              		.loc 8 695 0
 1663 0786 039B     		ldr	r3, [sp, #12]
 1664 0788 5A6A     		ldr	r2, [r3, #36]
 1665 078a 039B     		ldr	r3, [sp, #12]
 1666 078c 9B6A     		ldr	r3, [r3, #40]
 1667 078e 9A42     		cmp	r2, r3
 1668 0790 06D3     		bcc	.L78
 1669              		.loc 8 696 0
 1670 0792 039B     		ldr	r3, [sp, #12]
 1671 0794 9B69     		ldr	r3, [r3, #24]
 1672 0796 043B     		subs	r3, r3, #4
 1673 0798 0398     		ldr	r0, [sp, #12]
 1674 079a 1946     		mov	r1, r3
 1675 079c FFF7FEFF 		bl	obqPostFullBufferS
 1676              	.L78:
 1677              		.loc 8 699 0
 1678 07a0 FFF77EFC 		bl	osalSysUnlock
 1679              		.loc 8 700 0
 1680 07a4 0023     		movs	r3, #0
 1681              	.L77:
 1682              		.loc 8 701 0
 1683 07a6 1846     		mov	r0, r3
 1684 07a8 07B0     		add	sp, sp, #28
 1685              		@ sp needed
 1686 07aa 5DF804FB 		ldr	pc, [sp], #4
 1687              		.cfi_endproc
 1688              	.LFE285:
ARM GAS  /tmp/ccRqzMr7.s 			page 31


 1689              		.size	obqPutTimeout, .-obqPutTimeout
 1690 07ae 00BF     		.align	2
 1691              		.p2align 4,,15
 1692              		.global	obqWriteTimeout
 1693              		.thumb
 1694              		.thumb_func
 1695              		.type	obqWriteTimeout, %function
 1696              	obqWriteTimeout:
 1697              	.LFB286:
 1698              		.loc 8 725 0
 1699              		.cfi_startproc
 1700              		@ args = 0, pretend = 0, frame = 40
 1701              		@ frame_needed = 0, uses_anonymous_args = 0
 1702 07b0 00B5     		push	{lr}
 1703              		.cfi_def_cfa_offset 4
 1704              		.cfi_offset 14, -4
 1705 07b2 8BB0     		sub	sp, sp, #44
 1706              		.cfi_def_cfa_offset 48
 1707 07b4 0390     		str	r0, [sp, #12]
 1708 07b6 0291     		str	r1, [sp, #8]
 1709 07b8 0192     		str	r2, [sp, #4]
 1710 07ba 0093     		str	r3, [sp]
 1711              		.loc 8 726 0
 1712 07bc 0023     		movs	r3, #0
 1713 07be 0993     		str	r3, [sp, #36]
 1714              		.loc 8 729 0
 1715 07c0 FFF766FC 		bl	osalSysLock
 1716              		.loc 8 732 0
 1717 07c4 FFF774FC 		bl	osalOsGetSystemTimeX
 1718 07c8 0246     		mov	r2, r0
 1719 07ca 009B     		ldr	r3, [sp]
 1720 07cc 1344     		add	r3, r3, r2
 1721 07ce 0693     		str	r3, [sp, #24]
 1722              	.L91:
 1723              	.LBB15:
 1724              		.loc 8 738 0
 1725 07d0 039B     		ldr	r3, [sp, #12]
 1726 07d2 5B6A     		ldr	r3, [r3, #36]
 1727 07d4 002B     		cmp	r3, #0
 1728 07d6 26D1     		bne	.L80
 1729              	.LBB16:
 1730              		.loc 8 743 0
 1731 07d8 009B     		ldr	r3, [sp]
 1732 07da B3F1FF3F 		cmp	r3, #-1
 1733 07de 02D0     		beq	.L81
 1734              		.loc 8 743 0 is_stmt 0 discriminator 1
 1735 07e0 009B     		ldr	r3, [sp]
 1736 07e2 002B     		cmp	r3, #0
 1737 07e4 05D1     		bne	.L82
 1738              	.L81:
 1739              		.loc 8 744 0 is_stmt 1
 1740 07e6 0398     		ldr	r0, [sp, #12]
 1741 07e8 0099     		ldr	r1, [sp]
 1742 07ea FFF7FEFF 		bl	obqGetEmptyBufferTimeoutS
 1743 07ee 0790     		str	r0, [sp, #28]
 1744 07f0 12E0     		b	.L83
 1745              	.L82:
ARM GAS  /tmp/ccRqzMr7.s 			page 32


 1746              	.LBB17:
 1747              		.loc 8 747 0
 1748 07f2 FFF75DFC 		bl	osalOsGetSystemTimeX
 1749 07f6 0346     		mov	r3, r0
 1750 07f8 069A     		ldr	r2, [sp, #24]
 1751 07fa D31A     		subs	r3, r2, r3
 1752 07fc 0593     		str	r3, [sp, #20]
 1753              		.loc 8 752 0
 1754 07fe 059A     		ldr	r2, [sp, #20]
 1755 0800 009B     		ldr	r3, [sp]
 1756 0802 9A42     		cmp	r2, r3
 1757 0804 03D9     		bls	.L84
 1758              		.loc 8 753 0
 1759 0806 FFF74BFC 		bl	osalSysUnlock
 1760              		.loc 8 754 0
 1761 080a 099B     		ldr	r3, [sp, #36]
 1762 080c 60E0     		b	.L85
 1763              	.L84:
 1764              		.loc 8 756 0
 1765 080e 0398     		ldr	r0, [sp, #12]
 1766 0810 0599     		ldr	r1, [sp, #20]
 1767 0812 FFF7FEFF 		bl	obqGetEmptyBufferTimeoutS
 1768 0816 0790     		str	r0, [sp, #28]
 1769              	.L83:
 1770              	.LBE17:
 1771              		.loc 8 760 0
 1772 0818 079B     		ldr	r3, [sp, #28]
 1773 081a 002B     		cmp	r3, #0
 1774 081c 03D0     		beq	.L80
 1775              		.loc 8 761 0
 1776 081e FFF73FFC 		bl	osalSysUnlock
 1777              		.loc 8 762 0
 1778 0822 099B     		ldr	r3, [sp, #36]
 1779 0824 54E0     		b	.L85
 1780              	.L80:
 1781              	.LBE16:
 1782              		.loc 8 767 0
 1783 0826 039B     		ldr	r3, [sp, #12]
 1784 0828 9B6A     		ldr	r3, [r3, #40]
 1785 082a 1A46     		mov	r2, r3
 1786 082c 039B     		ldr	r3, [sp, #12]
 1787 082e 5B6A     		ldr	r3, [r3, #36]
 1788 0830 D31A     		subs	r3, r2, r3
 1789 0832 0893     		str	r3, [sp, #32]
 1790              		.loc 8 768 0
 1791 0834 019A     		ldr	r2, [sp, #4]
 1792 0836 099B     		ldr	r3, [sp, #36]
 1793 0838 D21A     		subs	r2, r2, r3
 1794 083a 089B     		ldr	r3, [sp, #32]
 1795 083c 9A42     		cmp	r2, r3
 1796 083e 03D2     		bcs	.L86
 1797              		.loc 8 769 0
 1798 0840 019A     		ldr	r2, [sp, #4]
 1799 0842 099B     		ldr	r3, [sp, #36]
 1800 0844 D31A     		subs	r3, r2, r3
 1801 0846 0893     		str	r3, [sp, #32]
 1802              	.L86:
ARM GAS  /tmp/ccRqzMr7.s 			page 33


 1803              		.loc 8 774 0
 1804 0848 089B     		ldr	r3, [sp, #32]
 1805 084a 402B     		cmp	r3, #64
 1806 084c 13D9     		bls	.L87
 1807              		.loc 8 776 0
 1808 084e 039B     		ldr	r3, [sp, #12]
 1809 0850 5B6A     		ldr	r3, [r3, #36]
 1810 0852 1846     		mov	r0, r3
 1811 0854 0299     		ldr	r1, [sp, #8]
 1812 0856 4022     		movs	r2, #64
 1813 0858 FFF7FEFF 		bl	memcpy
 1814              		.loc 8 777 0
 1815 085c 029B     		ldr	r3, [sp, #8]
 1816 085e 4033     		adds	r3, r3, #64
 1817 0860 0293     		str	r3, [sp, #8]
 1818              		.loc 8 778 0
 1819 0862 039B     		ldr	r3, [sp, #12]
 1820 0864 5B6A     		ldr	r3, [r3, #36]
 1821 0866 03F14002 		add	r2, r3, #64
 1822 086a 039B     		ldr	r3, [sp, #12]
 1823 086c 5A62     		str	r2, [r3, #36]
 1824              		.loc 8 779 0
 1825 086e 099B     		ldr	r3, [sp, #36]
 1826 0870 4033     		adds	r3, r3, #64
 1827 0872 0993     		str	r3, [sp, #36]
 1828 0874 14E0     		b	.L88
 1829              	.L87:
 1830              		.loc 8 782 0
 1831 0876 039B     		ldr	r3, [sp, #12]
 1832 0878 5B6A     		ldr	r3, [r3, #36]
 1833 087a 1846     		mov	r0, r3
 1834 087c 0299     		ldr	r1, [sp, #8]
 1835 087e 089A     		ldr	r2, [sp, #32]
 1836 0880 FFF7FEFF 		bl	memcpy
 1837              		.loc 8 783 0
 1838 0884 029A     		ldr	r2, [sp, #8]
 1839 0886 089B     		ldr	r3, [sp, #32]
 1840 0888 1344     		add	r3, r3, r2
 1841 088a 0293     		str	r3, [sp, #8]
 1842              		.loc 8 784 0
 1843 088c 039B     		ldr	r3, [sp, #12]
 1844 088e 5A6A     		ldr	r2, [r3, #36]
 1845 0890 089B     		ldr	r3, [sp, #32]
 1846 0892 1A44     		add	r2, r2, r3
 1847 0894 039B     		ldr	r3, [sp, #12]
 1848 0896 5A62     		str	r2, [r3, #36]
 1849              		.loc 8 785 0
 1850 0898 099A     		ldr	r2, [sp, #36]
 1851 089a 089B     		ldr	r3, [sp, #32]
 1852 089c 1344     		add	r3, r3, r2
 1853 089e 0993     		str	r3, [sp, #36]
 1854              	.L88:
 1855              		.loc 8 789 0
 1856 08a0 039B     		ldr	r3, [sp, #12]
 1857 08a2 5A6A     		ldr	r2, [r3, #36]
 1858 08a4 039B     		ldr	r3, [sp, #12]
 1859 08a6 9B6A     		ldr	r3, [r3, #40]
ARM GAS  /tmp/ccRqzMr7.s 			page 34


 1860 08a8 9A42     		cmp	r2, r3
 1861 08aa 06D3     		bcc	.L89
 1862              		.loc 8 790 0
 1863 08ac 039B     		ldr	r3, [sp, #12]
 1864 08ae 9B69     		ldr	r3, [r3, #24]
 1865 08b0 043B     		subs	r3, r3, #4
 1866 08b2 0398     		ldr	r0, [sp, #12]
 1867 08b4 1946     		mov	r1, r3
 1868 08b6 FFF7FEFF 		bl	obqPostFullBufferS
 1869              	.L89:
 1870              		.loc 8 794 0
 1871 08ba FFF7F1FB 		bl	osalSysUnlock
 1872              		.loc 8 795 0
 1873 08be 099A     		ldr	r2, [sp, #36]
 1874 08c0 019B     		ldr	r3, [sp, #4]
 1875 08c2 9A42     		cmp	r2, r3
 1876 08c4 01D3     		bcc	.L90
 1877              		.loc 8 796 0
 1878 08c6 099B     		ldr	r3, [sp, #36]
 1879 08c8 02E0     		b	.L85
 1880              	.L90:
 1881              		.loc 8 798 0
 1882 08ca FFF7E1FB 		bl	osalSysLock
 1883              	.LBE15:
 1884              		.loc 8 799 0
 1885 08ce 7FE7     		b	.L91
 1886              	.L85:
 1887              		.loc 8 800 0
 1888 08d0 1846     		mov	r0, r3
 1889 08d2 0BB0     		add	sp, sp, #44
 1890              		@ sp needed
 1891 08d4 5DF804FB 		ldr	pc, [sp], #4
 1892              		.cfi_endproc
 1893              	.LFE286:
 1894              		.size	obqWriteTimeout, .-obqWriteTimeout
 1895              		.align	2
 1896 08d8 AFF30080 		.p2align 4,,15
 1896      AFF30080 
 1897              		.global	obqTryFlushI
 1898              		.thumb
 1899              		.thumb_func
 1900              		.type	obqTryFlushI, %function
 1901              	obqTryFlushI:
 1902              	.LFB287:
 1903              		.loc 8 815 0
 1904              		.cfi_startproc
 1905              		@ args = 0, pretend = 0, frame = 16
 1906              		@ frame_needed = 0, uses_anonymous_args = 0
 1907              		@ link register save eliminated.
 1908 08e0 84B0     		sub	sp, sp, #16
 1909              		.cfi_def_cfa_offset 16
 1910 08e2 0190     		str	r0, [sp, #4]
 1911              		.loc 8 821 0
 1912 08e4 019B     		ldr	r3, [sp, #4]
 1913 08e6 DA68     		ldr	r2, [r3, #12]
 1914 08e8 019B     		ldr	r3, [sp, #4]
 1915 08ea 1B69     		ldr	r3, [r3, #16]
ARM GAS  /tmp/ccRqzMr7.s 			page 35


 1916 08ec 9A42     		cmp	r2, r3
 1917 08ee 05D1     		bne	.L93
 1918              		.loc 8 821 0 is_stmt 0 discriminator 1
 1919 08f0 019B     		ldr	r3, [sp, #4]
 1920 08f2 9B68     		ldr	r3, [r3, #8]
 1921 08f4 002B     		cmp	r3, #0
 1922 08f6 01D0     		beq	.L93
 1923              		.loc 8 821 0 discriminator 3
 1924 08f8 0123     		movs	r3, #1
 1925 08fa 00E0     		b	.L94
 1926              	.L93:
 1927              		.loc 8 821 0 discriminator 2
 1928 08fc 0023     		movs	r3, #0
 1929              	.L94:
 1930              		.loc 8 821 0 discriminator 4
 1931 08fe 03F00103 		and	r3, r3, #1
 1932 0902 DBB2     		uxtb	r3, r3
 1933 0904 002B     		cmp	r3, #0
 1934 0906 2DD0     		beq	.L95
 1935              		.loc 8 821 0 discriminator 1
 1936 0908 019B     		ldr	r3, [sp, #4]
 1937 090a 5B6A     		ldr	r3, [r3, #36]
 1938 090c 002B     		cmp	r3, #0
 1939 090e 29D0     		beq	.L95
 1940              	.LBB18:
 1941              		.loc 8 822 0 is_stmt 1
 1942 0910 019B     		ldr	r3, [sp, #4]
 1943 0912 5B6A     		ldr	r3, [r3, #36]
 1944 0914 1A46     		mov	r2, r3
 1945 0916 019B     		ldr	r3, [sp, #4]
 1946 0918 DB68     		ldr	r3, [r3, #12]
 1947 091a D31A     		subs	r3, r2, r3
 1948 091c 043B     		subs	r3, r3, #4
 1949 091e 0393     		str	r3, [sp, #12]
 1950              		.loc 8 824 0
 1951 0920 039B     		ldr	r3, [sp, #12]
 1952 0922 002B     		cmp	r3, #0
 1953 0924 1ED0     		beq	.L95
 1954              		.loc 8 827 0
 1955 0926 019B     		ldr	r3, [sp, #4]
 1956 0928 DB68     		ldr	r3, [r3, #12]
 1957 092a 039A     		ldr	r2, [sp, #12]
 1958 092c 1A60     		str	r2, [r3]
 1959              		.loc 8 830 0
 1960 092e 019B     		ldr	r3, [sp, #4]
 1961 0930 9B68     		ldr	r3, [r3, #8]
 1962 0932 5A1E     		subs	r2, r3, #1
 1963 0934 019B     		ldr	r3, [sp, #4]
 1964 0936 9A60     		str	r2, [r3, #8]
 1965              		.loc 8 831 0
 1966 0938 019B     		ldr	r3, [sp, #4]
 1967 093a DA68     		ldr	r2, [r3, #12]
 1968 093c 019B     		ldr	r3, [sp, #4]
 1969 093e 9B69     		ldr	r3, [r3, #24]
 1970 0940 1A44     		add	r2, r2, r3
 1971 0942 019B     		ldr	r3, [sp, #4]
 1972 0944 DA60     		str	r2, [r3, #12]
ARM GAS  /tmp/ccRqzMr7.s 			page 36


 1973              		.loc 8 832 0
 1974 0946 019B     		ldr	r3, [sp, #4]
 1975 0948 DA68     		ldr	r2, [r3, #12]
 1976 094a 019B     		ldr	r3, [sp, #4]
 1977 094c 5B69     		ldr	r3, [r3, #20]
 1978 094e 9A42     		cmp	r2, r3
 1979 0950 03D3     		bcc	.L96
 1980              		.loc 8 833 0
 1981 0952 019B     		ldr	r3, [sp, #4]
 1982 0954 1A6A     		ldr	r2, [r3, #32]
 1983 0956 019B     		ldr	r3, [sp, #4]
 1984 0958 DA60     		str	r2, [r3, #12]
 1985              	.L96:
 1986              		.loc 8 837 0
 1987 095a 019B     		ldr	r3, [sp, #4]
 1988 095c 0022     		movs	r2, #0
 1989 095e 5A62     		str	r2, [r3, #36]
 1990              		.loc 8 839 0
 1991 0960 0123     		movs	r3, #1
 1992 0962 00E0     		b	.L97
 1993              	.L95:
 1994              	.LBE18:
 1995              		.loc 8 842 0
 1996 0964 0023     		movs	r3, #0
 1997              	.L97:
 1998              		.loc 8 843 0
 1999 0966 1846     		mov	r0, r3
 2000 0968 04B0     		add	sp, sp, #16
 2001              		@ sp needed
 2002 096a 7047     		bx	lr
 2003              		.cfi_endproc
 2004              	.LFE287:
 2005              		.size	obqTryFlushI, .-obqTryFlushI
 2006              		.align	2
 2007 096c AFF30080 		.p2align 4,,15
 2008              		.global	obqFlush
 2009              		.thumb
 2010              		.thumb_func
 2011              		.type	obqFlush, %function
 2012              	obqFlush:
 2013              	.LFB288:
 2014              		.loc 8 852 0
 2015              		.cfi_startproc
 2016              		@ args = 0, pretend = 0, frame = 16
 2017              		@ frame_needed = 0, uses_anonymous_args = 0
 2018 0970 00B5     		push	{lr}
 2019              		.cfi_def_cfa_offset 4
 2020              		.cfi_offset 14, -4
 2021 0972 85B0     		sub	sp, sp, #20
 2022              		.cfi_def_cfa_offset 24
 2023 0974 0190     		str	r0, [sp, #4]
 2024              		.loc 8 854 0
 2025 0976 FFF78BFB 		bl	osalSysLock
 2026              		.loc 8 857 0
 2027 097a 019B     		ldr	r3, [sp, #4]
 2028 097c 5B6A     		ldr	r3, [r3, #36]
 2029 097e 002B     		cmp	r3, #0
ARM GAS  /tmp/ccRqzMr7.s 			page 37


 2030 0980 0ED0     		beq	.L99
 2031              	.LBB19:
 2032              		.loc 8 858 0
 2033 0982 019B     		ldr	r3, [sp, #4]
 2034 0984 5B6A     		ldr	r3, [r3, #36]
 2035 0986 1A46     		mov	r2, r3
 2036 0988 019B     		ldr	r3, [sp, #4]
 2037 098a DB68     		ldr	r3, [r3, #12]
 2038 098c D31A     		subs	r3, r2, r3
 2039 098e 043B     		subs	r3, r3, #4
 2040 0990 0393     		str	r3, [sp, #12]
 2041              		.loc 8 860 0
 2042 0992 039B     		ldr	r3, [sp, #12]
 2043 0994 002B     		cmp	r3, #0
 2044 0996 03D0     		beq	.L99
 2045              		.loc 8 861 0
 2046 0998 0198     		ldr	r0, [sp, #4]
 2047 099a 0399     		ldr	r1, [sp, #12]
 2048 099c FFF7FEFF 		bl	obqPostFullBufferS
 2049              	.L99:
 2050              	.LBE19:
 2051              		.loc 8 865 0
 2052 09a0 FFF77EFB 		bl	osalSysUnlock
 2053              		.loc 8 866 0
 2054 09a4 05B0     		add	sp, sp, #20
 2055              		@ sp needed
 2056 09a6 5DF804FB 		ldr	pc, [sp], #4
 2057              		.cfi_endproc
 2058              	.LFE288:
 2059              		.size	obqFlush, .-obqFlush
 2060              	.Letext0:
 2061              		.file 9 "/nfs/nfs5/home/research/hardware/arm2/gcc-arm-embedded/gcc-arm-none-eabi-4_8-2014q2/lib/g
 2062              		.file 10 "/nfs/nfs5/home/research/hardware/arm2/gcc-arm-embedded/gcc-arm-none-eabi-4_8-2014q2/arm-
 2063              		.file 11 "/nfs/nfs5/home/research/hardware/arm2/gcc-arm-embedded/gcc-arm-none-eabi-4_8-2014q2/arm-
 2064              		.file 12 "../../ChibiOS/os/rt/ports/ARMCMx/compilers/GCC/chtypes.h"
 2065              		.file 13 "../../ChibiOS/os/rt/include/chsystypes.h"
 2066              		.file 14 "../../ChibiOS/os/rt/ports/ARMCMx/chcore.h"
 2067              		.file 15 "../../ChibiOS/os/rt/include/chtm.h"
 2068              		.file 16 "../../ChibiOS/os/rt/include/chsem.h"
 2069              		.file 17 "../../ChibiOS/os/rt/include/chmtx.h"
 2070              		.file 18 "../../ChibiOS/os/hal/include/hal_buffers.h"
 2071              		.file 19 "../../ChibiOS/os/ext/CMSIS/include/core_cm4.h"