ARM GAS  /tmp/cc1ELVNa.s 			page 1


   1              		.syntax unified
   2              		.cpu cortex-m4
   3              		.fpu softvfp
   4              		.eabi_attribute 20, 1
   5              		.eabi_attribute 21, 1
   6              		.eabi_attribute 23, 3
   7              		.eabi_attribute 24, 1
   8              		.eabi_attribute 25, 1
   9              		.eabi_attribute 26, 1
  10              		.eabi_attribute 30, 6
  11              		.eabi_attribute 34, 1
  12              		.eabi_attribute 18, 4
  13              		.thumb
  14              		.file	"LSM303AGR_ACC_driver.c"
  15              		.text
  16              	.Ltext0:
  17              		.cfi_sections	.debug_frame
  18              		.data
  19              		.align	2
  20              		.type	lsm303ad_accel_cfg, %object
  21              		.size	lsm303ad_accel_cfg, 16
  22              	lsm303ad_accel_cfg:
  23 0000 00000000 		.word	0
  24 0004 00080048 		.word	1207961600
  25 0008 0400     		.short	4
  26 000a 30C0     		.short	-16336
  27 000c 0000     		.short	0
  28 000e 0000     		.space	2
  29              		.text
  30              		.align	2
  31              		.p2align 4,,15
  32              		.global	LSM303AGR_ACC_Init
  33              		.thumb
  34              		.thumb_func
  35              		.type	LSM303AGR_ACC_Init, %function
  36              	LSM303AGR_ACC_Init:
  37              	.LFB267:
  38              		.file 1 "BSP/Components/lsm303agr/LSM303AGR_ACC_driver.c"
  39              		.loc 1 74 0
  40              		.cfi_startproc
  41              		@ args = 0, pretend = 0, frame = 8
  42              		@ frame_needed = 0, uses_anonymous_args = 0
  43 0000 00B5     		push	{lr}
  44              		.cfi_def_cfa_offset 4
  45              		.cfi_offset 14, -4
  46 0002 83B0     		sub	sp, sp, #12
  47              		.cfi_def_cfa_offset 16
  48              		.loc 1 75 0
  49 0004 0123     		movs	r3, #1
  50 0006 8DF80730 		strb	r3, [sp, #7]
  51              		.loc 1 76 0
  52 000a 0DF10703 		add	r3, sp, #7
  53 000e 0020     		movs	r0, #0
  54 0010 2321     		movs	r1, #35
  55 0012 1A46     		mov	r2, r3
  56 0014 0123     		movs	r3, #1
  57 0016 FFF7FEFF 		bl	LSM303AGR_ACC_WriteReg
ARM GAS  /tmp/cc1ELVNa.s 			page 2


  58              		.loc 1 77 0
  59 001a 2723     		movs	r3, #39
  60 001c 8DF80630 		strb	r3, [sp, #6]
  61              		.loc 1 78 0
  62 0020 0DF10603 		add	r3, sp, #6
  63 0024 0020     		movs	r0, #0
  64 0026 2021     		movs	r1, #32
  65 0028 1A46     		mov	r2, r3
  66 002a 0123     		movs	r3, #1
  67 002c FFF7FEFF 		bl	LSM303AGR_ACC_WriteReg
  68              		.loc 1 82 0
  69 0030 0123     		movs	r3, #1
  70              		.loc 1 83 0
  71 0032 1846     		mov	r0, r3
  72 0034 03B0     		add	sp, sp, #12
  73              		@ sp needed
  74 0036 5DF804FB 		ldr	pc, [sp], #4
  75              		.cfi_endproc
  76              	.LFE267:
  77              		.size	LSM303AGR_ACC_Init, .-LSM303AGR_ACC_Init
  78 003a 00BF     		.align	2
  79 003c AFF30080 		.p2align 4,,15
  80              		.global	LSM303AGR_ACC_WriteReg
  81              		.thumb
  82              		.thumb_func
  83              		.type	LSM303AGR_ACC_WriteReg, %function
  84              	LSM303AGR_ACC_WriteReg:
  85              	.LFB268:
  86              		.loc 1 95 0
  87              		.cfi_startproc
  88              		@ args = 0, pretend = 0, frame = 16
  89              		@ frame_needed = 0, uses_anonymous_args = 0
  90 0040 00B5     		push	{lr}
  91              		.cfi_def_cfa_offset 4
  92              		.cfi_offset 14, -4
  93 0042 87B0     		sub	sp, sp, #28
  94              		.cfi_def_cfa_offset 32
  95 0044 0590     		str	r0, [sp, #20]
  96 0046 0392     		str	r2, [sp, #12]
  97 0048 0A46     		mov	r2, r1
  98 004a 8DF81320 		strb	r2, [sp, #19]
  99 004e ADF81030 		strh	r3, [sp, #16]	@ movhi
 100              		.loc 1 97 0
 101 0052 9DF81330 		ldrb	r3, [sp, #19]	@ zero_extendqisi2
 102 0056 BDF81020 		ldrh	r2, [sp, #16]
 103 005a 0092     		str	r2, [sp]
 104 005c 0748     		ldr	r0, .L6
 105 005e 0849     		ldr	r1, .L6+4
 106 0060 1A46     		mov	r2, r3
 107 0062 039B     		ldr	r3, [sp, #12]
 108 0064 FFF7FEFF 		bl	Sensor_IO_SPI_Write
 109 0068 0346     		mov	r3, r0
 110 006a 002B     		cmp	r3, #0
 111 006c 01D0     		beq	.L4
 112              		.loc 1 99 0
 113 006e 0023     		movs	r3, #0
 114 0070 00E0     		b	.L5
ARM GAS  /tmp/cc1ELVNa.s 			page 3


 115              	.L4:
 116              		.loc 1 103 0
 117 0072 0123     		movs	r3, #1
 118              	.L5:
 119              		.loc 1 105 0
 120 0074 1846     		mov	r0, r3
 121 0076 07B0     		add	sp, sp, #28
 122              		@ sp needed
 123 0078 5DF804FB 		ldr	pc, [sp], #4
 124              	.L7:
 125              		.align	2
 126              	.L6:
 127 007c 00000000 		.word	SPID2
 128 0080 00000000 		.word	lsm303ad_accel_cfg
 129              		.cfi_endproc
 130              	.LFE268:
 131              		.size	LSM303AGR_ACC_WriteReg, .-LSM303AGR_ACC_WriteReg
 132              		.align	2
 133 0084 AFF30080 		.p2align 4,,15
 133      AFF30080 
 133      AFF30080 
 134              		.global	LSM303AGR_ACC_ReadReg
 135              		.thumb
 136              		.thumb_func
 137              		.type	LSM303AGR_ACC_ReadReg, %function
 138              	LSM303AGR_ACC_ReadReg:
 139              	.LFB269:
 140              		.loc 1 116 0
 141              		.cfi_startproc
 142              		@ args = 0, pretend = 0, frame = 16
 143              		@ frame_needed = 0, uses_anonymous_args = 0
 144 0090 00B5     		push	{lr}
 145              		.cfi_def_cfa_offset 4
 146              		.cfi_offset 14, -4
 147 0092 87B0     		sub	sp, sp, #28
 148              		.cfi_def_cfa_offset 32
 149 0094 0590     		str	r0, [sp, #20]
 150 0096 0392     		str	r2, [sp, #12]
 151 0098 0A46     		mov	r2, r1
 152 009a 8DF81320 		strb	r2, [sp, #19]
 153 009e ADF81030 		strh	r3, [sp, #16]	@ movhi
 154              		.loc 1 118 0
 155 00a2 9DF81330 		ldrb	r3, [sp, #19]	@ zero_extendqisi2
 156 00a6 BDF81020 		ldrh	r2, [sp, #16]
 157 00aa 0092     		str	r2, [sp]
 158 00ac 0748     		ldr	r0, .L11
 159 00ae 0849     		ldr	r1, .L11+4
 160 00b0 1A46     		mov	r2, r3
 161 00b2 039B     		ldr	r3, [sp, #12]
 162 00b4 FFF7FEFF 		bl	Sensor_IO_SPI_Read
 163 00b8 0346     		mov	r3, r0
 164 00ba 002B     		cmp	r3, #0
 165 00bc 01D0     		beq	.L9
 166              		.loc 1 120 0
 167 00be 0023     		movs	r3, #0
 168 00c0 00E0     		b	.L10
 169              	.L9:
ARM GAS  /tmp/cc1ELVNa.s 			page 4


 170              		.loc 1 124 0
 171 00c2 0123     		movs	r3, #1
 172              	.L10:
 173              		.loc 1 126 0
 174 00c4 1846     		mov	r0, r3
 175 00c6 07B0     		add	sp, sp, #28
 176              		@ sp needed
 177 00c8 5DF804FB 		ldr	pc, [sp], #4
 178              	.L12:
 179              		.align	2
 180              	.L11:
 181 00cc 00000000 		.word	SPID2
 182 00d0 00000000 		.word	lsm303ad_accel_cfg
 183              		.cfi_endproc
 184              	.LFE269:
 185              		.size	LSM303AGR_ACC_ReadReg, .-LSM303AGR_ACC_ReadReg
 186              		.align	2
 187 00d4 AFF30080 		.p2align 4,,15
 187      AFF30080 
 187      AFF30080 
 188              		.global	LSM303AGR_ACC_R_WHO_AM_I
 189              		.thumb
 190              		.thumb_func
 191              		.type	LSM303AGR_ACC_R_WHO_AM_I, %function
 192              	LSM303AGR_ACC_R_WHO_AM_I:
 193              	.LFB270:
 194              		.loc 1 138 0
 195              		.cfi_startproc
 196              		@ args = 0, pretend = 0, frame = 8
 197              		@ frame_needed = 0, uses_anonymous_args = 0
 198 00e0 00B5     		push	{lr}
 199              		.cfi_def_cfa_offset 4
 200              		.cfi_offset 14, -4
 201 00e2 83B0     		sub	sp, sp, #12
 202              		.cfi_def_cfa_offset 16
 203 00e4 0190     		str	r0, [sp, #4]
 204 00e6 0091     		str	r1, [sp]
 205              		.loc 1 139 0
 206 00e8 0198     		ldr	r0, [sp, #4]
 207 00ea 0F21     		movs	r1, #15
 208 00ec 009A     		ldr	r2, [sp]
 209 00ee 0123     		movs	r3, #1
 210 00f0 FFF7FEFF 		bl	LSM303AGR_ACC_ReadReg
 211 00f4 0346     		mov	r3, r0
 212 00f6 002B     		cmp	r3, #0
 213 00f8 01D1     		bne	.L14
 214              		.loc 1 140 0
 215 00fa 0023     		movs	r3, #0
 216 00fc 00E0     		b	.L15
 217              	.L14:
 218              		.loc 1 145 0
 219 00fe 0123     		movs	r3, #1
 220              	.L15:
 221              		.loc 1 146 0
 222 0100 1846     		mov	r0, r3
 223 0102 03B0     		add	sp, sp, #12
 224              		@ sp needed
ARM GAS  /tmp/cc1ELVNa.s 			page 5


 225 0104 5DF804FB 		ldr	pc, [sp], #4
 226              		.cfi_endproc
 227              	.LFE270:
 228              		.size	LSM303AGR_ACC_R_WHO_AM_I, .-LSM303AGR_ACC_R_WHO_AM_I
 229              		.align	2
 230 0108 AFF30080 		.p2align 4,,15
 230      AFF30080 
 231              		.global	LSM303AGR_ACC_W_BlockDataUpdate
 232              		.thumb
 233              		.thumb_func
 234              		.type	LSM303AGR_ACC_W_BlockDataUpdate, %function
 235              	LSM303AGR_ACC_W_BlockDataUpdate:
 236              	.LFB271:
 237              		.loc 1 156 0
 238              		.cfi_startproc
 239              		@ args = 0, pretend = 0, frame = 16
 240              		@ frame_needed = 0, uses_anonymous_args = 0
 241 0110 00B5     		push	{lr}
 242              		.cfi_def_cfa_offset 4
 243              		.cfi_offset 14, -4
 244 0112 85B0     		sub	sp, sp, #20
 245              		.cfi_def_cfa_offset 24
 246 0114 0190     		str	r0, [sp, #4]
 247 0116 0B46     		mov	r3, r1
 248 0118 8DF80330 		strb	r3, [sp, #3]
 249              		.loc 1 159 0
 250 011c 0DF10F03 		add	r3, sp, #15
 251 0120 0198     		ldr	r0, [sp, #4]
 252 0122 2321     		movs	r1, #35
 253 0124 1A46     		mov	r2, r3
 254 0126 0123     		movs	r3, #1
 255 0128 FFF7FEFF 		bl	LSM303AGR_ACC_ReadReg
 256 012c 0346     		mov	r3, r0
 257 012e 002B     		cmp	r3, #0
 258 0130 01D1     		bne	.L17
 259              		.loc 1 160 0
 260 0132 0023     		movs	r3, #0
 261 0134 1CE0     		b	.L20
 262              	.L17:
 263              		.loc 1 162 0
 264 0136 9DF80F30 		ldrb	r3, [sp, #15]	@ zero_extendqisi2
 265 013a 03F07F03 		and	r3, r3, #127
 266 013e DBB2     		uxtb	r3, r3
 267 0140 8DF80F30 		strb	r3, [sp, #15]
 268              		.loc 1 163 0
 269 0144 9DF80F20 		ldrb	r2, [sp, #15]	@ zero_extendqisi2
 270 0148 9DF80330 		ldrb	r3, [sp, #3]
 271 014c 1343     		orrs	r3, r3, r2
 272 014e DBB2     		uxtb	r3, r3
 273 0150 8DF80F30 		strb	r3, [sp, #15]
 274              		.loc 1 165 0
 275 0154 0DF10F03 		add	r3, sp, #15
 276 0158 0198     		ldr	r0, [sp, #4]
 277 015a 2321     		movs	r1, #35
 278 015c 1A46     		mov	r2, r3
 279 015e 0123     		movs	r3, #1
 280 0160 FFF7FEFF 		bl	LSM303AGR_ACC_WriteReg
ARM GAS  /tmp/cc1ELVNa.s 			page 6


 281 0164 0346     		mov	r3, r0
 282 0166 002B     		cmp	r3, #0
 283 0168 01D1     		bne	.L19
 284              		.loc 1 166 0
 285 016a 0023     		movs	r3, #0
 286 016c 00E0     		b	.L20
 287              	.L19:
 288              		.loc 1 168 0
 289 016e 0123     		movs	r3, #1
 290              	.L20:
 291              		.loc 1 169 0
 292 0170 1846     		mov	r0, r3
 293 0172 05B0     		add	sp, sp, #20
 294              		@ sp needed
 295 0174 5DF804FB 		ldr	pc, [sp], #4
 296              		.cfi_endproc
 297              	.LFE271:
 298              		.size	LSM303AGR_ACC_W_BlockDataUpdate, .-LSM303AGR_ACC_W_BlockDataUpdate
 299              		.align	2
 300 0178 AFF30080 		.p2align 4,,15
 300      AFF30080 
 301              		.global	LSM303AGR_ACC_R_BlockDataUpdate
 302              		.thumb
 303              		.thumb_func
 304              		.type	LSM303AGR_ACC_R_BlockDataUpdate, %function
 305              	LSM303AGR_ACC_R_BlockDataUpdate:
 306              	.LFB272:
 307              		.loc 1 179 0
 308              		.cfi_startproc
 309              		@ args = 0, pretend = 0, frame = 8
 310              		@ frame_needed = 0, uses_anonymous_args = 0
 311 0180 00B5     		push	{lr}
 312              		.cfi_def_cfa_offset 4
 313              		.cfi_offset 14, -4
 314 0182 83B0     		sub	sp, sp, #12
 315              		.cfi_def_cfa_offset 16
 316 0184 0190     		str	r0, [sp, #4]
 317 0186 0091     		str	r1, [sp]
 318              		.loc 1 180 0
 319 0188 0198     		ldr	r0, [sp, #4]
 320 018a 2321     		movs	r1, #35
 321 018c 009A     		ldr	r2, [sp]
 322 018e 0123     		movs	r3, #1
 323 0190 FFF7FEFF 		bl	LSM303AGR_ACC_ReadReg
 324 0194 0346     		mov	r3, r0
 325 0196 002B     		cmp	r3, #0
 326 0198 01D1     		bne	.L22
 327              		.loc 1 181 0
 328 019a 0023     		movs	r3, #0
 329 019c 07E0     		b	.L23
 330              	.L22:
 331              		.loc 1 183 0
 332 019e 009B     		ldr	r3, [sp]
 333 01a0 1B78     		ldrb	r3, [r3]	@ zero_extendqisi2
 334 01a2 23F07F03 		bic	r3, r3, #127
 335 01a6 DAB2     		uxtb	r2, r3
 336 01a8 009B     		ldr	r3, [sp]
ARM GAS  /tmp/cc1ELVNa.s 			page 7


 337 01aa 1A70     		strb	r2, [r3]
 338              		.loc 1 185 0
 339 01ac 0123     		movs	r3, #1
 340              	.L23:
 341              		.loc 1 186 0
 342 01ae 1846     		mov	r0, r3
 343 01b0 03B0     		add	sp, sp, #12
 344              		@ sp needed
 345 01b2 5DF804FB 		ldr	pc, [sp], #4
 346              		.cfi_endproc
 347              	.LFE272:
 348              		.size	LSM303AGR_ACC_R_BlockDataUpdate, .-LSM303AGR_ACC_R_BlockDataUpdate
 349 01b6 00BF     		.align	2
 350 01b8 AFF30080 		.p2align 4,,15
 350      AFF30080 
 351              		.global	LSM303AGR_ACC_W_FullScale
 352              		.thumb
 353              		.thumb_func
 354              		.type	LSM303AGR_ACC_W_FullScale, %function
 355              	LSM303AGR_ACC_W_FullScale:
 356              	.LFB273:
 357              		.loc 1 196 0
 358              		.cfi_startproc
 359              		@ args = 0, pretend = 0, frame = 16
 360              		@ frame_needed = 0, uses_anonymous_args = 0
 361 01c0 00B5     		push	{lr}
 362              		.cfi_def_cfa_offset 4
 363              		.cfi_offset 14, -4
 364 01c2 85B0     		sub	sp, sp, #20
 365              		.cfi_def_cfa_offset 24
 366 01c4 0190     		str	r0, [sp, #4]
 367 01c6 0B46     		mov	r3, r1
 368 01c8 8DF80330 		strb	r3, [sp, #3]
 369              		.loc 1 199 0
 370 01cc 0DF10F03 		add	r3, sp, #15
 371 01d0 0198     		ldr	r0, [sp, #4]
 372 01d2 2321     		movs	r1, #35
 373 01d4 1A46     		mov	r2, r3
 374 01d6 0123     		movs	r3, #1
 375 01d8 FFF7FEFF 		bl	LSM303AGR_ACC_ReadReg
 376 01dc 0346     		mov	r3, r0
 377 01de 002B     		cmp	r3, #0
 378 01e0 01D1     		bne	.L25
 379              		.loc 1 200 0
 380 01e2 0023     		movs	r3, #0
 381 01e4 1CE0     		b	.L28
 382              	.L25:
 383              		.loc 1 202 0
 384 01e6 9DF80F30 		ldrb	r3, [sp, #15]	@ zero_extendqisi2
 385 01ea 23F03003 		bic	r3, r3, #48
 386 01ee DBB2     		uxtb	r3, r3
 387 01f0 8DF80F30 		strb	r3, [sp, #15]
 388              		.loc 1 203 0
 389 01f4 9DF80F20 		ldrb	r2, [sp, #15]	@ zero_extendqisi2
 390 01f8 9DF80330 		ldrb	r3, [sp, #3]
 391 01fc 1343     		orrs	r3, r3, r2
 392 01fe DBB2     		uxtb	r3, r3
ARM GAS  /tmp/cc1ELVNa.s 			page 8


 393 0200 8DF80F30 		strb	r3, [sp, #15]
 394              		.loc 1 205 0
 395 0204 0DF10F03 		add	r3, sp, #15
 396 0208 0198     		ldr	r0, [sp, #4]
 397 020a 2321     		movs	r1, #35
 398 020c 1A46     		mov	r2, r3
 399 020e 0123     		movs	r3, #1
 400 0210 FFF7FEFF 		bl	LSM303AGR_ACC_WriteReg
 401 0214 0346     		mov	r3, r0
 402 0216 002B     		cmp	r3, #0
 403 0218 01D1     		bne	.L27
 404              		.loc 1 206 0
 405 021a 0023     		movs	r3, #0
 406 021c 00E0     		b	.L28
 407              	.L27:
 408              		.loc 1 208 0
 409 021e 0123     		movs	r3, #1
 410              	.L28:
 411              		.loc 1 209 0
 412 0220 1846     		mov	r0, r3
 413 0222 05B0     		add	sp, sp, #20
 414              		@ sp needed
 415 0224 5DF804FB 		ldr	pc, [sp], #4
 416              		.cfi_endproc
 417              	.LFE273:
 418              		.size	LSM303AGR_ACC_W_FullScale, .-LSM303AGR_ACC_W_FullScale
 419              		.align	2
 420 0228 AFF30080 		.p2align 4,,15
 420      AFF30080 
 421              		.global	LSM303AGR_ACC_R_FullScale
 422              		.thumb
 423              		.thumb_func
 424              		.type	LSM303AGR_ACC_R_FullScale, %function
 425              	LSM303AGR_ACC_R_FullScale:
 426              	.LFB274:
 427              		.loc 1 219 0
 428              		.cfi_startproc
 429              		@ args = 0, pretend = 0, frame = 8
 430              		@ frame_needed = 0, uses_anonymous_args = 0
 431 0230 00B5     		push	{lr}
 432              		.cfi_def_cfa_offset 4
 433              		.cfi_offset 14, -4
 434 0232 83B0     		sub	sp, sp, #12
 435              		.cfi_def_cfa_offset 16
 436 0234 0190     		str	r0, [sp, #4]
 437 0236 0091     		str	r1, [sp]
 438              		.loc 1 220 0
 439 0238 0198     		ldr	r0, [sp, #4]
 440 023a 2321     		movs	r1, #35
 441 023c 009A     		ldr	r2, [sp]
 442 023e 0123     		movs	r3, #1
 443 0240 FFF7FEFF 		bl	LSM303AGR_ACC_ReadReg
 444 0244 0346     		mov	r3, r0
 445 0246 002B     		cmp	r3, #0
 446 0248 01D1     		bne	.L30
 447              		.loc 1 221 0
 448 024a 0023     		movs	r3, #0
ARM GAS  /tmp/cc1ELVNa.s 			page 9


 449 024c 07E0     		b	.L31
 450              	.L30:
 451              		.loc 1 223 0
 452 024e 009B     		ldr	r3, [sp]
 453 0250 1B78     		ldrb	r3, [r3]	@ zero_extendqisi2
 454 0252 03F03003 		and	r3, r3, #48
 455 0256 DAB2     		uxtb	r2, r3
 456 0258 009B     		ldr	r3, [sp]
 457 025a 1A70     		strb	r2, [r3]
 458              		.loc 1 225 0
 459 025c 0123     		movs	r3, #1
 460              	.L31:
 461              		.loc 1 226 0
 462 025e 1846     		mov	r0, r3
 463 0260 03B0     		add	sp, sp, #12
 464              		@ sp needed
 465 0262 5DF804FB 		ldr	pc, [sp], #4
 466              		.cfi_endproc
 467              	.LFE274:
 468              		.size	LSM303AGR_ACC_R_FullScale, .-LSM303AGR_ACC_R_FullScale
 469 0266 00BF     		.align	2
 470 0268 AFF30080 		.p2align 4,,15
 470      AFF30080 
 471              		.global	LSM303AGR_ACC_Get_Raw_Acceleration
 472              		.thumb
 473              		.thumb_func
 474              		.type	LSM303AGR_ACC_Get_Raw_Acceleration, %function
 475              	LSM303AGR_ACC_Get_Raw_Acceleration:
 476              	.LFB275:
 477              		.loc 1 236 0
 478              		.cfi_startproc
 479              		@ args = 0, pretend = 0, frame = 8
 480              		@ frame_needed = 0, uses_anonymous_args = 0
 481 0270 00B5     		push	{lr}
 482              		.cfi_def_cfa_offset 4
 483              		.cfi_offset 14, -4
 484 0272 83B0     		sub	sp, sp, #12
 485              		.cfi_def_cfa_offset 16
 486 0274 0190     		str	r0, [sp, #4]
 487 0276 0091     		str	r1, [sp]
 488              		.loc 1 237 0
 489 0278 0198     		ldr	r0, [sp, #4]
 490 027a 2821     		movs	r1, #40
 491 027c 009A     		ldr	r2, [sp]
 492 027e 0623     		movs	r3, #6
 493 0280 FFF7FEFF 		bl	LSM303AGR_ACC_ReadReg
 494 0284 0346     		mov	r3, r0
 495 0286 002B     		cmp	r3, #0
 496 0288 01D1     		bne	.L33
 497              		.loc 1 238 0
 498 028a 0023     		movs	r3, #0
 499 028c 00E0     		b	.L34
 500              	.L33:
 501              		.loc 1 240 0
 502 028e 0123     		movs	r3, #1
 503              	.L34:
 504              		.loc 1 241 0
ARM GAS  /tmp/cc1ELVNa.s 			page 10


 505 0290 1846     		mov	r0, r3
 506 0292 03B0     		add	sp, sp, #12
 507              		@ sp needed
 508 0294 5DF804FB 		ldr	pc, [sp], #4
 509              		.cfi_endproc
 510              	.LFE275:
 511              		.size	LSM303AGR_ACC_Get_Raw_Acceleration, .-LSM303AGR_ACC_Get_Raw_Acceleration
 512              		.global	LSM303AGR_ACC_Sensitivity_List
 513              		.section	.rodata
 514              		.align	3
 515              		.type	LSM303AGR_ACC_Sensitivity_List, %object
 516              		.size	LSM303AGR_ACC_Sensitivity_List, 96
 517              	LSM303AGR_ACC_Sensitivity_List:
 518 0000 D4030000 		.word	980
 519 0004 00000000 		.word	0
 520 0008 9E070000 		.word	1950
 521 000c 00000000 		.word	0
 522 0010 3C0F0000 		.word	3900
 523 0014 00000000 		.word	0
 524 0018 C82D0000 		.word	11720
 525 001c 00000000 		.word	0
 526 0020 3C0F0000 		.word	3900
 527 0024 00000000 		.word	0
 528 0028 8C1E0000 		.word	7820
 529 002c 00000000 		.word	0
 530 0030 0E3D0000 		.word	15630
 531 0034 00000000 		.word	0
 532 0038 34B70000 		.word	46900
 533 003c 00000000 		.word	0
 534 0040 0E3D0000 		.word	15630
 535 0044 00000000 		.word	0
 536 0048 1C7A0000 		.word	31260
 537 004c 00000000 		.word	0
 538 0050 38F40000 		.word	62520
 539 0054 00000000 		.word	0
 540 0058 BCDC0200 		.word	187580
 541 005c 00000000 		.word	0
 542              		.global	__aeabi_ldivmod
 543              		.text
 544              		.align	2
 545 0298 AFF30080 		.p2align 4,,15
 545      AFF30080 
 546              		.global	LSM303AGR_ACC_Get_Acceleration
 547              		.thumb
 548              		.thumb_func
 549              		.type	LSM303AGR_ACC_Get_Acceleration, %function
 550              	LSM303AGR_ACC_Get_Acceleration:
 551              	.LFB276:
 552              		.loc 1 281 0
 553              		.cfi_startproc
 554              		@ args = 0, pretend = 0, frame = 24
 555              		@ frame_needed = 0, uses_anonymous_args = 0
 556 02a0 70B5     		push	{r4, r5, r6, lr}
 557              		.cfi_def_cfa_offset 16
 558              		.cfi_offset 4, -16
 559              		.cfi_offset 5, -12
 560              		.cfi_offset 6, -8
ARM GAS  /tmp/cc1ELVNa.s 			page 11


 561              		.cfi_offset 14, -4
 562 02a2 86B0     		sub	sp, sp, #24
 563              		.cfi_def_cfa_offset 40
 564 02a4 0190     		str	r0, [sp, #4]
 565 02a6 0091     		str	r1, [sp]
 566              		.loc 1 283 0
 567 02a8 0023     		movs	r3, #0
 568 02aa 8DF81730 		strb	r3, [sp, #23]
 569 02ae 0023     		movs	r3, #0
 570 02b0 8DF81630 		strb	r3, [sp, #22]
 571 02b4 0023     		movs	r3, #0
 572 02b6 8DF81530 		strb	r3, [sp, #21]
 573              		.loc 1 289 0
 574 02ba 0DF10A03 		add	r3, sp, #10
 575 02be 0198     		ldr	r0, [sp, #4]
 576 02c0 1946     		mov	r1, r3
 577 02c2 FFF7FEFF 		bl	LSM303AGR_ACC_R_HiRes
 578              		.loc 1 290 0
 579 02c6 0DF10B03 		add	r3, sp, #11
 580 02ca 0198     		ldr	r0, [sp, #4]
 581 02cc 1946     		mov	r1, r3
 582 02ce FFF7FEFF 		bl	LSM303AGR_ACC_R_LOWPWR_EN
 583              		.loc 1 292 0
 584 02d2 9DF80B30 		ldrb	r3, [sp, #11]	@ zero_extendqisi2
 585 02d6 082B     		cmp	r3, #8
 586 02d8 0AD1     		bne	.L36
 587              		.loc 1 292 0 is_stmt 0 discriminator 1
 588 02da 9DF80A30 		ldrb	r3, [sp, #10]	@ zero_extendqisi2
 589 02de 002B     		cmp	r3, #0
 590 02e0 06D1     		bne	.L36
 591              		.loc 1 295 0 is_stmt 1
 592 02e2 0223     		movs	r3, #2
 593 02e4 8DF81730 		strb	r3, [sp, #23]
 594              		.loc 1 296 0
 595 02e8 0823     		movs	r3, #8
 596 02ea 8DF81530 		strb	r3, [sp, #21]
 597 02ee 1FE0     		b	.L37
 598              	.L36:
 599              		.loc 1 298 0
 600 02f0 9DF80B30 		ldrb	r3, [sp, #11]	@ zero_extendqisi2
 601 02f4 002B     		cmp	r3, #0
 602 02f6 0AD1     		bne	.L38
 603              		.loc 1 298 0 is_stmt 0 discriminator 1
 604 02f8 9DF80A30 		ldrb	r3, [sp, #10]	@ zero_extendqisi2
 605 02fc 002B     		cmp	r3, #0
 606 02fe 06D1     		bne	.L38
 607              		.loc 1 301 0 is_stmt 1
 608 0300 0123     		movs	r3, #1
 609 0302 8DF81730 		strb	r3, [sp, #23]
 610              		.loc 1 302 0
 611 0306 0623     		movs	r3, #6
 612 0308 8DF81530 		strb	r3, [sp, #21]
 613 030c 10E0     		b	.L37
 614              	.L38:
 615              		.loc 1 304 0
 616 030e 9DF80B30 		ldrb	r3, [sp, #11]	@ zero_extendqisi2
 617 0312 002B     		cmp	r3, #0
ARM GAS  /tmp/cc1ELVNa.s 			page 12


 618 0314 0AD1     		bne	.L39
 619              		.loc 1 304 0 is_stmt 0 discriminator 1
 620 0316 9DF80A30 		ldrb	r3, [sp, #10]	@ zero_extendqisi2
 621 031a 082B     		cmp	r3, #8
 622 031c 06D1     		bne	.L39
 623              		.loc 1 307 0 is_stmt 1
 624 031e 0023     		movs	r3, #0
 625 0320 8DF81730 		strb	r3, [sp, #23]
 626              		.loc 1 308 0
 627 0324 0423     		movs	r3, #4
 628 0326 8DF81530 		strb	r3, [sp, #21]
 629 032a 01E0     		b	.L37
 630              	.L39:
 631              		.loc 1 311 0
 632 032c 0023     		movs	r3, #0
 633 032e B8E0     		b	.L47
 634              	.L37:
 635              		.loc 1 314 0
 636 0330 0DF10903 		add	r3, sp, #9
 637 0334 0198     		ldr	r0, [sp, #4]
 638 0336 1946     		mov	r1, r3
 639 0338 FFF7FEFF 		bl	LSM303AGR_ACC_R_FullScale
 640              		.loc 1 315 0
 641 033c 9DF80930 		ldrb	r3, [sp, #9]	@ zero_extendqisi2
 642 0340 102B     		cmp	r3, #16
 643 0342 0DD0     		beq	.L42
 644 0344 102B     		cmp	r3, #16
 645 0346 02DC     		bgt	.L43
 646 0348 002B     		cmp	r3, #0
 647 034a 05D0     		beq	.L44
 648 034c 14E0     		b	.L41
 649              	.L43:
 650 034e 202B     		cmp	r3, #32
 651 0350 0AD0     		beq	.L45
 652 0352 302B     		cmp	r3, #48
 653 0354 0CD0     		beq	.L46
 654 0356 0FE0     		b	.L41
 655              	.L44:
 656              		.loc 1 318 0
 657 0358 0023     		movs	r3, #0
 658 035a 8DF81630 		strb	r3, [sp, #22]
 659              		.loc 1 319 0
 660 035e 0BE0     		b	.L41
 661              	.L42:
 662              		.loc 1 322 0
 663 0360 0123     		movs	r3, #1
 664 0362 8DF81630 		strb	r3, [sp, #22]
 665              		.loc 1 323 0
 666 0366 07E0     		b	.L41
 667              	.L45:
 668              		.loc 1 326 0
 669 0368 0223     		movs	r3, #2
 670 036a 8DF81630 		strb	r3, [sp, #22]
 671              		.loc 1 327 0
 672 036e 03E0     		b	.L41
 673              	.L46:
 674              		.loc 1 330 0
ARM GAS  /tmp/cc1ELVNa.s 			page 13


 675 0370 0323     		movs	r3, #3
 676 0372 8DF81630 		strb	r3, [sp, #22]
 677              		.loc 1 331 0
 678 0376 00BF     		nop
 679              	.L41:
 680              		.loc 1 335 0
 681 0378 03AB     		add	r3, sp, #12
 682 037a 0198     		ldr	r0, [sp, #4]
 683 037c 1946     		mov	r1, r3
 684 037e FFF7FEFF 		bl	LSM303AGR_ACC_Get_Raw_Acceleration
 685              		.loc 1 338 0
 686 0382 BDF80C30 		ldrh	r3, [sp, #12]
 687 0386 1AB2     		sxth	r2, r3
 688 0388 9DF81530 		ldrb	r3, [sp, #21]	@ zero_extendqisi2
 689 038c 42FA03F3 		asr	r3, r2, r3
 690 0390 1846     		mov	r0, r3
 691 0392 4FEAE071 		asr	r1, r0, #31
 692 0396 9DF81740 		ldrb	r4, [sp, #23]	@ zero_extendqisi2
 693 039a 9DF81630 		ldrb	r3, [sp, #22]	@ zero_extendqisi2
 694 039e 424A     		ldr	r2, .L48
 695 03a0 A400     		lsls	r4, r4, #2
 696 03a2 2344     		add	r3, r3, r4
 697 03a4 DB00     		lsls	r3, r3, #3
 698 03a6 1344     		add	r3, r3, r2
 699 03a8 D3E90023 		ldrd	r2, [r3]
 700 03ac 02FB01F5 		mul	r5, r2, r1
 701 03b0 00FB03F4 		mul	r4, r0, r3
 702 03b4 2C44     		add	r4, r4, r5
 703 03b6 A0FB0223 		umull	r2, r3, r0, r2
 704 03ba E118     		adds	r1, r4, r3
 705 03bc 0B46     		mov	r3, r1
 706 03be 12F5FA72 		adds	r2, r2, #500
 707 03c2 43F10003 		adc	r3, r3, #0
 708 03c6 1046     		mov	r0, r2
 709 03c8 1946     		mov	r1, r3
 710 03ca 4FF47A72 		mov	r2, #1000
 711 03ce 4FF00003 		mov	r3, #0
 712 03d2 FFF7FEFF 		bl	__aeabi_ldivmod
 713 03d6 0246     		mov	r2, r0
 714 03d8 0B46     		mov	r3, r1
 715 03da 009B     		ldr	r3, [sp]
 716 03dc 1A60     		str	r2, [r3]
 717              		.loc 1 339 0
 718 03de 009B     		ldr	r3, [sp]
 719 03e0 1C1D     		adds	r4, r3, #4
 720 03e2 BDF80E30 		ldrh	r3, [sp, #14]
 721 03e6 1AB2     		sxth	r2, r3
 722 03e8 9DF81530 		ldrb	r3, [sp, #21]	@ zero_extendqisi2
 723 03ec 42FA03F3 		asr	r3, r2, r3
 724 03f0 1846     		mov	r0, r3
 725 03f2 4FEAE071 		asr	r1, r0, #31
 726 03f6 9DF81750 		ldrb	r5, [sp, #23]	@ zero_extendqisi2
 727 03fa 9DF81630 		ldrb	r3, [sp, #22]	@ zero_extendqisi2
 728 03fe 2A4A     		ldr	r2, .L48
 729 0400 AD00     		lsls	r5, r5, #2
 730 0402 2B44     		add	r3, r3, r5
 731 0404 DB00     		lsls	r3, r3, #3
ARM GAS  /tmp/cc1ELVNa.s 			page 14


 732 0406 1344     		add	r3, r3, r2
 733 0408 D3E90023 		ldrd	r2, [r3]
 734 040c 02FB01F6 		mul	r6, r2, r1
 735 0410 00FB03F5 		mul	r5, r0, r3
 736 0414 3544     		add	r5, r5, r6
 737 0416 A0FB0223 		umull	r2, r3, r0, r2
 738 041a E918     		adds	r1, r5, r3
 739 041c 0B46     		mov	r3, r1
 740 041e 12F5FA72 		adds	r2, r2, #500
 741 0422 43F10003 		adc	r3, r3, #0
 742 0426 1046     		mov	r0, r2
 743 0428 1946     		mov	r1, r3
 744 042a 4FF47A72 		mov	r2, #1000
 745 042e 4FF00003 		mov	r3, #0
 746 0432 FFF7FEFF 		bl	__aeabi_ldivmod
 747 0436 0246     		mov	r2, r0
 748 0438 0B46     		mov	r3, r1
 749 043a 1346     		mov	r3, r2
 750 043c 2360     		str	r3, [r4]
 751              		.loc 1 340 0
 752 043e 009B     		ldr	r3, [sp]
 753 0440 03F10804 		add	r4, r3, #8
 754 0444 BDF81030 		ldrh	r3, [sp, #16]
 755 0448 1AB2     		sxth	r2, r3
 756 044a 9DF81530 		ldrb	r3, [sp, #21]	@ zero_extendqisi2
 757 044e 42FA03F3 		asr	r3, r2, r3
 758 0452 1846     		mov	r0, r3
 759 0454 4FEAE071 		asr	r1, r0, #31
 760 0458 9DF81750 		ldrb	r5, [sp, #23]	@ zero_extendqisi2
 761 045c 9DF81630 		ldrb	r3, [sp, #22]	@ zero_extendqisi2
 762 0460 114A     		ldr	r2, .L48
 763 0462 AD00     		lsls	r5, r5, #2
 764 0464 2B44     		add	r3, r3, r5
 765 0466 DB00     		lsls	r3, r3, #3
 766 0468 1344     		add	r3, r3, r2
 767 046a D3E90023 		ldrd	r2, [r3]
 768 046e 02FB01F6 		mul	r6, r2, r1
 769 0472 00FB03F5 		mul	r5, r0, r3
 770 0476 3544     		add	r5, r5, r6
 771 0478 A0FB0223 		umull	r2, r3, r0, r2
 772 047c E918     		adds	r1, r5, r3
 773 047e 0B46     		mov	r3, r1
 774 0480 12F5FA72 		adds	r2, r2, #500
 775 0484 43F10003 		adc	r3, r3, #0
 776 0488 1046     		mov	r0, r2
 777 048a 1946     		mov	r1, r3
 778 048c 4FF47A72 		mov	r2, #1000
 779 0490 4FF00003 		mov	r3, #0
 780 0494 FFF7FEFF 		bl	__aeabi_ldivmod
 781 0498 0246     		mov	r2, r0
 782 049a 0B46     		mov	r3, r1
 783 049c 1346     		mov	r3, r2
 784 049e 2360     		str	r3, [r4]
 785              		.loc 1 342 0
 786 04a0 0123     		movs	r3, #1
 787              	.L47:
 788              		.loc 1 343 0
ARM GAS  /tmp/cc1ELVNa.s 			page 15


 789 04a2 1846     		mov	r0, r3
 790 04a4 06B0     		add	sp, sp, #24
 791              		@ sp needed
 792 04a6 70BD     		pop	{r4, r5, r6, pc}
 793              	.L49:
 794              		.align	2
 795              	.L48:
 796 04a8 00000000 		.word	LSM303AGR_ACC_Sensitivity_List
 797              		.cfi_endproc
 798              	.LFE276:
 799              		.size	LSM303AGR_ACC_Get_Acceleration, .-LSM303AGR_ACC_Get_Acceleration
 800              		.align	2
 801 04ac AFF30080 		.p2align 4,,15
 802              		.global	LSM303AGR_ACC_W_ODR
 803              		.thumb
 804              		.thumb_func
 805              		.type	LSM303AGR_ACC_W_ODR, %function
 806              	LSM303AGR_ACC_W_ODR:
 807              	.LFB277:
 808              		.loc 1 353 0
 809              		.cfi_startproc
 810              		@ args = 0, pretend = 0, frame = 16
 811              		@ frame_needed = 0, uses_anonymous_args = 0
 812 04b0 00B5     		push	{lr}
 813              		.cfi_def_cfa_offset 4
 814              		.cfi_offset 14, -4
 815 04b2 85B0     		sub	sp, sp, #20
 816              		.cfi_def_cfa_offset 24
 817 04b4 0190     		str	r0, [sp, #4]
 818 04b6 0B46     		mov	r3, r1
 819 04b8 8DF80330 		strb	r3, [sp, #3]
 820              		.loc 1 356 0
 821 04bc 0DF10F03 		add	r3, sp, #15
 822 04c0 0198     		ldr	r0, [sp, #4]
 823 04c2 2021     		movs	r1, #32
 824 04c4 1A46     		mov	r2, r3
 825 04c6 0123     		movs	r3, #1
 826 04c8 FFF7FEFF 		bl	LSM303AGR_ACC_ReadReg
 827 04cc 0346     		mov	r3, r0
 828 04ce 002B     		cmp	r3, #0
 829 04d0 01D1     		bne	.L51
 830              		.loc 1 357 0
 831 04d2 0023     		movs	r3, #0
 832 04d4 1CE0     		b	.L54
 833              	.L51:
 834              		.loc 1 359 0
 835 04d6 9DF80F30 		ldrb	r3, [sp, #15]	@ zero_extendqisi2
 836 04da 03F00F03 		and	r3, r3, #15
 837 04de DBB2     		uxtb	r3, r3
 838 04e0 8DF80F30 		strb	r3, [sp, #15]
 839              		.loc 1 360 0
 840 04e4 9DF80F20 		ldrb	r2, [sp, #15]	@ zero_extendqisi2
 841 04e8 9DF80330 		ldrb	r3, [sp, #3]
 842 04ec 1343     		orrs	r3, r3, r2
 843 04ee DBB2     		uxtb	r3, r3
 844 04f0 8DF80F30 		strb	r3, [sp, #15]
 845              		.loc 1 362 0
ARM GAS  /tmp/cc1ELVNa.s 			page 16


 846 04f4 0DF10F03 		add	r3, sp, #15
 847 04f8 0198     		ldr	r0, [sp, #4]
 848 04fa 2021     		movs	r1, #32
 849 04fc 1A46     		mov	r2, r3
 850 04fe 0123     		movs	r3, #1
 851 0500 FFF7FEFF 		bl	LSM303AGR_ACC_WriteReg
 852 0504 0346     		mov	r3, r0
 853 0506 002B     		cmp	r3, #0
 854 0508 01D1     		bne	.L53
 855              		.loc 1 363 0
 856 050a 0023     		movs	r3, #0
 857 050c 00E0     		b	.L54
 858              	.L53:
 859              		.loc 1 365 0
 860 050e 0123     		movs	r3, #1
 861              	.L54:
 862              		.loc 1 366 0
 863 0510 1846     		mov	r0, r3
 864 0512 05B0     		add	sp, sp, #20
 865              		@ sp needed
 866 0514 5DF804FB 		ldr	pc, [sp], #4
 867              		.cfi_endproc
 868              	.LFE277:
 869              		.size	LSM303AGR_ACC_W_ODR, .-LSM303AGR_ACC_W_ODR
 870              		.align	2
 871 0518 AFF30080 		.p2align 4,,15
 871      AFF30080 
 872              		.global	LSM303AGR_ACC_R_ODR
 873              		.thumb
 874              		.thumb_func
 875              		.type	LSM303AGR_ACC_R_ODR, %function
 876              	LSM303AGR_ACC_R_ODR:
 877              	.LFB278:
 878              		.loc 1 376 0
 879              		.cfi_startproc
 880              		@ args = 0, pretend = 0, frame = 8
 881              		@ frame_needed = 0, uses_anonymous_args = 0
 882 0520 00B5     		push	{lr}
 883              		.cfi_def_cfa_offset 4
 884              		.cfi_offset 14, -4
 885 0522 83B0     		sub	sp, sp, #12
 886              		.cfi_def_cfa_offset 16
 887 0524 0190     		str	r0, [sp, #4]
 888 0526 0091     		str	r1, [sp]
 889              		.loc 1 377 0
 890 0528 0198     		ldr	r0, [sp, #4]
 891 052a 2021     		movs	r1, #32
 892 052c 009A     		ldr	r2, [sp]
 893 052e 0123     		movs	r3, #1
 894 0530 FFF7FEFF 		bl	LSM303AGR_ACC_ReadReg
 895 0534 0346     		mov	r3, r0
 896 0536 002B     		cmp	r3, #0
 897 0538 01D1     		bne	.L56
 898              		.loc 1 378 0
 899 053a 0023     		movs	r3, #0
 900 053c 07E0     		b	.L57
 901              	.L56:
ARM GAS  /tmp/cc1ELVNa.s 			page 17


 902              		.loc 1 380 0
 903 053e 009B     		ldr	r3, [sp]
 904 0540 1B78     		ldrb	r3, [r3]	@ zero_extendqisi2
 905 0542 23F00F03 		bic	r3, r3, #15
 906 0546 DAB2     		uxtb	r2, r3
 907 0548 009B     		ldr	r3, [sp]
 908 054a 1A70     		strb	r2, [r3]
 909              		.loc 1 382 0
 910 054c 0123     		movs	r3, #1
 911              	.L57:
 912              		.loc 1 383 0
 913 054e 1846     		mov	r0, r3
 914 0550 03B0     		add	sp, sp, #12
 915              		@ sp needed
 916 0552 5DF804FB 		ldr	pc, [sp], #4
 917              		.cfi_endproc
 918              	.LFE278:
 919              		.size	LSM303AGR_ACC_R_ODR, .-LSM303AGR_ACC_R_ODR
 920 0556 00BF     		.align	2
 921 0558 AFF30080 		.p2align 4,,15
 921      AFF30080 
 922              		.global	LSM303AGR_ACC_R_x_data_avail
 923              		.thumb
 924              		.thumb_func
 925              		.type	LSM303AGR_ACC_R_x_data_avail, %function
 926              	LSM303AGR_ACC_R_x_data_avail:
 927              	.LFB279:
 928              		.loc 1 395 0
 929              		.cfi_startproc
 930              		@ args = 0, pretend = 0, frame = 8
 931              		@ frame_needed = 0, uses_anonymous_args = 0
 932 0560 00B5     		push	{lr}
 933              		.cfi_def_cfa_offset 4
 934              		.cfi_offset 14, -4
 935 0562 83B0     		sub	sp, sp, #12
 936              		.cfi_def_cfa_offset 16
 937 0564 0190     		str	r0, [sp, #4]
 938 0566 0091     		str	r1, [sp]
 939              		.loc 1 396 0
 940 0568 0198     		ldr	r0, [sp, #4]
 941 056a 0721     		movs	r1, #7
 942 056c 009A     		ldr	r2, [sp]
 943 056e 0123     		movs	r3, #1
 944 0570 FFF7FEFF 		bl	LSM303AGR_ACC_ReadReg
 945 0574 0346     		mov	r3, r0
 946 0576 002B     		cmp	r3, #0
 947 0578 01D1     		bne	.L59
 948              		.loc 1 397 0
 949 057a 0023     		movs	r3, #0
 950 057c 07E0     		b	.L60
 951              	.L59:
 952              		.loc 1 399 0
 953 057e 009B     		ldr	r3, [sp]
 954 0580 1B78     		ldrb	r3, [r3]	@ zero_extendqisi2
 955 0582 03F00103 		and	r3, r3, #1
 956 0586 DAB2     		uxtb	r2, r3
 957 0588 009B     		ldr	r3, [sp]
ARM GAS  /tmp/cc1ELVNa.s 			page 18


 958 058a 1A70     		strb	r2, [r3]
 959              		.loc 1 401 0
 960 058c 0123     		movs	r3, #1
 961              	.L60:
 962              		.loc 1 402 0
 963 058e 1846     		mov	r0, r3
 964 0590 03B0     		add	sp, sp, #12
 965              		@ sp needed
 966 0592 5DF804FB 		ldr	pc, [sp], #4
 967              		.cfi_endproc
 968              	.LFE279:
 969              		.size	LSM303AGR_ACC_R_x_data_avail, .-LSM303AGR_ACC_R_x_data_avail
 970 0596 00BF     		.align	2
 971 0598 AFF30080 		.p2align 4,,15
 971      AFF30080 
 972              		.global	LSM303AGR_ACC_R_y_data_avail
 973              		.thumb
 974              		.thumb_func
 975              		.type	LSM303AGR_ACC_R_y_data_avail, %function
 976              	LSM303AGR_ACC_R_y_data_avail:
 977              	.LFB280:
 978              		.loc 1 412 0
 979              		.cfi_startproc
 980              		@ args = 0, pretend = 0, frame = 8
 981              		@ frame_needed = 0, uses_anonymous_args = 0
 982 05a0 00B5     		push	{lr}
 983              		.cfi_def_cfa_offset 4
 984              		.cfi_offset 14, -4
 985 05a2 83B0     		sub	sp, sp, #12
 986              		.cfi_def_cfa_offset 16
 987 05a4 0190     		str	r0, [sp, #4]
 988 05a6 0091     		str	r1, [sp]
 989              		.loc 1 413 0
 990 05a8 0198     		ldr	r0, [sp, #4]
 991 05aa 0721     		movs	r1, #7
 992 05ac 009A     		ldr	r2, [sp]
 993 05ae 0123     		movs	r3, #1
 994 05b0 FFF7FEFF 		bl	LSM303AGR_ACC_ReadReg
 995 05b4 0346     		mov	r3, r0
 996 05b6 002B     		cmp	r3, #0
 997 05b8 01D1     		bne	.L62
 998              		.loc 1 414 0
 999 05ba 0023     		movs	r3, #0
 1000 05bc 07E0     		b	.L63
 1001              	.L62:
 1002              		.loc 1 416 0
 1003 05be 009B     		ldr	r3, [sp]
 1004 05c0 1B78     		ldrb	r3, [r3]	@ zero_extendqisi2
 1005 05c2 03F00203 		and	r3, r3, #2
 1006 05c6 DAB2     		uxtb	r2, r3
 1007 05c8 009B     		ldr	r3, [sp]
 1008 05ca 1A70     		strb	r2, [r3]
 1009              		.loc 1 418 0
 1010 05cc 0123     		movs	r3, #1
 1011              	.L63:
 1012              		.loc 1 419 0
 1013 05ce 1846     		mov	r0, r3
ARM GAS  /tmp/cc1ELVNa.s 			page 19


 1014 05d0 03B0     		add	sp, sp, #12
 1015              		@ sp needed
 1016 05d2 5DF804FB 		ldr	pc, [sp], #4
 1017              		.cfi_endproc
 1018              	.LFE280:
 1019              		.size	LSM303AGR_ACC_R_y_data_avail, .-LSM303AGR_ACC_R_y_data_avail
 1020 05d6 00BF     		.align	2
 1021 05d8 AFF30080 		.p2align 4,,15
 1021      AFF30080 
 1022              		.global	LSM303AGR_ACC_R_z_data_avail
 1023              		.thumb
 1024              		.thumb_func
 1025              		.type	LSM303AGR_ACC_R_z_data_avail, %function
 1026              	LSM303AGR_ACC_R_z_data_avail:
 1027              	.LFB281:
 1028              		.loc 1 429 0
 1029              		.cfi_startproc
 1030              		@ args = 0, pretend = 0, frame = 8
 1031              		@ frame_needed = 0, uses_anonymous_args = 0
 1032 05e0 00B5     		push	{lr}
 1033              		.cfi_def_cfa_offset 4
 1034              		.cfi_offset 14, -4
 1035 05e2 83B0     		sub	sp, sp, #12
 1036              		.cfi_def_cfa_offset 16
 1037 05e4 0190     		str	r0, [sp, #4]
 1038 05e6 0091     		str	r1, [sp]
 1039              		.loc 1 430 0
 1040 05e8 0198     		ldr	r0, [sp, #4]
 1041 05ea 0721     		movs	r1, #7
 1042 05ec 009A     		ldr	r2, [sp]
 1043 05ee 0123     		movs	r3, #1
 1044 05f0 FFF7FEFF 		bl	LSM303AGR_ACC_ReadReg
 1045 05f4 0346     		mov	r3, r0
 1046 05f6 002B     		cmp	r3, #0
 1047 05f8 01D1     		bne	.L65
 1048              		.loc 1 431 0
 1049 05fa 0023     		movs	r3, #0
 1050 05fc 07E0     		b	.L66
 1051              	.L65:
 1052              		.loc 1 433 0
 1053 05fe 009B     		ldr	r3, [sp]
 1054 0600 1B78     		ldrb	r3, [r3]	@ zero_extendqisi2
 1055 0602 03F00403 		and	r3, r3, #4
 1056 0606 DAB2     		uxtb	r2, r3
 1057 0608 009B     		ldr	r3, [sp]
 1058 060a 1A70     		strb	r2, [r3]
 1059              		.loc 1 435 0
 1060 060c 0123     		movs	r3, #1
 1061              	.L66:
 1062              		.loc 1 436 0
 1063 060e 1846     		mov	r0, r3
 1064 0610 03B0     		add	sp, sp, #12
 1065              		@ sp needed
 1066 0612 5DF804FB 		ldr	pc, [sp], #4
 1067              		.cfi_endproc
 1068              	.LFE281:
 1069              		.size	LSM303AGR_ACC_R_z_data_avail, .-LSM303AGR_ACC_R_z_data_avail
ARM GAS  /tmp/cc1ELVNa.s 			page 20


 1070 0616 00BF     		.align	2
 1071 0618 AFF30080 		.p2align 4,,15
 1071      AFF30080 
 1072              		.global	LSM303AGR_ACC_R_xyz_data_avail
 1073              		.thumb
 1074              		.thumb_func
 1075              		.type	LSM303AGR_ACC_R_xyz_data_avail, %function
 1076              	LSM303AGR_ACC_R_xyz_data_avail:
 1077              	.LFB282:
 1078              		.loc 1 446 0
 1079              		.cfi_startproc
 1080              		@ args = 0, pretend = 0, frame = 8
 1081              		@ frame_needed = 0, uses_anonymous_args = 0
 1082 0620 00B5     		push	{lr}
 1083              		.cfi_def_cfa_offset 4
 1084              		.cfi_offset 14, -4
 1085 0622 83B0     		sub	sp, sp, #12
 1086              		.cfi_def_cfa_offset 16
 1087 0624 0190     		str	r0, [sp, #4]
 1088 0626 0091     		str	r1, [sp]
 1089              		.loc 1 447 0
 1090 0628 0198     		ldr	r0, [sp, #4]
 1091 062a 0721     		movs	r1, #7
 1092 062c 009A     		ldr	r2, [sp]
 1093 062e 0123     		movs	r3, #1
 1094 0630 FFF7FEFF 		bl	LSM303AGR_ACC_ReadReg
 1095 0634 0346     		mov	r3, r0
 1096 0636 002B     		cmp	r3, #0
 1097 0638 01D1     		bne	.L68
 1098              		.loc 1 448 0
 1099 063a 0023     		movs	r3, #0
 1100 063c 07E0     		b	.L69
 1101              	.L68:
 1102              		.loc 1 450 0
 1103 063e 009B     		ldr	r3, [sp]
 1104 0640 1B78     		ldrb	r3, [r3]	@ zero_extendqisi2
 1105 0642 03F00803 		and	r3, r3, #8
 1106 0646 DAB2     		uxtb	r2, r3
 1107 0648 009B     		ldr	r3, [sp]
 1108 064a 1A70     		strb	r2, [r3]
 1109              		.loc 1 452 0
 1110 064c 0123     		movs	r3, #1
 1111              	.L69:
 1112              		.loc 1 453 0
 1113 064e 1846     		mov	r0, r3
 1114 0650 03B0     		add	sp, sp, #12
 1115              		@ sp needed
 1116 0652 5DF804FB 		ldr	pc, [sp], #4
 1117              		.cfi_endproc
 1118              	.LFE282:
 1119              		.size	LSM303AGR_ACC_R_xyz_data_avail, .-LSM303AGR_ACC_R_xyz_data_avail
 1120 0656 00BF     		.align	2
 1121 0658 AFF30080 		.p2align 4,,15
 1121      AFF30080 
 1122              		.global	LSM303AGR_ACC_R_DataXOverrun
 1123              		.thumb
 1124              		.thumb_func
ARM GAS  /tmp/cc1ELVNa.s 			page 21


 1125              		.type	LSM303AGR_ACC_R_DataXOverrun, %function
 1126              	LSM303AGR_ACC_R_DataXOverrun:
 1127              	.LFB283:
 1128              		.loc 1 463 0
 1129              		.cfi_startproc
 1130              		@ args = 0, pretend = 0, frame = 8
 1131              		@ frame_needed = 0, uses_anonymous_args = 0
 1132 0660 00B5     		push	{lr}
 1133              		.cfi_def_cfa_offset 4
 1134              		.cfi_offset 14, -4
 1135 0662 83B0     		sub	sp, sp, #12
 1136              		.cfi_def_cfa_offset 16
 1137 0664 0190     		str	r0, [sp, #4]
 1138 0666 0091     		str	r1, [sp]
 1139              		.loc 1 464 0
 1140 0668 0198     		ldr	r0, [sp, #4]
 1141 066a 0721     		movs	r1, #7
 1142 066c 009A     		ldr	r2, [sp]
 1143 066e 0123     		movs	r3, #1
 1144 0670 FFF7FEFF 		bl	LSM303AGR_ACC_ReadReg
 1145 0674 0346     		mov	r3, r0
 1146 0676 002B     		cmp	r3, #0
 1147 0678 01D1     		bne	.L71
 1148              		.loc 1 465 0
 1149 067a 0023     		movs	r3, #0
 1150 067c 07E0     		b	.L72
 1151              	.L71:
 1152              		.loc 1 467 0
 1153 067e 009B     		ldr	r3, [sp]
 1154 0680 1B78     		ldrb	r3, [r3]	@ zero_extendqisi2
 1155 0682 03F01003 		and	r3, r3, #16
 1156 0686 DAB2     		uxtb	r2, r3
 1157 0688 009B     		ldr	r3, [sp]
 1158 068a 1A70     		strb	r2, [r3]
 1159              		.loc 1 469 0
 1160 068c 0123     		movs	r3, #1
 1161              	.L72:
 1162              		.loc 1 470 0
 1163 068e 1846     		mov	r0, r3
 1164 0690 03B0     		add	sp, sp, #12
 1165              		@ sp needed
 1166 0692 5DF804FB 		ldr	pc, [sp], #4
 1167              		.cfi_endproc
 1168              	.LFE283:
 1169              		.size	LSM303AGR_ACC_R_DataXOverrun, .-LSM303AGR_ACC_R_DataXOverrun
 1170 0696 00BF     		.align	2
 1171 0698 AFF30080 		.p2align 4,,15
 1171      AFF30080 
 1172              		.global	LSM303AGR_ACC_R_DataYOverrun
 1173              		.thumb
 1174              		.thumb_func
 1175              		.type	LSM303AGR_ACC_R_DataYOverrun, %function
 1176              	LSM303AGR_ACC_R_DataYOverrun:
 1177              	.LFB284:
 1178              		.loc 1 480 0
 1179              		.cfi_startproc
 1180              		@ args = 0, pretend = 0, frame = 8
ARM GAS  /tmp/cc1ELVNa.s 			page 22


 1181              		@ frame_needed = 0, uses_anonymous_args = 0
 1182 06a0 00B5     		push	{lr}
 1183              		.cfi_def_cfa_offset 4
 1184              		.cfi_offset 14, -4
 1185 06a2 83B0     		sub	sp, sp, #12
 1186              		.cfi_def_cfa_offset 16
 1187 06a4 0190     		str	r0, [sp, #4]
 1188 06a6 0091     		str	r1, [sp]
 1189              		.loc 1 481 0
 1190 06a8 0198     		ldr	r0, [sp, #4]
 1191 06aa 0721     		movs	r1, #7
 1192 06ac 009A     		ldr	r2, [sp]
 1193 06ae 0123     		movs	r3, #1
 1194 06b0 FFF7FEFF 		bl	LSM303AGR_ACC_ReadReg
 1195 06b4 0346     		mov	r3, r0
 1196 06b6 002B     		cmp	r3, #0
 1197 06b8 01D1     		bne	.L74
 1198              		.loc 1 482 0
 1199 06ba 0023     		movs	r3, #0
 1200 06bc 07E0     		b	.L75
 1201              	.L74:
 1202              		.loc 1 484 0
 1203 06be 009B     		ldr	r3, [sp]
 1204 06c0 1B78     		ldrb	r3, [r3]	@ zero_extendqisi2
 1205 06c2 03F02003 		and	r3, r3, #32
 1206 06c6 DAB2     		uxtb	r2, r3
 1207 06c8 009B     		ldr	r3, [sp]
 1208 06ca 1A70     		strb	r2, [r3]
 1209              		.loc 1 486 0
 1210 06cc 0123     		movs	r3, #1
 1211              	.L75:
 1212              		.loc 1 487 0
 1213 06ce 1846     		mov	r0, r3
 1214 06d0 03B0     		add	sp, sp, #12
 1215              		@ sp needed
 1216 06d2 5DF804FB 		ldr	pc, [sp], #4
 1217              		.cfi_endproc
 1218              	.LFE284:
 1219              		.size	LSM303AGR_ACC_R_DataYOverrun, .-LSM303AGR_ACC_R_DataYOverrun
 1220 06d6 00BF     		.align	2
 1221 06d8 AFF30080 		.p2align 4,,15
 1221      AFF30080 
 1222              		.global	LSM303AGR_ACC_R_DataZOverrun
 1223              		.thumb
 1224              		.thumb_func
 1225              		.type	LSM303AGR_ACC_R_DataZOverrun, %function
 1226              	LSM303AGR_ACC_R_DataZOverrun:
 1227              	.LFB285:
 1228              		.loc 1 497 0
 1229              		.cfi_startproc
 1230              		@ args = 0, pretend = 0, frame = 8
 1231              		@ frame_needed = 0, uses_anonymous_args = 0
 1232 06e0 00B5     		push	{lr}
 1233              		.cfi_def_cfa_offset 4
 1234              		.cfi_offset 14, -4
 1235 06e2 83B0     		sub	sp, sp, #12
 1236              		.cfi_def_cfa_offset 16
ARM GAS  /tmp/cc1ELVNa.s 			page 23


 1237 06e4 0190     		str	r0, [sp, #4]
 1238 06e6 0091     		str	r1, [sp]
 1239              		.loc 1 498 0
 1240 06e8 0198     		ldr	r0, [sp, #4]
 1241 06ea 0721     		movs	r1, #7
 1242 06ec 009A     		ldr	r2, [sp]
 1243 06ee 0123     		movs	r3, #1
 1244 06f0 FFF7FEFF 		bl	LSM303AGR_ACC_ReadReg
 1245 06f4 0346     		mov	r3, r0
 1246 06f6 002B     		cmp	r3, #0
 1247 06f8 01D1     		bne	.L77
 1248              		.loc 1 499 0
 1249 06fa 0023     		movs	r3, #0
 1250 06fc 07E0     		b	.L78
 1251              	.L77:
 1252              		.loc 1 501 0
 1253 06fe 009B     		ldr	r3, [sp]
 1254 0700 1B78     		ldrb	r3, [r3]	@ zero_extendqisi2
 1255 0702 03F04003 		and	r3, r3, #64
 1256 0706 DAB2     		uxtb	r2, r3
 1257 0708 009B     		ldr	r3, [sp]
 1258 070a 1A70     		strb	r2, [r3]
 1259              		.loc 1 503 0
 1260 070c 0123     		movs	r3, #1
 1261              	.L78:
 1262              		.loc 1 504 0
 1263 070e 1846     		mov	r0, r3
 1264 0710 03B0     		add	sp, sp, #12
 1265              		@ sp needed
 1266 0712 5DF804FB 		ldr	pc, [sp], #4
 1267              		.cfi_endproc
 1268              	.LFE285:
 1269              		.size	LSM303AGR_ACC_R_DataZOverrun, .-LSM303AGR_ACC_R_DataZOverrun
 1270 0716 00BF     		.align	2
 1271 0718 AFF30080 		.p2align 4,,15
 1271      AFF30080 
 1272              		.global	LSM303AGR_ACC_R_DataXYZOverrun
 1273              		.thumb
 1274              		.thumb_func
 1275              		.type	LSM303AGR_ACC_R_DataXYZOverrun, %function
 1276              	LSM303AGR_ACC_R_DataXYZOverrun:
 1277              	.LFB286:
 1278              		.loc 1 514 0
 1279              		.cfi_startproc
 1280              		@ args = 0, pretend = 0, frame = 8
 1281              		@ frame_needed = 0, uses_anonymous_args = 0
 1282 0720 00B5     		push	{lr}
 1283              		.cfi_def_cfa_offset 4
 1284              		.cfi_offset 14, -4
 1285 0722 83B0     		sub	sp, sp, #12
 1286              		.cfi_def_cfa_offset 16
 1287 0724 0190     		str	r0, [sp, #4]
 1288 0726 0091     		str	r1, [sp]
 1289              		.loc 1 515 0
 1290 0728 0198     		ldr	r0, [sp, #4]
 1291 072a 0721     		movs	r1, #7
 1292 072c 009A     		ldr	r2, [sp]
ARM GAS  /tmp/cc1ELVNa.s 			page 24


 1293 072e 0123     		movs	r3, #1
 1294 0730 FFF7FEFF 		bl	LSM303AGR_ACC_ReadReg
 1295 0734 0346     		mov	r3, r0
 1296 0736 002B     		cmp	r3, #0
 1297 0738 01D1     		bne	.L80
 1298              		.loc 1 516 0
 1299 073a 0023     		movs	r3, #0
 1300 073c 07E0     		b	.L81
 1301              	.L80:
 1302              		.loc 1 518 0
 1303 073e 009B     		ldr	r3, [sp]
 1304 0740 1B78     		ldrb	r3, [r3]	@ zero_extendqisi2
 1305 0742 23F07F03 		bic	r3, r3, #127
 1306 0746 DAB2     		uxtb	r2, r3
 1307 0748 009B     		ldr	r3, [sp]
 1308 074a 1A70     		strb	r2, [r3]
 1309              		.loc 1 520 0
 1310 074c 0123     		movs	r3, #1
 1311              	.L81:
 1312              		.loc 1 521 0
 1313 074e 1846     		mov	r0, r3
 1314 0750 03B0     		add	sp, sp, #12
 1315              		@ sp needed
 1316 0752 5DF804FB 		ldr	pc, [sp], #4
 1317              		.cfi_endproc
 1318              	.LFE286:
 1319              		.size	LSM303AGR_ACC_R_DataXYZOverrun, .-LSM303AGR_ACC_R_DataXYZOverrun
 1320 0756 00BF     		.align	2
 1321 0758 AFF30080 		.p2align 4,,15
 1321      AFF30080 
 1322              		.global	LSM303AGR_ACC_R_int_counter
 1323              		.thumb
 1324              		.thumb_func
 1325              		.type	LSM303AGR_ACC_R_int_counter, %function
 1326              	LSM303AGR_ACC_R_int_counter:
 1327              	.LFB287:
 1328              		.loc 1 531 0
 1329              		.cfi_startproc
 1330              		@ args = 0, pretend = 0, frame = 8
 1331              		@ frame_needed = 0, uses_anonymous_args = 0
 1332 0760 00B5     		push	{lr}
 1333              		.cfi_def_cfa_offset 4
 1334              		.cfi_offset 14, -4
 1335 0762 83B0     		sub	sp, sp, #12
 1336              		.cfi_def_cfa_offset 16
 1337 0764 0190     		str	r0, [sp, #4]
 1338 0766 0091     		str	r1, [sp]
 1339              		.loc 1 532 0
 1340 0768 0198     		ldr	r0, [sp, #4]
 1341 076a 0E21     		movs	r1, #14
 1342 076c 009A     		ldr	r2, [sp]
 1343 076e 0123     		movs	r3, #1
 1344 0770 FFF7FEFF 		bl	LSM303AGR_ACC_ReadReg
 1345 0774 0346     		mov	r3, r0
 1346 0776 002B     		cmp	r3, #0
 1347 0778 01D1     		bne	.L83
 1348              		.loc 1 533 0
ARM GAS  /tmp/cc1ELVNa.s 			page 25


 1349 077a 0023     		movs	r3, #0
 1350 077c 08E0     		b	.L84
 1351              	.L83:
 1352              		.loc 1 535 0
 1353 077e 009B     		ldr	r3, [sp]
 1354 0780 1A78     		ldrb	r2, [r3]	@ zero_extendqisi2
 1355 0782 009B     		ldr	r3, [sp]
 1356 0784 1A70     		strb	r2, [r3]
 1357              		.loc 1 536 0
 1358 0786 009B     		ldr	r3, [sp]
 1359 0788 1A78     		ldrb	r2, [r3]	@ zero_extendqisi2
 1360 078a 009B     		ldr	r3, [sp]
 1361 078c 1A70     		strb	r2, [r3]
 1362              		.loc 1 538 0
 1363 078e 0123     		movs	r3, #1
 1364              	.L84:
 1365              		.loc 1 539 0
 1366 0790 1846     		mov	r0, r3
 1367 0792 03B0     		add	sp, sp, #12
 1368              		@ sp needed
 1369 0794 5DF804FB 		ldr	pc, [sp], #4
 1370              		.cfi_endproc
 1371              	.LFE287:
 1372              		.size	LSM303AGR_ACC_R_int_counter, .-LSM303AGR_ACC_R_int_counter
 1373              		.align	2
 1374 0798 AFF30080 		.p2align 4,,15
 1374      AFF30080 
 1375              		.global	LSM303AGR_ACC_W_TEMP_EN_bits
 1376              		.thumb
 1377              		.thumb_func
 1378              		.type	LSM303AGR_ACC_W_TEMP_EN_bits, %function
 1379              	LSM303AGR_ACC_W_TEMP_EN_bits:
 1380              	.LFB288:
 1381              		.loc 1 549 0
 1382              		.cfi_startproc
 1383              		@ args = 0, pretend = 0, frame = 16
 1384              		@ frame_needed = 0, uses_anonymous_args = 0
 1385 07a0 00B5     		push	{lr}
 1386              		.cfi_def_cfa_offset 4
 1387              		.cfi_offset 14, -4
 1388 07a2 85B0     		sub	sp, sp, #20
 1389              		.cfi_def_cfa_offset 24
 1390 07a4 0190     		str	r0, [sp, #4]
 1391 07a6 0B46     		mov	r3, r1
 1392 07a8 8DF80330 		strb	r3, [sp, #3]
 1393              		.loc 1 552 0
 1394 07ac 0DF10F03 		add	r3, sp, #15
 1395 07b0 0198     		ldr	r0, [sp, #4]
 1396 07b2 1F21     		movs	r1, #31
 1397 07b4 1A46     		mov	r2, r3
 1398 07b6 0123     		movs	r3, #1
 1399 07b8 FFF7FEFF 		bl	LSM303AGR_ACC_ReadReg
 1400 07bc 0346     		mov	r3, r0
 1401 07be 002B     		cmp	r3, #0
 1402 07c0 01D1     		bne	.L86
 1403              		.loc 1 553 0
 1404 07c2 0023     		movs	r3, #0
ARM GAS  /tmp/cc1ELVNa.s 			page 26


 1405 07c4 1CE0     		b	.L89
 1406              	.L86:
 1407              		.loc 1 555 0
 1408 07c6 9DF80F30 		ldrb	r3, [sp, #15]	@ zero_extendqisi2
 1409 07ca 23F04003 		bic	r3, r3, #64
 1410 07ce DBB2     		uxtb	r3, r3
 1411 07d0 8DF80F30 		strb	r3, [sp, #15]
 1412              		.loc 1 556 0
 1413 07d4 9DF80F20 		ldrb	r2, [sp, #15]	@ zero_extendqisi2
 1414 07d8 9DF80330 		ldrb	r3, [sp, #3]
 1415 07dc 1343     		orrs	r3, r3, r2
 1416 07de DBB2     		uxtb	r3, r3
 1417 07e0 8DF80F30 		strb	r3, [sp, #15]
 1418              		.loc 1 558 0
 1419 07e4 0DF10F03 		add	r3, sp, #15
 1420 07e8 0198     		ldr	r0, [sp, #4]
 1421 07ea 1F21     		movs	r1, #31
 1422 07ec 1A46     		mov	r2, r3
 1423 07ee 0123     		movs	r3, #1
 1424 07f0 FFF7FEFF 		bl	LSM303AGR_ACC_WriteReg
 1425 07f4 0346     		mov	r3, r0
 1426 07f6 002B     		cmp	r3, #0
 1427 07f8 01D1     		bne	.L88
 1428              		.loc 1 559 0
 1429 07fa 0023     		movs	r3, #0
 1430 07fc 00E0     		b	.L89
 1431              	.L88:
 1432              		.loc 1 561 0
 1433 07fe 0123     		movs	r3, #1
 1434              	.L89:
 1435              		.loc 1 562 0
 1436 0800 1846     		mov	r0, r3
 1437 0802 05B0     		add	sp, sp, #20
 1438              		@ sp needed
 1439 0804 5DF804FB 		ldr	pc, [sp], #4
 1440              		.cfi_endproc
 1441              	.LFE288:
 1442              		.size	LSM303AGR_ACC_W_TEMP_EN_bits, .-LSM303AGR_ACC_W_TEMP_EN_bits
 1443              		.align	2
 1444 0808 AFF30080 		.p2align 4,,15
 1444      AFF30080 
 1445              		.global	LSM303AGR_ACC_R_TEMP_EN_bits
 1446              		.thumb
 1447              		.thumb_func
 1448              		.type	LSM303AGR_ACC_R_TEMP_EN_bits, %function
 1449              	LSM303AGR_ACC_R_TEMP_EN_bits:
 1450              	.LFB289:
 1451              		.loc 1 572 0
 1452              		.cfi_startproc
 1453              		@ args = 0, pretend = 0, frame = 8
 1454              		@ frame_needed = 0, uses_anonymous_args = 0
 1455 0810 00B5     		push	{lr}
 1456              		.cfi_def_cfa_offset 4
 1457              		.cfi_offset 14, -4
 1458 0812 83B0     		sub	sp, sp, #12
 1459              		.cfi_def_cfa_offset 16
 1460 0814 0190     		str	r0, [sp, #4]
ARM GAS  /tmp/cc1ELVNa.s 			page 27


 1461 0816 0091     		str	r1, [sp]
 1462              		.loc 1 573 0
 1463 0818 0198     		ldr	r0, [sp, #4]
 1464 081a 1F21     		movs	r1, #31
 1465 081c 009A     		ldr	r2, [sp]
 1466 081e 0123     		movs	r3, #1
 1467 0820 FFF7FEFF 		bl	LSM303AGR_ACC_ReadReg
 1468 0824 0346     		mov	r3, r0
 1469 0826 002B     		cmp	r3, #0
 1470 0828 01D1     		bne	.L91
 1471              		.loc 1 574 0
 1472 082a 0023     		movs	r3, #0
 1473 082c 07E0     		b	.L92
 1474              	.L91:
 1475              		.loc 1 576 0
 1476 082e 009B     		ldr	r3, [sp]
 1477 0830 1B78     		ldrb	r3, [r3]	@ zero_extendqisi2
 1478 0832 03F04003 		and	r3, r3, #64
 1479 0836 DAB2     		uxtb	r2, r3
 1480 0838 009B     		ldr	r3, [sp]
 1481 083a 1A70     		strb	r2, [r3]
 1482              		.loc 1 578 0
 1483 083c 0123     		movs	r3, #1
 1484              	.L92:
 1485              		.loc 1 579 0
 1486 083e 1846     		mov	r0, r3
 1487 0840 03B0     		add	sp, sp, #12
 1488              		@ sp needed
 1489 0842 5DF804FB 		ldr	pc, [sp], #4
 1490              		.cfi_endproc
 1491              	.LFE289:
 1492              		.size	LSM303AGR_ACC_R_TEMP_EN_bits, .-LSM303AGR_ACC_R_TEMP_EN_bits
 1493 0846 00BF     		.align	2
 1494 0848 AFF30080 		.p2align 4,,15
 1494      AFF30080 
 1495              		.global	LSM303AGR_ACC_W_ADC_PD
 1496              		.thumb
 1497              		.thumb_func
 1498              		.type	LSM303AGR_ACC_W_ADC_PD, %function
 1499              	LSM303AGR_ACC_W_ADC_PD:
 1500              	.LFB290:
 1501              		.loc 1 589 0
 1502              		.cfi_startproc
 1503              		@ args = 0, pretend = 0, frame = 16
 1504              		@ frame_needed = 0, uses_anonymous_args = 0
 1505 0850 00B5     		push	{lr}
 1506              		.cfi_def_cfa_offset 4
 1507              		.cfi_offset 14, -4
 1508 0852 85B0     		sub	sp, sp, #20
 1509              		.cfi_def_cfa_offset 24
 1510 0854 0190     		str	r0, [sp, #4]
 1511 0856 0B46     		mov	r3, r1
 1512 0858 8DF80330 		strb	r3, [sp, #3]
 1513              		.loc 1 592 0
 1514 085c 0DF10F03 		add	r3, sp, #15
 1515 0860 0198     		ldr	r0, [sp, #4]
 1516 0862 1F21     		movs	r1, #31
ARM GAS  /tmp/cc1ELVNa.s 			page 28


 1517 0864 1A46     		mov	r2, r3
 1518 0866 0123     		movs	r3, #1
 1519 0868 FFF7FEFF 		bl	LSM303AGR_ACC_ReadReg
 1520 086c 0346     		mov	r3, r0
 1521 086e 002B     		cmp	r3, #0
 1522 0870 01D1     		bne	.L94
 1523              		.loc 1 593 0
 1524 0872 0023     		movs	r3, #0
 1525 0874 1CE0     		b	.L97
 1526              	.L94:
 1527              		.loc 1 595 0
 1528 0876 9DF80F30 		ldrb	r3, [sp, #15]	@ zero_extendqisi2
 1529 087a 03F07F03 		and	r3, r3, #127
 1530 087e DBB2     		uxtb	r3, r3
 1531 0880 8DF80F30 		strb	r3, [sp, #15]
 1532              		.loc 1 596 0
 1533 0884 9DF80F20 		ldrb	r2, [sp, #15]	@ zero_extendqisi2
 1534 0888 9DF80330 		ldrb	r3, [sp, #3]
 1535 088c 1343     		orrs	r3, r3, r2
 1536 088e DBB2     		uxtb	r3, r3
 1537 0890 8DF80F30 		strb	r3, [sp, #15]
 1538              		.loc 1 598 0
 1539 0894 0DF10F03 		add	r3, sp, #15
 1540 0898 0198     		ldr	r0, [sp, #4]
 1541 089a 1F21     		movs	r1, #31
 1542 089c 1A46     		mov	r2, r3
 1543 089e 0123     		movs	r3, #1
 1544 08a0 FFF7FEFF 		bl	LSM303AGR_ACC_WriteReg
 1545 08a4 0346     		mov	r3, r0
 1546 08a6 002B     		cmp	r3, #0
 1547 08a8 01D1     		bne	.L96
 1548              		.loc 1 599 0
 1549 08aa 0023     		movs	r3, #0
 1550 08ac 00E0     		b	.L97
 1551              	.L96:
 1552              		.loc 1 601 0
 1553 08ae 0123     		movs	r3, #1
 1554              	.L97:
 1555              		.loc 1 602 0
 1556 08b0 1846     		mov	r0, r3
 1557 08b2 05B0     		add	sp, sp, #20
 1558              		@ sp needed
 1559 08b4 5DF804FB 		ldr	pc, [sp], #4
 1560              		.cfi_endproc
 1561              	.LFE290:
 1562              		.size	LSM303AGR_ACC_W_ADC_PD, .-LSM303AGR_ACC_W_ADC_PD
 1563              		.align	2
 1564 08b8 AFF30080 		.p2align 4,,15
 1564      AFF30080 
 1565              		.global	LSM303AGR_ACC_R_ADC_PD
 1566              		.thumb
 1567              		.thumb_func
 1568              		.type	LSM303AGR_ACC_R_ADC_PD, %function
 1569              	LSM303AGR_ACC_R_ADC_PD:
 1570              	.LFB291:
 1571              		.loc 1 612 0
 1572              		.cfi_startproc
ARM GAS  /tmp/cc1ELVNa.s 			page 29


 1573              		@ args = 0, pretend = 0, frame = 8
 1574              		@ frame_needed = 0, uses_anonymous_args = 0
 1575 08c0 00B5     		push	{lr}
 1576              		.cfi_def_cfa_offset 4
 1577              		.cfi_offset 14, -4
 1578 08c2 83B0     		sub	sp, sp, #12
 1579              		.cfi_def_cfa_offset 16
 1580 08c4 0190     		str	r0, [sp, #4]
 1581 08c6 0091     		str	r1, [sp]
 1582              		.loc 1 613 0
 1583 08c8 0198     		ldr	r0, [sp, #4]
 1584 08ca 1F21     		movs	r1, #31
 1585 08cc 009A     		ldr	r2, [sp]
 1586 08ce 0123     		movs	r3, #1
 1587 08d0 FFF7FEFF 		bl	LSM303AGR_ACC_ReadReg
 1588 08d4 0346     		mov	r3, r0
 1589 08d6 002B     		cmp	r3, #0
 1590 08d8 01D1     		bne	.L99
 1591              		.loc 1 614 0
 1592 08da 0023     		movs	r3, #0
 1593 08dc 07E0     		b	.L100
 1594              	.L99:
 1595              		.loc 1 616 0
 1596 08de 009B     		ldr	r3, [sp]
 1597 08e0 1B78     		ldrb	r3, [r3]	@ zero_extendqisi2
 1598 08e2 23F07F03 		bic	r3, r3, #127
 1599 08e6 DAB2     		uxtb	r2, r3
 1600 08e8 009B     		ldr	r3, [sp]
 1601 08ea 1A70     		strb	r2, [r3]
 1602              		.loc 1 618 0
 1603 08ec 0123     		movs	r3, #1
 1604              	.L100:
 1605              		.loc 1 619 0
 1606 08ee 1846     		mov	r0, r3
 1607 08f0 03B0     		add	sp, sp, #12
 1608              		@ sp needed
 1609 08f2 5DF804FB 		ldr	pc, [sp], #4
 1610              		.cfi_endproc
 1611              	.LFE291:
 1612              		.size	LSM303AGR_ACC_R_ADC_PD, .-LSM303AGR_ACC_R_ADC_PD
 1613 08f6 00BF     		.align	2
 1614 08f8 AFF30080 		.p2align 4,,15
 1614      AFF30080 
 1615              		.global	LSM303AGR_ACC_W_XEN
 1616              		.thumb
 1617              		.thumb_func
 1618              		.type	LSM303AGR_ACC_W_XEN, %function
 1619              	LSM303AGR_ACC_W_XEN:
 1620              	.LFB292:
 1621              		.loc 1 629 0
 1622              		.cfi_startproc
 1623              		@ args = 0, pretend = 0, frame = 16
 1624              		@ frame_needed = 0, uses_anonymous_args = 0
 1625 0900 00B5     		push	{lr}
 1626              		.cfi_def_cfa_offset 4
 1627              		.cfi_offset 14, -4
 1628 0902 85B0     		sub	sp, sp, #20
ARM GAS  /tmp/cc1ELVNa.s 			page 30


 1629              		.cfi_def_cfa_offset 24
 1630 0904 0190     		str	r0, [sp, #4]
 1631 0906 0B46     		mov	r3, r1
 1632 0908 8DF80330 		strb	r3, [sp, #3]
 1633              		.loc 1 632 0
 1634 090c 0DF10F03 		add	r3, sp, #15
 1635 0910 0198     		ldr	r0, [sp, #4]
 1636 0912 2021     		movs	r1, #32
 1637 0914 1A46     		mov	r2, r3
 1638 0916 0123     		movs	r3, #1
 1639 0918 FFF7FEFF 		bl	LSM303AGR_ACC_ReadReg
 1640 091c 0346     		mov	r3, r0
 1641 091e 002B     		cmp	r3, #0
 1642 0920 01D1     		bne	.L102
 1643              		.loc 1 633 0
 1644 0922 0023     		movs	r3, #0
 1645 0924 1CE0     		b	.L105
 1646              	.L102:
 1647              		.loc 1 635 0
 1648 0926 9DF80F30 		ldrb	r3, [sp, #15]	@ zero_extendqisi2
 1649 092a 23F00103 		bic	r3, r3, #1
 1650 092e DBB2     		uxtb	r3, r3
 1651 0930 8DF80F30 		strb	r3, [sp, #15]
 1652              		.loc 1 636 0
 1653 0934 9DF80F20 		ldrb	r2, [sp, #15]	@ zero_extendqisi2
 1654 0938 9DF80330 		ldrb	r3, [sp, #3]
 1655 093c 1343     		orrs	r3, r3, r2
 1656 093e DBB2     		uxtb	r3, r3
 1657 0940 8DF80F30 		strb	r3, [sp, #15]
 1658              		.loc 1 638 0
 1659 0944 0DF10F03 		add	r3, sp, #15
 1660 0948 0198     		ldr	r0, [sp, #4]
 1661 094a 2021     		movs	r1, #32
 1662 094c 1A46     		mov	r2, r3
 1663 094e 0123     		movs	r3, #1
 1664 0950 FFF7FEFF 		bl	LSM303AGR_ACC_WriteReg
 1665 0954 0346     		mov	r3, r0
 1666 0956 002B     		cmp	r3, #0
 1667 0958 01D1     		bne	.L104
 1668              		.loc 1 639 0
 1669 095a 0023     		movs	r3, #0
 1670 095c 00E0     		b	.L105
 1671              	.L104:
 1672              		.loc 1 641 0
 1673 095e 0123     		movs	r3, #1
 1674              	.L105:
 1675              		.loc 1 642 0
 1676 0960 1846     		mov	r0, r3
 1677 0962 05B0     		add	sp, sp, #20
 1678              		@ sp needed
 1679 0964 5DF804FB 		ldr	pc, [sp], #4
 1680              		.cfi_endproc
 1681              	.LFE292:
 1682              		.size	LSM303AGR_ACC_W_XEN, .-LSM303AGR_ACC_W_XEN
 1683              		.align	2
 1684 0968 AFF30080 		.p2align 4,,15
 1684      AFF30080 
ARM GAS  /tmp/cc1ELVNa.s 			page 31


 1685              		.global	LSM303AGR_ACC_R_XEN
 1686              		.thumb
 1687              		.thumb_func
 1688              		.type	LSM303AGR_ACC_R_XEN, %function
 1689              	LSM303AGR_ACC_R_XEN:
 1690              	.LFB293:
 1691              		.loc 1 652 0
 1692              		.cfi_startproc
 1693              		@ args = 0, pretend = 0, frame = 8
 1694              		@ frame_needed = 0, uses_anonymous_args = 0
 1695 0970 00B5     		push	{lr}
 1696              		.cfi_def_cfa_offset 4
 1697              		.cfi_offset 14, -4
 1698 0972 83B0     		sub	sp, sp, #12
 1699              		.cfi_def_cfa_offset 16
 1700 0974 0190     		str	r0, [sp, #4]
 1701 0976 0091     		str	r1, [sp]
 1702              		.loc 1 653 0
 1703 0978 0198     		ldr	r0, [sp, #4]
 1704 097a 2021     		movs	r1, #32
 1705 097c 009A     		ldr	r2, [sp]
 1706 097e 0123     		movs	r3, #1
 1707 0980 FFF7FEFF 		bl	LSM303AGR_ACC_ReadReg
 1708 0984 0346     		mov	r3, r0
 1709 0986 002B     		cmp	r3, #0
 1710 0988 01D1     		bne	.L107
 1711              		.loc 1 654 0
 1712 098a 0023     		movs	r3, #0
 1713 098c 07E0     		b	.L108
 1714              	.L107:
 1715              		.loc 1 656 0
 1716 098e 009B     		ldr	r3, [sp]
 1717 0990 1B78     		ldrb	r3, [r3]	@ zero_extendqisi2
 1718 0992 03F00103 		and	r3, r3, #1
 1719 0996 DAB2     		uxtb	r2, r3
 1720 0998 009B     		ldr	r3, [sp]
 1721 099a 1A70     		strb	r2, [r3]
 1722              		.loc 1 658 0
 1723 099c 0123     		movs	r3, #1
 1724              	.L108:
 1725              		.loc 1 659 0
 1726 099e 1846     		mov	r0, r3
 1727 09a0 03B0     		add	sp, sp, #12
 1728              		@ sp needed
 1729 09a2 5DF804FB 		ldr	pc, [sp], #4
 1730              		.cfi_endproc
 1731              	.LFE293:
 1732              		.size	LSM303AGR_ACC_R_XEN, .-LSM303AGR_ACC_R_XEN
 1733 09a6 00BF     		.align	2
 1734 09a8 AFF30080 		.p2align 4,,15
 1734      AFF30080 
 1735              		.global	LSM303AGR_ACC_W_YEN
 1736              		.thumb
 1737              		.thumb_func
 1738              		.type	LSM303AGR_ACC_W_YEN, %function
 1739              	LSM303AGR_ACC_W_YEN:
 1740              	.LFB294:
ARM GAS  /tmp/cc1ELVNa.s 			page 32


 1741              		.loc 1 669 0
 1742              		.cfi_startproc
 1743              		@ args = 0, pretend = 0, frame = 16
 1744              		@ frame_needed = 0, uses_anonymous_args = 0
 1745 09b0 00B5     		push	{lr}
 1746              		.cfi_def_cfa_offset 4
 1747              		.cfi_offset 14, -4
 1748 09b2 85B0     		sub	sp, sp, #20
 1749              		.cfi_def_cfa_offset 24
 1750 09b4 0190     		str	r0, [sp, #4]
 1751 09b6 0B46     		mov	r3, r1
 1752 09b8 8DF80330 		strb	r3, [sp, #3]
 1753              		.loc 1 672 0
 1754 09bc 0DF10F03 		add	r3, sp, #15
 1755 09c0 0198     		ldr	r0, [sp, #4]
 1756 09c2 2021     		movs	r1, #32
 1757 09c4 1A46     		mov	r2, r3
 1758 09c6 0123     		movs	r3, #1
 1759 09c8 FFF7FEFF 		bl	LSM303AGR_ACC_ReadReg
 1760 09cc 0346     		mov	r3, r0
 1761 09ce 002B     		cmp	r3, #0
 1762 09d0 01D1     		bne	.L110
 1763              		.loc 1 673 0
 1764 09d2 0023     		movs	r3, #0
 1765 09d4 1CE0     		b	.L113
 1766              	.L110:
 1767              		.loc 1 675 0
 1768 09d6 9DF80F30 		ldrb	r3, [sp, #15]	@ zero_extendqisi2
 1769 09da 23F00203 		bic	r3, r3, #2
 1770 09de DBB2     		uxtb	r3, r3
 1771 09e0 8DF80F30 		strb	r3, [sp, #15]
 1772              		.loc 1 676 0
 1773 09e4 9DF80F20 		ldrb	r2, [sp, #15]	@ zero_extendqisi2
 1774 09e8 9DF80330 		ldrb	r3, [sp, #3]
 1775 09ec 1343     		orrs	r3, r3, r2
 1776 09ee DBB2     		uxtb	r3, r3
 1777 09f0 8DF80F30 		strb	r3, [sp, #15]
 1778              		.loc 1 678 0
 1779 09f4 0DF10F03 		add	r3, sp, #15
 1780 09f8 0198     		ldr	r0, [sp, #4]
 1781 09fa 2021     		movs	r1, #32
 1782 09fc 1A46     		mov	r2, r3
 1783 09fe 0123     		movs	r3, #1
 1784 0a00 FFF7FEFF 		bl	LSM303AGR_ACC_WriteReg
 1785 0a04 0346     		mov	r3, r0
 1786 0a06 002B     		cmp	r3, #0
 1787 0a08 01D1     		bne	.L112
 1788              		.loc 1 679 0
 1789 0a0a 0023     		movs	r3, #0
 1790 0a0c 00E0     		b	.L113
 1791              	.L112:
 1792              		.loc 1 681 0
 1793 0a0e 0123     		movs	r3, #1
 1794              	.L113:
 1795              		.loc 1 682 0
 1796 0a10 1846     		mov	r0, r3
 1797 0a12 05B0     		add	sp, sp, #20
ARM GAS  /tmp/cc1ELVNa.s 			page 33


 1798              		@ sp needed
 1799 0a14 5DF804FB 		ldr	pc, [sp], #4
 1800              		.cfi_endproc
 1801              	.LFE294:
 1802              		.size	LSM303AGR_ACC_W_YEN, .-LSM303AGR_ACC_W_YEN
 1803              		.align	2
 1804 0a18 AFF30080 		.p2align 4,,15
 1804      AFF30080 
 1805              		.global	LSM303AGR_ACC_R_YEN
 1806              		.thumb
 1807              		.thumb_func
 1808              		.type	LSM303AGR_ACC_R_YEN, %function
 1809              	LSM303AGR_ACC_R_YEN:
 1810              	.LFB295:
 1811              		.loc 1 692 0
 1812              		.cfi_startproc
 1813              		@ args = 0, pretend = 0, frame = 8
 1814              		@ frame_needed = 0, uses_anonymous_args = 0
 1815 0a20 00B5     		push	{lr}
 1816              		.cfi_def_cfa_offset 4
 1817              		.cfi_offset 14, -4
 1818 0a22 83B0     		sub	sp, sp, #12
 1819              		.cfi_def_cfa_offset 16
 1820 0a24 0190     		str	r0, [sp, #4]
 1821 0a26 0091     		str	r1, [sp]
 1822              		.loc 1 693 0
 1823 0a28 0198     		ldr	r0, [sp, #4]
 1824 0a2a 2021     		movs	r1, #32
 1825 0a2c 009A     		ldr	r2, [sp]
 1826 0a2e 0123     		movs	r3, #1
 1827 0a30 FFF7FEFF 		bl	LSM303AGR_ACC_ReadReg
 1828 0a34 0346     		mov	r3, r0
 1829 0a36 002B     		cmp	r3, #0
 1830 0a38 01D1     		bne	.L115
 1831              		.loc 1 694 0
 1832 0a3a 0023     		movs	r3, #0
 1833 0a3c 07E0     		b	.L116
 1834              	.L115:
 1835              		.loc 1 696 0
 1836 0a3e 009B     		ldr	r3, [sp]
 1837 0a40 1B78     		ldrb	r3, [r3]	@ zero_extendqisi2
 1838 0a42 03F00203 		and	r3, r3, #2
 1839 0a46 DAB2     		uxtb	r2, r3
 1840 0a48 009B     		ldr	r3, [sp]
 1841 0a4a 1A70     		strb	r2, [r3]
 1842              		.loc 1 698 0
 1843 0a4c 0123     		movs	r3, #1
 1844              	.L116:
 1845              		.loc 1 699 0
 1846 0a4e 1846     		mov	r0, r3
 1847 0a50 03B0     		add	sp, sp, #12
 1848              		@ sp needed
 1849 0a52 5DF804FB 		ldr	pc, [sp], #4
 1850              		.cfi_endproc
 1851              	.LFE295:
 1852              		.size	LSM303AGR_ACC_R_YEN, .-LSM303AGR_ACC_R_YEN
 1853 0a56 00BF     		.align	2
ARM GAS  /tmp/cc1ELVNa.s 			page 34


 1854 0a58 AFF30080 		.p2align 4,,15
 1854      AFF30080 
 1855              		.global	LSM303AGR_ACC_W_ZEN
 1856              		.thumb
 1857              		.thumb_func
 1858              		.type	LSM303AGR_ACC_W_ZEN, %function
 1859              	LSM303AGR_ACC_W_ZEN:
 1860              	.LFB296:
 1861              		.loc 1 709 0
 1862              		.cfi_startproc
 1863              		@ args = 0, pretend = 0, frame = 16
 1864              		@ frame_needed = 0, uses_anonymous_args = 0
 1865 0a60 00B5     		push	{lr}
 1866              		.cfi_def_cfa_offset 4
 1867              		.cfi_offset 14, -4
 1868 0a62 85B0     		sub	sp, sp, #20
 1869              		.cfi_def_cfa_offset 24
 1870 0a64 0190     		str	r0, [sp, #4]
 1871 0a66 0B46     		mov	r3, r1
 1872 0a68 8DF80330 		strb	r3, [sp, #3]
 1873              		.loc 1 712 0
 1874 0a6c 0DF10F03 		add	r3, sp, #15
 1875 0a70 0198     		ldr	r0, [sp, #4]
 1876 0a72 2021     		movs	r1, #32
 1877 0a74 1A46     		mov	r2, r3
 1878 0a76 0123     		movs	r3, #1
 1879 0a78 FFF7FEFF 		bl	LSM303AGR_ACC_ReadReg
 1880 0a7c 0346     		mov	r3, r0
 1881 0a7e 002B     		cmp	r3, #0
 1882 0a80 01D1     		bne	.L118
 1883              		.loc 1 713 0
 1884 0a82 0023     		movs	r3, #0
 1885 0a84 1CE0     		b	.L121
 1886              	.L118:
 1887              		.loc 1 715 0
 1888 0a86 9DF80F30 		ldrb	r3, [sp, #15]	@ zero_extendqisi2
 1889 0a8a 23F00403 		bic	r3, r3, #4
 1890 0a8e DBB2     		uxtb	r3, r3
 1891 0a90 8DF80F30 		strb	r3, [sp, #15]
 1892              		.loc 1 716 0
 1893 0a94 9DF80F20 		ldrb	r2, [sp, #15]	@ zero_extendqisi2
 1894 0a98 9DF80330 		ldrb	r3, [sp, #3]
 1895 0a9c 1343     		orrs	r3, r3, r2
 1896 0a9e DBB2     		uxtb	r3, r3
 1897 0aa0 8DF80F30 		strb	r3, [sp, #15]
 1898              		.loc 1 718 0
 1899 0aa4 0DF10F03 		add	r3, sp, #15
 1900 0aa8 0198     		ldr	r0, [sp, #4]
 1901 0aaa 2021     		movs	r1, #32
 1902 0aac 1A46     		mov	r2, r3
 1903 0aae 0123     		movs	r3, #1
 1904 0ab0 FFF7FEFF 		bl	LSM303AGR_ACC_WriteReg
 1905 0ab4 0346     		mov	r3, r0
 1906 0ab6 002B     		cmp	r3, #0
 1907 0ab8 01D1     		bne	.L120
 1908              		.loc 1 719 0
 1909 0aba 0023     		movs	r3, #0
ARM GAS  /tmp/cc1ELVNa.s 			page 35


 1910 0abc 00E0     		b	.L121
 1911              	.L120:
 1912              		.loc 1 721 0
 1913 0abe 0123     		movs	r3, #1
 1914              	.L121:
 1915              		.loc 1 722 0
 1916 0ac0 1846     		mov	r0, r3
 1917 0ac2 05B0     		add	sp, sp, #20
 1918              		@ sp needed
 1919 0ac4 5DF804FB 		ldr	pc, [sp], #4
 1920              		.cfi_endproc
 1921              	.LFE296:
 1922              		.size	LSM303AGR_ACC_W_ZEN, .-LSM303AGR_ACC_W_ZEN
 1923              		.align	2
 1924 0ac8 AFF30080 		.p2align 4,,15
 1924      AFF30080 
 1925              		.global	LSM303AGR_ACC_R_ZEN
 1926              		.thumb
 1927              		.thumb_func
 1928              		.type	LSM303AGR_ACC_R_ZEN, %function
 1929              	LSM303AGR_ACC_R_ZEN:
 1930              	.LFB297:
 1931              		.loc 1 732 0
 1932              		.cfi_startproc
 1933              		@ args = 0, pretend = 0, frame = 8
 1934              		@ frame_needed = 0, uses_anonymous_args = 0
 1935 0ad0 00B5     		push	{lr}
 1936              		.cfi_def_cfa_offset 4
 1937              		.cfi_offset 14, -4
 1938 0ad2 83B0     		sub	sp, sp, #12
 1939              		.cfi_def_cfa_offset 16
 1940 0ad4 0190     		str	r0, [sp, #4]
 1941 0ad6 0091     		str	r1, [sp]
 1942              		.loc 1 733 0
 1943 0ad8 0198     		ldr	r0, [sp, #4]
 1944 0ada 2021     		movs	r1, #32
 1945 0adc 009A     		ldr	r2, [sp]
 1946 0ade 0123     		movs	r3, #1
 1947 0ae0 FFF7FEFF 		bl	LSM303AGR_ACC_ReadReg
 1948 0ae4 0346     		mov	r3, r0
 1949 0ae6 002B     		cmp	r3, #0
 1950 0ae8 01D1     		bne	.L123
 1951              		.loc 1 734 0
 1952 0aea 0023     		movs	r3, #0
 1953 0aec 07E0     		b	.L124
 1954              	.L123:
 1955              		.loc 1 736 0
 1956 0aee 009B     		ldr	r3, [sp]
 1957 0af0 1B78     		ldrb	r3, [r3]	@ zero_extendqisi2
 1958 0af2 03F00403 		and	r3, r3, #4
 1959 0af6 DAB2     		uxtb	r2, r3
 1960 0af8 009B     		ldr	r3, [sp]
 1961 0afa 1A70     		strb	r2, [r3]
 1962              		.loc 1 738 0
 1963 0afc 0123     		movs	r3, #1
 1964              	.L124:
 1965              		.loc 1 739 0
ARM GAS  /tmp/cc1ELVNa.s 			page 36


 1966 0afe 1846     		mov	r0, r3
 1967 0b00 03B0     		add	sp, sp, #12
 1968              		@ sp needed
 1969 0b02 5DF804FB 		ldr	pc, [sp], #4
 1970              		.cfi_endproc
 1971              	.LFE297:
 1972              		.size	LSM303AGR_ACC_R_ZEN, .-LSM303AGR_ACC_R_ZEN
 1973 0b06 00BF     		.align	2
 1974 0b08 AFF30080 		.p2align 4,,15
 1974      AFF30080 
 1975              		.global	LSM303AGR_ACC_W_LOWPWR_EN
 1976              		.thumb
 1977              		.thumb_func
 1978              		.type	LSM303AGR_ACC_W_LOWPWR_EN, %function
 1979              	LSM303AGR_ACC_W_LOWPWR_EN:
 1980              	.LFB298:
 1981              		.loc 1 749 0
 1982              		.cfi_startproc
 1983              		@ args = 0, pretend = 0, frame = 16
 1984              		@ frame_needed = 0, uses_anonymous_args = 0
 1985 0b10 00B5     		push	{lr}
 1986              		.cfi_def_cfa_offset 4
 1987              		.cfi_offset 14, -4
 1988 0b12 85B0     		sub	sp, sp, #20
 1989              		.cfi_def_cfa_offset 24
 1990 0b14 0190     		str	r0, [sp, #4]
 1991 0b16 0B46     		mov	r3, r1
 1992 0b18 8DF80330 		strb	r3, [sp, #3]
 1993              		.loc 1 752 0
 1994 0b1c 0DF10F03 		add	r3, sp, #15
 1995 0b20 0198     		ldr	r0, [sp, #4]
 1996 0b22 2021     		movs	r1, #32
 1997 0b24 1A46     		mov	r2, r3
 1998 0b26 0123     		movs	r3, #1
 1999 0b28 FFF7FEFF 		bl	LSM303AGR_ACC_ReadReg
 2000 0b2c 0346     		mov	r3, r0
 2001 0b2e 002B     		cmp	r3, #0
 2002 0b30 01D1     		bne	.L126
 2003              		.loc 1 753 0
 2004 0b32 0023     		movs	r3, #0
 2005 0b34 1CE0     		b	.L129
 2006              	.L126:
 2007              		.loc 1 755 0
 2008 0b36 9DF80F30 		ldrb	r3, [sp, #15]	@ zero_extendqisi2
 2009 0b3a 23F00803 		bic	r3, r3, #8
 2010 0b3e DBB2     		uxtb	r3, r3
 2011 0b40 8DF80F30 		strb	r3, [sp, #15]
 2012              		.loc 1 756 0
 2013 0b44 9DF80F20 		ldrb	r2, [sp, #15]	@ zero_extendqisi2
 2014 0b48 9DF80330 		ldrb	r3, [sp, #3]
 2015 0b4c 1343     		orrs	r3, r3, r2
 2016 0b4e DBB2     		uxtb	r3, r3
 2017 0b50 8DF80F30 		strb	r3, [sp, #15]
 2018              		.loc 1 758 0
 2019 0b54 0DF10F03 		add	r3, sp, #15
 2020 0b58 0198     		ldr	r0, [sp, #4]
 2021 0b5a 2021     		movs	r1, #32
ARM GAS  /tmp/cc1ELVNa.s 			page 37


 2022 0b5c 1A46     		mov	r2, r3
 2023 0b5e 0123     		movs	r3, #1
 2024 0b60 FFF7FEFF 		bl	LSM303AGR_ACC_WriteReg
 2025 0b64 0346     		mov	r3, r0
 2026 0b66 002B     		cmp	r3, #0
 2027 0b68 01D1     		bne	.L128
 2028              		.loc 1 759 0
 2029 0b6a 0023     		movs	r3, #0
 2030 0b6c 00E0     		b	.L129
 2031              	.L128:
 2032              		.loc 1 761 0
 2033 0b6e 0123     		movs	r3, #1
 2034              	.L129:
 2035              		.loc 1 762 0
 2036 0b70 1846     		mov	r0, r3
 2037 0b72 05B0     		add	sp, sp, #20
 2038              		@ sp needed
 2039 0b74 5DF804FB 		ldr	pc, [sp], #4
 2040              		.cfi_endproc
 2041              	.LFE298:
 2042              		.size	LSM303AGR_ACC_W_LOWPWR_EN, .-LSM303AGR_ACC_W_LOWPWR_EN
 2043              		.align	2
 2044 0b78 AFF30080 		.p2align 4,,15
 2044      AFF30080 
 2045              		.global	LSM303AGR_ACC_R_LOWPWR_EN
 2046              		.thumb
 2047              		.thumb_func
 2048              		.type	LSM303AGR_ACC_R_LOWPWR_EN, %function
 2049              	LSM303AGR_ACC_R_LOWPWR_EN:
 2050              	.LFB299:
 2051              		.loc 1 772 0
 2052              		.cfi_startproc
 2053              		@ args = 0, pretend = 0, frame = 8
 2054              		@ frame_needed = 0, uses_anonymous_args = 0
 2055 0b80 00B5     		push	{lr}
 2056              		.cfi_def_cfa_offset 4
 2057              		.cfi_offset 14, -4
 2058 0b82 83B0     		sub	sp, sp, #12
 2059              		.cfi_def_cfa_offset 16
 2060 0b84 0190     		str	r0, [sp, #4]
 2061 0b86 0091     		str	r1, [sp]
 2062              		.loc 1 773 0
 2063 0b88 0198     		ldr	r0, [sp, #4]
 2064 0b8a 2021     		movs	r1, #32
 2065 0b8c 009A     		ldr	r2, [sp]
 2066 0b8e 0123     		movs	r3, #1
 2067 0b90 FFF7FEFF 		bl	LSM303AGR_ACC_ReadReg
 2068 0b94 0346     		mov	r3, r0
 2069 0b96 002B     		cmp	r3, #0
 2070 0b98 01D1     		bne	.L131
 2071              		.loc 1 774 0
 2072 0b9a 0023     		movs	r3, #0
 2073 0b9c 07E0     		b	.L132
 2074              	.L131:
 2075              		.loc 1 776 0
 2076 0b9e 009B     		ldr	r3, [sp]
 2077 0ba0 1B78     		ldrb	r3, [r3]	@ zero_extendqisi2
ARM GAS  /tmp/cc1ELVNa.s 			page 38


 2078 0ba2 03F00803 		and	r3, r3, #8
 2079 0ba6 DAB2     		uxtb	r2, r3
 2080 0ba8 009B     		ldr	r3, [sp]
 2081 0baa 1A70     		strb	r2, [r3]
 2082              		.loc 1 778 0
 2083 0bac 0123     		movs	r3, #1
 2084              	.L132:
 2085              		.loc 1 779 0
 2086 0bae 1846     		mov	r0, r3
 2087 0bb0 03B0     		add	sp, sp, #12
 2088              		@ sp needed
 2089 0bb2 5DF804FB 		ldr	pc, [sp], #4
 2090              		.cfi_endproc
 2091              	.LFE299:
 2092              		.size	LSM303AGR_ACC_R_LOWPWR_EN, .-LSM303AGR_ACC_R_LOWPWR_EN
 2093 0bb6 00BF     		.align	2
 2094 0bb8 AFF30080 		.p2align 4,,15
 2094      AFF30080 
 2095              		.global	LSM303AGR_ACC_W_hpf_aoi_en_int1
 2096              		.thumb
 2097              		.thumb_func
 2098              		.type	LSM303AGR_ACC_W_hpf_aoi_en_int1, %function
 2099              	LSM303AGR_ACC_W_hpf_aoi_en_int1:
 2100              	.LFB300:
 2101              		.loc 1 789 0
 2102              		.cfi_startproc
 2103              		@ args = 0, pretend = 0, frame = 16
 2104              		@ frame_needed = 0, uses_anonymous_args = 0
 2105 0bc0 00B5     		push	{lr}
 2106              		.cfi_def_cfa_offset 4
 2107              		.cfi_offset 14, -4
 2108 0bc2 85B0     		sub	sp, sp, #20
 2109              		.cfi_def_cfa_offset 24
 2110 0bc4 0190     		str	r0, [sp, #4]
 2111 0bc6 0B46     		mov	r3, r1
 2112 0bc8 8DF80330 		strb	r3, [sp, #3]
 2113              		.loc 1 792 0
 2114 0bcc 0DF10F03 		add	r3, sp, #15
 2115 0bd0 0198     		ldr	r0, [sp, #4]
 2116 0bd2 2121     		movs	r1, #33
 2117 0bd4 1A46     		mov	r2, r3
 2118 0bd6 0123     		movs	r3, #1
 2119 0bd8 FFF7FEFF 		bl	LSM303AGR_ACC_ReadReg
 2120 0bdc 0346     		mov	r3, r0
 2121 0bde 002B     		cmp	r3, #0
 2122 0be0 01D1     		bne	.L134
 2123              		.loc 1 793 0
 2124 0be2 0023     		movs	r3, #0
 2125 0be4 1CE0     		b	.L137
 2126              	.L134:
 2127              		.loc 1 795 0
 2128 0be6 9DF80F30 		ldrb	r3, [sp, #15]	@ zero_extendqisi2
 2129 0bea 23F00103 		bic	r3, r3, #1
 2130 0bee DBB2     		uxtb	r3, r3
 2131 0bf0 8DF80F30 		strb	r3, [sp, #15]
 2132              		.loc 1 796 0
 2133 0bf4 9DF80F20 		ldrb	r2, [sp, #15]	@ zero_extendqisi2
ARM GAS  /tmp/cc1ELVNa.s 			page 39


 2134 0bf8 9DF80330 		ldrb	r3, [sp, #3]
 2135 0bfc 1343     		orrs	r3, r3, r2
 2136 0bfe DBB2     		uxtb	r3, r3
 2137 0c00 8DF80F30 		strb	r3, [sp, #15]
 2138              		.loc 1 798 0
 2139 0c04 0DF10F03 		add	r3, sp, #15
 2140 0c08 0198     		ldr	r0, [sp, #4]
 2141 0c0a 2121     		movs	r1, #33
 2142 0c0c 1A46     		mov	r2, r3
 2143 0c0e 0123     		movs	r3, #1
 2144 0c10 FFF7FEFF 		bl	LSM303AGR_ACC_WriteReg
 2145 0c14 0346     		mov	r3, r0
 2146 0c16 002B     		cmp	r3, #0
 2147 0c18 01D1     		bne	.L136
 2148              		.loc 1 799 0
 2149 0c1a 0023     		movs	r3, #0
 2150 0c1c 00E0     		b	.L137
 2151              	.L136:
 2152              		.loc 1 801 0
 2153 0c1e 0123     		movs	r3, #1
 2154              	.L137:
 2155              		.loc 1 802 0
 2156 0c20 1846     		mov	r0, r3
 2157 0c22 05B0     		add	sp, sp, #20
 2158              		@ sp needed
 2159 0c24 5DF804FB 		ldr	pc, [sp], #4
 2160              		.cfi_endproc
 2161              	.LFE300:
 2162              		.size	LSM303AGR_ACC_W_hpf_aoi_en_int1, .-LSM303AGR_ACC_W_hpf_aoi_en_int1
 2163              		.align	2
 2164 0c28 AFF30080 		.p2align 4,,15
 2164      AFF30080 
 2165              		.global	LSM303AGR_ACC_R_hpf_aoi_en_int1
 2166              		.thumb
 2167              		.thumb_func
 2168              		.type	LSM303AGR_ACC_R_hpf_aoi_en_int1, %function
 2169              	LSM303AGR_ACC_R_hpf_aoi_en_int1:
 2170              	.LFB301:
 2171              		.loc 1 812 0
 2172              		.cfi_startproc
 2173              		@ args = 0, pretend = 0, frame = 8
 2174              		@ frame_needed = 0, uses_anonymous_args = 0
 2175 0c30 00B5     		push	{lr}
 2176              		.cfi_def_cfa_offset 4
 2177              		.cfi_offset 14, -4
 2178 0c32 83B0     		sub	sp, sp, #12
 2179              		.cfi_def_cfa_offset 16
 2180 0c34 0190     		str	r0, [sp, #4]
 2181 0c36 0091     		str	r1, [sp]
 2182              		.loc 1 813 0
 2183 0c38 0198     		ldr	r0, [sp, #4]
 2184 0c3a 2121     		movs	r1, #33
 2185 0c3c 009A     		ldr	r2, [sp]
 2186 0c3e 0123     		movs	r3, #1
 2187 0c40 FFF7FEFF 		bl	LSM303AGR_ACC_ReadReg
 2188 0c44 0346     		mov	r3, r0
 2189 0c46 002B     		cmp	r3, #0
ARM GAS  /tmp/cc1ELVNa.s 			page 40


 2190 0c48 01D1     		bne	.L139
 2191              		.loc 1 814 0
 2192 0c4a 0023     		movs	r3, #0
 2193 0c4c 07E0     		b	.L140
 2194              	.L139:
 2195              		.loc 1 816 0
 2196 0c4e 009B     		ldr	r3, [sp]
 2197 0c50 1B78     		ldrb	r3, [r3]	@ zero_extendqisi2
 2198 0c52 03F00103 		and	r3, r3, #1
 2199 0c56 DAB2     		uxtb	r2, r3
 2200 0c58 009B     		ldr	r3, [sp]
 2201 0c5a 1A70     		strb	r2, [r3]
 2202              		.loc 1 818 0
 2203 0c5c 0123     		movs	r3, #1
 2204              	.L140:
 2205              		.loc 1 819 0
 2206 0c5e 1846     		mov	r0, r3
 2207 0c60 03B0     		add	sp, sp, #12
 2208              		@ sp needed
 2209 0c62 5DF804FB 		ldr	pc, [sp], #4
 2210              		.cfi_endproc
 2211              	.LFE301:
 2212              		.size	LSM303AGR_ACC_R_hpf_aoi_en_int1, .-LSM303AGR_ACC_R_hpf_aoi_en_int1
 2213 0c66 00BF     		.align	2
 2214 0c68 AFF30080 		.p2align 4,,15
 2214      AFF30080 
 2215              		.global	LSM303AGR_ACC_W_hpf_aoi_en_int2
 2216              		.thumb
 2217              		.thumb_func
 2218              		.type	LSM303AGR_ACC_W_hpf_aoi_en_int2, %function
 2219              	LSM303AGR_ACC_W_hpf_aoi_en_int2:
 2220              	.LFB302:
 2221              		.loc 1 829 0
 2222              		.cfi_startproc
 2223              		@ args = 0, pretend = 0, frame = 16
 2224              		@ frame_needed = 0, uses_anonymous_args = 0
 2225 0c70 00B5     		push	{lr}
 2226              		.cfi_def_cfa_offset 4
 2227              		.cfi_offset 14, -4
 2228 0c72 85B0     		sub	sp, sp, #20
 2229              		.cfi_def_cfa_offset 24
 2230 0c74 0190     		str	r0, [sp, #4]
 2231 0c76 0B46     		mov	r3, r1
 2232 0c78 8DF80330 		strb	r3, [sp, #3]
 2233              		.loc 1 832 0
 2234 0c7c 0DF10F03 		add	r3, sp, #15
 2235 0c80 0198     		ldr	r0, [sp, #4]
 2236 0c82 2121     		movs	r1, #33
 2237 0c84 1A46     		mov	r2, r3
 2238 0c86 0123     		movs	r3, #1
 2239 0c88 FFF7FEFF 		bl	LSM303AGR_ACC_ReadReg
 2240 0c8c 0346     		mov	r3, r0
 2241 0c8e 002B     		cmp	r3, #0
 2242 0c90 01D1     		bne	.L142
 2243              		.loc 1 833 0
 2244 0c92 0023     		movs	r3, #0
 2245 0c94 1CE0     		b	.L145
ARM GAS  /tmp/cc1ELVNa.s 			page 41


 2246              	.L142:
 2247              		.loc 1 835 0
 2248 0c96 9DF80F30 		ldrb	r3, [sp, #15]	@ zero_extendqisi2
 2249 0c9a 23F00203 		bic	r3, r3, #2
 2250 0c9e DBB2     		uxtb	r3, r3
 2251 0ca0 8DF80F30 		strb	r3, [sp, #15]
 2252              		.loc 1 836 0
 2253 0ca4 9DF80F20 		ldrb	r2, [sp, #15]	@ zero_extendqisi2
 2254 0ca8 9DF80330 		ldrb	r3, [sp, #3]
 2255 0cac 1343     		orrs	r3, r3, r2
 2256 0cae DBB2     		uxtb	r3, r3
 2257 0cb0 8DF80F30 		strb	r3, [sp, #15]
 2258              		.loc 1 838 0
 2259 0cb4 0DF10F03 		add	r3, sp, #15
 2260 0cb8 0198     		ldr	r0, [sp, #4]
 2261 0cba 2121     		movs	r1, #33
 2262 0cbc 1A46     		mov	r2, r3
 2263 0cbe 0123     		movs	r3, #1
 2264 0cc0 FFF7FEFF 		bl	LSM303AGR_ACC_WriteReg
 2265 0cc4 0346     		mov	r3, r0
 2266 0cc6 002B     		cmp	r3, #0
 2267 0cc8 01D1     		bne	.L144
 2268              		.loc 1 839 0
 2269 0cca 0023     		movs	r3, #0
 2270 0ccc 00E0     		b	.L145
 2271              	.L144:
 2272              		.loc 1 841 0
 2273 0cce 0123     		movs	r3, #1
 2274              	.L145:
 2275              		.loc 1 842 0
 2276 0cd0 1846     		mov	r0, r3
 2277 0cd2 05B0     		add	sp, sp, #20
 2278              		@ sp needed
 2279 0cd4 5DF804FB 		ldr	pc, [sp], #4
 2280              		.cfi_endproc
 2281              	.LFE302:
 2282              		.size	LSM303AGR_ACC_W_hpf_aoi_en_int2, .-LSM303AGR_ACC_W_hpf_aoi_en_int2
 2283              		.align	2
 2284 0cd8 AFF30080 		.p2align 4,,15
 2284      AFF30080 
 2285              		.global	LSM303AGR_ACC_R_hpf_aoi_en_int2
 2286              		.thumb
 2287              		.thumb_func
 2288              		.type	LSM303AGR_ACC_R_hpf_aoi_en_int2, %function
 2289              	LSM303AGR_ACC_R_hpf_aoi_en_int2:
 2290              	.LFB303:
 2291              		.loc 1 852 0
 2292              		.cfi_startproc
 2293              		@ args = 0, pretend = 0, frame = 8
 2294              		@ frame_needed = 0, uses_anonymous_args = 0
 2295 0ce0 00B5     		push	{lr}
 2296              		.cfi_def_cfa_offset 4
 2297              		.cfi_offset 14, -4
 2298 0ce2 83B0     		sub	sp, sp, #12
 2299              		.cfi_def_cfa_offset 16
 2300 0ce4 0190     		str	r0, [sp, #4]
 2301 0ce6 0091     		str	r1, [sp]
ARM GAS  /tmp/cc1ELVNa.s 			page 42


 2302              		.loc 1 853 0
 2303 0ce8 0198     		ldr	r0, [sp, #4]
 2304 0cea 2121     		movs	r1, #33
 2305 0cec 009A     		ldr	r2, [sp]
 2306 0cee 0123     		movs	r3, #1
 2307 0cf0 FFF7FEFF 		bl	LSM303AGR_ACC_ReadReg
 2308 0cf4 0346     		mov	r3, r0
 2309 0cf6 002B     		cmp	r3, #0
 2310 0cf8 01D1     		bne	.L147
 2311              		.loc 1 854 0
 2312 0cfa 0023     		movs	r3, #0
 2313 0cfc 07E0     		b	.L148
 2314              	.L147:
 2315              		.loc 1 856 0
 2316 0cfe 009B     		ldr	r3, [sp]
 2317 0d00 1B78     		ldrb	r3, [r3]	@ zero_extendqisi2
 2318 0d02 03F00203 		and	r3, r3, #2
 2319 0d06 DAB2     		uxtb	r2, r3
 2320 0d08 009B     		ldr	r3, [sp]
 2321 0d0a 1A70     		strb	r2, [r3]
 2322              		.loc 1 858 0
 2323 0d0c 0123     		movs	r3, #1
 2324              	.L148:
 2325              		.loc 1 859 0
 2326 0d0e 1846     		mov	r0, r3
 2327 0d10 03B0     		add	sp, sp, #12
 2328              		@ sp needed
 2329 0d12 5DF804FB 		ldr	pc, [sp], #4
 2330              		.cfi_endproc
 2331              	.LFE303:
 2332              		.size	LSM303AGR_ACC_R_hpf_aoi_en_int2, .-LSM303AGR_ACC_R_hpf_aoi_en_int2
 2333 0d16 00BF     		.align	2
 2334 0d18 AFF30080 		.p2align 4,,15
 2334      AFF30080 
 2335              		.global	LSM303AGR_ACC_W_hpf_click_en
 2336              		.thumb
 2337              		.thumb_func
 2338              		.type	LSM303AGR_ACC_W_hpf_click_en, %function
 2339              	LSM303AGR_ACC_W_hpf_click_en:
 2340              	.LFB304:
 2341              		.loc 1 869 0
 2342              		.cfi_startproc
 2343              		@ args = 0, pretend = 0, frame = 16
 2344              		@ frame_needed = 0, uses_anonymous_args = 0
 2345 0d20 00B5     		push	{lr}
 2346              		.cfi_def_cfa_offset 4
 2347              		.cfi_offset 14, -4
 2348 0d22 85B0     		sub	sp, sp, #20
 2349              		.cfi_def_cfa_offset 24
 2350 0d24 0190     		str	r0, [sp, #4]
 2351 0d26 0B46     		mov	r3, r1
 2352 0d28 8DF80330 		strb	r3, [sp, #3]
 2353              		.loc 1 872 0
 2354 0d2c 0DF10F03 		add	r3, sp, #15
 2355 0d30 0198     		ldr	r0, [sp, #4]
 2356 0d32 2121     		movs	r1, #33
 2357 0d34 1A46     		mov	r2, r3
ARM GAS  /tmp/cc1ELVNa.s 			page 43


 2358 0d36 0123     		movs	r3, #1
 2359 0d38 FFF7FEFF 		bl	LSM303AGR_ACC_ReadReg
 2360 0d3c 0346     		mov	r3, r0
 2361 0d3e 002B     		cmp	r3, #0
 2362 0d40 01D1     		bne	.L150
 2363              		.loc 1 873 0
 2364 0d42 0023     		movs	r3, #0
 2365 0d44 1CE0     		b	.L153
 2366              	.L150:
 2367              		.loc 1 875 0
 2368 0d46 9DF80F30 		ldrb	r3, [sp, #15]	@ zero_extendqisi2
 2369 0d4a 23F00403 		bic	r3, r3, #4
 2370 0d4e DBB2     		uxtb	r3, r3
 2371 0d50 8DF80F30 		strb	r3, [sp, #15]
 2372              		.loc 1 876 0
 2373 0d54 9DF80F20 		ldrb	r2, [sp, #15]	@ zero_extendqisi2
 2374 0d58 9DF80330 		ldrb	r3, [sp, #3]
 2375 0d5c 1343     		orrs	r3, r3, r2
 2376 0d5e DBB2     		uxtb	r3, r3
 2377 0d60 8DF80F30 		strb	r3, [sp, #15]
 2378              		.loc 1 878 0
 2379 0d64 0DF10F03 		add	r3, sp, #15
 2380 0d68 0198     		ldr	r0, [sp, #4]
 2381 0d6a 2121     		movs	r1, #33
 2382 0d6c 1A46     		mov	r2, r3
 2383 0d6e 0123     		movs	r3, #1
 2384 0d70 FFF7FEFF 		bl	LSM303AGR_ACC_WriteReg
 2385 0d74 0346     		mov	r3, r0
 2386 0d76 002B     		cmp	r3, #0
 2387 0d78 01D1     		bne	.L152
 2388              		.loc 1 879 0
 2389 0d7a 0023     		movs	r3, #0
 2390 0d7c 00E0     		b	.L153
 2391              	.L152:
 2392              		.loc 1 881 0
 2393 0d7e 0123     		movs	r3, #1
 2394              	.L153:
 2395              		.loc 1 882 0
 2396 0d80 1846     		mov	r0, r3
 2397 0d82 05B0     		add	sp, sp, #20
 2398              		@ sp needed
 2399 0d84 5DF804FB 		ldr	pc, [sp], #4
 2400              		.cfi_endproc
 2401              	.LFE304:
 2402              		.size	LSM303AGR_ACC_W_hpf_click_en, .-LSM303AGR_ACC_W_hpf_click_en
 2403              		.align	2
 2404 0d88 AFF30080 		.p2align 4,,15
 2404      AFF30080 
 2405              		.global	LSM303AGR_ACC_R_hpf_click_en
 2406              		.thumb
 2407              		.thumb_func
 2408              		.type	LSM303AGR_ACC_R_hpf_click_en, %function
 2409              	LSM303AGR_ACC_R_hpf_click_en:
 2410              	.LFB305:
 2411              		.loc 1 892 0
 2412              		.cfi_startproc
 2413              		@ args = 0, pretend = 0, frame = 8
ARM GAS  /tmp/cc1ELVNa.s 			page 44


 2414              		@ frame_needed = 0, uses_anonymous_args = 0
 2415 0d90 00B5     		push	{lr}
 2416              		.cfi_def_cfa_offset 4
 2417              		.cfi_offset 14, -4
 2418 0d92 83B0     		sub	sp, sp, #12
 2419              		.cfi_def_cfa_offset 16
 2420 0d94 0190     		str	r0, [sp, #4]
 2421 0d96 0091     		str	r1, [sp]
 2422              		.loc 1 893 0
 2423 0d98 0198     		ldr	r0, [sp, #4]
 2424 0d9a 2121     		movs	r1, #33
 2425 0d9c 009A     		ldr	r2, [sp]
 2426 0d9e 0123     		movs	r3, #1
 2427 0da0 FFF7FEFF 		bl	LSM303AGR_ACC_ReadReg
 2428 0da4 0346     		mov	r3, r0
 2429 0da6 002B     		cmp	r3, #0
 2430 0da8 01D1     		bne	.L155
 2431              		.loc 1 894 0
 2432 0daa 0023     		movs	r3, #0
 2433 0dac 07E0     		b	.L156
 2434              	.L155:
 2435              		.loc 1 896 0
 2436 0dae 009B     		ldr	r3, [sp]
 2437 0db0 1B78     		ldrb	r3, [r3]	@ zero_extendqisi2
 2438 0db2 03F00403 		and	r3, r3, #4
 2439 0db6 DAB2     		uxtb	r2, r3
 2440 0db8 009B     		ldr	r3, [sp]
 2441 0dba 1A70     		strb	r2, [r3]
 2442              		.loc 1 898 0
 2443 0dbc 0123     		movs	r3, #1
 2444              	.L156:
 2445              		.loc 1 899 0
 2446 0dbe 1846     		mov	r0, r3
 2447 0dc0 03B0     		add	sp, sp, #12
 2448              		@ sp needed
 2449 0dc2 5DF804FB 		ldr	pc, [sp], #4
 2450              		.cfi_endproc
 2451              	.LFE305:
 2452              		.size	LSM303AGR_ACC_R_hpf_click_en, .-LSM303AGR_ACC_R_hpf_click_en
 2453 0dc6 00BF     		.align	2
 2454 0dc8 AFF30080 		.p2align 4,,15
 2454      AFF30080 
 2455              		.global	LSM303AGR_ACC_W_Data_Filter
 2456              		.thumb
 2457              		.thumb_func
 2458              		.type	LSM303AGR_ACC_W_Data_Filter, %function
 2459              	LSM303AGR_ACC_W_Data_Filter:
 2460              	.LFB306:
 2461              		.loc 1 909 0
 2462              		.cfi_startproc
 2463              		@ args = 0, pretend = 0, frame = 16
 2464              		@ frame_needed = 0, uses_anonymous_args = 0
 2465 0dd0 00B5     		push	{lr}
 2466              		.cfi_def_cfa_offset 4
 2467              		.cfi_offset 14, -4
 2468 0dd2 85B0     		sub	sp, sp, #20
 2469              		.cfi_def_cfa_offset 24
ARM GAS  /tmp/cc1ELVNa.s 			page 45


 2470 0dd4 0190     		str	r0, [sp, #4]
 2471 0dd6 0B46     		mov	r3, r1
 2472 0dd8 8DF80330 		strb	r3, [sp, #3]
 2473              		.loc 1 912 0
 2474 0ddc 0DF10F03 		add	r3, sp, #15
 2475 0de0 0198     		ldr	r0, [sp, #4]
 2476 0de2 2121     		movs	r1, #33
 2477 0de4 1A46     		mov	r2, r3
 2478 0de6 0123     		movs	r3, #1
 2479 0de8 FFF7FEFF 		bl	LSM303AGR_ACC_ReadReg
 2480 0dec 0346     		mov	r3, r0
 2481 0dee 002B     		cmp	r3, #0
 2482 0df0 01D1     		bne	.L158
 2483              		.loc 1 913 0
 2484 0df2 0023     		movs	r3, #0
 2485 0df4 1CE0     		b	.L161
 2486              	.L158:
 2487              		.loc 1 915 0
 2488 0df6 9DF80F30 		ldrb	r3, [sp, #15]	@ zero_extendqisi2
 2489 0dfa 23F00803 		bic	r3, r3, #8
 2490 0dfe DBB2     		uxtb	r3, r3
 2491 0e00 8DF80F30 		strb	r3, [sp, #15]
 2492              		.loc 1 916 0
 2493 0e04 9DF80F20 		ldrb	r2, [sp, #15]	@ zero_extendqisi2
 2494 0e08 9DF80330 		ldrb	r3, [sp, #3]
 2495 0e0c 1343     		orrs	r3, r3, r2
 2496 0e0e DBB2     		uxtb	r3, r3
 2497 0e10 8DF80F30 		strb	r3, [sp, #15]
 2498              		.loc 1 918 0
 2499 0e14 0DF10F03 		add	r3, sp, #15
 2500 0e18 0198     		ldr	r0, [sp, #4]
 2501 0e1a 2121     		movs	r1, #33
 2502 0e1c 1A46     		mov	r2, r3
 2503 0e1e 0123     		movs	r3, #1
 2504 0e20 FFF7FEFF 		bl	LSM303AGR_ACC_WriteReg
 2505 0e24 0346     		mov	r3, r0
 2506 0e26 002B     		cmp	r3, #0
 2507 0e28 01D1     		bne	.L160
 2508              		.loc 1 919 0
 2509 0e2a 0023     		movs	r3, #0
 2510 0e2c 00E0     		b	.L161
 2511              	.L160:
 2512              		.loc 1 921 0
 2513 0e2e 0123     		movs	r3, #1
 2514              	.L161:
 2515              		.loc 1 922 0
 2516 0e30 1846     		mov	r0, r3
 2517 0e32 05B0     		add	sp, sp, #20
 2518              		@ sp needed
 2519 0e34 5DF804FB 		ldr	pc, [sp], #4
 2520              		.cfi_endproc
 2521              	.LFE306:
 2522              		.size	LSM303AGR_ACC_W_Data_Filter, .-LSM303AGR_ACC_W_Data_Filter
 2523              		.align	2
 2524 0e38 AFF30080 		.p2align 4,,15
 2524      AFF30080 
 2525              		.global	LSM303AGR_ACC_R_Data_Filter
ARM GAS  /tmp/cc1ELVNa.s 			page 46


 2526              		.thumb
 2527              		.thumb_func
 2528              		.type	LSM303AGR_ACC_R_Data_Filter, %function
 2529              	LSM303AGR_ACC_R_Data_Filter:
 2530              	.LFB307:
 2531              		.loc 1 932 0
 2532              		.cfi_startproc
 2533              		@ args = 0, pretend = 0, frame = 8
 2534              		@ frame_needed = 0, uses_anonymous_args = 0
 2535 0e40 00B5     		push	{lr}
 2536              		.cfi_def_cfa_offset 4
 2537              		.cfi_offset 14, -4
 2538 0e42 83B0     		sub	sp, sp, #12
 2539              		.cfi_def_cfa_offset 16
 2540 0e44 0190     		str	r0, [sp, #4]
 2541 0e46 0091     		str	r1, [sp]
 2542              		.loc 1 933 0
 2543 0e48 0198     		ldr	r0, [sp, #4]
 2544 0e4a 2121     		movs	r1, #33
 2545 0e4c 009A     		ldr	r2, [sp]
 2546 0e4e 0123     		movs	r3, #1
 2547 0e50 FFF7FEFF 		bl	LSM303AGR_ACC_ReadReg
 2548 0e54 0346     		mov	r3, r0
 2549 0e56 002B     		cmp	r3, #0
 2550 0e58 01D1     		bne	.L163
 2551              		.loc 1 934 0
 2552 0e5a 0023     		movs	r3, #0
 2553 0e5c 07E0     		b	.L164
 2554              	.L163:
 2555              		.loc 1 936 0
 2556 0e5e 009B     		ldr	r3, [sp]
 2557 0e60 1B78     		ldrb	r3, [r3]	@ zero_extendqisi2
 2558 0e62 03F00803 		and	r3, r3, #8
 2559 0e66 DAB2     		uxtb	r2, r3
 2560 0e68 009B     		ldr	r3, [sp]
 2561 0e6a 1A70     		strb	r2, [r3]
 2562              		.loc 1 938 0
 2563 0e6c 0123     		movs	r3, #1
 2564              	.L164:
 2565              		.loc 1 939 0
 2566 0e6e 1846     		mov	r0, r3
 2567 0e70 03B0     		add	sp, sp, #12
 2568              		@ sp needed
 2569 0e72 5DF804FB 		ldr	pc, [sp], #4
 2570              		.cfi_endproc
 2571              	.LFE307:
 2572              		.size	LSM303AGR_ACC_R_Data_Filter, .-LSM303AGR_ACC_R_Data_Filter
 2573 0e76 00BF     		.align	2
 2574 0e78 AFF30080 		.p2align 4,,15
 2574      AFF30080 
 2575              		.global	LSM303AGR_ACC_W_hpf_cutoff_freq
 2576              		.thumb
 2577              		.thumb_func
 2578              		.type	LSM303AGR_ACC_W_hpf_cutoff_freq, %function
 2579              	LSM303AGR_ACC_W_hpf_cutoff_freq:
 2580              	.LFB308:
 2581              		.loc 1 949 0
ARM GAS  /tmp/cc1ELVNa.s 			page 47


 2582              		.cfi_startproc
 2583              		@ args = 0, pretend = 0, frame = 16
 2584              		@ frame_needed = 0, uses_anonymous_args = 0
 2585 0e80 00B5     		push	{lr}
 2586              		.cfi_def_cfa_offset 4
 2587              		.cfi_offset 14, -4
 2588 0e82 85B0     		sub	sp, sp, #20
 2589              		.cfi_def_cfa_offset 24
 2590 0e84 0190     		str	r0, [sp, #4]
 2591 0e86 0B46     		mov	r3, r1
 2592 0e88 8DF80330 		strb	r3, [sp, #3]
 2593              		.loc 1 952 0
 2594 0e8c 0DF10F03 		add	r3, sp, #15
 2595 0e90 0198     		ldr	r0, [sp, #4]
 2596 0e92 2121     		movs	r1, #33
 2597 0e94 1A46     		mov	r2, r3
 2598 0e96 0123     		movs	r3, #1
 2599 0e98 FFF7FEFF 		bl	LSM303AGR_ACC_ReadReg
 2600 0e9c 0346     		mov	r3, r0
 2601 0e9e 002B     		cmp	r3, #0
 2602 0ea0 01D1     		bne	.L166
 2603              		.loc 1 953 0
 2604 0ea2 0023     		movs	r3, #0
 2605 0ea4 1CE0     		b	.L169
 2606              	.L166:
 2607              		.loc 1 955 0
 2608 0ea6 9DF80F30 		ldrb	r3, [sp, #15]	@ zero_extendqisi2
 2609 0eaa 23F03003 		bic	r3, r3, #48
 2610 0eae DBB2     		uxtb	r3, r3
 2611 0eb0 8DF80F30 		strb	r3, [sp, #15]
 2612              		.loc 1 956 0
 2613 0eb4 9DF80F20 		ldrb	r2, [sp, #15]	@ zero_extendqisi2
 2614 0eb8 9DF80330 		ldrb	r3, [sp, #3]
 2615 0ebc 1343     		orrs	r3, r3, r2
 2616 0ebe DBB2     		uxtb	r3, r3
 2617 0ec0 8DF80F30 		strb	r3, [sp, #15]
 2618              		.loc 1 958 0
 2619 0ec4 0DF10F03 		add	r3, sp, #15
 2620 0ec8 0198     		ldr	r0, [sp, #4]
 2621 0eca 2121     		movs	r1, #33
 2622 0ecc 1A46     		mov	r2, r3
 2623 0ece 0123     		movs	r3, #1
 2624 0ed0 FFF7FEFF 		bl	LSM303AGR_ACC_WriteReg
 2625 0ed4 0346     		mov	r3, r0
 2626 0ed6 002B     		cmp	r3, #0
 2627 0ed8 01D1     		bne	.L168
 2628              		.loc 1 959 0
 2629 0eda 0023     		movs	r3, #0
 2630 0edc 00E0     		b	.L169
 2631              	.L168:
 2632              		.loc 1 961 0
 2633 0ede 0123     		movs	r3, #1
 2634              	.L169:
 2635              		.loc 1 962 0
 2636 0ee0 1846     		mov	r0, r3
 2637 0ee2 05B0     		add	sp, sp, #20
 2638              		@ sp needed
ARM GAS  /tmp/cc1ELVNa.s 			page 48


 2639 0ee4 5DF804FB 		ldr	pc, [sp], #4
 2640              		.cfi_endproc
 2641              	.LFE308:
 2642              		.size	LSM303AGR_ACC_W_hpf_cutoff_freq, .-LSM303AGR_ACC_W_hpf_cutoff_freq
 2643              		.align	2
 2644 0ee8 AFF30080 		.p2align 4,,15
 2644      AFF30080 
 2645              		.global	LSM303AGR_ACC_R_hpf_cutoff_freq
 2646              		.thumb
 2647              		.thumb_func
 2648              		.type	LSM303AGR_ACC_R_hpf_cutoff_freq, %function
 2649              	LSM303AGR_ACC_R_hpf_cutoff_freq:
 2650              	.LFB309:
 2651              		.loc 1 972 0
 2652              		.cfi_startproc
 2653              		@ args = 0, pretend = 0, frame = 8
 2654              		@ frame_needed = 0, uses_anonymous_args = 0
 2655 0ef0 00B5     		push	{lr}
 2656              		.cfi_def_cfa_offset 4
 2657              		.cfi_offset 14, -4
 2658 0ef2 83B0     		sub	sp, sp, #12
 2659              		.cfi_def_cfa_offset 16
 2660 0ef4 0190     		str	r0, [sp, #4]
 2661 0ef6 0091     		str	r1, [sp]
 2662              		.loc 1 973 0
 2663 0ef8 0198     		ldr	r0, [sp, #4]
 2664 0efa 2121     		movs	r1, #33
 2665 0efc 009A     		ldr	r2, [sp]
 2666 0efe 0123     		movs	r3, #1
 2667 0f00 FFF7FEFF 		bl	LSM303AGR_ACC_ReadReg
 2668 0f04 0346     		mov	r3, r0
 2669 0f06 002B     		cmp	r3, #0
 2670 0f08 01D1     		bne	.L171
 2671              		.loc 1 974 0
 2672 0f0a 0023     		movs	r3, #0
 2673 0f0c 07E0     		b	.L172
 2674              	.L171:
 2675              		.loc 1 976 0
 2676 0f0e 009B     		ldr	r3, [sp]
 2677 0f10 1B78     		ldrb	r3, [r3]	@ zero_extendqisi2
 2678 0f12 03F03003 		and	r3, r3, #48
 2679 0f16 DAB2     		uxtb	r2, r3
 2680 0f18 009B     		ldr	r3, [sp]
 2681 0f1a 1A70     		strb	r2, [r3]
 2682              		.loc 1 978 0
 2683 0f1c 0123     		movs	r3, #1
 2684              	.L172:
 2685              		.loc 1 979 0
 2686 0f1e 1846     		mov	r0, r3
 2687 0f20 03B0     		add	sp, sp, #12
 2688              		@ sp needed
 2689 0f22 5DF804FB 		ldr	pc, [sp], #4
 2690              		.cfi_endproc
 2691              	.LFE309:
 2692              		.size	LSM303AGR_ACC_R_hpf_cutoff_freq, .-LSM303AGR_ACC_R_hpf_cutoff_freq
 2693 0f26 00BF     		.align	2
 2694 0f28 AFF30080 		.p2align 4,,15
ARM GAS  /tmp/cc1ELVNa.s 			page 49


 2694      AFF30080 
 2695              		.global	LSM303AGR_ACC_W_hpf_mode
 2696              		.thumb
 2697              		.thumb_func
 2698              		.type	LSM303AGR_ACC_W_hpf_mode, %function
 2699              	LSM303AGR_ACC_W_hpf_mode:
 2700              	.LFB310:
 2701              		.loc 1 989 0
 2702              		.cfi_startproc
 2703              		@ args = 0, pretend = 0, frame = 16
 2704              		@ frame_needed = 0, uses_anonymous_args = 0
 2705 0f30 00B5     		push	{lr}
 2706              		.cfi_def_cfa_offset 4
 2707              		.cfi_offset 14, -4
 2708 0f32 85B0     		sub	sp, sp, #20
 2709              		.cfi_def_cfa_offset 24
 2710 0f34 0190     		str	r0, [sp, #4]
 2711 0f36 0B46     		mov	r3, r1
 2712 0f38 8DF80330 		strb	r3, [sp, #3]
 2713              		.loc 1 992 0
 2714 0f3c 0DF10F03 		add	r3, sp, #15
 2715 0f40 0198     		ldr	r0, [sp, #4]
 2716 0f42 2121     		movs	r1, #33
 2717 0f44 1A46     		mov	r2, r3
 2718 0f46 0123     		movs	r3, #1
 2719 0f48 FFF7FEFF 		bl	LSM303AGR_ACC_ReadReg
 2720 0f4c 0346     		mov	r3, r0
 2721 0f4e 002B     		cmp	r3, #0
 2722 0f50 01D1     		bne	.L174
 2723              		.loc 1 993 0
 2724 0f52 0023     		movs	r3, #0
 2725 0f54 1CE0     		b	.L177
 2726              	.L174:
 2727              		.loc 1 995 0
 2728 0f56 9DF80F30 		ldrb	r3, [sp, #15]	@ zero_extendqisi2
 2729 0f5a 03F03F03 		and	r3, r3, #63
 2730 0f5e DBB2     		uxtb	r3, r3
 2731 0f60 8DF80F30 		strb	r3, [sp, #15]
 2732              		.loc 1 996 0
 2733 0f64 9DF80F20 		ldrb	r2, [sp, #15]	@ zero_extendqisi2
 2734 0f68 9DF80330 		ldrb	r3, [sp, #3]
 2735 0f6c 1343     		orrs	r3, r3, r2
 2736 0f6e DBB2     		uxtb	r3, r3
 2737 0f70 8DF80F30 		strb	r3, [sp, #15]
 2738              		.loc 1 998 0
 2739 0f74 0DF10F03 		add	r3, sp, #15
 2740 0f78 0198     		ldr	r0, [sp, #4]
 2741 0f7a 2121     		movs	r1, #33
 2742 0f7c 1A46     		mov	r2, r3
 2743 0f7e 0123     		movs	r3, #1
 2744 0f80 FFF7FEFF 		bl	LSM303AGR_ACC_WriteReg
 2745 0f84 0346     		mov	r3, r0
 2746 0f86 002B     		cmp	r3, #0
 2747 0f88 01D1     		bne	.L176
 2748              		.loc 1 999 0
 2749 0f8a 0023     		movs	r3, #0
 2750 0f8c 00E0     		b	.L177
ARM GAS  /tmp/cc1ELVNa.s 			page 50


 2751              	.L176:
 2752              		.loc 1 1001 0
 2753 0f8e 0123     		movs	r3, #1
 2754              	.L177:
 2755              		.loc 1 1002 0
 2756 0f90 1846     		mov	r0, r3
 2757 0f92 05B0     		add	sp, sp, #20
 2758              		@ sp needed
 2759 0f94 5DF804FB 		ldr	pc, [sp], #4
 2760              		.cfi_endproc
 2761              	.LFE310:
 2762              		.size	LSM303AGR_ACC_W_hpf_mode, .-LSM303AGR_ACC_W_hpf_mode
 2763              		.align	2
 2764 0f98 AFF30080 		.p2align 4,,15
 2764      AFF30080 
 2765              		.global	LSM303AGR_ACC_R_hpf_mode
 2766              		.thumb
 2767              		.thumb_func
 2768              		.type	LSM303AGR_ACC_R_hpf_mode, %function
 2769              	LSM303AGR_ACC_R_hpf_mode:
 2770              	.LFB311:
 2771              		.loc 1 1012 0
 2772              		.cfi_startproc
 2773              		@ args = 0, pretend = 0, frame = 8
 2774              		@ frame_needed = 0, uses_anonymous_args = 0
 2775 0fa0 00B5     		push	{lr}
 2776              		.cfi_def_cfa_offset 4
 2777              		.cfi_offset 14, -4
 2778 0fa2 83B0     		sub	sp, sp, #12
 2779              		.cfi_def_cfa_offset 16
 2780 0fa4 0190     		str	r0, [sp, #4]
 2781 0fa6 0091     		str	r1, [sp]
 2782              		.loc 1 1013 0
 2783 0fa8 0198     		ldr	r0, [sp, #4]
 2784 0faa 2121     		movs	r1, #33
 2785 0fac 009A     		ldr	r2, [sp]
 2786 0fae 0123     		movs	r3, #1
 2787 0fb0 FFF7FEFF 		bl	LSM303AGR_ACC_ReadReg
 2788 0fb4 0346     		mov	r3, r0
 2789 0fb6 002B     		cmp	r3, #0
 2790 0fb8 01D1     		bne	.L179
 2791              		.loc 1 1014 0
 2792 0fba 0023     		movs	r3, #0
 2793 0fbc 07E0     		b	.L180
 2794              	.L179:
 2795              		.loc 1 1016 0
 2796 0fbe 009B     		ldr	r3, [sp]
 2797 0fc0 1B78     		ldrb	r3, [r3]	@ zero_extendqisi2
 2798 0fc2 23F03F03 		bic	r3, r3, #63
 2799 0fc6 DAB2     		uxtb	r2, r3
 2800 0fc8 009B     		ldr	r3, [sp]
 2801 0fca 1A70     		strb	r2, [r3]
 2802              		.loc 1 1018 0
 2803 0fcc 0123     		movs	r3, #1
 2804              	.L180:
 2805              		.loc 1 1019 0
 2806 0fce 1846     		mov	r0, r3
ARM GAS  /tmp/cc1ELVNa.s 			page 51


 2807 0fd0 03B0     		add	sp, sp, #12
 2808              		@ sp needed
 2809 0fd2 5DF804FB 		ldr	pc, [sp], #4
 2810              		.cfi_endproc
 2811              	.LFE311:
 2812              		.size	LSM303AGR_ACC_R_hpf_mode, .-LSM303AGR_ACC_R_hpf_mode
 2813 0fd6 00BF     		.align	2
 2814 0fd8 AFF30080 		.p2align 4,,15
 2814      AFF30080 
 2815              		.global	LSM303AGR_ACC_W_FIFO_Overrun_on_INT1
 2816              		.thumb
 2817              		.thumb_func
 2818              		.type	LSM303AGR_ACC_W_FIFO_Overrun_on_INT1, %function
 2819              	LSM303AGR_ACC_W_FIFO_Overrun_on_INT1:
 2820              	.LFB312:
 2821              		.loc 1 1029 0
 2822              		.cfi_startproc
 2823              		@ args = 0, pretend = 0, frame = 16
 2824              		@ frame_needed = 0, uses_anonymous_args = 0
 2825 0fe0 00B5     		push	{lr}
 2826              		.cfi_def_cfa_offset 4
 2827              		.cfi_offset 14, -4
 2828 0fe2 85B0     		sub	sp, sp, #20
 2829              		.cfi_def_cfa_offset 24
 2830 0fe4 0190     		str	r0, [sp, #4]
 2831 0fe6 0B46     		mov	r3, r1
 2832 0fe8 8DF80330 		strb	r3, [sp, #3]
 2833              		.loc 1 1032 0
 2834 0fec 0DF10F03 		add	r3, sp, #15
 2835 0ff0 0198     		ldr	r0, [sp, #4]
 2836 0ff2 2221     		movs	r1, #34
 2837 0ff4 1A46     		mov	r2, r3
 2838 0ff6 0123     		movs	r3, #1
 2839 0ff8 FFF7FEFF 		bl	LSM303AGR_ACC_ReadReg
 2840 0ffc 0346     		mov	r3, r0
 2841 0ffe 002B     		cmp	r3, #0
 2842 1000 01D1     		bne	.L182
 2843              		.loc 1 1033 0
 2844 1002 0023     		movs	r3, #0
 2845 1004 1CE0     		b	.L185
 2846              	.L182:
 2847              		.loc 1 1035 0
 2848 1006 9DF80F30 		ldrb	r3, [sp, #15]	@ zero_extendqisi2
 2849 100a 23F00203 		bic	r3, r3, #2
 2850 100e DBB2     		uxtb	r3, r3
 2851 1010 8DF80F30 		strb	r3, [sp, #15]
 2852              		.loc 1 1036 0
 2853 1014 9DF80F20 		ldrb	r2, [sp, #15]	@ zero_extendqisi2
 2854 1018 9DF80330 		ldrb	r3, [sp, #3]
 2855 101c 1343     		orrs	r3, r3, r2
 2856 101e DBB2     		uxtb	r3, r3
 2857 1020 8DF80F30 		strb	r3, [sp, #15]
 2858              		.loc 1 1038 0
 2859 1024 0DF10F03 		add	r3, sp, #15
 2860 1028 0198     		ldr	r0, [sp, #4]
 2861 102a 2221     		movs	r1, #34
 2862 102c 1A46     		mov	r2, r3
ARM GAS  /tmp/cc1ELVNa.s 			page 52


 2863 102e 0123     		movs	r3, #1
 2864 1030 FFF7FEFF 		bl	LSM303AGR_ACC_WriteReg
 2865 1034 0346     		mov	r3, r0
 2866 1036 002B     		cmp	r3, #0
 2867 1038 01D1     		bne	.L184
 2868              		.loc 1 1039 0
 2869 103a 0023     		movs	r3, #0
 2870 103c 00E0     		b	.L185
 2871              	.L184:
 2872              		.loc 1 1041 0
 2873 103e 0123     		movs	r3, #1
 2874              	.L185:
 2875              		.loc 1 1042 0
 2876 1040 1846     		mov	r0, r3
 2877 1042 05B0     		add	sp, sp, #20
 2878              		@ sp needed
 2879 1044 5DF804FB 		ldr	pc, [sp], #4
 2880              		.cfi_endproc
 2881              	.LFE312:
 2882              		.size	LSM303AGR_ACC_W_FIFO_Overrun_on_INT1, .-LSM303AGR_ACC_W_FIFO_Overrun_on_INT1
 2883              		.align	2
 2884 1048 AFF30080 		.p2align 4,,15
 2884      AFF30080 
 2885              		.global	LSM303AGR_ACC_R_FIFO_Overrun_on_INT1
 2886              		.thumb
 2887              		.thumb_func
 2888              		.type	LSM303AGR_ACC_R_FIFO_Overrun_on_INT1, %function
 2889              	LSM303AGR_ACC_R_FIFO_Overrun_on_INT1:
 2890              	.LFB313:
 2891              		.loc 1 1052 0
 2892              		.cfi_startproc
 2893              		@ args = 0, pretend = 0, frame = 8
 2894              		@ frame_needed = 0, uses_anonymous_args = 0
 2895 1050 00B5     		push	{lr}
 2896              		.cfi_def_cfa_offset 4
 2897              		.cfi_offset 14, -4
 2898 1052 83B0     		sub	sp, sp, #12
 2899              		.cfi_def_cfa_offset 16
 2900 1054 0190     		str	r0, [sp, #4]
 2901 1056 0091     		str	r1, [sp]
 2902              		.loc 1 1053 0
 2903 1058 0198     		ldr	r0, [sp, #4]
 2904 105a 2221     		movs	r1, #34
 2905 105c 009A     		ldr	r2, [sp]
 2906 105e 0123     		movs	r3, #1
 2907 1060 FFF7FEFF 		bl	LSM303AGR_ACC_ReadReg
 2908 1064 0346     		mov	r3, r0
 2909 1066 002B     		cmp	r3, #0
 2910 1068 01D1     		bne	.L187
 2911              		.loc 1 1054 0
 2912 106a 0023     		movs	r3, #0
 2913 106c 07E0     		b	.L188
 2914              	.L187:
 2915              		.loc 1 1056 0
 2916 106e 009B     		ldr	r3, [sp]
 2917 1070 1B78     		ldrb	r3, [r3]	@ zero_extendqisi2
 2918 1072 03F00203 		and	r3, r3, #2
ARM GAS  /tmp/cc1ELVNa.s 			page 53


 2919 1076 DAB2     		uxtb	r2, r3
 2920 1078 009B     		ldr	r3, [sp]
 2921 107a 1A70     		strb	r2, [r3]
 2922              		.loc 1 1058 0
 2923 107c 0123     		movs	r3, #1
 2924              	.L188:
 2925              		.loc 1 1059 0
 2926 107e 1846     		mov	r0, r3
 2927 1080 03B0     		add	sp, sp, #12
 2928              		@ sp needed
 2929 1082 5DF804FB 		ldr	pc, [sp], #4
 2930              		.cfi_endproc
 2931              	.LFE313:
 2932              		.size	LSM303AGR_ACC_R_FIFO_Overrun_on_INT1, .-LSM303AGR_ACC_R_FIFO_Overrun_on_INT1
 2933 1086 00BF     		.align	2
 2934 1088 AFF30080 		.p2align 4,,15
 2934      AFF30080 
 2935              		.global	LSM303AGR_ACC_W_FIFO_Watermark_on_INT1
 2936              		.thumb
 2937              		.thumb_func
 2938              		.type	LSM303AGR_ACC_W_FIFO_Watermark_on_INT1, %function
 2939              	LSM303AGR_ACC_W_FIFO_Watermark_on_INT1:
 2940              	.LFB314:
 2941              		.loc 1 1069 0
 2942              		.cfi_startproc
 2943              		@ args = 0, pretend = 0, frame = 16
 2944              		@ frame_needed = 0, uses_anonymous_args = 0
 2945 1090 00B5     		push	{lr}
 2946              		.cfi_def_cfa_offset 4
 2947              		.cfi_offset 14, -4
 2948 1092 85B0     		sub	sp, sp, #20
 2949              		.cfi_def_cfa_offset 24
 2950 1094 0190     		str	r0, [sp, #4]
 2951 1096 0B46     		mov	r3, r1
 2952 1098 8DF80330 		strb	r3, [sp, #3]
 2953              		.loc 1 1072 0
 2954 109c 0DF10F03 		add	r3, sp, #15
 2955 10a0 0198     		ldr	r0, [sp, #4]
 2956 10a2 2221     		movs	r1, #34
 2957 10a4 1A46     		mov	r2, r3
 2958 10a6 0123     		movs	r3, #1
 2959 10a8 FFF7FEFF 		bl	LSM303AGR_ACC_ReadReg
 2960 10ac 0346     		mov	r3, r0
 2961 10ae 002B     		cmp	r3, #0
 2962 10b0 01D1     		bne	.L190
 2963              		.loc 1 1073 0
 2964 10b2 0023     		movs	r3, #0
 2965 10b4 1CE0     		b	.L193
 2966              	.L190:
 2967              		.loc 1 1075 0
 2968 10b6 9DF80F30 		ldrb	r3, [sp, #15]	@ zero_extendqisi2
 2969 10ba 23F00403 		bic	r3, r3, #4
 2970 10be DBB2     		uxtb	r3, r3
 2971 10c0 8DF80F30 		strb	r3, [sp, #15]
 2972              		.loc 1 1076 0
 2973 10c4 9DF80F20 		ldrb	r2, [sp, #15]	@ zero_extendqisi2
 2974 10c8 9DF80330 		ldrb	r3, [sp, #3]
ARM GAS  /tmp/cc1ELVNa.s 			page 54


 2975 10cc 1343     		orrs	r3, r3, r2
 2976 10ce DBB2     		uxtb	r3, r3
 2977 10d0 8DF80F30 		strb	r3, [sp, #15]
 2978              		.loc 1 1078 0
 2979 10d4 0DF10F03 		add	r3, sp, #15
 2980 10d8 0198     		ldr	r0, [sp, #4]
 2981 10da 2221     		movs	r1, #34
 2982 10dc 1A46     		mov	r2, r3
 2983 10de 0123     		movs	r3, #1
 2984 10e0 FFF7FEFF 		bl	LSM303AGR_ACC_WriteReg
 2985 10e4 0346     		mov	r3, r0
 2986 10e6 002B     		cmp	r3, #0
 2987 10e8 01D1     		bne	.L192
 2988              		.loc 1 1079 0
 2989 10ea 0023     		movs	r3, #0
 2990 10ec 00E0     		b	.L193
 2991              	.L192:
 2992              		.loc 1 1081 0
 2993 10ee 0123     		movs	r3, #1
 2994              	.L193:
 2995              		.loc 1 1082 0
 2996 10f0 1846     		mov	r0, r3
 2997 10f2 05B0     		add	sp, sp, #20
 2998              		@ sp needed
 2999 10f4 5DF804FB 		ldr	pc, [sp], #4
 3000              		.cfi_endproc
 3001              	.LFE314:
 3002              		.size	LSM303AGR_ACC_W_FIFO_Watermark_on_INT1, .-LSM303AGR_ACC_W_FIFO_Watermark_on_INT1
 3003              		.align	2
 3004 10f8 AFF30080 		.p2align 4,,15
 3004      AFF30080 
 3005              		.global	LSM303AGR_ACC_R_FIFO_Watermark_on_INT1
 3006              		.thumb
 3007              		.thumb_func
 3008              		.type	LSM303AGR_ACC_R_FIFO_Watermark_on_INT1, %function
 3009              	LSM303AGR_ACC_R_FIFO_Watermark_on_INT1:
 3010              	.LFB315:
 3011              		.loc 1 1092 0
 3012              		.cfi_startproc
 3013              		@ args = 0, pretend = 0, frame = 8
 3014              		@ frame_needed = 0, uses_anonymous_args = 0
 3015 1100 00B5     		push	{lr}
 3016              		.cfi_def_cfa_offset 4
 3017              		.cfi_offset 14, -4
 3018 1102 83B0     		sub	sp, sp, #12
 3019              		.cfi_def_cfa_offset 16
 3020 1104 0190     		str	r0, [sp, #4]
 3021 1106 0091     		str	r1, [sp]
 3022              		.loc 1 1093 0
 3023 1108 0198     		ldr	r0, [sp, #4]
 3024 110a 2221     		movs	r1, #34
 3025 110c 009A     		ldr	r2, [sp]
 3026 110e 0123     		movs	r3, #1
 3027 1110 FFF7FEFF 		bl	LSM303AGR_ACC_ReadReg
 3028 1114 0346     		mov	r3, r0
 3029 1116 002B     		cmp	r3, #0
 3030 1118 01D1     		bne	.L195
ARM GAS  /tmp/cc1ELVNa.s 			page 55


 3031              		.loc 1 1094 0
 3032 111a 0023     		movs	r3, #0
 3033 111c 07E0     		b	.L196
 3034              	.L195:
 3035              		.loc 1 1096 0
 3036 111e 009B     		ldr	r3, [sp]
 3037 1120 1B78     		ldrb	r3, [r3]	@ zero_extendqisi2
 3038 1122 03F00403 		and	r3, r3, #4
 3039 1126 DAB2     		uxtb	r2, r3
 3040 1128 009B     		ldr	r3, [sp]
 3041 112a 1A70     		strb	r2, [r3]
 3042              		.loc 1 1098 0
 3043 112c 0123     		movs	r3, #1
 3044              	.L196:
 3045              		.loc 1 1099 0
 3046 112e 1846     		mov	r0, r3
 3047 1130 03B0     		add	sp, sp, #12
 3048              		@ sp needed
 3049 1132 5DF804FB 		ldr	pc, [sp], #4
 3050              		.cfi_endproc
 3051              	.LFE315:
 3052              		.size	LSM303AGR_ACC_R_FIFO_Watermark_on_INT1, .-LSM303AGR_ACC_R_FIFO_Watermark_on_INT1
 3053 1136 00BF     		.align	2
 3054 1138 AFF30080 		.p2align 4,,15
 3054      AFF30080 
 3055              		.global	LSM303AGR_ACC_W_FIFO_DRDY2_on_INT1
 3056              		.thumb
 3057              		.thumb_func
 3058              		.type	LSM303AGR_ACC_W_FIFO_DRDY2_on_INT1, %function
 3059              	LSM303AGR_ACC_W_FIFO_DRDY2_on_INT1:
 3060              	.LFB316:
 3061              		.loc 1 1109 0
 3062              		.cfi_startproc
 3063              		@ args = 0, pretend = 0, frame = 16
 3064              		@ frame_needed = 0, uses_anonymous_args = 0
 3065 1140 00B5     		push	{lr}
 3066              		.cfi_def_cfa_offset 4
 3067              		.cfi_offset 14, -4
 3068 1142 85B0     		sub	sp, sp, #20
 3069              		.cfi_def_cfa_offset 24
 3070 1144 0190     		str	r0, [sp, #4]
 3071 1146 0B46     		mov	r3, r1
 3072 1148 8DF80330 		strb	r3, [sp, #3]
 3073              		.loc 1 1112 0
 3074 114c 0DF10F03 		add	r3, sp, #15
 3075 1150 0198     		ldr	r0, [sp, #4]
 3076 1152 2221     		movs	r1, #34
 3077 1154 1A46     		mov	r2, r3
 3078 1156 0123     		movs	r3, #1
 3079 1158 FFF7FEFF 		bl	LSM303AGR_ACC_ReadReg
 3080 115c 0346     		mov	r3, r0
 3081 115e 002B     		cmp	r3, #0
 3082 1160 01D1     		bne	.L198
 3083              		.loc 1 1113 0
 3084 1162 0023     		movs	r3, #0
 3085 1164 1CE0     		b	.L201
 3086              	.L198:
ARM GAS  /tmp/cc1ELVNa.s 			page 56


 3087              		.loc 1 1115 0
 3088 1166 9DF80F30 		ldrb	r3, [sp, #15]	@ zero_extendqisi2
 3089 116a 23F00803 		bic	r3, r3, #8
 3090 116e DBB2     		uxtb	r3, r3
 3091 1170 8DF80F30 		strb	r3, [sp, #15]
 3092              		.loc 1 1116 0
 3093 1174 9DF80F20 		ldrb	r2, [sp, #15]	@ zero_extendqisi2
 3094 1178 9DF80330 		ldrb	r3, [sp, #3]
 3095 117c 1343     		orrs	r3, r3, r2
 3096 117e DBB2     		uxtb	r3, r3
 3097 1180 8DF80F30 		strb	r3, [sp, #15]
 3098              		.loc 1 1118 0
 3099 1184 0DF10F03 		add	r3, sp, #15
 3100 1188 0198     		ldr	r0, [sp, #4]
 3101 118a 2221     		movs	r1, #34
 3102 118c 1A46     		mov	r2, r3
 3103 118e 0123     		movs	r3, #1
 3104 1190 FFF7FEFF 		bl	LSM303AGR_ACC_WriteReg
 3105 1194 0346     		mov	r3, r0
 3106 1196 002B     		cmp	r3, #0
 3107 1198 01D1     		bne	.L200
 3108              		.loc 1 1119 0
 3109 119a 0023     		movs	r3, #0
 3110 119c 00E0     		b	.L201
 3111              	.L200:
 3112              		.loc 1 1121 0
 3113 119e 0123     		movs	r3, #1
 3114              	.L201:
 3115              		.loc 1 1122 0
 3116 11a0 1846     		mov	r0, r3
 3117 11a2 05B0     		add	sp, sp, #20
 3118              		@ sp needed
 3119 11a4 5DF804FB 		ldr	pc, [sp], #4
 3120              		.cfi_endproc
 3121              	.LFE316:
 3122              		.size	LSM303AGR_ACC_W_FIFO_DRDY2_on_INT1, .-LSM303AGR_ACC_W_FIFO_DRDY2_on_INT1
 3123              		.align	2
 3124 11a8 AFF30080 		.p2align 4,,15
 3124      AFF30080 
 3125              		.global	LSM303AGR_ACC_R_FIFO_DRDY2_on_INT1
 3126              		.thumb
 3127              		.thumb_func
 3128              		.type	LSM303AGR_ACC_R_FIFO_DRDY2_on_INT1, %function
 3129              	LSM303AGR_ACC_R_FIFO_DRDY2_on_INT1:
 3130              	.LFB317:
 3131              		.loc 1 1132 0
 3132              		.cfi_startproc
 3133              		@ args = 0, pretend = 0, frame = 8
 3134              		@ frame_needed = 0, uses_anonymous_args = 0
 3135 11b0 00B5     		push	{lr}
 3136              		.cfi_def_cfa_offset 4
 3137              		.cfi_offset 14, -4
 3138 11b2 83B0     		sub	sp, sp, #12
 3139              		.cfi_def_cfa_offset 16
 3140 11b4 0190     		str	r0, [sp, #4]
 3141 11b6 0091     		str	r1, [sp]
 3142              		.loc 1 1133 0
ARM GAS  /tmp/cc1ELVNa.s 			page 57


 3143 11b8 0198     		ldr	r0, [sp, #4]
 3144 11ba 2221     		movs	r1, #34
 3145 11bc 009A     		ldr	r2, [sp]
 3146 11be 0123     		movs	r3, #1
 3147 11c0 FFF7FEFF 		bl	LSM303AGR_ACC_ReadReg
 3148 11c4 0346     		mov	r3, r0
 3149 11c6 002B     		cmp	r3, #0
 3150 11c8 01D1     		bne	.L203
 3151              		.loc 1 1134 0
 3152 11ca 0023     		movs	r3, #0
 3153 11cc 07E0     		b	.L204
 3154              	.L203:
 3155              		.loc 1 1136 0
 3156 11ce 009B     		ldr	r3, [sp]
 3157 11d0 1B78     		ldrb	r3, [r3]	@ zero_extendqisi2
 3158 11d2 03F00803 		and	r3, r3, #8
 3159 11d6 DAB2     		uxtb	r2, r3
 3160 11d8 009B     		ldr	r3, [sp]
 3161 11da 1A70     		strb	r2, [r3]
 3162              		.loc 1 1138 0
 3163 11dc 0123     		movs	r3, #1
 3164              	.L204:
 3165              		.loc 1 1139 0
 3166 11de 1846     		mov	r0, r3
 3167 11e0 03B0     		add	sp, sp, #12
 3168              		@ sp needed
 3169 11e2 5DF804FB 		ldr	pc, [sp], #4
 3170              		.cfi_endproc
 3171              	.LFE317:
 3172              		.size	LSM303AGR_ACC_R_FIFO_DRDY2_on_INT1, .-LSM303AGR_ACC_R_FIFO_DRDY2_on_INT1
 3173 11e6 00BF     		.align	2
 3174 11e8 AFF30080 		.p2align 4,,15
 3174      AFF30080 
 3175              		.global	LSM303AGR_ACC_W_FIFO_DRDY1_on_INT1
 3176              		.thumb
 3177              		.thumb_func
 3178              		.type	LSM303AGR_ACC_W_FIFO_DRDY1_on_INT1, %function
 3179              	LSM303AGR_ACC_W_FIFO_DRDY1_on_INT1:
 3180              	.LFB318:
 3181              		.loc 1 1149 0
 3182              		.cfi_startproc
 3183              		@ args = 0, pretend = 0, frame = 16
 3184              		@ frame_needed = 0, uses_anonymous_args = 0
 3185 11f0 00B5     		push	{lr}
 3186              		.cfi_def_cfa_offset 4
 3187              		.cfi_offset 14, -4
 3188 11f2 85B0     		sub	sp, sp, #20
 3189              		.cfi_def_cfa_offset 24
 3190 11f4 0190     		str	r0, [sp, #4]
 3191 11f6 0B46     		mov	r3, r1
 3192 11f8 8DF80330 		strb	r3, [sp, #3]
 3193              		.loc 1 1152 0
 3194 11fc 0DF10F03 		add	r3, sp, #15
 3195 1200 0198     		ldr	r0, [sp, #4]
 3196 1202 2221     		movs	r1, #34
 3197 1204 1A46     		mov	r2, r3
 3198 1206 0123     		movs	r3, #1
ARM GAS  /tmp/cc1ELVNa.s 			page 58


 3199 1208 FFF7FEFF 		bl	LSM303AGR_ACC_ReadReg
 3200 120c 0346     		mov	r3, r0
 3201 120e 002B     		cmp	r3, #0
 3202 1210 01D1     		bne	.L206
 3203              		.loc 1 1153 0
 3204 1212 0023     		movs	r3, #0
 3205 1214 1CE0     		b	.L209
 3206              	.L206:
 3207              		.loc 1 1155 0
 3208 1216 9DF80F30 		ldrb	r3, [sp, #15]	@ zero_extendqisi2
 3209 121a 23F01003 		bic	r3, r3, #16
 3210 121e DBB2     		uxtb	r3, r3
 3211 1220 8DF80F30 		strb	r3, [sp, #15]
 3212              		.loc 1 1156 0
 3213 1224 9DF80F20 		ldrb	r2, [sp, #15]	@ zero_extendqisi2
 3214 1228 9DF80330 		ldrb	r3, [sp, #3]
 3215 122c 1343     		orrs	r3, r3, r2
 3216 122e DBB2     		uxtb	r3, r3
 3217 1230 8DF80F30 		strb	r3, [sp, #15]
 3218              		.loc 1 1158 0
 3219 1234 0DF10F03 		add	r3, sp, #15
 3220 1238 0198     		ldr	r0, [sp, #4]
 3221 123a 2221     		movs	r1, #34
 3222 123c 1A46     		mov	r2, r3
 3223 123e 0123     		movs	r3, #1
 3224 1240 FFF7FEFF 		bl	LSM303AGR_ACC_WriteReg
 3225 1244 0346     		mov	r3, r0
 3226 1246 002B     		cmp	r3, #0
 3227 1248 01D1     		bne	.L208
 3228              		.loc 1 1159 0
 3229 124a 0023     		movs	r3, #0
 3230 124c 00E0     		b	.L209
 3231              	.L208:
 3232              		.loc 1 1161 0
 3233 124e 0123     		movs	r3, #1
 3234              	.L209:
 3235              		.loc 1 1162 0
 3236 1250 1846     		mov	r0, r3
 3237 1252 05B0     		add	sp, sp, #20
 3238              		@ sp needed
 3239 1254 5DF804FB 		ldr	pc, [sp], #4
 3240              		.cfi_endproc
 3241              	.LFE318:
 3242              		.size	LSM303AGR_ACC_W_FIFO_DRDY1_on_INT1, .-LSM303AGR_ACC_W_FIFO_DRDY1_on_INT1
 3243              		.align	2
 3244 1258 AFF30080 		.p2align 4,,15
 3244      AFF30080 
 3245              		.global	LSM303AGR_ACC_R_FIFO_DRDY1_on_INT1
 3246              		.thumb
 3247              		.thumb_func
 3248              		.type	LSM303AGR_ACC_R_FIFO_DRDY1_on_INT1, %function
 3249              	LSM303AGR_ACC_R_FIFO_DRDY1_on_INT1:
 3250              	.LFB319:
 3251              		.loc 1 1172 0
 3252              		.cfi_startproc
 3253              		@ args = 0, pretend = 0, frame = 8
 3254              		@ frame_needed = 0, uses_anonymous_args = 0
ARM GAS  /tmp/cc1ELVNa.s 			page 59


 3255 1260 00B5     		push	{lr}
 3256              		.cfi_def_cfa_offset 4
 3257              		.cfi_offset 14, -4
 3258 1262 83B0     		sub	sp, sp, #12
 3259              		.cfi_def_cfa_offset 16
 3260 1264 0190     		str	r0, [sp, #4]
 3261 1266 0091     		str	r1, [sp]
 3262              		.loc 1 1173 0
 3263 1268 0198     		ldr	r0, [sp, #4]
 3264 126a 2221     		movs	r1, #34
 3265 126c 009A     		ldr	r2, [sp]
 3266 126e 0123     		movs	r3, #1
 3267 1270 FFF7FEFF 		bl	LSM303AGR_ACC_ReadReg
 3268 1274 0346     		mov	r3, r0
 3269 1276 002B     		cmp	r3, #0
 3270 1278 01D1     		bne	.L211
 3271              		.loc 1 1174 0
 3272 127a 0023     		movs	r3, #0
 3273 127c 07E0     		b	.L212
 3274              	.L211:
 3275              		.loc 1 1176 0
 3276 127e 009B     		ldr	r3, [sp]
 3277 1280 1B78     		ldrb	r3, [r3]	@ zero_extendqisi2
 3278 1282 03F01003 		and	r3, r3, #16
 3279 1286 DAB2     		uxtb	r2, r3
 3280 1288 009B     		ldr	r3, [sp]
 3281 128a 1A70     		strb	r2, [r3]
 3282              		.loc 1 1178 0
 3283 128c 0123     		movs	r3, #1
 3284              	.L212:
 3285              		.loc 1 1179 0
 3286 128e 1846     		mov	r0, r3
 3287 1290 03B0     		add	sp, sp, #12
 3288              		@ sp needed
 3289 1292 5DF804FB 		ldr	pc, [sp], #4
 3290              		.cfi_endproc
 3291              	.LFE319:
 3292              		.size	LSM303AGR_ACC_R_FIFO_DRDY1_on_INT1, .-LSM303AGR_ACC_R_FIFO_DRDY1_on_INT1
 3293 1296 00BF     		.align	2
 3294 1298 AFF30080 		.p2align 4,,15
 3294      AFF30080 
 3295              		.global	LSM303AGR_ACC_W_FIFO_AOL2_on_INT1
 3296              		.thumb
 3297              		.thumb_func
 3298              		.type	LSM303AGR_ACC_W_FIFO_AOL2_on_INT1, %function
 3299              	LSM303AGR_ACC_W_FIFO_AOL2_on_INT1:
 3300              	.LFB320:
 3301              		.loc 1 1189 0
 3302              		.cfi_startproc
 3303              		@ args = 0, pretend = 0, frame = 16
 3304              		@ frame_needed = 0, uses_anonymous_args = 0
 3305 12a0 00B5     		push	{lr}
 3306              		.cfi_def_cfa_offset 4
 3307              		.cfi_offset 14, -4
 3308 12a2 85B0     		sub	sp, sp, #20
 3309              		.cfi_def_cfa_offset 24
 3310 12a4 0190     		str	r0, [sp, #4]
ARM GAS  /tmp/cc1ELVNa.s 			page 60


 3311 12a6 0B46     		mov	r3, r1
 3312 12a8 8DF80330 		strb	r3, [sp, #3]
 3313              		.loc 1 1192 0
 3314 12ac 0DF10F03 		add	r3, sp, #15
 3315 12b0 0198     		ldr	r0, [sp, #4]
 3316 12b2 2221     		movs	r1, #34
 3317 12b4 1A46     		mov	r2, r3
 3318 12b6 0123     		movs	r3, #1
 3319 12b8 FFF7FEFF 		bl	LSM303AGR_ACC_ReadReg
 3320 12bc 0346     		mov	r3, r0
 3321 12be 002B     		cmp	r3, #0
 3322 12c0 01D1     		bne	.L214
 3323              		.loc 1 1193 0
 3324 12c2 0023     		movs	r3, #0
 3325 12c4 1CE0     		b	.L217
 3326              	.L214:
 3327              		.loc 1 1195 0
 3328 12c6 9DF80F30 		ldrb	r3, [sp, #15]	@ zero_extendqisi2
 3329 12ca 23F02003 		bic	r3, r3, #32
 3330 12ce DBB2     		uxtb	r3, r3
 3331 12d0 8DF80F30 		strb	r3, [sp, #15]
 3332              		.loc 1 1196 0
 3333 12d4 9DF80F20 		ldrb	r2, [sp, #15]	@ zero_extendqisi2
 3334 12d8 9DF80330 		ldrb	r3, [sp, #3]
 3335 12dc 1343     		orrs	r3, r3, r2
 3336 12de DBB2     		uxtb	r3, r3
 3337 12e0 8DF80F30 		strb	r3, [sp, #15]
 3338              		.loc 1 1198 0
 3339 12e4 0DF10F03 		add	r3, sp, #15
 3340 12e8 0198     		ldr	r0, [sp, #4]
 3341 12ea 2221     		movs	r1, #34
 3342 12ec 1A46     		mov	r2, r3
 3343 12ee 0123     		movs	r3, #1
 3344 12f0 FFF7FEFF 		bl	LSM303AGR_ACC_WriteReg
 3345 12f4 0346     		mov	r3, r0
 3346 12f6 002B     		cmp	r3, #0
 3347 12f8 01D1     		bne	.L216
 3348              		.loc 1 1199 0
 3349 12fa 0023     		movs	r3, #0
 3350 12fc 00E0     		b	.L217
 3351              	.L216:
 3352              		.loc 1 1201 0
 3353 12fe 0123     		movs	r3, #1
 3354              	.L217:
 3355              		.loc 1 1202 0
 3356 1300 1846     		mov	r0, r3
 3357 1302 05B0     		add	sp, sp, #20
 3358              		@ sp needed
 3359 1304 5DF804FB 		ldr	pc, [sp], #4
 3360              		.cfi_endproc
 3361              	.LFE320:
 3362              		.size	LSM303AGR_ACC_W_FIFO_AOL2_on_INT1, .-LSM303AGR_ACC_W_FIFO_AOL2_on_INT1
 3363              		.align	2
 3364 1308 AFF30080 		.p2align 4,,15
 3364      AFF30080 
 3365              		.global	LSM303AGR_ACC_R_FIFO_AOL2_on_INT1
 3366              		.thumb
ARM GAS  /tmp/cc1ELVNa.s 			page 61


 3367              		.thumb_func
 3368              		.type	LSM303AGR_ACC_R_FIFO_AOL2_on_INT1, %function
 3369              	LSM303AGR_ACC_R_FIFO_AOL2_on_INT1:
 3370              	.LFB321:
 3371              		.loc 1 1212 0
 3372              		.cfi_startproc
 3373              		@ args = 0, pretend = 0, frame = 8
 3374              		@ frame_needed = 0, uses_anonymous_args = 0
 3375 1310 00B5     		push	{lr}
 3376              		.cfi_def_cfa_offset 4
 3377              		.cfi_offset 14, -4
 3378 1312 83B0     		sub	sp, sp, #12
 3379              		.cfi_def_cfa_offset 16
 3380 1314 0190     		str	r0, [sp, #4]
 3381 1316 0091     		str	r1, [sp]
 3382              		.loc 1 1213 0
 3383 1318 0198     		ldr	r0, [sp, #4]
 3384 131a 2221     		movs	r1, #34
 3385 131c 009A     		ldr	r2, [sp]
 3386 131e 0123     		movs	r3, #1
 3387 1320 FFF7FEFF 		bl	LSM303AGR_ACC_ReadReg
 3388 1324 0346     		mov	r3, r0
 3389 1326 002B     		cmp	r3, #0
 3390 1328 01D1     		bne	.L219
 3391              		.loc 1 1214 0
 3392 132a 0023     		movs	r3, #0
 3393 132c 07E0     		b	.L220
 3394              	.L219:
 3395              		.loc 1 1216 0
 3396 132e 009B     		ldr	r3, [sp]
 3397 1330 1B78     		ldrb	r3, [r3]	@ zero_extendqisi2
 3398 1332 03F02003 		and	r3, r3, #32
 3399 1336 DAB2     		uxtb	r2, r3
 3400 1338 009B     		ldr	r3, [sp]
 3401 133a 1A70     		strb	r2, [r3]
 3402              		.loc 1 1218 0
 3403 133c 0123     		movs	r3, #1
 3404              	.L220:
 3405              		.loc 1 1219 0
 3406 133e 1846     		mov	r0, r3
 3407 1340 03B0     		add	sp, sp, #12
 3408              		@ sp needed
 3409 1342 5DF804FB 		ldr	pc, [sp], #4
 3410              		.cfi_endproc
 3411              	.LFE321:
 3412              		.size	LSM303AGR_ACC_R_FIFO_AOL2_on_INT1, .-LSM303AGR_ACC_R_FIFO_AOL2_on_INT1
 3413 1346 00BF     		.align	2
 3414 1348 AFF30080 		.p2align 4,,15
 3414      AFF30080 
 3415              		.global	LSM303AGR_ACC_W_FIFO_AOL1_on_INT1
 3416              		.thumb
 3417              		.thumb_func
 3418              		.type	LSM303AGR_ACC_W_FIFO_AOL1_on_INT1, %function
 3419              	LSM303AGR_ACC_W_FIFO_AOL1_on_INT1:
 3420              	.LFB322:
 3421              		.loc 1 1229 0
 3422              		.cfi_startproc
ARM GAS  /tmp/cc1ELVNa.s 			page 62


 3423              		@ args = 0, pretend = 0, frame = 16
 3424              		@ frame_needed = 0, uses_anonymous_args = 0
 3425 1350 00B5     		push	{lr}
 3426              		.cfi_def_cfa_offset 4
 3427              		.cfi_offset 14, -4
 3428 1352 85B0     		sub	sp, sp, #20
 3429              		.cfi_def_cfa_offset 24
 3430 1354 0190     		str	r0, [sp, #4]
 3431 1356 0B46     		mov	r3, r1
 3432 1358 8DF80330 		strb	r3, [sp, #3]
 3433              		.loc 1 1232 0
 3434 135c 0DF10F03 		add	r3, sp, #15
 3435 1360 0198     		ldr	r0, [sp, #4]
 3436 1362 2221     		movs	r1, #34
 3437 1364 1A46     		mov	r2, r3
 3438 1366 0123     		movs	r3, #1
 3439 1368 FFF7FEFF 		bl	LSM303AGR_ACC_ReadReg
 3440 136c 0346     		mov	r3, r0
 3441 136e 002B     		cmp	r3, #0
 3442 1370 01D1     		bne	.L222
 3443              		.loc 1 1233 0
 3444 1372 0023     		movs	r3, #0
 3445 1374 1CE0     		b	.L225
 3446              	.L222:
 3447              		.loc 1 1235 0
 3448 1376 9DF80F30 		ldrb	r3, [sp, #15]	@ zero_extendqisi2
 3449 137a 23F04003 		bic	r3, r3, #64
 3450 137e DBB2     		uxtb	r3, r3
 3451 1380 8DF80F30 		strb	r3, [sp, #15]
 3452              		.loc 1 1236 0
 3453 1384 9DF80F20 		ldrb	r2, [sp, #15]	@ zero_extendqisi2
 3454 1388 9DF80330 		ldrb	r3, [sp, #3]
 3455 138c 1343     		orrs	r3, r3, r2
 3456 138e DBB2     		uxtb	r3, r3
 3457 1390 8DF80F30 		strb	r3, [sp, #15]
 3458              		.loc 1 1238 0
 3459 1394 0DF10F03 		add	r3, sp, #15
 3460 1398 0198     		ldr	r0, [sp, #4]
 3461 139a 2221     		movs	r1, #34
 3462 139c 1A46     		mov	r2, r3
 3463 139e 0123     		movs	r3, #1
 3464 13a0 FFF7FEFF 		bl	LSM303AGR_ACC_WriteReg
 3465 13a4 0346     		mov	r3, r0
 3466 13a6 002B     		cmp	r3, #0
 3467 13a8 01D1     		bne	.L224
 3468              		.loc 1 1239 0
 3469 13aa 0023     		movs	r3, #0
 3470 13ac 00E0     		b	.L225
 3471              	.L224:
 3472              		.loc 1 1241 0
 3473 13ae 0123     		movs	r3, #1
 3474              	.L225:
 3475              		.loc 1 1242 0
 3476 13b0 1846     		mov	r0, r3
 3477 13b2 05B0     		add	sp, sp, #20
 3478              		@ sp needed
 3479 13b4 5DF804FB 		ldr	pc, [sp], #4
ARM GAS  /tmp/cc1ELVNa.s 			page 63


 3480              		.cfi_endproc
 3481              	.LFE322:
 3482              		.size	LSM303AGR_ACC_W_FIFO_AOL1_on_INT1, .-LSM303AGR_ACC_W_FIFO_AOL1_on_INT1
 3483              		.align	2
 3484 13b8 AFF30080 		.p2align 4,,15
 3484      AFF30080 
 3485              		.global	LSM303AGR_ACC_R_FIFO_AOL1_on_INT1
 3486              		.thumb
 3487              		.thumb_func
 3488              		.type	LSM303AGR_ACC_R_FIFO_AOL1_on_INT1, %function
 3489              	LSM303AGR_ACC_R_FIFO_AOL1_on_INT1:
 3490              	.LFB323:
 3491              		.loc 1 1252 0
 3492              		.cfi_startproc
 3493              		@ args = 0, pretend = 0, frame = 8
 3494              		@ frame_needed = 0, uses_anonymous_args = 0
 3495 13c0 00B5     		push	{lr}
 3496              		.cfi_def_cfa_offset 4
 3497              		.cfi_offset 14, -4
 3498 13c2 83B0     		sub	sp, sp, #12
 3499              		.cfi_def_cfa_offset 16
 3500 13c4 0190     		str	r0, [sp, #4]
 3501 13c6 0091     		str	r1, [sp]
 3502              		.loc 1 1253 0
 3503 13c8 0198     		ldr	r0, [sp, #4]
 3504 13ca 2221     		movs	r1, #34
 3505 13cc 009A     		ldr	r2, [sp]
 3506 13ce 0123     		movs	r3, #1
 3507 13d0 FFF7FEFF 		bl	LSM303AGR_ACC_ReadReg
 3508 13d4 0346     		mov	r3, r0
 3509 13d6 002B     		cmp	r3, #0
 3510 13d8 01D1     		bne	.L227
 3511              		.loc 1 1254 0
 3512 13da 0023     		movs	r3, #0
 3513 13dc 07E0     		b	.L228
 3514              	.L227:
 3515              		.loc 1 1256 0
 3516 13de 009B     		ldr	r3, [sp]
 3517 13e0 1B78     		ldrb	r3, [r3]	@ zero_extendqisi2
 3518 13e2 03F04003 		and	r3, r3, #64
 3519 13e6 DAB2     		uxtb	r2, r3
 3520 13e8 009B     		ldr	r3, [sp]
 3521 13ea 1A70     		strb	r2, [r3]
 3522              		.loc 1 1258 0
 3523 13ec 0123     		movs	r3, #1
 3524              	.L228:
 3525              		.loc 1 1259 0
 3526 13ee 1846     		mov	r0, r3
 3527 13f0 03B0     		add	sp, sp, #12
 3528              		@ sp needed
 3529 13f2 5DF804FB 		ldr	pc, [sp], #4
 3530              		.cfi_endproc
 3531              	.LFE323:
 3532              		.size	LSM303AGR_ACC_R_FIFO_AOL1_on_INT1, .-LSM303AGR_ACC_R_FIFO_AOL1_on_INT1
 3533 13f6 00BF     		.align	2
 3534 13f8 AFF30080 		.p2align 4,,15
 3534      AFF30080 
ARM GAS  /tmp/cc1ELVNa.s 			page 64


 3535              		.global	LSM303AGR_ACC_W_FIFO_Click_on_INT1
 3536              		.thumb
 3537              		.thumb_func
 3538              		.type	LSM303AGR_ACC_W_FIFO_Click_on_INT1, %function
 3539              	LSM303AGR_ACC_W_FIFO_Click_on_INT1:
 3540              	.LFB324:
 3541              		.loc 1 1269 0
 3542              		.cfi_startproc
 3543              		@ args = 0, pretend = 0, frame = 16
 3544              		@ frame_needed = 0, uses_anonymous_args = 0
 3545 1400 00B5     		push	{lr}
 3546              		.cfi_def_cfa_offset 4
 3547              		.cfi_offset 14, -4
 3548 1402 85B0     		sub	sp, sp, #20
 3549              		.cfi_def_cfa_offset 24
 3550 1404 0190     		str	r0, [sp, #4]
 3551 1406 0B46     		mov	r3, r1
 3552 1408 8DF80330 		strb	r3, [sp, #3]
 3553              		.loc 1 1272 0
 3554 140c 0DF10F03 		add	r3, sp, #15
 3555 1410 0198     		ldr	r0, [sp, #4]
 3556 1412 2221     		movs	r1, #34
 3557 1414 1A46     		mov	r2, r3
 3558 1416 0123     		movs	r3, #1
 3559 1418 FFF7FEFF 		bl	LSM303AGR_ACC_ReadReg
 3560 141c 0346     		mov	r3, r0
 3561 141e 002B     		cmp	r3, #0
 3562 1420 01D1     		bne	.L230
 3563              		.loc 1 1273 0
 3564 1422 0023     		movs	r3, #0
 3565 1424 1CE0     		b	.L233
 3566              	.L230:
 3567              		.loc 1 1275 0
 3568 1426 9DF80F30 		ldrb	r3, [sp, #15]	@ zero_extendqisi2
 3569 142a 03F07F03 		and	r3, r3, #127
 3570 142e DBB2     		uxtb	r3, r3
 3571 1430 8DF80F30 		strb	r3, [sp, #15]
 3572              		.loc 1 1276 0
 3573 1434 9DF80F20 		ldrb	r2, [sp, #15]	@ zero_extendqisi2
 3574 1438 9DF80330 		ldrb	r3, [sp, #3]
 3575 143c 1343     		orrs	r3, r3, r2
 3576 143e DBB2     		uxtb	r3, r3
 3577 1440 8DF80F30 		strb	r3, [sp, #15]
 3578              		.loc 1 1278 0
 3579 1444 0DF10F03 		add	r3, sp, #15
 3580 1448 0198     		ldr	r0, [sp, #4]
 3581 144a 2221     		movs	r1, #34
 3582 144c 1A46     		mov	r2, r3
 3583 144e 0123     		movs	r3, #1
 3584 1450 FFF7FEFF 		bl	LSM303AGR_ACC_WriteReg
 3585 1454 0346     		mov	r3, r0
 3586 1456 002B     		cmp	r3, #0
 3587 1458 01D1     		bne	.L232
 3588              		.loc 1 1279 0
 3589 145a 0023     		movs	r3, #0
 3590 145c 00E0     		b	.L233
 3591              	.L232:
ARM GAS  /tmp/cc1ELVNa.s 			page 65


 3592              		.loc 1 1281 0
 3593 145e 0123     		movs	r3, #1
 3594              	.L233:
 3595              		.loc 1 1282 0
 3596 1460 1846     		mov	r0, r3
 3597 1462 05B0     		add	sp, sp, #20
 3598              		@ sp needed
 3599 1464 5DF804FB 		ldr	pc, [sp], #4
 3600              		.cfi_endproc
 3601              	.LFE324:
 3602              		.size	LSM303AGR_ACC_W_FIFO_Click_on_INT1, .-LSM303AGR_ACC_W_FIFO_Click_on_INT1
 3603              		.align	2
 3604 1468 AFF30080 		.p2align 4,,15
 3604      AFF30080 
 3605              		.global	LSM303AGR_ACC_R_FIFO_Click_on_INT1
 3606              		.thumb
 3607              		.thumb_func
 3608              		.type	LSM303AGR_ACC_R_FIFO_Click_on_INT1, %function
 3609              	LSM303AGR_ACC_R_FIFO_Click_on_INT1:
 3610              	.LFB325:
 3611              		.loc 1 1292 0
 3612              		.cfi_startproc
 3613              		@ args = 0, pretend = 0, frame = 8
 3614              		@ frame_needed = 0, uses_anonymous_args = 0
 3615 1470 00B5     		push	{lr}
 3616              		.cfi_def_cfa_offset 4
 3617              		.cfi_offset 14, -4
 3618 1472 83B0     		sub	sp, sp, #12
 3619              		.cfi_def_cfa_offset 16
 3620 1474 0190     		str	r0, [sp, #4]
 3621 1476 0091     		str	r1, [sp]
 3622              		.loc 1 1293 0
 3623 1478 0198     		ldr	r0, [sp, #4]
 3624 147a 2221     		movs	r1, #34
 3625 147c 009A     		ldr	r2, [sp]
 3626 147e 0123     		movs	r3, #1
 3627 1480 FFF7FEFF 		bl	LSM303AGR_ACC_ReadReg
 3628 1484 0346     		mov	r3, r0
 3629 1486 002B     		cmp	r3, #0
 3630 1488 01D1     		bne	.L235
 3631              		.loc 1 1294 0
 3632 148a 0023     		movs	r3, #0
 3633 148c 07E0     		b	.L236
 3634              	.L235:
 3635              		.loc 1 1296 0
 3636 148e 009B     		ldr	r3, [sp]
 3637 1490 1B78     		ldrb	r3, [r3]	@ zero_extendqisi2
 3638 1492 23F07F03 		bic	r3, r3, #127
 3639 1496 DAB2     		uxtb	r2, r3
 3640 1498 009B     		ldr	r3, [sp]
 3641 149a 1A70     		strb	r2, [r3]
 3642              		.loc 1 1298 0
 3643 149c 0123     		movs	r3, #1
 3644              	.L236:
 3645              		.loc 1 1299 0
 3646 149e 1846     		mov	r0, r3
 3647 14a0 03B0     		add	sp, sp, #12
ARM GAS  /tmp/cc1ELVNa.s 			page 66


 3648              		@ sp needed
 3649 14a2 5DF804FB 		ldr	pc, [sp], #4
 3650              		.cfi_endproc
 3651              	.LFE325:
 3652              		.size	LSM303AGR_ACC_R_FIFO_Click_on_INT1, .-LSM303AGR_ACC_R_FIFO_Click_on_INT1
 3653 14a6 00BF     		.align	2
 3654 14a8 AFF30080 		.p2align 4,,15
 3654      AFF30080 
 3655              		.global	LSM303AGR_ACC_W_SPI_mode
 3656              		.thumb
 3657              		.thumb_func
 3658              		.type	LSM303AGR_ACC_W_SPI_mode, %function
 3659              	LSM303AGR_ACC_W_SPI_mode:
 3660              	.LFB326:
 3661              		.loc 1 1309 0
 3662              		.cfi_startproc
 3663              		@ args = 0, pretend = 0, frame = 16
 3664              		@ frame_needed = 0, uses_anonymous_args = 0
 3665 14b0 00B5     		push	{lr}
 3666              		.cfi_def_cfa_offset 4
 3667              		.cfi_offset 14, -4
 3668 14b2 85B0     		sub	sp, sp, #20
 3669              		.cfi_def_cfa_offset 24
 3670 14b4 0190     		str	r0, [sp, #4]
 3671 14b6 0B46     		mov	r3, r1
 3672 14b8 8DF80330 		strb	r3, [sp, #3]
 3673              		.loc 1 1312 0
 3674 14bc 0DF10F03 		add	r3, sp, #15
 3675 14c0 0198     		ldr	r0, [sp, #4]
 3676 14c2 2321     		movs	r1, #35
 3677 14c4 1A46     		mov	r2, r3
 3678 14c6 0123     		movs	r3, #1
 3679 14c8 FFF7FEFF 		bl	LSM303AGR_ACC_ReadReg
 3680 14cc 0346     		mov	r3, r0
 3681 14ce 002B     		cmp	r3, #0
 3682 14d0 01D1     		bne	.L238
 3683              		.loc 1 1313 0
 3684 14d2 0023     		movs	r3, #0
 3685 14d4 1CE0     		b	.L241
 3686              	.L238:
 3687              		.loc 1 1315 0
 3688 14d6 9DF80F30 		ldrb	r3, [sp, #15]	@ zero_extendqisi2
 3689 14da 23F00103 		bic	r3, r3, #1
 3690 14de DBB2     		uxtb	r3, r3
 3691 14e0 8DF80F30 		strb	r3, [sp, #15]
 3692              		.loc 1 1316 0
 3693 14e4 9DF80F20 		ldrb	r2, [sp, #15]	@ zero_extendqisi2
 3694 14e8 9DF80330 		ldrb	r3, [sp, #3]
 3695 14ec 1343     		orrs	r3, r3, r2
 3696 14ee DBB2     		uxtb	r3, r3
 3697 14f0 8DF80F30 		strb	r3, [sp, #15]
 3698              		.loc 1 1318 0
 3699 14f4 0DF10F03 		add	r3, sp, #15
 3700 14f8 0198     		ldr	r0, [sp, #4]
 3701 14fa 2321     		movs	r1, #35
 3702 14fc 1A46     		mov	r2, r3
 3703 14fe 0123     		movs	r3, #1
ARM GAS  /tmp/cc1ELVNa.s 			page 67


 3704 1500 FFF7FEFF 		bl	LSM303AGR_ACC_WriteReg
 3705 1504 0346     		mov	r3, r0
 3706 1506 002B     		cmp	r3, #0
 3707 1508 01D1     		bne	.L240
 3708              		.loc 1 1319 0
 3709 150a 0023     		movs	r3, #0
 3710 150c 00E0     		b	.L241
 3711              	.L240:
 3712              		.loc 1 1321 0
 3713 150e 0123     		movs	r3, #1
 3714              	.L241:
 3715              		.loc 1 1322 0
 3716 1510 1846     		mov	r0, r3
 3717 1512 05B0     		add	sp, sp, #20
 3718              		@ sp needed
 3719 1514 5DF804FB 		ldr	pc, [sp], #4
 3720              		.cfi_endproc
 3721              	.LFE326:
 3722              		.size	LSM303AGR_ACC_W_SPI_mode, .-LSM303AGR_ACC_W_SPI_mode
 3723              		.align	2
 3724 1518 AFF30080 		.p2align 4,,15
 3724      AFF30080 
 3725              		.global	LSM303AGR_ACC_R_SPI_mode
 3726              		.thumb
 3727              		.thumb_func
 3728              		.type	LSM303AGR_ACC_R_SPI_mode, %function
 3729              	LSM303AGR_ACC_R_SPI_mode:
 3730              	.LFB327:
 3731              		.loc 1 1332 0
 3732              		.cfi_startproc
 3733              		@ args = 0, pretend = 0, frame = 8
 3734              		@ frame_needed = 0, uses_anonymous_args = 0
 3735 1520 00B5     		push	{lr}
 3736              		.cfi_def_cfa_offset 4
 3737              		.cfi_offset 14, -4
 3738 1522 83B0     		sub	sp, sp, #12
 3739              		.cfi_def_cfa_offset 16
 3740 1524 0190     		str	r0, [sp, #4]
 3741 1526 0091     		str	r1, [sp]
 3742              		.loc 1 1333 0
 3743 1528 0198     		ldr	r0, [sp, #4]
 3744 152a 2321     		movs	r1, #35
 3745 152c 009A     		ldr	r2, [sp]
 3746 152e 0123     		movs	r3, #1
 3747 1530 FFF7FEFF 		bl	LSM303AGR_ACC_ReadReg
 3748 1534 0346     		mov	r3, r0
 3749 1536 002B     		cmp	r3, #0
 3750 1538 01D1     		bne	.L243
 3751              		.loc 1 1334 0
 3752 153a 0023     		movs	r3, #0
 3753 153c 07E0     		b	.L244
 3754              	.L243:
 3755              		.loc 1 1336 0
 3756 153e 009B     		ldr	r3, [sp]
 3757 1540 1B78     		ldrb	r3, [r3]	@ zero_extendqisi2
 3758 1542 03F00103 		and	r3, r3, #1
 3759 1546 DAB2     		uxtb	r2, r3
ARM GAS  /tmp/cc1ELVNa.s 			page 68


 3760 1548 009B     		ldr	r3, [sp]
 3761 154a 1A70     		strb	r2, [r3]
 3762              		.loc 1 1338 0
 3763 154c 0123     		movs	r3, #1
 3764              	.L244:
 3765              		.loc 1 1339 0
 3766 154e 1846     		mov	r0, r3
 3767 1550 03B0     		add	sp, sp, #12
 3768              		@ sp needed
 3769 1552 5DF804FB 		ldr	pc, [sp], #4
 3770              		.cfi_endproc
 3771              	.LFE327:
 3772              		.size	LSM303AGR_ACC_R_SPI_mode, .-LSM303AGR_ACC_R_SPI_mode
 3773 1556 00BF     		.align	2
 3774 1558 AFF30080 		.p2align 4,,15
 3774      AFF30080 
 3775              		.global	LSM303AGR_ACC_W_SelfTest
 3776              		.thumb
 3777              		.thumb_func
 3778              		.type	LSM303AGR_ACC_W_SelfTest, %function
 3779              	LSM303AGR_ACC_W_SelfTest:
 3780              	.LFB328:
 3781              		.loc 1 1349 0
 3782              		.cfi_startproc
 3783              		@ args = 0, pretend = 0, frame = 16
 3784              		@ frame_needed = 0, uses_anonymous_args = 0
 3785 1560 00B5     		push	{lr}
 3786              		.cfi_def_cfa_offset 4
 3787              		.cfi_offset 14, -4
 3788 1562 85B0     		sub	sp, sp, #20
 3789              		.cfi_def_cfa_offset 24
 3790 1564 0190     		str	r0, [sp, #4]
 3791 1566 0B46     		mov	r3, r1
 3792 1568 8DF80330 		strb	r3, [sp, #3]
 3793              		.loc 1 1352 0
 3794 156c 0DF10F03 		add	r3, sp, #15
 3795 1570 0198     		ldr	r0, [sp, #4]
 3796 1572 2321     		movs	r1, #35
 3797 1574 1A46     		mov	r2, r3
 3798 1576 0123     		movs	r3, #1
 3799 1578 FFF7FEFF 		bl	LSM303AGR_ACC_ReadReg
 3800 157c 0346     		mov	r3, r0
 3801 157e 002B     		cmp	r3, #0
 3802 1580 01D1     		bne	.L246
 3803              		.loc 1 1353 0
 3804 1582 0023     		movs	r3, #0
 3805 1584 1CE0     		b	.L249
 3806              	.L246:
 3807              		.loc 1 1355 0
 3808 1586 9DF80F30 		ldrb	r3, [sp, #15]	@ zero_extendqisi2
 3809 158a 23F00603 		bic	r3, r3, #6
 3810 158e DBB2     		uxtb	r3, r3
 3811 1590 8DF80F30 		strb	r3, [sp, #15]
 3812              		.loc 1 1356 0
 3813 1594 9DF80F20 		ldrb	r2, [sp, #15]	@ zero_extendqisi2
 3814 1598 9DF80330 		ldrb	r3, [sp, #3]
 3815 159c 1343     		orrs	r3, r3, r2
ARM GAS  /tmp/cc1ELVNa.s 			page 69


 3816 159e DBB2     		uxtb	r3, r3
 3817 15a0 8DF80F30 		strb	r3, [sp, #15]
 3818              		.loc 1 1358 0
 3819 15a4 0DF10F03 		add	r3, sp, #15
 3820 15a8 0198     		ldr	r0, [sp, #4]
 3821 15aa 2321     		movs	r1, #35
 3822 15ac 1A46     		mov	r2, r3
 3823 15ae 0123     		movs	r3, #1
 3824 15b0 FFF7FEFF 		bl	LSM303AGR_ACC_WriteReg
 3825 15b4 0346     		mov	r3, r0
 3826 15b6 002B     		cmp	r3, #0
 3827 15b8 01D1     		bne	.L248
 3828              		.loc 1 1359 0
 3829 15ba 0023     		movs	r3, #0
 3830 15bc 00E0     		b	.L249
 3831              	.L248:
 3832              		.loc 1 1361 0
 3833 15be 0123     		movs	r3, #1
 3834              	.L249:
 3835              		.loc 1 1362 0
 3836 15c0 1846     		mov	r0, r3
 3837 15c2 05B0     		add	sp, sp, #20
 3838              		@ sp needed
 3839 15c4 5DF804FB 		ldr	pc, [sp], #4
 3840              		.cfi_endproc
 3841              	.LFE328:
 3842              		.size	LSM303AGR_ACC_W_SelfTest, .-LSM303AGR_ACC_W_SelfTest
 3843              		.align	2
 3844 15c8 AFF30080 		.p2align 4,,15
 3844      AFF30080 
 3845              		.global	LSM303AGR_ACC_R_SelfTest
 3846              		.thumb
 3847              		.thumb_func
 3848              		.type	LSM303AGR_ACC_R_SelfTest, %function
 3849              	LSM303AGR_ACC_R_SelfTest:
 3850              	.LFB329:
 3851              		.loc 1 1372 0
 3852              		.cfi_startproc
 3853              		@ args = 0, pretend = 0, frame = 8
 3854              		@ frame_needed = 0, uses_anonymous_args = 0
 3855 15d0 00B5     		push	{lr}
 3856              		.cfi_def_cfa_offset 4
 3857              		.cfi_offset 14, -4
 3858 15d2 83B0     		sub	sp, sp, #12
 3859              		.cfi_def_cfa_offset 16
 3860 15d4 0190     		str	r0, [sp, #4]
 3861 15d6 0091     		str	r1, [sp]
 3862              		.loc 1 1373 0
 3863 15d8 0198     		ldr	r0, [sp, #4]
 3864 15da 2321     		movs	r1, #35
 3865 15dc 009A     		ldr	r2, [sp]
 3866 15de 0123     		movs	r3, #1
 3867 15e0 FFF7FEFF 		bl	LSM303AGR_ACC_ReadReg
 3868 15e4 0346     		mov	r3, r0
 3869 15e6 002B     		cmp	r3, #0
 3870 15e8 01D1     		bne	.L251
 3871              		.loc 1 1374 0
ARM GAS  /tmp/cc1ELVNa.s 			page 70


 3872 15ea 0023     		movs	r3, #0
 3873 15ec 07E0     		b	.L252
 3874              	.L251:
 3875              		.loc 1 1376 0
 3876 15ee 009B     		ldr	r3, [sp]
 3877 15f0 1B78     		ldrb	r3, [r3]	@ zero_extendqisi2
 3878 15f2 03F00603 		and	r3, r3, #6
 3879 15f6 DAB2     		uxtb	r2, r3
 3880 15f8 009B     		ldr	r3, [sp]
 3881 15fa 1A70     		strb	r2, [r3]
 3882              		.loc 1 1378 0
 3883 15fc 0123     		movs	r3, #1
 3884              	.L252:
 3885              		.loc 1 1379 0
 3886 15fe 1846     		mov	r0, r3
 3887 1600 03B0     		add	sp, sp, #12
 3888              		@ sp needed
 3889 1602 5DF804FB 		ldr	pc, [sp], #4
 3890              		.cfi_endproc
 3891              	.LFE329:
 3892              		.size	LSM303AGR_ACC_R_SelfTest, .-LSM303AGR_ACC_R_SelfTest
 3893 1606 00BF     		.align	2
 3894 1608 AFF30080 		.p2align 4,,15
 3894      AFF30080 
 3895              		.global	LSM303AGR_ACC_W_HiRes
 3896              		.thumb
 3897              		.thumb_func
 3898              		.type	LSM303AGR_ACC_W_HiRes, %function
 3899              	LSM303AGR_ACC_W_HiRes:
 3900              	.LFB330:
 3901              		.loc 1 1389 0
 3902              		.cfi_startproc
 3903              		@ args = 0, pretend = 0, frame = 16
 3904              		@ frame_needed = 0, uses_anonymous_args = 0
 3905 1610 00B5     		push	{lr}
 3906              		.cfi_def_cfa_offset 4
 3907              		.cfi_offset 14, -4
 3908 1612 85B0     		sub	sp, sp, #20
 3909              		.cfi_def_cfa_offset 24
 3910 1614 0190     		str	r0, [sp, #4]
 3911 1616 0B46     		mov	r3, r1
 3912 1618 8DF80330 		strb	r3, [sp, #3]
 3913              		.loc 1 1392 0
 3914 161c 0DF10F03 		add	r3, sp, #15
 3915 1620 0198     		ldr	r0, [sp, #4]
 3916 1622 2321     		movs	r1, #35
 3917 1624 1A46     		mov	r2, r3
 3918 1626 0123     		movs	r3, #1
 3919 1628 FFF7FEFF 		bl	LSM303AGR_ACC_ReadReg
 3920 162c 0346     		mov	r3, r0
 3921 162e 002B     		cmp	r3, #0
 3922 1630 01D1     		bne	.L254
 3923              		.loc 1 1393 0
 3924 1632 0023     		movs	r3, #0
 3925 1634 1CE0     		b	.L257
 3926              	.L254:
 3927              		.loc 1 1395 0
ARM GAS  /tmp/cc1ELVNa.s 			page 71


 3928 1636 9DF80F30 		ldrb	r3, [sp, #15]	@ zero_extendqisi2
 3929 163a 23F00803 		bic	r3, r3, #8
 3930 163e DBB2     		uxtb	r3, r3
 3931 1640 8DF80F30 		strb	r3, [sp, #15]
 3932              		.loc 1 1396 0
 3933 1644 9DF80F20 		ldrb	r2, [sp, #15]	@ zero_extendqisi2
 3934 1648 9DF80330 		ldrb	r3, [sp, #3]
 3935 164c 1343     		orrs	r3, r3, r2
 3936 164e DBB2     		uxtb	r3, r3
 3937 1650 8DF80F30 		strb	r3, [sp, #15]
 3938              		.loc 1 1398 0
 3939 1654 0DF10F03 		add	r3, sp, #15
 3940 1658 0198     		ldr	r0, [sp, #4]
 3941 165a 2321     		movs	r1, #35
 3942 165c 1A46     		mov	r2, r3
 3943 165e 0123     		movs	r3, #1
 3944 1660 FFF7FEFF 		bl	LSM303AGR_ACC_WriteReg
 3945 1664 0346     		mov	r3, r0
 3946 1666 002B     		cmp	r3, #0
 3947 1668 01D1     		bne	.L256
 3948              		.loc 1 1399 0
 3949 166a 0023     		movs	r3, #0
 3950 166c 00E0     		b	.L257
 3951              	.L256:
 3952              		.loc 1 1401 0
 3953 166e 0123     		movs	r3, #1
 3954              	.L257:
 3955              		.loc 1 1402 0
 3956 1670 1846     		mov	r0, r3
 3957 1672 05B0     		add	sp, sp, #20
 3958              		@ sp needed
 3959 1674 5DF804FB 		ldr	pc, [sp], #4
 3960              		.cfi_endproc
 3961              	.LFE330:
 3962              		.size	LSM303AGR_ACC_W_HiRes, .-LSM303AGR_ACC_W_HiRes
 3963              		.align	2
 3964 1678 AFF30080 		.p2align 4,,15
 3964      AFF30080 
 3965              		.global	LSM303AGR_ACC_R_HiRes
 3966              		.thumb
 3967              		.thumb_func
 3968              		.type	LSM303AGR_ACC_R_HiRes, %function
 3969              	LSM303AGR_ACC_R_HiRes:
 3970              	.LFB331:
 3971              		.loc 1 1412 0
 3972              		.cfi_startproc
 3973              		@ args = 0, pretend = 0, frame = 8
 3974              		@ frame_needed = 0, uses_anonymous_args = 0
 3975 1680 00B5     		push	{lr}
 3976              		.cfi_def_cfa_offset 4
 3977              		.cfi_offset 14, -4
 3978 1682 83B0     		sub	sp, sp, #12
 3979              		.cfi_def_cfa_offset 16
 3980 1684 0190     		str	r0, [sp, #4]
 3981 1686 0091     		str	r1, [sp]
 3982              		.loc 1 1413 0
 3983 1688 0198     		ldr	r0, [sp, #4]
ARM GAS  /tmp/cc1ELVNa.s 			page 72


 3984 168a 2321     		movs	r1, #35
 3985 168c 009A     		ldr	r2, [sp]
 3986 168e 0123     		movs	r3, #1
 3987 1690 FFF7FEFF 		bl	LSM303AGR_ACC_ReadReg
 3988 1694 0346     		mov	r3, r0
 3989 1696 002B     		cmp	r3, #0
 3990 1698 01D1     		bne	.L259
 3991              		.loc 1 1414 0
 3992 169a 0023     		movs	r3, #0
 3993 169c 07E0     		b	.L260
 3994              	.L259:
 3995              		.loc 1 1416 0
 3996 169e 009B     		ldr	r3, [sp]
 3997 16a0 1B78     		ldrb	r3, [r3]	@ zero_extendqisi2
 3998 16a2 03F00803 		and	r3, r3, #8
 3999 16a6 DAB2     		uxtb	r2, r3
 4000 16a8 009B     		ldr	r3, [sp]
 4001 16aa 1A70     		strb	r2, [r3]
 4002              		.loc 1 1418 0
 4003 16ac 0123     		movs	r3, #1
 4004              	.L260:
 4005              		.loc 1 1419 0
 4006 16ae 1846     		mov	r0, r3
 4007 16b0 03B0     		add	sp, sp, #12
 4008              		@ sp needed
 4009 16b2 5DF804FB 		ldr	pc, [sp], #4
 4010              		.cfi_endproc
 4011              	.LFE331:
 4012              		.size	LSM303AGR_ACC_R_HiRes, .-LSM303AGR_ACC_R_HiRes
 4013 16b6 00BF     		.align	2
 4014 16b8 AFF30080 		.p2align 4,,15
 4014      AFF30080 
 4015              		.global	LSM303AGR_ACC_W_LittleBigEndian
 4016              		.thumb
 4017              		.thumb_func
 4018              		.type	LSM303AGR_ACC_W_LittleBigEndian, %function
 4019              	LSM303AGR_ACC_W_LittleBigEndian:
 4020              	.LFB332:
 4021              		.loc 1 1429 0
 4022              		.cfi_startproc
 4023              		@ args = 0, pretend = 0, frame = 16
 4024              		@ frame_needed = 0, uses_anonymous_args = 0
 4025 16c0 00B5     		push	{lr}
 4026              		.cfi_def_cfa_offset 4
 4027              		.cfi_offset 14, -4
 4028 16c2 85B0     		sub	sp, sp, #20
 4029              		.cfi_def_cfa_offset 24
 4030 16c4 0190     		str	r0, [sp, #4]
 4031 16c6 0B46     		mov	r3, r1
 4032 16c8 8DF80330 		strb	r3, [sp, #3]
 4033              		.loc 1 1432 0
 4034 16cc 0DF10F03 		add	r3, sp, #15
 4035 16d0 0198     		ldr	r0, [sp, #4]
 4036 16d2 2321     		movs	r1, #35
 4037 16d4 1A46     		mov	r2, r3
 4038 16d6 0123     		movs	r3, #1
 4039 16d8 FFF7FEFF 		bl	LSM303AGR_ACC_ReadReg
ARM GAS  /tmp/cc1ELVNa.s 			page 73


 4040 16dc 0346     		mov	r3, r0
 4041 16de 002B     		cmp	r3, #0
 4042 16e0 01D1     		bne	.L262
 4043              		.loc 1 1433 0
 4044 16e2 0023     		movs	r3, #0
 4045 16e4 1CE0     		b	.L265
 4046              	.L262:
 4047              		.loc 1 1435 0
 4048 16e6 9DF80F30 		ldrb	r3, [sp, #15]	@ zero_extendqisi2
 4049 16ea 23F04003 		bic	r3, r3, #64
 4050 16ee DBB2     		uxtb	r3, r3
 4051 16f0 8DF80F30 		strb	r3, [sp, #15]
 4052              		.loc 1 1436 0
 4053 16f4 9DF80F20 		ldrb	r2, [sp, #15]	@ zero_extendqisi2
 4054 16f8 9DF80330 		ldrb	r3, [sp, #3]
 4055 16fc 1343     		orrs	r3, r3, r2
 4056 16fe DBB2     		uxtb	r3, r3
 4057 1700 8DF80F30 		strb	r3, [sp, #15]
 4058              		.loc 1 1438 0
 4059 1704 0DF10F03 		add	r3, sp, #15
 4060 1708 0198     		ldr	r0, [sp, #4]
 4061 170a 2321     		movs	r1, #35
 4062 170c 1A46     		mov	r2, r3
 4063 170e 0123     		movs	r3, #1
 4064 1710 FFF7FEFF 		bl	LSM303AGR_ACC_WriteReg
 4065 1714 0346     		mov	r3, r0
 4066 1716 002B     		cmp	r3, #0
 4067 1718 01D1     		bne	.L264
 4068              		.loc 1 1439 0
 4069 171a 0023     		movs	r3, #0
 4070 171c 00E0     		b	.L265
 4071              	.L264:
 4072              		.loc 1 1441 0
 4073 171e 0123     		movs	r3, #1
 4074              	.L265:
 4075              		.loc 1 1442 0
 4076 1720 1846     		mov	r0, r3
 4077 1722 05B0     		add	sp, sp, #20
 4078              		@ sp needed
 4079 1724 5DF804FB 		ldr	pc, [sp], #4
 4080              		.cfi_endproc
 4081              	.LFE332:
 4082              		.size	LSM303AGR_ACC_W_LittleBigEndian, .-LSM303AGR_ACC_W_LittleBigEndian
 4083              		.align	2
 4084 1728 AFF30080 		.p2align 4,,15
 4084      AFF30080 
 4085              		.global	LSM303AGR_ACC_R_LittleBigEndian
 4086              		.thumb
 4087              		.thumb_func
 4088              		.type	LSM303AGR_ACC_R_LittleBigEndian, %function
 4089              	LSM303AGR_ACC_R_LittleBigEndian:
 4090              	.LFB333:
 4091              		.loc 1 1452 0
 4092              		.cfi_startproc
 4093              		@ args = 0, pretend = 0, frame = 8
 4094              		@ frame_needed = 0, uses_anonymous_args = 0
 4095 1730 00B5     		push	{lr}
ARM GAS  /tmp/cc1ELVNa.s 			page 74


 4096              		.cfi_def_cfa_offset 4
 4097              		.cfi_offset 14, -4
 4098 1732 83B0     		sub	sp, sp, #12
 4099              		.cfi_def_cfa_offset 16
 4100 1734 0190     		str	r0, [sp, #4]
 4101 1736 0091     		str	r1, [sp]
 4102              		.loc 1 1453 0
 4103 1738 0198     		ldr	r0, [sp, #4]
 4104 173a 2321     		movs	r1, #35
 4105 173c 009A     		ldr	r2, [sp]
 4106 173e 0123     		movs	r3, #1
 4107 1740 FFF7FEFF 		bl	LSM303AGR_ACC_ReadReg
 4108 1744 0346     		mov	r3, r0
 4109 1746 002B     		cmp	r3, #0
 4110 1748 01D1     		bne	.L267
 4111              		.loc 1 1454 0
 4112 174a 0023     		movs	r3, #0
 4113 174c 07E0     		b	.L268
 4114              	.L267:
 4115              		.loc 1 1456 0
 4116 174e 009B     		ldr	r3, [sp]
 4117 1750 1B78     		ldrb	r3, [r3]	@ zero_extendqisi2
 4118 1752 03F04003 		and	r3, r3, #64
 4119 1756 DAB2     		uxtb	r2, r3
 4120 1758 009B     		ldr	r3, [sp]
 4121 175a 1A70     		strb	r2, [r3]
 4122              		.loc 1 1458 0
 4123 175c 0123     		movs	r3, #1
 4124              	.L268:
 4125              		.loc 1 1459 0
 4126 175e 1846     		mov	r0, r3
 4127 1760 03B0     		add	sp, sp, #12
 4128              		@ sp needed
 4129 1762 5DF804FB 		ldr	pc, [sp], #4
 4130              		.cfi_endproc
 4131              	.LFE333:
 4132              		.size	LSM303AGR_ACC_R_LittleBigEndian, .-LSM303AGR_ACC_R_LittleBigEndian
 4133 1766 00BF     		.align	2
 4134 1768 AFF30080 		.p2align 4,,15
 4134      AFF30080 
 4135              		.global	LSM303AGR_ACC_W_4D_on_INT2
 4136              		.thumb
 4137              		.thumb_func
 4138              		.type	LSM303AGR_ACC_W_4D_on_INT2, %function
 4139              	LSM303AGR_ACC_W_4D_on_INT2:
 4140              	.LFB334:
 4141              		.loc 1 1469 0
 4142              		.cfi_startproc
 4143              		@ args = 0, pretend = 0, frame = 16
 4144              		@ frame_needed = 0, uses_anonymous_args = 0
 4145 1770 00B5     		push	{lr}
 4146              		.cfi_def_cfa_offset 4
 4147              		.cfi_offset 14, -4
 4148 1772 85B0     		sub	sp, sp, #20
 4149              		.cfi_def_cfa_offset 24
 4150 1774 0190     		str	r0, [sp, #4]
 4151 1776 0B46     		mov	r3, r1
ARM GAS  /tmp/cc1ELVNa.s 			page 75


 4152 1778 8DF80330 		strb	r3, [sp, #3]
 4153              		.loc 1 1472 0
 4154 177c 0DF10F03 		add	r3, sp, #15
 4155 1780 0198     		ldr	r0, [sp, #4]
 4156 1782 2421     		movs	r1, #36
 4157 1784 1A46     		mov	r2, r3
 4158 1786 0123     		movs	r3, #1
 4159 1788 FFF7FEFF 		bl	LSM303AGR_ACC_ReadReg
 4160 178c 0346     		mov	r3, r0
 4161 178e 002B     		cmp	r3, #0
 4162 1790 01D1     		bne	.L270
 4163              		.loc 1 1473 0
 4164 1792 0023     		movs	r3, #0
 4165 1794 1CE0     		b	.L273
 4166              	.L270:
 4167              		.loc 1 1475 0
 4168 1796 9DF80F30 		ldrb	r3, [sp, #15]	@ zero_extendqisi2
 4169 179a 23F00103 		bic	r3, r3, #1
 4170 179e DBB2     		uxtb	r3, r3
 4171 17a0 8DF80F30 		strb	r3, [sp, #15]
 4172              		.loc 1 1476 0
 4173 17a4 9DF80F20 		ldrb	r2, [sp, #15]	@ zero_extendqisi2
 4174 17a8 9DF80330 		ldrb	r3, [sp, #3]
 4175 17ac 1343     		orrs	r3, r3, r2
 4176 17ae DBB2     		uxtb	r3, r3
 4177 17b0 8DF80F30 		strb	r3, [sp, #15]
 4178              		.loc 1 1478 0
 4179 17b4 0DF10F03 		add	r3, sp, #15
 4180 17b8 0198     		ldr	r0, [sp, #4]
 4181 17ba 2421     		movs	r1, #36
 4182 17bc 1A46     		mov	r2, r3
 4183 17be 0123     		movs	r3, #1
 4184 17c0 FFF7FEFF 		bl	LSM303AGR_ACC_WriteReg
 4185 17c4 0346     		mov	r3, r0
 4186 17c6 002B     		cmp	r3, #0
 4187 17c8 01D1     		bne	.L272
 4188              		.loc 1 1479 0
 4189 17ca 0023     		movs	r3, #0
 4190 17cc 00E0     		b	.L273
 4191              	.L272:
 4192              		.loc 1 1481 0
 4193 17ce 0123     		movs	r3, #1
 4194              	.L273:
 4195              		.loc 1 1482 0
 4196 17d0 1846     		mov	r0, r3
 4197 17d2 05B0     		add	sp, sp, #20
 4198              		@ sp needed
 4199 17d4 5DF804FB 		ldr	pc, [sp], #4
 4200              		.cfi_endproc
 4201              	.LFE334:
 4202              		.size	LSM303AGR_ACC_W_4D_on_INT2, .-LSM303AGR_ACC_W_4D_on_INT2
 4203              		.align	2
 4204 17d8 AFF30080 		.p2align 4,,15
 4204      AFF30080 
 4205              		.global	LSM303AGR_ACC_R_4D_on_INT2
 4206              		.thumb
 4207              		.thumb_func
ARM GAS  /tmp/cc1ELVNa.s 			page 76


 4208              		.type	LSM303AGR_ACC_R_4D_on_INT2, %function
 4209              	LSM303AGR_ACC_R_4D_on_INT2:
 4210              	.LFB335:
 4211              		.loc 1 1492 0
 4212              		.cfi_startproc
 4213              		@ args = 0, pretend = 0, frame = 8
 4214              		@ frame_needed = 0, uses_anonymous_args = 0
 4215 17e0 00B5     		push	{lr}
 4216              		.cfi_def_cfa_offset 4
 4217              		.cfi_offset 14, -4
 4218 17e2 83B0     		sub	sp, sp, #12
 4219              		.cfi_def_cfa_offset 16
 4220 17e4 0190     		str	r0, [sp, #4]
 4221 17e6 0091     		str	r1, [sp]
 4222              		.loc 1 1493 0
 4223 17e8 0198     		ldr	r0, [sp, #4]
 4224 17ea 2421     		movs	r1, #36
 4225 17ec 009A     		ldr	r2, [sp]
 4226 17ee 0123     		movs	r3, #1
 4227 17f0 FFF7FEFF 		bl	LSM303AGR_ACC_ReadReg
 4228 17f4 0346     		mov	r3, r0
 4229 17f6 002B     		cmp	r3, #0
 4230 17f8 01D1     		bne	.L275
 4231              		.loc 1 1494 0
 4232 17fa 0023     		movs	r3, #0
 4233 17fc 07E0     		b	.L276
 4234              	.L275:
 4235              		.loc 1 1496 0
 4236 17fe 009B     		ldr	r3, [sp]
 4237 1800 1B78     		ldrb	r3, [r3]	@ zero_extendqisi2
 4238 1802 03F00103 		and	r3, r3, #1
 4239 1806 DAB2     		uxtb	r2, r3
 4240 1808 009B     		ldr	r3, [sp]
 4241 180a 1A70     		strb	r2, [r3]
 4242              		.loc 1 1498 0
 4243 180c 0123     		movs	r3, #1
 4244              	.L276:
 4245              		.loc 1 1499 0
 4246 180e 1846     		mov	r0, r3
 4247 1810 03B0     		add	sp, sp, #12
 4248              		@ sp needed
 4249 1812 5DF804FB 		ldr	pc, [sp], #4
 4250              		.cfi_endproc
 4251              	.LFE335:
 4252              		.size	LSM303AGR_ACC_R_4D_on_INT2, .-LSM303AGR_ACC_R_4D_on_INT2
 4253 1816 00BF     		.align	2
 4254 1818 AFF30080 		.p2align 4,,15
 4254      AFF30080 
 4255              		.global	LSM303AGR_ACC_W_LatchInterrupt_on_INT2
 4256              		.thumb
 4257              		.thumb_func
 4258              		.type	LSM303AGR_ACC_W_LatchInterrupt_on_INT2, %function
 4259              	LSM303AGR_ACC_W_LatchInterrupt_on_INT2:
 4260              	.LFB336:
 4261              		.loc 1 1509 0
 4262              		.cfi_startproc
 4263              		@ args = 0, pretend = 0, frame = 16
ARM GAS  /tmp/cc1ELVNa.s 			page 77


 4264              		@ frame_needed = 0, uses_anonymous_args = 0
 4265 1820 00B5     		push	{lr}
 4266              		.cfi_def_cfa_offset 4
 4267              		.cfi_offset 14, -4
 4268 1822 85B0     		sub	sp, sp, #20
 4269              		.cfi_def_cfa_offset 24
 4270 1824 0190     		str	r0, [sp, #4]
 4271 1826 0B46     		mov	r3, r1
 4272 1828 8DF80330 		strb	r3, [sp, #3]
 4273              		.loc 1 1512 0
 4274 182c 0DF10F03 		add	r3, sp, #15
 4275 1830 0198     		ldr	r0, [sp, #4]
 4276 1832 2421     		movs	r1, #36
 4277 1834 1A46     		mov	r2, r3
 4278 1836 0123     		movs	r3, #1
 4279 1838 FFF7FEFF 		bl	LSM303AGR_ACC_ReadReg
 4280 183c 0346     		mov	r3, r0
 4281 183e 002B     		cmp	r3, #0
 4282 1840 01D1     		bne	.L278
 4283              		.loc 1 1513 0
 4284 1842 0023     		movs	r3, #0
 4285 1844 1CE0     		b	.L281
 4286              	.L278:
 4287              		.loc 1 1515 0
 4288 1846 9DF80F30 		ldrb	r3, [sp, #15]	@ zero_extendqisi2
 4289 184a 23F00203 		bic	r3, r3, #2
 4290 184e DBB2     		uxtb	r3, r3
 4291 1850 8DF80F30 		strb	r3, [sp, #15]
 4292              		.loc 1 1516 0
 4293 1854 9DF80F20 		ldrb	r2, [sp, #15]	@ zero_extendqisi2
 4294 1858 9DF80330 		ldrb	r3, [sp, #3]
 4295 185c 1343     		orrs	r3, r3, r2
 4296 185e DBB2     		uxtb	r3, r3
 4297 1860 8DF80F30 		strb	r3, [sp, #15]
 4298              		.loc 1 1518 0
 4299 1864 0DF10F03 		add	r3, sp, #15
 4300 1868 0198     		ldr	r0, [sp, #4]
 4301 186a 2421     		movs	r1, #36
 4302 186c 1A46     		mov	r2, r3
 4303 186e 0123     		movs	r3, #1
 4304 1870 FFF7FEFF 		bl	LSM303AGR_ACC_WriteReg
 4305 1874 0346     		mov	r3, r0
 4306 1876 002B     		cmp	r3, #0
 4307 1878 01D1     		bne	.L280
 4308              		.loc 1 1519 0
 4309 187a 0023     		movs	r3, #0
 4310 187c 00E0     		b	.L281
 4311              	.L280:
 4312              		.loc 1 1521 0
 4313 187e 0123     		movs	r3, #1
 4314              	.L281:
 4315              		.loc 1 1522 0
 4316 1880 1846     		mov	r0, r3
 4317 1882 05B0     		add	sp, sp, #20
 4318              		@ sp needed
 4319 1884 5DF804FB 		ldr	pc, [sp], #4
 4320              		.cfi_endproc
ARM GAS  /tmp/cc1ELVNa.s 			page 78


 4321              	.LFE336:
 4322              		.size	LSM303AGR_ACC_W_LatchInterrupt_on_INT2, .-LSM303AGR_ACC_W_LatchInterrupt_on_INT2
 4323              		.align	2
 4324 1888 AFF30080 		.p2align 4,,15
 4324      AFF30080 
 4325              		.global	LSM303AGR_ACC_R_LatchInterrupt_on_INT2
 4326              		.thumb
 4327              		.thumb_func
 4328              		.type	LSM303AGR_ACC_R_LatchInterrupt_on_INT2, %function
 4329              	LSM303AGR_ACC_R_LatchInterrupt_on_INT2:
 4330              	.LFB337:
 4331              		.loc 1 1532 0
 4332              		.cfi_startproc
 4333              		@ args = 0, pretend = 0, frame = 8
 4334              		@ frame_needed = 0, uses_anonymous_args = 0
 4335 1890 00B5     		push	{lr}
 4336              		.cfi_def_cfa_offset 4
 4337              		.cfi_offset 14, -4
 4338 1892 83B0     		sub	sp, sp, #12
 4339              		.cfi_def_cfa_offset 16
 4340 1894 0190     		str	r0, [sp, #4]
 4341 1896 0091     		str	r1, [sp]
 4342              		.loc 1 1533 0
 4343 1898 0198     		ldr	r0, [sp, #4]
 4344 189a 2421     		movs	r1, #36
 4345 189c 009A     		ldr	r2, [sp]
 4346 189e 0123     		movs	r3, #1
 4347 18a0 FFF7FEFF 		bl	LSM303AGR_ACC_ReadReg
 4348 18a4 0346     		mov	r3, r0
 4349 18a6 002B     		cmp	r3, #0
 4350 18a8 01D1     		bne	.L283
 4351              		.loc 1 1534 0
 4352 18aa 0023     		movs	r3, #0
 4353 18ac 07E0     		b	.L284
 4354              	.L283:
 4355              		.loc 1 1536 0
 4356 18ae 009B     		ldr	r3, [sp]
 4357 18b0 1B78     		ldrb	r3, [r3]	@ zero_extendqisi2
 4358 18b2 03F00203 		and	r3, r3, #2
 4359 18b6 DAB2     		uxtb	r2, r3
 4360 18b8 009B     		ldr	r3, [sp]
 4361 18ba 1A70     		strb	r2, [r3]
 4362              		.loc 1 1538 0
 4363 18bc 0123     		movs	r3, #1
 4364              	.L284:
 4365              		.loc 1 1539 0
 4366 18be 1846     		mov	r0, r3
 4367 18c0 03B0     		add	sp, sp, #12
 4368              		@ sp needed
 4369 18c2 5DF804FB 		ldr	pc, [sp], #4
 4370              		.cfi_endproc
 4371              	.LFE337:
 4372              		.size	LSM303AGR_ACC_R_LatchInterrupt_on_INT2, .-LSM303AGR_ACC_R_LatchInterrupt_on_INT2
 4373 18c6 00BF     		.align	2
 4374 18c8 AFF30080 		.p2align 4,,15
 4374      AFF30080 
 4375              		.global	LSM303AGR_ACC_W_4D_on_INT1
ARM GAS  /tmp/cc1ELVNa.s 			page 79


 4376              		.thumb
 4377              		.thumb_func
 4378              		.type	LSM303AGR_ACC_W_4D_on_INT1, %function
 4379              	LSM303AGR_ACC_W_4D_on_INT1:
 4380              	.LFB338:
 4381              		.loc 1 1549 0
 4382              		.cfi_startproc
 4383              		@ args = 0, pretend = 0, frame = 16
 4384              		@ frame_needed = 0, uses_anonymous_args = 0
 4385 18d0 00B5     		push	{lr}
 4386              		.cfi_def_cfa_offset 4
 4387              		.cfi_offset 14, -4
 4388 18d2 85B0     		sub	sp, sp, #20
 4389              		.cfi_def_cfa_offset 24
 4390 18d4 0190     		str	r0, [sp, #4]
 4391 18d6 0B46     		mov	r3, r1
 4392 18d8 8DF80330 		strb	r3, [sp, #3]
 4393              		.loc 1 1552 0
 4394 18dc 0DF10F03 		add	r3, sp, #15
 4395 18e0 0198     		ldr	r0, [sp, #4]
 4396 18e2 2421     		movs	r1, #36
 4397 18e4 1A46     		mov	r2, r3
 4398 18e6 0123     		movs	r3, #1
 4399 18e8 FFF7FEFF 		bl	LSM303AGR_ACC_ReadReg
 4400 18ec 0346     		mov	r3, r0
 4401 18ee 002B     		cmp	r3, #0
 4402 18f0 01D1     		bne	.L286
 4403              		.loc 1 1553 0
 4404 18f2 0023     		movs	r3, #0
 4405 18f4 1CE0     		b	.L289
 4406              	.L286:
 4407              		.loc 1 1555 0
 4408 18f6 9DF80F30 		ldrb	r3, [sp, #15]	@ zero_extendqisi2
 4409 18fa 23F00403 		bic	r3, r3, #4
 4410 18fe DBB2     		uxtb	r3, r3
 4411 1900 8DF80F30 		strb	r3, [sp, #15]
 4412              		.loc 1 1556 0
 4413 1904 9DF80F20 		ldrb	r2, [sp, #15]	@ zero_extendqisi2
 4414 1908 9DF80330 		ldrb	r3, [sp, #3]
 4415 190c 1343     		orrs	r3, r3, r2
 4416 190e DBB2     		uxtb	r3, r3
 4417 1910 8DF80F30 		strb	r3, [sp, #15]
 4418              		.loc 1 1558 0
 4419 1914 0DF10F03 		add	r3, sp, #15
 4420 1918 0198     		ldr	r0, [sp, #4]
 4421 191a 2421     		movs	r1, #36
 4422 191c 1A46     		mov	r2, r3
 4423 191e 0123     		movs	r3, #1
 4424 1920 FFF7FEFF 		bl	LSM303AGR_ACC_WriteReg
 4425 1924 0346     		mov	r3, r0
 4426 1926 002B     		cmp	r3, #0
 4427 1928 01D1     		bne	.L288
 4428              		.loc 1 1559 0
 4429 192a 0023     		movs	r3, #0
 4430 192c 00E0     		b	.L289
 4431              	.L288:
 4432              		.loc 1 1561 0
ARM GAS  /tmp/cc1ELVNa.s 			page 80


 4433 192e 0123     		movs	r3, #1
 4434              	.L289:
 4435              		.loc 1 1562 0
 4436 1930 1846     		mov	r0, r3
 4437 1932 05B0     		add	sp, sp, #20
 4438              		@ sp needed
 4439 1934 5DF804FB 		ldr	pc, [sp], #4
 4440              		.cfi_endproc
 4441              	.LFE338:
 4442              		.size	LSM303AGR_ACC_W_4D_on_INT1, .-LSM303AGR_ACC_W_4D_on_INT1
 4443              		.align	2
 4444 1938 AFF30080 		.p2align 4,,15
 4444      AFF30080 
 4445              		.global	LSM303AGR_ACC_R_4D_on_INT1
 4446              		.thumb
 4447              		.thumb_func
 4448              		.type	LSM303AGR_ACC_R_4D_on_INT1, %function
 4449              	LSM303AGR_ACC_R_4D_on_INT1:
 4450              	.LFB339:
 4451              		.loc 1 1572 0
 4452              		.cfi_startproc
 4453              		@ args = 0, pretend = 0, frame = 8
 4454              		@ frame_needed = 0, uses_anonymous_args = 0
 4455 1940 00B5     		push	{lr}
 4456              		.cfi_def_cfa_offset 4
 4457              		.cfi_offset 14, -4
 4458 1942 83B0     		sub	sp, sp, #12
 4459              		.cfi_def_cfa_offset 16
 4460 1944 0190     		str	r0, [sp, #4]
 4461 1946 0091     		str	r1, [sp]
 4462              		.loc 1 1573 0
 4463 1948 0198     		ldr	r0, [sp, #4]
 4464 194a 2421     		movs	r1, #36
 4465 194c 009A     		ldr	r2, [sp]
 4466 194e 0123     		movs	r3, #1
 4467 1950 FFF7FEFF 		bl	LSM303AGR_ACC_ReadReg
 4468 1954 0346     		mov	r3, r0
 4469 1956 002B     		cmp	r3, #0
 4470 1958 01D1     		bne	.L291
 4471              		.loc 1 1574 0
 4472 195a 0023     		movs	r3, #0
 4473 195c 07E0     		b	.L292
 4474              	.L291:
 4475              		.loc 1 1576 0
 4476 195e 009B     		ldr	r3, [sp]
 4477 1960 1B78     		ldrb	r3, [r3]	@ zero_extendqisi2
 4478 1962 03F00403 		and	r3, r3, #4
 4479 1966 DAB2     		uxtb	r2, r3
 4480 1968 009B     		ldr	r3, [sp]
 4481 196a 1A70     		strb	r2, [r3]
 4482              		.loc 1 1578 0
 4483 196c 0123     		movs	r3, #1
 4484              	.L292:
 4485              		.loc 1 1579 0
 4486 196e 1846     		mov	r0, r3
 4487 1970 03B0     		add	sp, sp, #12
 4488              		@ sp needed
ARM GAS  /tmp/cc1ELVNa.s 			page 81


 4489 1972 5DF804FB 		ldr	pc, [sp], #4
 4490              		.cfi_endproc
 4491              	.LFE339:
 4492              		.size	LSM303AGR_ACC_R_4D_on_INT1, .-LSM303AGR_ACC_R_4D_on_INT1
 4493 1976 00BF     		.align	2
 4494 1978 AFF30080 		.p2align 4,,15
 4494      AFF30080 
 4495              		.global	LSM303AGR_ACC_W_LatchInterrupt_on_INT1
 4496              		.thumb
 4497              		.thumb_func
 4498              		.type	LSM303AGR_ACC_W_LatchInterrupt_on_INT1, %function
 4499              	LSM303AGR_ACC_W_LatchInterrupt_on_INT1:
 4500              	.LFB340:
 4501              		.loc 1 1589 0
 4502              		.cfi_startproc
 4503              		@ args = 0, pretend = 0, frame = 16
 4504              		@ frame_needed = 0, uses_anonymous_args = 0
 4505 1980 00B5     		push	{lr}
 4506              		.cfi_def_cfa_offset 4
 4507              		.cfi_offset 14, -4
 4508 1982 85B0     		sub	sp, sp, #20
 4509              		.cfi_def_cfa_offset 24
 4510 1984 0190     		str	r0, [sp, #4]
 4511 1986 0B46     		mov	r3, r1
 4512 1988 8DF80330 		strb	r3, [sp, #3]
 4513              		.loc 1 1592 0
 4514 198c 0DF10F03 		add	r3, sp, #15
 4515 1990 0198     		ldr	r0, [sp, #4]
 4516 1992 2421     		movs	r1, #36
 4517 1994 1A46     		mov	r2, r3
 4518 1996 0123     		movs	r3, #1
 4519 1998 FFF7FEFF 		bl	LSM303AGR_ACC_ReadReg
 4520 199c 0346     		mov	r3, r0
 4521 199e 002B     		cmp	r3, #0
 4522 19a0 01D1     		bne	.L294
 4523              		.loc 1 1593 0
 4524 19a2 0023     		movs	r3, #0
 4525 19a4 1CE0     		b	.L297
 4526              	.L294:
 4527              		.loc 1 1595 0
 4528 19a6 9DF80F30 		ldrb	r3, [sp, #15]	@ zero_extendqisi2
 4529 19aa 23F00803 		bic	r3, r3, #8
 4530 19ae DBB2     		uxtb	r3, r3
 4531 19b0 8DF80F30 		strb	r3, [sp, #15]
 4532              		.loc 1 1596 0
 4533 19b4 9DF80F20 		ldrb	r2, [sp, #15]	@ zero_extendqisi2
 4534 19b8 9DF80330 		ldrb	r3, [sp, #3]
 4535 19bc 1343     		orrs	r3, r3, r2
 4536 19be DBB2     		uxtb	r3, r3
 4537 19c0 8DF80F30 		strb	r3, [sp, #15]
 4538              		.loc 1 1598 0
 4539 19c4 0DF10F03 		add	r3, sp, #15
 4540 19c8 0198     		ldr	r0, [sp, #4]
 4541 19ca 2421     		movs	r1, #36
 4542 19cc 1A46     		mov	r2, r3
 4543 19ce 0123     		movs	r3, #1
 4544 19d0 FFF7FEFF 		bl	LSM303AGR_ACC_WriteReg
ARM GAS  /tmp/cc1ELVNa.s 			page 82


 4545 19d4 0346     		mov	r3, r0
 4546 19d6 002B     		cmp	r3, #0
 4547 19d8 01D1     		bne	.L296
 4548              		.loc 1 1599 0
 4549 19da 0023     		movs	r3, #0
 4550 19dc 00E0     		b	.L297
 4551              	.L296:
 4552              		.loc 1 1601 0
 4553 19de 0123     		movs	r3, #1
 4554              	.L297:
 4555              		.loc 1 1602 0
 4556 19e0 1846     		mov	r0, r3
 4557 19e2 05B0     		add	sp, sp, #20
 4558              		@ sp needed
 4559 19e4 5DF804FB 		ldr	pc, [sp], #4
 4560              		.cfi_endproc
 4561              	.LFE340:
 4562              		.size	LSM303AGR_ACC_W_LatchInterrupt_on_INT1, .-LSM303AGR_ACC_W_LatchInterrupt_on_INT1
 4563              		.align	2
 4564 19e8 AFF30080 		.p2align 4,,15
 4564      AFF30080 
 4565              		.global	LSM303AGR_ACC_R_LatchInterrupt_on_INT1
 4566              		.thumb
 4567              		.thumb_func
 4568              		.type	LSM303AGR_ACC_R_LatchInterrupt_on_INT1, %function
 4569              	LSM303AGR_ACC_R_LatchInterrupt_on_INT1:
 4570              	.LFB341:
 4571              		.loc 1 1612 0
 4572              		.cfi_startproc
 4573              		@ args = 0, pretend = 0, frame = 8
 4574              		@ frame_needed = 0, uses_anonymous_args = 0
 4575 19f0 00B5     		push	{lr}
 4576              		.cfi_def_cfa_offset 4
 4577              		.cfi_offset 14, -4
 4578 19f2 83B0     		sub	sp, sp, #12
 4579              		.cfi_def_cfa_offset 16
 4580 19f4 0190     		str	r0, [sp, #4]
 4581 19f6 0091     		str	r1, [sp]
 4582              		.loc 1 1613 0
 4583 19f8 0198     		ldr	r0, [sp, #4]
 4584 19fa 2421     		movs	r1, #36
 4585 19fc 009A     		ldr	r2, [sp]
 4586 19fe 0123     		movs	r3, #1
 4587 1a00 FFF7FEFF 		bl	LSM303AGR_ACC_ReadReg
 4588 1a04 0346     		mov	r3, r0
 4589 1a06 002B     		cmp	r3, #0
 4590 1a08 01D1     		bne	.L299
 4591              		.loc 1 1614 0
 4592 1a0a 0023     		movs	r3, #0
 4593 1a0c 07E0     		b	.L300
 4594              	.L299:
 4595              		.loc 1 1616 0
 4596 1a0e 009B     		ldr	r3, [sp]
 4597 1a10 1B78     		ldrb	r3, [r3]	@ zero_extendqisi2
 4598 1a12 03F00803 		and	r3, r3, #8
 4599 1a16 DAB2     		uxtb	r2, r3
 4600 1a18 009B     		ldr	r3, [sp]
ARM GAS  /tmp/cc1ELVNa.s 			page 83


 4601 1a1a 1A70     		strb	r2, [r3]
 4602              		.loc 1 1618 0
 4603 1a1c 0123     		movs	r3, #1
 4604              	.L300:
 4605              		.loc 1 1619 0
 4606 1a1e 1846     		mov	r0, r3
 4607 1a20 03B0     		add	sp, sp, #12
 4608              		@ sp needed
 4609 1a22 5DF804FB 		ldr	pc, [sp], #4
 4610              		.cfi_endproc
 4611              	.LFE341:
 4612              		.size	LSM303AGR_ACC_R_LatchInterrupt_on_INT1, .-LSM303AGR_ACC_R_LatchInterrupt_on_INT1
 4613 1a26 00BF     		.align	2
 4614 1a28 AFF30080 		.p2align 4,,15
 4614      AFF30080 
 4615              		.global	LSM303AGR_ACC_W_FIFO_EN
 4616              		.thumb
 4617              		.thumb_func
 4618              		.type	LSM303AGR_ACC_W_FIFO_EN, %function
 4619              	LSM303AGR_ACC_W_FIFO_EN:
 4620              	.LFB342:
 4621              		.loc 1 1629 0
 4622              		.cfi_startproc
 4623              		@ args = 0, pretend = 0, frame = 16
 4624              		@ frame_needed = 0, uses_anonymous_args = 0
 4625 1a30 00B5     		push	{lr}
 4626              		.cfi_def_cfa_offset 4
 4627              		.cfi_offset 14, -4
 4628 1a32 85B0     		sub	sp, sp, #20
 4629              		.cfi_def_cfa_offset 24
 4630 1a34 0190     		str	r0, [sp, #4]
 4631 1a36 0B46     		mov	r3, r1
 4632 1a38 8DF80330 		strb	r3, [sp, #3]
 4633              		.loc 1 1632 0
 4634 1a3c 0DF10F03 		add	r3, sp, #15
 4635 1a40 0198     		ldr	r0, [sp, #4]
 4636 1a42 2421     		movs	r1, #36
 4637 1a44 1A46     		mov	r2, r3
 4638 1a46 0123     		movs	r3, #1
 4639 1a48 FFF7FEFF 		bl	LSM303AGR_ACC_ReadReg
 4640 1a4c 0346     		mov	r3, r0
 4641 1a4e 002B     		cmp	r3, #0
 4642 1a50 01D1     		bne	.L302
 4643              		.loc 1 1633 0
 4644 1a52 0023     		movs	r3, #0
 4645 1a54 1CE0     		b	.L305
 4646              	.L302:
 4647              		.loc 1 1635 0
 4648 1a56 9DF80F30 		ldrb	r3, [sp, #15]	@ zero_extendqisi2
 4649 1a5a 23F04003 		bic	r3, r3, #64
 4650 1a5e DBB2     		uxtb	r3, r3
 4651 1a60 8DF80F30 		strb	r3, [sp, #15]
 4652              		.loc 1 1636 0
 4653 1a64 9DF80F20 		ldrb	r2, [sp, #15]	@ zero_extendqisi2
 4654 1a68 9DF80330 		ldrb	r3, [sp, #3]
 4655 1a6c 1343     		orrs	r3, r3, r2
 4656 1a6e DBB2     		uxtb	r3, r3
ARM GAS  /tmp/cc1ELVNa.s 			page 84


 4657 1a70 8DF80F30 		strb	r3, [sp, #15]
 4658              		.loc 1 1638 0
 4659 1a74 0DF10F03 		add	r3, sp, #15
 4660 1a78 0198     		ldr	r0, [sp, #4]
 4661 1a7a 2421     		movs	r1, #36
 4662 1a7c 1A46     		mov	r2, r3
 4663 1a7e 0123     		movs	r3, #1
 4664 1a80 FFF7FEFF 		bl	LSM303AGR_ACC_WriteReg
 4665 1a84 0346     		mov	r3, r0
 4666 1a86 002B     		cmp	r3, #0
 4667 1a88 01D1     		bne	.L304
 4668              		.loc 1 1639 0
 4669 1a8a 0023     		movs	r3, #0
 4670 1a8c 00E0     		b	.L305
 4671              	.L304:
 4672              		.loc 1 1641 0
 4673 1a8e 0123     		movs	r3, #1
 4674              	.L305:
 4675              		.loc 1 1642 0
 4676 1a90 1846     		mov	r0, r3
 4677 1a92 05B0     		add	sp, sp, #20
 4678              		@ sp needed
 4679 1a94 5DF804FB 		ldr	pc, [sp], #4
 4680              		.cfi_endproc
 4681              	.LFE342:
 4682              		.size	LSM303AGR_ACC_W_FIFO_EN, .-LSM303AGR_ACC_W_FIFO_EN
 4683              		.align	2
 4684 1a98 AFF30080 		.p2align 4,,15
 4684      AFF30080 
 4685              		.global	LSM303AGR_ACC_R_FIFO_EN
 4686              		.thumb
 4687              		.thumb_func
 4688              		.type	LSM303AGR_ACC_R_FIFO_EN, %function
 4689              	LSM303AGR_ACC_R_FIFO_EN:
 4690              	.LFB343:
 4691              		.loc 1 1652 0
 4692              		.cfi_startproc
 4693              		@ args = 0, pretend = 0, frame = 8
 4694              		@ frame_needed = 0, uses_anonymous_args = 0
 4695 1aa0 00B5     		push	{lr}
 4696              		.cfi_def_cfa_offset 4
 4697              		.cfi_offset 14, -4
 4698 1aa2 83B0     		sub	sp, sp, #12
 4699              		.cfi_def_cfa_offset 16
 4700 1aa4 0190     		str	r0, [sp, #4]
 4701 1aa6 0091     		str	r1, [sp]
 4702              		.loc 1 1653 0
 4703 1aa8 0198     		ldr	r0, [sp, #4]
 4704 1aaa 2421     		movs	r1, #36
 4705 1aac 009A     		ldr	r2, [sp]
 4706 1aae 0123     		movs	r3, #1
 4707 1ab0 FFF7FEFF 		bl	LSM303AGR_ACC_ReadReg
 4708 1ab4 0346     		mov	r3, r0
 4709 1ab6 002B     		cmp	r3, #0
 4710 1ab8 01D1     		bne	.L307
 4711              		.loc 1 1654 0
 4712 1aba 0023     		movs	r3, #0
ARM GAS  /tmp/cc1ELVNa.s 			page 85


 4713 1abc 07E0     		b	.L308
 4714              	.L307:
 4715              		.loc 1 1656 0
 4716 1abe 009B     		ldr	r3, [sp]
 4717 1ac0 1B78     		ldrb	r3, [r3]	@ zero_extendqisi2
 4718 1ac2 03F04003 		and	r3, r3, #64
 4719 1ac6 DAB2     		uxtb	r2, r3
 4720 1ac8 009B     		ldr	r3, [sp]
 4721 1aca 1A70     		strb	r2, [r3]
 4722              		.loc 1 1658 0
 4723 1acc 0123     		movs	r3, #1
 4724              	.L308:
 4725              		.loc 1 1659 0
 4726 1ace 1846     		mov	r0, r3
 4727 1ad0 03B0     		add	sp, sp, #12
 4728              		@ sp needed
 4729 1ad2 5DF804FB 		ldr	pc, [sp], #4
 4730              		.cfi_endproc
 4731              	.LFE343:
 4732              		.size	LSM303AGR_ACC_R_FIFO_EN, .-LSM303AGR_ACC_R_FIFO_EN
 4733 1ad6 00BF     		.align	2
 4734 1ad8 AFF30080 		.p2align 4,,15
 4734      AFF30080 
 4735              		.global	LSM303AGR_ACC_W_RebootMemory
 4736              		.thumb
 4737              		.thumb_func
 4738              		.type	LSM303AGR_ACC_W_RebootMemory, %function
 4739              	LSM303AGR_ACC_W_RebootMemory:
 4740              	.LFB344:
 4741              		.loc 1 1669 0
 4742              		.cfi_startproc
 4743              		@ args = 0, pretend = 0, frame = 16
 4744              		@ frame_needed = 0, uses_anonymous_args = 0
 4745 1ae0 00B5     		push	{lr}
 4746              		.cfi_def_cfa_offset 4
 4747              		.cfi_offset 14, -4
 4748 1ae2 85B0     		sub	sp, sp, #20
 4749              		.cfi_def_cfa_offset 24
 4750 1ae4 0190     		str	r0, [sp, #4]
 4751 1ae6 0B46     		mov	r3, r1
 4752 1ae8 8DF80330 		strb	r3, [sp, #3]
 4753              		.loc 1 1672 0
 4754 1aec 0DF10F03 		add	r3, sp, #15
 4755 1af0 0198     		ldr	r0, [sp, #4]
 4756 1af2 2421     		movs	r1, #36
 4757 1af4 1A46     		mov	r2, r3
 4758 1af6 0123     		movs	r3, #1
 4759 1af8 FFF7FEFF 		bl	LSM303AGR_ACC_ReadReg
 4760 1afc 0346     		mov	r3, r0
 4761 1afe 002B     		cmp	r3, #0
 4762 1b00 01D1     		bne	.L310
 4763              		.loc 1 1673 0
 4764 1b02 0023     		movs	r3, #0
 4765 1b04 1CE0     		b	.L313
 4766              	.L310:
 4767              		.loc 1 1675 0
 4768 1b06 9DF80F30 		ldrb	r3, [sp, #15]	@ zero_extendqisi2
ARM GAS  /tmp/cc1ELVNa.s 			page 86


 4769 1b0a 03F07F03 		and	r3, r3, #127
 4770 1b0e DBB2     		uxtb	r3, r3
 4771 1b10 8DF80F30 		strb	r3, [sp, #15]
 4772              		.loc 1 1676 0
 4773 1b14 9DF80F20 		ldrb	r2, [sp, #15]	@ zero_extendqisi2
 4774 1b18 9DF80330 		ldrb	r3, [sp, #3]
 4775 1b1c 1343     		orrs	r3, r3, r2
 4776 1b1e DBB2     		uxtb	r3, r3
 4777 1b20 8DF80F30 		strb	r3, [sp, #15]
 4778              		.loc 1 1678 0
 4779 1b24 0DF10F03 		add	r3, sp, #15
 4780 1b28 0198     		ldr	r0, [sp, #4]
 4781 1b2a 2421     		movs	r1, #36
 4782 1b2c 1A46     		mov	r2, r3
 4783 1b2e 0123     		movs	r3, #1
 4784 1b30 FFF7FEFF 		bl	LSM303AGR_ACC_WriteReg
 4785 1b34 0346     		mov	r3, r0
 4786 1b36 002B     		cmp	r3, #0
 4787 1b38 01D1     		bne	.L312
 4788              		.loc 1 1679 0
 4789 1b3a 0023     		movs	r3, #0
 4790 1b3c 00E0     		b	.L313
 4791              	.L312:
 4792              		.loc 1 1681 0
 4793 1b3e 0123     		movs	r3, #1
 4794              	.L313:
 4795              		.loc 1 1682 0
 4796 1b40 1846     		mov	r0, r3
 4797 1b42 05B0     		add	sp, sp, #20
 4798              		@ sp needed
 4799 1b44 5DF804FB 		ldr	pc, [sp], #4
 4800              		.cfi_endproc
 4801              	.LFE344:
 4802              		.size	LSM303AGR_ACC_W_RebootMemory, .-LSM303AGR_ACC_W_RebootMemory
 4803              		.align	2
 4804 1b48 AFF30080 		.p2align 4,,15
 4804      AFF30080 
 4805              		.global	LSM303AGR_ACC_R_RebootMemory
 4806              		.thumb
 4807              		.thumb_func
 4808              		.type	LSM303AGR_ACC_R_RebootMemory, %function
 4809              	LSM303AGR_ACC_R_RebootMemory:
 4810              	.LFB345:
 4811              		.loc 1 1692 0
 4812              		.cfi_startproc
 4813              		@ args = 0, pretend = 0, frame = 8
 4814              		@ frame_needed = 0, uses_anonymous_args = 0
 4815 1b50 00B5     		push	{lr}
 4816              		.cfi_def_cfa_offset 4
 4817              		.cfi_offset 14, -4
 4818 1b52 83B0     		sub	sp, sp, #12
 4819              		.cfi_def_cfa_offset 16
 4820 1b54 0190     		str	r0, [sp, #4]
 4821 1b56 0091     		str	r1, [sp]
 4822              		.loc 1 1693 0
 4823 1b58 0198     		ldr	r0, [sp, #4]
 4824 1b5a 2421     		movs	r1, #36
ARM GAS  /tmp/cc1ELVNa.s 			page 87


 4825 1b5c 009A     		ldr	r2, [sp]
 4826 1b5e 0123     		movs	r3, #1
 4827 1b60 FFF7FEFF 		bl	LSM303AGR_ACC_ReadReg
 4828 1b64 0346     		mov	r3, r0
 4829 1b66 002B     		cmp	r3, #0
 4830 1b68 01D1     		bne	.L315
 4831              		.loc 1 1694 0
 4832 1b6a 0023     		movs	r3, #0
 4833 1b6c 07E0     		b	.L316
 4834              	.L315:
 4835              		.loc 1 1696 0
 4836 1b6e 009B     		ldr	r3, [sp]
 4837 1b70 1B78     		ldrb	r3, [r3]	@ zero_extendqisi2
 4838 1b72 23F07F03 		bic	r3, r3, #127
 4839 1b76 DAB2     		uxtb	r2, r3
 4840 1b78 009B     		ldr	r3, [sp]
 4841 1b7a 1A70     		strb	r2, [r3]
 4842              		.loc 1 1698 0
 4843 1b7c 0123     		movs	r3, #1
 4844              	.L316:
 4845              		.loc 1 1699 0
 4846 1b7e 1846     		mov	r0, r3
 4847 1b80 03B0     		add	sp, sp, #12
 4848              		@ sp needed
 4849 1b82 5DF804FB 		ldr	pc, [sp], #4
 4850              		.cfi_endproc
 4851              	.LFE345:
 4852              		.size	LSM303AGR_ACC_R_RebootMemory, .-LSM303AGR_ACC_R_RebootMemory
 4853 1b86 00BF     		.align	2
 4854 1b88 AFF30080 		.p2align 4,,15
 4854      AFF30080 
 4855              		.global	LSM303AGR_ACC_W_IntActive
 4856              		.thumb
 4857              		.thumb_func
 4858              		.type	LSM303AGR_ACC_W_IntActive, %function
 4859              	LSM303AGR_ACC_W_IntActive:
 4860              	.LFB346:
 4861              		.loc 1 1709 0
 4862              		.cfi_startproc
 4863              		@ args = 0, pretend = 0, frame = 16
 4864              		@ frame_needed = 0, uses_anonymous_args = 0
 4865 1b90 00B5     		push	{lr}
 4866              		.cfi_def_cfa_offset 4
 4867              		.cfi_offset 14, -4
 4868 1b92 85B0     		sub	sp, sp, #20
 4869              		.cfi_def_cfa_offset 24
 4870 1b94 0190     		str	r0, [sp, #4]
 4871 1b96 0B46     		mov	r3, r1
 4872 1b98 8DF80330 		strb	r3, [sp, #3]
 4873              		.loc 1 1712 0
 4874 1b9c 0DF10F03 		add	r3, sp, #15
 4875 1ba0 0198     		ldr	r0, [sp, #4]
 4876 1ba2 2521     		movs	r1, #37
 4877 1ba4 1A46     		mov	r2, r3
 4878 1ba6 0123     		movs	r3, #1
 4879 1ba8 FFF7FEFF 		bl	LSM303AGR_ACC_ReadReg
 4880 1bac 0346     		mov	r3, r0
ARM GAS  /tmp/cc1ELVNa.s 			page 88


 4881 1bae 002B     		cmp	r3, #0
 4882 1bb0 01D1     		bne	.L318
 4883              		.loc 1 1713 0
 4884 1bb2 0023     		movs	r3, #0
 4885 1bb4 1CE0     		b	.L321
 4886              	.L318:
 4887              		.loc 1 1715 0
 4888 1bb6 9DF80F30 		ldrb	r3, [sp, #15]	@ zero_extendqisi2
 4889 1bba 23F00203 		bic	r3, r3, #2
 4890 1bbe DBB2     		uxtb	r3, r3
 4891 1bc0 8DF80F30 		strb	r3, [sp, #15]
 4892              		.loc 1 1716 0
 4893 1bc4 9DF80F20 		ldrb	r2, [sp, #15]	@ zero_extendqisi2
 4894 1bc8 9DF80330 		ldrb	r3, [sp, #3]
 4895 1bcc 1343     		orrs	r3, r3, r2
 4896 1bce DBB2     		uxtb	r3, r3
 4897 1bd0 8DF80F30 		strb	r3, [sp, #15]
 4898              		.loc 1 1718 0
 4899 1bd4 0DF10F03 		add	r3, sp, #15
 4900 1bd8 0198     		ldr	r0, [sp, #4]
 4901 1bda 2521     		movs	r1, #37
 4902 1bdc 1A46     		mov	r2, r3
 4903 1bde 0123     		movs	r3, #1
 4904 1be0 FFF7FEFF 		bl	LSM303AGR_ACC_WriteReg
 4905 1be4 0346     		mov	r3, r0
 4906 1be6 002B     		cmp	r3, #0
 4907 1be8 01D1     		bne	.L320
 4908              		.loc 1 1719 0
 4909 1bea 0023     		movs	r3, #0
 4910 1bec 00E0     		b	.L321
 4911              	.L320:
 4912              		.loc 1 1721 0
 4913 1bee 0123     		movs	r3, #1
 4914              	.L321:
 4915              		.loc 1 1722 0
 4916 1bf0 1846     		mov	r0, r3
 4917 1bf2 05B0     		add	sp, sp, #20
 4918              		@ sp needed
 4919 1bf4 5DF804FB 		ldr	pc, [sp], #4
 4920              		.cfi_endproc
 4921              	.LFE346:
 4922              		.size	LSM303AGR_ACC_W_IntActive, .-LSM303AGR_ACC_W_IntActive
 4923              		.align	2
 4924 1bf8 AFF30080 		.p2align 4,,15
 4924      AFF30080 
 4925              		.global	LSM303AGR_ACC_R_IntActive
 4926              		.thumb
 4927              		.thumb_func
 4928              		.type	LSM303AGR_ACC_R_IntActive, %function
 4929              	LSM303AGR_ACC_R_IntActive:
 4930              	.LFB347:
 4931              		.loc 1 1732 0
 4932              		.cfi_startproc
 4933              		@ args = 0, pretend = 0, frame = 8
 4934              		@ frame_needed = 0, uses_anonymous_args = 0
 4935 1c00 00B5     		push	{lr}
 4936              		.cfi_def_cfa_offset 4
ARM GAS  /tmp/cc1ELVNa.s 			page 89


 4937              		.cfi_offset 14, -4
 4938 1c02 83B0     		sub	sp, sp, #12
 4939              		.cfi_def_cfa_offset 16
 4940 1c04 0190     		str	r0, [sp, #4]
 4941 1c06 0091     		str	r1, [sp]
 4942              		.loc 1 1733 0
 4943 1c08 0198     		ldr	r0, [sp, #4]
 4944 1c0a 2521     		movs	r1, #37
 4945 1c0c 009A     		ldr	r2, [sp]
 4946 1c0e 0123     		movs	r3, #1
 4947 1c10 FFF7FEFF 		bl	LSM303AGR_ACC_ReadReg
 4948 1c14 0346     		mov	r3, r0
 4949 1c16 002B     		cmp	r3, #0
 4950 1c18 01D1     		bne	.L323
 4951              		.loc 1 1734 0
 4952 1c1a 0023     		movs	r3, #0
 4953 1c1c 07E0     		b	.L324
 4954              	.L323:
 4955              		.loc 1 1736 0
 4956 1c1e 009B     		ldr	r3, [sp]
 4957 1c20 1B78     		ldrb	r3, [r3]	@ zero_extendqisi2
 4958 1c22 03F00203 		and	r3, r3, #2
 4959 1c26 DAB2     		uxtb	r2, r3
 4960 1c28 009B     		ldr	r3, [sp]
 4961 1c2a 1A70     		strb	r2, [r3]
 4962              		.loc 1 1738 0
 4963 1c2c 0123     		movs	r3, #1
 4964              	.L324:
 4965              		.loc 1 1739 0
 4966 1c2e 1846     		mov	r0, r3
 4967 1c30 03B0     		add	sp, sp, #12
 4968              		@ sp needed
 4969 1c32 5DF804FB 		ldr	pc, [sp], #4
 4970              		.cfi_endproc
 4971              	.LFE347:
 4972              		.size	LSM303AGR_ACC_R_IntActive, .-LSM303AGR_ACC_R_IntActive
 4973 1c36 00BF     		.align	2
 4974 1c38 AFF30080 		.p2align 4,,15
 4974      AFF30080 
 4975              		.global	LSM303AGR_ACC_W_P2_ACT
 4976              		.thumb
 4977              		.thumb_func
 4978              		.type	LSM303AGR_ACC_W_P2_ACT, %function
 4979              	LSM303AGR_ACC_W_P2_ACT:
 4980              	.LFB348:
 4981              		.loc 1 1749 0
 4982              		.cfi_startproc
 4983              		@ args = 0, pretend = 0, frame = 16
 4984              		@ frame_needed = 0, uses_anonymous_args = 0
 4985 1c40 00B5     		push	{lr}
 4986              		.cfi_def_cfa_offset 4
 4987              		.cfi_offset 14, -4
 4988 1c42 85B0     		sub	sp, sp, #20
 4989              		.cfi_def_cfa_offset 24
 4990 1c44 0190     		str	r0, [sp, #4]
 4991 1c46 0B46     		mov	r3, r1
 4992 1c48 8DF80330 		strb	r3, [sp, #3]
ARM GAS  /tmp/cc1ELVNa.s 			page 90


 4993              		.loc 1 1752 0
 4994 1c4c 0DF10F03 		add	r3, sp, #15
 4995 1c50 0198     		ldr	r0, [sp, #4]
 4996 1c52 2521     		movs	r1, #37
 4997 1c54 1A46     		mov	r2, r3
 4998 1c56 0123     		movs	r3, #1
 4999 1c58 FFF7FEFF 		bl	LSM303AGR_ACC_ReadReg
 5000 1c5c 0346     		mov	r3, r0
 5001 1c5e 002B     		cmp	r3, #0
 5002 1c60 01D1     		bne	.L326
 5003              		.loc 1 1753 0
 5004 1c62 0023     		movs	r3, #0
 5005 1c64 1CE0     		b	.L329
 5006              	.L326:
 5007              		.loc 1 1755 0
 5008 1c66 9DF80F30 		ldrb	r3, [sp, #15]	@ zero_extendqisi2
 5009 1c6a 23F00803 		bic	r3, r3, #8
 5010 1c6e DBB2     		uxtb	r3, r3
 5011 1c70 8DF80F30 		strb	r3, [sp, #15]
 5012              		.loc 1 1756 0
 5013 1c74 9DF80F20 		ldrb	r2, [sp, #15]	@ zero_extendqisi2
 5014 1c78 9DF80330 		ldrb	r3, [sp, #3]
 5015 1c7c 1343     		orrs	r3, r3, r2
 5016 1c7e DBB2     		uxtb	r3, r3
 5017 1c80 8DF80F30 		strb	r3, [sp, #15]
 5018              		.loc 1 1758 0
 5019 1c84 0DF10F03 		add	r3, sp, #15
 5020 1c88 0198     		ldr	r0, [sp, #4]
 5021 1c8a 2521     		movs	r1, #37
 5022 1c8c 1A46     		mov	r2, r3
 5023 1c8e 0123     		movs	r3, #1
 5024 1c90 FFF7FEFF 		bl	LSM303AGR_ACC_WriteReg
 5025 1c94 0346     		mov	r3, r0
 5026 1c96 002B     		cmp	r3, #0
 5027 1c98 01D1     		bne	.L328
 5028              		.loc 1 1759 0
 5029 1c9a 0023     		movs	r3, #0
 5030 1c9c 00E0     		b	.L329
 5031              	.L328:
 5032              		.loc 1 1761 0
 5033 1c9e 0123     		movs	r3, #1
 5034              	.L329:
 5035              		.loc 1 1762 0
 5036 1ca0 1846     		mov	r0, r3
 5037 1ca2 05B0     		add	sp, sp, #20
 5038              		@ sp needed
 5039 1ca4 5DF804FB 		ldr	pc, [sp], #4
 5040              		.cfi_endproc
 5041              	.LFE348:
 5042              		.size	LSM303AGR_ACC_W_P2_ACT, .-LSM303AGR_ACC_W_P2_ACT
 5043              		.align	2
 5044 1ca8 AFF30080 		.p2align 4,,15
 5044      AFF30080 
 5045              		.global	LSM303AGR_ACC_R_P2_ACT
 5046              		.thumb
 5047              		.thumb_func
 5048              		.type	LSM303AGR_ACC_R_P2_ACT, %function
ARM GAS  /tmp/cc1ELVNa.s 			page 91


 5049              	LSM303AGR_ACC_R_P2_ACT:
 5050              	.LFB349:
 5051              		.loc 1 1772 0
 5052              		.cfi_startproc
 5053              		@ args = 0, pretend = 0, frame = 8
 5054              		@ frame_needed = 0, uses_anonymous_args = 0
 5055 1cb0 00B5     		push	{lr}
 5056              		.cfi_def_cfa_offset 4
 5057              		.cfi_offset 14, -4
 5058 1cb2 83B0     		sub	sp, sp, #12
 5059              		.cfi_def_cfa_offset 16
 5060 1cb4 0190     		str	r0, [sp, #4]
 5061 1cb6 0091     		str	r1, [sp]
 5062              		.loc 1 1773 0
 5063 1cb8 0198     		ldr	r0, [sp, #4]
 5064 1cba 2521     		movs	r1, #37
 5065 1cbc 009A     		ldr	r2, [sp]
 5066 1cbe 0123     		movs	r3, #1
 5067 1cc0 FFF7FEFF 		bl	LSM303AGR_ACC_ReadReg
 5068 1cc4 0346     		mov	r3, r0
 5069 1cc6 002B     		cmp	r3, #0
 5070 1cc8 01D1     		bne	.L331
 5071              		.loc 1 1774 0
 5072 1cca 0023     		movs	r3, #0
 5073 1ccc 07E0     		b	.L332
 5074              	.L331:
 5075              		.loc 1 1776 0
 5076 1cce 009B     		ldr	r3, [sp]
 5077 1cd0 1B78     		ldrb	r3, [r3]	@ zero_extendqisi2
 5078 1cd2 03F00803 		and	r3, r3, #8
 5079 1cd6 DAB2     		uxtb	r2, r3
 5080 1cd8 009B     		ldr	r3, [sp]
 5081 1cda 1A70     		strb	r2, [r3]
 5082              		.loc 1 1778 0
 5083 1cdc 0123     		movs	r3, #1
 5084              	.L332:
 5085              		.loc 1 1779 0
 5086 1cde 1846     		mov	r0, r3
 5087 1ce0 03B0     		add	sp, sp, #12
 5088              		@ sp needed
 5089 1ce2 5DF804FB 		ldr	pc, [sp], #4
 5090              		.cfi_endproc
 5091              	.LFE349:
 5092              		.size	LSM303AGR_ACC_R_P2_ACT, .-LSM303AGR_ACC_R_P2_ACT
 5093 1ce6 00BF     		.align	2
 5094 1ce8 AFF30080 		.p2align 4,,15
 5094      AFF30080 
 5095              		.global	LSM303AGR_ACC_W_Boot_on_INT2
 5096              		.thumb
 5097              		.thumb_func
 5098              		.type	LSM303AGR_ACC_W_Boot_on_INT2, %function
 5099              	LSM303AGR_ACC_W_Boot_on_INT2:
 5100              	.LFB350:
 5101              		.loc 1 1789 0
 5102              		.cfi_startproc
 5103              		@ args = 0, pretend = 0, frame = 16
 5104              		@ frame_needed = 0, uses_anonymous_args = 0
ARM GAS  /tmp/cc1ELVNa.s 			page 92


 5105 1cf0 00B5     		push	{lr}
 5106              		.cfi_def_cfa_offset 4
 5107              		.cfi_offset 14, -4
 5108 1cf2 85B0     		sub	sp, sp, #20
 5109              		.cfi_def_cfa_offset 24
 5110 1cf4 0190     		str	r0, [sp, #4]
 5111 1cf6 0B46     		mov	r3, r1
 5112 1cf8 8DF80330 		strb	r3, [sp, #3]
 5113              		.loc 1 1792 0
 5114 1cfc 0DF10F03 		add	r3, sp, #15
 5115 1d00 0198     		ldr	r0, [sp, #4]
 5116 1d02 2521     		movs	r1, #37
 5117 1d04 1A46     		mov	r2, r3
 5118 1d06 0123     		movs	r3, #1
 5119 1d08 FFF7FEFF 		bl	LSM303AGR_ACC_ReadReg
 5120 1d0c 0346     		mov	r3, r0
 5121 1d0e 002B     		cmp	r3, #0
 5122 1d10 01D1     		bne	.L334
 5123              		.loc 1 1793 0
 5124 1d12 0023     		movs	r3, #0
 5125 1d14 1CE0     		b	.L337
 5126              	.L334:
 5127              		.loc 1 1795 0
 5128 1d16 9DF80F30 		ldrb	r3, [sp, #15]	@ zero_extendqisi2
 5129 1d1a 23F01003 		bic	r3, r3, #16
 5130 1d1e DBB2     		uxtb	r3, r3
 5131 1d20 8DF80F30 		strb	r3, [sp, #15]
 5132              		.loc 1 1796 0
 5133 1d24 9DF80F20 		ldrb	r2, [sp, #15]	@ zero_extendqisi2
 5134 1d28 9DF80330 		ldrb	r3, [sp, #3]
 5135 1d2c 1343     		orrs	r3, r3, r2
 5136 1d2e DBB2     		uxtb	r3, r3
 5137 1d30 8DF80F30 		strb	r3, [sp, #15]
 5138              		.loc 1 1798 0
 5139 1d34 0DF10F03 		add	r3, sp, #15
 5140 1d38 0198     		ldr	r0, [sp, #4]
 5141 1d3a 2521     		movs	r1, #37
 5142 1d3c 1A46     		mov	r2, r3
 5143 1d3e 0123     		movs	r3, #1
 5144 1d40 FFF7FEFF 		bl	LSM303AGR_ACC_WriteReg
 5145 1d44 0346     		mov	r3, r0
 5146 1d46 002B     		cmp	r3, #0
 5147 1d48 01D1     		bne	.L336
 5148              		.loc 1 1799 0
 5149 1d4a 0023     		movs	r3, #0
 5150 1d4c 00E0     		b	.L337
 5151              	.L336:
 5152              		.loc 1 1801 0
 5153 1d4e 0123     		movs	r3, #1
 5154              	.L337:
 5155              		.loc 1 1802 0
 5156 1d50 1846     		mov	r0, r3
 5157 1d52 05B0     		add	sp, sp, #20
 5158              		@ sp needed
 5159 1d54 5DF804FB 		ldr	pc, [sp], #4
 5160              		.cfi_endproc
 5161              	.LFE350:
ARM GAS  /tmp/cc1ELVNa.s 			page 93


 5162              		.size	LSM303AGR_ACC_W_Boot_on_INT2, .-LSM303AGR_ACC_W_Boot_on_INT2
 5163              		.align	2
 5164 1d58 AFF30080 		.p2align 4,,15
 5164      AFF30080 
 5165              		.global	LSM303AGR_ACC_R_Boot_on_INT2
 5166              		.thumb
 5167              		.thumb_func
 5168              		.type	LSM303AGR_ACC_R_Boot_on_INT2, %function
 5169              	LSM303AGR_ACC_R_Boot_on_INT2:
 5170              	.LFB351:
 5171              		.loc 1 1812 0
 5172              		.cfi_startproc
 5173              		@ args = 0, pretend = 0, frame = 8
 5174              		@ frame_needed = 0, uses_anonymous_args = 0
 5175 1d60 00B5     		push	{lr}
 5176              		.cfi_def_cfa_offset 4
 5177              		.cfi_offset 14, -4
 5178 1d62 83B0     		sub	sp, sp, #12
 5179              		.cfi_def_cfa_offset 16
 5180 1d64 0190     		str	r0, [sp, #4]
 5181 1d66 0091     		str	r1, [sp]
 5182              		.loc 1 1813 0
 5183 1d68 0198     		ldr	r0, [sp, #4]
 5184 1d6a 2521     		movs	r1, #37
 5185 1d6c 009A     		ldr	r2, [sp]
 5186 1d6e 0123     		movs	r3, #1
 5187 1d70 FFF7FEFF 		bl	LSM303AGR_ACC_ReadReg
 5188 1d74 0346     		mov	r3, r0
 5189 1d76 002B     		cmp	r3, #0
 5190 1d78 01D1     		bne	.L339
 5191              		.loc 1 1814 0
 5192 1d7a 0023     		movs	r3, #0
 5193 1d7c 07E0     		b	.L340
 5194              	.L339:
 5195              		.loc 1 1816 0
 5196 1d7e 009B     		ldr	r3, [sp]
 5197 1d80 1B78     		ldrb	r3, [r3]	@ zero_extendqisi2
 5198 1d82 03F01003 		and	r3, r3, #16
 5199 1d86 DAB2     		uxtb	r2, r3
 5200 1d88 009B     		ldr	r3, [sp]
 5201 1d8a 1A70     		strb	r2, [r3]
 5202              		.loc 1 1818 0
 5203 1d8c 0123     		movs	r3, #1
 5204              	.L340:
 5205              		.loc 1 1819 0
 5206 1d8e 1846     		mov	r0, r3
 5207 1d90 03B0     		add	sp, sp, #12
 5208              		@ sp needed
 5209 1d92 5DF804FB 		ldr	pc, [sp], #4
 5210              		.cfi_endproc
 5211              	.LFE351:
 5212              		.size	LSM303AGR_ACC_R_Boot_on_INT2, .-LSM303AGR_ACC_R_Boot_on_INT2
 5213 1d96 00BF     		.align	2
 5214 1d98 AFF30080 		.p2align 4,,15
 5214      AFF30080 
 5215              		.global	LSM303AGR_ACC_W_I2_on_INT2
 5216              		.thumb
ARM GAS  /tmp/cc1ELVNa.s 			page 94


 5217              		.thumb_func
 5218              		.type	LSM303AGR_ACC_W_I2_on_INT2, %function
 5219              	LSM303AGR_ACC_W_I2_on_INT2:
 5220              	.LFB352:
 5221              		.loc 1 1829 0
 5222              		.cfi_startproc
 5223              		@ args = 0, pretend = 0, frame = 16
 5224              		@ frame_needed = 0, uses_anonymous_args = 0
 5225 1da0 00B5     		push	{lr}
 5226              		.cfi_def_cfa_offset 4
 5227              		.cfi_offset 14, -4
 5228 1da2 85B0     		sub	sp, sp, #20
 5229              		.cfi_def_cfa_offset 24
 5230 1da4 0190     		str	r0, [sp, #4]
 5231 1da6 0B46     		mov	r3, r1
 5232 1da8 8DF80330 		strb	r3, [sp, #3]
 5233              		.loc 1 1832 0
 5234 1dac 0DF10F03 		add	r3, sp, #15
 5235 1db0 0198     		ldr	r0, [sp, #4]
 5236 1db2 2521     		movs	r1, #37
 5237 1db4 1A46     		mov	r2, r3
 5238 1db6 0123     		movs	r3, #1
 5239 1db8 FFF7FEFF 		bl	LSM303AGR_ACC_ReadReg
 5240 1dbc 0346     		mov	r3, r0
 5241 1dbe 002B     		cmp	r3, #0
 5242 1dc0 01D1     		bne	.L342
 5243              		.loc 1 1833 0
 5244 1dc2 0023     		movs	r3, #0
 5245 1dc4 1CE0     		b	.L345
 5246              	.L342:
 5247              		.loc 1 1835 0
 5248 1dc6 9DF80F30 		ldrb	r3, [sp, #15]	@ zero_extendqisi2
 5249 1dca 23F02003 		bic	r3, r3, #32
 5250 1dce DBB2     		uxtb	r3, r3
 5251 1dd0 8DF80F30 		strb	r3, [sp, #15]
 5252              		.loc 1 1836 0
 5253 1dd4 9DF80F20 		ldrb	r2, [sp, #15]	@ zero_extendqisi2
 5254 1dd8 9DF80330 		ldrb	r3, [sp, #3]
 5255 1ddc 1343     		orrs	r3, r3, r2
 5256 1dde DBB2     		uxtb	r3, r3
 5257 1de0 8DF80F30 		strb	r3, [sp, #15]
 5258              		.loc 1 1838 0
 5259 1de4 0DF10F03 		add	r3, sp, #15
 5260 1de8 0198     		ldr	r0, [sp, #4]
 5261 1dea 2521     		movs	r1, #37
 5262 1dec 1A46     		mov	r2, r3
 5263 1dee 0123     		movs	r3, #1
 5264 1df0 FFF7FEFF 		bl	LSM303AGR_ACC_WriteReg
 5265 1df4 0346     		mov	r3, r0
 5266 1df6 002B     		cmp	r3, #0
 5267 1df8 01D1     		bne	.L344
 5268              		.loc 1 1839 0
 5269 1dfa 0023     		movs	r3, #0
 5270 1dfc 00E0     		b	.L345
 5271              	.L344:
 5272              		.loc 1 1841 0
 5273 1dfe 0123     		movs	r3, #1
ARM GAS  /tmp/cc1ELVNa.s 			page 95


 5274              	.L345:
 5275              		.loc 1 1842 0
 5276 1e00 1846     		mov	r0, r3
 5277 1e02 05B0     		add	sp, sp, #20
 5278              		@ sp needed
 5279 1e04 5DF804FB 		ldr	pc, [sp], #4
 5280              		.cfi_endproc
 5281              	.LFE352:
 5282              		.size	LSM303AGR_ACC_W_I2_on_INT2, .-LSM303AGR_ACC_W_I2_on_INT2
 5283              		.align	2
 5284 1e08 AFF30080 		.p2align 4,,15
 5284      AFF30080 
 5285              		.global	LSM303AGR_ACC_R_I2_on_INT2
 5286              		.thumb
 5287              		.thumb_func
 5288              		.type	LSM303AGR_ACC_R_I2_on_INT2, %function
 5289              	LSM303AGR_ACC_R_I2_on_INT2:
 5290              	.LFB353:
 5291              		.loc 1 1852 0
 5292              		.cfi_startproc
 5293              		@ args = 0, pretend = 0, frame = 8
 5294              		@ frame_needed = 0, uses_anonymous_args = 0
 5295 1e10 00B5     		push	{lr}
 5296              		.cfi_def_cfa_offset 4
 5297              		.cfi_offset 14, -4
 5298 1e12 83B0     		sub	sp, sp, #12
 5299              		.cfi_def_cfa_offset 16
 5300 1e14 0190     		str	r0, [sp, #4]
 5301 1e16 0091     		str	r1, [sp]
 5302              		.loc 1 1853 0
 5303 1e18 0198     		ldr	r0, [sp, #4]
 5304 1e1a 2521     		movs	r1, #37
 5305 1e1c 009A     		ldr	r2, [sp]
 5306 1e1e 0123     		movs	r3, #1
 5307 1e20 FFF7FEFF 		bl	LSM303AGR_ACC_ReadReg
 5308 1e24 0346     		mov	r3, r0
 5309 1e26 002B     		cmp	r3, #0
 5310 1e28 01D1     		bne	.L347
 5311              		.loc 1 1854 0
 5312 1e2a 0023     		movs	r3, #0
 5313 1e2c 07E0     		b	.L348
 5314              	.L347:
 5315              		.loc 1 1856 0
 5316 1e2e 009B     		ldr	r3, [sp]
 5317 1e30 1B78     		ldrb	r3, [r3]	@ zero_extendqisi2
 5318 1e32 03F02003 		and	r3, r3, #32
 5319 1e36 DAB2     		uxtb	r2, r3
 5320 1e38 009B     		ldr	r3, [sp]
 5321 1e3a 1A70     		strb	r2, [r3]
 5322              		.loc 1 1858 0
 5323 1e3c 0123     		movs	r3, #1
 5324              	.L348:
 5325              		.loc 1 1859 0
 5326 1e3e 1846     		mov	r0, r3
 5327 1e40 03B0     		add	sp, sp, #12
 5328              		@ sp needed
 5329 1e42 5DF804FB 		ldr	pc, [sp], #4
ARM GAS  /tmp/cc1ELVNa.s 			page 96


 5330              		.cfi_endproc
 5331              	.LFE353:
 5332              		.size	LSM303AGR_ACC_R_I2_on_INT2, .-LSM303AGR_ACC_R_I2_on_INT2
 5333 1e46 00BF     		.align	2
 5334 1e48 AFF30080 		.p2align 4,,15
 5334      AFF30080 
 5335              		.global	LSM303AGR_ACC_W_I2_on_INT1
 5336              		.thumb
 5337              		.thumb_func
 5338              		.type	LSM303AGR_ACC_W_I2_on_INT1, %function
 5339              	LSM303AGR_ACC_W_I2_on_INT1:
 5340              	.LFB354:
 5341              		.loc 1 1869 0
 5342              		.cfi_startproc
 5343              		@ args = 0, pretend = 0, frame = 16
 5344              		@ frame_needed = 0, uses_anonymous_args = 0
 5345 1e50 00B5     		push	{lr}
 5346              		.cfi_def_cfa_offset 4
 5347              		.cfi_offset 14, -4
 5348 1e52 85B0     		sub	sp, sp, #20
 5349              		.cfi_def_cfa_offset 24
 5350 1e54 0190     		str	r0, [sp, #4]
 5351 1e56 0B46     		mov	r3, r1
 5352 1e58 8DF80330 		strb	r3, [sp, #3]
 5353              		.loc 1 1872 0
 5354 1e5c 0DF10F03 		add	r3, sp, #15
 5355 1e60 0198     		ldr	r0, [sp, #4]
 5356 1e62 2521     		movs	r1, #37
 5357 1e64 1A46     		mov	r2, r3
 5358 1e66 0123     		movs	r3, #1
 5359 1e68 FFF7FEFF 		bl	LSM303AGR_ACC_ReadReg
 5360 1e6c 0346     		mov	r3, r0
 5361 1e6e 002B     		cmp	r3, #0
 5362 1e70 01D1     		bne	.L350
 5363              		.loc 1 1873 0
 5364 1e72 0023     		movs	r3, #0
 5365 1e74 1CE0     		b	.L353
 5366              	.L350:
 5367              		.loc 1 1875 0
 5368 1e76 9DF80F30 		ldrb	r3, [sp, #15]	@ zero_extendqisi2
 5369 1e7a 23F04003 		bic	r3, r3, #64
 5370 1e7e DBB2     		uxtb	r3, r3
 5371 1e80 8DF80F30 		strb	r3, [sp, #15]
 5372              		.loc 1 1876 0
 5373 1e84 9DF80F20 		ldrb	r2, [sp, #15]	@ zero_extendqisi2
 5374 1e88 9DF80330 		ldrb	r3, [sp, #3]
 5375 1e8c 1343     		orrs	r3, r3, r2
 5376 1e8e DBB2     		uxtb	r3, r3
 5377 1e90 8DF80F30 		strb	r3, [sp, #15]
 5378              		.loc 1 1878 0
 5379 1e94 0DF10F03 		add	r3, sp, #15
 5380 1e98 0198     		ldr	r0, [sp, #4]
 5381 1e9a 2521     		movs	r1, #37
 5382 1e9c 1A46     		mov	r2, r3
 5383 1e9e 0123     		movs	r3, #1
 5384 1ea0 FFF7FEFF 		bl	LSM303AGR_ACC_WriteReg
 5385 1ea4 0346     		mov	r3, r0
ARM GAS  /tmp/cc1ELVNa.s 			page 97


 5386 1ea6 002B     		cmp	r3, #0
 5387 1ea8 01D1     		bne	.L352
 5388              		.loc 1 1879 0
 5389 1eaa 0023     		movs	r3, #0
 5390 1eac 00E0     		b	.L353
 5391              	.L352:
 5392              		.loc 1 1881 0
 5393 1eae 0123     		movs	r3, #1
 5394              	.L353:
 5395              		.loc 1 1882 0
 5396 1eb0 1846     		mov	r0, r3
 5397 1eb2 05B0     		add	sp, sp, #20
 5398              		@ sp needed
 5399 1eb4 5DF804FB 		ldr	pc, [sp], #4
 5400              		.cfi_endproc
 5401              	.LFE354:
 5402              		.size	LSM303AGR_ACC_W_I2_on_INT1, .-LSM303AGR_ACC_W_I2_on_INT1
 5403              		.align	2
 5404 1eb8 AFF30080 		.p2align 4,,15
 5404      AFF30080 
 5405              		.global	LSM303AGR_ACC_R_I2_on_INT1
 5406              		.thumb
 5407              		.thumb_func
 5408              		.type	LSM303AGR_ACC_R_I2_on_INT1, %function
 5409              	LSM303AGR_ACC_R_I2_on_INT1:
 5410              	.LFB355:
 5411              		.loc 1 1892 0
 5412              		.cfi_startproc
 5413              		@ args = 0, pretend = 0, frame = 8
 5414              		@ frame_needed = 0, uses_anonymous_args = 0
 5415 1ec0 00B5     		push	{lr}
 5416              		.cfi_def_cfa_offset 4
 5417              		.cfi_offset 14, -4
 5418 1ec2 83B0     		sub	sp, sp, #12
 5419              		.cfi_def_cfa_offset 16
 5420 1ec4 0190     		str	r0, [sp, #4]
 5421 1ec6 0091     		str	r1, [sp]
 5422              		.loc 1 1893 0
 5423 1ec8 0198     		ldr	r0, [sp, #4]
 5424 1eca 2521     		movs	r1, #37
 5425 1ecc 009A     		ldr	r2, [sp]
 5426 1ece 0123     		movs	r3, #1
 5427 1ed0 FFF7FEFF 		bl	LSM303AGR_ACC_ReadReg
 5428 1ed4 0346     		mov	r3, r0
 5429 1ed6 002B     		cmp	r3, #0
 5430 1ed8 01D1     		bne	.L355
 5431              		.loc 1 1894 0
 5432 1eda 0023     		movs	r3, #0
 5433 1edc 07E0     		b	.L356
 5434              	.L355:
 5435              		.loc 1 1896 0
 5436 1ede 009B     		ldr	r3, [sp]
 5437 1ee0 1B78     		ldrb	r3, [r3]	@ zero_extendqisi2
 5438 1ee2 03F04003 		and	r3, r3, #64
 5439 1ee6 DAB2     		uxtb	r2, r3
 5440 1ee8 009B     		ldr	r3, [sp]
 5441 1eea 1A70     		strb	r2, [r3]
ARM GAS  /tmp/cc1ELVNa.s 			page 98


 5442              		.loc 1 1898 0
 5443 1eec 0123     		movs	r3, #1
 5444              	.L356:
 5445              		.loc 1 1899 0
 5446 1eee 1846     		mov	r0, r3
 5447 1ef0 03B0     		add	sp, sp, #12
 5448              		@ sp needed
 5449 1ef2 5DF804FB 		ldr	pc, [sp], #4
 5450              		.cfi_endproc
 5451              	.LFE355:
 5452              		.size	LSM303AGR_ACC_R_I2_on_INT1, .-LSM303AGR_ACC_R_I2_on_INT1
 5453 1ef6 00BF     		.align	2
 5454 1ef8 AFF30080 		.p2align 4,,15
 5454      AFF30080 
 5455              		.global	LSM303AGR_ACC_W_Click_on_INT2
 5456              		.thumb
 5457              		.thumb_func
 5458              		.type	LSM303AGR_ACC_W_Click_on_INT2, %function
 5459              	LSM303AGR_ACC_W_Click_on_INT2:
 5460              	.LFB356:
 5461              		.loc 1 1909 0
 5462              		.cfi_startproc
 5463              		@ args = 0, pretend = 0, frame = 16
 5464              		@ frame_needed = 0, uses_anonymous_args = 0
 5465 1f00 00B5     		push	{lr}
 5466              		.cfi_def_cfa_offset 4
 5467              		.cfi_offset 14, -4
 5468 1f02 85B0     		sub	sp, sp, #20
 5469              		.cfi_def_cfa_offset 24
 5470 1f04 0190     		str	r0, [sp, #4]
 5471 1f06 0B46     		mov	r3, r1
 5472 1f08 8DF80330 		strb	r3, [sp, #3]
 5473              		.loc 1 1912 0
 5474 1f0c 0DF10F03 		add	r3, sp, #15
 5475 1f10 0198     		ldr	r0, [sp, #4]
 5476 1f12 2521     		movs	r1, #37
 5477 1f14 1A46     		mov	r2, r3
 5478 1f16 0123     		movs	r3, #1
 5479 1f18 FFF7FEFF 		bl	LSM303AGR_ACC_ReadReg
 5480 1f1c 0346     		mov	r3, r0
 5481 1f1e 002B     		cmp	r3, #0
 5482 1f20 01D1     		bne	.L358
 5483              		.loc 1 1913 0
 5484 1f22 0023     		movs	r3, #0
 5485 1f24 1CE0     		b	.L361
 5486              	.L358:
 5487              		.loc 1 1915 0
 5488 1f26 9DF80F30 		ldrb	r3, [sp, #15]	@ zero_extendqisi2
 5489 1f2a 03F07F03 		and	r3, r3, #127
 5490 1f2e DBB2     		uxtb	r3, r3
 5491 1f30 8DF80F30 		strb	r3, [sp, #15]
 5492              		.loc 1 1916 0
 5493 1f34 9DF80F20 		ldrb	r2, [sp, #15]	@ zero_extendqisi2
 5494 1f38 9DF80330 		ldrb	r3, [sp, #3]
 5495 1f3c 1343     		orrs	r3, r3, r2
 5496 1f3e DBB2     		uxtb	r3, r3
 5497 1f40 8DF80F30 		strb	r3, [sp, #15]
ARM GAS  /tmp/cc1ELVNa.s 			page 99


 5498              		.loc 1 1918 0
 5499 1f44 0DF10F03 		add	r3, sp, #15
 5500 1f48 0198     		ldr	r0, [sp, #4]
 5501 1f4a 2521     		movs	r1, #37
 5502 1f4c 1A46     		mov	r2, r3
 5503 1f4e 0123     		movs	r3, #1
 5504 1f50 FFF7FEFF 		bl	LSM303AGR_ACC_WriteReg
 5505 1f54 0346     		mov	r3, r0
 5506 1f56 002B     		cmp	r3, #0
 5507 1f58 01D1     		bne	.L360
 5508              		.loc 1 1919 0
 5509 1f5a 0023     		movs	r3, #0
 5510 1f5c 00E0     		b	.L361
 5511              	.L360:
 5512              		.loc 1 1921 0
 5513 1f5e 0123     		movs	r3, #1
 5514              	.L361:
 5515              		.loc 1 1922 0
 5516 1f60 1846     		mov	r0, r3
 5517 1f62 05B0     		add	sp, sp, #20
 5518              		@ sp needed
 5519 1f64 5DF804FB 		ldr	pc, [sp], #4
 5520              		.cfi_endproc
 5521              	.LFE356:
 5522              		.size	LSM303AGR_ACC_W_Click_on_INT2, .-LSM303AGR_ACC_W_Click_on_INT2
 5523              		.align	2
 5524 1f68 AFF30080 		.p2align 4,,15
 5524      AFF30080 
 5525              		.global	LSM303AGR_ACC_R_Click_on_INT2
 5526              		.thumb
 5527              		.thumb_func
 5528              		.type	LSM303AGR_ACC_R_Click_on_INT2, %function
 5529              	LSM303AGR_ACC_R_Click_on_INT2:
 5530              	.LFB357:
 5531              		.loc 1 1932 0
 5532              		.cfi_startproc
 5533              		@ args = 0, pretend = 0, frame = 8
 5534              		@ frame_needed = 0, uses_anonymous_args = 0
 5535 1f70 00B5     		push	{lr}
 5536              		.cfi_def_cfa_offset 4
 5537              		.cfi_offset 14, -4
 5538 1f72 83B0     		sub	sp, sp, #12
 5539              		.cfi_def_cfa_offset 16
 5540 1f74 0190     		str	r0, [sp, #4]
 5541 1f76 0091     		str	r1, [sp]
 5542              		.loc 1 1933 0
 5543 1f78 0198     		ldr	r0, [sp, #4]
 5544 1f7a 2521     		movs	r1, #37
 5545 1f7c 009A     		ldr	r2, [sp]
 5546 1f7e 0123     		movs	r3, #1
 5547 1f80 FFF7FEFF 		bl	LSM303AGR_ACC_ReadReg
 5548 1f84 0346     		mov	r3, r0
 5549 1f86 002B     		cmp	r3, #0
 5550 1f88 01D1     		bne	.L363
 5551              		.loc 1 1934 0
 5552 1f8a 0023     		movs	r3, #0
 5553 1f8c 07E0     		b	.L364
ARM GAS  /tmp/cc1ELVNa.s 			page 100


 5554              	.L363:
 5555              		.loc 1 1936 0
 5556 1f8e 009B     		ldr	r3, [sp]
 5557 1f90 1B78     		ldrb	r3, [r3]	@ zero_extendqisi2
 5558 1f92 23F07F03 		bic	r3, r3, #127
 5559 1f96 DAB2     		uxtb	r2, r3
 5560 1f98 009B     		ldr	r3, [sp]
 5561 1f9a 1A70     		strb	r2, [r3]
 5562              		.loc 1 1938 0
 5563 1f9c 0123     		movs	r3, #1
 5564              	.L364:
 5565              		.loc 1 1939 0
 5566 1f9e 1846     		mov	r0, r3
 5567 1fa0 03B0     		add	sp, sp, #12
 5568              		@ sp needed
 5569 1fa2 5DF804FB 		ldr	pc, [sp], #4
 5570              		.cfi_endproc
 5571              	.LFE357:
 5572              		.size	LSM303AGR_ACC_R_Click_on_INT2, .-LSM303AGR_ACC_R_Click_on_INT2
 5573 1fa6 00BF     		.align	2
 5574 1fa8 AFF30080 		.p2align 4,,15
 5574      AFF30080 
 5575              		.global	LSM303AGR_ACC_W_ReferenceVal
 5576              		.thumb
 5577              		.thumb_func
 5578              		.type	LSM303AGR_ACC_W_ReferenceVal, %function
 5579              	LSM303AGR_ACC_W_ReferenceVal:
 5580              	.LFB358:
 5581              		.loc 1 1949 0
 5582              		.cfi_startproc
 5583              		@ args = 0, pretend = 0, frame = 16
 5584              		@ frame_needed = 0, uses_anonymous_args = 0
 5585 1fb0 00B5     		push	{lr}
 5586              		.cfi_def_cfa_offset 4
 5587              		.cfi_offset 14, -4
 5588 1fb2 85B0     		sub	sp, sp, #20
 5589              		.cfi_def_cfa_offset 24
 5590 1fb4 0190     		str	r0, [sp, #4]
 5591 1fb6 0B46     		mov	r3, r1
 5592 1fb8 8DF80330 		strb	r3, [sp, #3]
 5593              		.loc 1 1955 0
 5594 1fbc 0DF10F03 		add	r3, sp, #15
 5595 1fc0 0198     		ldr	r0, [sp, #4]
 5596 1fc2 2621     		movs	r1, #38
 5597 1fc4 1A46     		mov	r2, r3
 5598 1fc6 0123     		movs	r3, #1
 5599 1fc8 FFF7FEFF 		bl	LSM303AGR_ACC_ReadReg
 5600 1fcc 0346     		mov	r3, r0
 5601 1fce 002B     		cmp	r3, #0
 5602 1fd0 01D1     		bne	.L366
 5603              		.loc 1 1956 0
 5604 1fd2 0023     		movs	r3, #0
 5605 1fd4 18E0     		b	.L369
 5606              	.L366:
 5607              		.loc 1 1958 0
 5608 1fd6 0023     		movs	r3, #0
 5609 1fd8 8DF80F30 		strb	r3, [sp, #15]
ARM GAS  /tmp/cc1ELVNa.s 			page 101


 5610              		.loc 1 1959 0
 5611 1fdc 9DF80F20 		ldrb	r2, [sp, #15]	@ zero_extendqisi2
 5612 1fe0 9DF80330 		ldrb	r3, [sp, #3]
 5613 1fe4 1343     		orrs	r3, r3, r2
 5614 1fe6 DBB2     		uxtb	r3, r3
 5615 1fe8 8DF80F30 		strb	r3, [sp, #15]
 5616              		.loc 1 1961 0
 5617 1fec 0DF10F03 		add	r3, sp, #15
 5618 1ff0 0198     		ldr	r0, [sp, #4]
 5619 1ff2 2621     		movs	r1, #38
 5620 1ff4 1A46     		mov	r2, r3
 5621 1ff6 0123     		movs	r3, #1
 5622 1ff8 FFF7FEFF 		bl	LSM303AGR_ACC_WriteReg
 5623 1ffc 0346     		mov	r3, r0
 5624 1ffe 002B     		cmp	r3, #0
 5625 2000 01D1     		bne	.L368
 5626              		.loc 1 1962 0
 5627 2002 0023     		movs	r3, #0
 5628 2004 00E0     		b	.L369
 5629              	.L368:
 5630              		.loc 1 1964 0
 5631 2006 0123     		movs	r3, #1
 5632              	.L369:
 5633              		.loc 1 1965 0
 5634 2008 1846     		mov	r0, r3
 5635 200a 05B0     		add	sp, sp, #20
 5636              		@ sp needed
 5637 200c 5DF804FB 		ldr	pc, [sp], #4
 5638              		.cfi_endproc
 5639              	.LFE358:
 5640              		.size	LSM303AGR_ACC_W_ReferenceVal, .-LSM303AGR_ACC_W_ReferenceVal
 5641              		.align	2
 5642              		.p2align 4,,15
 5643              		.global	LSM303AGR_ACC_R_ReferenceVal
 5644              		.thumb
 5645              		.thumb_func
 5646              		.type	LSM303AGR_ACC_R_ReferenceVal, %function
 5647              	LSM303AGR_ACC_R_ReferenceVal:
 5648              	.LFB359:
 5649              		.loc 1 1975 0
 5650              		.cfi_startproc
 5651              		@ args = 0, pretend = 0, frame = 8
 5652              		@ frame_needed = 0, uses_anonymous_args = 0
 5653 2010 00B5     		push	{lr}
 5654              		.cfi_def_cfa_offset 4
 5655              		.cfi_offset 14, -4
 5656 2012 83B0     		sub	sp, sp, #12
 5657              		.cfi_def_cfa_offset 16
 5658 2014 0190     		str	r0, [sp, #4]
 5659 2016 0091     		str	r1, [sp]
 5660              		.loc 1 1976 0
 5661 2018 0198     		ldr	r0, [sp, #4]
 5662 201a 2621     		movs	r1, #38
 5663 201c 009A     		ldr	r2, [sp]
 5664 201e 0123     		movs	r3, #1
 5665 2020 FFF7FEFF 		bl	LSM303AGR_ACC_ReadReg
 5666 2024 0346     		mov	r3, r0
ARM GAS  /tmp/cc1ELVNa.s 			page 102


 5667 2026 002B     		cmp	r3, #0
 5668 2028 01D1     		bne	.L371
 5669              		.loc 1 1977 0
 5670 202a 0023     		movs	r3, #0
 5671 202c 08E0     		b	.L372
 5672              	.L371:
 5673              		.loc 1 1979 0
 5674 202e 009B     		ldr	r3, [sp]
 5675 2030 1A78     		ldrb	r2, [r3]	@ zero_extendqisi2
 5676 2032 009B     		ldr	r3, [sp]
 5677 2034 1A70     		strb	r2, [r3]
 5678              		.loc 1 1980 0
 5679 2036 009B     		ldr	r3, [sp]
 5680 2038 1A78     		ldrb	r2, [r3]	@ zero_extendqisi2
 5681 203a 009B     		ldr	r3, [sp]
 5682 203c 1A70     		strb	r2, [r3]
 5683              		.loc 1 1982 0
 5684 203e 0123     		movs	r3, #1
 5685              	.L372:
 5686              		.loc 1 1983 0
 5687 2040 1846     		mov	r0, r3
 5688 2042 03B0     		add	sp, sp, #12
 5689              		@ sp needed
 5690 2044 5DF804FB 		ldr	pc, [sp], #4
 5691              		.cfi_endproc
 5692              	.LFE359:
 5693              		.size	LSM303AGR_ACC_R_ReferenceVal, .-LSM303AGR_ACC_R_ReferenceVal
 5694              		.align	2
 5695 2048 AFF30080 		.p2align 4,,15
 5695      AFF30080 
 5696              		.global	LSM303AGR_ACC_R_XDataAvail
 5697              		.thumb
 5698              		.thumb_func
 5699              		.type	LSM303AGR_ACC_R_XDataAvail, %function
 5700              	LSM303AGR_ACC_R_XDataAvail:
 5701              	.LFB360:
 5702              		.loc 1 1993 0
 5703              		.cfi_startproc
 5704              		@ args = 0, pretend = 0, frame = 8
 5705              		@ frame_needed = 0, uses_anonymous_args = 0
 5706 2050 00B5     		push	{lr}
 5707              		.cfi_def_cfa_offset 4
 5708              		.cfi_offset 14, -4
 5709 2052 83B0     		sub	sp, sp, #12
 5710              		.cfi_def_cfa_offset 16
 5711 2054 0190     		str	r0, [sp, #4]
 5712 2056 0091     		str	r1, [sp]
 5713              		.loc 1 1994 0
 5714 2058 0198     		ldr	r0, [sp, #4]
 5715 205a 2721     		movs	r1, #39
 5716 205c 009A     		ldr	r2, [sp]
 5717 205e 0123     		movs	r3, #1
 5718 2060 FFF7FEFF 		bl	LSM303AGR_ACC_ReadReg
 5719 2064 0346     		mov	r3, r0
 5720 2066 002B     		cmp	r3, #0
 5721 2068 01D1     		bne	.L374
 5722              		.loc 1 1995 0
ARM GAS  /tmp/cc1ELVNa.s 			page 103


 5723 206a 0023     		movs	r3, #0
 5724 206c 07E0     		b	.L375
 5725              	.L374:
 5726              		.loc 1 1997 0
 5727 206e 009B     		ldr	r3, [sp]
 5728 2070 1B78     		ldrb	r3, [r3]	@ zero_extendqisi2
 5729 2072 03F00103 		and	r3, r3, #1
 5730 2076 DAB2     		uxtb	r2, r3
 5731 2078 009B     		ldr	r3, [sp]
 5732 207a 1A70     		strb	r2, [r3]
 5733              		.loc 1 1999 0
 5734 207c 0123     		movs	r3, #1
 5735              	.L375:
 5736              		.loc 1 2000 0
 5737 207e 1846     		mov	r0, r3
 5738 2080 03B0     		add	sp, sp, #12
 5739              		@ sp needed
 5740 2082 5DF804FB 		ldr	pc, [sp], #4
 5741              		.cfi_endproc
 5742              	.LFE360:
 5743              		.size	LSM303AGR_ACC_R_XDataAvail, .-LSM303AGR_ACC_R_XDataAvail
 5744 2086 00BF     		.align	2
 5745 2088 AFF30080 		.p2align 4,,15
 5745      AFF30080 
 5746              		.global	LSM303AGR_ACC_R_YDataAvail
 5747              		.thumb
 5748              		.thumb_func
 5749              		.type	LSM303AGR_ACC_R_YDataAvail, %function
 5750              	LSM303AGR_ACC_R_YDataAvail:
 5751              	.LFB361:
 5752              		.loc 1 2010 0
 5753              		.cfi_startproc
 5754              		@ args = 0, pretend = 0, frame = 8
 5755              		@ frame_needed = 0, uses_anonymous_args = 0
 5756 2090 00B5     		push	{lr}
 5757              		.cfi_def_cfa_offset 4
 5758              		.cfi_offset 14, -4
 5759 2092 83B0     		sub	sp, sp, #12
 5760              		.cfi_def_cfa_offset 16
 5761 2094 0190     		str	r0, [sp, #4]
 5762 2096 0091     		str	r1, [sp]
 5763              		.loc 1 2011 0
 5764 2098 0198     		ldr	r0, [sp, #4]
 5765 209a 2721     		movs	r1, #39
 5766 209c 009A     		ldr	r2, [sp]
 5767 209e 0123     		movs	r3, #1
 5768 20a0 FFF7FEFF 		bl	LSM303AGR_ACC_ReadReg
 5769 20a4 0346     		mov	r3, r0
 5770 20a6 002B     		cmp	r3, #0
 5771 20a8 01D1     		bne	.L377
 5772              		.loc 1 2012 0
 5773 20aa 0023     		movs	r3, #0
 5774 20ac 07E0     		b	.L378
 5775              	.L377:
 5776              		.loc 1 2014 0
 5777 20ae 009B     		ldr	r3, [sp]
 5778 20b0 1B78     		ldrb	r3, [r3]	@ zero_extendqisi2
ARM GAS  /tmp/cc1ELVNa.s 			page 104


 5779 20b2 03F00203 		and	r3, r3, #2
 5780 20b6 DAB2     		uxtb	r2, r3
 5781 20b8 009B     		ldr	r3, [sp]
 5782 20ba 1A70     		strb	r2, [r3]
 5783              		.loc 1 2016 0
 5784 20bc 0123     		movs	r3, #1
 5785              	.L378:
 5786              		.loc 1 2017 0
 5787 20be 1846     		mov	r0, r3
 5788 20c0 03B0     		add	sp, sp, #12
 5789              		@ sp needed
 5790 20c2 5DF804FB 		ldr	pc, [sp], #4
 5791              		.cfi_endproc
 5792              	.LFE361:
 5793              		.size	LSM303AGR_ACC_R_YDataAvail, .-LSM303AGR_ACC_R_YDataAvail
 5794 20c6 00BF     		.align	2
 5795 20c8 AFF30080 		.p2align 4,,15
 5795      AFF30080 
 5796              		.global	LSM303AGR_ACC_R_ZDataAvail
 5797              		.thumb
 5798              		.thumb_func
 5799              		.type	LSM303AGR_ACC_R_ZDataAvail, %function
 5800              	LSM303AGR_ACC_R_ZDataAvail:
 5801              	.LFB362:
 5802              		.loc 1 2027 0
 5803              		.cfi_startproc
 5804              		@ args = 0, pretend = 0, frame = 8
 5805              		@ frame_needed = 0, uses_anonymous_args = 0
 5806 20d0 00B5     		push	{lr}
 5807              		.cfi_def_cfa_offset 4
 5808              		.cfi_offset 14, -4
 5809 20d2 83B0     		sub	sp, sp, #12
 5810              		.cfi_def_cfa_offset 16
 5811 20d4 0190     		str	r0, [sp, #4]
 5812 20d6 0091     		str	r1, [sp]
 5813              		.loc 1 2028 0
 5814 20d8 0198     		ldr	r0, [sp, #4]
 5815 20da 2721     		movs	r1, #39
 5816 20dc 009A     		ldr	r2, [sp]
 5817 20de 0123     		movs	r3, #1
 5818 20e0 FFF7FEFF 		bl	LSM303AGR_ACC_ReadReg
 5819 20e4 0346     		mov	r3, r0
 5820 20e6 002B     		cmp	r3, #0
 5821 20e8 01D1     		bne	.L380
 5822              		.loc 1 2029 0
 5823 20ea 0023     		movs	r3, #0
 5824 20ec 07E0     		b	.L381
 5825              	.L380:
 5826              		.loc 1 2031 0
 5827 20ee 009B     		ldr	r3, [sp]
 5828 20f0 1B78     		ldrb	r3, [r3]	@ zero_extendqisi2
 5829 20f2 03F00403 		and	r3, r3, #4
 5830 20f6 DAB2     		uxtb	r2, r3
 5831 20f8 009B     		ldr	r3, [sp]
 5832 20fa 1A70     		strb	r2, [r3]
 5833              		.loc 1 2033 0
 5834 20fc 0123     		movs	r3, #1
ARM GAS  /tmp/cc1ELVNa.s 			page 105


 5835              	.L381:
 5836              		.loc 1 2034 0
 5837 20fe 1846     		mov	r0, r3
 5838 2100 03B0     		add	sp, sp, #12
 5839              		@ sp needed
 5840 2102 5DF804FB 		ldr	pc, [sp], #4
 5841              		.cfi_endproc
 5842              	.LFE362:
 5843              		.size	LSM303AGR_ACC_R_ZDataAvail, .-LSM303AGR_ACC_R_ZDataAvail
 5844 2106 00BF     		.align	2
 5845 2108 AFF30080 		.p2align 4,,15
 5845      AFF30080 
 5846              		.global	LSM303AGR_ACC_R_XYZDataAvail
 5847              		.thumb
 5848              		.thumb_func
 5849              		.type	LSM303AGR_ACC_R_XYZDataAvail, %function
 5850              	LSM303AGR_ACC_R_XYZDataAvail:
 5851              	.LFB363:
 5852              		.loc 1 2044 0
 5853              		.cfi_startproc
 5854              		@ args = 0, pretend = 0, frame = 8
 5855              		@ frame_needed = 0, uses_anonymous_args = 0
 5856 2110 00B5     		push	{lr}
 5857              		.cfi_def_cfa_offset 4
 5858              		.cfi_offset 14, -4
 5859 2112 83B0     		sub	sp, sp, #12
 5860              		.cfi_def_cfa_offset 16
 5861 2114 0190     		str	r0, [sp, #4]
 5862 2116 0091     		str	r1, [sp]
 5863              		.loc 1 2045 0
 5864 2118 0198     		ldr	r0, [sp, #4]
 5865 211a 2721     		movs	r1, #39
 5866 211c 009A     		ldr	r2, [sp]
 5867 211e 0123     		movs	r3, #1
 5868 2120 FFF7FEFF 		bl	LSM303AGR_ACC_ReadReg
 5869 2124 0346     		mov	r3, r0
 5870 2126 002B     		cmp	r3, #0
 5871 2128 01D1     		bne	.L383
 5872              		.loc 1 2046 0
 5873 212a 0023     		movs	r3, #0
 5874 212c 07E0     		b	.L384
 5875              	.L383:
 5876              		.loc 1 2048 0
 5877 212e 009B     		ldr	r3, [sp]
 5878 2130 1B78     		ldrb	r3, [r3]	@ zero_extendqisi2
 5879 2132 03F00803 		and	r3, r3, #8
 5880 2136 DAB2     		uxtb	r2, r3
 5881 2138 009B     		ldr	r3, [sp]
 5882 213a 1A70     		strb	r2, [r3]
 5883              		.loc 1 2050 0
 5884 213c 0123     		movs	r3, #1
 5885              	.L384:
 5886              		.loc 1 2051 0
 5887 213e 1846     		mov	r0, r3
 5888 2140 03B0     		add	sp, sp, #12
 5889              		@ sp needed
 5890 2142 5DF804FB 		ldr	pc, [sp], #4
ARM GAS  /tmp/cc1ELVNa.s 			page 106


 5891              		.cfi_endproc
 5892              	.LFE363:
 5893              		.size	LSM303AGR_ACC_R_XYZDataAvail, .-LSM303AGR_ACC_R_XYZDataAvail
 5894 2146 00BF     		.align	2
 5895 2148 AFF30080 		.p2align 4,,15
 5895      AFF30080 
 5896              		.global	LSM303AGR_ACC_R_XDataOverrun
 5897              		.thumb
 5898              		.thumb_func
 5899              		.type	LSM303AGR_ACC_R_XDataOverrun, %function
 5900              	LSM303AGR_ACC_R_XDataOverrun:
 5901              	.LFB364:
 5902              		.loc 1 2061 0
 5903              		.cfi_startproc
 5904              		@ args = 0, pretend = 0, frame = 8
 5905              		@ frame_needed = 0, uses_anonymous_args = 0
 5906 2150 00B5     		push	{lr}
 5907              		.cfi_def_cfa_offset 4
 5908              		.cfi_offset 14, -4
 5909 2152 83B0     		sub	sp, sp, #12
 5910              		.cfi_def_cfa_offset 16
 5911 2154 0190     		str	r0, [sp, #4]
 5912 2156 0091     		str	r1, [sp]
 5913              		.loc 1 2062 0
 5914 2158 0198     		ldr	r0, [sp, #4]
 5915 215a 2721     		movs	r1, #39
 5916 215c 009A     		ldr	r2, [sp]
 5917 215e 0123     		movs	r3, #1
 5918 2160 FFF7FEFF 		bl	LSM303AGR_ACC_ReadReg
 5919 2164 0346     		mov	r3, r0
 5920 2166 002B     		cmp	r3, #0
 5921 2168 01D1     		bne	.L386
 5922              		.loc 1 2063 0
 5923 216a 0023     		movs	r3, #0
 5924 216c 07E0     		b	.L387
 5925              	.L386:
 5926              		.loc 1 2065 0
 5927 216e 009B     		ldr	r3, [sp]
 5928 2170 1B78     		ldrb	r3, [r3]	@ zero_extendqisi2
 5929 2172 03F01003 		and	r3, r3, #16
 5930 2176 DAB2     		uxtb	r2, r3
 5931 2178 009B     		ldr	r3, [sp]
 5932 217a 1A70     		strb	r2, [r3]
 5933              		.loc 1 2067 0
 5934 217c 0123     		movs	r3, #1
 5935              	.L387:
 5936              		.loc 1 2068 0
 5937 217e 1846     		mov	r0, r3
 5938 2180 03B0     		add	sp, sp, #12
 5939              		@ sp needed
 5940 2182 5DF804FB 		ldr	pc, [sp], #4
 5941              		.cfi_endproc
 5942              	.LFE364:
 5943              		.size	LSM303AGR_ACC_R_XDataOverrun, .-LSM303AGR_ACC_R_XDataOverrun
 5944 2186 00BF     		.align	2
 5945 2188 AFF30080 		.p2align 4,,15
 5945      AFF30080 
ARM GAS  /tmp/cc1ELVNa.s 			page 107


 5946              		.global	LSM303AGR_ACC_R_YDataOverrun
 5947              		.thumb
 5948              		.thumb_func
 5949              		.type	LSM303AGR_ACC_R_YDataOverrun, %function
 5950              	LSM303AGR_ACC_R_YDataOverrun:
 5951              	.LFB365:
 5952              		.loc 1 2078 0
 5953              		.cfi_startproc
 5954              		@ args = 0, pretend = 0, frame = 8
 5955              		@ frame_needed = 0, uses_anonymous_args = 0
 5956 2190 00B5     		push	{lr}
 5957              		.cfi_def_cfa_offset 4
 5958              		.cfi_offset 14, -4
 5959 2192 83B0     		sub	sp, sp, #12
 5960              		.cfi_def_cfa_offset 16
 5961 2194 0190     		str	r0, [sp, #4]
 5962 2196 0091     		str	r1, [sp]
 5963              		.loc 1 2079 0
 5964 2198 0198     		ldr	r0, [sp, #4]
 5965 219a 2721     		movs	r1, #39
 5966 219c 009A     		ldr	r2, [sp]
 5967 219e 0123     		movs	r3, #1
 5968 21a0 FFF7FEFF 		bl	LSM303AGR_ACC_ReadReg
 5969 21a4 0346     		mov	r3, r0
 5970 21a6 002B     		cmp	r3, #0
 5971 21a8 01D1     		bne	.L389
 5972              		.loc 1 2080 0
 5973 21aa 0023     		movs	r3, #0
 5974 21ac 07E0     		b	.L390
 5975              	.L389:
 5976              		.loc 1 2082 0
 5977 21ae 009B     		ldr	r3, [sp]
 5978 21b0 1B78     		ldrb	r3, [r3]	@ zero_extendqisi2
 5979 21b2 03F02003 		and	r3, r3, #32
 5980 21b6 DAB2     		uxtb	r2, r3
 5981 21b8 009B     		ldr	r3, [sp]
 5982 21ba 1A70     		strb	r2, [r3]
 5983              		.loc 1 2084 0
 5984 21bc 0123     		movs	r3, #1
 5985              	.L390:
 5986              		.loc 1 2085 0
 5987 21be 1846     		mov	r0, r3
 5988 21c0 03B0     		add	sp, sp, #12
 5989              		@ sp needed
 5990 21c2 5DF804FB 		ldr	pc, [sp], #4
 5991              		.cfi_endproc
 5992              	.LFE365:
 5993              		.size	LSM303AGR_ACC_R_YDataOverrun, .-LSM303AGR_ACC_R_YDataOverrun
 5994 21c6 00BF     		.align	2
 5995 21c8 AFF30080 		.p2align 4,,15
 5995      AFF30080 
 5996              		.global	LSM303AGR_ACC_R_ZDataOverrun
 5997              		.thumb
 5998              		.thumb_func
 5999              		.type	LSM303AGR_ACC_R_ZDataOverrun, %function
 6000              	LSM303AGR_ACC_R_ZDataOverrun:
 6001              	.LFB366:
ARM GAS  /tmp/cc1ELVNa.s 			page 108


 6002              		.loc 1 2095 0
 6003              		.cfi_startproc
 6004              		@ args = 0, pretend = 0, frame = 8
 6005              		@ frame_needed = 0, uses_anonymous_args = 0
 6006 21d0 00B5     		push	{lr}
 6007              		.cfi_def_cfa_offset 4
 6008              		.cfi_offset 14, -4
 6009 21d2 83B0     		sub	sp, sp, #12
 6010              		.cfi_def_cfa_offset 16
 6011 21d4 0190     		str	r0, [sp, #4]
 6012 21d6 0091     		str	r1, [sp]
 6013              		.loc 1 2096 0
 6014 21d8 0198     		ldr	r0, [sp, #4]
 6015 21da 2721     		movs	r1, #39
 6016 21dc 009A     		ldr	r2, [sp]
 6017 21de 0123     		movs	r3, #1
 6018 21e0 FFF7FEFF 		bl	LSM303AGR_ACC_ReadReg
 6019 21e4 0346     		mov	r3, r0
 6020 21e6 002B     		cmp	r3, #0
 6021 21e8 01D1     		bne	.L392
 6022              		.loc 1 2097 0
 6023 21ea 0023     		movs	r3, #0
 6024 21ec 07E0     		b	.L393
 6025              	.L392:
 6026              		.loc 1 2099 0
 6027 21ee 009B     		ldr	r3, [sp]
 6028 21f0 1B78     		ldrb	r3, [r3]	@ zero_extendqisi2
 6029 21f2 03F04003 		and	r3, r3, #64
 6030 21f6 DAB2     		uxtb	r2, r3
 6031 21f8 009B     		ldr	r3, [sp]
 6032 21fa 1A70     		strb	r2, [r3]
 6033              		.loc 1 2101 0
 6034 21fc 0123     		movs	r3, #1
 6035              	.L393:
 6036              		.loc 1 2102 0
 6037 21fe 1846     		mov	r0, r3
 6038 2200 03B0     		add	sp, sp, #12
 6039              		@ sp needed
 6040 2202 5DF804FB 		ldr	pc, [sp], #4
 6041              		.cfi_endproc
 6042              	.LFE366:
 6043              		.size	LSM303AGR_ACC_R_ZDataOverrun, .-LSM303AGR_ACC_R_ZDataOverrun
 6044 2206 00BF     		.align	2
 6045 2208 AFF30080 		.p2align 4,,15
 6045      AFF30080 
 6046              		.global	LSM303AGR_ACC_R_XYZDataOverrun
 6047              		.thumb
 6048              		.thumb_func
 6049              		.type	LSM303AGR_ACC_R_XYZDataOverrun, %function
 6050              	LSM303AGR_ACC_R_XYZDataOverrun:
 6051              	.LFB367:
 6052              		.loc 1 2112 0
 6053              		.cfi_startproc
 6054              		@ args = 0, pretend = 0, frame = 8
 6055              		@ frame_needed = 0, uses_anonymous_args = 0
 6056 2210 00B5     		push	{lr}
 6057              		.cfi_def_cfa_offset 4
ARM GAS  /tmp/cc1ELVNa.s 			page 109


 6058              		.cfi_offset 14, -4
 6059 2212 83B0     		sub	sp, sp, #12
 6060              		.cfi_def_cfa_offset 16
 6061 2214 0190     		str	r0, [sp, #4]
 6062 2216 0091     		str	r1, [sp]
 6063              		.loc 1 2113 0
 6064 2218 0198     		ldr	r0, [sp, #4]
 6065 221a 2721     		movs	r1, #39
 6066 221c 009A     		ldr	r2, [sp]
 6067 221e 0123     		movs	r3, #1
 6068 2220 FFF7FEFF 		bl	LSM303AGR_ACC_ReadReg
 6069 2224 0346     		mov	r3, r0
 6070 2226 002B     		cmp	r3, #0
 6071 2228 01D1     		bne	.L395
 6072              		.loc 1 2114 0
 6073 222a 0023     		movs	r3, #0
 6074 222c 07E0     		b	.L396
 6075              	.L395:
 6076              		.loc 1 2116 0
 6077 222e 009B     		ldr	r3, [sp]
 6078 2230 1B78     		ldrb	r3, [r3]	@ zero_extendqisi2
 6079 2232 23F07F03 		bic	r3, r3, #127
 6080 2236 DAB2     		uxtb	r2, r3
 6081 2238 009B     		ldr	r3, [sp]
 6082 223a 1A70     		strb	r2, [r3]
 6083              		.loc 1 2118 0
 6084 223c 0123     		movs	r3, #1
 6085              	.L396:
 6086              		.loc 1 2119 0
 6087 223e 1846     		mov	r0, r3
 6088 2240 03B0     		add	sp, sp, #12
 6089              		@ sp needed
 6090 2242 5DF804FB 		ldr	pc, [sp], #4
 6091              		.cfi_endproc
 6092              	.LFE367:
 6093              		.size	LSM303AGR_ACC_R_XYZDataOverrun, .-LSM303AGR_ACC_R_XYZDataOverrun
 6094 2246 00BF     		.align	2
 6095 2248 AFF30080 		.p2align 4,,15
 6095      AFF30080 
 6096              		.global	LSM303AGR_ACC_W_FifoThreshold
 6097              		.thumb
 6098              		.thumb_func
 6099              		.type	LSM303AGR_ACC_W_FifoThreshold, %function
 6100              	LSM303AGR_ACC_W_FifoThreshold:
 6101              	.LFB368:
 6102              		.loc 1 2129 0
 6103              		.cfi_startproc
 6104              		@ args = 0, pretend = 0, frame = 16
 6105              		@ frame_needed = 0, uses_anonymous_args = 0
 6106 2250 00B5     		push	{lr}
 6107              		.cfi_def_cfa_offset 4
 6108              		.cfi_offset 14, -4
 6109 2252 85B0     		sub	sp, sp, #20
 6110              		.cfi_def_cfa_offset 24
 6111 2254 0190     		str	r0, [sp, #4]
 6112 2256 0B46     		mov	r3, r1
 6113 2258 8DF80330 		strb	r3, [sp, #3]
ARM GAS  /tmp/cc1ELVNa.s 			page 110


 6114              		.loc 1 2133 0
 6115 225c 9DF80330 		ldrb	r3, [sp, #3]
 6116 2260 03F01F03 		and	r3, r3, #31
 6117 2264 8DF80330 		strb	r3, [sp, #3]
 6118              		.loc 1 2135 0
 6119 2268 0DF10F03 		add	r3, sp, #15
 6120 226c 0198     		ldr	r0, [sp, #4]
 6121 226e 2E21     		movs	r1, #46
 6122 2270 1A46     		mov	r2, r3
 6123 2272 0123     		movs	r3, #1
 6124 2274 FFF7FEFF 		bl	LSM303AGR_ACC_ReadReg
 6125 2278 0346     		mov	r3, r0
 6126 227a 002B     		cmp	r3, #0
 6127 227c 01D1     		bne	.L398
 6128              		.loc 1 2136 0
 6129 227e 0023     		movs	r3, #0
 6130 2280 1CE0     		b	.L401
 6131              	.L398:
 6132              		.loc 1 2138 0
 6133 2282 9DF80F30 		ldrb	r3, [sp, #15]	@ zero_extendqisi2
 6134 2286 23F01F03 		bic	r3, r3, #31
 6135 228a DBB2     		uxtb	r3, r3
 6136 228c 8DF80F30 		strb	r3, [sp, #15]
 6137              		.loc 1 2139 0
 6138 2290 9DF80F20 		ldrb	r2, [sp, #15]	@ zero_extendqisi2
 6139 2294 9DF80330 		ldrb	r3, [sp, #3]
 6140 2298 1343     		orrs	r3, r3, r2
 6141 229a DBB2     		uxtb	r3, r3
 6142 229c 8DF80F30 		strb	r3, [sp, #15]
 6143              		.loc 1 2141 0
 6144 22a0 0DF10F03 		add	r3, sp, #15
 6145 22a4 0198     		ldr	r0, [sp, #4]
 6146 22a6 2E21     		movs	r1, #46
 6147 22a8 1A46     		mov	r2, r3
 6148 22aa 0123     		movs	r3, #1
 6149 22ac FFF7FEFF 		bl	LSM303AGR_ACC_WriteReg
 6150 22b0 0346     		mov	r3, r0
 6151 22b2 002B     		cmp	r3, #0
 6152 22b4 01D1     		bne	.L400
 6153              		.loc 1 2142 0
 6154 22b6 0023     		movs	r3, #0
 6155 22b8 00E0     		b	.L401
 6156              	.L400:
 6157              		.loc 1 2144 0
 6158 22ba 0123     		movs	r3, #1
 6159              	.L401:
 6160              		.loc 1 2145 0
 6161 22bc 1846     		mov	r0, r3
 6162 22be 05B0     		add	sp, sp, #20
 6163              		@ sp needed
 6164 22c0 5DF804FB 		ldr	pc, [sp], #4
 6165              		.cfi_endproc
 6166              	.LFE368:
 6167              		.size	LSM303AGR_ACC_W_FifoThreshold, .-LSM303AGR_ACC_W_FifoThreshold
 6168              		.align	2
 6169 22c4 AFF30080 		.p2align 4,,15
 6169      AFF30080 
ARM GAS  /tmp/cc1ELVNa.s 			page 111


 6169      AFF30080 
 6170              		.global	LSM303AGR_ACC_R_FifoThreshold
 6171              		.thumb
 6172              		.thumb_func
 6173              		.type	LSM303AGR_ACC_R_FifoThreshold, %function
 6174              	LSM303AGR_ACC_R_FifoThreshold:
 6175              	.LFB369:
 6176              		.loc 1 2155 0
 6177              		.cfi_startproc
 6178              		@ args = 0, pretend = 0, frame = 8
 6179              		@ frame_needed = 0, uses_anonymous_args = 0
 6180 22d0 00B5     		push	{lr}
 6181              		.cfi_def_cfa_offset 4
 6182              		.cfi_offset 14, -4
 6183 22d2 83B0     		sub	sp, sp, #12
 6184              		.cfi_def_cfa_offset 16
 6185 22d4 0190     		str	r0, [sp, #4]
 6186 22d6 0091     		str	r1, [sp]
 6187              		.loc 1 2156 0
 6188 22d8 0198     		ldr	r0, [sp, #4]
 6189 22da 2E21     		movs	r1, #46
 6190 22dc 009A     		ldr	r2, [sp]
 6191 22de 0123     		movs	r3, #1
 6192 22e0 FFF7FEFF 		bl	LSM303AGR_ACC_ReadReg
 6193 22e4 0346     		mov	r3, r0
 6194 22e6 002B     		cmp	r3, #0
 6195 22e8 01D1     		bne	.L403
 6196              		.loc 1 2157 0
 6197 22ea 0023     		movs	r3, #0
 6198 22ec 0BE0     		b	.L404
 6199              	.L403:
 6200              		.loc 1 2159 0
 6201 22ee 009B     		ldr	r3, [sp]
 6202 22f0 1B78     		ldrb	r3, [r3]	@ zero_extendqisi2
 6203 22f2 03F01F03 		and	r3, r3, #31
 6204 22f6 DAB2     		uxtb	r2, r3
 6205 22f8 009B     		ldr	r3, [sp]
 6206 22fa 1A70     		strb	r2, [r3]
 6207              		.loc 1 2160 0
 6208 22fc 009B     		ldr	r3, [sp]
 6209 22fe 1A78     		ldrb	r2, [r3]	@ zero_extendqisi2
 6210 2300 009B     		ldr	r3, [sp]
 6211 2302 1A70     		strb	r2, [r3]
 6212              		.loc 1 2162 0
 6213 2304 0123     		movs	r3, #1
 6214              	.L404:
 6215              		.loc 1 2163 0
 6216 2306 1846     		mov	r0, r3
 6217 2308 03B0     		add	sp, sp, #12
 6218              		@ sp needed
 6219 230a 5DF804FB 		ldr	pc, [sp], #4
 6220              		.cfi_endproc
 6221              	.LFE369:
 6222              		.size	LSM303AGR_ACC_R_FifoThreshold, .-LSM303AGR_ACC_R_FifoThreshold
 6223 230e 00BF     		.align	2
 6224              		.p2align 4,,15
 6225              		.global	LSM303AGR_ACC_W_TriggerSel
ARM GAS  /tmp/cc1ELVNa.s 			page 112


 6226              		.thumb
 6227              		.thumb_func
 6228              		.type	LSM303AGR_ACC_W_TriggerSel, %function
 6229              	LSM303AGR_ACC_W_TriggerSel:
 6230              	.LFB370:
 6231              		.loc 1 2173 0
 6232              		.cfi_startproc
 6233              		@ args = 0, pretend = 0, frame = 16
 6234              		@ frame_needed = 0, uses_anonymous_args = 0
 6235 2310 00B5     		push	{lr}
 6236              		.cfi_def_cfa_offset 4
 6237              		.cfi_offset 14, -4
 6238 2312 85B0     		sub	sp, sp, #20
 6239              		.cfi_def_cfa_offset 24
 6240 2314 0190     		str	r0, [sp, #4]
 6241 2316 0B46     		mov	r3, r1
 6242 2318 8DF80330 		strb	r3, [sp, #3]
 6243              		.loc 1 2176 0
 6244 231c 0DF10F03 		add	r3, sp, #15
 6245 2320 0198     		ldr	r0, [sp, #4]
 6246 2322 2E21     		movs	r1, #46
 6247 2324 1A46     		mov	r2, r3
 6248 2326 0123     		movs	r3, #1
 6249 2328 FFF7FEFF 		bl	LSM303AGR_ACC_ReadReg
 6250 232c 0346     		mov	r3, r0
 6251 232e 002B     		cmp	r3, #0
 6252 2330 01D1     		bne	.L406
 6253              		.loc 1 2177 0
 6254 2332 0023     		movs	r3, #0
 6255 2334 1CE0     		b	.L409
 6256              	.L406:
 6257              		.loc 1 2179 0
 6258 2336 9DF80F30 		ldrb	r3, [sp, #15]	@ zero_extendqisi2
 6259 233a 23F02003 		bic	r3, r3, #32
 6260 233e DBB2     		uxtb	r3, r3
 6261 2340 8DF80F30 		strb	r3, [sp, #15]
 6262              		.loc 1 2180 0
 6263 2344 9DF80F20 		ldrb	r2, [sp, #15]	@ zero_extendqisi2
 6264 2348 9DF80330 		ldrb	r3, [sp, #3]
 6265 234c 1343     		orrs	r3, r3, r2
 6266 234e DBB2     		uxtb	r3, r3
 6267 2350 8DF80F30 		strb	r3, [sp, #15]
 6268              		.loc 1 2182 0
 6269 2354 0DF10F03 		add	r3, sp, #15
 6270 2358 0198     		ldr	r0, [sp, #4]
 6271 235a 2E21     		movs	r1, #46
 6272 235c 1A46     		mov	r2, r3
 6273 235e 0123     		movs	r3, #1
 6274 2360 FFF7FEFF 		bl	LSM303AGR_ACC_WriteReg
 6275 2364 0346     		mov	r3, r0
 6276 2366 002B     		cmp	r3, #0
 6277 2368 01D1     		bne	.L408
 6278              		.loc 1 2183 0
 6279 236a 0023     		movs	r3, #0
 6280 236c 00E0     		b	.L409
 6281              	.L408:
 6282              		.loc 1 2185 0
ARM GAS  /tmp/cc1ELVNa.s 			page 113


 6283 236e 0123     		movs	r3, #1
 6284              	.L409:
 6285              		.loc 1 2186 0
 6286 2370 1846     		mov	r0, r3
 6287 2372 05B0     		add	sp, sp, #20
 6288              		@ sp needed
 6289 2374 5DF804FB 		ldr	pc, [sp], #4
 6290              		.cfi_endproc
 6291              	.LFE370:
 6292              		.size	LSM303AGR_ACC_W_TriggerSel, .-LSM303AGR_ACC_W_TriggerSel
 6293              		.align	2
 6294 2378 AFF30080 		.p2align 4,,15
 6294      AFF30080 
 6295              		.global	LSM303AGR_ACC_R_TriggerSel
 6296              		.thumb
 6297              		.thumb_func
 6298              		.type	LSM303AGR_ACC_R_TriggerSel, %function
 6299              	LSM303AGR_ACC_R_TriggerSel:
 6300              	.LFB371:
 6301              		.loc 1 2196 0
 6302              		.cfi_startproc
 6303              		@ args = 0, pretend = 0, frame = 8
 6304              		@ frame_needed = 0, uses_anonymous_args = 0
 6305 2380 00B5     		push	{lr}
 6306              		.cfi_def_cfa_offset 4
 6307              		.cfi_offset 14, -4
 6308 2382 83B0     		sub	sp, sp, #12
 6309              		.cfi_def_cfa_offset 16
 6310 2384 0190     		str	r0, [sp, #4]
 6311 2386 0091     		str	r1, [sp]
 6312              		.loc 1 2197 0
 6313 2388 0198     		ldr	r0, [sp, #4]
 6314 238a 2E21     		movs	r1, #46
 6315 238c 009A     		ldr	r2, [sp]
 6316 238e 0123     		movs	r3, #1
 6317 2390 FFF7FEFF 		bl	LSM303AGR_ACC_ReadReg
 6318 2394 0346     		mov	r3, r0
 6319 2396 002B     		cmp	r3, #0
 6320 2398 01D1     		bne	.L411
 6321              		.loc 1 2198 0
 6322 239a 0023     		movs	r3, #0
 6323 239c 07E0     		b	.L412
 6324              	.L411:
 6325              		.loc 1 2200 0
 6326 239e 009B     		ldr	r3, [sp]
 6327 23a0 1B78     		ldrb	r3, [r3]	@ zero_extendqisi2
 6328 23a2 03F02003 		and	r3, r3, #32
 6329 23a6 DAB2     		uxtb	r2, r3
 6330 23a8 009B     		ldr	r3, [sp]
 6331 23aa 1A70     		strb	r2, [r3]
 6332              		.loc 1 2202 0
 6333 23ac 0123     		movs	r3, #1
 6334              	.L412:
 6335              		.loc 1 2203 0
 6336 23ae 1846     		mov	r0, r3
 6337 23b0 03B0     		add	sp, sp, #12
 6338              		@ sp needed
ARM GAS  /tmp/cc1ELVNa.s 			page 114


 6339 23b2 5DF804FB 		ldr	pc, [sp], #4
 6340              		.cfi_endproc
 6341              	.LFE371:
 6342              		.size	LSM303AGR_ACC_R_TriggerSel, .-LSM303AGR_ACC_R_TriggerSel
 6343 23b6 00BF     		.align	2
 6344 23b8 AFF30080 		.p2align 4,,15
 6344      AFF30080 
 6345              		.global	LSM303AGR_ACC_W_FifoMode
 6346              		.thumb
 6347              		.thumb_func
 6348              		.type	LSM303AGR_ACC_W_FifoMode, %function
 6349              	LSM303AGR_ACC_W_FifoMode:
 6350              	.LFB372:
 6351              		.loc 1 2213 0
 6352              		.cfi_startproc
 6353              		@ args = 0, pretend = 0, frame = 16
 6354              		@ frame_needed = 0, uses_anonymous_args = 0
 6355 23c0 00B5     		push	{lr}
 6356              		.cfi_def_cfa_offset 4
 6357              		.cfi_offset 14, -4
 6358 23c2 85B0     		sub	sp, sp, #20
 6359              		.cfi_def_cfa_offset 24
 6360 23c4 0190     		str	r0, [sp, #4]
 6361 23c6 0B46     		mov	r3, r1
 6362 23c8 8DF80330 		strb	r3, [sp, #3]
 6363              		.loc 1 2216 0
 6364 23cc 0DF10F03 		add	r3, sp, #15
 6365 23d0 0198     		ldr	r0, [sp, #4]
 6366 23d2 2E21     		movs	r1, #46
 6367 23d4 1A46     		mov	r2, r3
 6368 23d6 0123     		movs	r3, #1
 6369 23d8 FFF7FEFF 		bl	LSM303AGR_ACC_ReadReg
 6370 23dc 0346     		mov	r3, r0
 6371 23de 002B     		cmp	r3, #0
 6372 23e0 01D1     		bne	.L414
 6373              		.loc 1 2217 0
 6374 23e2 0023     		movs	r3, #0
 6375 23e4 1CE0     		b	.L417
 6376              	.L414:
 6377              		.loc 1 2219 0
 6378 23e6 9DF80F30 		ldrb	r3, [sp, #15]	@ zero_extendqisi2
 6379 23ea 03F03F03 		and	r3, r3, #63
 6380 23ee DBB2     		uxtb	r3, r3
 6381 23f0 8DF80F30 		strb	r3, [sp, #15]
 6382              		.loc 1 2220 0
 6383 23f4 9DF80F20 		ldrb	r2, [sp, #15]	@ zero_extendqisi2
 6384 23f8 9DF80330 		ldrb	r3, [sp, #3]
 6385 23fc 1343     		orrs	r3, r3, r2
 6386 23fe DBB2     		uxtb	r3, r3
 6387 2400 8DF80F30 		strb	r3, [sp, #15]
 6388              		.loc 1 2222 0
 6389 2404 0DF10F03 		add	r3, sp, #15
 6390 2408 0198     		ldr	r0, [sp, #4]
 6391 240a 2E21     		movs	r1, #46
 6392 240c 1A46     		mov	r2, r3
 6393 240e 0123     		movs	r3, #1
 6394 2410 FFF7FEFF 		bl	LSM303AGR_ACC_WriteReg
ARM GAS  /tmp/cc1ELVNa.s 			page 115


 6395 2414 0346     		mov	r3, r0
 6396 2416 002B     		cmp	r3, #0
 6397 2418 01D1     		bne	.L416
 6398              		.loc 1 2223 0
 6399 241a 0023     		movs	r3, #0
 6400 241c 00E0     		b	.L417
 6401              	.L416:
 6402              		.loc 1 2225 0
 6403 241e 0123     		movs	r3, #1
 6404              	.L417:
 6405              		.loc 1 2226 0
 6406 2420 1846     		mov	r0, r3
 6407 2422 05B0     		add	sp, sp, #20
 6408              		@ sp needed
 6409 2424 5DF804FB 		ldr	pc, [sp], #4
 6410              		.cfi_endproc
 6411              	.LFE372:
 6412              		.size	LSM303AGR_ACC_W_FifoMode, .-LSM303AGR_ACC_W_FifoMode
 6413              		.align	2
 6414 2428 AFF30080 		.p2align 4,,15
 6414      AFF30080 
 6415              		.global	LSM303AGR_ACC_R_FifoMode
 6416              		.thumb
 6417              		.thumb_func
 6418              		.type	LSM303AGR_ACC_R_FifoMode, %function
 6419              	LSM303AGR_ACC_R_FifoMode:
 6420              	.LFB373:
 6421              		.loc 1 2236 0
 6422              		.cfi_startproc
 6423              		@ args = 0, pretend = 0, frame = 8
 6424              		@ frame_needed = 0, uses_anonymous_args = 0
 6425 2430 00B5     		push	{lr}
 6426              		.cfi_def_cfa_offset 4
 6427              		.cfi_offset 14, -4
 6428 2432 83B0     		sub	sp, sp, #12
 6429              		.cfi_def_cfa_offset 16
 6430 2434 0190     		str	r0, [sp, #4]
 6431 2436 0091     		str	r1, [sp]
 6432              		.loc 1 2237 0
 6433 2438 0198     		ldr	r0, [sp, #4]
 6434 243a 2E21     		movs	r1, #46
 6435 243c 009A     		ldr	r2, [sp]
 6436 243e 0123     		movs	r3, #1
 6437 2440 FFF7FEFF 		bl	LSM303AGR_ACC_ReadReg
 6438 2444 0346     		mov	r3, r0
 6439 2446 002B     		cmp	r3, #0
 6440 2448 01D1     		bne	.L419
 6441              		.loc 1 2238 0
 6442 244a 0023     		movs	r3, #0
 6443 244c 07E0     		b	.L420
 6444              	.L419:
 6445              		.loc 1 2240 0
 6446 244e 009B     		ldr	r3, [sp]
 6447 2450 1B78     		ldrb	r3, [r3]	@ zero_extendqisi2
 6448 2452 23F03F03 		bic	r3, r3, #63
 6449 2456 DAB2     		uxtb	r2, r3
 6450 2458 009B     		ldr	r3, [sp]
ARM GAS  /tmp/cc1ELVNa.s 			page 116


 6451 245a 1A70     		strb	r2, [r3]
 6452              		.loc 1 2242 0
 6453 245c 0123     		movs	r3, #1
 6454              	.L420:
 6455              		.loc 1 2243 0
 6456 245e 1846     		mov	r0, r3
 6457 2460 03B0     		add	sp, sp, #12
 6458              		@ sp needed
 6459 2462 5DF804FB 		ldr	pc, [sp], #4
 6460              		.cfi_endproc
 6461              	.LFE373:
 6462              		.size	LSM303AGR_ACC_R_FifoMode, .-LSM303AGR_ACC_R_FifoMode
 6463 2466 00BF     		.align	2
 6464 2468 AFF30080 		.p2align 4,,15
 6464      AFF30080 
 6465              		.global	LSM303AGR_ACC_R_FifoSamplesAvail
 6466              		.thumb
 6467              		.thumb_func
 6468              		.type	LSM303AGR_ACC_R_FifoSamplesAvail, %function
 6469              	LSM303AGR_ACC_R_FifoSamplesAvail:
 6470              	.LFB374:
 6471              		.loc 1 2253 0
 6472              		.cfi_startproc
 6473              		@ args = 0, pretend = 0, frame = 8
 6474              		@ frame_needed = 0, uses_anonymous_args = 0
 6475 2470 00B5     		push	{lr}
 6476              		.cfi_def_cfa_offset 4
 6477              		.cfi_offset 14, -4
 6478 2472 83B0     		sub	sp, sp, #12
 6479              		.cfi_def_cfa_offset 16
 6480 2474 0190     		str	r0, [sp, #4]
 6481 2476 0091     		str	r1, [sp]
 6482              		.loc 1 2254 0
 6483 2478 0198     		ldr	r0, [sp, #4]
 6484 247a 2F21     		movs	r1, #47
 6485 247c 009A     		ldr	r2, [sp]
 6486 247e 0123     		movs	r3, #1
 6487 2480 FFF7FEFF 		bl	LSM303AGR_ACC_ReadReg
 6488 2484 0346     		mov	r3, r0
 6489 2486 002B     		cmp	r3, #0
 6490 2488 01D1     		bne	.L422
 6491              		.loc 1 2255 0
 6492 248a 0023     		movs	r3, #0
 6493 248c 0BE0     		b	.L423
 6494              	.L422:
 6495              		.loc 1 2257 0
 6496 248e 009B     		ldr	r3, [sp]
 6497 2490 1B78     		ldrb	r3, [r3]	@ zero_extendqisi2
 6498 2492 03F01F03 		and	r3, r3, #31
 6499 2496 DAB2     		uxtb	r2, r3
 6500 2498 009B     		ldr	r3, [sp]
 6501 249a 1A70     		strb	r2, [r3]
 6502              		.loc 1 2258 0
 6503 249c 009B     		ldr	r3, [sp]
 6504 249e 1A78     		ldrb	r2, [r3]	@ zero_extendqisi2
 6505 24a0 009B     		ldr	r3, [sp]
 6506 24a2 1A70     		strb	r2, [r3]
ARM GAS  /tmp/cc1ELVNa.s 			page 117


 6507              		.loc 1 2260 0
 6508 24a4 0123     		movs	r3, #1
 6509              	.L423:
 6510              		.loc 1 2261 0
 6511 24a6 1846     		mov	r0, r3
 6512 24a8 03B0     		add	sp, sp, #12
 6513              		@ sp needed
 6514 24aa 5DF804FB 		ldr	pc, [sp], #4
 6515              		.cfi_endproc
 6516              	.LFE374:
 6517              		.size	LSM303AGR_ACC_R_FifoSamplesAvail, .-LSM303AGR_ACC_R_FifoSamplesAvail
 6518 24ae 00BF     		.align	2
 6519              		.p2align 4,,15
 6520              		.global	LSM303AGR_ACC_R_FifoEmpty
 6521              		.thumb
 6522              		.thumb_func
 6523              		.type	LSM303AGR_ACC_R_FifoEmpty, %function
 6524              	LSM303AGR_ACC_R_FifoEmpty:
 6525              	.LFB375:
 6526              		.loc 1 2271 0
 6527              		.cfi_startproc
 6528              		@ args = 0, pretend = 0, frame = 8
 6529              		@ frame_needed = 0, uses_anonymous_args = 0
 6530 24b0 00B5     		push	{lr}
 6531              		.cfi_def_cfa_offset 4
 6532              		.cfi_offset 14, -4
 6533 24b2 83B0     		sub	sp, sp, #12
 6534              		.cfi_def_cfa_offset 16
 6535 24b4 0190     		str	r0, [sp, #4]
 6536 24b6 0091     		str	r1, [sp]
 6537              		.loc 1 2272 0
 6538 24b8 0198     		ldr	r0, [sp, #4]
 6539 24ba 2F21     		movs	r1, #47
 6540 24bc 009A     		ldr	r2, [sp]
 6541 24be 0123     		movs	r3, #1
 6542 24c0 FFF7FEFF 		bl	LSM303AGR_ACC_ReadReg
 6543 24c4 0346     		mov	r3, r0
 6544 24c6 002B     		cmp	r3, #0
 6545 24c8 01D1     		bne	.L425
 6546              		.loc 1 2273 0
 6547 24ca 0023     		movs	r3, #0
 6548 24cc 07E0     		b	.L426
 6549              	.L425:
 6550              		.loc 1 2275 0
 6551 24ce 009B     		ldr	r3, [sp]
 6552 24d0 1B78     		ldrb	r3, [r3]	@ zero_extendqisi2
 6553 24d2 03F02003 		and	r3, r3, #32
 6554 24d6 DAB2     		uxtb	r2, r3
 6555 24d8 009B     		ldr	r3, [sp]
 6556 24da 1A70     		strb	r2, [r3]
 6557              		.loc 1 2277 0
 6558 24dc 0123     		movs	r3, #1
 6559              	.L426:
 6560              		.loc 1 2278 0
 6561 24de 1846     		mov	r0, r3
 6562 24e0 03B0     		add	sp, sp, #12
 6563              		@ sp needed
ARM GAS  /tmp/cc1ELVNa.s 			page 118


 6564 24e2 5DF804FB 		ldr	pc, [sp], #4
 6565              		.cfi_endproc
 6566              	.LFE375:
 6567              		.size	LSM303AGR_ACC_R_FifoEmpty, .-LSM303AGR_ACC_R_FifoEmpty
 6568 24e6 00BF     		.align	2
 6569 24e8 AFF30080 		.p2align 4,,15
 6569      AFF30080 
 6570              		.global	LSM303AGR_ACC_R_FifoOverrun
 6571              		.thumb
 6572              		.thumb_func
 6573              		.type	LSM303AGR_ACC_R_FifoOverrun, %function
 6574              	LSM303AGR_ACC_R_FifoOverrun:
 6575              	.LFB376:
 6576              		.loc 1 2288 0
 6577              		.cfi_startproc
 6578              		@ args = 0, pretend = 0, frame = 8
 6579              		@ frame_needed = 0, uses_anonymous_args = 0
 6580 24f0 00B5     		push	{lr}
 6581              		.cfi_def_cfa_offset 4
 6582              		.cfi_offset 14, -4
 6583 24f2 83B0     		sub	sp, sp, #12
 6584              		.cfi_def_cfa_offset 16
 6585 24f4 0190     		str	r0, [sp, #4]
 6586 24f6 0091     		str	r1, [sp]
 6587              		.loc 1 2289 0
 6588 24f8 0198     		ldr	r0, [sp, #4]
 6589 24fa 2F21     		movs	r1, #47
 6590 24fc 009A     		ldr	r2, [sp]
 6591 24fe 0123     		movs	r3, #1
 6592 2500 FFF7FEFF 		bl	LSM303AGR_ACC_ReadReg
 6593 2504 0346     		mov	r3, r0
 6594 2506 002B     		cmp	r3, #0
 6595 2508 01D1     		bne	.L428
 6596              		.loc 1 2290 0
 6597 250a 0023     		movs	r3, #0
 6598 250c 07E0     		b	.L429
 6599              	.L428:
 6600              		.loc 1 2292 0
 6601 250e 009B     		ldr	r3, [sp]
 6602 2510 1B78     		ldrb	r3, [r3]	@ zero_extendqisi2
 6603 2512 03F04003 		and	r3, r3, #64
 6604 2516 DAB2     		uxtb	r2, r3
 6605 2518 009B     		ldr	r3, [sp]
 6606 251a 1A70     		strb	r2, [r3]
 6607              		.loc 1 2294 0
 6608 251c 0123     		movs	r3, #1
 6609              	.L429:
 6610              		.loc 1 2295 0
 6611 251e 1846     		mov	r0, r3
 6612 2520 03B0     		add	sp, sp, #12
 6613              		@ sp needed
 6614 2522 5DF804FB 		ldr	pc, [sp], #4
 6615              		.cfi_endproc
 6616              	.LFE376:
 6617              		.size	LSM303AGR_ACC_R_FifoOverrun, .-LSM303AGR_ACC_R_FifoOverrun
 6618 2526 00BF     		.align	2
 6619 2528 AFF30080 		.p2align 4,,15
ARM GAS  /tmp/cc1ELVNa.s 			page 119


 6619      AFF30080 
 6620              		.global	LSM303AGR_ACC_R_WatermarkLevel
 6621              		.thumb
 6622              		.thumb_func
 6623              		.type	LSM303AGR_ACC_R_WatermarkLevel, %function
 6624              	LSM303AGR_ACC_R_WatermarkLevel:
 6625              	.LFB377:
 6626              		.loc 1 2305 0
 6627              		.cfi_startproc
 6628              		@ args = 0, pretend = 0, frame = 8
 6629              		@ frame_needed = 0, uses_anonymous_args = 0
 6630 2530 00B5     		push	{lr}
 6631              		.cfi_def_cfa_offset 4
 6632              		.cfi_offset 14, -4
 6633 2532 83B0     		sub	sp, sp, #12
 6634              		.cfi_def_cfa_offset 16
 6635 2534 0190     		str	r0, [sp, #4]
 6636 2536 0091     		str	r1, [sp]
 6637              		.loc 1 2306 0
 6638 2538 0198     		ldr	r0, [sp, #4]
 6639 253a 2F21     		movs	r1, #47
 6640 253c 009A     		ldr	r2, [sp]
 6641 253e 0123     		movs	r3, #1
 6642 2540 FFF7FEFF 		bl	LSM303AGR_ACC_ReadReg
 6643 2544 0346     		mov	r3, r0
 6644 2546 002B     		cmp	r3, #0
 6645 2548 01D1     		bne	.L431
 6646              		.loc 1 2307 0
 6647 254a 0023     		movs	r3, #0
 6648 254c 07E0     		b	.L432
 6649              	.L431:
 6650              		.loc 1 2309 0
 6651 254e 009B     		ldr	r3, [sp]
 6652 2550 1B78     		ldrb	r3, [r3]	@ zero_extendqisi2
 6653 2552 23F07F03 		bic	r3, r3, #127
 6654 2556 DAB2     		uxtb	r2, r3
 6655 2558 009B     		ldr	r3, [sp]
 6656 255a 1A70     		strb	r2, [r3]
 6657              		.loc 1 2311 0
 6658 255c 0123     		movs	r3, #1
 6659              	.L432:
 6660              		.loc 1 2312 0
 6661 255e 1846     		mov	r0, r3
 6662 2560 03B0     		add	sp, sp, #12
 6663              		@ sp needed
 6664 2562 5DF804FB 		ldr	pc, [sp], #4
 6665              		.cfi_endproc
 6666              	.LFE377:
 6667              		.size	LSM303AGR_ACC_R_WatermarkLevel, .-LSM303AGR_ACC_R_WatermarkLevel
 6668 2566 00BF     		.align	2
 6669 2568 AFF30080 		.p2align 4,,15
 6669      AFF30080 
 6670              		.global	LSM303AGR_ACC_W_Int1EnXLo
 6671              		.thumb
 6672              		.thumb_func
 6673              		.type	LSM303AGR_ACC_W_Int1EnXLo, %function
 6674              	LSM303AGR_ACC_W_Int1EnXLo:
ARM GAS  /tmp/cc1ELVNa.s 			page 120


 6675              	.LFB378:
 6676              		.loc 1 2322 0
 6677              		.cfi_startproc
 6678              		@ args = 0, pretend = 0, frame = 16
 6679              		@ frame_needed = 0, uses_anonymous_args = 0
 6680 2570 00B5     		push	{lr}
 6681              		.cfi_def_cfa_offset 4
 6682              		.cfi_offset 14, -4
 6683 2572 85B0     		sub	sp, sp, #20
 6684              		.cfi_def_cfa_offset 24
 6685 2574 0190     		str	r0, [sp, #4]
 6686 2576 0B46     		mov	r3, r1
 6687 2578 8DF80330 		strb	r3, [sp, #3]
 6688              		.loc 1 2325 0
 6689 257c 0DF10F03 		add	r3, sp, #15
 6690 2580 0198     		ldr	r0, [sp, #4]
 6691 2582 3021     		movs	r1, #48
 6692 2584 1A46     		mov	r2, r3
 6693 2586 0123     		movs	r3, #1
 6694 2588 FFF7FEFF 		bl	LSM303AGR_ACC_ReadReg
 6695 258c 0346     		mov	r3, r0
 6696 258e 002B     		cmp	r3, #0
 6697 2590 01D1     		bne	.L434
 6698              		.loc 1 2326 0
 6699 2592 0023     		movs	r3, #0
 6700 2594 1CE0     		b	.L437
 6701              	.L434:
 6702              		.loc 1 2328 0
 6703 2596 9DF80F30 		ldrb	r3, [sp, #15]	@ zero_extendqisi2
 6704 259a 23F00103 		bic	r3, r3, #1
 6705 259e DBB2     		uxtb	r3, r3
 6706 25a0 8DF80F30 		strb	r3, [sp, #15]
 6707              		.loc 1 2329 0
 6708 25a4 9DF80F20 		ldrb	r2, [sp, #15]	@ zero_extendqisi2
 6709 25a8 9DF80330 		ldrb	r3, [sp, #3]
 6710 25ac 1343     		orrs	r3, r3, r2
 6711 25ae DBB2     		uxtb	r3, r3
 6712 25b0 8DF80F30 		strb	r3, [sp, #15]
 6713              		.loc 1 2331 0
 6714 25b4 0DF10F03 		add	r3, sp, #15
 6715 25b8 0198     		ldr	r0, [sp, #4]
 6716 25ba 3021     		movs	r1, #48
 6717 25bc 1A46     		mov	r2, r3
 6718 25be 0123     		movs	r3, #1
 6719 25c0 FFF7FEFF 		bl	LSM303AGR_ACC_WriteReg
 6720 25c4 0346     		mov	r3, r0
 6721 25c6 002B     		cmp	r3, #0
 6722 25c8 01D1     		bne	.L436
 6723              		.loc 1 2332 0
 6724 25ca 0023     		movs	r3, #0
 6725 25cc 00E0     		b	.L437
 6726              	.L436:
 6727              		.loc 1 2334 0
 6728 25ce 0123     		movs	r3, #1
 6729              	.L437:
 6730              		.loc 1 2335 0
 6731 25d0 1846     		mov	r0, r3
ARM GAS  /tmp/cc1ELVNa.s 			page 121


 6732 25d2 05B0     		add	sp, sp, #20
 6733              		@ sp needed
 6734 25d4 5DF804FB 		ldr	pc, [sp], #4
 6735              		.cfi_endproc
 6736              	.LFE378:
 6737              		.size	LSM303AGR_ACC_W_Int1EnXLo, .-LSM303AGR_ACC_W_Int1EnXLo
 6738              		.align	2
 6739 25d8 AFF30080 		.p2align 4,,15
 6739      AFF30080 
 6740              		.global	LSM303AGR_ACC_R_Int1EnXLo
 6741              		.thumb
 6742              		.thumb_func
 6743              		.type	LSM303AGR_ACC_R_Int1EnXLo, %function
 6744              	LSM303AGR_ACC_R_Int1EnXLo:
 6745              	.LFB379:
 6746              		.loc 1 2345 0
 6747              		.cfi_startproc
 6748              		@ args = 0, pretend = 0, frame = 8
 6749              		@ frame_needed = 0, uses_anonymous_args = 0
 6750 25e0 00B5     		push	{lr}
 6751              		.cfi_def_cfa_offset 4
 6752              		.cfi_offset 14, -4
 6753 25e2 83B0     		sub	sp, sp, #12
 6754              		.cfi_def_cfa_offset 16
 6755 25e4 0190     		str	r0, [sp, #4]
 6756 25e6 0091     		str	r1, [sp]
 6757              		.loc 1 2346 0
 6758 25e8 0198     		ldr	r0, [sp, #4]
 6759 25ea 3021     		movs	r1, #48
 6760 25ec 009A     		ldr	r2, [sp]
 6761 25ee 0123     		movs	r3, #1
 6762 25f0 FFF7FEFF 		bl	LSM303AGR_ACC_ReadReg
 6763 25f4 0346     		mov	r3, r0
 6764 25f6 002B     		cmp	r3, #0
 6765 25f8 01D1     		bne	.L439
 6766              		.loc 1 2347 0
 6767 25fa 0023     		movs	r3, #0
 6768 25fc 07E0     		b	.L440
 6769              	.L439:
 6770              		.loc 1 2349 0
 6771 25fe 009B     		ldr	r3, [sp]
 6772 2600 1B78     		ldrb	r3, [r3]	@ zero_extendqisi2
 6773 2602 03F00103 		and	r3, r3, #1
 6774 2606 DAB2     		uxtb	r2, r3
 6775 2608 009B     		ldr	r3, [sp]
 6776 260a 1A70     		strb	r2, [r3]
 6777              		.loc 1 2351 0
 6778 260c 0123     		movs	r3, #1
 6779              	.L440:
 6780              		.loc 1 2352 0
 6781 260e 1846     		mov	r0, r3
 6782 2610 03B0     		add	sp, sp, #12
 6783              		@ sp needed
 6784 2612 5DF804FB 		ldr	pc, [sp], #4
 6785              		.cfi_endproc
 6786              	.LFE379:
 6787              		.size	LSM303AGR_ACC_R_Int1EnXLo, .-LSM303AGR_ACC_R_Int1EnXLo
ARM GAS  /tmp/cc1ELVNa.s 			page 122


 6788 2616 00BF     		.align	2
 6789 2618 AFF30080 		.p2align 4,,15
 6789      AFF30080 
 6790              		.global	LSM303AGR_ACC_W_Int1EnXHi
 6791              		.thumb
 6792              		.thumb_func
 6793              		.type	LSM303AGR_ACC_W_Int1EnXHi, %function
 6794              	LSM303AGR_ACC_W_Int1EnXHi:
 6795              	.LFB380:
 6796              		.loc 1 2362 0
 6797              		.cfi_startproc
 6798              		@ args = 0, pretend = 0, frame = 16
 6799              		@ frame_needed = 0, uses_anonymous_args = 0
 6800 2620 00B5     		push	{lr}
 6801              		.cfi_def_cfa_offset 4
 6802              		.cfi_offset 14, -4
 6803 2622 85B0     		sub	sp, sp, #20
 6804              		.cfi_def_cfa_offset 24
 6805 2624 0190     		str	r0, [sp, #4]
 6806 2626 0B46     		mov	r3, r1
 6807 2628 8DF80330 		strb	r3, [sp, #3]
 6808              		.loc 1 2365 0
 6809 262c 0DF10F03 		add	r3, sp, #15
 6810 2630 0198     		ldr	r0, [sp, #4]
 6811 2632 3021     		movs	r1, #48
 6812 2634 1A46     		mov	r2, r3
 6813 2636 0123     		movs	r3, #1
 6814 2638 FFF7FEFF 		bl	LSM303AGR_ACC_ReadReg
 6815 263c 0346     		mov	r3, r0
 6816 263e 002B     		cmp	r3, #0
 6817 2640 01D1     		bne	.L442
 6818              		.loc 1 2366 0
 6819 2642 0023     		movs	r3, #0
 6820 2644 1CE0     		b	.L445
 6821              	.L442:
 6822              		.loc 1 2368 0
 6823 2646 9DF80F30 		ldrb	r3, [sp, #15]	@ zero_extendqisi2
 6824 264a 23F00203 		bic	r3, r3, #2
 6825 264e DBB2     		uxtb	r3, r3
 6826 2650 8DF80F30 		strb	r3, [sp, #15]
 6827              		.loc 1 2369 0
 6828 2654 9DF80F20 		ldrb	r2, [sp, #15]	@ zero_extendqisi2
 6829 2658 9DF80330 		ldrb	r3, [sp, #3]
 6830 265c 1343     		orrs	r3, r3, r2
 6831 265e DBB2     		uxtb	r3, r3
 6832 2660 8DF80F30 		strb	r3, [sp, #15]
 6833              		.loc 1 2371 0
 6834 2664 0DF10F03 		add	r3, sp, #15
 6835 2668 0198     		ldr	r0, [sp, #4]
 6836 266a 3021     		movs	r1, #48
 6837 266c 1A46     		mov	r2, r3
 6838 266e 0123     		movs	r3, #1
 6839 2670 FFF7FEFF 		bl	LSM303AGR_ACC_WriteReg
 6840 2674 0346     		mov	r3, r0
 6841 2676 002B     		cmp	r3, #0
 6842 2678 01D1     		bne	.L444
 6843              		.loc 1 2372 0
ARM GAS  /tmp/cc1ELVNa.s 			page 123


 6844 267a 0023     		movs	r3, #0
 6845 267c 00E0     		b	.L445
 6846              	.L444:
 6847              		.loc 1 2374 0
 6848 267e 0123     		movs	r3, #1
 6849              	.L445:
 6850              		.loc 1 2375 0
 6851 2680 1846     		mov	r0, r3
 6852 2682 05B0     		add	sp, sp, #20
 6853              		@ sp needed
 6854 2684 5DF804FB 		ldr	pc, [sp], #4
 6855              		.cfi_endproc
 6856              	.LFE380:
 6857              		.size	LSM303AGR_ACC_W_Int1EnXHi, .-LSM303AGR_ACC_W_Int1EnXHi
 6858              		.align	2
 6859 2688 AFF30080 		.p2align 4,,15
 6859      AFF30080 
 6860              		.global	LSM303AGR_ACC_R_Int1EnXHi
 6861              		.thumb
 6862              		.thumb_func
 6863              		.type	LSM303AGR_ACC_R_Int1EnXHi, %function
 6864              	LSM303AGR_ACC_R_Int1EnXHi:
 6865              	.LFB381:
 6866              		.loc 1 2385 0
 6867              		.cfi_startproc
 6868              		@ args = 0, pretend = 0, frame = 8
 6869              		@ frame_needed = 0, uses_anonymous_args = 0
 6870 2690 00B5     		push	{lr}
 6871              		.cfi_def_cfa_offset 4
 6872              		.cfi_offset 14, -4
 6873 2692 83B0     		sub	sp, sp, #12
 6874              		.cfi_def_cfa_offset 16
 6875 2694 0190     		str	r0, [sp, #4]
 6876 2696 0091     		str	r1, [sp]
 6877              		.loc 1 2386 0
 6878 2698 0198     		ldr	r0, [sp, #4]
 6879 269a 3021     		movs	r1, #48
 6880 269c 009A     		ldr	r2, [sp]
 6881 269e 0123     		movs	r3, #1
 6882 26a0 FFF7FEFF 		bl	LSM303AGR_ACC_ReadReg
 6883 26a4 0346     		mov	r3, r0
 6884 26a6 002B     		cmp	r3, #0
 6885 26a8 01D1     		bne	.L447
 6886              		.loc 1 2387 0
 6887 26aa 0023     		movs	r3, #0
 6888 26ac 07E0     		b	.L448
 6889              	.L447:
 6890              		.loc 1 2389 0
 6891 26ae 009B     		ldr	r3, [sp]
 6892 26b0 1B78     		ldrb	r3, [r3]	@ zero_extendqisi2
 6893 26b2 03F00203 		and	r3, r3, #2
 6894 26b6 DAB2     		uxtb	r2, r3
 6895 26b8 009B     		ldr	r3, [sp]
 6896 26ba 1A70     		strb	r2, [r3]
 6897              		.loc 1 2391 0
 6898 26bc 0123     		movs	r3, #1
 6899              	.L448:
ARM GAS  /tmp/cc1ELVNa.s 			page 124


 6900              		.loc 1 2392 0
 6901 26be 1846     		mov	r0, r3
 6902 26c0 03B0     		add	sp, sp, #12
 6903              		@ sp needed
 6904 26c2 5DF804FB 		ldr	pc, [sp], #4
 6905              		.cfi_endproc
 6906              	.LFE381:
 6907              		.size	LSM303AGR_ACC_R_Int1EnXHi, .-LSM303AGR_ACC_R_Int1EnXHi
 6908 26c6 00BF     		.align	2
 6909 26c8 AFF30080 		.p2align 4,,15
 6909      AFF30080 
 6910              		.global	LSM303AGR_ACC_W_Int1EnYLo
 6911              		.thumb
 6912              		.thumb_func
 6913              		.type	LSM303AGR_ACC_W_Int1EnYLo, %function
 6914              	LSM303AGR_ACC_W_Int1EnYLo:
 6915              	.LFB382:
 6916              		.loc 1 2402 0
 6917              		.cfi_startproc
 6918              		@ args = 0, pretend = 0, frame = 16
 6919              		@ frame_needed = 0, uses_anonymous_args = 0
 6920 26d0 00B5     		push	{lr}
 6921              		.cfi_def_cfa_offset 4
 6922              		.cfi_offset 14, -4
 6923 26d2 85B0     		sub	sp, sp, #20
 6924              		.cfi_def_cfa_offset 24
 6925 26d4 0190     		str	r0, [sp, #4]
 6926 26d6 0B46     		mov	r3, r1
 6927 26d8 8DF80330 		strb	r3, [sp, #3]
 6928              		.loc 1 2405 0
 6929 26dc 0DF10F03 		add	r3, sp, #15
 6930 26e0 0198     		ldr	r0, [sp, #4]
 6931 26e2 3021     		movs	r1, #48
 6932 26e4 1A46     		mov	r2, r3
 6933 26e6 0123     		movs	r3, #1
 6934 26e8 FFF7FEFF 		bl	LSM303AGR_ACC_ReadReg
 6935 26ec 0346     		mov	r3, r0
 6936 26ee 002B     		cmp	r3, #0
 6937 26f0 01D1     		bne	.L450
 6938              		.loc 1 2406 0
 6939 26f2 0023     		movs	r3, #0
 6940 26f4 1CE0     		b	.L453
 6941              	.L450:
 6942              		.loc 1 2408 0
 6943 26f6 9DF80F30 		ldrb	r3, [sp, #15]	@ zero_extendqisi2
 6944 26fa 23F00403 		bic	r3, r3, #4
 6945 26fe DBB2     		uxtb	r3, r3
 6946 2700 8DF80F30 		strb	r3, [sp, #15]
 6947              		.loc 1 2409 0
 6948 2704 9DF80F20 		ldrb	r2, [sp, #15]	@ zero_extendqisi2
 6949 2708 9DF80330 		ldrb	r3, [sp, #3]
 6950 270c 1343     		orrs	r3, r3, r2
 6951 270e DBB2     		uxtb	r3, r3
 6952 2710 8DF80F30 		strb	r3, [sp, #15]
 6953              		.loc 1 2411 0
 6954 2714 0DF10F03 		add	r3, sp, #15
 6955 2718 0198     		ldr	r0, [sp, #4]
ARM GAS  /tmp/cc1ELVNa.s 			page 125


 6956 271a 3021     		movs	r1, #48
 6957 271c 1A46     		mov	r2, r3
 6958 271e 0123     		movs	r3, #1
 6959 2720 FFF7FEFF 		bl	LSM303AGR_ACC_WriteReg
 6960 2724 0346     		mov	r3, r0
 6961 2726 002B     		cmp	r3, #0
 6962 2728 01D1     		bne	.L452
 6963              		.loc 1 2412 0
 6964 272a 0023     		movs	r3, #0
 6965 272c 00E0     		b	.L453
 6966              	.L452:
 6967              		.loc 1 2414 0
 6968 272e 0123     		movs	r3, #1
 6969              	.L453:
 6970              		.loc 1 2415 0
 6971 2730 1846     		mov	r0, r3
 6972 2732 05B0     		add	sp, sp, #20
 6973              		@ sp needed
 6974 2734 5DF804FB 		ldr	pc, [sp], #4
 6975              		.cfi_endproc
 6976              	.LFE382:
 6977              		.size	LSM303AGR_ACC_W_Int1EnYLo, .-LSM303AGR_ACC_W_Int1EnYLo
 6978              		.align	2
 6979 2738 AFF30080 		.p2align 4,,15
 6979      AFF30080 
 6980              		.global	LSM303AGR_ACC_R_Int1EnYLo
 6981              		.thumb
 6982              		.thumb_func
 6983              		.type	LSM303AGR_ACC_R_Int1EnYLo, %function
 6984              	LSM303AGR_ACC_R_Int1EnYLo:
 6985              	.LFB383:
 6986              		.loc 1 2425 0
 6987              		.cfi_startproc
 6988              		@ args = 0, pretend = 0, frame = 8
 6989              		@ frame_needed = 0, uses_anonymous_args = 0
 6990 2740 00B5     		push	{lr}
 6991              		.cfi_def_cfa_offset 4
 6992              		.cfi_offset 14, -4
 6993 2742 83B0     		sub	sp, sp, #12
 6994              		.cfi_def_cfa_offset 16
 6995 2744 0190     		str	r0, [sp, #4]
 6996 2746 0091     		str	r1, [sp]
 6997              		.loc 1 2426 0
 6998 2748 0198     		ldr	r0, [sp, #4]
 6999 274a 3021     		movs	r1, #48
 7000 274c 009A     		ldr	r2, [sp]
 7001 274e 0123     		movs	r3, #1
 7002 2750 FFF7FEFF 		bl	LSM303AGR_ACC_ReadReg
 7003 2754 0346     		mov	r3, r0
 7004 2756 002B     		cmp	r3, #0
 7005 2758 01D1     		bne	.L455
 7006              		.loc 1 2427 0
 7007 275a 0023     		movs	r3, #0
 7008 275c 07E0     		b	.L456
 7009              	.L455:
 7010              		.loc 1 2429 0
 7011 275e 009B     		ldr	r3, [sp]
ARM GAS  /tmp/cc1ELVNa.s 			page 126


 7012 2760 1B78     		ldrb	r3, [r3]	@ zero_extendqisi2
 7013 2762 03F00403 		and	r3, r3, #4
 7014 2766 DAB2     		uxtb	r2, r3
 7015 2768 009B     		ldr	r3, [sp]
 7016 276a 1A70     		strb	r2, [r3]
 7017              		.loc 1 2431 0
 7018 276c 0123     		movs	r3, #1
 7019              	.L456:
 7020              		.loc 1 2432 0
 7021 276e 1846     		mov	r0, r3
 7022 2770 03B0     		add	sp, sp, #12
 7023              		@ sp needed
 7024 2772 5DF804FB 		ldr	pc, [sp], #4
 7025              		.cfi_endproc
 7026              	.LFE383:
 7027              		.size	LSM303AGR_ACC_R_Int1EnYLo, .-LSM303AGR_ACC_R_Int1EnYLo
 7028 2776 00BF     		.align	2
 7029 2778 AFF30080 		.p2align 4,,15
 7029      AFF30080 
 7030              		.global	LSM303AGR_ACC_W_Int1EnYHi
 7031              		.thumb
 7032              		.thumb_func
 7033              		.type	LSM303AGR_ACC_W_Int1EnYHi, %function
 7034              	LSM303AGR_ACC_W_Int1EnYHi:
 7035              	.LFB384:
 7036              		.loc 1 2442 0
 7037              		.cfi_startproc
 7038              		@ args = 0, pretend = 0, frame = 16
 7039              		@ frame_needed = 0, uses_anonymous_args = 0
 7040 2780 00B5     		push	{lr}
 7041              		.cfi_def_cfa_offset 4
 7042              		.cfi_offset 14, -4
 7043 2782 85B0     		sub	sp, sp, #20
 7044              		.cfi_def_cfa_offset 24
 7045 2784 0190     		str	r0, [sp, #4]
 7046 2786 0B46     		mov	r3, r1
 7047 2788 8DF80330 		strb	r3, [sp, #3]
 7048              		.loc 1 2445 0
 7049 278c 0DF10F03 		add	r3, sp, #15
 7050 2790 0198     		ldr	r0, [sp, #4]
 7051 2792 3021     		movs	r1, #48
 7052 2794 1A46     		mov	r2, r3
 7053 2796 0123     		movs	r3, #1
 7054 2798 FFF7FEFF 		bl	LSM303AGR_ACC_ReadReg
 7055 279c 0346     		mov	r3, r0
 7056 279e 002B     		cmp	r3, #0
 7057 27a0 01D1     		bne	.L458
 7058              		.loc 1 2446 0
 7059 27a2 0023     		movs	r3, #0
 7060 27a4 1CE0     		b	.L461
 7061              	.L458:
 7062              		.loc 1 2448 0
 7063 27a6 9DF80F30 		ldrb	r3, [sp, #15]	@ zero_extendqisi2
 7064 27aa 23F00803 		bic	r3, r3, #8
 7065 27ae DBB2     		uxtb	r3, r3
 7066 27b0 8DF80F30 		strb	r3, [sp, #15]
 7067              		.loc 1 2449 0
ARM GAS  /tmp/cc1ELVNa.s 			page 127


 7068 27b4 9DF80F20 		ldrb	r2, [sp, #15]	@ zero_extendqisi2
 7069 27b8 9DF80330 		ldrb	r3, [sp, #3]
 7070 27bc 1343     		orrs	r3, r3, r2
 7071 27be DBB2     		uxtb	r3, r3
 7072 27c0 8DF80F30 		strb	r3, [sp, #15]
 7073              		.loc 1 2451 0
 7074 27c4 0DF10F03 		add	r3, sp, #15
 7075 27c8 0198     		ldr	r0, [sp, #4]
 7076 27ca 3021     		movs	r1, #48
 7077 27cc 1A46     		mov	r2, r3
 7078 27ce 0123     		movs	r3, #1
 7079 27d0 FFF7FEFF 		bl	LSM303AGR_ACC_WriteReg
 7080 27d4 0346     		mov	r3, r0
 7081 27d6 002B     		cmp	r3, #0
 7082 27d8 01D1     		bne	.L460
 7083              		.loc 1 2452 0
 7084 27da 0023     		movs	r3, #0
 7085 27dc 00E0     		b	.L461
 7086              	.L460:
 7087              		.loc 1 2454 0
 7088 27de 0123     		movs	r3, #1
 7089              	.L461:
 7090              		.loc 1 2455 0
 7091 27e0 1846     		mov	r0, r3
 7092 27e2 05B0     		add	sp, sp, #20
 7093              		@ sp needed
 7094 27e4 5DF804FB 		ldr	pc, [sp], #4
 7095              		.cfi_endproc
 7096              	.LFE384:
 7097              		.size	LSM303AGR_ACC_W_Int1EnYHi, .-LSM303AGR_ACC_W_Int1EnYHi
 7098              		.align	2
 7099 27e8 AFF30080 		.p2align 4,,15
 7099      AFF30080 
 7100              		.global	LSM303AGR_ACC_R_Int1EnYHi
 7101              		.thumb
 7102              		.thumb_func
 7103              		.type	LSM303AGR_ACC_R_Int1EnYHi, %function
 7104              	LSM303AGR_ACC_R_Int1EnYHi:
 7105              	.LFB385:
 7106              		.loc 1 2465 0
 7107              		.cfi_startproc
 7108              		@ args = 0, pretend = 0, frame = 8
 7109              		@ frame_needed = 0, uses_anonymous_args = 0
 7110 27f0 00B5     		push	{lr}
 7111              		.cfi_def_cfa_offset 4
 7112              		.cfi_offset 14, -4
 7113 27f2 83B0     		sub	sp, sp, #12
 7114              		.cfi_def_cfa_offset 16
 7115 27f4 0190     		str	r0, [sp, #4]
 7116 27f6 0091     		str	r1, [sp]
 7117              		.loc 1 2466 0
 7118 27f8 0198     		ldr	r0, [sp, #4]
 7119 27fa 3021     		movs	r1, #48
 7120 27fc 009A     		ldr	r2, [sp]
 7121 27fe 0123     		movs	r3, #1
 7122 2800 FFF7FEFF 		bl	LSM303AGR_ACC_ReadReg
 7123 2804 0346     		mov	r3, r0
ARM GAS  /tmp/cc1ELVNa.s 			page 128


 7124 2806 002B     		cmp	r3, #0
 7125 2808 01D1     		bne	.L463
 7126              		.loc 1 2467 0
 7127 280a 0023     		movs	r3, #0
 7128 280c 07E0     		b	.L464
 7129              	.L463:
 7130              		.loc 1 2469 0
 7131 280e 009B     		ldr	r3, [sp]
 7132 2810 1B78     		ldrb	r3, [r3]	@ zero_extendqisi2
 7133 2812 03F00803 		and	r3, r3, #8
 7134 2816 DAB2     		uxtb	r2, r3
 7135 2818 009B     		ldr	r3, [sp]
 7136 281a 1A70     		strb	r2, [r3]
 7137              		.loc 1 2471 0
 7138 281c 0123     		movs	r3, #1
 7139              	.L464:
 7140              		.loc 1 2472 0
 7141 281e 1846     		mov	r0, r3
 7142 2820 03B0     		add	sp, sp, #12
 7143              		@ sp needed
 7144 2822 5DF804FB 		ldr	pc, [sp], #4
 7145              		.cfi_endproc
 7146              	.LFE385:
 7147              		.size	LSM303AGR_ACC_R_Int1EnYHi, .-LSM303AGR_ACC_R_Int1EnYHi
 7148 2826 00BF     		.align	2
 7149 2828 AFF30080 		.p2align 4,,15
 7149      AFF30080 
 7150              		.global	LSM303AGR_ACC_W_Int1EnZLo
 7151              		.thumb
 7152              		.thumb_func
 7153              		.type	LSM303AGR_ACC_W_Int1EnZLo, %function
 7154              	LSM303AGR_ACC_W_Int1EnZLo:
 7155              	.LFB386:
 7156              		.loc 1 2482 0
 7157              		.cfi_startproc
 7158              		@ args = 0, pretend = 0, frame = 16
 7159              		@ frame_needed = 0, uses_anonymous_args = 0
 7160 2830 00B5     		push	{lr}
 7161              		.cfi_def_cfa_offset 4
 7162              		.cfi_offset 14, -4
 7163 2832 85B0     		sub	sp, sp, #20
 7164              		.cfi_def_cfa_offset 24
 7165 2834 0190     		str	r0, [sp, #4]
 7166 2836 0B46     		mov	r3, r1
 7167 2838 8DF80330 		strb	r3, [sp, #3]
 7168              		.loc 1 2485 0
 7169 283c 0DF10F03 		add	r3, sp, #15
 7170 2840 0198     		ldr	r0, [sp, #4]
 7171 2842 3021     		movs	r1, #48
 7172 2844 1A46     		mov	r2, r3
 7173 2846 0123     		movs	r3, #1
 7174 2848 FFF7FEFF 		bl	LSM303AGR_ACC_ReadReg
 7175 284c 0346     		mov	r3, r0
 7176 284e 002B     		cmp	r3, #0
 7177 2850 01D1     		bne	.L466
 7178              		.loc 1 2486 0
 7179 2852 0023     		movs	r3, #0
ARM GAS  /tmp/cc1ELVNa.s 			page 129


 7180 2854 1CE0     		b	.L469
 7181              	.L466:
 7182              		.loc 1 2488 0
 7183 2856 9DF80F30 		ldrb	r3, [sp, #15]	@ zero_extendqisi2
 7184 285a 23F01003 		bic	r3, r3, #16
 7185 285e DBB2     		uxtb	r3, r3
 7186 2860 8DF80F30 		strb	r3, [sp, #15]
 7187              		.loc 1 2489 0
 7188 2864 9DF80F20 		ldrb	r2, [sp, #15]	@ zero_extendqisi2
 7189 2868 9DF80330 		ldrb	r3, [sp, #3]
 7190 286c 1343     		orrs	r3, r3, r2
 7191 286e DBB2     		uxtb	r3, r3
 7192 2870 8DF80F30 		strb	r3, [sp, #15]
 7193              		.loc 1 2491 0
 7194 2874 0DF10F03 		add	r3, sp, #15
 7195 2878 0198     		ldr	r0, [sp, #4]
 7196 287a 3021     		movs	r1, #48
 7197 287c 1A46     		mov	r2, r3
 7198 287e 0123     		movs	r3, #1
 7199 2880 FFF7FEFF 		bl	LSM303AGR_ACC_WriteReg
 7200 2884 0346     		mov	r3, r0
 7201 2886 002B     		cmp	r3, #0
 7202 2888 01D1     		bne	.L468
 7203              		.loc 1 2492 0
 7204 288a 0023     		movs	r3, #0
 7205 288c 00E0     		b	.L469
 7206              	.L468:
 7207              		.loc 1 2494 0
 7208 288e 0123     		movs	r3, #1
 7209              	.L469:
 7210              		.loc 1 2495 0
 7211 2890 1846     		mov	r0, r3
 7212 2892 05B0     		add	sp, sp, #20
 7213              		@ sp needed
 7214 2894 5DF804FB 		ldr	pc, [sp], #4
 7215              		.cfi_endproc
 7216              	.LFE386:
 7217              		.size	LSM303AGR_ACC_W_Int1EnZLo, .-LSM303AGR_ACC_W_Int1EnZLo
 7218              		.align	2
 7219 2898 AFF30080 		.p2align 4,,15
 7219      AFF30080 
 7220              		.global	LSM303AGR_ACC_R_Int1EnZLo
 7221              		.thumb
 7222              		.thumb_func
 7223              		.type	LSM303AGR_ACC_R_Int1EnZLo, %function
 7224              	LSM303AGR_ACC_R_Int1EnZLo:
 7225              	.LFB387:
 7226              		.loc 1 2505 0
 7227              		.cfi_startproc
 7228              		@ args = 0, pretend = 0, frame = 8
 7229              		@ frame_needed = 0, uses_anonymous_args = 0
 7230 28a0 00B5     		push	{lr}
 7231              		.cfi_def_cfa_offset 4
 7232              		.cfi_offset 14, -4
 7233 28a2 83B0     		sub	sp, sp, #12
 7234              		.cfi_def_cfa_offset 16
 7235 28a4 0190     		str	r0, [sp, #4]
ARM GAS  /tmp/cc1ELVNa.s 			page 130


 7236 28a6 0091     		str	r1, [sp]
 7237              		.loc 1 2506 0
 7238 28a8 0198     		ldr	r0, [sp, #4]
 7239 28aa 3021     		movs	r1, #48
 7240 28ac 009A     		ldr	r2, [sp]
 7241 28ae 0123     		movs	r3, #1
 7242 28b0 FFF7FEFF 		bl	LSM303AGR_ACC_ReadReg
 7243 28b4 0346     		mov	r3, r0
 7244 28b6 002B     		cmp	r3, #0
 7245 28b8 01D1     		bne	.L471
 7246              		.loc 1 2507 0
 7247 28ba 0023     		movs	r3, #0
 7248 28bc 07E0     		b	.L472
 7249              	.L471:
 7250              		.loc 1 2509 0
 7251 28be 009B     		ldr	r3, [sp]
 7252 28c0 1B78     		ldrb	r3, [r3]	@ zero_extendqisi2
 7253 28c2 03F01003 		and	r3, r3, #16
 7254 28c6 DAB2     		uxtb	r2, r3
 7255 28c8 009B     		ldr	r3, [sp]
 7256 28ca 1A70     		strb	r2, [r3]
 7257              		.loc 1 2511 0
 7258 28cc 0123     		movs	r3, #1
 7259              	.L472:
 7260              		.loc 1 2512 0
 7261 28ce 1846     		mov	r0, r3
 7262 28d0 03B0     		add	sp, sp, #12
 7263              		@ sp needed
 7264 28d2 5DF804FB 		ldr	pc, [sp], #4
 7265              		.cfi_endproc
 7266              	.LFE387:
 7267              		.size	LSM303AGR_ACC_R_Int1EnZLo, .-LSM303AGR_ACC_R_Int1EnZLo
 7268 28d6 00BF     		.align	2
 7269 28d8 AFF30080 		.p2align 4,,15
 7269      AFF30080 
 7270              		.global	LSM303AGR_ACC_W_Int1EnZHi
 7271              		.thumb
 7272              		.thumb_func
 7273              		.type	LSM303AGR_ACC_W_Int1EnZHi, %function
 7274              	LSM303AGR_ACC_W_Int1EnZHi:
 7275              	.LFB388:
 7276              		.loc 1 2522 0
 7277              		.cfi_startproc
 7278              		@ args = 0, pretend = 0, frame = 16
 7279              		@ frame_needed = 0, uses_anonymous_args = 0
 7280 28e0 00B5     		push	{lr}
 7281              		.cfi_def_cfa_offset 4
 7282              		.cfi_offset 14, -4
 7283 28e2 85B0     		sub	sp, sp, #20
 7284              		.cfi_def_cfa_offset 24
 7285 28e4 0190     		str	r0, [sp, #4]
 7286 28e6 0B46     		mov	r3, r1
 7287 28e8 8DF80330 		strb	r3, [sp, #3]
 7288              		.loc 1 2525 0
 7289 28ec 0DF10F03 		add	r3, sp, #15
 7290 28f0 0198     		ldr	r0, [sp, #4]
 7291 28f2 3021     		movs	r1, #48
ARM GAS  /tmp/cc1ELVNa.s 			page 131


 7292 28f4 1A46     		mov	r2, r3
 7293 28f6 0123     		movs	r3, #1
 7294 28f8 FFF7FEFF 		bl	LSM303AGR_ACC_ReadReg
 7295 28fc 0346     		mov	r3, r0
 7296 28fe 002B     		cmp	r3, #0
 7297 2900 01D1     		bne	.L474
 7298              		.loc 1 2526 0
 7299 2902 0023     		movs	r3, #0
 7300 2904 1CE0     		b	.L477
 7301              	.L474:
 7302              		.loc 1 2528 0
 7303 2906 9DF80F30 		ldrb	r3, [sp, #15]	@ zero_extendqisi2
 7304 290a 23F02003 		bic	r3, r3, #32
 7305 290e DBB2     		uxtb	r3, r3
 7306 2910 8DF80F30 		strb	r3, [sp, #15]
 7307              		.loc 1 2529 0
 7308 2914 9DF80F20 		ldrb	r2, [sp, #15]	@ zero_extendqisi2
 7309 2918 9DF80330 		ldrb	r3, [sp, #3]
 7310 291c 1343     		orrs	r3, r3, r2
 7311 291e DBB2     		uxtb	r3, r3
 7312 2920 8DF80F30 		strb	r3, [sp, #15]
 7313              		.loc 1 2531 0
 7314 2924 0DF10F03 		add	r3, sp, #15
 7315 2928 0198     		ldr	r0, [sp, #4]
 7316 292a 3021     		movs	r1, #48
 7317 292c 1A46     		mov	r2, r3
 7318 292e 0123     		movs	r3, #1
 7319 2930 FFF7FEFF 		bl	LSM303AGR_ACC_WriteReg
 7320 2934 0346     		mov	r3, r0
 7321 2936 002B     		cmp	r3, #0
 7322 2938 01D1     		bne	.L476
 7323              		.loc 1 2532 0
 7324 293a 0023     		movs	r3, #0
 7325 293c 00E0     		b	.L477
 7326              	.L476:
 7327              		.loc 1 2534 0
 7328 293e 0123     		movs	r3, #1
 7329              	.L477:
 7330              		.loc 1 2535 0
 7331 2940 1846     		mov	r0, r3
 7332 2942 05B0     		add	sp, sp, #20
 7333              		@ sp needed
 7334 2944 5DF804FB 		ldr	pc, [sp], #4
 7335              		.cfi_endproc
 7336              	.LFE388:
 7337              		.size	LSM303AGR_ACC_W_Int1EnZHi, .-LSM303AGR_ACC_W_Int1EnZHi
 7338              		.align	2
 7339 2948 AFF30080 		.p2align 4,,15
 7339      AFF30080 
 7340              		.global	LSM303AGR_ACC_R_Int1EnZHi
 7341              		.thumb
 7342              		.thumb_func
 7343              		.type	LSM303AGR_ACC_R_Int1EnZHi, %function
 7344              	LSM303AGR_ACC_R_Int1EnZHi:
 7345              	.LFB389:
 7346              		.loc 1 2545 0
 7347              		.cfi_startproc
ARM GAS  /tmp/cc1ELVNa.s 			page 132


 7348              		@ args = 0, pretend = 0, frame = 8
 7349              		@ frame_needed = 0, uses_anonymous_args = 0
 7350 2950 00B5     		push	{lr}
 7351              		.cfi_def_cfa_offset 4
 7352              		.cfi_offset 14, -4
 7353 2952 83B0     		sub	sp, sp, #12
 7354              		.cfi_def_cfa_offset 16
 7355 2954 0190     		str	r0, [sp, #4]
 7356 2956 0091     		str	r1, [sp]
 7357              		.loc 1 2546 0
 7358 2958 0198     		ldr	r0, [sp, #4]
 7359 295a 3021     		movs	r1, #48
 7360 295c 009A     		ldr	r2, [sp]
 7361 295e 0123     		movs	r3, #1
 7362 2960 FFF7FEFF 		bl	LSM303AGR_ACC_ReadReg
 7363 2964 0346     		mov	r3, r0
 7364 2966 002B     		cmp	r3, #0
 7365 2968 01D1     		bne	.L479
 7366              		.loc 1 2547 0
 7367 296a 0023     		movs	r3, #0
 7368 296c 07E0     		b	.L480
 7369              	.L479:
 7370              		.loc 1 2549 0
 7371 296e 009B     		ldr	r3, [sp]
 7372 2970 1B78     		ldrb	r3, [r3]	@ zero_extendqisi2
 7373 2972 03F02003 		and	r3, r3, #32
 7374 2976 DAB2     		uxtb	r2, r3
 7375 2978 009B     		ldr	r3, [sp]
 7376 297a 1A70     		strb	r2, [r3]
 7377              		.loc 1 2551 0
 7378 297c 0123     		movs	r3, #1
 7379              	.L480:
 7380              		.loc 1 2552 0
 7381 297e 1846     		mov	r0, r3
 7382 2980 03B0     		add	sp, sp, #12
 7383              		@ sp needed
 7384 2982 5DF804FB 		ldr	pc, [sp], #4
 7385              		.cfi_endproc
 7386              	.LFE389:
 7387              		.size	LSM303AGR_ACC_R_Int1EnZHi, .-LSM303AGR_ACC_R_Int1EnZHi
 7388 2986 00BF     		.align	2
 7389 2988 AFF30080 		.p2align 4,,15
 7389      AFF30080 
 7390              		.global	LSM303AGR_ACC_W_Int1_6D
 7391              		.thumb
 7392              		.thumb_func
 7393              		.type	LSM303AGR_ACC_W_Int1_6D, %function
 7394              	LSM303AGR_ACC_W_Int1_6D:
 7395              	.LFB390:
 7396              		.loc 1 2562 0
 7397              		.cfi_startproc
 7398              		@ args = 0, pretend = 0, frame = 16
 7399              		@ frame_needed = 0, uses_anonymous_args = 0
 7400 2990 00B5     		push	{lr}
 7401              		.cfi_def_cfa_offset 4
 7402              		.cfi_offset 14, -4
 7403 2992 85B0     		sub	sp, sp, #20
ARM GAS  /tmp/cc1ELVNa.s 			page 133


 7404              		.cfi_def_cfa_offset 24
 7405 2994 0190     		str	r0, [sp, #4]
 7406 2996 0B46     		mov	r3, r1
 7407 2998 8DF80330 		strb	r3, [sp, #3]
 7408              		.loc 1 2565 0
 7409 299c 0DF10F03 		add	r3, sp, #15
 7410 29a0 0198     		ldr	r0, [sp, #4]
 7411 29a2 3021     		movs	r1, #48
 7412 29a4 1A46     		mov	r2, r3
 7413 29a6 0123     		movs	r3, #1
 7414 29a8 FFF7FEFF 		bl	LSM303AGR_ACC_ReadReg
 7415 29ac 0346     		mov	r3, r0
 7416 29ae 002B     		cmp	r3, #0
 7417 29b0 01D1     		bne	.L482
 7418              		.loc 1 2566 0
 7419 29b2 0023     		movs	r3, #0
 7420 29b4 1CE0     		b	.L485
 7421              	.L482:
 7422              		.loc 1 2568 0
 7423 29b6 9DF80F30 		ldrb	r3, [sp, #15]	@ zero_extendqisi2
 7424 29ba 23F04003 		bic	r3, r3, #64
 7425 29be DBB2     		uxtb	r3, r3
 7426 29c0 8DF80F30 		strb	r3, [sp, #15]
 7427              		.loc 1 2569 0
 7428 29c4 9DF80F20 		ldrb	r2, [sp, #15]	@ zero_extendqisi2
 7429 29c8 9DF80330 		ldrb	r3, [sp, #3]
 7430 29cc 1343     		orrs	r3, r3, r2
 7431 29ce DBB2     		uxtb	r3, r3
 7432 29d0 8DF80F30 		strb	r3, [sp, #15]
 7433              		.loc 1 2571 0
 7434 29d4 0DF10F03 		add	r3, sp, #15
 7435 29d8 0198     		ldr	r0, [sp, #4]
 7436 29da 3021     		movs	r1, #48
 7437 29dc 1A46     		mov	r2, r3
 7438 29de 0123     		movs	r3, #1
 7439 29e0 FFF7FEFF 		bl	LSM303AGR_ACC_WriteReg
 7440 29e4 0346     		mov	r3, r0
 7441 29e6 002B     		cmp	r3, #0
 7442 29e8 01D1     		bne	.L484
 7443              		.loc 1 2572 0
 7444 29ea 0023     		movs	r3, #0
 7445 29ec 00E0     		b	.L485
 7446              	.L484:
 7447              		.loc 1 2574 0
 7448 29ee 0123     		movs	r3, #1
 7449              	.L485:
 7450              		.loc 1 2575 0
 7451 29f0 1846     		mov	r0, r3
 7452 29f2 05B0     		add	sp, sp, #20
 7453              		@ sp needed
 7454 29f4 5DF804FB 		ldr	pc, [sp], #4
 7455              		.cfi_endproc
 7456              	.LFE390:
 7457              		.size	LSM303AGR_ACC_W_Int1_6D, .-LSM303AGR_ACC_W_Int1_6D
 7458              		.align	2
 7459 29f8 AFF30080 		.p2align 4,,15
 7459      AFF30080 
ARM GAS  /tmp/cc1ELVNa.s 			page 134


 7460              		.global	LSM303AGR_ACC_R_Int1_6D
 7461              		.thumb
 7462              		.thumb_func
 7463              		.type	LSM303AGR_ACC_R_Int1_6D, %function
 7464              	LSM303AGR_ACC_R_Int1_6D:
 7465              	.LFB391:
 7466              		.loc 1 2585 0
 7467              		.cfi_startproc
 7468              		@ args = 0, pretend = 0, frame = 8
 7469              		@ frame_needed = 0, uses_anonymous_args = 0
 7470 2a00 00B5     		push	{lr}
 7471              		.cfi_def_cfa_offset 4
 7472              		.cfi_offset 14, -4
 7473 2a02 83B0     		sub	sp, sp, #12
 7474              		.cfi_def_cfa_offset 16
 7475 2a04 0190     		str	r0, [sp, #4]
 7476 2a06 0091     		str	r1, [sp]
 7477              		.loc 1 2586 0
 7478 2a08 0198     		ldr	r0, [sp, #4]
 7479 2a0a 3021     		movs	r1, #48
 7480 2a0c 009A     		ldr	r2, [sp]
 7481 2a0e 0123     		movs	r3, #1
 7482 2a10 FFF7FEFF 		bl	LSM303AGR_ACC_ReadReg
 7483 2a14 0346     		mov	r3, r0
 7484 2a16 002B     		cmp	r3, #0
 7485 2a18 01D1     		bne	.L487
 7486              		.loc 1 2587 0
 7487 2a1a 0023     		movs	r3, #0
 7488 2a1c 07E0     		b	.L488
 7489              	.L487:
 7490              		.loc 1 2589 0
 7491 2a1e 009B     		ldr	r3, [sp]
 7492 2a20 1B78     		ldrb	r3, [r3]	@ zero_extendqisi2
 7493 2a22 03F04003 		and	r3, r3, #64
 7494 2a26 DAB2     		uxtb	r2, r3
 7495 2a28 009B     		ldr	r3, [sp]
 7496 2a2a 1A70     		strb	r2, [r3]
 7497              		.loc 1 2591 0
 7498 2a2c 0123     		movs	r3, #1
 7499              	.L488:
 7500              		.loc 1 2592 0
 7501 2a2e 1846     		mov	r0, r3
 7502 2a30 03B0     		add	sp, sp, #12
 7503              		@ sp needed
 7504 2a32 5DF804FB 		ldr	pc, [sp], #4
 7505              		.cfi_endproc
 7506              	.LFE391:
 7507              		.size	LSM303AGR_ACC_R_Int1_6D, .-LSM303AGR_ACC_R_Int1_6D
 7508 2a36 00BF     		.align	2
 7509 2a38 AFF30080 		.p2align 4,,15
 7509      AFF30080 
 7510              		.global	LSM303AGR_ACC_W_Int1_AOI
 7511              		.thumb
 7512              		.thumb_func
 7513              		.type	LSM303AGR_ACC_W_Int1_AOI, %function
 7514              	LSM303AGR_ACC_W_Int1_AOI:
 7515              	.LFB392:
ARM GAS  /tmp/cc1ELVNa.s 			page 135


 7516              		.loc 1 2602 0
 7517              		.cfi_startproc
 7518              		@ args = 0, pretend = 0, frame = 16
 7519              		@ frame_needed = 0, uses_anonymous_args = 0
 7520 2a40 00B5     		push	{lr}
 7521              		.cfi_def_cfa_offset 4
 7522              		.cfi_offset 14, -4
 7523 2a42 85B0     		sub	sp, sp, #20
 7524              		.cfi_def_cfa_offset 24
 7525 2a44 0190     		str	r0, [sp, #4]
 7526 2a46 0B46     		mov	r3, r1
 7527 2a48 8DF80330 		strb	r3, [sp, #3]
 7528              		.loc 1 2605 0
 7529 2a4c 0DF10F03 		add	r3, sp, #15
 7530 2a50 0198     		ldr	r0, [sp, #4]
 7531 2a52 3021     		movs	r1, #48
 7532 2a54 1A46     		mov	r2, r3
 7533 2a56 0123     		movs	r3, #1
 7534 2a58 FFF7FEFF 		bl	LSM303AGR_ACC_ReadReg
 7535 2a5c 0346     		mov	r3, r0
 7536 2a5e 002B     		cmp	r3, #0
 7537 2a60 01D1     		bne	.L490
 7538              		.loc 1 2606 0
 7539 2a62 0023     		movs	r3, #0
 7540 2a64 1CE0     		b	.L493
 7541              	.L490:
 7542              		.loc 1 2608 0
 7543 2a66 9DF80F30 		ldrb	r3, [sp, #15]	@ zero_extendqisi2
 7544 2a6a 03F07F03 		and	r3, r3, #127
 7545 2a6e DBB2     		uxtb	r3, r3
 7546 2a70 8DF80F30 		strb	r3, [sp, #15]
 7547              		.loc 1 2609 0
 7548 2a74 9DF80F20 		ldrb	r2, [sp, #15]	@ zero_extendqisi2
 7549 2a78 9DF80330 		ldrb	r3, [sp, #3]
 7550 2a7c 1343     		orrs	r3, r3, r2
 7551 2a7e DBB2     		uxtb	r3, r3
 7552 2a80 8DF80F30 		strb	r3, [sp, #15]
 7553              		.loc 1 2611 0
 7554 2a84 0DF10F03 		add	r3, sp, #15
 7555 2a88 0198     		ldr	r0, [sp, #4]
 7556 2a8a 3021     		movs	r1, #48
 7557 2a8c 1A46     		mov	r2, r3
 7558 2a8e 0123     		movs	r3, #1
 7559 2a90 FFF7FEFF 		bl	LSM303AGR_ACC_WriteReg
 7560 2a94 0346     		mov	r3, r0
 7561 2a96 002B     		cmp	r3, #0
 7562 2a98 01D1     		bne	.L492
 7563              		.loc 1 2612 0
 7564 2a9a 0023     		movs	r3, #0
 7565 2a9c 00E0     		b	.L493
 7566              	.L492:
 7567              		.loc 1 2614 0
 7568 2a9e 0123     		movs	r3, #1
 7569              	.L493:
 7570              		.loc 1 2615 0
 7571 2aa0 1846     		mov	r0, r3
 7572 2aa2 05B0     		add	sp, sp, #20
ARM GAS  /tmp/cc1ELVNa.s 			page 136


 7573              		@ sp needed
 7574 2aa4 5DF804FB 		ldr	pc, [sp], #4
 7575              		.cfi_endproc
 7576              	.LFE392:
 7577              		.size	LSM303AGR_ACC_W_Int1_AOI, .-LSM303AGR_ACC_W_Int1_AOI
 7578              		.align	2
 7579 2aa8 AFF30080 		.p2align 4,,15
 7579      AFF30080 
 7580              		.global	LSM303AGR_ACC_R_Int1_AOI
 7581              		.thumb
 7582              		.thumb_func
 7583              		.type	LSM303AGR_ACC_R_Int1_AOI, %function
 7584              	LSM303AGR_ACC_R_Int1_AOI:
 7585              	.LFB393:
 7586              		.loc 1 2625 0
 7587              		.cfi_startproc
 7588              		@ args = 0, pretend = 0, frame = 8
 7589              		@ frame_needed = 0, uses_anonymous_args = 0
 7590 2ab0 00B5     		push	{lr}
 7591              		.cfi_def_cfa_offset 4
 7592              		.cfi_offset 14, -4
 7593 2ab2 83B0     		sub	sp, sp, #12
 7594              		.cfi_def_cfa_offset 16
 7595 2ab4 0190     		str	r0, [sp, #4]
 7596 2ab6 0091     		str	r1, [sp]
 7597              		.loc 1 2626 0
 7598 2ab8 0198     		ldr	r0, [sp, #4]
 7599 2aba 3021     		movs	r1, #48
 7600 2abc 009A     		ldr	r2, [sp]
 7601 2abe 0123     		movs	r3, #1
 7602 2ac0 FFF7FEFF 		bl	LSM303AGR_ACC_ReadReg
 7603 2ac4 0346     		mov	r3, r0
 7604 2ac6 002B     		cmp	r3, #0
 7605 2ac8 01D1     		bne	.L495
 7606              		.loc 1 2627 0
 7607 2aca 0023     		movs	r3, #0
 7608 2acc 07E0     		b	.L496
 7609              	.L495:
 7610              		.loc 1 2629 0
 7611 2ace 009B     		ldr	r3, [sp]
 7612 2ad0 1B78     		ldrb	r3, [r3]	@ zero_extendqisi2
 7613 2ad2 23F07F03 		bic	r3, r3, #127
 7614 2ad6 DAB2     		uxtb	r2, r3
 7615 2ad8 009B     		ldr	r3, [sp]
 7616 2ada 1A70     		strb	r2, [r3]
 7617              		.loc 1 2631 0
 7618 2adc 0123     		movs	r3, #1
 7619              	.L496:
 7620              		.loc 1 2632 0
 7621 2ade 1846     		mov	r0, r3
 7622 2ae0 03B0     		add	sp, sp, #12
 7623              		@ sp needed
 7624 2ae2 5DF804FB 		ldr	pc, [sp], #4
 7625              		.cfi_endproc
 7626              	.LFE393:
 7627              		.size	LSM303AGR_ACC_R_Int1_AOI, .-LSM303AGR_ACC_R_Int1_AOI
 7628 2ae6 00BF     		.align	2
ARM GAS  /tmp/cc1ELVNa.s 			page 137


 7629 2ae8 AFF30080 		.p2align 4,,15
 7629      AFF30080 
 7630              		.global	LSM303AGR_ACC_W_Int2EnXLo
 7631              		.thumb
 7632              		.thumb_func
 7633              		.type	LSM303AGR_ACC_W_Int2EnXLo, %function
 7634              	LSM303AGR_ACC_W_Int2EnXLo:
 7635              	.LFB394:
 7636              		.loc 1 2642 0
 7637              		.cfi_startproc
 7638              		@ args = 0, pretend = 0, frame = 16
 7639              		@ frame_needed = 0, uses_anonymous_args = 0
 7640 2af0 00B5     		push	{lr}
 7641              		.cfi_def_cfa_offset 4
 7642              		.cfi_offset 14, -4
 7643 2af2 85B0     		sub	sp, sp, #20
 7644              		.cfi_def_cfa_offset 24
 7645 2af4 0190     		str	r0, [sp, #4]
 7646 2af6 0B46     		mov	r3, r1
 7647 2af8 8DF80330 		strb	r3, [sp, #3]
 7648              		.loc 1 2645 0
 7649 2afc 0DF10F03 		add	r3, sp, #15
 7650 2b00 0198     		ldr	r0, [sp, #4]
 7651 2b02 3421     		movs	r1, #52
 7652 2b04 1A46     		mov	r2, r3
 7653 2b06 0123     		movs	r3, #1
 7654 2b08 FFF7FEFF 		bl	LSM303AGR_ACC_ReadReg
 7655 2b0c 0346     		mov	r3, r0
 7656 2b0e 002B     		cmp	r3, #0
 7657 2b10 01D1     		bne	.L498
 7658              		.loc 1 2646 0
 7659 2b12 0023     		movs	r3, #0
 7660 2b14 1CE0     		b	.L501
 7661              	.L498:
 7662              		.loc 1 2648 0
 7663 2b16 9DF80F30 		ldrb	r3, [sp, #15]	@ zero_extendqisi2
 7664 2b1a 23F00103 		bic	r3, r3, #1
 7665 2b1e DBB2     		uxtb	r3, r3
 7666 2b20 8DF80F30 		strb	r3, [sp, #15]
 7667              		.loc 1 2649 0
 7668 2b24 9DF80F20 		ldrb	r2, [sp, #15]	@ zero_extendqisi2
 7669 2b28 9DF80330 		ldrb	r3, [sp, #3]
 7670 2b2c 1343     		orrs	r3, r3, r2
 7671 2b2e DBB2     		uxtb	r3, r3
 7672 2b30 8DF80F30 		strb	r3, [sp, #15]
 7673              		.loc 1 2651 0
 7674 2b34 0DF10F03 		add	r3, sp, #15
 7675 2b38 0198     		ldr	r0, [sp, #4]
 7676 2b3a 3421     		movs	r1, #52
 7677 2b3c 1A46     		mov	r2, r3
 7678 2b3e 0123     		movs	r3, #1
 7679 2b40 FFF7FEFF 		bl	LSM303AGR_ACC_WriteReg
 7680 2b44 0346     		mov	r3, r0
 7681 2b46 002B     		cmp	r3, #0
 7682 2b48 01D1     		bne	.L500
 7683              		.loc 1 2652 0
 7684 2b4a 0023     		movs	r3, #0
ARM GAS  /tmp/cc1ELVNa.s 			page 138


 7685 2b4c 00E0     		b	.L501
 7686              	.L500:
 7687              		.loc 1 2654 0
 7688 2b4e 0123     		movs	r3, #1
 7689              	.L501:
 7690              		.loc 1 2655 0
 7691 2b50 1846     		mov	r0, r3
 7692 2b52 05B0     		add	sp, sp, #20
 7693              		@ sp needed
 7694 2b54 5DF804FB 		ldr	pc, [sp], #4
 7695              		.cfi_endproc
 7696              	.LFE394:
 7697              		.size	LSM303AGR_ACC_W_Int2EnXLo, .-LSM303AGR_ACC_W_Int2EnXLo
 7698              		.align	2
 7699 2b58 AFF30080 		.p2align 4,,15
 7699      AFF30080 
 7700              		.global	LSM303AGR_ACC_R_Int2EnXLo
 7701              		.thumb
 7702              		.thumb_func
 7703              		.type	LSM303AGR_ACC_R_Int2EnXLo, %function
 7704              	LSM303AGR_ACC_R_Int2EnXLo:
 7705              	.LFB395:
 7706              		.loc 1 2665 0
 7707              		.cfi_startproc
 7708              		@ args = 0, pretend = 0, frame = 8
 7709              		@ frame_needed = 0, uses_anonymous_args = 0
 7710 2b60 00B5     		push	{lr}
 7711              		.cfi_def_cfa_offset 4
 7712              		.cfi_offset 14, -4
 7713 2b62 83B0     		sub	sp, sp, #12
 7714              		.cfi_def_cfa_offset 16
 7715 2b64 0190     		str	r0, [sp, #4]
 7716 2b66 0091     		str	r1, [sp]
 7717              		.loc 1 2666 0
 7718 2b68 0198     		ldr	r0, [sp, #4]
 7719 2b6a 3421     		movs	r1, #52
 7720 2b6c 009A     		ldr	r2, [sp]
 7721 2b6e 0123     		movs	r3, #1
 7722 2b70 FFF7FEFF 		bl	LSM303AGR_ACC_ReadReg
 7723 2b74 0346     		mov	r3, r0
 7724 2b76 002B     		cmp	r3, #0
 7725 2b78 01D1     		bne	.L503
 7726              		.loc 1 2667 0
 7727 2b7a 0023     		movs	r3, #0
 7728 2b7c 07E0     		b	.L504
 7729              	.L503:
 7730              		.loc 1 2669 0
 7731 2b7e 009B     		ldr	r3, [sp]
 7732 2b80 1B78     		ldrb	r3, [r3]	@ zero_extendqisi2
 7733 2b82 03F00103 		and	r3, r3, #1
 7734 2b86 DAB2     		uxtb	r2, r3
 7735 2b88 009B     		ldr	r3, [sp]
 7736 2b8a 1A70     		strb	r2, [r3]
 7737              		.loc 1 2671 0
 7738 2b8c 0123     		movs	r3, #1
 7739              	.L504:
 7740              		.loc 1 2672 0
ARM GAS  /tmp/cc1ELVNa.s 			page 139


 7741 2b8e 1846     		mov	r0, r3
 7742 2b90 03B0     		add	sp, sp, #12
 7743              		@ sp needed
 7744 2b92 5DF804FB 		ldr	pc, [sp], #4
 7745              		.cfi_endproc
 7746              	.LFE395:
 7747              		.size	LSM303AGR_ACC_R_Int2EnXLo, .-LSM303AGR_ACC_R_Int2EnXLo
 7748 2b96 00BF     		.align	2
 7749 2b98 AFF30080 		.p2align 4,,15
 7749      AFF30080 
 7750              		.global	LSM303AGR_ACC_W_Int2EnXHi
 7751              		.thumb
 7752              		.thumb_func
 7753              		.type	LSM303AGR_ACC_W_Int2EnXHi, %function
 7754              	LSM303AGR_ACC_W_Int2EnXHi:
 7755              	.LFB396:
 7756              		.loc 1 2682 0
 7757              		.cfi_startproc
 7758              		@ args = 0, pretend = 0, frame = 16
 7759              		@ frame_needed = 0, uses_anonymous_args = 0
 7760 2ba0 00B5     		push	{lr}
 7761              		.cfi_def_cfa_offset 4
 7762              		.cfi_offset 14, -4
 7763 2ba2 85B0     		sub	sp, sp, #20
 7764              		.cfi_def_cfa_offset 24
 7765 2ba4 0190     		str	r0, [sp, #4]
 7766 2ba6 0B46     		mov	r3, r1
 7767 2ba8 8DF80330 		strb	r3, [sp, #3]
 7768              		.loc 1 2685 0
 7769 2bac 0DF10F03 		add	r3, sp, #15
 7770 2bb0 0198     		ldr	r0, [sp, #4]
 7771 2bb2 3421     		movs	r1, #52
 7772 2bb4 1A46     		mov	r2, r3
 7773 2bb6 0123     		movs	r3, #1
 7774 2bb8 FFF7FEFF 		bl	LSM303AGR_ACC_ReadReg
 7775 2bbc 0346     		mov	r3, r0
 7776 2bbe 002B     		cmp	r3, #0
 7777 2bc0 01D1     		bne	.L506
 7778              		.loc 1 2686 0
 7779 2bc2 0023     		movs	r3, #0
 7780 2bc4 1CE0     		b	.L509
 7781              	.L506:
 7782              		.loc 1 2688 0
 7783 2bc6 9DF80F30 		ldrb	r3, [sp, #15]	@ zero_extendqisi2
 7784 2bca 23F00203 		bic	r3, r3, #2
 7785 2bce DBB2     		uxtb	r3, r3
 7786 2bd0 8DF80F30 		strb	r3, [sp, #15]
 7787              		.loc 1 2689 0
 7788 2bd4 9DF80F20 		ldrb	r2, [sp, #15]	@ zero_extendqisi2
 7789 2bd8 9DF80330 		ldrb	r3, [sp, #3]
 7790 2bdc 1343     		orrs	r3, r3, r2
 7791 2bde DBB2     		uxtb	r3, r3
 7792 2be0 8DF80F30 		strb	r3, [sp, #15]
 7793              		.loc 1 2691 0
 7794 2be4 0DF10F03 		add	r3, sp, #15
 7795 2be8 0198     		ldr	r0, [sp, #4]
 7796 2bea 3421     		movs	r1, #52
ARM GAS  /tmp/cc1ELVNa.s 			page 140


 7797 2bec 1A46     		mov	r2, r3
 7798 2bee 0123     		movs	r3, #1
 7799 2bf0 FFF7FEFF 		bl	LSM303AGR_ACC_WriteReg
 7800 2bf4 0346     		mov	r3, r0
 7801 2bf6 002B     		cmp	r3, #0
 7802 2bf8 01D1     		bne	.L508
 7803              		.loc 1 2692 0
 7804 2bfa 0023     		movs	r3, #0
 7805 2bfc 00E0     		b	.L509
 7806              	.L508:
 7807              		.loc 1 2694 0
 7808 2bfe 0123     		movs	r3, #1
 7809              	.L509:
 7810              		.loc 1 2695 0
 7811 2c00 1846     		mov	r0, r3
 7812 2c02 05B0     		add	sp, sp, #20
 7813              		@ sp needed
 7814 2c04 5DF804FB 		ldr	pc, [sp], #4
 7815              		.cfi_endproc
 7816              	.LFE396:
 7817              		.size	LSM303AGR_ACC_W_Int2EnXHi, .-LSM303AGR_ACC_W_Int2EnXHi
 7818              		.align	2
 7819 2c08 AFF30080 		.p2align 4,,15
 7819      AFF30080 
 7820              		.global	LSM303AGR_ACC_R_Int2EnXHi
 7821              		.thumb
 7822              		.thumb_func
 7823              		.type	LSM303AGR_ACC_R_Int2EnXHi, %function
 7824              	LSM303AGR_ACC_R_Int2EnXHi:
 7825              	.LFB397:
 7826              		.loc 1 2705 0
 7827              		.cfi_startproc
 7828              		@ args = 0, pretend = 0, frame = 8
 7829              		@ frame_needed = 0, uses_anonymous_args = 0
 7830 2c10 00B5     		push	{lr}
 7831              		.cfi_def_cfa_offset 4
 7832              		.cfi_offset 14, -4
 7833 2c12 83B0     		sub	sp, sp, #12
 7834              		.cfi_def_cfa_offset 16
 7835 2c14 0190     		str	r0, [sp, #4]
 7836 2c16 0091     		str	r1, [sp]
 7837              		.loc 1 2706 0
 7838 2c18 0198     		ldr	r0, [sp, #4]
 7839 2c1a 3421     		movs	r1, #52
 7840 2c1c 009A     		ldr	r2, [sp]
 7841 2c1e 0123     		movs	r3, #1
 7842 2c20 FFF7FEFF 		bl	LSM303AGR_ACC_ReadReg
 7843 2c24 0346     		mov	r3, r0
 7844 2c26 002B     		cmp	r3, #0
 7845 2c28 01D1     		bne	.L511
 7846              		.loc 1 2707 0
 7847 2c2a 0023     		movs	r3, #0
 7848 2c2c 07E0     		b	.L512
 7849              	.L511:
 7850              		.loc 1 2709 0
 7851 2c2e 009B     		ldr	r3, [sp]
 7852 2c30 1B78     		ldrb	r3, [r3]	@ zero_extendqisi2
ARM GAS  /tmp/cc1ELVNa.s 			page 141


 7853 2c32 03F00203 		and	r3, r3, #2
 7854 2c36 DAB2     		uxtb	r2, r3
 7855 2c38 009B     		ldr	r3, [sp]
 7856 2c3a 1A70     		strb	r2, [r3]
 7857              		.loc 1 2711 0
 7858 2c3c 0123     		movs	r3, #1
 7859              	.L512:
 7860              		.loc 1 2712 0
 7861 2c3e 1846     		mov	r0, r3
 7862 2c40 03B0     		add	sp, sp, #12
 7863              		@ sp needed
 7864 2c42 5DF804FB 		ldr	pc, [sp], #4
 7865              		.cfi_endproc
 7866              	.LFE397:
 7867              		.size	LSM303AGR_ACC_R_Int2EnXHi, .-LSM303AGR_ACC_R_Int2EnXHi
 7868 2c46 00BF     		.align	2
 7869 2c48 AFF30080 		.p2align 4,,15
 7869      AFF30080 
 7870              		.global	LSM303AGR_ACC_W_Int2EnYLo
 7871              		.thumb
 7872              		.thumb_func
 7873              		.type	LSM303AGR_ACC_W_Int2EnYLo, %function
 7874              	LSM303AGR_ACC_W_Int2EnYLo:
 7875              	.LFB398:
 7876              		.loc 1 2722 0
 7877              		.cfi_startproc
 7878              		@ args = 0, pretend = 0, frame = 16
 7879              		@ frame_needed = 0, uses_anonymous_args = 0
 7880 2c50 00B5     		push	{lr}
 7881              		.cfi_def_cfa_offset 4
 7882              		.cfi_offset 14, -4
 7883 2c52 85B0     		sub	sp, sp, #20
 7884              		.cfi_def_cfa_offset 24
 7885 2c54 0190     		str	r0, [sp, #4]
 7886 2c56 0B46     		mov	r3, r1
 7887 2c58 8DF80330 		strb	r3, [sp, #3]
 7888              		.loc 1 2725 0
 7889 2c5c 0DF10F03 		add	r3, sp, #15
 7890 2c60 0198     		ldr	r0, [sp, #4]
 7891 2c62 3421     		movs	r1, #52
 7892 2c64 1A46     		mov	r2, r3
 7893 2c66 0123     		movs	r3, #1
 7894 2c68 FFF7FEFF 		bl	LSM303AGR_ACC_ReadReg
 7895 2c6c 0346     		mov	r3, r0
 7896 2c6e 002B     		cmp	r3, #0
 7897 2c70 01D1     		bne	.L514
 7898              		.loc 1 2726 0
 7899 2c72 0023     		movs	r3, #0
 7900 2c74 1CE0     		b	.L517
 7901              	.L514:
 7902              		.loc 1 2728 0
 7903 2c76 9DF80F30 		ldrb	r3, [sp, #15]	@ zero_extendqisi2
 7904 2c7a 23F00403 		bic	r3, r3, #4
 7905 2c7e DBB2     		uxtb	r3, r3
 7906 2c80 8DF80F30 		strb	r3, [sp, #15]
 7907              		.loc 1 2729 0
 7908 2c84 9DF80F20 		ldrb	r2, [sp, #15]	@ zero_extendqisi2
ARM GAS  /tmp/cc1ELVNa.s 			page 142


 7909 2c88 9DF80330 		ldrb	r3, [sp, #3]
 7910 2c8c 1343     		orrs	r3, r3, r2
 7911 2c8e DBB2     		uxtb	r3, r3
 7912 2c90 8DF80F30 		strb	r3, [sp, #15]
 7913              		.loc 1 2731 0
 7914 2c94 0DF10F03 		add	r3, sp, #15
 7915 2c98 0198     		ldr	r0, [sp, #4]
 7916 2c9a 3421     		movs	r1, #52
 7917 2c9c 1A46     		mov	r2, r3
 7918 2c9e 0123     		movs	r3, #1
 7919 2ca0 FFF7FEFF 		bl	LSM303AGR_ACC_WriteReg
 7920 2ca4 0346     		mov	r3, r0
 7921 2ca6 002B     		cmp	r3, #0
 7922 2ca8 01D1     		bne	.L516
 7923              		.loc 1 2732 0
 7924 2caa 0023     		movs	r3, #0
 7925 2cac 00E0     		b	.L517
 7926              	.L516:
 7927              		.loc 1 2734 0
 7928 2cae 0123     		movs	r3, #1
 7929              	.L517:
 7930              		.loc 1 2735 0
 7931 2cb0 1846     		mov	r0, r3
 7932 2cb2 05B0     		add	sp, sp, #20
 7933              		@ sp needed
 7934 2cb4 5DF804FB 		ldr	pc, [sp], #4
 7935              		.cfi_endproc
 7936              	.LFE398:
 7937              		.size	LSM303AGR_ACC_W_Int2EnYLo, .-LSM303AGR_ACC_W_Int2EnYLo
 7938              		.align	2
 7939 2cb8 AFF30080 		.p2align 4,,15
 7939      AFF30080 
 7940              		.global	LSM303AGR_ACC_R_Int2EnYLo
 7941              		.thumb
 7942              		.thumb_func
 7943              		.type	LSM303AGR_ACC_R_Int2EnYLo, %function
 7944              	LSM303AGR_ACC_R_Int2EnYLo:
 7945              	.LFB399:
 7946              		.loc 1 2745 0
 7947              		.cfi_startproc
 7948              		@ args = 0, pretend = 0, frame = 8
 7949              		@ frame_needed = 0, uses_anonymous_args = 0
 7950 2cc0 00B5     		push	{lr}
 7951              		.cfi_def_cfa_offset 4
 7952              		.cfi_offset 14, -4
 7953 2cc2 83B0     		sub	sp, sp, #12
 7954              		.cfi_def_cfa_offset 16
 7955 2cc4 0190     		str	r0, [sp, #4]
 7956 2cc6 0091     		str	r1, [sp]
 7957              		.loc 1 2746 0
 7958 2cc8 0198     		ldr	r0, [sp, #4]
 7959 2cca 3421     		movs	r1, #52
 7960 2ccc 009A     		ldr	r2, [sp]
 7961 2cce 0123     		movs	r3, #1
 7962 2cd0 FFF7FEFF 		bl	LSM303AGR_ACC_ReadReg
 7963 2cd4 0346     		mov	r3, r0
 7964 2cd6 002B     		cmp	r3, #0
ARM GAS  /tmp/cc1ELVNa.s 			page 143


 7965 2cd8 01D1     		bne	.L519
 7966              		.loc 1 2747 0
 7967 2cda 0023     		movs	r3, #0
 7968 2cdc 07E0     		b	.L520
 7969              	.L519:
 7970              		.loc 1 2749 0
 7971 2cde 009B     		ldr	r3, [sp]
 7972 2ce0 1B78     		ldrb	r3, [r3]	@ zero_extendqisi2
 7973 2ce2 03F00403 		and	r3, r3, #4
 7974 2ce6 DAB2     		uxtb	r2, r3
 7975 2ce8 009B     		ldr	r3, [sp]
 7976 2cea 1A70     		strb	r2, [r3]
 7977              		.loc 1 2751 0
 7978 2cec 0123     		movs	r3, #1
 7979              	.L520:
 7980              		.loc 1 2752 0
 7981 2cee 1846     		mov	r0, r3
 7982 2cf0 03B0     		add	sp, sp, #12
 7983              		@ sp needed
 7984 2cf2 5DF804FB 		ldr	pc, [sp], #4
 7985              		.cfi_endproc
 7986              	.LFE399:
 7987              		.size	LSM303AGR_ACC_R_Int2EnYLo, .-LSM303AGR_ACC_R_Int2EnYLo
 7988 2cf6 00BF     		.align	2
 7989 2cf8 AFF30080 		.p2align 4,,15
 7989      AFF30080 
 7990              		.global	LSM303AGR_ACC_W_Int2EnYHi
 7991              		.thumb
 7992              		.thumb_func
 7993              		.type	LSM303AGR_ACC_W_Int2EnYHi, %function
 7994              	LSM303AGR_ACC_W_Int2EnYHi:
 7995              	.LFB400:
 7996              		.loc 1 2762 0
 7997              		.cfi_startproc
 7998              		@ args = 0, pretend = 0, frame = 16
 7999              		@ frame_needed = 0, uses_anonymous_args = 0
 8000 2d00 00B5     		push	{lr}
 8001              		.cfi_def_cfa_offset 4
 8002              		.cfi_offset 14, -4
 8003 2d02 85B0     		sub	sp, sp, #20
 8004              		.cfi_def_cfa_offset 24
 8005 2d04 0190     		str	r0, [sp, #4]
 8006 2d06 0B46     		mov	r3, r1
 8007 2d08 8DF80330 		strb	r3, [sp, #3]
 8008              		.loc 1 2765 0
 8009 2d0c 0DF10F03 		add	r3, sp, #15
 8010 2d10 0198     		ldr	r0, [sp, #4]
 8011 2d12 3421     		movs	r1, #52
 8012 2d14 1A46     		mov	r2, r3
 8013 2d16 0123     		movs	r3, #1
 8014 2d18 FFF7FEFF 		bl	LSM303AGR_ACC_ReadReg
 8015 2d1c 0346     		mov	r3, r0
 8016 2d1e 002B     		cmp	r3, #0
 8017 2d20 01D1     		bne	.L522
 8018              		.loc 1 2766 0
 8019 2d22 0023     		movs	r3, #0
 8020 2d24 1CE0     		b	.L525
ARM GAS  /tmp/cc1ELVNa.s 			page 144


 8021              	.L522:
 8022              		.loc 1 2768 0
 8023 2d26 9DF80F30 		ldrb	r3, [sp, #15]	@ zero_extendqisi2
 8024 2d2a 23F00803 		bic	r3, r3, #8
 8025 2d2e DBB2     		uxtb	r3, r3
 8026 2d30 8DF80F30 		strb	r3, [sp, #15]
 8027              		.loc 1 2769 0
 8028 2d34 9DF80F20 		ldrb	r2, [sp, #15]	@ zero_extendqisi2
 8029 2d38 9DF80330 		ldrb	r3, [sp, #3]
 8030 2d3c 1343     		orrs	r3, r3, r2
 8031 2d3e DBB2     		uxtb	r3, r3
 8032 2d40 8DF80F30 		strb	r3, [sp, #15]
 8033              		.loc 1 2771 0
 8034 2d44 0DF10F03 		add	r3, sp, #15
 8035 2d48 0198     		ldr	r0, [sp, #4]
 8036 2d4a 3421     		movs	r1, #52
 8037 2d4c 1A46     		mov	r2, r3
 8038 2d4e 0123     		movs	r3, #1
 8039 2d50 FFF7FEFF 		bl	LSM303AGR_ACC_WriteReg
 8040 2d54 0346     		mov	r3, r0
 8041 2d56 002B     		cmp	r3, #0
 8042 2d58 01D1     		bne	.L524
 8043              		.loc 1 2772 0
 8044 2d5a 0023     		movs	r3, #0
 8045 2d5c 00E0     		b	.L525
 8046              	.L524:
 8047              		.loc 1 2774 0
 8048 2d5e 0123     		movs	r3, #1
 8049              	.L525:
 8050              		.loc 1 2775 0
 8051 2d60 1846     		mov	r0, r3
 8052 2d62 05B0     		add	sp, sp, #20
 8053              		@ sp needed
 8054 2d64 5DF804FB 		ldr	pc, [sp], #4
 8055              		.cfi_endproc
 8056              	.LFE400:
 8057              		.size	LSM303AGR_ACC_W_Int2EnYHi, .-LSM303AGR_ACC_W_Int2EnYHi
 8058              		.align	2
 8059 2d68 AFF30080 		.p2align 4,,15
 8059      AFF30080 
 8060              		.global	LSM303AGR_ACC_R_Int2EnYHi
 8061              		.thumb
 8062              		.thumb_func
 8063              		.type	LSM303AGR_ACC_R_Int2EnYHi, %function
 8064              	LSM303AGR_ACC_R_Int2EnYHi:
 8065              	.LFB401:
 8066              		.loc 1 2785 0
 8067              		.cfi_startproc
 8068              		@ args = 0, pretend = 0, frame = 8
 8069              		@ frame_needed = 0, uses_anonymous_args = 0
 8070 2d70 00B5     		push	{lr}
 8071              		.cfi_def_cfa_offset 4
 8072              		.cfi_offset 14, -4
 8073 2d72 83B0     		sub	sp, sp, #12
 8074              		.cfi_def_cfa_offset 16
 8075 2d74 0190     		str	r0, [sp, #4]
 8076 2d76 0091     		str	r1, [sp]
ARM GAS  /tmp/cc1ELVNa.s 			page 145


 8077              		.loc 1 2786 0
 8078 2d78 0198     		ldr	r0, [sp, #4]
 8079 2d7a 3421     		movs	r1, #52
 8080 2d7c 009A     		ldr	r2, [sp]
 8081 2d7e 0123     		movs	r3, #1
 8082 2d80 FFF7FEFF 		bl	LSM303AGR_ACC_ReadReg
 8083 2d84 0346     		mov	r3, r0
 8084 2d86 002B     		cmp	r3, #0
 8085 2d88 01D1     		bne	.L527
 8086              		.loc 1 2787 0
 8087 2d8a 0023     		movs	r3, #0
 8088 2d8c 07E0     		b	.L528
 8089              	.L527:
 8090              		.loc 1 2789 0
 8091 2d8e 009B     		ldr	r3, [sp]
 8092 2d90 1B78     		ldrb	r3, [r3]	@ zero_extendqisi2
 8093 2d92 03F00803 		and	r3, r3, #8
 8094 2d96 DAB2     		uxtb	r2, r3
 8095 2d98 009B     		ldr	r3, [sp]
 8096 2d9a 1A70     		strb	r2, [r3]
 8097              		.loc 1 2791 0
 8098 2d9c 0123     		movs	r3, #1
 8099              	.L528:
 8100              		.loc 1 2792 0
 8101 2d9e 1846     		mov	r0, r3
 8102 2da0 03B0     		add	sp, sp, #12
 8103              		@ sp needed
 8104 2da2 5DF804FB 		ldr	pc, [sp], #4
 8105              		.cfi_endproc
 8106              	.LFE401:
 8107              		.size	LSM303AGR_ACC_R_Int2EnYHi, .-LSM303AGR_ACC_R_Int2EnYHi
 8108 2da6 00BF     		.align	2
 8109 2da8 AFF30080 		.p2align 4,,15
 8109      AFF30080 
 8110              		.global	LSM303AGR_ACC_W_Int2EnZLo
 8111              		.thumb
 8112              		.thumb_func
 8113              		.type	LSM303AGR_ACC_W_Int2EnZLo, %function
 8114              	LSM303AGR_ACC_W_Int2EnZLo:
 8115              	.LFB402:
 8116              		.loc 1 2802 0
 8117              		.cfi_startproc
 8118              		@ args = 0, pretend = 0, frame = 16
 8119              		@ frame_needed = 0, uses_anonymous_args = 0
 8120 2db0 00B5     		push	{lr}
 8121              		.cfi_def_cfa_offset 4
 8122              		.cfi_offset 14, -4
 8123 2db2 85B0     		sub	sp, sp, #20
 8124              		.cfi_def_cfa_offset 24
 8125 2db4 0190     		str	r0, [sp, #4]
 8126 2db6 0B46     		mov	r3, r1
 8127 2db8 8DF80330 		strb	r3, [sp, #3]
 8128              		.loc 1 2805 0
 8129 2dbc 0DF10F03 		add	r3, sp, #15
 8130 2dc0 0198     		ldr	r0, [sp, #4]
 8131 2dc2 3421     		movs	r1, #52
 8132 2dc4 1A46     		mov	r2, r3
ARM GAS  /tmp/cc1ELVNa.s 			page 146


 8133 2dc6 0123     		movs	r3, #1
 8134 2dc8 FFF7FEFF 		bl	LSM303AGR_ACC_ReadReg
 8135 2dcc 0346     		mov	r3, r0
 8136 2dce 002B     		cmp	r3, #0
 8137 2dd0 01D1     		bne	.L530
 8138              		.loc 1 2806 0
 8139 2dd2 0023     		movs	r3, #0
 8140 2dd4 1CE0     		b	.L533
 8141              	.L530:
 8142              		.loc 1 2808 0
 8143 2dd6 9DF80F30 		ldrb	r3, [sp, #15]	@ zero_extendqisi2
 8144 2dda 23F01003 		bic	r3, r3, #16
 8145 2dde DBB2     		uxtb	r3, r3
 8146 2de0 8DF80F30 		strb	r3, [sp, #15]
 8147              		.loc 1 2809 0
 8148 2de4 9DF80F20 		ldrb	r2, [sp, #15]	@ zero_extendqisi2
 8149 2de8 9DF80330 		ldrb	r3, [sp, #3]
 8150 2dec 1343     		orrs	r3, r3, r2
 8151 2dee DBB2     		uxtb	r3, r3
 8152 2df0 8DF80F30 		strb	r3, [sp, #15]
 8153              		.loc 1 2811 0
 8154 2df4 0DF10F03 		add	r3, sp, #15
 8155 2df8 0198     		ldr	r0, [sp, #4]
 8156 2dfa 3421     		movs	r1, #52
 8157 2dfc 1A46     		mov	r2, r3
 8158 2dfe 0123     		movs	r3, #1
 8159 2e00 FFF7FEFF 		bl	LSM303AGR_ACC_WriteReg
 8160 2e04 0346     		mov	r3, r0
 8161 2e06 002B     		cmp	r3, #0
 8162 2e08 01D1     		bne	.L532
 8163              		.loc 1 2812 0
 8164 2e0a 0023     		movs	r3, #0
 8165 2e0c 00E0     		b	.L533
 8166              	.L532:
 8167              		.loc 1 2814 0
 8168 2e0e 0123     		movs	r3, #1
 8169              	.L533:
 8170              		.loc 1 2815 0
 8171 2e10 1846     		mov	r0, r3
 8172 2e12 05B0     		add	sp, sp, #20
 8173              		@ sp needed
 8174 2e14 5DF804FB 		ldr	pc, [sp], #4
 8175              		.cfi_endproc
 8176              	.LFE402:
 8177              		.size	LSM303AGR_ACC_W_Int2EnZLo, .-LSM303AGR_ACC_W_Int2EnZLo
 8178              		.align	2
 8179 2e18 AFF30080 		.p2align 4,,15
 8179      AFF30080 
 8180              		.global	LSM303AGR_ACC_R_Int2EnZLo
 8181              		.thumb
 8182              		.thumb_func
 8183              		.type	LSM303AGR_ACC_R_Int2EnZLo, %function
 8184              	LSM303AGR_ACC_R_Int2EnZLo:
 8185              	.LFB403:
 8186              		.loc 1 2825 0
 8187              		.cfi_startproc
 8188              		@ args = 0, pretend = 0, frame = 8
ARM GAS  /tmp/cc1ELVNa.s 			page 147


 8189              		@ frame_needed = 0, uses_anonymous_args = 0
 8190 2e20 00B5     		push	{lr}
 8191              		.cfi_def_cfa_offset 4
 8192              		.cfi_offset 14, -4
 8193 2e22 83B0     		sub	sp, sp, #12
 8194              		.cfi_def_cfa_offset 16
 8195 2e24 0190     		str	r0, [sp, #4]
 8196 2e26 0091     		str	r1, [sp]
 8197              		.loc 1 2826 0
 8198 2e28 0198     		ldr	r0, [sp, #4]
 8199 2e2a 3421     		movs	r1, #52
 8200 2e2c 009A     		ldr	r2, [sp]
 8201 2e2e 0123     		movs	r3, #1
 8202 2e30 FFF7FEFF 		bl	LSM303AGR_ACC_ReadReg
 8203 2e34 0346     		mov	r3, r0
 8204 2e36 002B     		cmp	r3, #0
 8205 2e38 01D1     		bne	.L535
 8206              		.loc 1 2827 0
 8207 2e3a 0023     		movs	r3, #0
 8208 2e3c 07E0     		b	.L536
 8209              	.L535:
 8210              		.loc 1 2829 0
 8211 2e3e 009B     		ldr	r3, [sp]
 8212 2e40 1B78     		ldrb	r3, [r3]	@ zero_extendqisi2
 8213 2e42 03F01003 		and	r3, r3, #16
 8214 2e46 DAB2     		uxtb	r2, r3
 8215 2e48 009B     		ldr	r3, [sp]
 8216 2e4a 1A70     		strb	r2, [r3]
 8217              		.loc 1 2831 0
 8218 2e4c 0123     		movs	r3, #1
 8219              	.L536:
 8220              		.loc 1 2832 0
 8221 2e4e 1846     		mov	r0, r3
 8222 2e50 03B0     		add	sp, sp, #12
 8223              		@ sp needed
 8224 2e52 5DF804FB 		ldr	pc, [sp], #4
 8225              		.cfi_endproc
 8226              	.LFE403:
 8227              		.size	LSM303AGR_ACC_R_Int2EnZLo, .-LSM303AGR_ACC_R_Int2EnZLo
 8228 2e56 00BF     		.align	2
 8229 2e58 AFF30080 		.p2align 4,,15
 8229      AFF30080 
 8230              		.global	LSM303AGR_ACC_W_Int2EnZHi
 8231              		.thumb
 8232              		.thumb_func
 8233              		.type	LSM303AGR_ACC_W_Int2EnZHi, %function
 8234              	LSM303AGR_ACC_W_Int2EnZHi:
 8235              	.LFB404:
 8236              		.loc 1 2842 0
 8237              		.cfi_startproc
 8238              		@ args = 0, pretend = 0, frame = 16
 8239              		@ frame_needed = 0, uses_anonymous_args = 0
 8240 2e60 00B5     		push	{lr}
 8241              		.cfi_def_cfa_offset 4
 8242              		.cfi_offset 14, -4
 8243 2e62 85B0     		sub	sp, sp, #20
 8244              		.cfi_def_cfa_offset 24
ARM GAS  /tmp/cc1ELVNa.s 			page 148


 8245 2e64 0190     		str	r0, [sp, #4]
 8246 2e66 0B46     		mov	r3, r1
 8247 2e68 8DF80330 		strb	r3, [sp, #3]
 8248              		.loc 1 2845 0
 8249 2e6c 0DF10F03 		add	r3, sp, #15
 8250 2e70 0198     		ldr	r0, [sp, #4]
 8251 2e72 3421     		movs	r1, #52
 8252 2e74 1A46     		mov	r2, r3
 8253 2e76 0123     		movs	r3, #1
 8254 2e78 FFF7FEFF 		bl	LSM303AGR_ACC_ReadReg
 8255 2e7c 0346     		mov	r3, r0
 8256 2e7e 002B     		cmp	r3, #0
 8257 2e80 01D1     		bne	.L538
 8258              		.loc 1 2846 0
 8259 2e82 0023     		movs	r3, #0
 8260 2e84 1CE0     		b	.L541
 8261              	.L538:
 8262              		.loc 1 2848 0
 8263 2e86 9DF80F30 		ldrb	r3, [sp, #15]	@ zero_extendqisi2
 8264 2e8a 23F02003 		bic	r3, r3, #32
 8265 2e8e DBB2     		uxtb	r3, r3
 8266 2e90 8DF80F30 		strb	r3, [sp, #15]
 8267              		.loc 1 2849 0
 8268 2e94 9DF80F20 		ldrb	r2, [sp, #15]	@ zero_extendqisi2
 8269 2e98 9DF80330 		ldrb	r3, [sp, #3]
 8270 2e9c 1343     		orrs	r3, r3, r2
 8271 2e9e DBB2     		uxtb	r3, r3
 8272 2ea0 8DF80F30 		strb	r3, [sp, #15]
 8273              		.loc 1 2851 0
 8274 2ea4 0DF10F03 		add	r3, sp, #15
 8275 2ea8 0198     		ldr	r0, [sp, #4]
 8276 2eaa 3421     		movs	r1, #52
 8277 2eac 1A46     		mov	r2, r3
 8278 2eae 0123     		movs	r3, #1
 8279 2eb0 FFF7FEFF 		bl	LSM303AGR_ACC_WriteReg
 8280 2eb4 0346     		mov	r3, r0
 8281 2eb6 002B     		cmp	r3, #0
 8282 2eb8 01D1     		bne	.L540
 8283              		.loc 1 2852 0
 8284 2eba 0023     		movs	r3, #0
 8285 2ebc 00E0     		b	.L541
 8286              	.L540:
 8287              		.loc 1 2854 0
 8288 2ebe 0123     		movs	r3, #1
 8289              	.L541:
 8290              		.loc 1 2855 0
 8291 2ec0 1846     		mov	r0, r3
 8292 2ec2 05B0     		add	sp, sp, #20
 8293              		@ sp needed
 8294 2ec4 5DF804FB 		ldr	pc, [sp], #4
 8295              		.cfi_endproc
 8296              	.LFE404:
 8297              		.size	LSM303AGR_ACC_W_Int2EnZHi, .-LSM303AGR_ACC_W_Int2EnZHi
 8298              		.align	2
 8299 2ec8 AFF30080 		.p2align 4,,15
 8299      AFF30080 
 8300              		.global	LSM303AGR_ACC_R_Int2EnZHi
ARM GAS  /tmp/cc1ELVNa.s 			page 149


 8301              		.thumb
 8302              		.thumb_func
 8303              		.type	LSM303AGR_ACC_R_Int2EnZHi, %function
 8304              	LSM303AGR_ACC_R_Int2EnZHi:
 8305              	.LFB405:
 8306              		.loc 1 2865 0
 8307              		.cfi_startproc
 8308              		@ args = 0, pretend = 0, frame = 8
 8309              		@ frame_needed = 0, uses_anonymous_args = 0
 8310 2ed0 00B5     		push	{lr}
 8311              		.cfi_def_cfa_offset 4
 8312              		.cfi_offset 14, -4
 8313 2ed2 83B0     		sub	sp, sp, #12
 8314              		.cfi_def_cfa_offset 16
 8315 2ed4 0190     		str	r0, [sp, #4]
 8316 2ed6 0091     		str	r1, [sp]
 8317              		.loc 1 2866 0
 8318 2ed8 0198     		ldr	r0, [sp, #4]
 8319 2eda 3421     		movs	r1, #52
 8320 2edc 009A     		ldr	r2, [sp]
 8321 2ede 0123     		movs	r3, #1
 8322 2ee0 FFF7FEFF 		bl	LSM303AGR_ACC_ReadReg
 8323 2ee4 0346     		mov	r3, r0
 8324 2ee6 002B     		cmp	r3, #0
 8325 2ee8 01D1     		bne	.L543
 8326              		.loc 1 2867 0
 8327 2eea 0023     		movs	r3, #0
 8328 2eec 07E0     		b	.L544
 8329              	.L543:
 8330              		.loc 1 2869 0
 8331 2eee 009B     		ldr	r3, [sp]
 8332 2ef0 1B78     		ldrb	r3, [r3]	@ zero_extendqisi2
 8333 2ef2 03F02003 		and	r3, r3, #32
 8334 2ef6 DAB2     		uxtb	r2, r3
 8335 2ef8 009B     		ldr	r3, [sp]
 8336 2efa 1A70     		strb	r2, [r3]
 8337              		.loc 1 2871 0
 8338 2efc 0123     		movs	r3, #1
 8339              	.L544:
 8340              		.loc 1 2872 0
 8341 2efe 1846     		mov	r0, r3
 8342 2f00 03B0     		add	sp, sp, #12
 8343              		@ sp needed
 8344 2f02 5DF804FB 		ldr	pc, [sp], #4
 8345              		.cfi_endproc
 8346              	.LFE405:
 8347              		.size	LSM303AGR_ACC_R_Int2EnZHi, .-LSM303AGR_ACC_R_Int2EnZHi
 8348 2f06 00BF     		.align	2
 8349 2f08 AFF30080 		.p2align 4,,15
 8349      AFF30080 
 8350              		.global	LSM303AGR_ACC_W_Int2_6D
 8351              		.thumb
 8352              		.thumb_func
 8353              		.type	LSM303AGR_ACC_W_Int2_6D, %function
 8354              	LSM303AGR_ACC_W_Int2_6D:
 8355              	.LFB406:
 8356              		.loc 1 2882 0
ARM GAS  /tmp/cc1ELVNa.s 			page 150


 8357              		.cfi_startproc
 8358              		@ args = 0, pretend = 0, frame = 16
 8359              		@ frame_needed = 0, uses_anonymous_args = 0
 8360 2f10 00B5     		push	{lr}
 8361              		.cfi_def_cfa_offset 4
 8362              		.cfi_offset 14, -4
 8363 2f12 85B0     		sub	sp, sp, #20
 8364              		.cfi_def_cfa_offset 24
 8365 2f14 0190     		str	r0, [sp, #4]
 8366 2f16 0B46     		mov	r3, r1
 8367 2f18 8DF80330 		strb	r3, [sp, #3]
 8368              		.loc 1 2885 0
 8369 2f1c 0DF10F03 		add	r3, sp, #15
 8370 2f20 0198     		ldr	r0, [sp, #4]
 8371 2f22 3421     		movs	r1, #52
 8372 2f24 1A46     		mov	r2, r3
 8373 2f26 0123     		movs	r3, #1
 8374 2f28 FFF7FEFF 		bl	LSM303AGR_ACC_ReadReg
 8375 2f2c 0346     		mov	r3, r0
 8376 2f2e 002B     		cmp	r3, #0
 8377 2f30 01D1     		bne	.L546
 8378              		.loc 1 2886 0
 8379 2f32 0023     		movs	r3, #0
 8380 2f34 1CE0     		b	.L549
 8381              	.L546:
 8382              		.loc 1 2888 0
 8383 2f36 9DF80F30 		ldrb	r3, [sp, #15]	@ zero_extendqisi2
 8384 2f3a 23F04003 		bic	r3, r3, #64
 8385 2f3e DBB2     		uxtb	r3, r3
 8386 2f40 8DF80F30 		strb	r3, [sp, #15]
 8387              		.loc 1 2889 0
 8388 2f44 9DF80F20 		ldrb	r2, [sp, #15]	@ zero_extendqisi2
 8389 2f48 9DF80330 		ldrb	r3, [sp, #3]
 8390 2f4c 1343     		orrs	r3, r3, r2
 8391 2f4e DBB2     		uxtb	r3, r3
 8392 2f50 8DF80F30 		strb	r3, [sp, #15]
 8393              		.loc 1 2891 0
 8394 2f54 0DF10F03 		add	r3, sp, #15
 8395 2f58 0198     		ldr	r0, [sp, #4]
 8396 2f5a 3421     		movs	r1, #52
 8397 2f5c 1A46     		mov	r2, r3
 8398 2f5e 0123     		movs	r3, #1
 8399 2f60 FFF7FEFF 		bl	LSM303AGR_ACC_WriteReg
 8400 2f64 0346     		mov	r3, r0
 8401 2f66 002B     		cmp	r3, #0
 8402 2f68 01D1     		bne	.L548
 8403              		.loc 1 2892 0
 8404 2f6a 0023     		movs	r3, #0
 8405 2f6c 00E0     		b	.L549
 8406              	.L548:
 8407              		.loc 1 2894 0
 8408 2f6e 0123     		movs	r3, #1
 8409              	.L549:
 8410              		.loc 1 2895 0
 8411 2f70 1846     		mov	r0, r3
 8412 2f72 05B0     		add	sp, sp, #20
 8413              		@ sp needed
ARM GAS  /tmp/cc1ELVNa.s 			page 151


 8414 2f74 5DF804FB 		ldr	pc, [sp], #4
 8415              		.cfi_endproc
 8416              	.LFE406:
 8417              		.size	LSM303AGR_ACC_W_Int2_6D, .-LSM303AGR_ACC_W_Int2_6D
 8418              		.align	2
 8419 2f78 AFF30080 		.p2align 4,,15
 8419      AFF30080 
 8420              		.global	LSM303AGR_ACC_R_Int2_6D
 8421              		.thumb
 8422              		.thumb_func
 8423              		.type	LSM303AGR_ACC_R_Int2_6D, %function
 8424              	LSM303AGR_ACC_R_Int2_6D:
 8425              	.LFB407:
 8426              		.loc 1 2905 0
 8427              		.cfi_startproc
 8428              		@ args = 0, pretend = 0, frame = 8
 8429              		@ frame_needed = 0, uses_anonymous_args = 0
 8430 2f80 00B5     		push	{lr}
 8431              		.cfi_def_cfa_offset 4
 8432              		.cfi_offset 14, -4
 8433 2f82 83B0     		sub	sp, sp, #12
 8434              		.cfi_def_cfa_offset 16
 8435 2f84 0190     		str	r0, [sp, #4]
 8436 2f86 0091     		str	r1, [sp]
 8437              		.loc 1 2906 0
 8438 2f88 0198     		ldr	r0, [sp, #4]
 8439 2f8a 3421     		movs	r1, #52
 8440 2f8c 009A     		ldr	r2, [sp]
 8441 2f8e 0123     		movs	r3, #1
 8442 2f90 FFF7FEFF 		bl	LSM303AGR_ACC_ReadReg
 8443 2f94 0346     		mov	r3, r0
 8444 2f96 002B     		cmp	r3, #0
 8445 2f98 01D1     		bne	.L551
 8446              		.loc 1 2907 0
 8447 2f9a 0023     		movs	r3, #0
 8448 2f9c 07E0     		b	.L552
 8449              	.L551:
 8450              		.loc 1 2909 0
 8451 2f9e 009B     		ldr	r3, [sp]
 8452 2fa0 1B78     		ldrb	r3, [r3]	@ zero_extendqisi2
 8453 2fa2 03F04003 		and	r3, r3, #64
 8454 2fa6 DAB2     		uxtb	r2, r3
 8455 2fa8 009B     		ldr	r3, [sp]
 8456 2faa 1A70     		strb	r2, [r3]
 8457              		.loc 1 2911 0
 8458 2fac 0123     		movs	r3, #1
 8459              	.L552:
 8460              		.loc 1 2912 0
 8461 2fae 1846     		mov	r0, r3
 8462 2fb0 03B0     		add	sp, sp, #12
 8463              		@ sp needed
 8464 2fb2 5DF804FB 		ldr	pc, [sp], #4
 8465              		.cfi_endproc
 8466              	.LFE407:
 8467              		.size	LSM303AGR_ACC_R_Int2_6D, .-LSM303AGR_ACC_R_Int2_6D
 8468 2fb6 00BF     		.align	2
 8469 2fb8 AFF30080 		.p2align 4,,15
ARM GAS  /tmp/cc1ELVNa.s 			page 152


 8469      AFF30080 
 8470              		.global	LSM303AGR_ACC_W_Int2_AOI
 8471              		.thumb
 8472              		.thumb_func
 8473              		.type	LSM303AGR_ACC_W_Int2_AOI, %function
 8474              	LSM303AGR_ACC_W_Int2_AOI:
 8475              	.LFB408:
 8476              		.loc 1 2922 0
 8477              		.cfi_startproc
 8478              		@ args = 0, pretend = 0, frame = 16
 8479              		@ frame_needed = 0, uses_anonymous_args = 0
 8480 2fc0 00B5     		push	{lr}
 8481              		.cfi_def_cfa_offset 4
 8482              		.cfi_offset 14, -4
 8483 2fc2 85B0     		sub	sp, sp, #20
 8484              		.cfi_def_cfa_offset 24
 8485 2fc4 0190     		str	r0, [sp, #4]
 8486 2fc6 0B46     		mov	r3, r1
 8487 2fc8 8DF80330 		strb	r3, [sp, #3]
 8488              		.loc 1 2925 0
 8489 2fcc 0DF10F03 		add	r3, sp, #15
 8490 2fd0 0198     		ldr	r0, [sp, #4]
 8491 2fd2 3421     		movs	r1, #52
 8492 2fd4 1A46     		mov	r2, r3
 8493 2fd6 0123     		movs	r3, #1
 8494 2fd8 FFF7FEFF 		bl	LSM303AGR_ACC_ReadReg
 8495 2fdc 0346     		mov	r3, r0
 8496 2fde 002B     		cmp	r3, #0
 8497 2fe0 01D1     		bne	.L554
 8498              		.loc 1 2926 0
 8499 2fe2 0023     		movs	r3, #0
 8500 2fe4 1CE0     		b	.L557
 8501              	.L554:
 8502              		.loc 1 2928 0
 8503 2fe6 9DF80F30 		ldrb	r3, [sp, #15]	@ zero_extendqisi2
 8504 2fea 03F07F03 		and	r3, r3, #127
 8505 2fee DBB2     		uxtb	r3, r3
 8506 2ff0 8DF80F30 		strb	r3, [sp, #15]
 8507              		.loc 1 2929 0
 8508 2ff4 9DF80F20 		ldrb	r2, [sp, #15]	@ zero_extendqisi2
 8509 2ff8 9DF80330 		ldrb	r3, [sp, #3]
 8510 2ffc 1343     		orrs	r3, r3, r2
 8511 2ffe DBB2     		uxtb	r3, r3
 8512 3000 8DF80F30 		strb	r3, [sp, #15]
 8513              		.loc 1 2931 0
 8514 3004 0DF10F03 		add	r3, sp, #15
 8515 3008 0198     		ldr	r0, [sp, #4]
 8516 300a 3421     		movs	r1, #52
 8517 300c 1A46     		mov	r2, r3
 8518 300e 0123     		movs	r3, #1
 8519 3010 FFF7FEFF 		bl	LSM303AGR_ACC_WriteReg
 8520 3014 0346     		mov	r3, r0
 8521 3016 002B     		cmp	r3, #0
 8522 3018 01D1     		bne	.L556
 8523              		.loc 1 2932 0
 8524 301a 0023     		movs	r3, #0
 8525 301c 00E0     		b	.L557
ARM GAS  /tmp/cc1ELVNa.s 			page 153


 8526              	.L556:
 8527              		.loc 1 2934 0
 8528 301e 0123     		movs	r3, #1
 8529              	.L557:
 8530              		.loc 1 2935 0
 8531 3020 1846     		mov	r0, r3
 8532 3022 05B0     		add	sp, sp, #20
 8533              		@ sp needed
 8534 3024 5DF804FB 		ldr	pc, [sp], #4
 8535              		.cfi_endproc
 8536              	.LFE408:
 8537              		.size	LSM303AGR_ACC_W_Int2_AOI, .-LSM303AGR_ACC_W_Int2_AOI
 8538              		.align	2
 8539 3028 AFF30080 		.p2align 4,,15
 8539      AFF30080 
 8540              		.global	LSM303AGR_ACC_R_Int2_AOI
 8541              		.thumb
 8542              		.thumb_func
 8543              		.type	LSM303AGR_ACC_R_Int2_AOI, %function
 8544              	LSM303AGR_ACC_R_Int2_AOI:
 8545              	.LFB409:
 8546              		.loc 1 2945 0
 8547              		.cfi_startproc
 8548              		@ args = 0, pretend = 0, frame = 8
 8549              		@ frame_needed = 0, uses_anonymous_args = 0
 8550 3030 00B5     		push	{lr}
 8551              		.cfi_def_cfa_offset 4
 8552              		.cfi_offset 14, -4
 8553 3032 83B0     		sub	sp, sp, #12
 8554              		.cfi_def_cfa_offset 16
 8555 3034 0190     		str	r0, [sp, #4]
 8556 3036 0091     		str	r1, [sp]
 8557              		.loc 1 2946 0
 8558 3038 0198     		ldr	r0, [sp, #4]
 8559 303a 3421     		movs	r1, #52
 8560 303c 009A     		ldr	r2, [sp]
 8561 303e 0123     		movs	r3, #1
 8562 3040 FFF7FEFF 		bl	LSM303AGR_ACC_ReadReg
 8563 3044 0346     		mov	r3, r0
 8564 3046 002B     		cmp	r3, #0
 8565 3048 01D1     		bne	.L559
 8566              		.loc 1 2947 0
 8567 304a 0023     		movs	r3, #0
 8568 304c 07E0     		b	.L560
 8569              	.L559:
 8570              		.loc 1 2949 0
 8571 304e 009B     		ldr	r3, [sp]
 8572 3050 1B78     		ldrb	r3, [r3]	@ zero_extendqisi2
 8573 3052 23F07F03 		bic	r3, r3, #127
 8574 3056 DAB2     		uxtb	r2, r3
 8575 3058 009B     		ldr	r3, [sp]
 8576 305a 1A70     		strb	r2, [r3]
 8577              		.loc 1 2951 0
 8578 305c 0123     		movs	r3, #1
 8579              	.L560:
 8580              		.loc 1 2952 0
 8581 305e 1846     		mov	r0, r3
ARM GAS  /tmp/cc1ELVNa.s 			page 154


 8582 3060 03B0     		add	sp, sp, #12
 8583              		@ sp needed
 8584 3062 5DF804FB 		ldr	pc, [sp], #4
 8585              		.cfi_endproc
 8586              	.LFE409:
 8587              		.size	LSM303AGR_ACC_R_Int2_AOI, .-LSM303AGR_ACC_R_Int2_AOI
 8588 3066 00BF     		.align	2
 8589 3068 AFF30080 		.p2align 4,,15
 8589      AFF30080 
 8590              		.global	LSM303AGR_ACC_R_Int1_Xlo
 8591              		.thumb
 8592              		.thumb_func
 8593              		.type	LSM303AGR_ACC_R_Int1_Xlo, %function
 8594              	LSM303AGR_ACC_R_Int1_Xlo:
 8595              	.LFB410:
 8596              		.loc 1 2962 0
 8597              		.cfi_startproc
 8598              		@ args = 0, pretend = 0, frame = 8
 8599              		@ frame_needed = 0, uses_anonymous_args = 0
 8600 3070 00B5     		push	{lr}
 8601              		.cfi_def_cfa_offset 4
 8602              		.cfi_offset 14, -4
 8603 3072 83B0     		sub	sp, sp, #12
 8604              		.cfi_def_cfa_offset 16
 8605 3074 0190     		str	r0, [sp, #4]
 8606 3076 0091     		str	r1, [sp]
 8607              		.loc 1 2963 0
 8608 3078 0198     		ldr	r0, [sp, #4]
 8609 307a 3121     		movs	r1, #49
 8610 307c 009A     		ldr	r2, [sp]
 8611 307e 0123     		movs	r3, #1
 8612 3080 FFF7FEFF 		bl	LSM303AGR_ACC_ReadReg
 8613 3084 0346     		mov	r3, r0
 8614 3086 002B     		cmp	r3, #0
 8615 3088 01D1     		bne	.L562
 8616              		.loc 1 2964 0
 8617 308a 0023     		movs	r3, #0
 8618 308c 07E0     		b	.L563
 8619              	.L562:
 8620              		.loc 1 2966 0
 8621 308e 009B     		ldr	r3, [sp]
 8622 3090 1B78     		ldrb	r3, [r3]	@ zero_extendqisi2
 8623 3092 03F00103 		and	r3, r3, #1
 8624 3096 DAB2     		uxtb	r2, r3
 8625 3098 009B     		ldr	r3, [sp]
 8626 309a 1A70     		strb	r2, [r3]
 8627              		.loc 1 2968 0
 8628 309c 0123     		movs	r3, #1
 8629              	.L563:
 8630              		.loc 1 2969 0
 8631 309e 1846     		mov	r0, r3
 8632 30a0 03B0     		add	sp, sp, #12
 8633              		@ sp needed
 8634 30a2 5DF804FB 		ldr	pc, [sp], #4
 8635              		.cfi_endproc
 8636              	.LFE410:
 8637              		.size	LSM303AGR_ACC_R_Int1_Xlo, .-LSM303AGR_ACC_R_Int1_Xlo
ARM GAS  /tmp/cc1ELVNa.s 			page 155


 8638 30a6 00BF     		.align	2
 8639 30a8 AFF30080 		.p2align 4,,15
 8639      AFF30080 
 8640              		.global	LSM303AGR_ACC_R_Int1_XHi
 8641              		.thumb
 8642              		.thumb_func
 8643              		.type	LSM303AGR_ACC_R_Int1_XHi, %function
 8644              	LSM303AGR_ACC_R_Int1_XHi:
 8645              	.LFB411:
 8646              		.loc 1 2979 0
 8647              		.cfi_startproc
 8648              		@ args = 0, pretend = 0, frame = 8
 8649              		@ frame_needed = 0, uses_anonymous_args = 0
 8650 30b0 00B5     		push	{lr}
 8651              		.cfi_def_cfa_offset 4
 8652              		.cfi_offset 14, -4
 8653 30b2 83B0     		sub	sp, sp, #12
 8654              		.cfi_def_cfa_offset 16
 8655 30b4 0190     		str	r0, [sp, #4]
 8656 30b6 0091     		str	r1, [sp]
 8657              		.loc 1 2980 0
 8658 30b8 0198     		ldr	r0, [sp, #4]
 8659 30ba 3121     		movs	r1, #49
 8660 30bc 009A     		ldr	r2, [sp]
 8661 30be 0123     		movs	r3, #1
 8662 30c0 FFF7FEFF 		bl	LSM303AGR_ACC_ReadReg
 8663 30c4 0346     		mov	r3, r0
 8664 30c6 002B     		cmp	r3, #0
 8665 30c8 01D1     		bne	.L565
 8666              		.loc 1 2981 0
 8667 30ca 0023     		movs	r3, #0
 8668 30cc 07E0     		b	.L566
 8669              	.L565:
 8670              		.loc 1 2983 0
 8671 30ce 009B     		ldr	r3, [sp]
 8672 30d0 1B78     		ldrb	r3, [r3]	@ zero_extendqisi2
 8673 30d2 03F00203 		and	r3, r3, #2
 8674 30d6 DAB2     		uxtb	r2, r3
 8675 30d8 009B     		ldr	r3, [sp]
 8676 30da 1A70     		strb	r2, [r3]
 8677              		.loc 1 2985 0
 8678 30dc 0123     		movs	r3, #1
 8679              	.L566:
 8680              		.loc 1 2986 0
 8681 30de 1846     		mov	r0, r3
 8682 30e0 03B0     		add	sp, sp, #12
 8683              		@ sp needed
 8684 30e2 5DF804FB 		ldr	pc, [sp], #4
 8685              		.cfi_endproc
 8686              	.LFE411:
 8687              		.size	LSM303AGR_ACC_R_Int1_XHi, .-LSM303AGR_ACC_R_Int1_XHi
 8688 30e6 00BF     		.align	2
 8689 30e8 AFF30080 		.p2align 4,,15
 8689      AFF30080 
 8690              		.global	LSM303AGR_ACC_R_Int1_YLo
 8691              		.thumb
 8692              		.thumb_func
ARM GAS  /tmp/cc1ELVNa.s 			page 156


 8693              		.type	LSM303AGR_ACC_R_Int1_YLo, %function
 8694              	LSM303AGR_ACC_R_Int1_YLo:
 8695              	.LFB412:
 8696              		.loc 1 2996 0
 8697              		.cfi_startproc
 8698              		@ args = 0, pretend = 0, frame = 8
 8699              		@ frame_needed = 0, uses_anonymous_args = 0
 8700 30f0 00B5     		push	{lr}
 8701              		.cfi_def_cfa_offset 4
 8702              		.cfi_offset 14, -4
 8703 30f2 83B0     		sub	sp, sp, #12
 8704              		.cfi_def_cfa_offset 16
 8705 30f4 0190     		str	r0, [sp, #4]
 8706 30f6 0091     		str	r1, [sp]
 8707              		.loc 1 2997 0
 8708 30f8 0198     		ldr	r0, [sp, #4]
 8709 30fa 3121     		movs	r1, #49
 8710 30fc 009A     		ldr	r2, [sp]
 8711 30fe 0123     		movs	r3, #1
 8712 3100 FFF7FEFF 		bl	LSM303AGR_ACC_ReadReg
 8713 3104 0346     		mov	r3, r0
 8714 3106 002B     		cmp	r3, #0
 8715 3108 01D1     		bne	.L568
 8716              		.loc 1 2998 0
 8717 310a 0023     		movs	r3, #0
 8718 310c 07E0     		b	.L569
 8719              	.L568:
 8720              		.loc 1 3000 0
 8721 310e 009B     		ldr	r3, [sp]
 8722 3110 1B78     		ldrb	r3, [r3]	@ zero_extendqisi2
 8723 3112 03F00403 		and	r3, r3, #4
 8724 3116 DAB2     		uxtb	r2, r3
 8725 3118 009B     		ldr	r3, [sp]
 8726 311a 1A70     		strb	r2, [r3]
 8727              		.loc 1 3002 0
 8728 311c 0123     		movs	r3, #1
 8729              	.L569:
 8730              		.loc 1 3003 0
 8731 311e 1846     		mov	r0, r3
 8732 3120 03B0     		add	sp, sp, #12
 8733              		@ sp needed
 8734 3122 5DF804FB 		ldr	pc, [sp], #4
 8735              		.cfi_endproc
 8736              	.LFE412:
 8737              		.size	LSM303AGR_ACC_R_Int1_YLo, .-LSM303AGR_ACC_R_Int1_YLo
 8738 3126 00BF     		.align	2
 8739 3128 AFF30080 		.p2align 4,,15
 8739      AFF30080 
 8740              		.global	LSM303AGR_ACC_R_Int1_YHi
 8741              		.thumb
 8742              		.thumb_func
 8743              		.type	LSM303AGR_ACC_R_Int1_YHi, %function
 8744              	LSM303AGR_ACC_R_Int1_YHi:
 8745              	.LFB413:
 8746              		.loc 1 3013 0
 8747              		.cfi_startproc
 8748              		@ args = 0, pretend = 0, frame = 8
ARM GAS  /tmp/cc1ELVNa.s 			page 157


 8749              		@ frame_needed = 0, uses_anonymous_args = 0
 8750 3130 00B5     		push	{lr}
 8751              		.cfi_def_cfa_offset 4
 8752              		.cfi_offset 14, -4
 8753 3132 83B0     		sub	sp, sp, #12
 8754              		.cfi_def_cfa_offset 16
 8755 3134 0190     		str	r0, [sp, #4]
 8756 3136 0091     		str	r1, [sp]
 8757              		.loc 1 3014 0
 8758 3138 0198     		ldr	r0, [sp, #4]
 8759 313a 3121     		movs	r1, #49
 8760 313c 009A     		ldr	r2, [sp]
 8761 313e 0123     		movs	r3, #1
 8762 3140 FFF7FEFF 		bl	LSM303AGR_ACC_ReadReg
 8763 3144 0346     		mov	r3, r0
 8764 3146 002B     		cmp	r3, #0
 8765 3148 01D1     		bne	.L571
 8766              		.loc 1 3015 0
 8767 314a 0023     		movs	r3, #0
 8768 314c 07E0     		b	.L572
 8769              	.L571:
 8770              		.loc 1 3017 0
 8771 314e 009B     		ldr	r3, [sp]
 8772 3150 1B78     		ldrb	r3, [r3]	@ zero_extendqisi2
 8773 3152 03F00803 		and	r3, r3, #8
 8774 3156 DAB2     		uxtb	r2, r3
 8775 3158 009B     		ldr	r3, [sp]
 8776 315a 1A70     		strb	r2, [r3]
 8777              		.loc 1 3019 0
 8778 315c 0123     		movs	r3, #1
 8779              	.L572:
 8780              		.loc 1 3020 0
 8781 315e 1846     		mov	r0, r3
 8782 3160 03B0     		add	sp, sp, #12
 8783              		@ sp needed
 8784 3162 5DF804FB 		ldr	pc, [sp], #4
 8785              		.cfi_endproc
 8786              	.LFE413:
 8787              		.size	LSM303AGR_ACC_R_Int1_YHi, .-LSM303AGR_ACC_R_Int1_YHi
 8788 3166 00BF     		.align	2
 8789 3168 AFF30080 		.p2align 4,,15
 8789      AFF30080 
 8790              		.global	LSM303AGR_ACC_R_Int1_Zlo
 8791              		.thumb
 8792              		.thumb_func
 8793              		.type	LSM303AGR_ACC_R_Int1_Zlo, %function
 8794              	LSM303AGR_ACC_R_Int1_Zlo:
 8795              	.LFB414:
 8796              		.loc 1 3030 0
 8797              		.cfi_startproc
 8798              		@ args = 0, pretend = 0, frame = 8
 8799              		@ frame_needed = 0, uses_anonymous_args = 0
 8800 3170 00B5     		push	{lr}
 8801              		.cfi_def_cfa_offset 4
 8802              		.cfi_offset 14, -4
 8803 3172 83B0     		sub	sp, sp, #12
 8804              		.cfi_def_cfa_offset 16
ARM GAS  /tmp/cc1ELVNa.s 			page 158


 8805 3174 0190     		str	r0, [sp, #4]
 8806 3176 0091     		str	r1, [sp]
 8807              		.loc 1 3031 0
 8808 3178 0198     		ldr	r0, [sp, #4]
 8809 317a 3121     		movs	r1, #49
 8810 317c 009A     		ldr	r2, [sp]
 8811 317e 0123     		movs	r3, #1
 8812 3180 FFF7FEFF 		bl	LSM303AGR_ACC_ReadReg
 8813 3184 0346     		mov	r3, r0
 8814 3186 002B     		cmp	r3, #0
 8815 3188 01D1     		bne	.L574
 8816              		.loc 1 3032 0
 8817 318a 0023     		movs	r3, #0
 8818 318c 07E0     		b	.L575
 8819              	.L574:
 8820              		.loc 1 3034 0
 8821 318e 009B     		ldr	r3, [sp]
 8822 3190 1B78     		ldrb	r3, [r3]	@ zero_extendqisi2
 8823 3192 03F01003 		and	r3, r3, #16
 8824 3196 DAB2     		uxtb	r2, r3
 8825 3198 009B     		ldr	r3, [sp]
 8826 319a 1A70     		strb	r2, [r3]
 8827              		.loc 1 3036 0
 8828 319c 0123     		movs	r3, #1
 8829              	.L575:
 8830              		.loc 1 3037 0
 8831 319e 1846     		mov	r0, r3
 8832 31a0 03B0     		add	sp, sp, #12
 8833              		@ sp needed
 8834 31a2 5DF804FB 		ldr	pc, [sp], #4
 8835              		.cfi_endproc
 8836              	.LFE414:
 8837              		.size	LSM303AGR_ACC_R_Int1_Zlo, .-LSM303AGR_ACC_R_Int1_Zlo
 8838 31a6 00BF     		.align	2
 8839 31a8 AFF30080 		.p2align 4,,15
 8839      AFF30080 
 8840              		.global	LSM303AGR_ACC_R_Int1_ZHi
 8841              		.thumb
 8842              		.thumb_func
 8843              		.type	LSM303AGR_ACC_R_Int1_ZHi, %function
 8844              	LSM303AGR_ACC_R_Int1_ZHi:
 8845              	.LFB415:
 8846              		.loc 1 3047 0
 8847              		.cfi_startproc
 8848              		@ args = 0, pretend = 0, frame = 8
 8849              		@ frame_needed = 0, uses_anonymous_args = 0
 8850 31b0 00B5     		push	{lr}
 8851              		.cfi_def_cfa_offset 4
 8852              		.cfi_offset 14, -4
 8853 31b2 83B0     		sub	sp, sp, #12
 8854              		.cfi_def_cfa_offset 16
 8855 31b4 0190     		str	r0, [sp, #4]
 8856 31b6 0091     		str	r1, [sp]
 8857              		.loc 1 3048 0
 8858 31b8 0198     		ldr	r0, [sp, #4]
 8859 31ba 3121     		movs	r1, #49
 8860 31bc 009A     		ldr	r2, [sp]
ARM GAS  /tmp/cc1ELVNa.s 			page 159


 8861 31be 0123     		movs	r3, #1
 8862 31c0 FFF7FEFF 		bl	LSM303AGR_ACC_ReadReg
 8863 31c4 0346     		mov	r3, r0
 8864 31c6 002B     		cmp	r3, #0
 8865 31c8 01D1     		bne	.L577
 8866              		.loc 1 3049 0
 8867 31ca 0023     		movs	r3, #0
 8868 31cc 07E0     		b	.L578
 8869              	.L577:
 8870              		.loc 1 3051 0
 8871 31ce 009B     		ldr	r3, [sp]
 8872 31d0 1B78     		ldrb	r3, [r3]	@ zero_extendqisi2
 8873 31d2 03F02003 		and	r3, r3, #32
 8874 31d6 DAB2     		uxtb	r2, r3
 8875 31d8 009B     		ldr	r3, [sp]
 8876 31da 1A70     		strb	r2, [r3]
 8877              		.loc 1 3053 0
 8878 31dc 0123     		movs	r3, #1
 8879              	.L578:
 8880              		.loc 1 3054 0
 8881 31de 1846     		mov	r0, r3
 8882 31e0 03B0     		add	sp, sp, #12
 8883              		@ sp needed
 8884 31e2 5DF804FB 		ldr	pc, [sp], #4
 8885              		.cfi_endproc
 8886              	.LFE415:
 8887              		.size	LSM303AGR_ACC_R_Int1_ZHi, .-LSM303AGR_ACC_R_Int1_ZHi
 8888 31e6 00BF     		.align	2
 8889 31e8 AFF30080 		.p2align 4,,15
 8889      AFF30080 
 8890              		.global	LSM303AGR_ACC_R_Int1_IA
 8891              		.thumb
 8892              		.thumb_func
 8893              		.type	LSM303AGR_ACC_R_Int1_IA, %function
 8894              	LSM303AGR_ACC_R_Int1_IA:
 8895              	.LFB416:
 8896              		.loc 1 3064 0
 8897              		.cfi_startproc
 8898              		@ args = 0, pretend = 0, frame = 8
 8899              		@ frame_needed = 0, uses_anonymous_args = 0
 8900 31f0 00B5     		push	{lr}
 8901              		.cfi_def_cfa_offset 4
 8902              		.cfi_offset 14, -4
 8903 31f2 83B0     		sub	sp, sp, #12
 8904              		.cfi_def_cfa_offset 16
 8905 31f4 0190     		str	r0, [sp, #4]
 8906 31f6 0091     		str	r1, [sp]
 8907              		.loc 1 3065 0
 8908 31f8 0198     		ldr	r0, [sp, #4]
 8909 31fa 3121     		movs	r1, #49
 8910 31fc 009A     		ldr	r2, [sp]
 8911 31fe 0123     		movs	r3, #1
 8912 3200 FFF7FEFF 		bl	LSM303AGR_ACC_ReadReg
 8913 3204 0346     		mov	r3, r0
 8914 3206 002B     		cmp	r3, #0
 8915 3208 01D1     		bne	.L580
 8916              		.loc 1 3066 0
ARM GAS  /tmp/cc1ELVNa.s 			page 160


 8917 320a 0023     		movs	r3, #0
 8918 320c 07E0     		b	.L581
 8919              	.L580:
 8920              		.loc 1 3068 0
 8921 320e 009B     		ldr	r3, [sp]
 8922 3210 1B78     		ldrb	r3, [r3]	@ zero_extendqisi2
 8923 3212 03F04003 		and	r3, r3, #64
 8924 3216 DAB2     		uxtb	r2, r3
 8925 3218 009B     		ldr	r3, [sp]
 8926 321a 1A70     		strb	r2, [r3]
 8927              		.loc 1 3070 0
 8928 321c 0123     		movs	r3, #1
 8929              	.L581:
 8930              		.loc 1 3071 0
 8931 321e 1846     		mov	r0, r3
 8932 3220 03B0     		add	sp, sp, #12
 8933              		@ sp needed
 8934 3222 5DF804FB 		ldr	pc, [sp], #4
 8935              		.cfi_endproc
 8936              	.LFE416:
 8937              		.size	LSM303AGR_ACC_R_Int1_IA, .-LSM303AGR_ACC_R_Int1_IA
 8938 3226 00BF     		.align	2
 8939 3228 AFF30080 		.p2align 4,,15
 8939      AFF30080 
 8940              		.global	LSM303AGR_ACC_R_Int2_Xlo
 8941              		.thumb
 8942              		.thumb_func
 8943              		.type	LSM303AGR_ACC_R_Int2_Xlo, %function
 8944              	LSM303AGR_ACC_R_Int2_Xlo:
 8945              	.LFB417:
 8946              		.loc 1 3081 0
 8947              		.cfi_startproc
 8948              		@ args = 0, pretend = 0, frame = 8
 8949              		@ frame_needed = 0, uses_anonymous_args = 0
 8950 3230 00B5     		push	{lr}
 8951              		.cfi_def_cfa_offset 4
 8952              		.cfi_offset 14, -4
 8953 3232 83B0     		sub	sp, sp, #12
 8954              		.cfi_def_cfa_offset 16
 8955 3234 0190     		str	r0, [sp, #4]
 8956 3236 0091     		str	r1, [sp]
 8957              		.loc 1 3082 0
 8958 3238 0198     		ldr	r0, [sp, #4]
 8959 323a 3521     		movs	r1, #53
 8960 323c 009A     		ldr	r2, [sp]
 8961 323e 0123     		movs	r3, #1
 8962 3240 FFF7FEFF 		bl	LSM303AGR_ACC_ReadReg
 8963 3244 0346     		mov	r3, r0
 8964 3246 002B     		cmp	r3, #0
 8965 3248 01D1     		bne	.L583
 8966              		.loc 1 3083 0
 8967 324a 0023     		movs	r3, #0
 8968 324c 07E0     		b	.L584
 8969              	.L583:
 8970              		.loc 1 3085 0
 8971 324e 009B     		ldr	r3, [sp]
 8972 3250 1B78     		ldrb	r3, [r3]	@ zero_extendqisi2
ARM GAS  /tmp/cc1ELVNa.s 			page 161


 8973 3252 03F00103 		and	r3, r3, #1
 8974 3256 DAB2     		uxtb	r2, r3
 8975 3258 009B     		ldr	r3, [sp]
 8976 325a 1A70     		strb	r2, [r3]
 8977              		.loc 1 3087 0
 8978 325c 0123     		movs	r3, #1
 8979              	.L584:
 8980              		.loc 1 3088 0
 8981 325e 1846     		mov	r0, r3
 8982 3260 03B0     		add	sp, sp, #12
 8983              		@ sp needed
 8984 3262 5DF804FB 		ldr	pc, [sp], #4
 8985              		.cfi_endproc
 8986              	.LFE417:
 8987              		.size	LSM303AGR_ACC_R_Int2_Xlo, .-LSM303AGR_ACC_R_Int2_Xlo
 8988 3266 00BF     		.align	2
 8989 3268 AFF30080 		.p2align 4,,15
 8989      AFF30080 
 8990              		.global	LSM303AGR_ACC_R_Int2_XHi
 8991              		.thumb
 8992              		.thumb_func
 8993              		.type	LSM303AGR_ACC_R_Int2_XHi, %function
 8994              	LSM303AGR_ACC_R_Int2_XHi:
 8995              	.LFB418:
 8996              		.loc 1 3098 0
 8997              		.cfi_startproc
 8998              		@ args = 0, pretend = 0, frame = 8
 8999              		@ frame_needed = 0, uses_anonymous_args = 0
 9000 3270 00B5     		push	{lr}
 9001              		.cfi_def_cfa_offset 4
 9002              		.cfi_offset 14, -4
 9003 3272 83B0     		sub	sp, sp, #12
 9004              		.cfi_def_cfa_offset 16
 9005 3274 0190     		str	r0, [sp, #4]
 9006 3276 0091     		str	r1, [sp]
 9007              		.loc 1 3099 0
 9008 3278 0198     		ldr	r0, [sp, #4]
 9009 327a 3521     		movs	r1, #53
 9010 327c 009A     		ldr	r2, [sp]
 9011 327e 0123     		movs	r3, #1
 9012 3280 FFF7FEFF 		bl	LSM303AGR_ACC_ReadReg
 9013 3284 0346     		mov	r3, r0
 9014 3286 002B     		cmp	r3, #0
 9015 3288 01D1     		bne	.L586
 9016              		.loc 1 3100 0
 9017 328a 0023     		movs	r3, #0
 9018 328c 07E0     		b	.L587
 9019              	.L586:
 9020              		.loc 1 3102 0
 9021 328e 009B     		ldr	r3, [sp]
 9022 3290 1B78     		ldrb	r3, [r3]	@ zero_extendqisi2
 9023 3292 03F00203 		and	r3, r3, #2
 9024 3296 DAB2     		uxtb	r2, r3
 9025 3298 009B     		ldr	r3, [sp]
 9026 329a 1A70     		strb	r2, [r3]
 9027              		.loc 1 3104 0
 9028 329c 0123     		movs	r3, #1
ARM GAS  /tmp/cc1ELVNa.s 			page 162


 9029              	.L587:
 9030              		.loc 1 3105 0
 9031 329e 1846     		mov	r0, r3
 9032 32a0 03B0     		add	sp, sp, #12
 9033              		@ sp needed
 9034 32a2 5DF804FB 		ldr	pc, [sp], #4
 9035              		.cfi_endproc
 9036              	.LFE418:
 9037              		.size	LSM303AGR_ACC_R_Int2_XHi, .-LSM303AGR_ACC_R_Int2_XHi
 9038 32a6 00BF     		.align	2
 9039 32a8 AFF30080 		.p2align 4,,15
 9039      AFF30080 
 9040              		.global	LSM303AGR_ACC_R_Int2_YLo
 9041              		.thumb
 9042              		.thumb_func
 9043              		.type	LSM303AGR_ACC_R_Int2_YLo, %function
 9044              	LSM303AGR_ACC_R_Int2_YLo:
 9045              	.LFB419:
 9046              		.loc 1 3115 0
 9047              		.cfi_startproc
 9048              		@ args = 0, pretend = 0, frame = 8
 9049              		@ frame_needed = 0, uses_anonymous_args = 0
 9050 32b0 00B5     		push	{lr}
 9051              		.cfi_def_cfa_offset 4
 9052              		.cfi_offset 14, -4
 9053 32b2 83B0     		sub	sp, sp, #12
 9054              		.cfi_def_cfa_offset 16
 9055 32b4 0190     		str	r0, [sp, #4]
 9056 32b6 0091     		str	r1, [sp]
 9057              		.loc 1 3116 0
 9058 32b8 0198     		ldr	r0, [sp, #4]
 9059 32ba 3521     		movs	r1, #53
 9060 32bc 009A     		ldr	r2, [sp]
 9061 32be 0123     		movs	r3, #1
 9062 32c0 FFF7FEFF 		bl	LSM303AGR_ACC_ReadReg
 9063 32c4 0346     		mov	r3, r0
 9064 32c6 002B     		cmp	r3, #0
 9065 32c8 01D1     		bne	.L589
 9066              		.loc 1 3117 0
 9067 32ca 0023     		movs	r3, #0
 9068 32cc 07E0     		b	.L590
 9069              	.L589:
 9070              		.loc 1 3119 0
 9071 32ce 009B     		ldr	r3, [sp]
 9072 32d0 1B78     		ldrb	r3, [r3]	@ zero_extendqisi2
 9073 32d2 03F00403 		and	r3, r3, #4
 9074 32d6 DAB2     		uxtb	r2, r3
 9075 32d8 009B     		ldr	r3, [sp]
 9076 32da 1A70     		strb	r2, [r3]
 9077              		.loc 1 3121 0
 9078 32dc 0123     		movs	r3, #1
 9079              	.L590:
 9080              		.loc 1 3122 0
 9081 32de 1846     		mov	r0, r3
 9082 32e0 03B0     		add	sp, sp, #12
 9083              		@ sp needed
 9084 32e2 5DF804FB 		ldr	pc, [sp], #4
ARM GAS  /tmp/cc1ELVNa.s 			page 163


 9085              		.cfi_endproc
 9086              	.LFE419:
 9087              		.size	LSM303AGR_ACC_R_Int2_YLo, .-LSM303AGR_ACC_R_Int2_YLo
 9088 32e6 00BF     		.align	2
 9089 32e8 AFF30080 		.p2align 4,,15
 9089      AFF30080 
 9090              		.global	LSM303AGR_ACC_R_Int2_YHi
 9091              		.thumb
 9092              		.thumb_func
 9093              		.type	LSM303AGR_ACC_R_Int2_YHi, %function
 9094              	LSM303AGR_ACC_R_Int2_YHi:
 9095              	.LFB420:
 9096              		.loc 1 3132 0
 9097              		.cfi_startproc
 9098              		@ args = 0, pretend = 0, frame = 8
 9099              		@ frame_needed = 0, uses_anonymous_args = 0
 9100 32f0 00B5     		push	{lr}
 9101              		.cfi_def_cfa_offset 4
 9102              		.cfi_offset 14, -4
 9103 32f2 83B0     		sub	sp, sp, #12
 9104              		.cfi_def_cfa_offset 16
 9105 32f4 0190     		str	r0, [sp, #4]
 9106 32f6 0091     		str	r1, [sp]
 9107              		.loc 1 3133 0
 9108 32f8 0198     		ldr	r0, [sp, #4]
 9109 32fa 3521     		movs	r1, #53
 9110 32fc 009A     		ldr	r2, [sp]
 9111 32fe 0123     		movs	r3, #1
 9112 3300 FFF7FEFF 		bl	LSM303AGR_ACC_ReadReg
 9113 3304 0346     		mov	r3, r0
 9114 3306 002B     		cmp	r3, #0
 9115 3308 01D1     		bne	.L592
 9116              		.loc 1 3134 0
 9117 330a 0023     		movs	r3, #0
 9118 330c 07E0     		b	.L593
 9119              	.L592:
 9120              		.loc 1 3136 0
 9121 330e 009B     		ldr	r3, [sp]
 9122 3310 1B78     		ldrb	r3, [r3]	@ zero_extendqisi2
 9123 3312 03F00803 		and	r3, r3, #8
 9124 3316 DAB2     		uxtb	r2, r3
 9125 3318 009B     		ldr	r3, [sp]
 9126 331a 1A70     		strb	r2, [r3]
 9127              		.loc 1 3138 0
 9128 331c 0123     		movs	r3, #1
 9129              	.L593:
 9130              		.loc 1 3139 0
 9131 331e 1846     		mov	r0, r3
 9132 3320 03B0     		add	sp, sp, #12
 9133              		@ sp needed
 9134 3322 5DF804FB 		ldr	pc, [sp], #4
 9135              		.cfi_endproc
 9136              	.LFE420:
 9137              		.size	LSM303AGR_ACC_R_Int2_YHi, .-LSM303AGR_ACC_R_Int2_YHi
 9138 3326 00BF     		.align	2
 9139 3328 AFF30080 		.p2align 4,,15
 9139      AFF30080 
ARM GAS  /tmp/cc1ELVNa.s 			page 164


 9140              		.global	LSM303AGR_ACC_R_Int2_Zlo
 9141              		.thumb
 9142              		.thumb_func
 9143              		.type	LSM303AGR_ACC_R_Int2_Zlo, %function
 9144              	LSM303AGR_ACC_R_Int2_Zlo:
 9145              	.LFB421:
 9146              		.loc 1 3149 0
 9147              		.cfi_startproc
 9148              		@ args = 0, pretend = 0, frame = 8
 9149              		@ frame_needed = 0, uses_anonymous_args = 0
 9150 3330 00B5     		push	{lr}
 9151              		.cfi_def_cfa_offset 4
 9152              		.cfi_offset 14, -4
 9153 3332 83B0     		sub	sp, sp, #12
 9154              		.cfi_def_cfa_offset 16
 9155 3334 0190     		str	r0, [sp, #4]
 9156 3336 0091     		str	r1, [sp]
 9157              		.loc 1 3150 0
 9158 3338 0198     		ldr	r0, [sp, #4]
 9159 333a 3521     		movs	r1, #53
 9160 333c 009A     		ldr	r2, [sp]
 9161 333e 0123     		movs	r3, #1
 9162 3340 FFF7FEFF 		bl	LSM303AGR_ACC_ReadReg
 9163 3344 0346     		mov	r3, r0
 9164 3346 002B     		cmp	r3, #0
 9165 3348 01D1     		bne	.L595
 9166              		.loc 1 3151 0
 9167 334a 0023     		movs	r3, #0
 9168 334c 07E0     		b	.L596
 9169              	.L595:
 9170              		.loc 1 3153 0
 9171 334e 009B     		ldr	r3, [sp]
 9172 3350 1B78     		ldrb	r3, [r3]	@ zero_extendqisi2
 9173 3352 03F01003 		and	r3, r3, #16
 9174 3356 DAB2     		uxtb	r2, r3
 9175 3358 009B     		ldr	r3, [sp]
 9176 335a 1A70     		strb	r2, [r3]
 9177              		.loc 1 3155 0
 9178 335c 0123     		movs	r3, #1
 9179              	.L596:
 9180              		.loc 1 3156 0
 9181 335e 1846     		mov	r0, r3
 9182 3360 03B0     		add	sp, sp, #12
 9183              		@ sp needed
 9184 3362 5DF804FB 		ldr	pc, [sp], #4
 9185              		.cfi_endproc
 9186              	.LFE421:
 9187              		.size	LSM303AGR_ACC_R_Int2_Zlo, .-LSM303AGR_ACC_R_Int2_Zlo
 9188 3366 00BF     		.align	2
 9189 3368 AFF30080 		.p2align 4,,15
 9189      AFF30080 
 9190              		.global	LSM303AGR_ACC_R_Int2_ZHi
 9191              		.thumb
 9192              		.thumb_func
 9193              		.type	LSM303AGR_ACC_R_Int2_ZHi, %function
 9194              	LSM303AGR_ACC_R_Int2_ZHi:
 9195              	.LFB422:
ARM GAS  /tmp/cc1ELVNa.s 			page 165


 9196              		.loc 1 3166 0
 9197              		.cfi_startproc
 9198              		@ args = 0, pretend = 0, frame = 8
 9199              		@ frame_needed = 0, uses_anonymous_args = 0
 9200 3370 00B5     		push	{lr}
 9201              		.cfi_def_cfa_offset 4
 9202              		.cfi_offset 14, -4
 9203 3372 83B0     		sub	sp, sp, #12
 9204              		.cfi_def_cfa_offset 16
 9205 3374 0190     		str	r0, [sp, #4]
 9206 3376 0091     		str	r1, [sp]
 9207              		.loc 1 3167 0
 9208 3378 0198     		ldr	r0, [sp, #4]
 9209 337a 3521     		movs	r1, #53
 9210 337c 009A     		ldr	r2, [sp]
 9211 337e 0123     		movs	r3, #1
 9212 3380 FFF7FEFF 		bl	LSM303AGR_ACC_ReadReg
 9213 3384 0346     		mov	r3, r0
 9214 3386 002B     		cmp	r3, #0
 9215 3388 01D1     		bne	.L598
 9216              		.loc 1 3168 0
 9217 338a 0023     		movs	r3, #0
 9218 338c 07E0     		b	.L599
 9219              	.L598:
 9220              		.loc 1 3170 0
 9221 338e 009B     		ldr	r3, [sp]
 9222 3390 1B78     		ldrb	r3, [r3]	@ zero_extendqisi2
 9223 3392 03F02003 		and	r3, r3, #32
 9224 3396 DAB2     		uxtb	r2, r3
 9225 3398 009B     		ldr	r3, [sp]
 9226 339a 1A70     		strb	r2, [r3]
 9227              		.loc 1 3172 0
 9228 339c 0123     		movs	r3, #1
 9229              	.L599:
 9230              		.loc 1 3173 0
 9231 339e 1846     		mov	r0, r3
 9232 33a0 03B0     		add	sp, sp, #12
 9233              		@ sp needed
 9234 33a2 5DF804FB 		ldr	pc, [sp], #4
 9235              		.cfi_endproc
 9236              	.LFE422:
 9237              		.size	LSM303AGR_ACC_R_Int2_ZHi, .-LSM303AGR_ACC_R_Int2_ZHi
 9238 33a6 00BF     		.align	2
 9239 33a8 AFF30080 		.p2align 4,,15
 9239      AFF30080 
 9240              		.global	LSM303AGR_ACC_R_Int2_IA
 9241              		.thumb
 9242              		.thumb_func
 9243              		.type	LSM303AGR_ACC_R_Int2_IA, %function
 9244              	LSM303AGR_ACC_R_Int2_IA:
 9245              	.LFB423:
 9246              		.loc 1 3183 0
 9247              		.cfi_startproc
 9248              		@ args = 0, pretend = 0, frame = 8
 9249              		@ frame_needed = 0, uses_anonymous_args = 0
 9250 33b0 00B5     		push	{lr}
 9251              		.cfi_def_cfa_offset 4
ARM GAS  /tmp/cc1ELVNa.s 			page 166


 9252              		.cfi_offset 14, -4
 9253 33b2 83B0     		sub	sp, sp, #12
 9254              		.cfi_def_cfa_offset 16
 9255 33b4 0190     		str	r0, [sp, #4]
 9256 33b6 0091     		str	r1, [sp]
 9257              		.loc 1 3184 0
 9258 33b8 0198     		ldr	r0, [sp, #4]
 9259 33ba 3521     		movs	r1, #53
 9260 33bc 009A     		ldr	r2, [sp]
 9261 33be 0123     		movs	r3, #1
 9262 33c0 FFF7FEFF 		bl	LSM303AGR_ACC_ReadReg
 9263 33c4 0346     		mov	r3, r0
 9264 33c6 002B     		cmp	r3, #0
 9265 33c8 01D1     		bne	.L601
 9266              		.loc 1 3185 0
 9267 33ca 0023     		movs	r3, #0
 9268 33cc 07E0     		b	.L602
 9269              	.L601:
 9270              		.loc 1 3187 0
 9271 33ce 009B     		ldr	r3, [sp]
 9272 33d0 1B78     		ldrb	r3, [r3]	@ zero_extendqisi2
 9273 33d2 03F04003 		and	r3, r3, #64
 9274 33d6 DAB2     		uxtb	r2, r3
 9275 33d8 009B     		ldr	r3, [sp]
 9276 33da 1A70     		strb	r2, [r3]
 9277              		.loc 1 3189 0
 9278 33dc 0123     		movs	r3, #1
 9279              	.L602:
 9280              		.loc 1 3190 0
 9281 33de 1846     		mov	r0, r3
 9282 33e0 03B0     		add	sp, sp, #12
 9283              		@ sp needed
 9284 33e2 5DF804FB 		ldr	pc, [sp], #4
 9285              		.cfi_endproc
 9286              	.LFE423:
 9287              		.size	LSM303AGR_ACC_R_Int2_IA, .-LSM303AGR_ACC_R_Int2_IA
 9288 33e6 00BF     		.align	2
 9289 33e8 AFF30080 		.p2align 4,,15
 9289      AFF30080 
 9290              		.global	LSM303AGR_ACC_W_Int1_Threshold
 9291              		.thumb
 9292              		.thumb_func
 9293              		.type	LSM303AGR_ACC_W_Int1_Threshold, %function
 9294              	LSM303AGR_ACC_W_Int1_Threshold:
 9295              	.LFB424:
 9296              		.loc 1 3200 0
 9297              		.cfi_startproc
 9298              		@ args = 0, pretend = 0, frame = 16
 9299              		@ frame_needed = 0, uses_anonymous_args = 0
 9300 33f0 00B5     		push	{lr}
 9301              		.cfi_def_cfa_offset 4
 9302              		.cfi_offset 14, -4
 9303 33f2 85B0     		sub	sp, sp, #20
 9304              		.cfi_def_cfa_offset 24
 9305 33f4 0190     		str	r0, [sp, #4]
 9306 33f6 0B46     		mov	r3, r1
 9307 33f8 8DF80330 		strb	r3, [sp, #3]
ARM GAS  /tmp/cc1ELVNa.s 			page 167


 9308              		.loc 1 3204 0
 9309 33fc 9DF80330 		ldrb	r3, [sp, #3]
 9310 3400 03F07F03 		and	r3, r3, #127
 9311 3404 8DF80330 		strb	r3, [sp, #3]
 9312              		.loc 1 3206 0
 9313 3408 0DF10F03 		add	r3, sp, #15
 9314 340c 0198     		ldr	r0, [sp, #4]
 9315 340e 3221     		movs	r1, #50
 9316 3410 1A46     		mov	r2, r3
 9317 3412 0123     		movs	r3, #1
 9318 3414 FFF7FEFF 		bl	LSM303AGR_ACC_ReadReg
 9319 3418 0346     		mov	r3, r0
 9320 341a 002B     		cmp	r3, #0
 9321 341c 01D1     		bne	.L604
 9322              		.loc 1 3207 0
 9323 341e 0023     		movs	r3, #0
 9324 3420 1CE0     		b	.L607
 9325              	.L604:
 9326              		.loc 1 3209 0
 9327 3422 9DF80F30 		ldrb	r3, [sp, #15]	@ zero_extendqisi2
 9328 3426 23F07F03 		bic	r3, r3, #127
 9329 342a DBB2     		uxtb	r3, r3
 9330 342c 8DF80F30 		strb	r3, [sp, #15]
 9331              		.loc 1 3210 0
 9332 3430 9DF80F20 		ldrb	r2, [sp, #15]	@ zero_extendqisi2
 9333 3434 9DF80330 		ldrb	r3, [sp, #3]
 9334 3438 1343     		orrs	r3, r3, r2
 9335 343a DBB2     		uxtb	r3, r3
 9336 343c 8DF80F30 		strb	r3, [sp, #15]
 9337              		.loc 1 3212 0
 9338 3440 0DF10F03 		add	r3, sp, #15
 9339 3444 0198     		ldr	r0, [sp, #4]
 9340 3446 3221     		movs	r1, #50
 9341 3448 1A46     		mov	r2, r3
 9342 344a 0123     		movs	r3, #1
 9343 344c FFF7FEFF 		bl	LSM303AGR_ACC_WriteReg
 9344 3450 0346     		mov	r3, r0
 9345 3452 002B     		cmp	r3, #0
 9346 3454 01D1     		bne	.L606
 9347              		.loc 1 3213 0
 9348 3456 0023     		movs	r3, #0
 9349 3458 00E0     		b	.L607
 9350              	.L606:
 9351              		.loc 1 3215 0
 9352 345a 0123     		movs	r3, #1
 9353              	.L607:
 9354              		.loc 1 3216 0
 9355 345c 1846     		mov	r0, r3
 9356 345e 05B0     		add	sp, sp, #20
 9357              		@ sp needed
 9358 3460 5DF804FB 		ldr	pc, [sp], #4
 9359              		.cfi_endproc
 9360              	.LFE424:
 9361              		.size	LSM303AGR_ACC_W_Int1_Threshold, .-LSM303AGR_ACC_W_Int1_Threshold
 9362              		.align	2
 9363 3464 AFF30080 		.p2align 4,,15
 9363      AFF30080 
ARM GAS  /tmp/cc1ELVNa.s 			page 168


 9363      AFF30080 
 9364              		.global	LSM303AGR_ACC_R_Int1_Threshold
 9365              		.thumb
 9366              		.thumb_func
 9367              		.type	LSM303AGR_ACC_R_Int1_Threshold, %function
 9368              	LSM303AGR_ACC_R_Int1_Threshold:
 9369              	.LFB425:
 9370              		.loc 1 3226 0
 9371              		.cfi_startproc
 9372              		@ args = 0, pretend = 0, frame = 8
 9373              		@ frame_needed = 0, uses_anonymous_args = 0
 9374 3470 00B5     		push	{lr}
 9375              		.cfi_def_cfa_offset 4
 9376              		.cfi_offset 14, -4
 9377 3472 83B0     		sub	sp, sp, #12
 9378              		.cfi_def_cfa_offset 16
 9379 3474 0190     		str	r0, [sp, #4]
 9380 3476 0091     		str	r1, [sp]
 9381              		.loc 1 3227 0
 9382 3478 0198     		ldr	r0, [sp, #4]
 9383 347a 3221     		movs	r1, #50
 9384 347c 009A     		ldr	r2, [sp]
 9385 347e 0123     		movs	r3, #1
 9386 3480 FFF7FEFF 		bl	LSM303AGR_ACC_ReadReg
 9387 3484 0346     		mov	r3, r0
 9388 3486 002B     		cmp	r3, #0
 9389 3488 01D1     		bne	.L609
 9390              		.loc 1 3228 0
 9391 348a 0023     		movs	r3, #0
 9392 348c 0BE0     		b	.L610
 9393              	.L609:
 9394              		.loc 1 3230 0
 9395 348e 009B     		ldr	r3, [sp]
 9396 3490 1B78     		ldrb	r3, [r3]	@ zero_extendqisi2
 9397 3492 03F07F03 		and	r3, r3, #127
 9398 3496 DAB2     		uxtb	r2, r3
 9399 3498 009B     		ldr	r3, [sp]
 9400 349a 1A70     		strb	r2, [r3]
 9401              		.loc 1 3231 0
 9402 349c 009B     		ldr	r3, [sp]
 9403 349e 1A78     		ldrb	r2, [r3]	@ zero_extendqisi2
 9404 34a0 009B     		ldr	r3, [sp]
 9405 34a2 1A70     		strb	r2, [r3]
 9406              		.loc 1 3233 0
 9407 34a4 0123     		movs	r3, #1
 9408              	.L610:
 9409              		.loc 1 3234 0
 9410 34a6 1846     		mov	r0, r3
 9411 34a8 03B0     		add	sp, sp, #12
 9412              		@ sp needed
 9413 34aa 5DF804FB 		ldr	pc, [sp], #4
 9414              		.cfi_endproc
 9415              	.LFE425:
 9416              		.size	LSM303AGR_ACC_R_Int1_Threshold, .-LSM303AGR_ACC_R_Int1_Threshold
 9417 34ae 00BF     		.align	2
 9418              		.p2align 4,,15
 9419              		.global	LSM303AGR_ACC_W_Int2_Threshold
ARM GAS  /tmp/cc1ELVNa.s 			page 169


 9420              		.thumb
 9421              		.thumb_func
 9422              		.type	LSM303AGR_ACC_W_Int2_Threshold, %function
 9423              	LSM303AGR_ACC_W_Int2_Threshold:
 9424              	.LFB426:
 9425              		.loc 1 3244 0
 9426              		.cfi_startproc
 9427              		@ args = 0, pretend = 0, frame = 16
 9428              		@ frame_needed = 0, uses_anonymous_args = 0
 9429 34b0 00B5     		push	{lr}
 9430              		.cfi_def_cfa_offset 4
 9431              		.cfi_offset 14, -4
 9432 34b2 85B0     		sub	sp, sp, #20
 9433              		.cfi_def_cfa_offset 24
 9434 34b4 0190     		str	r0, [sp, #4]
 9435 34b6 0B46     		mov	r3, r1
 9436 34b8 8DF80330 		strb	r3, [sp, #3]
 9437              		.loc 1 3248 0
 9438 34bc 9DF80330 		ldrb	r3, [sp, #3]
 9439 34c0 03F07F03 		and	r3, r3, #127
 9440 34c4 8DF80330 		strb	r3, [sp, #3]
 9441              		.loc 1 3250 0
 9442 34c8 0DF10F03 		add	r3, sp, #15
 9443 34cc 0198     		ldr	r0, [sp, #4]
 9444 34ce 3621     		movs	r1, #54
 9445 34d0 1A46     		mov	r2, r3
 9446 34d2 0123     		movs	r3, #1
 9447 34d4 FFF7FEFF 		bl	LSM303AGR_ACC_ReadReg
 9448 34d8 0346     		mov	r3, r0
 9449 34da 002B     		cmp	r3, #0
 9450 34dc 01D1     		bne	.L612
 9451              		.loc 1 3251 0
 9452 34de 0023     		movs	r3, #0
 9453 34e0 1CE0     		b	.L615
 9454              	.L612:
 9455              		.loc 1 3253 0
 9456 34e2 9DF80F30 		ldrb	r3, [sp, #15]	@ zero_extendqisi2
 9457 34e6 23F07F03 		bic	r3, r3, #127
 9458 34ea DBB2     		uxtb	r3, r3
 9459 34ec 8DF80F30 		strb	r3, [sp, #15]
 9460              		.loc 1 3254 0
 9461 34f0 9DF80F20 		ldrb	r2, [sp, #15]	@ zero_extendqisi2
 9462 34f4 9DF80330 		ldrb	r3, [sp, #3]
 9463 34f8 1343     		orrs	r3, r3, r2
 9464 34fa DBB2     		uxtb	r3, r3
 9465 34fc 8DF80F30 		strb	r3, [sp, #15]
 9466              		.loc 1 3256 0
 9467 3500 0DF10F03 		add	r3, sp, #15
 9468 3504 0198     		ldr	r0, [sp, #4]
 9469 3506 3621     		movs	r1, #54
 9470 3508 1A46     		mov	r2, r3
 9471 350a 0123     		movs	r3, #1
 9472 350c FFF7FEFF 		bl	LSM303AGR_ACC_WriteReg
 9473 3510 0346     		mov	r3, r0
 9474 3512 002B     		cmp	r3, #0
 9475 3514 01D1     		bne	.L614
 9476              		.loc 1 3257 0
ARM GAS  /tmp/cc1ELVNa.s 			page 170


 9477 3516 0023     		movs	r3, #0
 9478 3518 00E0     		b	.L615
 9479              	.L614:
 9480              		.loc 1 3259 0
 9481 351a 0123     		movs	r3, #1
 9482              	.L615:
 9483              		.loc 1 3260 0
 9484 351c 1846     		mov	r0, r3
 9485 351e 05B0     		add	sp, sp, #20
 9486              		@ sp needed
 9487 3520 5DF804FB 		ldr	pc, [sp], #4
 9488              		.cfi_endproc
 9489              	.LFE426:
 9490              		.size	LSM303AGR_ACC_W_Int2_Threshold, .-LSM303AGR_ACC_W_Int2_Threshold
 9491              		.align	2
 9492 3524 AFF30080 		.p2align 4,,15
 9492      AFF30080 
 9492      AFF30080 
 9493              		.global	LSM303AGR_ACC_R_Int2_Threshold
 9494              		.thumb
 9495              		.thumb_func
 9496              		.type	LSM303AGR_ACC_R_Int2_Threshold, %function
 9497              	LSM303AGR_ACC_R_Int2_Threshold:
 9498              	.LFB427:
 9499              		.loc 1 3270 0
 9500              		.cfi_startproc
 9501              		@ args = 0, pretend = 0, frame = 8
 9502              		@ frame_needed = 0, uses_anonymous_args = 0
 9503 3530 00B5     		push	{lr}
 9504              		.cfi_def_cfa_offset 4
 9505              		.cfi_offset 14, -4
 9506 3532 83B0     		sub	sp, sp, #12
 9507              		.cfi_def_cfa_offset 16
 9508 3534 0190     		str	r0, [sp, #4]
 9509 3536 0091     		str	r1, [sp]
 9510              		.loc 1 3271 0
 9511 3538 0198     		ldr	r0, [sp, #4]
 9512 353a 3621     		movs	r1, #54
 9513 353c 009A     		ldr	r2, [sp]
 9514 353e 0123     		movs	r3, #1
 9515 3540 FFF7FEFF 		bl	LSM303AGR_ACC_ReadReg
 9516 3544 0346     		mov	r3, r0
 9517 3546 002B     		cmp	r3, #0
 9518 3548 01D1     		bne	.L617
 9519              		.loc 1 3272 0
 9520 354a 0023     		movs	r3, #0
 9521 354c 0BE0     		b	.L618
 9522              	.L617:
 9523              		.loc 1 3274 0
 9524 354e 009B     		ldr	r3, [sp]
 9525 3550 1B78     		ldrb	r3, [r3]	@ zero_extendqisi2
 9526 3552 03F07F03 		and	r3, r3, #127
 9527 3556 DAB2     		uxtb	r2, r3
 9528 3558 009B     		ldr	r3, [sp]
 9529 355a 1A70     		strb	r2, [r3]
 9530              		.loc 1 3275 0
 9531 355c 009B     		ldr	r3, [sp]
ARM GAS  /tmp/cc1ELVNa.s 			page 171


 9532 355e 1A78     		ldrb	r2, [r3]	@ zero_extendqisi2
 9533 3560 009B     		ldr	r3, [sp]
 9534 3562 1A70     		strb	r2, [r3]
 9535              		.loc 1 3277 0
 9536 3564 0123     		movs	r3, #1
 9537              	.L618:
 9538              		.loc 1 3278 0
 9539 3566 1846     		mov	r0, r3
 9540 3568 03B0     		add	sp, sp, #12
 9541              		@ sp needed
 9542 356a 5DF804FB 		ldr	pc, [sp], #4
 9543              		.cfi_endproc
 9544              	.LFE427:
 9545              		.size	LSM303AGR_ACC_R_Int2_Threshold, .-LSM303AGR_ACC_R_Int2_Threshold
 9546 356e 00BF     		.align	2
 9547              		.p2align 4,,15
 9548              		.global	LSM303AGR_ACC_W_Int1_Duration
 9549              		.thumb
 9550              		.thumb_func
 9551              		.type	LSM303AGR_ACC_W_Int1_Duration, %function
 9552              	LSM303AGR_ACC_W_Int1_Duration:
 9553              	.LFB428:
 9554              		.loc 1 3288 0
 9555              		.cfi_startproc
 9556              		@ args = 0, pretend = 0, frame = 16
 9557              		@ frame_needed = 0, uses_anonymous_args = 0
 9558 3570 00B5     		push	{lr}
 9559              		.cfi_def_cfa_offset 4
 9560              		.cfi_offset 14, -4
 9561 3572 85B0     		sub	sp, sp, #20
 9562              		.cfi_def_cfa_offset 24
 9563 3574 0190     		str	r0, [sp, #4]
 9564 3576 0B46     		mov	r3, r1
 9565 3578 8DF80330 		strb	r3, [sp, #3]
 9566              		.loc 1 3292 0
 9567 357c 9DF80330 		ldrb	r3, [sp, #3]
 9568 3580 03F07F03 		and	r3, r3, #127
 9569 3584 8DF80330 		strb	r3, [sp, #3]
 9570              		.loc 1 3294 0
 9571 3588 0DF10F03 		add	r3, sp, #15
 9572 358c 0198     		ldr	r0, [sp, #4]
 9573 358e 3321     		movs	r1, #51
 9574 3590 1A46     		mov	r2, r3
 9575 3592 0123     		movs	r3, #1
 9576 3594 FFF7FEFF 		bl	LSM303AGR_ACC_ReadReg
 9577 3598 0346     		mov	r3, r0
 9578 359a 002B     		cmp	r3, #0
 9579 359c 01D1     		bne	.L620
 9580              		.loc 1 3295 0
 9581 359e 0023     		movs	r3, #0
 9582 35a0 1CE0     		b	.L623
 9583              	.L620:
 9584              		.loc 1 3297 0
 9585 35a2 9DF80F30 		ldrb	r3, [sp, #15]	@ zero_extendqisi2
 9586 35a6 23F07F03 		bic	r3, r3, #127
 9587 35aa DBB2     		uxtb	r3, r3
 9588 35ac 8DF80F30 		strb	r3, [sp, #15]
ARM GAS  /tmp/cc1ELVNa.s 			page 172


 9589              		.loc 1 3298 0
 9590 35b0 9DF80F20 		ldrb	r2, [sp, #15]	@ zero_extendqisi2
 9591 35b4 9DF80330 		ldrb	r3, [sp, #3]
 9592 35b8 1343     		orrs	r3, r3, r2
 9593 35ba DBB2     		uxtb	r3, r3
 9594 35bc 8DF80F30 		strb	r3, [sp, #15]
 9595              		.loc 1 3300 0
 9596 35c0 0DF10F03 		add	r3, sp, #15
 9597 35c4 0198     		ldr	r0, [sp, #4]
 9598 35c6 3321     		movs	r1, #51
 9599 35c8 1A46     		mov	r2, r3
 9600 35ca 0123     		movs	r3, #1
 9601 35cc FFF7FEFF 		bl	LSM303AGR_ACC_WriteReg
 9602 35d0 0346     		mov	r3, r0
 9603 35d2 002B     		cmp	r3, #0
 9604 35d4 01D1     		bne	.L622
 9605              		.loc 1 3301 0
 9606 35d6 0023     		movs	r3, #0
 9607 35d8 00E0     		b	.L623
 9608              	.L622:
 9609              		.loc 1 3303 0
 9610 35da 0123     		movs	r3, #1
 9611              	.L623:
 9612              		.loc 1 3304 0
 9613 35dc 1846     		mov	r0, r3
 9614 35de 05B0     		add	sp, sp, #20
 9615              		@ sp needed
 9616 35e0 5DF804FB 		ldr	pc, [sp], #4
 9617              		.cfi_endproc
 9618              	.LFE428:
 9619              		.size	LSM303AGR_ACC_W_Int1_Duration, .-LSM303AGR_ACC_W_Int1_Duration
 9620              		.align	2
 9621 35e4 AFF30080 		.p2align 4,,15
 9621      AFF30080 
 9621      AFF30080 
 9622              		.global	LSM303AGR_ACC_R_Int1_Duration
 9623              		.thumb
 9624              		.thumb_func
 9625              		.type	LSM303AGR_ACC_R_Int1_Duration, %function
 9626              	LSM303AGR_ACC_R_Int1_Duration:
 9627              	.LFB429:
 9628              		.loc 1 3314 0
 9629              		.cfi_startproc
 9630              		@ args = 0, pretend = 0, frame = 8
 9631              		@ frame_needed = 0, uses_anonymous_args = 0
 9632 35f0 00B5     		push	{lr}
 9633              		.cfi_def_cfa_offset 4
 9634              		.cfi_offset 14, -4
 9635 35f2 83B0     		sub	sp, sp, #12
 9636              		.cfi_def_cfa_offset 16
 9637 35f4 0190     		str	r0, [sp, #4]
 9638 35f6 0091     		str	r1, [sp]
 9639              		.loc 1 3315 0
 9640 35f8 0198     		ldr	r0, [sp, #4]
 9641 35fa 3321     		movs	r1, #51
 9642 35fc 009A     		ldr	r2, [sp]
 9643 35fe 0123     		movs	r3, #1
ARM GAS  /tmp/cc1ELVNa.s 			page 173


 9644 3600 FFF7FEFF 		bl	LSM303AGR_ACC_ReadReg
 9645 3604 0346     		mov	r3, r0
 9646 3606 002B     		cmp	r3, #0
 9647 3608 01D1     		bne	.L625
 9648              		.loc 1 3316 0
 9649 360a 0023     		movs	r3, #0
 9650 360c 0BE0     		b	.L626
 9651              	.L625:
 9652              		.loc 1 3318 0
 9653 360e 009B     		ldr	r3, [sp]
 9654 3610 1B78     		ldrb	r3, [r3]	@ zero_extendqisi2
 9655 3612 03F07F03 		and	r3, r3, #127
 9656 3616 DAB2     		uxtb	r2, r3
 9657 3618 009B     		ldr	r3, [sp]
 9658 361a 1A70     		strb	r2, [r3]
 9659              		.loc 1 3319 0
 9660 361c 009B     		ldr	r3, [sp]
 9661 361e 1A78     		ldrb	r2, [r3]	@ zero_extendqisi2
 9662 3620 009B     		ldr	r3, [sp]
 9663 3622 1A70     		strb	r2, [r3]
 9664              		.loc 1 3321 0
 9665 3624 0123     		movs	r3, #1
 9666              	.L626:
 9667              		.loc 1 3322 0
 9668 3626 1846     		mov	r0, r3
 9669 3628 03B0     		add	sp, sp, #12
 9670              		@ sp needed
 9671 362a 5DF804FB 		ldr	pc, [sp], #4
 9672              		.cfi_endproc
 9673              	.LFE429:
 9674              		.size	LSM303AGR_ACC_R_Int1_Duration, .-LSM303AGR_ACC_R_Int1_Duration
 9675 362e 00BF     		.align	2
 9676              		.p2align 4,,15
 9677              		.global	LSM303AGR_ACC_W_Int2_Duration
 9678              		.thumb
 9679              		.thumb_func
 9680              		.type	LSM303AGR_ACC_W_Int2_Duration, %function
 9681              	LSM303AGR_ACC_W_Int2_Duration:
 9682              	.LFB430:
 9683              		.loc 1 3332 0
 9684              		.cfi_startproc
 9685              		@ args = 0, pretend = 0, frame = 16
 9686              		@ frame_needed = 0, uses_anonymous_args = 0
 9687 3630 00B5     		push	{lr}
 9688              		.cfi_def_cfa_offset 4
 9689              		.cfi_offset 14, -4
 9690 3632 85B0     		sub	sp, sp, #20
 9691              		.cfi_def_cfa_offset 24
 9692 3634 0190     		str	r0, [sp, #4]
 9693 3636 0B46     		mov	r3, r1
 9694 3638 8DF80330 		strb	r3, [sp, #3]
 9695              		.loc 1 3336 0
 9696 363c 9DF80330 		ldrb	r3, [sp, #3]
 9697 3640 03F07F03 		and	r3, r3, #127
 9698 3644 8DF80330 		strb	r3, [sp, #3]
 9699              		.loc 1 3338 0
 9700 3648 0DF10F03 		add	r3, sp, #15
ARM GAS  /tmp/cc1ELVNa.s 			page 174


 9701 364c 0198     		ldr	r0, [sp, #4]
 9702 364e 3721     		movs	r1, #55
 9703 3650 1A46     		mov	r2, r3
 9704 3652 0123     		movs	r3, #1
 9705 3654 FFF7FEFF 		bl	LSM303AGR_ACC_ReadReg
 9706 3658 0346     		mov	r3, r0
 9707 365a 002B     		cmp	r3, #0
 9708 365c 01D1     		bne	.L628
 9709              		.loc 1 3339 0
 9710 365e 0023     		movs	r3, #0
 9711 3660 1CE0     		b	.L631
 9712              	.L628:
 9713              		.loc 1 3341 0
 9714 3662 9DF80F30 		ldrb	r3, [sp, #15]	@ zero_extendqisi2
 9715 3666 23F07F03 		bic	r3, r3, #127
 9716 366a DBB2     		uxtb	r3, r3
 9717 366c 8DF80F30 		strb	r3, [sp, #15]
 9718              		.loc 1 3342 0
 9719 3670 9DF80F20 		ldrb	r2, [sp, #15]	@ zero_extendqisi2
 9720 3674 9DF80330 		ldrb	r3, [sp, #3]
 9721 3678 1343     		orrs	r3, r3, r2
 9722 367a DBB2     		uxtb	r3, r3
 9723 367c 8DF80F30 		strb	r3, [sp, #15]
 9724              		.loc 1 3344 0
 9725 3680 0DF10F03 		add	r3, sp, #15
 9726 3684 0198     		ldr	r0, [sp, #4]
 9727 3686 3721     		movs	r1, #55
 9728 3688 1A46     		mov	r2, r3
 9729 368a 0123     		movs	r3, #1
 9730 368c FFF7FEFF 		bl	LSM303AGR_ACC_WriteReg
 9731 3690 0346     		mov	r3, r0
 9732 3692 002B     		cmp	r3, #0
 9733 3694 01D1     		bne	.L630
 9734              		.loc 1 3345 0
 9735 3696 0023     		movs	r3, #0
 9736 3698 00E0     		b	.L631
 9737              	.L630:
 9738              		.loc 1 3347 0
 9739 369a 0123     		movs	r3, #1
 9740              	.L631:
 9741              		.loc 1 3348 0
 9742 369c 1846     		mov	r0, r3
 9743 369e 05B0     		add	sp, sp, #20
 9744              		@ sp needed
 9745 36a0 5DF804FB 		ldr	pc, [sp], #4
 9746              		.cfi_endproc
 9747              	.LFE430:
 9748              		.size	LSM303AGR_ACC_W_Int2_Duration, .-LSM303AGR_ACC_W_Int2_Duration
 9749              		.align	2
 9750 36a4 AFF30080 		.p2align 4,,15
 9750      AFF30080 
 9750      AFF30080 
 9751              		.global	LSM303AGR_ACC_R_Int2_Duration
 9752              		.thumb
 9753              		.thumb_func
 9754              		.type	LSM303AGR_ACC_R_Int2_Duration, %function
 9755              	LSM303AGR_ACC_R_Int2_Duration:
ARM GAS  /tmp/cc1ELVNa.s 			page 175


 9756              	.LFB431:
 9757              		.loc 1 3358 0
 9758              		.cfi_startproc
 9759              		@ args = 0, pretend = 0, frame = 8
 9760              		@ frame_needed = 0, uses_anonymous_args = 0
 9761 36b0 00B5     		push	{lr}
 9762              		.cfi_def_cfa_offset 4
 9763              		.cfi_offset 14, -4
 9764 36b2 83B0     		sub	sp, sp, #12
 9765              		.cfi_def_cfa_offset 16
 9766 36b4 0190     		str	r0, [sp, #4]
 9767 36b6 0091     		str	r1, [sp]
 9768              		.loc 1 3359 0
 9769 36b8 0198     		ldr	r0, [sp, #4]
 9770 36ba 3721     		movs	r1, #55
 9771 36bc 009A     		ldr	r2, [sp]
 9772 36be 0123     		movs	r3, #1
 9773 36c0 FFF7FEFF 		bl	LSM303AGR_ACC_ReadReg
 9774 36c4 0346     		mov	r3, r0
 9775 36c6 002B     		cmp	r3, #0
 9776 36c8 01D1     		bne	.L633
 9777              		.loc 1 3360 0
 9778 36ca 0023     		movs	r3, #0
 9779 36cc 0BE0     		b	.L634
 9780              	.L633:
 9781              		.loc 1 3362 0
 9782 36ce 009B     		ldr	r3, [sp]
 9783 36d0 1B78     		ldrb	r3, [r3]	@ zero_extendqisi2
 9784 36d2 03F07F03 		and	r3, r3, #127
 9785 36d6 DAB2     		uxtb	r2, r3
 9786 36d8 009B     		ldr	r3, [sp]
 9787 36da 1A70     		strb	r2, [r3]
 9788              		.loc 1 3363 0
 9789 36dc 009B     		ldr	r3, [sp]
 9790 36de 1A78     		ldrb	r2, [r3]	@ zero_extendqisi2
 9791 36e0 009B     		ldr	r3, [sp]
 9792 36e2 1A70     		strb	r2, [r3]
 9793              		.loc 1 3365 0
 9794 36e4 0123     		movs	r3, #1
 9795              	.L634:
 9796              		.loc 1 3366 0
 9797 36e6 1846     		mov	r0, r3
 9798 36e8 03B0     		add	sp, sp, #12
 9799              		@ sp needed
 9800 36ea 5DF804FB 		ldr	pc, [sp], #4
 9801              		.cfi_endproc
 9802              	.LFE431:
 9803              		.size	LSM303AGR_ACC_R_Int2_Duration, .-LSM303AGR_ACC_R_Int2_Duration
 9804 36ee 00BF     		.align	2
 9805              		.p2align 4,,15
 9806              		.global	LSM303AGR_ACC_W_XSingle
 9807              		.thumb
 9808              		.thumb_func
 9809              		.type	LSM303AGR_ACC_W_XSingle, %function
 9810              	LSM303AGR_ACC_W_XSingle:
 9811              	.LFB432:
 9812              		.loc 1 3376 0
ARM GAS  /tmp/cc1ELVNa.s 			page 176


 9813              		.cfi_startproc
 9814              		@ args = 0, pretend = 0, frame = 16
 9815              		@ frame_needed = 0, uses_anonymous_args = 0
 9816 36f0 00B5     		push	{lr}
 9817              		.cfi_def_cfa_offset 4
 9818              		.cfi_offset 14, -4
 9819 36f2 85B0     		sub	sp, sp, #20
 9820              		.cfi_def_cfa_offset 24
 9821 36f4 0190     		str	r0, [sp, #4]
 9822 36f6 0B46     		mov	r3, r1
 9823 36f8 8DF80330 		strb	r3, [sp, #3]
 9824              		.loc 1 3379 0
 9825 36fc 0DF10F03 		add	r3, sp, #15
 9826 3700 0198     		ldr	r0, [sp, #4]
 9827 3702 3821     		movs	r1, #56
 9828 3704 1A46     		mov	r2, r3
 9829 3706 0123     		movs	r3, #1
 9830 3708 FFF7FEFF 		bl	LSM303AGR_ACC_ReadReg
 9831 370c 0346     		mov	r3, r0
 9832 370e 002B     		cmp	r3, #0
 9833 3710 01D1     		bne	.L636
 9834              		.loc 1 3380 0
 9835 3712 0023     		movs	r3, #0
 9836 3714 1CE0     		b	.L639
 9837              	.L636:
 9838              		.loc 1 3382 0
 9839 3716 9DF80F30 		ldrb	r3, [sp, #15]	@ zero_extendqisi2
 9840 371a 23F00103 		bic	r3, r3, #1
 9841 371e DBB2     		uxtb	r3, r3
 9842 3720 8DF80F30 		strb	r3, [sp, #15]
 9843              		.loc 1 3383 0
 9844 3724 9DF80F20 		ldrb	r2, [sp, #15]	@ zero_extendqisi2
 9845 3728 9DF80330 		ldrb	r3, [sp, #3]
 9846 372c 1343     		orrs	r3, r3, r2
 9847 372e DBB2     		uxtb	r3, r3
 9848 3730 8DF80F30 		strb	r3, [sp, #15]
 9849              		.loc 1 3385 0
 9850 3734 0DF10F03 		add	r3, sp, #15
 9851 3738 0198     		ldr	r0, [sp, #4]
 9852 373a 3821     		movs	r1, #56
 9853 373c 1A46     		mov	r2, r3
 9854 373e 0123     		movs	r3, #1
 9855 3740 FFF7FEFF 		bl	LSM303AGR_ACC_WriteReg
 9856 3744 0346     		mov	r3, r0
 9857 3746 002B     		cmp	r3, #0
 9858 3748 01D1     		bne	.L638
 9859              		.loc 1 3386 0
 9860 374a 0023     		movs	r3, #0
 9861 374c 00E0     		b	.L639
 9862              	.L638:
 9863              		.loc 1 3388 0
 9864 374e 0123     		movs	r3, #1
 9865              	.L639:
 9866              		.loc 1 3389 0
 9867 3750 1846     		mov	r0, r3
 9868 3752 05B0     		add	sp, sp, #20
 9869              		@ sp needed
ARM GAS  /tmp/cc1ELVNa.s 			page 177


 9870 3754 5DF804FB 		ldr	pc, [sp], #4
 9871              		.cfi_endproc
 9872              	.LFE432:
 9873              		.size	LSM303AGR_ACC_W_XSingle, .-LSM303AGR_ACC_W_XSingle
 9874              		.align	2
 9875 3758 AFF30080 		.p2align 4,,15
 9875      AFF30080 
 9876              		.global	LSM303AGR_ACC_R_XSingle
 9877              		.thumb
 9878              		.thumb_func
 9879              		.type	LSM303AGR_ACC_R_XSingle, %function
 9880              	LSM303AGR_ACC_R_XSingle:
 9881              	.LFB433:
 9882              		.loc 1 3399 0
 9883              		.cfi_startproc
 9884              		@ args = 0, pretend = 0, frame = 8
 9885              		@ frame_needed = 0, uses_anonymous_args = 0
 9886 3760 00B5     		push	{lr}
 9887              		.cfi_def_cfa_offset 4
 9888              		.cfi_offset 14, -4
 9889 3762 83B0     		sub	sp, sp, #12
 9890              		.cfi_def_cfa_offset 16
 9891 3764 0190     		str	r0, [sp, #4]
 9892 3766 0091     		str	r1, [sp]
 9893              		.loc 1 3400 0
 9894 3768 0198     		ldr	r0, [sp, #4]
 9895 376a 3821     		movs	r1, #56
 9896 376c 009A     		ldr	r2, [sp]
 9897 376e 0123     		movs	r3, #1
 9898 3770 FFF7FEFF 		bl	LSM303AGR_ACC_ReadReg
 9899 3774 0346     		mov	r3, r0
 9900 3776 002B     		cmp	r3, #0
 9901 3778 01D1     		bne	.L641
 9902              		.loc 1 3401 0
 9903 377a 0023     		movs	r3, #0
 9904 377c 07E0     		b	.L642
 9905              	.L641:
 9906              		.loc 1 3403 0
 9907 377e 009B     		ldr	r3, [sp]
 9908 3780 1B78     		ldrb	r3, [r3]	@ zero_extendqisi2
 9909 3782 03F00103 		and	r3, r3, #1
 9910 3786 DAB2     		uxtb	r2, r3
 9911 3788 009B     		ldr	r3, [sp]
 9912 378a 1A70     		strb	r2, [r3]
 9913              		.loc 1 3405 0
 9914 378c 0123     		movs	r3, #1
 9915              	.L642:
 9916              		.loc 1 3406 0
 9917 378e 1846     		mov	r0, r3
 9918 3790 03B0     		add	sp, sp, #12
 9919              		@ sp needed
 9920 3792 5DF804FB 		ldr	pc, [sp], #4
 9921              		.cfi_endproc
 9922              	.LFE433:
 9923              		.size	LSM303AGR_ACC_R_XSingle, .-LSM303AGR_ACC_R_XSingle
 9924 3796 00BF     		.align	2
 9925 3798 AFF30080 		.p2align 4,,15
ARM GAS  /tmp/cc1ELVNa.s 			page 178


 9925      AFF30080 
 9926              		.global	LSM303AGR_ACC_W_XDouble
 9927              		.thumb
 9928              		.thumb_func
 9929              		.type	LSM303AGR_ACC_W_XDouble, %function
 9930              	LSM303AGR_ACC_W_XDouble:
 9931              	.LFB434:
 9932              		.loc 1 3416 0
 9933              		.cfi_startproc
 9934              		@ args = 0, pretend = 0, frame = 16
 9935              		@ frame_needed = 0, uses_anonymous_args = 0
 9936 37a0 00B5     		push	{lr}
 9937              		.cfi_def_cfa_offset 4
 9938              		.cfi_offset 14, -4
 9939 37a2 85B0     		sub	sp, sp, #20
 9940              		.cfi_def_cfa_offset 24
 9941 37a4 0190     		str	r0, [sp, #4]
 9942 37a6 0B46     		mov	r3, r1
 9943 37a8 8DF80330 		strb	r3, [sp, #3]
 9944              		.loc 1 3419 0
 9945 37ac 0DF10F03 		add	r3, sp, #15
 9946 37b0 0198     		ldr	r0, [sp, #4]
 9947 37b2 3821     		movs	r1, #56
 9948 37b4 1A46     		mov	r2, r3
 9949 37b6 0123     		movs	r3, #1
 9950 37b8 FFF7FEFF 		bl	LSM303AGR_ACC_ReadReg
 9951 37bc 0346     		mov	r3, r0
 9952 37be 002B     		cmp	r3, #0
 9953 37c0 01D1     		bne	.L644
 9954              		.loc 1 3420 0
 9955 37c2 0023     		movs	r3, #0
 9956 37c4 1CE0     		b	.L647
 9957              	.L644:
 9958              		.loc 1 3422 0
 9959 37c6 9DF80F30 		ldrb	r3, [sp, #15]	@ zero_extendqisi2
 9960 37ca 23F00203 		bic	r3, r3, #2
 9961 37ce DBB2     		uxtb	r3, r3
 9962 37d0 8DF80F30 		strb	r3, [sp, #15]
 9963              		.loc 1 3423 0
 9964 37d4 9DF80F20 		ldrb	r2, [sp, #15]	@ zero_extendqisi2
 9965 37d8 9DF80330 		ldrb	r3, [sp, #3]
 9966 37dc 1343     		orrs	r3, r3, r2
 9967 37de DBB2     		uxtb	r3, r3
 9968 37e0 8DF80F30 		strb	r3, [sp, #15]
 9969              		.loc 1 3425 0
 9970 37e4 0DF10F03 		add	r3, sp, #15
 9971 37e8 0198     		ldr	r0, [sp, #4]
 9972 37ea 3821     		movs	r1, #56
 9973 37ec 1A46     		mov	r2, r3
 9974 37ee 0123     		movs	r3, #1
 9975 37f0 FFF7FEFF 		bl	LSM303AGR_ACC_WriteReg
 9976 37f4 0346     		mov	r3, r0
 9977 37f6 002B     		cmp	r3, #0
 9978 37f8 01D1     		bne	.L646
 9979              		.loc 1 3426 0
 9980 37fa 0023     		movs	r3, #0
 9981 37fc 00E0     		b	.L647
ARM GAS  /tmp/cc1ELVNa.s 			page 179


 9982              	.L646:
 9983              		.loc 1 3428 0
 9984 37fe 0123     		movs	r3, #1
 9985              	.L647:
 9986              		.loc 1 3429 0
 9987 3800 1846     		mov	r0, r3
 9988 3802 05B0     		add	sp, sp, #20
 9989              		@ sp needed
 9990 3804 5DF804FB 		ldr	pc, [sp], #4
 9991              		.cfi_endproc
 9992              	.LFE434:
 9993              		.size	LSM303AGR_ACC_W_XDouble, .-LSM303AGR_ACC_W_XDouble
 9994              		.align	2
 9995 3808 AFF30080 		.p2align 4,,15
 9995      AFF30080 
 9996              		.global	LSM303AGR_ACC_R_XDouble
 9997              		.thumb
 9998              		.thumb_func
 9999              		.type	LSM303AGR_ACC_R_XDouble, %function
 10000              	LSM303AGR_ACC_R_XDouble:
 10001              	.LFB435:
 10002              		.loc 1 3439 0
 10003              		.cfi_startproc
 10004              		@ args = 0, pretend = 0, frame = 8
 10005              		@ frame_needed = 0, uses_anonymous_args = 0
 10006 3810 00B5     		push	{lr}
 10007              		.cfi_def_cfa_offset 4
 10008              		.cfi_offset 14, -4
 10009 3812 83B0     		sub	sp, sp, #12
 10010              		.cfi_def_cfa_offset 16
 10011 3814 0190     		str	r0, [sp, #4]
 10012 3816 0091     		str	r1, [sp]
 10013              		.loc 1 3440 0
 10014 3818 0198     		ldr	r0, [sp, #4]
 10015 381a 3821     		movs	r1, #56
 10016 381c 009A     		ldr	r2, [sp]
 10017 381e 0123     		movs	r3, #1
 10018 3820 FFF7FEFF 		bl	LSM303AGR_ACC_ReadReg
 10019 3824 0346     		mov	r3, r0
 10020 3826 002B     		cmp	r3, #0
 10021 3828 01D1     		bne	.L649
 10022              		.loc 1 3441 0
 10023 382a 0023     		movs	r3, #0
 10024 382c 07E0     		b	.L650
 10025              	.L649:
 10026              		.loc 1 3443 0
 10027 382e 009B     		ldr	r3, [sp]
 10028 3830 1B78     		ldrb	r3, [r3]	@ zero_extendqisi2
 10029 3832 03F00203 		and	r3, r3, #2
 10030 3836 DAB2     		uxtb	r2, r3
 10031 3838 009B     		ldr	r3, [sp]
 10032 383a 1A70     		strb	r2, [r3]
 10033              		.loc 1 3445 0
 10034 383c 0123     		movs	r3, #1
 10035              	.L650:
 10036              		.loc 1 3446 0
 10037 383e 1846     		mov	r0, r3
ARM GAS  /tmp/cc1ELVNa.s 			page 180


 10038 3840 03B0     		add	sp, sp, #12
 10039              		@ sp needed
 10040 3842 5DF804FB 		ldr	pc, [sp], #4
 10041              		.cfi_endproc
 10042              	.LFE435:
 10043              		.size	LSM303AGR_ACC_R_XDouble, .-LSM303AGR_ACC_R_XDouble
 10044 3846 00BF     		.align	2
 10045 3848 AFF30080 		.p2align 4,,15
 10045      AFF30080 
 10046              		.global	LSM303AGR_ACC_W_YSingle
 10047              		.thumb
 10048              		.thumb_func
 10049              		.type	LSM303AGR_ACC_W_YSingle, %function
 10050              	LSM303AGR_ACC_W_YSingle:
 10051              	.LFB436:
 10052              		.loc 1 3456 0
 10053              		.cfi_startproc
 10054              		@ args = 0, pretend = 0, frame = 16
 10055              		@ frame_needed = 0, uses_anonymous_args = 0
 10056 3850 00B5     		push	{lr}
 10057              		.cfi_def_cfa_offset 4
 10058              		.cfi_offset 14, -4
 10059 3852 85B0     		sub	sp, sp, #20
 10060              		.cfi_def_cfa_offset 24
 10061 3854 0190     		str	r0, [sp, #4]
 10062 3856 0B46     		mov	r3, r1
 10063 3858 8DF80330 		strb	r3, [sp, #3]
 10064              		.loc 1 3459 0
 10065 385c 0DF10F03 		add	r3, sp, #15
 10066 3860 0198     		ldr	r0, [sp, #4]
 10067 3862 3821     		movs	r1, #56
 10068 3864 1A46     		mov	r2, r3
 10069 3866 0123     		movs	r3, #1
 10070 3868 FFF7FEFF 		bl	LSM303AGR_ACC_ReadReg
 10071 386c 0346     		mov	r3, r0
 10072 386e 002B     		cmp	r3, #0
 10073 3870 01D1     		bne	.L652
 10074              		.loc 1 3460 0
 10075 3872 0023     		movs	r3, #0
 10076 3874 1CE0     		b	.L655
 10077              	.L652:
 10078              		.loc 1 3462 0
 10079 3876 9DF80F30 		ldrb	r3, [sp, #15]	@ zero_extendqisi2
 10080 387a 23F00403 		bic	r3, r3, #4
 10081 387e DBB2     		uxtb	r3, r3
 10082 3880 8DF80F30 		strb	r3, [sp, #15]
 10083              		.loc 1 3463 0
 10084 3884 9DF80F20 		ldrb	r2, [sp, #15]	@ zero_extendqisi2
 10085 3888 9DF80330 		ldrb	r3, [sp, #3]
 10086 388c 1343     		orrs	r3, r3, r2
 10087 388e DBB2     		uxtb	r3, r3
 10088 3890 8DF80F30 		strb	r3, [sp, #15]
 10089              		.loc 1 3465 0
 10090 3894 0DF10F03 		add	r3, sp, #15
 10091 3898 0198     		ldr	r0, [sp, #4]
 10092 389a 3821     		movs	r1, #56
 10093 389c 1A46     		mov	r2, r3
ARM GAS  /tmp/cc1ELVNa.s 			page 181


 10094 389e 0123     		movs	r3, #1
 10095 38a0 FFF7FEFF 		bl	LSM303AGR_ACC_WriteReg
 10096 38a4 0346     		mov	r3, r0
 10097 38a6 002B     		cmp	r3, #0
 10098 38a8 01D1     		bne	.L654
 10099              		.loc 1 3466 0
 10100 38aa 0023     		movs	r3, #0
 10101 38ac 00E0     		b	.L655
 10102              	.L654:
 10103              		.loc 1 3468 0
 10104 38ae 0123     		movs	r3, #1
 10105              	.L655:
 10106              		.loc 1 3469 0
 10107 38b0 1846     		mov	r0, r3
 10108 38b2 05B0     		add	sp, sp, #20
 10109              		@ sp needed
 10110 38b4 5DF804FB 		ldr	pc, [sp], #4
 10111              		.cfi_endproc
 10112              	.LFE436:
 10113              		.size	LSM303AGR_ACC_W_YSingle, .-LSM303AGR_ACC_W_YSingle
 10114              		.align	2
 10115 38b8 AFF30080 		.p2align 4,,15
 10115      AFF30080 
 10116              		.global	LSM303AGR_ACC_R_YSingle
 10117              		.thumb
 10118              		.thumb_func
 10119              		.type	LSM303AGR_ACC_R_YSingle, %function
 10120              	LSM303AGR_ACC_R_YSingle:
 10121              	.LFB437:
 10122              		.loc 1 3479 0
 10123              		.cfi_startproc
 10124              		@ args = 0, pretend = 0, frame = 8
 10125              		@ frame_needed = 0, uses_anonymous_args = 0
 10126 38c0 00B5     		push	{lr}
 10127              		.cfi_def_cfa_offset 4
 10128              		.cfi_offset 14, -4
 10129 38c2 83B0     		sub	sp, sp, #12
 10130              		.cfi_def_cfa_offset 16
 10131 38c4 0190     		str	r0, [sp, #4]
 10132 38c6 0091     		str	r1, [sp]
 10133              		.loc 1 3480 0
 10134 38c8 0198     		ldr	r0, [sp, #4]
 10135 38ca 3821     		movs	r1, #56
 10136 38cc 009A     		ldr	r2, [sp]
 10137 38ce 0123     		movs	r3, #1
 10138 38d0 FFF7FEFF 		bl	LSM303AGR_ACC_ReadReg
 10139 38d4 0346     		mov	r3, r0
 10140 38d6 002B     		cmp	r3, #0
 10141 38d8 01D1     		bne	.L657
 10142              		.loc 1 3481 0
 10143 38da 0023     		movs	r3, #0
 10144 38dc 07E0     		b	.L658
 10145              	.L657:
 10146              		.loc 1 3483 0
 10147 38de 009B     		ldr	r3, [sp]
 10148 38e0 1B78     		ldrb	r3, [r3]	@ zero_extendqisi2
 10149 38e2 03F00403 		and	r3, r3, #4
ARM GAS  /tmp/cc1ELVNa.s 			page 182


 10150 38e6 DAB2     		uxtb	r2, r3
 10151 38e8 009B     		ldr	r3, [sp]
 10152 38ea 1A70     		strb	r2, [r3]
 10153              		.loc 1 3485 0
 10154 38ec 0123     		movs	r3, #1
 10155              	.L658:
 10156              		.loc 1 3486 0
 10157 38ee 1846     		mov	r0, r3
 10158 38f0 03B0     		add	sp, sp, #12
 10159              		@ sp needed
 10160 38f2 5DF804FB 		ldr	pc, [sp], #4
 10161              		.cfi_endproc
 10162              	.LFE437:
 10163              		.size	LSM303AGR_ACC_R_YSingle, .-LSM303AGR_ACC_R_YSingle
 10164 38f6 00BF     		.align	2
 10165 38f8 AFF30080 		.p2align 4,,15
 10165      AFF30080 
 10166              		.global	LSM303AGR_ACC_W_YDouble
 10167              		.thumb
 10168              		.thumb_func
 10169              		.type	LSM303AGR_ACC_W_YDouble, %function
 10170              	LSM303AGR_ACC_W_YDouble:
 10171              	.LFB438:
 10172              		.loc 1 3496 0
 10173              		.cfi_startproc
 10174              		@ args = 0, pretend = 0, frame = 16
 10175              		@ frame_needed = 0, uses_anonymous_args = 0
 10176 3900 00B5     		push	{lr}
 10177              		.cfi_def_cfa_offset 4
 10178              		.cfi_offset 14, -4
 10179 3902 85B0     		sub	sp, sp, #20
 10180              		.cfi_def_cfa_offset 24
 10181 3904 0190     		str	r0, [sp, #4]
 10182 3906 0B46     		mov	r3, r1
 10183 3908 8DF80330 		strb	r3, [sp, #3]
 10184              		.loc 1 3499 0
 10185 390c 0DF10F03 		add	r3, sp, #15
 10186 3910 0198     		ldr	r0, [sp, #4]
 10187 3912 3821     		movs	r1, #56
 10188 3914 1A46     		mov	r2, r3
 10189 3916 0123     		movs	r3, #1
 10190 3918 FFF7FEFF 		bl	LSM303AGR_ACC_ReadReg
 10191 391c 0346     		mov	r3, r0
 10192 391e 002B     		cmp	r3, #0
 10193 3920 01D1     		bne	.L660
 10194              		.loc 1 3500 0
 10195 3922 0023     		movs	r3, #0
 10196 3924 1CE0     		b	.L663
 10197              	.L660:
 10198              		.loc 1 3502 0
 10199 3926 9DF80F30 		ldrb	r3, [sp, #15]	@ zero_extendqisi2
 10200 392a 23F00803 		bic	r3, r3, #8
 10201 392e DBB2     		uxtb	r3, r3
 10202 3930 8DF80F30 		strb	r3, [sp, #15]
 10203              		.loc 1 3503 0
 10204 3934 9DF80F20 		ldrb	r2, [sp, #15]	@ zero_extendqisi2
 10205 3938 9DF80330 		ldrb	r3, [sp, #3]
ARM GAS  /tmp/cc1ELVNa.s 			page 183


 10206 393c 1343     		orrs	r3, r3, r2
 10207 393e DBB2     		uxtb	r3, r3
 10208 3940 8DF80F30 		strb	r3, [sp, #15]
 10209              		.loc 1 3505 0
 10210 3944 0DF10F03 		add	r3, sp, #15
 10211 3948 0198     		ldr	r0, [sp, #4]
 10212 394a 3821     		movs	r1, #56
 10213 394c 1A46     		mov	r2, r3
 10214 394e 0123     		movs	r3, #1
 10215 3950 FFF7FEFF 		bl	LSM303AGR_ACC_WriteReg
 10216 3954 0346     		mov	r3, r0
 10217 3956 002B     		cmp	r3, #0
 10218 3958 01D1     		bne	.L662
 10219              		.loc 1 3506 0
 10220 395a 0023     		movs	r3, #0
 10221 395c 00E0     		b	.L663
 10222              	.L662:
 10223              		.loc 1 3508 0
 10224 395e 0123     		movs	r3, #1
 10225              	.L663:
 10226              		.loc 1 3509 0
 10227 3960 1846     		mov	r0, r3
 10228 3962 05B0     		add	sp, sp, #20
 10229              		@ sp needed
 10230 3964 5DF804FB 		ldr	pc, [sp], #4
 10231              		.cfi_endproc
 10232              	.LFE438:
 10233              		.size	LSM303AGR_ACC_W_YDouble, .-LSM303AGR_ACC_W_YDouble
 10234              		.align	2
 10235 3968 AFF30080 		.p2align 4,,15
 10235      AFF30080 
 10236              		.global	LSM303AGR_ACC_R_YDouble
 10237              		.thumb
 10238              		.thumb_func
 10239              		.type	LSM303AGR_ACC_R_YDouble, %function
 10240              	LSM303AGR_ACC_R_YDouble:
 10241              	.LFB439:
 10242              		.loc 1 3519 0
 10243              		.cfi_startproc
 10244              		@ args = 0, pretend = 0, frame = 8
 10245              		@ frame_needed = 0, uses_anonymous_args = 0
 10246 3970 00B5     		push	{lr}
 10247              		.cfi_def_cfa_offset 4
 10248              		.cfi_offset 14, -4
 10249 3972 83B0     		sub	sp, sp, #12
 10250              		.cfi_def_cfa_offset 16
 10251 3974 0190     		str	r0, [sp, #4]
 10252 3976 0091     		str	r1, [sp]
 10253              		.loc 1 3520 0
 10254 3978 0198     		ldr	r0, [sp, #4]
 10255 397a 3821     		movs	r1, #56
 10256 397c 009A     		ldr	r2, [sp]
 10257 397e 0123     		movs	r3, #1
 10258 3980 FFF7FEFF 		bl	LSM303AGR_ACC_ReadReg
 10259 3984 0346     		mov	r3, r0
 10260 3986 002B     		cmp	r3, #0
 10261 3988 01D1     		bne	.L665
ARM GAS  /tmp/cc1ELVNa.s 			page 184


 10262              		.loc 1 3521 0
 10263 398a 0023     		movs	r3, #0
 10264 398c 07E0     		b	.L666
 10265              	.L665:
 10266              		.loc 1 3523 0
 10267 398e 009B     		ldr	r3, [sp]
 10268 3990 1B78     		ldrb	r3, [r3]	@ zero_extendqisi2
 10269 3992 03F00803 		and	r3, r3, #8
 10270 3996 DAB2     		uxtb	r2, r3
 10271 3998 009B     		ldr	r3, [sp]
 10272 399a 1A70     		strb	r2, [r3]
 10273              		.loc 1 3525 0
 10274 399c 0123     		movs	r3, #1
 10275              	.L666:
 10276              		.loc 1 3526 0
 10277 399e 1846     		mov	r0, r3
 10278 39a0 03B0     		add	sp, sp, #12
 10279              		@ sp needed
 10280 39a2 5DF804FB 		ldr	pc, [sp], #4
 10281              		.cfi_endproc
 10282              	.LFE439:
 10283              		.size	LSM303AGR_ACC_R_YDouble, .-LSM303AGR_ACC_R_YDouble
 10284 39a6 00BF     		.align	2
 10285 39a8 AFF30080 		.p2align 4,,15
 10285      AFF30080 
 10286              		.global	LSM303AGR_ACC_W_ZSingle
 10287              		.thumb
 10288              		.thumb_func
 10289              		.type	LSM303AGR_ACC_W_ZSingle, %function
 10290              	LSM303AGR_ACC_W_ZSingle:
 10291              	.LFB440:
 10292              		.loc 1 3536 0
 10293              		.cfi_startproc
 10294              		@ args = 0, pretend = 0, frame = 16
 10295              		@ frame_needed = 0, uses_anonymous_args = 0
 10296 39b0 00B5     		push	{lr}
 10297              		.cfi_def_cfa_offset 4
 10298              		.cfi_offset 14, -4
 10299 39b2 85B0     		sub	sp, sp, #20
 10300              		.cfi_def_cfa_offset 24
 10301 39b4 0190     		str	r0, [sp, #4]
 10302 39b6 0B46     		mov	r3, r1
 10303 39b8 8DF80330 		strb	r3, [sp, #3]
 10304              		.loc 1 3539 0
 10305 39bc 0DF10F03 		add	r3, sp, #15
 10306 39c0 0198     		ldr	r0, [sp, #4]
 10307 39c2 3821     		movs	r1, #56
 10308 39c4 1A46     		mov	r2, r3
 10309 39c6 0123     		movs	r3, #1
 10310 39c8 FFF7FEFF 		bl	LSM303AGR_ACC_ReadReg
 10311 39cc 0346     		mov	r3, r0
 10312 39ce 002B     		cmp	r3, #0
 10313 39d0 01D1     		bne	.L668
 10314              		.loc 1 3540 0
 10315 39d2 0023     		movs	r3, #0
 10316 39d4 1CE0     		b	.L671
 10317              	.L668:
ARM GAS  /tmp/cc1ELVNa.s 			page 185


 10318              		.loc 1 3542 0
 10319 39d6 9DF80F30 		ldrb	r3, [sp, #15]	@ zero_extendqisi2
 10320 39da 23F01003 		bic	r3, r3, #16
 10321 39de DBB2     		uxtb	r3, r3
 10322 39e0 8DF80F30 		strb	r3, [sp, #15]
 10323              		.loc 1 3543 0
 10324 39e4 9DF80F20 		ldrb	r2, [sp, #15]	@ zero_extendqisi2
 10325 39e8 9DF80330 		ldrb	r3, [sp, #3]
 10326 39ec 1343     		orrs	r3, r3, r2
 10327 39ee DBB2     		uxtb	r3, r3
 10328 39f0 8DF80F30 		strb	r3, [sp, #15]
 10329              		.loc 1 3545 0
 10330 39f4 0DF10F03 		add	r3, sp, #15
 10331 39f8 0198     		ldr	r0, [sp, #4]
 10332 39fa 3821     		movs	r1, #56
 10333 39fc 1A46     		mov	r2, r3
 10334 39fe 0123     		movs	r3, #1
 10335 3a00 FFF7FEFF 		bl	LSM303AGR_ACC_WriteReg
 10336 3a04 0346     		mov	r3, r0
 10337 3a06 002B     		cmp	r3, #0
 10338 3a08 01D1     		bne	.L670
 10339              		.loc 1 3546 0
 10340 3a0a 0023     		movs	r3, #0
 10341 3a0c 00E0     		b	.L671
 10342              	.L670:
 10343              		.loc 1 3548 0
 10344 3a0e 0123     		movs	r3, #1
 10345              	.L671:
 10346              		.loc 1 3549 0
 10347 3a10 1846     		mov	r0, r3
 10348 3a12 05B0     		add	sp, sp, #20
 10349              		@ sp needed
 10350 3a14 5DF804FB 		ldr	pc, [sp], #4
 10351              		.cfi_endproc
 10352              	.LFE440:
 10353              		.size	LSM303AGR_ACC_W_ZSingle, .-LSM303AGR_ACC_W_ZSingle
 10354              		.align	2
 10355 3a18 AFF30080 		.p2align 4,,15
 10355      AFF30080 
 10356              		.global	LSM303AGR_ACC_R_ZSingle
 10357              		.thumb
 10358              		.thumb_func
 10359              		.type	LSM303AGR_ACC_R_ZSingle, %function
 10360              	LSM303AGR_ACC_R_ZSingle:
 10361              	.LFB441:
 10362              		.loc 1 3559 0
 10363              		.cfi_startproc
 10364              		@ args = 0, pretend = 0, frame = 8
 10365              		@ frame_needed = 0, uses_anonymous_args = 0
 10366 3a20 00B5     		push	{lr}
 10367              		.cfi_def_cfa_offset 4
 10368              		.cfi_offset 14, -4
 10369 3a22 83B0     		sub	sp, sp, #12
 10370              		.cfi_def_cfa_offset 16
 10371 3a24 0190     		str	r0, [sp, #4]
 10372 3a26 0091     		str	r1, [sp]
 10373              		.loc 1 3560 0
ARM GAS  /tmp/cc1ELVNa.s 			page 186


 10374 3a28 0198     		ldr	r0, [sp, #4]
 10375 3a2a 3821     		movs	r1, #56
 10376 3a2c 009A     		ldr	r2, [sp]
 10377 3a2e 0123     		movs	r3, #1
 10378 3a30 FFF7FEFF 		bl	LSM303AGR_ACC_ReadReg
 10379 3a34 0346     		mov	r3, r0
 10380 3a36 002B     		cmp	r3, #0
 10381 3a38 01D1     		bne	.L673
 10382              		.loc 1 3561 0
 10383 3a3a 0023     		movs	r3, #0
 10384 3a3c 07E0     		b	.L674
 10385              	.L673:
 10386              		.loc 1 3563 0
 10387 3a3e 009B     		ldr	r3, [sp]
 10388 3a40 1B78     		ldrb	r3, [r3]	@ zero_extendqisi2
 10389 3a42 03F01003 		and	r3, r3, #16
 10390 3a46 DAB2     		uxtb	r2, r3
 10391 3a48 009B     		ldr	r3, [sp]
 10392 3a4a 1A70     		strb	r2, [r3]
 10393              		.loc 1 3565 0
 10394 3a4c 0123     		movs	r3, #1
 10395              	.L674:
 10396              		.loc 1 3566 0
 10397 3a4e 1846     		mov	r0, r3
 10398 3a50 03B0     		add	sp, sp, #12
 10399              		@ sp needed
 10400 3a52 5DF804FB 		ldr	pc, [sp], #4
 10401              		.cfi_endproc
 10402              	.LFE441:
 10403              		.size	LSM303AGR_ACC_R_ZSingle, .-LSM303AGR_ACC_R_ZSingle
 10404 3a56 00BF     		.align	2
 10405 3a58 AFF30080 		.p2align 4,,15
 10405      AFF30080 
 10406              		.global	LSM303AGR_ACC_W_ZDouble
 10407              		.thumb
 10408              		.thumb_func
 10409              		.type	LSM303AGR_ACC_W_ZDouble, %function
 10410              	LSM303AGR_ACC_W_ZDouble:
 10411              	.LFB442:
 10412              		.loc 1 3576 0
 10413              		.cfi_startproc
 10414              		@ args = 0, pretend = 0, frame = 16
 10415              		@ frame_needed = 0, uses_anonymous_args = 0
 10416 3a60 00B5     		push	{lr}
 10417              		.cfi_def_cfa_offset 4
 10418              		.cfi_offset 14, -4
 10419 3a62 85B0     		sub	sp, sp, #20
 10420              		.cfi_def_cfa_offset 24
 10421 3a64 0190     		str	r0, [sp, #4]
 10422 3a66 0B46     		mov	r3, r1
 10423 3a68 8DF80330 		strb	r3, [sp, #3]
 10424              		.loc 1 3579 0
 10425 3a6c 0DF10F03 		add	r3, sp, #15
 10426 3a70 0198     		ldr	r0, [sp, #4]
 10427 3a72 3821     		movs	r1, #56
 10428 3a74 1A46     		mov	r2, r3
 10429 3a76 0123     		movs	r3, #1
ARM GAS  /tmp/cc1ELVNa.s 			page 187


 10430 3a78 FFF7FEFF 		bl	LSM303AGR_ACC_ReadReg
 10431 3a7c 0346     		mov	r3, r0
 10432 3a7e 002B     		cmp	r3, #0
 10433 3a80 01D1     		bne	.L676
 10434              		.loc 1 3580 0
 10435 3a82 0023     		movs	r3, #0
 10436 3a84 1CE0     		b	.L679
 10437              	.L676:
 10438              		.loc 1 3582 0
 10439 3a86 9DF80F30 		ldrb	r3, [sp, #15]	@ zero_extendqisi2
 10440 3a8a 23F02003 		bic	r3, r3, #32
 10441 3a8e DBB2     		uxtb	r3, r3
 10442 3a90 8DF80F30 		strb	r3, [sp, #15]
 10443              		.loc 1 3583 0
 10444 3a94 9DF80F20 		ldrb	r2, [sp, #15]	@ zero_extendqisi2
 10445 3a98 9DF80330 		ldrb	r3, [sp, #3]
 10446 3a9c 1343     		orrs	r3, r3, r2
 10447 3a9e DBB2     		uxtb	r3, r3
 10448 3aa0 8DF80F30 		strb	r3, [sp, #15]
 10449              		.loc 1 3585 0
 10450 3aa4 0DF10F03 		add	r3, sp, #15
 10451 3aa8 0198     		ldr	r0, [sp, #4]
 10452 3aaa 3821     		movs	r1, #56
 10453 3aac 1A46     		mov	r2, r3
 10454 3aae 0123     		movs	r3, #1
 10455 3ab0 FFF7FEFF 		bl	LSM303AGR_ACC_WriteReg
 10456 3ab4 0346     		mov	r3, r0
 10457 3ab6 002B     		cmp	r3, #0
 10458 3ab8 01D1     		bne	.L678
 10459              		.loc 1 3586 0
 10460 3aba 0023     		movs	r3, #0
 10461 3abc 00E0     		b	.L679
 10462              	.L678:
 10463              		.loc 1 3588 0
 10464 3abe 0123     		movs	r3, #1
 10465              	.L679:
 10466              		.loc 1 3589 0
 10467 3ac0 1846     		mov	r0, r3
 10468 3ac2 05B0     		add	sp, sp, #20
 10469              		@ sp needed
 10470 3ac4 5DF804FB 		ldr	pc, [sp], #4
 10471              		.cfi_endproc
 10472              	.LFE442:
 10473              		.size	LSM303AGR_ACC_W_ZDouble, .-LSM303AGR_ACC_W_ZDouble
 10474              		.align	2
 10475 3ac8 AFF30080 		.p2align 4,,15
 10475      AFF30080 
 10476              		.global	LSM303AGR_ACC_R_ZDouble
 10477              		.thumb
 10478              		.thumb_func
 10479              		.type	LSM303AGR_ACC_R_ZDouble, %function
 10480              	LSM303AGR_ACC_R_ZDouble:
 10481              	.LFB443:
 10482              		.loc 1 3599 0
 10483              		.cfi_startproc
 10484              		@ args = 0, pretend = 0, frame = 8
 10485              		@ frame_needed = 0, uses_anonymous_args = 0
ARM GAS  /tmp/cc1ELVNa.s 			page 188


 10486 3ad0 00B5     		push	{lr}
 10487              		.cfi_def_cfa_offset 4
 10488              		.cfi_offset 14, -4
 10489 3ad2 83B0     		sub	sp, sp, #12
 10490              		.cfi_def_cfa_offset 16
 10491 3ad4 0190     		str	r0, [sp, #4]
 10492 3ad6 0091     		str	r1, [sp]
 10493              		.loc 1 3600 0
 10494 3ad8 0198     		ldr	r0, [sp, #4]
 10495 3ada 3821     		movs	r1, #56
 10496 3adc 009A     		ldr	r2, [sp]
 10497 3ade 0123     		movs	r3, #1
 10498 3ae0 FFF7FEFF 		bl	LSM303AGR_ACC_ReadReg
 10499 3ae4 0346     		mov	r3, r0
 10500 3ae6 002B     		cmp	r3, #0
 10501 3ae8 01D1     		bne	.L681
 10502              		.loc 1 3601 0
 10503 3aea 0023     		movs	r3, #0
 10504 3aec 07E0     		b	.L682
 10505              	.L681:
 10506              		.loc 1 3603 0
 10507 3aee 009B     		ldr	r3, [sp]
 10508 3af0 1B78     		ldrb	r3, [r3]	@ zero_extendqisi2
 10509 3af2 03F02003 		and	r3, r3, #32
 10510 3af6 DAB2     		uxtb	r2, r3
 10511 3af8 009B     		ldr	r3, [sp]
 10512 3afa 1A70     		strb	r2, [r3]
 10513              		.loc 1 3605 0
 10514 3afc 0123     		movs	r3, #1
 10515              	.L682:
 10516              		.loc 1 3606 0
 10517 3afe 1846     		mov	r0, r3
 10518 3b00 03B0     		add	sp, sp, #12
 10519              		@ sp needed
 10520 3b02 5DF804FB 		ldr	pc, [sp], #4
 10521              		.cfi_endproc
 10522              	.LFE443:
 10523              		.size	LSM303AGR_ACC_R_ZDouble, .-LSM303AGR_ACC_R_ZDouble
 10524 3b06 00BF     		.align	2
 10525 3b08 AFF30080 		.p2align 4,,15
 10525      AFF30080 
 10526              		.global	LSM303AGR_ACC_R_ClickX
 10527              		.thumb
 10528              		.thumb_func
 10529              		.type	LSM303AGR_ACC_R_ClickX, %function
 10530              	LSM303AGR_ACC_R_ClickX:
 10531              	.LFB444:
 10532              		.loc 1 3616 0
 10533              		.cfi_startproc
 10534              		@ args = 0, pretend = 0, frame = 8
 10535              		@ frame_needed = 0, uses_anonymous_args = 0
 10536 3b10 00B5     		push	{lr}
 10537              		.cfi_def_cfa_offset 4
 10538              		.cfi_offset 14, -4
 10539 3b12 83B0     		sub	sp, sp, #12
 10540              		.cfi_def_cfa_offset 16
 10541 3b14 0190     		str	r0, [sp, #4]
ARM GAS  /tmp/cc1ELVNa.s 			page 189


 10542 3b16 0091     		str	r1, [sp]
 10543              		.loc 1 3617 0
 10544 3b18 0198     		ldr	r0, [sp, #4]
 10545 3b1a 3921     		movs	r1, #57
 10546 3b1c 009A     		ldr	r2, [sp]
 10547 3b1e 0123     		movs	r3, #1
 10548 3b20 FFF7FEFF 		bl	LSM303AGR_ACC_ReadReg
 10549 3b24 0346     		mov	r3, r0
 10550 3b26 002B     		cmp	r3, #0
 10551 3b28 01D1     		bne	.L684
 10552              		.loc 1 3618 0
 10553 3b2a 0023     		movs	r3, #0
 10554 3b2c 07E0     		b	.L685
 10555              	.L684:
 10556              		.loc 1 3620 0
 10557 3b2e 009B     		ldr	r3, [sp]
 10558 3b30 1B78     		ldrb	r3, [r3]	@ zero_extendqisi2
 10559 3b32 03F00103 		and	r3, r3, #1
 10560 3b36 DAB2     		uxtb	r2, r3
 10561 3b38 009B     		ldr	r3, [sp]
 10562 3b3a 1A70     		strb	r2, [r3]
 10563              		.loc 1 3622 0
 10564 3b3c 0123     		movs	r3, #1
 10565              	.L685:
 10566              		.loc 1 3623 0
 10567 3b3e 1846     		mov	r0, r3
 10568 3b40 03B0     		add	sp, sp, #12
 10569              		@ sp needed
 10570 3b42 5DF804FB 		ldr	pc, [sp], #4
 10571              		.cfi_endproc
 10572              	.LFE444:
 10573              		.size	LSM303AGR_ACC_R_ClickX, .-LSM303AGR_ACC_R_ClickX
 10574 3b46 00BF     		.align	2
 10575 3b48 AFF30080 		.p2align 4,,15
 10575      AFF30080 
 10576              		.global	LSM303AGR_ACC_R_ClickY
 10577              		.thumb
 10578              		.thumb_func
 10579              		.type	LSM303AGR_ACC_R_ClickY, %function
 10580              	LSM303AGR_ACC_R_ClickY:
 10581              	.LFB445:
 10582              		.loc 1 3633 0
 10583              		.cfi_startproc
 10584              		@ args = 0, pretend = 0, frame = 8
 10585              		@ frame_needed = 0, uses_anonymous_args = 0
 10586 3b50 00B5     		push	{lr}
 10587              		.cfi_def_cfa_offset 4
 10588              		.cfi_offset 14, -4
 10589 3b52 83B0     		sub	sp, sp, #12
 10590              		.cfi_def_cfa_offset 16
 10591 3b54 0190     		str	r0, [sp, #4]
 10592 3b56 0091     		str	r1, [sp]
 10593              		.loc 1 3634 0
 10594 3b58 0198     		ldr	r0, [sp, #4]
 10595 3b5a 3921     		movs	r1, #57
 10596 3b5c 009A     		ldr	r2, [sp]
 10597 3b5e 0123     		movs	r3, #1
ARM GAS  /tmp/cc1ELVNa.s 			page 190


 10598 3b60 FFF7FEFF 		bl	LSM303AGR_ACC_ReadReg
 10599 3b64 0346     		mov	r3, r0
 10600 3b66 002B     		cmp	r3, #0
 10601 3b68 01D1     		bne	.L687
 10602              		.loc 1 3635 0
 10603 3b6a 0023     		movs	r3, #0
 10604 3b6c 07E0     		b	.L688
 10605              	.L687:
 10606              		.loc 1 3637 0
 10607 3b6e 009B     		ldr	r3, [sp]
 10608 3b70 1B78     		ldrb	r3, [r3]	@ zero_extendqisi2
 10609 3b72 03F00203 		and	r3, r3, #2
 10610 3b76 DAB2     		uxtb	r2, r3
 10611 3b78 009B     		ldr	r3, [sp]
 10612 3b7a 1A70     		strb	r2, [r3]
 10613              		.loc 1 3639 0
 10614 3b7c 0123     		movs	r3, #1
 10615              	.L688:
 10616              		.loc 1 3640 0
 10617 3b7e 1846     		mov	r0, r3
 10618 3b80 03B0     		add	sp, sp, #12
 10619              		@ sp needed
 10620 3b82 5DF804FB 		ldr	pc, [sp], #4
 10621              		.cfi_endproc
 10622              	.LFE445:
 10623              		.size	LSM303AGR_ACC_R_ClickY, .-LSM303AGR_ACC_R_ClickY
 10624 3b86 00BF     		.align	2
 10625 3b88 AFF30080 		.p2align 4,,15
 10625      AFF30080 
 10626              		.global	LSM303AGR_ACC_R_ClickZ
 10627              		.thumb
 10628              		.thumb_func
 10629              		.type	LSM303AGR_ACC_R_ClickZ, %function
 10630              	LSM303AGR_ACC_R_ClickZ:
 10631              	.LFB446:
 10632              		.loc 1 3650 0
 10633              		.cfi_startproc
 10634              		@ args = 0, pretend = 0, frame = 8
 10635              		@ frame_needed = 0, uses_anonymous_args = 0
 10636 3b90 00B5     		push	{lr}
 10637              		.cfi_def_cfa_offset 4
 10638              		.cfi_offset 14, -4
 10639 3b92 83B0     		sub	sp, sp, #12
 10640              		.cfi_def_cfa_offset 16
 10641 3b94 0190     		str	r0, [sp, #4]
 10642 3b96 0091     		str	r1, [sp]
 10643              		.loc 1 3651 0
 10644 3b98 0198     		ldr	r0, [sp, #4]
 10645 3b9a 3921     		movs	r1, #57
 10646 3b9c 009A     		ldr	r2, [sp]
 10647 3b9e 0123     		movs	r3, #1
 10648 3ba0 FFF7FEFF 		bl	LSM303AGR_ACC_ReadReg
 10649 3ba4 0346     		mov	r3, r0
 10650 3ba6 002B     		cmp	r3, #0
 10651 3ba8 01D1     		bne	.L690
 10652              		.loc 1 3652 0
 10653 3baa 0023     		movs	r3, #0
ARM GAS  /tmp/cc1ELVNa.s 			page 191


 10654 3bac 07E0     		b	.L691
 10655              	.L690:
 10656              		.loc 1 3654 0
 10657 3bae 009B     		ldr	r3, [sp]
 10658 3bb0 1B78     		ldrb	r3, [r3]	@ zero_extendqisi2
 10659 3bb2 03F00403 		and	r3, r3, #4
 10660 3bb6 DAB2     		uxtb	r2, r3
 10661 3bb8 009B     		ldr	r3, [sp]
 10662 3bba 1A70     		strb	r2, [r3]
 10663              		.loc 1 3656 0
 10664 3bbc 0123     		movs	r3, #1
 10665              	.L691:
 10666              		.loc 1 3657 0
 10667 3bbe 1846     		mov	r0, r3
 10668 3bc0 03B0     		add	sp, sp, #12
 10669              		@ sp needed
 10670 3bc2 5DF804FB 		ldr	pc, [sp], #4
 10671              		.cfi_endproc
 10672              	.LFE446:
 10673              		.size	LSM303AGR_ACC_R_ClickZ, .-LSM303AGR_ACC_R_ClickZ
 10674 3bc6 00BF     		.align	2
 10675 3bc8 AFF30080 		.p2align 4,,15
 10675      AFF30080 
 10676              		.global	LSM303AGR_ACC_R_ClickSign
 10677              		.thumb
 10678              		.thumb_func
 10679              		.type	LSM303AGR_ACC_R_ClickSign, %function
 10680              	LSM303AGR_ACC_R_ClickSign:
 10681              	.LFB447:
 10682              		.loc 1 3667 0
 10683              		.cfi_startproc
 10684              		@ args = 0, pretend = 0, frame = 8
 10685              		@ frame_needed = 0, uses_anonymous_args = 0
 10686 3bd0 00B5     		push	{lr}
 10687              		.cfi_def_cfa_offset 4
 10688              		.cfi_offset 14, -4
 10689 3bd2 83B0     		sub	sp, sp, #12
 10690              		.cfi_def_cfa_offset 16
 10691 3bd4 0190     		str	r0, [sp, #4]
 10692 3bd6 0091     		str	r1, [sp]
 10693              		.loc 1 3668 0
 10694 3bd8 0198     		ldr	r0, [sp, #4]
 10695 3bda 3921     		movs	r1, #57
 10696 3bdc 009A     		ldr	r2, [sp]
 10697 3bde 0123     		movs	r3, #1
 10698 3be0 FFF7FEFF 		bl	LSM303AGR_ACC_ReadReg
 10699 3be4 0346     		mov	r3, r0
 10700 3be6 002B     		cmp	r3, #0
 10701 3be8 01D1     		bne	.L693
 10702              		.loc 1 3669 0
 10703 3bea 0023     		movs	r3, #0
 10704 3bec 07E0     		b	.L694
 10705              	.L693:
 10706              		.loc 1 3671 0
 10707 3bee 009B     		ldr	r3, [sp]
 10708 3bf0 1B78     		ldrb	r3, [r3]	@ zero_extendqisi2
 10709 3bf2 03F00803 		and	r3, r3, #8
ARM GAS  /tmp/cc1ELVNa.s 			page 192


 10710 3bf6 DAB2     		uxtb	r2, r3
 10711 3bf8 009B     		ldr	r3, [sp]
 10712 3bfa 1A70     		strb	r2, [r3]
 10713              		.loc 1 3673 0
 10714 3bfc 0123     		movs	r3, #1
 10715              	.L694:
 10716              		.loc 1 3674 0
 10717 3bfe 1846     		mov	r0, r3
 10718 3c00 03B0     		add	sp, sp, #12
 10719              		@ sp needed
 10720 3c02 5DF804FB 		ldr	pc, [sp], #4
 10721              		.cfi_endproc
 10722              	.LFE447:
 10723              		.size	LSM303AGR_ACC_R_ClickSign, .-LSM303AGR_ACC_R_ClickSign
 10724 3c06 00BF     		.align	2
 10725 3c08 AFF30080 		.p2align 4,,15
 10725      AFF30080 
 10726              		.global	LSM303AGR_ACC_R_SingleCLICK
 10727              		.thumb
 10728              		.thumb_func
 10729              		.type	LSM303AGR_ACC_R_SingleCLICK, %function
 10730              	LSM303AGR_ACC_R_SingleCLICK:
 10731              	.LFB448:
 10732              		.loc 1 3684 0
 10733              		.cfi_startproc
 10734              		@ args = 0, pretend = 0, frame = 8
 10735              		@ frame_needed = 0, uses_anonymous_args = 0
 10736 3c10 00B5     		push	{lr}
 10737              		.cfi_def_cfa_offset 4
 10738              		.cfi_offset 14, -4
 10739 3c12 83B0     		sub	sp, sp, #12
 10740              		.cfi_def_cfa_offset 16
 10741 3c14 0190     		str	r0, [sp, #4]
 10742 3c16 0091     		str	r1, [sp]
 10743              		.loc 1 3685 0
 10744 3c18 0198     		ldr	r0, [sp, #4]
 10745 3c1a 3921     		movs	r1, #57
 10746 3c1c 009A     		ldr	r2, [sp]
 10747 3c1e 0123     		movs	r3, #1
 10748 3c20 FFF7FEFF 		bl	LSM303AGR_ACC_ReadReg
 10749 3c24 0346     		mov	r3, r0
 10750 3c26 002B     		cmp	r3, #0
 10751 3c28 01D1     		bne	.L696
 10752              		.loc 1 3686 0
 10753 3c2a 0023     		movs	r3, #0
 10754 3c2c 07E0     		b	.L697
 10755              	.L696:
 10756              		.loc 1 3688 0
 10757 3c2e 009B     		ldr	r3, [sp]
 10758 3c30 1B78     		ldrb	r3, [r3]	@ zero_extendqisi2
 10759 3c32 03F01003 		and	r3, r3, #16
 10760 3c36 DAB2     		uxtb	r2, r3
 10761 3c38 009B     		ldr	r3, [sp]
 10762 3c3a 1A70     		strb	r2, [r3]
 10763              		.loc 1 3690 0
 10764 3c3c 0123     		movs	r3, #1
 10765              	.L697:
ARM GAS  /tmp/cc1ELVNa.s 			page 193


 10766              		.loc 1 3691 0
 10767 3c3e 1846     		mov	r0, r3
 10768 3c40 03B0     		add	sp, sp, #12
 10769              		@ sp needed
 10770 3c42 5DF804FB 		ldr	pc, [sp], #4
 10771              		.cfi_endproc
 10772              	.LFE448:
 10773              		.size	LSM303AGR_ACC_R_SingleCLICK, .-LSM303AGR_ACC_R_SingleCLICK
 10774 3c46 00BF     		.align	2
 10775 3c48 AFF30080 		.p2align 4,,15
 10775      AFF30080 
 10776              		.global	LSM303AGR_ACC_R_DoubleCLICK
 10777              		.thumb
 10778              		.thumb_func
 10779              		.type	LSM303AGR_ACC_R_DoubleCLICK, %function
 10780              	LSM303AGR_ACC_R_DoubleCLICK:
 10781              	.LFB449:
 10782              		.loc 1 3701 0
 10783              		.cfi_startproc
 10784              		@ args = 0, pretend = 0, frame = 8
 10785              		@ frame_needed = 0, uses_anonymous_args = 0
 10786 3c50 00B5     		push	{lr}
 10787              		.cfi_def_cfa_offset 4
 10788              		.cfi_offset 14, -4
 10789 3c52 83B0     		sub	sp, sp, #12
 10790              		.cfi_def_cfa_offset 16
 10791 3c54 0190     		str	r0, [sp, #4]
 10792 3c56 0091     		str	r1, [sp]
 10793              		.loc 1 3702 0
 10794 3c58 0198     		ldr	r0, [sp, #4]
 10795 3c5a 3921     		movs	r1, #57
 10796 3c5c 009A     		ldr	r2, [sp]
 10797 3c5e 0123     		movs	r3, #1
 10798 3c60 FFF7FEFF 		bl	LSM303AGR_ACC_ReadReg
 10799 3c64 0346     		mov	r3, r0
 10800 3c66 002B     		cmp	r3, #0
 10801 3c68 01D1     		bne	.L699
 10802              		.loc 1 3703 0
 10803 3c6a 0023     		movs	r3, #0
 10804 3c6c 07E0     		b	.L700
 10805              	.L699:
 10806              		.loc 1 3705 0
 10807 3c6e 009B     		ldr	r3, [sp]
 10808 3c70 1B78     		ldrb	r3, [r3]	@ zero_extendqisi2
 10809 3c72 03F02003 		and	r3, r3, #32
 10810 3c76 DAB2     		uxtb	r2, r3
 10811 3c78 009B     		ldr	r3, [sp]
 10812 3c7a 1A70     		strb	r2, [r3]
 10813              		.loc 1 3707 0
 10814 3c7c 0123     		movs	r3, #1
 10815              	.L700:
 10816              		.loc 1 3708 0
 10817 3c7e 1846     		mov	r0, r3
 10818 3c80 03B0     		add	sp, sp, #12
 10819              		@ sp needed
 10820 3c82 5DF804FB 		ldr	pc, [sp], #4
 10821              		.cfi_endproc
ARM GAS  /tmp/cc1ELVNa.s 			page 194


 10822              	.LFE449:
 10823              		.size	LSM303AGR_ACC_R_DoubleCLICK, .-LSM303AGR_ACC_R_DoubleCLICK
 10824 3c86 00BF     		.align	2
 10825 3c88 AFF30080 		.p2align 4,,15
 10825      AFF30080 
 10826              		.global	LSM303AGR_ACC_R_CLICK_IA
 10827              		.thumb
 10828              		.thumb_func
 10829              		.type	LSM303AGR_ACC_R_CLICK_IA, %function
 10830              	LSM303AGR_ACC_R_CLICK_IA:
 10831              	.LFB450:
 10832              		.loc 1 3718 0
 10833              		.cfi_startproc
 10834              		@ args = 0, pretend = 0, frame = 8
 10835              		@ frame_needed = 0, uses_anonymous_args = 0
 10836 3c90 00B5     		push	{lr}
 10837              		.cfi_def_cfa_offset 4
 10838              		.cfi_offset 14, -4
 10839 3c92 83B0     		sub	sp, sp, #12
 10840              		.cfi_def_cfa_offset 16
 10841 3c94 0190     		str	r0, [sp, #4]
 10842 3c96 0091     		str	r1, [sp]
 10843              		.loc 1 3719 0
 10844 3c98 0198     		ldr	r0, [sp, #4]
 10845 3c9a 3921     		movs	r1, #57
 10846 3c9c 009A     		ldr	r2, [sp]
 10847 3c9e 0123     		movs	r3, #1
 10848 3ca0 FFF7FEFF 		bl	LSM303AGR_ACC_ReadReg
 10849 3ca4 0346     		mov	r3, r0
 10850 3ca6 002B     		cmp	r3, #0
 10851 3ca8 01D1     		bne	.L702
 10852              		.loc 1 3720 0
 10853 3caa 0023     		movs	r3, #0
 10854 3cac 07E0     		b	.L703
 10855              	.L702:
 10856              		.loc 1 3722 0
 10857 3cae 009B     		ldr	r3, [sp]
 10858 3cb0 1B78     		ldrb	r3, [r3]	@ zero_extendqisi2
 10859 3cb2 03F04003 		and	r3, r3, #64
 10860 3cb6 DAB2     		uxtb	r2, r3
 10861 3cb8 009B     		ldr	r3, [sp]
 10862 3cba 1A70     		strb	r2, [r3]
 10863              		.loc 1 3724 0
 10864 3cbc 0123     		movs	r3, #1
 10865              	.L703:
 10866              		.loc 1 3725 0
 10867 3cbe 1846     		mov	r0, r3
 10868 3cc0 03B0     		add	sp, sp, #12
 10869              		@ sp needed
 10870 3cc2 5DF804FB 		ldr	pc, [sp], #4
 10871              		.cfi_endproc
 10872              	.LFE450:
 10873              		.size	LSM303AGR_ACC_R_CLICK_IA, .-LSM303AGR_ACC_R_CLICK_IA
 10874 3cc6 00BF     		.align	2
 10875 3cc8 AFF30080 		.p2align 4,,15
 10875      AFF30080 
 10876              		.global	LSM303AGR_ACC_W_ClickThreshold
ARM GAS  /tmp/cc1ELVNa.s 			page 195


 10877              		.thumb
 10878              		.thumb_func
 10879              		.type	LSM303AGR_ACC_W_ClickThreshold, %function
 10880              	LSM303AGR_ACC_W_ClickThreshold:
 10881              	.LFB451:
 10882              		.loc 1 3735 0
 10883              		.cfi_startproc
 10884              		@ args = 0, pretend = 0, frame = 16
 10885              		@ frame_needed = 0, uses_anonymous_args = 0
 10886 3cd0 00B5     		push	{lr}
 10887              		.cfi_def_cfa_offset 4
 10888              		.cfi_offset 14, -4
 10889 3cd2 85B0     		sub	sp, sp, #20
 10890              		.cfi_def_cfa_offset 24
 10891 3cd4 0190     		str	r0, [sp, #4]
 10892 3cd6 0B46     		mov	r3, r1
 10893 3cd8 8DF80330 		strb	r3, [sp, #3]
 10894              		.loc 1 3739 0
 10895 3cdc 9DF80330 		ldrb	r3, [sp, #3]
 10896 3ce0 03F07F03 		and	r3, r3, #127
 10897 3ce4 8DF80330 		strb	r3, [sp, #3]
 10898              		.loc 1 3741 0
 10899 3ce8 0DF10F03 		add	r3, sp, #15
 10900 3cec 0198     		ldr	r0, [sp, #4]
 10901 3cee 3A21     		movs	r1, #58
 10902 3cf0 1A46     		mov	r2, r3
 10903 3cf2 0123     		movs	r3, #1
 10904 3cf4 FFF7FEFF 		bl	LSM303AGR_ACC_ReadReg
 10905 3cf8 0346     		mov	r3, r0
 10906 3cfa 002B     		cmp	r3, #0
 10907 3cfc 01D1     		bne	.L705
 10908              		.loc 1 3742 0
 10909 3cfe 0023     		movs	r3, #0
 10910 3d00 1CE0     		b	.L708
 10911              	.L705:
 10912              		.loc 1 3744 0
 10913 3d02 9DF80F30 		ldrb	r3, [sp, #15]	@ zero_extendqisi2
 10914 3d06 23F07F03 		bic	r3, r3, #127
 10915 3d0a DBB2     		uxtb	r3, r3
 10916 3d0c 8DF80F30 		strb	r3, [sp, #15]
 10917              		.loc 1 3745 0
 10918 3d10 9DF80F20 		ldrb	r2, [sp, #15]	@ zero_extendqisi2
 10919 3d14 9DF80330 		ldrb	r3, [sp, #3]
 10920 3d18 1343     		orrs	r3, r3, r2
 10921 3d1a DBB2     		uxtb	r3, r3
 10922 3d1c 8DF80F30 		strb	r3, [sp, #15]
 10923              		.loc 1 3747 0
 10924 3d20 0DF10F03 		add	r3, sp, #15
 10925 3d24 0198     		ldr	r0, [sp, #4]
 10926 3d26 3A21     		movs	r1, #58
 10927 3d28 1A46     		mov	r2, r3
 10928 3d2a 0123     		movs	r3, #1
 10929 3d2c FFF7FEFF 		bl	LSM303AGR_ACC_WriteReg
 10930 3d30 0346     		mov	r3, r0
 10931 3d32 002B     		cmp	r3, #0
 10932 3d34 01D1     		bne	.L707
 10933              		.loc 1 3748 0
ARM GAS  /tmp/cc1ELVNa.s 			page 196


 10934 3d36 0023     		movs	r3, #0
 10935 3d38 00E0     		b	.L708
 10936              	.L707:
 10937              		.loc 1 3750 0
 10938 3d3a 0123     		movs	r3, #1
 10939              	.L708:
 10940              		.loc 1 3751 0
 10941 3d3c 1846     		mov	r0, r3
 10942 3d3e 05B0     		add	sp, sp, #20
 10943              		@ sp needed
 10944 3d40 5DF804FB 		ldr	pc, [sp], #4
 10945              		.cfi_endproc
 10946              	.LFE451:
 10947              		.size	LSM303AGR_ACC_W_ClickThreshold, .-LSM303AGR_ACC_W_ClickThreshold
 10948              		.align	2
 10949 3d44 AFF30080 		.p2align 4,,15
 10949      AFF30080 
 10949      AFF30080 
 10950              		.global	LSM303AGR_ACC_R_ClickThreshold
 10951              		.thumb
 10952              		.thumb_func
 10953              		.type	LSM303AGR_ACC_R_ClickThreshold, %function
 10954              	LSM303AGR_ACC_R_ClickThreshold:
 10955              	.LFB452:
 10956              		.loc 1 3761 0
 10957              		.cfi_startproc
 10958              		@ args = 0, pretend = 0, frame = 8
 10959              		@ frame_needed = 0, uses_anonymous_args = 0
 10960 3d50 00B5     		push	{lr}
 10961              		.cfi_def_cfa_offset 4
 10962              		.cfi_offset 14, -4
 10963 3d52 83B0     		sub	sp, sp, #12
 10964              		.cfi_def_cfa_offset 16
 10965 3d54 0190     		str	r0, [sp, #4]
 10966 3d56 0091     		str	r1, [sp]
 10967              		.loc 1 3762 0
 10968 3d58 0198     		ldr	r0, [sp, #4]
 10969 3d5a 3A21     		movs	r1, #58
 10970 3d5c 009A     		ldr	r2, [sp]
 10971 3d5e 0123     		movs	r3, #1
 10972 3d60 FFF7FEFF 		bl	LSM303AGR_ACC_ReadReg
 10973 3d64 0346     		mov	r3, r0
 10974 3d66 002B     		cmp	r3, #0
 10975 3d68 01D1     		bne	.L710
 10976              		.loc 1 3763 0
 10977 3d6a 0023     		movs	r3, #0
 10978 3d6c 0BE0     		b	.L711
 10979              	.L710:
 10980              		.loc 1 3765 0
 10981 3d6e 009B     		ldr	r3, [sp]
 10982 3d70 1B78     		ldrb	r3, [r3]	@ zero_extendqisi2
 10983 3d72 03F07F03 		and	r3, r3, #127
 10984 3d76 DAB2     		uxtb	r2, r3
 10985 3d78 009B     		ldr	r3, [sp]
 10986 3d7a 1A70     		strb	r2, [r3]
 10987              		.loc 1 3766 0
 10988 3d7c 009B     		ldr	r3, [sp]
ARM GAS  /tmp/cc1ELVNa.s 			page 197


 10989 3d7e 1A78     		ldrb	r2, [r3]	@ zero_extendqisi2
 10990 3d80 009B     		ldr	r3, [sp]
 10991 3d82 1A70     		strb	r2, [r3]
 10992              		.loc 1 3768 0
 10993 3d84 0123     		movs	r3, #1
 10994              	.L711:
 10995              		.loc 1 3769 0
 10996 3d86 1846     		mov	r0, r3
 10997 3d88 03B0     		add	sp, sp, #12
 10998              		@ sp needed
 10999 3d8a 5DF804FB 		ldr	pc, [sp], #4
 11000              		.cfi_endproc
 11001              	.LFE452:
 11002              		.size	LSM303AGR_ACC_R_ClickThreshold, .-LSM303AGR_ACC_R_ClickThreshold
 11003 3d8e 00BF     		.align	2
 11004              		.p2align 4,,15
 11005              		.global	LSM303AGR_ACC_W_ClickTimeLimit
 11006              		.thumb
 11007              		.thumb_func
 11008              		.type	LSM303AGR_ACC_W_ClickTimeLimit, %function
 11009              	LSM303AGR_ACC_W_ClickTimeLimit:
 11010              	.LFB453:
 11011              		.loc 1 3779 0
 11012              		.cfi_startproc
 11013              		@ args = 0, pretend = 0, frame = 16
 11014              		@ frame_needed = 0, uses_anonymous_args = 0
 11015 3d90 00B5     		push	{lr}
 11016              		.cfi_def_cfa_offset 4
 11017              		.cfi_offset 14, -4
 11018 3d92 85B0     		sub	sp, sp, #20
 11019              		.cfi_def_cfa_offset 24
 11020 3d94 0190     		str	r0, [sp, #4]
 11021 3d96 0B46     		mov	r3, r1
 11022 3d98 8DF80330 		strb	r3, [sp, #3]
 11023              		.loc 1 3783 0
 11024 3d9c 9DF80330 		ldrb	r3, [sp, #3]
 11025 3da0 03F07F03 		and	r3, r3, #127
 11026 3da4 8DF80330 		strb	r3, [sp, #3]
 11027              		.loc 1 3785 0
 11028 3da8 0DF10F03 		add	r3, sp, #15
 11029 3dac 0198     		ldr	r0, [sp, #4]
 11030 3dae 3B21     		movs	r1, #59
 11031 3db0 1A46     		mov	r2, r3
 11032 3db2 0123     		movs	r3, #1
 11033 3db4 FFF7FEFF 		bl	LSM303AGR_ACC_ReadReg
 11034 3db8 0346     		mov	r3, r0
 11035 3dba 002B     		cmp	r3, #0
 11036 3dbc 01D1     		bne	.L713
 11037              		.loc 1 3786 0
 11038 3dbe 0023     		movs	r3, #0
 11039 3dc0 1CE0     		b	.L716
 11040              	.L713:
 11041              		.loc 1 3788 0
 11042 3dc2 9DF80F30 		ldrb	r3, [sp, #15]	@ zero_extendqisi2
 11043 3dc6 23F07F03 		bic	r3, r3, #127
 11044 3dca DBB2     		uxtb	r3, r3
 11045 3dcc 8DF80F30 		strb	r3, [sp, #15]
ARM GAS  /tmp/cc1ELVNa.s 			page 198


 11046              		.loc 1 3789 0
 11047 3dd0 9DF80F20 		ldrb	r2, [sp, #15]	@ zero_extendqisi2
 11048 3dd4 9DF80330 		ldrb	r3, [sp, #3]
 11049 3dd8 1343     		orrs	r3, r3, r2
 11050 3dda DBB2     		uxtb	r3, r3
 11051 3ddc 8DF80F30 		strb	r3, [sp, #15]
 11052              		.loc 1 3791 0
 11053 3de0 0DF10F03 		add	r3, sp, #15
 11054 3de4 0198     		ldr	r0, [sp, #4]
 11055 3de6 3B21     		movs	r1, #59
 11056 3de8 1A46     		mov	r2, r3
 11057 3dea 0123     		movs	r3, #1
 11058 3dec FFF7FEFF 		bl	LSM303AGR_ACC_WriteReg
 11059 3df0 0346     		mov	r3, r0
 11060 3df2 002B     		cmp	r3, #0
 11061 3df4 01D1     		bne	.L715
 11062              		.loc 1 3792 0
 11063 3df6 0023     		movs	r3, #0
 11064 3df8 00E0     		b	.L716
 11065              	.L715:
 11066              		.loc 1 3794 0
 11067 3dfa 0123     		movs	r3, #1
 11068              	.L716:
 11069              		.loc 1 3795 0
 11070 3dfc 1846     		mov	r0, r3
 11071 3dfe 05B0     		add	sp, sp, #20
 11072              		@ sp needed
 11073 3e00 5DF804FB 		ldr	pc, [sp], #4
 11074              		.cfi_endproc
 11075              	.LFE453:
 11076              		.size	LSM303AGR_ACC_W_ClickTimeLimit, .-LSM303AGR_ACC_W_ClickTimeLimit
 11077              		.align	2
 11078 3e04 AFF30080 		.p2align 4,,15
 11078      AFF30080 
 11078      AFF30080 
 11079              		.global	LSM303AGR_ACC_R_ClickTimeLimit
 11080              		.thumb
 11081              		.thumb_func
 11082              		.type	LSM303AGR_ACC_R_ClickTimeLimit, %function
 11083              	LSM303AGR_ACC_R_ClickTimeLimit:
 11084              	.LFB454:
 11085              		.loc 1 3805 0
 11086              		.cfi_startproc
 11087              		@ args = 0, pretend = 0, frame = 8
 11088              		@ frame_needed = 0, uses_anonymous_args = 0
 11089 3e10 00B5     		push	{lr}
 11090              		.cfi_def_cfa_offset 4
 11091              		.cfi_offset 14, -4
 11092 3e12 83B0     		sub	sp, sp, #12
 11093              		.cfi_def_cfa_offset 16
 11094 3e14 0190     		str	r0, [sp, #4]
 11095 3e16 0091     		str	r1, [sp]
 11096              		.loc 1 3806 0
 11097 3e18 0198     		ldr	r0, [sp, #4]
 11098 3e1a 3B21     		movs	r1, #59
 11099 3e1c 009A     		ldr	r2, [sp]
 11100 3e1e 0123     		movs	r3, #1
ARM GAS  /tmp/cc1ELVNa.s 			page 199


 11101 3e20 FFF7FEFF 		bl	LSM303AGR_ACC_ReadReg
 11102 3e24 0346     		mov	r3, r0
 11103 3e26 002B     		cmp	r3, #0
 11104 3e28 01D1     		bne	.L718
 11105              		.loc 1 3807 0
 11106 3e2a 0023     		movs	r3, #0
 11107 3e2c 0BE0     		b	.L719
 11108              	.L718:
 11109              		.loc 1 3809 0
 11110 3e2e 009B     		ldr	r3, [sp]
 11111 3e30 1B78     		ldrb	r3, [r3]	@ zero_extendqisi2
 11112 3e32 03F07F03 		and	r3, r3, #127
 11113 3e36 DAB2     		uxtb	r2, r3
 11114 3e38 009B     		ldr	r3, [sp]
 11115 3e3a 1A70     		strb	r2, [r3]
 11116              		.loc 1 3810 0
 11117 3e3c 009B     		ldr	r3, [sp]
 11118 3e3e 1A78     		ldrb	r2, [r3]	@ zero_extendqisi2
 11119 3e40 009B     		ldr	r3, [sp]
 11120 3e42 1A70     		strb	r2, [r3]
 11121              		.loc 1 3812 0
 11122 3e44 0123     		movs	r3, #1
 11123              	.L719:
 11124              		.loc 1 3813 0
 11125 3e46 1846     		mov	r0, r3
 11126 3e48 03B0     		add	sp, sp, #12
 11127              		@ sp needed
 11128 3e4a 5DF804FB 		ldr	pc, [sp], #4
 11129              		.cfi_endproc
 11130              	.LFE454:
 11131              		.size	LSM303AGR_ACC_R_ClickTimeLimit, .-LSM303AGR_ACC_R_ClickTimeLimit
 11132 3e4e 00BF     		.align	2
 11133              		.p2align 4,,15
 11134              		.global	LSM303AGR_ACC_W_ClickTimeLatency
 11135              		.thumb
 11136              		.thumb_func
 11137              		.type	LSM303AGR_ACC_W_ClickTimeLatency, %function
 11138              	LSM303AGR_ACC_W_ClickTimeLatency:
 11139              	.LFB455:
 11140              		.loc 1 3823 0
 11141              		.cfi_startproc
 11142              		@ args = 0, pretend = 0, frame = 16
 11143              		@ frame_needed = 0, uses_anonymous_args = 0
 11144 3e50 00B5     		push	{lr}
 11145              		.cfi_def_cfa_offset 4
 11146              		.cfi_offset 14, -4
 11147 3e52 85B0     		sub	sp, sp, #20
 11148              		.cfi_def_cfa_offset 24
 11149 3e54 0190     		str	r0, [sp, #4]
 11150 3e56 0B46     		mov	r3, r1
 11151 3e58 8DF80330 		strb	r3, [sp, #3]
 11152              		.loc 1 3829 0
 11153 3e5c 0DF10F03 		add	r3, sp, #15
 11154 3e60 0198     		ldr	r0, [sp, #4]
 11155 3e62 3C21     		movs	r1, #60
 11156 3e64 1A46     		mov	r2, r3
 11157 3e66 0123     		movs	r3, #1
ARM GAS  /tmp/cc1ELVNa.s 			page 200


 11158 3e68 FFF7FEFF 		bl	LSM303AGR_ACC_ReadReg
 11159 3e6c 0346     		mov	r3, r0
 11160 3e6e 002B     		cmp	r3, #0
 11161 3e70 01D1     		bne	.L721
 11162              		.loc 1 3830 0
 11163 3e72 0023     		movs	r3, #0
 11164 3e74 18E0     		b	.L724
 11165              	.L721:
 11166              		.loc 1 3832 0
 11167 3e76 0023     		movs	r3, #0
 11168 3e78 8DF80F30 		strb	r3, [sp, #15]
 11169              		.loc 1 3833 0
 11170 3e7c 9DF80F20 		ldrb	r2, [sp, #15]	@ zero_extendqisi2
 11171 3e80 9DF80330 		ldrb	r3, [sp, #3]
 11172 3e84 1343     		orrs	r3, r3, r2
 11173 3e86 DBB2     		uxtb	r3, r3
 11174 3e88 8DF80F30 		strb	r3, [sp, #15]
 11175              		.loc 1 3835 0
 11176 3e8c 0DF10F03 		add	r3, sp, #15
 11177 3e90 0198     		ldr	r0, [sp, #4]
 11178 3e92 3C21     		movs	r1, #60
 11179 3e94 1A46     		mov	r2, r3
 11180 3e96 0123     		movs	r3, #1
 11181 3e98 FFF7FEFF 		bl	LSM303AGR_ACC_WriteReg
 11182 3e9c 0346     		mov	r3, r0
 11183 3e9e 002B     		cmp	r3, #0
 11184 3ea0 01D1     		bne	.L723
 11185              		.loc 1 3836 0
 11186 3ea2 0023     		movs	r3, #0
 11187 3ea4 00E0     		b	.L724
 11188              	.L723:
 11189              		.loc 1 3838 0
 11190 3ea6 0123     		movs	r3, #1
 11191              	.L724:
 11192              		.loc 1 3839 0
 11193 3ea8 1846     		mov	r0, r3
 11194 3eaa 05B0     		add	sp, sp, #20
 11195              		@ sp needed
 11196 3eac 5DF804FB 		ldr	pc, [sp], #4
 11197              		.cfi_endproc
 11198              	.LFE455:
 11199              		.size	LSM303AGR_ACC_W_ClickTimeLatency, .-LSM303AGR_ACC_W_ClickTimeLatency
 11200              		.align	2
 11201              		.p2align 4,,15
 11202              		.global	LSM303AGR_ACC_R_ClickTimeLatency
 11203              		.thumb
 11204              		.thumb_func
 11205              		.type	LSM303AGR_ACC_R_ClickTimeLatency, %function
 11206              	LSM303AGR_ACC_R_ClickTimeLatency:
 11207              	.LFB456:
 11208              		.loc 1 3849 0
 11209              		.cfi_startproc
 11210              		@ args = 0, pretend = 0, frame = 8
 11211              		@ frame_needed = 0, uses_anonymous_args = 0
 11212 3eb0 00B5     		push	{lr}
 11213              		.cfi_def_cfa_offset 4
 11214              		.cfi_offset 14, -4
ARM GAS  /tmp/cc1ELVNa.s 			page 201


 11215 3eb2 83B0     		sub	sp, sp, #12
 11216              		.cfi_def_cfa_offset 16
 11217 3eb4 0190     		str	r0, [sp, #4]
 11218 3eb6 0091     		str	r1, [sp]
 11219              		.loc 1 3850 0
 11220 3eb8 0198     		ldr	r0, [sp, #4]
 11221 3eba 3C21     		movs	r1, #60
 11222 3ebc 009A     		ldr	r2, [sp]
 11223 3ebe 0123     		movs	r3, #1
 11224 3ec0 FFF7FEFF 		bl	LSM303AGR_ACC_ReadReg
 11225 3ec4 0346     		mov	r3, r0
 11226 3ec6 002B     		cmp	r3, #0
 11227 3ec8 01D1     		bne	.L726
 11228              		.loc 1 3851 0
 11229 3eca 0023     		movs	r3, #0
 11230 3ecc 08E0     		b	.L727
 11231              	.L726:
 11232              		.loc 1 3853 0
 11233 3ece 009B     		ldr	r3, [sp]
 11234 3ed0 1A78     		ldrb	r2, [r3]	@ zero_extendqisi2
 11235 3ed2 009B     		ldr	r3, [sp]
 11236 3ed4 1A70     		strb	r2, [r3]
 11237              		.loc 1 3854 0
 11238 3ed6 009B     		ldr	r3, [sp]
 11239 3ed8 1A78     		ldrb	r2, [r3]	@ zero_extendqisi2
 11240 3eda 009B     		ldr	r3, [sp]
 11241 3edc 1A70     		strb	r2, [r3]
 11242              		.loc 1 3856 0
 11243 3ede 0123     		movs	r3, #1
 11244              	.L727:
 11245              		.loc 1 3857 0
 11246 3ee0 1846     		mov	r0, r3
 11247 3ee2 03B0     		add	sp, sp, #12
 11248              		@ sp needed
 11249 3ee4 5DF804FB 		ldr	pc, [sp], #4
 11250              		.cfi_endproc
 11251              	.LFE456:
 11252              		.size	LSM303AGR_ACC_R_ClickTimeLatency, .-LSM303AGR_ACC_R_ClickTimeLatency
 11253              		.align	2
 11254 3ee8 AFF30080 		.p2align 4,,15
 11254      AFF30080 
 11255              		.global	LSM303AGR_ACC_W_ClickTimeWindow
 11256              		.thumb
 11257              		.thumb_func
 11258              		.type	LSM303AGR_ACC_W_ClickTimeWindow, %function
 11259              	LSM303AGR_ACC_W_ClickTimeWindow:
 11260              	.LFB457:
 11261              		.loc 1 3867 0
 11262              		.cfi_startproc
 11263              		@ args = 0, pretend = 0, frame = 16
 11264              		@ frame_needed = 0, uses_anonymous_args = 0
 11265 3ef0 00B5     		push	{lr}
 11266              		.cfi_def_cfa_offset 4
 11267              		.cfi_offset 14, -4
 11268 3ef2 85B0     		sub	sp, sp, #20
 11269              		.cfi_def_cfa_offset 24
 11270 3ef4 0190     		str	r0, [sp, #4]
ARM GAS  /tmp/cc1ELVNa.s 			page 202


 11271 3ef6 0B46     		mov	r3, r1
 11272 3ef8 8DF80330 		strb	r3, [sp, #3]
 11273              		.loc 1 3873 0
 11274 3efc 0DF10F03 		add	r3, sp, #15
 11275 3f00 0198     		ldr	r0, [sp, #4]
 11276 3f02 3D21     		movs	r1, #61
 11277 3f04 1A46     		mov	r2, r3
 11278 3f06 0123     		movs	r3, #1
 11279 3f08 FFF7FEFF 		bl	LSM303AGR_ACC_ReadReg
 11280 3f0c 0346     		mov	r3, r0
 11281 3f0e 002B     		cmp	r3, #0
 11282 3f10 01D1     		bne	.L729
 11283              		.loc 1 3874 0
 11284 3f12 0023     		movs	r3, #0
 11285 3f14 18E0     		b	.L732
 11286              	.L729:
 11287              		.loc 1 3876 0
 11288 3f16 0023     		movs	r3, #0
 11289 3f18 8DF80F30 		strb	r3, [sp, #15]
 11290              		.loc 1 3877 0
 11291 3f1c 9DF80F20 		ldrb	r2, [sp, #15]	@ zero_extendqisi2
 11292 3f20 9DF80330 		ldrb	r3, [sp, #3]
 11293 3f24 1343     		orrs	r3, r3, r2
 11294 3f26 DBB2     		uxtb	r3, r3
 11295 3f28 8DF80F30 		strb	r3, [sp, #15]
 11296              		.loc 1 3879 0
 11297 3f2c 0DF10F03 		add	r3, sp, #15
 11298 3f30 0198     		ldr	r0, [sp, #4]
 11299 3f32 3D21     		movs	r1, #61
 11300 3f34 1A46     		mov	r2, r3
 11301 3f36 0123     		movs	r3, #1
 11302 3f38 FFF7FEFF 		bl	LSM303AGR_ACC_WriteReg
 11303 3f3c 0346     		mov	r3, r0
 11304 3f3e 002B     		cmp	r3, #0
 11305 3f40 01D1     		bne	.L731
 11306              		.loc 1 3880 0
 11307 3f42 0023     		movs	r3, #0
 11308 3f44 00E0     		b	.L732
 11309              	.L731:
 11310              		.loc 1 3882 0
 11311 3f46 0123     		movs	r3, #1
 11312              	.L732:
 11313              		.loc 1 3883 0
 11314 3f48 1846     		mov	r0, r3
 11315 3f4a 05B0     		add	sp, sp, #20
 11316              		@ sp needed
 11317 3f4c 5DF804FB 		ldr	pc, [sp], #4
 11318              		.cfi_endproc
 11319              	.LFE457:
 11320              		.size	LSM303AGR_ACC_W_ClickTimeWindow, .-LSM303AGR_ACC_W_ClickTimeWindow
 11321              		.align	2
 11322              		.p2align 4,,15
 11323              		.global	LSM303AGR_ACC_R_ClickTimeWindow
 11324              		.thumb
 11325              		.thumb_func
 11326              		.type	LSM303AGR_ACC_R_ClickTimeWindow, %function
 11327              	LSM303AGR_ACC_R_ClickTimeWindow:
ARM GAS  /tmp/cc1ELVNa.s 			page 203


 11328              	.LFB458:
 11329              		.loc 1 3893 0
 11330              		.cfi_startproc
 11331              		@ args = 0, pretend = 0, frame = 8
 11332              		@ frame_needed = 0, uses_anonymous_args = 0
 11333 3f50 00B5     		push	{lr}
 11334              		.cfi_def_cfa_offset 4
 11335              		.cfi_offset 14, -4
 11336 3f52 83B0     		sub	sp, sp, #12
 11337              		.cfi_def_cfa_offset 16
 11338 3f54 0190     		str	r0, [sp, #4]
 11339 3f56 0091     		str	r1, [sp]
 11340              		.loc 1 3894 0
 11341 3f58 0198     		ldr	r0, [sp, #4]
 11342 3f5a 3D21     		movs	r1, #61
 11343 3f5c 009A     		ldr	r2, [sp]
 11344 3f5e 0123     		movs	r3, #1
 11345 3f60 FFF7FEFF 		bl	LSM303AGR_ACC_ReadReg
 11346 3f64 0346     		mov	r3, r0
 11347 3f66 002B     		cmp	r3, #0
 11348 3f68 01D1     		bne	.L734
 11349              		.loc 1 3895 0
 11350 3f6a 0023     		movs	r3, #0
 11351 3f6c 08E0     		b	.L735
 11352              	.L734:
 11353              		.loc 1 3897 0
 11354 3f6e 009B     		ldr	r3, [sp]
 11355 3f70 1A78     		ldrb	r2, [r3]	@ zero_extendqisi2
 11356 3f72 009B     		ldr	r3, [sp]
 11357 3f74 1A70     		strb	r2, [r3]
 11358              		.loc 1 3898 0
 11359 3f76 009B     		ldr	r3, [sp]
 11360 3f78 1A78     		ldrb	r2, [r3]	@ zero_extendqisi2
 11361 3f7a 009B     		ldr	r3, [sp]
 11362 3f7c 1A70     		strb	r2, [r3]
 11363              		.loc 1 3900 0
 11364 3f7e 0123     		movs	r3, #1
 11365              	.L735:
 11366              		.loc 1 3901 0
 11367 3f80 1846     		mov	r0, r3
 11368 3f82 03B0     		add	sp, sp, #12
 11369              		@ sp needed
 11370 3f84 5DF804FB 		ldr	pc, [sp], #4
 11371              		.cfi_endproc
 11372              	.LFE458:
 11373              		.size	LSM303AGR_ACC_R_ClickTimeWindow, .-LSM303AGR_ACC_R_ClickTimeWindow
 11374              		.align	2
 11375 3f88 AFF30080 		.p2align 4,,15
 11375      AFF30080 
 11376              		.global	LSM303AGR_ACC_Get_Voltage_ADC
 11377              		.thumb
 11378              		.thumb_func
 11379              		.type	LSM303AGR_ACC_Get_Voltage_ADC, %function
 11380              	LSM303AGR_ACC_Get_Voltage_ADC:
 11381              	.LFB459:
 11382              		.loc 1 3911 0
 11383              		.cfi_startproc
ARM GAS  /tmp/cc1ELVNa.s 			page 204


 11384              		@ args = 0, pretend = 0, frame = 16
 11385              		@ frame_needed = 0, uses_anonymous_args = 0
 11386 3f90 00B5     		push	{lr}
 11387              		.cfi_def_cfa_offset 4
 11388              		.cfi_offset 14, -4
 11389 3f92 85B0     		sub	sp, sp, #20
 11390              		.cfi_def_cfa_offset 24
 11391 3f94 0190     		str	r0, [sp, #4]
 11392 3f96 0091     		str	r1, [sp]
 11393              		.loc 1 3915 0
 11394 3f98 0223     		movs	r3, #2
 11395 3f9a 8DF80C30 		strb	r3, [sp, #12]
 11396              		.loc 1 3917 0
 11397 3f9e 0023     		movs	r3, #0
 11398 3fa0 8DF80D30 		strb	r3, [sp, #13]
 11399              		.loc 1 3918 0
 11400 3fa4 0023     		movs	r3, #0
 11401 3fa6 8DF80F30 		strb	r3, [sp, #15]
 11402 3faa 2BE0     		b	.L737
 11403              	.L742:
 11404              		.loc 1 3920 0
 11405 3fac 0023     		movs	r3, #0
 11406 3fae 8DF80E30 		strb	r3, [sp, #14]
 11407 3fb2 1CE0     		b	.L738
 11408              	.L741:
 11409              		.loc 1 3922 0
 11410 3fb4 9DF80D30 		ldrb	r3, [sp, #13]
 11411 3fb8 0833     		adds	r3, r3, #8
 11412 3fba DAB2     		uxtb	r2, r3
 11413 3fbc 9DF80D30 		ldrb	r3, [sp, #13]	@ zero_extendqisi2
 11414 3fc0 0099     		ldr	r1, [sp]
 11415 3fc2 0B44     		add	r3, r3, r1
 11416 3fc4 0198     		ldr	r0, [sp, #4]
 11417 3fc6 1146     		mov	r1, r2
 11418 3fc8 1A46     		mov	r2, r3
 11419 3fca 0123     		movs	r3, #1
 11420 3fcc FFF7FEFF 		bl	LSM303AGR_ACC_ReadReg
 11421 3fd0 0346     		mov	r3, r0
 11422 3fd2 002B     		cmp	r3, #0
 11423 3fd4 01D1     		bne	.L739
 11424              		.loc 1 3923 0
 11425 3fd6 0023     		movs	r3, #0
 11426 3fd8 19E0     		b	.L740
 11427              	.L739:
 11428              		.loc 1 3924 0
 11429 3fda 9DF80D30 		ldrb	r3, [sp, #13]	@ zero_extendqisi2
 11430 3fde 0133     		adds	r3, r3, #1
 11431 3fe0 8DF80D30 		strb	r3, [sp, #13]
 11432              		.loc 1 3920 0
 11433 3fe4 9DF80E30 		ldrb	r3, [sp, #14]	@ zero_extendqisi2
 11434 3fe8 0133     		adds	r3, r3, #1
 11435 3fea 8DF80E30 		strb	r3, [sp, #14]
 11436              	.L738:
 11437              		.loc 1 3920 0 is_stmt 0 discriminator 1
 11438 3fee 9DF80E20 		ldrb	r2, [sp, #14]	@ zero_extendqisi2
 11439 3ff2 9DF80C30 		ldrb	r3, [sp, #12]	@ zero_extendqisi2
 11440 3ff6 9A42     		cmp	r2, r3
ARM GAS  /tmp/cc1ELVNa.s 			page 205


 11441 3ff8 DCD3     		bcc	.L741
 11442              		.loc 1 3918 0 is_stmt 1
 11443 3ffa 9DF80F30 		ldrb	r3, [sp, #15]	@ zero_extendqisi2
 11444 3ffe 0133     		adds	r3, r3, #1
 11445 4000 8DF80F30 		strb	r3, [sp, #15]
 11446              	.L737:
 11447              		.loc 1 3918 0 is_stmt 0 discriminator 1
 11448 4004 9DF80F30 		ldrb	r3, [sp, #15]	@ zero_extendqisi2
 11449 4008 022B     		cmp	r3, #2
 11450 400a CFD9     		bls	.L742
 11451              		.loc 1 3928 0 is_stmt 1
 11452 400c 0123     		movs	r3, #1
 11453              	.L740:
 11454              		.loc 1 3929 0
 11455 400e 1846     		mov	r0, r3
 11456 4010 05B0     		add	sp, sp, #20
 11457              		@ sp needed
 11458 4012 5DF804FB 		ldr	pc, [sp], #4
 11459              		.cfi_endproc
 11460              	.LFE459:
 11461              		.size	LSM303AGR_ACC_Get_Voltage_ADC, .-LSM303AGR_ACC_Get_Voltage_ADC
 11462              	.Letext0:
 11463              		.file 2 "/nfs/nfs5/home/research/hardware/arm2/gcc-arm-embedded/gcc-arm-none-eabi-4_8-2014q2/lib/g
 11464              		.file 3 "/nfs/nfs5/home/research/hardware/arm2/gcc-arm-embedded/gcc-arm-none-eabi-4_8-2014q2/arm-n
 11465              		.file 4 "/nfs/nfs5/home/research/hardware/arm2/gcc-arm-embedded/gcc-arm-none-eabi-4_8-2014q2/arm-n
 11466              		.file 5 "../../ChibiOS/os/rt/ports/ARMCMx/compilers/GCC/chtypes.h"
 11467              		.file 6 "../../ChibiOS/os/rt/include/chsystypes.h"
 11468              		.file 7 "../../ChibiOS/os/rt/include/chschd.h"
 11469              		.file 8 "../../ChibiOS/os/ext/CMSIS/ST/STM32L4xx/stm32l476xx.h"
 11470              		.file 9 "../../ChibiOS/os/rt/ports/ARMCMx/chcore.h"
 11471              		.file 10 "../../ChibiOS/os/rt/ports/ARMCMx/chcore_v7m.h"
 11472              		.file 11 "../../ChibiOS/os/rt/include/chtm.h"
 11473              		.file 12 "../../ChibiOS/os/rt/include/chsem.h"
 11474              		.file 13 "../../ChibiOS/os/rt/include/chmtx.h"
 11475              		.file 14 "../../ChibiOS/os/hal/ports/STM32/LLD/DMAv1/stm32_dma.h"
 11476              		.file 15 "../../ChibiOS/os/hal/ports/STM32/LLD/GPIOv3/pal_lld.h"
 11477              		.file 16 "../../ChibiOS/os/hal/include/spi.h"
 11478              		.file 17 "../../ChibiOS/os/hal/ports/STM32/LLD/SPIv2/spi_lld.h"
 11479              		.file 18 "BSP/Components/lsm303agr/LSM303AGR_ACC_driver.h"
 11480              		.file 19 "../../ChibiOS/os/ext/CMSIS/include/core_cm4.h"
 11481 4016 00BFAFF3 		.section	.debug_info,"",%progbits
 11481      0080AFF3 
 11481      0080
 11482              	.Ldebug_info0:
 11483 0000 28490000 		.4byte	0x4928
 11484 0004 0400     		.2byte	0x4
 11485 0006 00000000 		.4byte	.Ldebug_abbrev0
 11486 000a 04       		.byte	0x4
 11487 000b 01       		.uleb128 0x1
 11488 000c C80E0000 		.4byte	.LASF653
 11489 0010 01       		.byte	0x1
 11490 0011 B70F0000 		.4byte	.LASF654
 11491 0015 8E200000 		.4byte	.LASF655
 11492 0019 00000000 		.4byte	.Ltext0
 11493 001d 16400000 		.4byte	.Letext0-.Ltext0
 11494 0021 00000000 		.4byte	.Ldebug_line0
 11495 0025 02       		.uleb128 0x2
ARM GAS  /tmp/cc1ELVNa.s 			page 206


 11496 0026 04       		.byte	0x4
 11497 0027 05       		.byte	0x5
 11498 0028 696E7400 		.ascii	"int\000"
 11499 002c 03       		.uleb128 0x3
 11500 002d C3150000 		.4byte	.LASF2
 11501 0031 02       		.byte	0x2
 11502 0032 D4       		.byte	0xd4
 11503 0033 37000000 		.4byte	0x37
 11504 0037 04       		.uleb128 0x4
 11505 0038 04       		.byte	0x4
 11506 0039 07       		.byte	0x7
 11507 003a 49370000 		.4byte	.LASF0
 11508 003e 04       		.uleb128 0x4
 11509 003f 01       		.byte	0x1
 11510 0040 06       		.byte	0x6
 11511 0041 CB1F0000 		.4byte	.LASF1
 11512 0045 03       		.uleb128 0x3
 11513 0046 70010000 		.4byte	.LASF3
 11514 004a 03       		.byte	0x3
 11515 004b 1C       		.byte	0x1c
 11516 004c 50000000 		.4byte	0x50
 11517 0050 04       		.uleb128 0x4
 11518 0051 01       		.byte	0x1
 11519 0052 08       		.byte	0x8
 11520 0053 230E0000 		.4byte	.LASF4
 11521 0057 04       		.uleb128 0x4
 11522 0058 02       		.byte	0x2
 11523 0059 05       		.byte	0x5
 11524 005a 05380000 		.4byte	.LASF5
 11525 005e 03       		.uleb128 0x3
 11526 005f 320B0000 		.4byte	.LASF6
 11527 0063 03       		.byte	0x3
 11528 0064 26       		.byte	0x26
 11529 0065 69000000 		.4byte	0x69
 11530 0069 04       		.uleb128 0x4
 11531 006a 02       		.byte	0x2
 11532 006b 07       		.byte	0x7
 11533 006c 7E1F0000 		.4byte	.LASF7
 11534 0070 03       		.uleb128 0x3
 11535 0071 BF2D0000 		.4byte	.LASF8
 11536 0075 03       		.byte	0x3
 11537 0076 37       		.byte	0x37
 11538 0077 7B000000 		.4byte	0x7b
 11539 007b 04       		.uleb128 0x4
 11540 007c 04       		.byte	0x4
 11541 007d 05       		.byte	0x5
 11542 007e 02240000 		.4byte	.LASF9
 11543 0082 03       		.uleb128 0x3
 11544 0083 E12D0000 		.4byte	.LASF10
 11545 0087 03       		.byte	0x3
 11546 0088 38       		.byte	0x38
 11547 0089 8D000000 		.4byte	0x8d
 11548 008d 04       		.uleb128 0x4
 11549 008e 04       		.byte	0x4
 11550 008f 07       		.byte	0x7
 11551 0090 90260000 		.4byte	.LASF11
 11552 0094 04       		.uleb128 0x4
ARM GAS  /tmp/cc1ELVNa.s 			page 207


 11553 0095 08       		.byte	0x8
 11554 0096 05       		.byte	0x5
 11555 0097 4C340000 		.4byte	.LASF12
 11556 009b 03       		.uleb128 0x3
 11557 009c E4180000 		.4byte	.LASF13
 11558 00a0 03       		.byte	0x3
 11559 00a1 4E       		.byte	0x4e
 11560 00a2 A6000000 		.4byte	0xa6
 11561 00a6 04       		.uleb128 0x4
 11562 00a7 08       		.byte	0x8
 11563 00a8 07       		.byte	0x7
 11564 00a9 EA300000 		.4byte	.LASF14
 11565 00ad 03       		.uleb128 0x3
 11566 00ae CA150000 		.4byte	.LASF15
 11567 00b2 04       		.byte	0x4
 11568 00b3 2A       		.byte	0x2a
 11569 00b4 45000000 		.4byte	0x45
 11570 00b8 03       		.uleb128 0x3
 11571 00b9 A0030000 		.4byte	.LASF16
 11572 00bd 04       		.byte	0x4
 11573 00be 36       		.byte	0x36
 11574 00bf 5E000000 		.4byte	0x5e
 11575 00c3 03       		.uleb128 0x3
 11576 00c4 ED050000 		.4byte	.LASF17
 11577 00c8 04       		.byte	0x4
 11578 00c9 41       		.byte	0x41
 11579 00ca 70000000 		.4byte	0x70
 11580 00ce 03       		.uleb128 0x3
 11581 00cf AA250000 		.4byte	.LASF18
 11582 00d3 04       		.byte	0x4
 11583 00d4 42       		.byte	0x42
 11584 00d5 82000000 		.4byte	0x82
 11585 00d9 03       		.uleb128 0x3
 11586 00da 36110000 		.4byte	.LASF19
 11587 00de 04       		.byte	0x4
 11588 00df 4E       		.byte	0x4e
 11589 00e0 9B000000 		.4byte	0x9b
 11590 00e4 03       		.uleb128 0x3
 11591 00e5 D4140000 		.4byte	.LASF20
 11592 00e9 05       		.byte	0x5
 11593 00ea 39       		.byte	0x39
 11594 00eb CE000000 		.4byte	0xce
 11595 00ef 03       		.uleb128 0x3
 11596 00f0 5A1B0000 		.4byte	.LASF21
 11597 00f4 05       		.byte	0x5
 11598 00f5 3C       		.byte	0x3c
 11599 00f6 AD000000 		.4byte	0xad
 11600 00fa 03       		.uleb128 0x3
 11601 00fb 76320000 		.4byte	.LASF22
 11602 00ff 05       		.byte	0x5
 11603 0100 3D       		.byte	0x3d
 11604 0101 AD000000 		.4byte	0xad
 11605 0105 03       		.uleb128 0x3
 11606 0106 421A0000 		.4byte	.LASF23
 11607 010a 05       		.byte	0x5
 11608 010b 3E       		.byte	0x3e
 11609 010c AD000000 		.4byte	0xad
ARM GAS  /tmp/cc1ELVNa.s 			page 208


 11610 0110 03       		.uleb128 0x3
 11611 0111 D01E0000 		.4byte	.LASF24
 11612 0115 05       		.byte	0x5
 11613 0116 3F       		.byte	0x3f
 11614 0117 AD000000 		.4byte	0xad
 11615 011b 03       		.uleb128 0x3
 11616 011c DE090000 		.4byte	.LASF25
 11617 0120 05       		.byte	0x5
 11618 0121 40       		.byte	0x40
 11619 0122 CE000000 		.4byte	0xce
 11620 0126 03       		.uleb128 0x3
 11621 0127 71000000 		.4byte	.LASF26
 11622 012b 05       		.byte	0x5
 11623 012c 41       		.byte	0x41
 11624 012d C3000000 		.4byte	0xc3
 11625 0131 03       		.uleb128 0x3
 11626 0132 1C260000 		.4byte	.LASF27
 11627 0136 05       		.byte	0x5
 11628 0137 43       		.byte	0x43
 11629 0138 CE000000 		.4byte	0xce
 11630 013c 03       		.uleb128 0x3
 11631 013d A12A0000 		.4byte	.LASF28
 11632 0141 05       		.byte	0x5
 11633 0142 45       		.byte	0x45
 11634 0143 C3000000 		.4byte	0xc3
 11635 0147 03       		.uleb128 0x3
 11636 0148 2F060000 		.4byte	.LASF29
 11637 014c 06       		.byte	0x6
 11638 014d 33       		.byte	0x33
 11639 014e CE000000 		.4byte	0xce
 11640 0152 03       		.uleb128 0x3
 11641 0153 89050000 		.4byte	.LASF30
 11642 0157 06       		.byte	0x6
 11643 0158 3F       		.byte	0x3f
 11644 0159 5D010000 		.4byte	0x15d
 11645 015d 05       		.uleb128 0x5
 11646 015e 6C0E0000 		.4byte	.LASF51
 11647 0162 44       		.byte	0x44
 11648 0163 07       		.byte	0x7
 11649 0164 C2       		.byte	0xc2
 11650 0165 56020000 		.4byte	0x256
 11651 0169 06       		.uleb128 0x6
 11652 016a EB190000 		.4byte	.LASF31
 11653 016e 07       		.byte	0x7
 11654 016f C3       		.byte	0xc3
 11655 0170 61020000 		.4byte	0x261
 11656 0174 00       		.byte	0
 11657 0175 06       		.uleb128 0x6
 11658 0176 F8150000 		.4byte	.LASF32
 11659 017a 07       		.byte	0x7
 11660 017b C5       		.byte	0xc5
 11661 017c 61020000 		.4byte	0x261
 11662 0180 04       		.byte	0x4
 11663 0181 06       		.uleb128 0x6
 11664 0182 DD180000 		.4byte	.LASF33
 11665 0186 07       		.byte	0x7
 11666 0187 C7       		.byte	0xc7
ARM GAS  /tmp/cc1ELVNa.s 			page 209


 11667 0188 1B010000 		.4byte	0x11b
 11668 018c 08       		.byte	0x8
 11669 018d 06       		.uleb128 0x6
 11670 018e 76100000 		.4byte	.LASF34
 11671 0192 07       		.byte	0x7
 11672 0193 C8       		.byte	0xc8
 11673 0194 99050000 		.4byte	0x599
 11674 0198 0C       		.byte	0xc
 11675 0199 06       		.uleb128 0x6
 11676 019a 45040000 		.4byte	.LASF35
 11677 019e 07       		.byte	0x7
 11678 019f CA       		.byte	0xca
 11679 01a0 61020000 		.4byte	0x261
 11680 01a4 10       		.byte	0x10
 11681 01a5 06       		.uleb128 0x6
 11682 01a6 E4350000 		.4byte	.LASF36
 11683 01aa 07       		.byte	0x7
 11684 01ab CB       		.byte	0xcb
 11685 01ac 61020000 		.4byte	0x261
 11686 01b0 14       		.byte	0x14
 11687 01b1 06       		.uleb128 0x6
 11688 01b2 F1320000 		.4byte	.LASF37
 11689 01b6 07       		.byte	0x7
 11690 01b7 D2       		.byte	0xd2
 11691 01b8 18070000 		.4byte	0x718
 11692 01bc 18       		.byte	0x18
 11693 01bd 06       		.uleb128 0x6
 11694 01be 97380000 		.4byte	.LASF38
 11695 01c2 07       		.byte	0x7
 11696 01c3 DD       		.byte	0xdd
 11697 01c4 FA000000 		.4byte	0xfa
 11698 01c8 1C       		.byte	0x1c
 11699 01c9 06       		.uleb128 0x6
 11700 01ca 02320000 		.4byte	.LASF39
 11701 01ce 07       		.byte	0x7
 11702 01cf E1       		.byte	0xe1
 11703 01d0 EF000000 		.4byte	0xef
 11704 01d4 1D       		.byte	0x1d
 11705 01d5 06       		.uleb128 0x6
 11706 01d6 E2230000 		.4byte	.LASF40
 11707 01da 07       		.byte	0x7
 11708 01db E6       		.byte	0xe6
 11709 01dc 05010000 		.4byte	0x105
 11710 01e0 1E       		.byte	0x1e
 11711 01e1 06       		.uleb128 0x6
 11712 01e2 4E200000 		.4byte	.LASF41
 11713 01e6 07       		.byte	0x7
 11714 01e7 EC       		.byte	0xec
 11715 01e8 10010000 		.4byte	0x110
 11716 01ec 1F       		.byte	0x1f
 11717 01ed 07       		.uleb128 0x7
 11718 01ee 705F7500 		.ascii	"p_u\000"
 11719 01f2 07       		.byte	0x7
 11720 01f3 3101     		.2byte	0x131
 11721 01f5 53060000 		.4byte	0x653
 11722 01f9 20       		.byte	0x20
 11723 01fa 08       		.uleb128 0x8
ARM GAS  /tmp/cc1ELVNa.s 			page 210


 11724 01fb 86080000 		.4byte	.LASF42
 11725 01ff 07       		.byte	0x7
 11726 0200 3601     		.2byte	0x136
 11727 0202 67020000 		.4byte	0x267
 11728 0206 24       		.byte	0x24
 11729 0207 08       		.uleb128 0x8
 11730 0208 8B210000 		.4byte	.LASF43
 11731 020c 07       		.byte	0x7
 11732 020d 3C01     		.2byte	0x13c
 11733 020f 8B020000 		.4byte	0x28b
 11734 0213 28       		.byte	0x28
 11735 0214 08       		.uleb128 0x8
 11736 0215 3D0B0000 		.4byte	.LASF44
 11737 0219 07       		.byte	0x7
 11738 021a 4001     		.2byte	0x140
 11739 021c 26010000 		.4byte	0x126
 11740 0220 30       		.byte	0x30
 11741 0221 08       		.uleb128 0x8
 11742 0222 E92E0000 		.4byte	.LASF45
 11743 0226 07       		.byte	0x7
 11744 0227 4601     		.2byte	0x146
 11745 0229 31010000 		.4byte	0x131
 11746 022d 34       		.byte	0x34
 11747 022e 08       		.uleb128 0x8
 11748 022f 6C320000 		.4byte	.LASF46
 11749 0233 07       		.byte	0x7
 11750 0234 4D01     		.2byte	0x14d
 11751 0236 12070000 		.4byte	0x712
 11752 023a 38       		.byte	0x38
 11753 023b 08       		.uleb128 0x8
 11754 023c B52C0000 		.4byte	.LASF47
 11755 0240 07       		.byte	0x7
 11756 0241 5101     		.2byte	0x151
 11757 0243 1B010000 		.4byte	0x11b
 11758 0247 3C       		.byte	0x3c
 11759 0248 08       		.uleb128 0x8
 11760 0249 661A0000 		.4byte	.LASF48
 11761 024d 07       		.byte	0x7
 11762 024e 5801     		.2byte	0x158
 11763 0250 3E030000 		.4byte	0x33e
 11764 0254 40       		.byte	0x40
 11765 0255 00       		.byte	0
 11766 0256 03       		.uleb128 0x3
 11767 0257 27360000 		.4byte	.LASF49
 11768 025b 06       		.byte	0x6
 11769 025c 44       		.byte	0x44
 11770 025d 61020000 		.4byte	0x261
 11771 0261 09       		.uleb128 0x9
 11772 0262 04       		.byte	0x4
 11773 0263 52010000 		.4byte	0x152
 11774 0267 03       		.uleb128 0x3
 11775 0268 E3080000 		.4byte	.LASF50
 11776 026c 06       		.byte	0x6
 11777 026d 49       		.byte	0x49
 11778 026e 72020000 		.4byte	0x272
 11779 0272 05       		.uleb128 0x5
 11780 0273 BA380000 		.4byte	.LASF52
ARM GAS  /tmp/cc1ELVNa.s 			page 211


 11781 0277 04       		.byte	0x4
 11782 0278 07       		.byte	0x7
 11783 0279 B0       		.byte	0xb0
 11784 027a 8B020000 		.4byte	0x28b
 11785 027e 06       		.uleb128 0x6
 11786 027f EB190000 		.4byte	.LASF31
 11787 0283 07       		.byte	0x7
 11788 0284 B1       		.byte	0xb1
 11789 0285 61020000 		.4byte	0x261
 11790 0289 00       		.byte	0
 11791 028a 00       		.byte	0
 11792 028b 03       		.uleb128 0x3
 11793 028c D2230000 		.4byte	.LASF53
 11794 0290 06       		.byte	0x6
 11795 0291 50       		.byte	0x50
 11796 0292 96020000 		.4byte	0x296
 11797 0296 05       		.uleb128 0x5
 11798 0297 16040000 		.4byte	.LASF54
 11799 029b 08       		.byte	0x8
 11800 029c 07       		.byte	0x7
 11801 029d B7       		.byte	0xb7
 11802 029e BB020000 		.4byte	0x2bb
 11803 02a2 06       		.uleb128 0x6
 11804 02a3 EB190000 		.4byte	.LASF31
 11805 02a7 07       		.byte	0x7
 11806 02a8 B8       		.byte	0xb8
 11807 02a9 61020000 		.4byte	0x261
 11808 02ad 00       		.byte	0
 11809 02ae 06       		.uleb128 0x6
 11810 02af F8150000 		.4byte	.LASF32
 11811 02b3 07       		.byte	0x7
 11812 02b4 B9       		.byte	0xb9
 11813 02b5 61020000 		.4byte	0x261
 11814 02b9 04       		.byte	0x4
 11815 02ba 00       		.byte	0
 11816 02bb 03       		.uleb128 0x3
 11817 02bc 5F0E0000 		.4byte	.LASF55
 11818 02c0 06       		.byte	0x6
 11819 02c1 57       		.byte	0x57
 11820 02c2 C6020000 		.4byte	0x2c6
 11821 02c6 0A       		.uleb128 0xa
 11822 02c7 AB2D0000 		.4byte	.LASF56
 11823 02cb 1C       		.byte	0x1c
 11824 02cc 07       		.byte	0x7
 11825 02cd 9001     		.2byte	0x190
 11826 02cf 22030000 		.4byte	0x322
 11827 02d3 08       		.uleb128 0x8
 11828 02d4 F7270000 		.4byte	.LASF57
 11829 02d8 07       		.byte	0x7
 11830 02d9 9101     		.2byte	0x191
 11831 02db 8B020000 		.4byte	0x28b
 11832 02df 00       		.byte	0
 11833 02e0 08       		.uleb128 0x8
 11834 02e1 30300000 		.4byte	.LASF58
 11835 02e5 07       		.byte	0x7
 11836 02e6 9201     		.2byte	0x192
 11837 02e8 1B010000 		.4byte	0x11b
ARM GAS  /tmp/cc1ELVNa.s 			page 212


 11838 02ec 08       		.byte	0x8
 11839 02ed 08       		.uleb128 0x8
 11840 02ee 5C140000 		.4byte	.LASF59
 11841 02f2 07       		.byte	0x7
 11842 02f3 9401     		.2byte	0x194
 11843 02f5 99050000 		.4byte	0x599
 11844 02f9 0C       		.byte	0xc
 11845 02fa 08       		.uleb128 0x8
 11846 02fb 3E1E0000 		.4byte	.LASF60
 11847 02ff 07       		.byte	0x7
 11848 0300 9701     		.2byte	0x197
 11849 0302 61020000 		.4byte	0x261
 11850 0306 10       		.byte	0x10
 11851 0307 08       		.uleb128 0x8
 11852 0308 F0150000 		.4byte	.LASF61
 11853 030c 07       		.byte	0x7
 11854 030d 9801     		.2byte	0x198
 11855 030f 61020000 		.4byte	0x261
 11856 0313 14       		.byte	0x14
 11857 0314 08       		.uleb128 0x8
 11858 0315 9F100000 		.4byte	.LASF62
 11859 0319 07       		.byte	0x7
 11860 031a 9B01     		.2byte	0x19b
 11861 031c 61020000 		.4byte	0x261
 11862 0320 18       		.byte	0x18
 11863 0321 00       		.byte	0
 11864 0322 03       		.uleb128 0x3
 11865 0323 4C2C0000 		.4byte	.LASF63
 11866 0327 06       		.byte	0x6
 11867 0328 5C       		.byte	0x5c
 11868 0329 2D030000 		.4byte	0x32d
 11869 032d 09       		.uleb128 0x9
 11870 032e 04       		.byte	0x4
 11871 032f 33030000 		.4byte	0x333
 11872 0333 0B       		.uleb128 0xb
 11873 0334 3E030000 		.4byte	0x33e
 11874 0338 0C       		.uleb128 0xc
 11875 0339 3E030000 		.4byte	0x33e
 11876 033d 00       		.byte	0
 11877 033e 0D       		.uleb128 0xd
 11878 033f 04       		.byte	0x4
 11879 0340 03       		.uleb128 0x3
 11880 0341 1E140000 		.4byte	.LASF64
 11881 0345 06       		.byte	0x6
 11882 0346 61       		.byte	0x61
 11883 0347 4B030000 		.4byte	0x34b
 11884 034b 0A       		.uleb128 0xa
 11885 034c F1310000 		.4byte	.LASF65
 11886 0350 14       		.byte	0x14
 11887 0351 07       		.byte	0x7
 11888 0352 6B01     		.2byte	0x16b
 11889 0354 9A030000 		.4byte	0x39a
 11890 0358 08       		.uleb128 0x8
 11891 0359 62140000 		.4byte	.LASF66
 11892 035d 07       		.byte	0x7
 11893 035e 6C01     		.2byte	0x16c
 11894 0360 2A070000 		.4byte	0x72a
ARM GAS  /tmp/cc1ELVNa.s 			page 213


 11895 0364 00       		.byte	0
 11896 0365 08       		.uleb128 0x8
 11897 0366 140E0000 		.4byte	.LASF67
 11898 036a 07       		.byte	0x7
 11899 036b 6D01     		.2byte	0x16d
 11900 036d 2A070000 		.4byte	0x72a
 11901 0371 04       		.byte	0x4
 11902 0372 08       		.uleb128 0x8
 11903 0373 0A1F0000 		.4byte	.LASF68
 11904 0377 07       		.byte	0x7
 11905 0378 6E01     		.2byte	0x16e
 11906 037a 47010000 		.4byte	0x147
 11907 037e 08       		.byte	0x8
 11908 037f 08       		.uleb128 0x8
 11909 0380 B4310000 		.4byte	.LASF69
 11910 0384 07       		.byte	0x7
 11911 0385 6F01     		.2byte	0x16f
 11912 0387 22030000 		.4byte	0x322
 11913 038b 0C       		.byte	0xc
 11914 038c 08       		.uleb128 0x8
 11915 038d 7C100000 		.4byte	.LASF70
 11916 0391 07       		.byte	0x7
 11917 0392 7101     		.2byte	0x171
 11918 0394 3E030000 		.4byte	0x33e
 11919 0398 10       		.byte	0x10
 11920 0399 00       		.byte	0
 11921 039a 03       		.uleb128 0x3
 11922 039b 49330000 		.4byte	.LASF71
 11923 039f 06       		.byte	0x6
 11924 03a0 66       		.byte	0x66
 11925 03a1 A5030000 		.4byte	0x3a5
 11926 03a5 0A       		.uleb128 0xa
 11927 03a6 CF050000 		.4byte	.LASF72
 11928 03aa 10       		.byte	0x10
 11929 03ab 07       		.byte	0x7
 11930 03ac 7B01     		.2byte	0x17b
 11931 03ae E7030000 		.4byte	0x3e7
 11932 03b2 08       		.uleb128 0x8
 11933 03b3 62140000 		.4byte	.LASF66
 11934 03b7 07       		.byte	0x7
 11935 03b8 7C01     		.2byte	0x17c
 11936 03ba 2A070000 		.4byte	0x72a
 11937 03be 00       		.byte	0
 11938 03bf 08       		.uleb128 0x8
 11939 03c0 140E0000 		.4byte	.LASF67
 11940 03c4 07       		.byte	0x7
 11941 03c5 7E01     		.2byte	0x17e
 11942 03c7 2A070000 		.4byte	0x72a
 11943 03cb 04       		.byte	0x4
 11944 03cc 08       		.uleb128 0x8
 11945 03cd 0A1F0000 		.4byte	.LASF68
 11946 03d1 07       		.byte	0x7
 11947 03d2 8001     		.2byte	0x180
 11948 03d4 47010000 		.4byte	0x147
 11949 03d8 08       		.byte	0x8
 11950 03d9 08       		.uleb128 0x8
 11951 03da C4020000 		.4byte	.LASF73
ARM GAS  /tmp/cc1ELVNa.s 			page 214


 11952 03de 07       		.byte	0x7
 11953 03df 8201     		.2byte	0x182
 11954 03e1 30070000 		.4byte	0x730
 11955 03e5 0C       		.byte	0xc
 11956 03e6 00       		.byte	0
 11957 03e7 03       		.uleb128 0x3
 11958 03e8 44100000 		.4byte	.LASF74
 11959 03ec 06       		.byte	0x6
 11960 03ed 6B       		.byte	0x6b
 11961 03ee F2030000 		.4byte	0x3f2
 11962 03f2 0A       		.uleb128 0xa
 11963 03f3 EC2D0000 		.4byte	.LASF75
 11964 03f7 04       		.byte	0x4
 11965 03f8 07       		.byte	0x7
 11966 03f9 A201     		.2byte	0x1a2
 11967 03fb 0D040000 		.4byte	0x40d
 11968 03ff 08       		.uleb128 0x8
 11969 0400 F61D0000 		.4byte	.LASF76
 11970 0404 07       		.byte	0x7
 11971 0405 AA01     		.2byte	0x1aa
 11972 0407 35070000 		.4byte	0x735
 11973 040b 00       		.byte	0
 11974 040c 00       		.byte	0
 11975 040d 03       		.uleb128 0x3
 11976 040e 64010000 		.4byte	.LASF77
 11977 0412 06       		.byte	0x6
 11978 0413 70       		.byte	0x70
 11979 0414 18040000 		.4byte	0x418
 11980 0418 0E       		.uleb128 0xe
 11981 0419 F2220000 		.4byte	.LASF78
 11982 041d 5001     		.2byte	0x150
 11983 041f 07       		.byte	0x7
 11984 0420 C201     		.2byte	0x1c2
 11985 0422 74040000 		.4byte	0x474
 11986 0426 08       		.uleb128 0x8
 11987 0427 DD080000 		.4byte	.LASF79
 11988 042b 07       		.byte	0x7
 11989 042c C601     		.2byte	0x1c6
 11990 042e BB020000 		.4byte	0x2bb
 11991 0432 00       		.byte	0
 11992 0433 08       		.uleb128 0x8
 11993 0434 2B080000 		.4byte	.LASF80
 11994 0438 07       		.byte	0x7
 11995 0439 CA01     		.2byte	0x1ca
 11996 043b 9A030000 		.4byte	0x39a
 11997 043f 1C       		.byte	0x1c
 11998 0440 07       		.uleb128 0x7
 11999 0441 64626700 		.ascii	"dbg\000"
 12000 0445 07       		.byte	0x7
 12001 0446 CE01     		.2byte	0x1ce
 12002 0448 E7030000 		.4byte	0x3e7
 12003 044c 2C       		.byte	0x2c
 12004 044d 08       		.uleb128 0x8
 12005 044e 0B240000 		.4byte	.LASF81
 12006 0452 07       		.byte	0x7
 12007 0453 D201     		.2byte	0x1d2
 12008 0455 52010000 		.4byte	0x152
ARM GAS  /tmp/cc1ELVNa.s 			page 215


 12009 0459 30       		.byte	0x30
 12010 045a 07       		.uleb128 0x7
 12011 045b 746D00   		.ascii	"tm\000"
 12012 045e 07       		.byte	0x7
 12013 045f D701     		.2byte	0x1d7
 12014 0461 48060000 		.4byte	0x648
 12015 0465 74       		.byte	0x74
 12016 0466 08       		.uleb128 0x8
 12017 0467 99310000 		.4byte	.LASF82
 12018 046b 07       		.byte	0x7
 12019 046c E301     		.2byte	0x1e3
 12020 046e 3A070000 		.4byte	0x73a
 12021 0472 78       		.byte	0x78
 12022 0473 00       		.byte	0
 12023 0474 04       		.uleb128 0x4
 12024 0475 04       		.byte	0x4
 12025 0476 07       		.byte	0x7
 12026 0477 131F0000 		.4byte	.LASF83
 12027 047b 0F       		.uleb128 0xf
 12028 047c CE000000 		.4byte	0xce
 12029 0480 10       		.uleb128 0x10
 12030 0481 10       		.byte	0x10
 12031 0482 08       		.byte	0x8
 12032 0483 A701     		.2byte	0x1a7
 12033 0485 BE040000 		.4byte	0x4be
 12034 0489 07       		.uleb128 0x7
 12035 048a 43435200 		.ascii	"CCR\000"
 12036 048e 08       		.byte	0x8
 12037 048f A901     		.2byte	0x1a9
 12038 0491 7B040000 		.4byte	0x47b
 12039 0495 00       		.byte	0
 12040 0496 08       		.uleb128 0x8
 12041 0497 60190000 		.4byte	.LASF84
 12042 049b 08       		.byte	0x8
 12043 049c AA01     		.2byte	0x1aa
 12044 049e 7B040000 		.4byte	0x47b
 12045 04a2 04       		.byte	0x4
 12046 04a3 08       		.uleb128 0x8
 12047 04a4 85170000 		.4byte	.LASF85
 12048 04a8 08       		.byte	0x8
 12049 04a9 AB01     		.2byte	0x1ab
 12050 04ab 7B040000 		.4byte	0x47b
 12051 04af 08       		.byte	0x8
 12052 04b0 08       		.uleb128 0x8
 12053 04b1 3B050000 		.4byte	.LASF86
 12054 04b5 08       		.byte	0x8
 12055 04b6 AC01     		.2byte	0x1ac
 12056 04b8 7B040000 		.4byte	0x47b
 12057 04bc 0C       		.byte	0xc
 12058 04bd 00       		.byte	0
 12059 04be 11       		.uleb128 0x11
 12060 04bf 6C310000 		.4byte	.LASF87
 12061 04c3 08       		.byte	0x8
 12062 04c4 AD01     		.2byte	0x1ad
 12063 04c6 80040000 		.4byte	0x480
 12064 04ca 10       		.uleb128 0x10
 12065 04cb 08       		.byte	0x8
ARM GAS  /tmp/cc1ELVNa.s 			page 216


 12066 04cc 08       		.byte	0x8
 12067 04cd AF01     		.2byte	0x1af
 12068 04cf EE040000 		.4byte	0x4ee
 12069 04d3 07       		.uleb128 0x7
 12070 04d4 49535200 		.ascii	"ISR\000"
 12071 04d8 08       		.byte	0x8
 12072 04d9 B101     		.2byte	0x1b1
 12073 04db 7B040000 		.4byte	0x47b
 12074 04df 00       		.byte	0
 12075 04e0 08       		.uleb128 0x8
 12076 04e1 BE150000 		.4byte	.LASF88
 12077 04e5 08       		.byte	0x8
 12078 04e6 B201     		.2byte	0x1b2
 12079 04e8 7B040000 		.4byte	0x47b
 12080 04ec 04       		.byte	0x4
 12081 04ed 00       		.byte	0
 12082 04ee 11       		.uleb128 0x11
 12083 04ef AA1B0000 		.4byte	.LASF89
 12084 04f3 08       		.byte	0x8
 12085 04f4 B301     		.2byte	0x1b3
 12086 04f6 CA040000 		.4byte	0x4ca
 12087 04fa 10       		.uleb128 0x10
 12088 04fb 24       		.byte	0x24
 12089 04fc 08       		.byte	0x8
 12090 04fd 5E03     		.2byte	0x35e
 12091 04ff 77050000 		.4byte	0x577
 12092 0503 07       		.uleb128 0x7
 12093 0504 43523100 		.ascii	"CR1\000"
 12094 0508 08       		.byte	0x8
 12095 0509 6003     		.2byte	0x360
 12096 050b 7B040000 		.4byte	0x47b
 12097 050f 00       		.byte	0
 12098 0510 07       		.uleb128 0x7
 12099 0511 43523200 		.ascii	"CR2\000"
 12100 0515 08       		.byte	0x8
 12101 0516 6103     		.2byte	0x361
 12102 0518 7B040000 		.4byte	0x47b
 12103 051c 04       		.byte	0x4
 12104 051d 07       		.uleb128 0x7
 12105 051e 535200   		.ascii	"SR\000"
 12106 0521 08       		.byte	0x8
 12107 0522 6203     		.2byte	0x362
 12108 0524 7B040000 		.4byte	0x47b
 12109 0528 08       		.byte	0x8
 12110 0529 07       		.uleb128 0x7
 12111 052a 445200   		.ascii	"DR\000"
 12112 052d 08       		.byte	0x8
 12113 052e 6303     		.2byte	0x363
 12114 0530 7B040000 		.4byte	0x47b
 12115 0534 0C       		.byte	0xc
 12116 0535 08       		.uleb128 0x8
 12117 0536 E20A0000 		.4byte	.LASF90
 12118 053a 08       		.byte	0x8
 12119 053b 6403     		.2byte	0x364
 12120 053d 7B040000 		.4byte	0x47b
 12121 0541 10       		.byte	0x10
 12122 0542 08       		.uleb128 0x8
ARM GAS  /tmp/cc1ELVNa.s 			page 217


 12123 0543 47120000 		.4byte	.LASF91
 12124 0547 08       		.byte	0x8
 12125 0548 6503     		.2byte	0x365
 12126 054a 7B040000 		.4byte	0x47b
 12127 054e 14       		.byte	0x14
 12128 054f 08       		.uleb128 0x8
 12129 0550 BE100000 		.4byte	.LASF92
 12130 0554 08       		.byte	0x8
 12131 0555 6603     		.2byte	0x366
 12132 0557 7B040000 		.4byte	0x47b
 12133 055b 18       		.byte	0x18
 12134 055c 08       		.uleb128 0x8
 12135 055d 5D2F0000 		.4byte	.LASF93
 12136 0561 08       		.byte	0x8
 12137 0562 6703     		.2byte	0x367
 12138 0564 CE000000 		.4byte	0xce
 12139 0568 1C       		.byte	0x1c
 12140 0569 08       		.uleb128 0x8
 12141 056a 672F0000 		.4byte	.LASF94
 12142 056e 08       		.byte	0x8
 12143 056f 6803     		.2byte	0x368
 12144 0571 CE000000 		.4byte	0xce
 12145 0575 20       		.byte	0x20
 12146 0576 00       		.byte	0
 12147 0577 11       		.uleb128 0x11
 12148 0578 A8310000 		.4byte	.LASF95
 12149 057c 08       		.byte	0x8
 12150 057d 6903     		.2byte	0x369
 12151 057f FA040000 		.4byte	0x4fa
 12152 0583 03       		.uleb128 0x3
 12153 0584 13260000 		.4byte	.LASF96
 12154 0588 09       		.byte	0x9
 12155 0589 65       		.byte	0x65
 12156 058a 3E030000 		.4byte	0x33e
 12157 058e 03       		.uleb128 0x3
 12158 058f 5F0D0000 		.4byte	.LASF97
 12159 0593 09       		.byte	0x9
 12160 0594 6D       		.byte	0x6d
 12161 0595 D9000000 		.4byte	0xd9
 12162 0599 05       		.uleb128 0x5
 12163 059a 04250000 		.4byte	.LASF98
 12164 059e 04       		.byte	0x4
 12165 059f 09       		.byte	0x9
 12166 05a0 89       		.byte	0x89
 12167 05a1 B2050000 		.4byte	0x5b2
 12168 05a5 12       		.uleb128 0x12
 12169 05a6 72313300 		.ascii	"r13\000"
 12170 05aa 09       		.byte	0x9
 12171 05ab 8A       		.byte	0x8a
 12172 05ac 2D060000 		.4byte	0x62d
 12173 05b0 00       		.byte	0
 12174 05b1 00       		.byte	0
 12175 05b2 05       		.uleb128 0x5
 12176 05b3 00000000 		.4byte	.LASF99
 12177 05b7 24       		.byte	0x24
 12178 05b8 0A       		.byte	0xa
 12179 05b9 FD       		.byte	0xfd
ARM GAS  /tmp/cc1ELVNa.s 			page 218


 12180 05ba 2D060000 		.4byte	0x62d
 12181 05be 07       		.uleb128 0x7
 12182 05bf 723400   		.ascii	"r4\000"
 12183 05c2 0A       		.byte	0xa
 12184 05c3 1001     		.2byte	0x110
 12185 05c5 83050000 		.4byte	0x583
 12186 05c9 00       		.byte	0
 12187 05ca 07       		.uleb128 0x7
 12188 05cb 723500   		.ascii	"r5\000"
 12189 05ce 0A       		.byte	0xa
 12190 05cf 1101     		.2byte	0x111
 12191 05d1 83050000 		.4byte	0x583
 12192 05d5 04       		.byte	0x4
 12193 05d6 07       		.uleb128 0x7
 12194 05d7 723600   		.ascii	"r6\000"
 12195 05da 0A       		.byte	0xa
 12196 05db 1201     		.2byte	0x112
 12197 05dd 83050000 		.4byte	0x583
 12198 05e1 08       		.byte	0x8
 12199 05e2 07       		.uleb128 0x7
 12200 05e3 723700   		.ascii	"r7\000"
 12201 05e6 0A       		.byte	0xa
 12202 05e7 1301     		.2byte	0x113
 12203 05e9 83050000 		.4byte	0x583
 12204 05ed 0C       		.byte	0xc
 12205 05ee 07       		.uleb128 0x7
 12206 05ef 723800   		.ascii	"r8\000"
 12207 05f2 0A       		.byte	0xa
 12208 05f3 1401     		.2byte	0x114
 12209 05f5 83050000 		.4byte	0x583
 12210 05f9 10       		.byte	0x10
 12211 05fa 07       		.uleb128 0x7
 12212 05fb 723900   		.ascii	"r9\000"
 12213 05fe 0A       		.byte	0xa
 12214 05ff 1501     		.2byte	0x115
 12215 0601 83050000 		.4byte	0x583
 12216 0605 14       		.byte	0x14
 12217 0606 07       		.uleb128 0x7
 12218 0607 72313000 		.ascii	"r10\000"
 12219 060b 0A       		.byte	0xa
 12220 060c 1601     		.2byte	0x116
 12221 060e 83050000 		.4byte	0x583
 12222 0612 18       		.byte	0x18
 12223 0613 07       		.uleb128 0x7
 12224 0614 72313100 		.ascii	"r11\000"
 12225 0618 0A       		.byte	0xa
 12226 0619 1701     		.2byte	0x117
 12227 061b 83050000 		.4byte	0x583
 12228 061f 1C       		.byte	0x1c
 12229 0620 07       		.uleb128 0x7
 12230 0621 6C7200   		.ascii	"lr\000"
 12231 0624 0A       		.byte	0xa
 12232 0625 1801     		.2byte	0x118
 12233 0627 83050000 		.4byte	0x583
 12234 062b 20       		.byte	0x20
 12235 062c 00       		.byte	0
 12236 062d 09       		.uleb128 0x9
ARM GAS  /tmp/cc1ELVNa.s 			page 219


 12237 062e 04       		.byte	0x4
 12238 062f B2050000 		.4byte	0x5b2
 12239 0633 13       		.uleb128 0x13
 12240 0634 04       		.byte	0x4
 12241 0635 0B       		.byte	0xb
 12242 0636 38       		.byte	0x38
 12243 0637 48060000 		.4byte	0x648
 12244 063b 06       		.uleb128 0x6
 12245 063c 01310000 		.4byte	.LASF100
 12246 0640 0B       		.byte	0xb
 12247 0641 3C       		.byte	0x3c
 12248 0642 E4000000 		.4byte	0xe4
 12249 0646 00       		.byte	0
 12250 0647 00       		.byte	0
 12251 0648 03       		.uleb128 0x3
 12252 0649 92360000 		.4byte	.LASF101
 12253 064d 0B       		.byte	0xb
 12254 064e 3D       		.byte	0x3d
 12255 064f 33060000 		.4byte	0x633
 12256 0653 14       		.uleb128 0x14
 12257 0654 04       		.byte	0x4
 12258 0655 07       		.byte	0x7
 12259 0656 FA       		.byte	0xfa
 12260 0657 B0060000 		.4byte	0x6b0
 12261 065b 15       		.uleb128 0x15
 12262 065c A0180000 		.4byte	.LASF102
 12263 0660 07       		.byte	0x7
 12264 0661 0101     		.2byte	0x101
 12265 0663 26010000 		.4byte	0x126
 12266 0667 15       		.uleb128 0x15
 12267 0668 2C160000 		.4byte	.LASF103
 12268 066c 07       		.byte	0x7
 12269 066d 0801     		.2byte	0x108
 12270 066f 26010000 		.4byte	0x126
 12271 0673 15       		.uleb128 0x15
 12272 0674 AE2C0000 		.4byte	.LASF104
 12273 0678 07       		.byte	0x7
 12274 0679 0F01     		.2byte	0x10f
 12275 067b 3E030000 		.4byte	0x33e
 12276 067f 15       		.uleb128 0x15
 12277 0680 FE240000 		.4byte	.LASF105
 12278 0684 07       		.byte	0x7
 12279 0685 1601     		.2byte	0x116
 12280 0687 B0060000 		.4byte	0x6b0
 12281 068b 15       		.uleb128 0x15
 12282 068c 7A010000 		.4byte	.LASF106
 12283 0690 07       		.byte	0x7
 12284 0691 1E01     		.2byte	0x11e
 12285 0693 DB060000 		.4byte	0x6db
 12286 0697 15       		.uleb128 0x15
 12287 0698 D82C0000 		.4byte	.LASF107
 12288 069c 07       		.byte	0x7
 12289 069d 2701     		.2byte	0x127
 12290 069f 12070000 		.4byte	0x712
 12291 06a3 15       		.uleb128 0x15
 12292 06a4 1F320000 		.4byte	.LASF108
 12293 06a8 07       		.byte	0x7
ARM GAS  /tmp/cc1ELVNa.s 			page 220


 12294 06a9 2F01     		.2byte	0x12f
 12295 06ab 31010000 		.4byte	0x131
 12296 06af 00       		.byte	0
 12297 06b0 09       		.uleb128 0x9
 12298 06b1 04       		.byte	0x4
 12299 06b2 56020000 		.4byte	0x256
 12300 06b6 05       		.uleb128 0x5
 12301 06b7 82230000 		.4byte	.LASF109
 12302 06bb 0C       		.byte	0xc
 12303 06bc 0C       		.byte	0xc
 12304 06bd 34       		.byte	0x34
 12305 06be DB060000 		.4byte	0x6db
 12306 06c2 06       		.uleb128 0x6
 12307 06c3 9E330000 		.4byte	.LASF110
 12308 06c7 0C       		.byte	0xc
 12309 06c8 35       		.byte	0x35
 12310 06c9 8B020000 		.4byte	0x28b
 12311 06cd 00       		.byte	0
 12312 06ce 06       		.uleb128 0x6
 12313 06cf 590E0000 		.4byte	.LASF111
 12314 06d3 0C       		.byte	0xc
 12315 06d4 37       		.byte	0x37
 12316 06d5 3C010000 		.4byte	0x13c
 12317 06d9 08       		.byte	0x8
 12318 06da 00       		.byte	0
 12319 06db 09       		.uleb128 0x9
 12320 06dc 04       		.byte	0x4
 12321 06dd B6060000 		.4byte	0x6b6
 12322 06e1 05       		.uleb128 0x5
 12323 06e2 87120000 		.4byte	.LASF112
 12324 06e6 10       		.byte	0x10
 12325 06e7 0D       		.byte	0xd
 12326 06e8 39       		.byte	0x39
 12327 06e9 12070000 		.4byte	0x712
 12328 06ed 06       		.uleb128 0x6
 12329 06ee 16240000 		.4byte	.LASF113
 12330 06f2 0D       		.byte	0xd
 12331 06f3 3A       		.byte	0x3a
 12332 06f4 8B020000 		.4byte	0x28b
 12333 06f8 00       		.byte	0
 12334 06f9 06       		.uleb128 0x6
 12335 06fa 96210000 		.4byte	.LASF114
 12336 06fe 0D       		.byte	0xd
 12337 06ff 3C       		.byte	0x3c
 12338 0700 61020000 		.4byte	0x261
 12339 0704 08       		.byte	0x8
 12340 0705 06       		.uleb128 0x6
 12341 0706 19030000 		.4byte	.LASF115
 12342 070a 0D       		.byte	0xd
 12343 070b 3E       		.byte	0x3e
 12344 070c 55070000 		.4byte	0x755
 12345 0710 0C       		.byte	0xc
 12346 0711 00       		.byte	0
 12347 0712 09       		.uleb128 0x9
 12348 0713 04       		.byte	0x4
 12349 0714 E1060000 		.4byte	0x6e1
 12350 0718 09       		.uleb128 0x9
ARM GAS  /tmp/cc1ELVNa.s 			page 221


 12351 0719 04       		.byte	0x4
 12352 071a 1E070000 		.4byte	0x71e
 12353 071e 16       		.uleb128 0x16
 12354 071f 23070000 		.4byte	0x723
 12355 0723 04       		.uleb128 0x4
 12356 0724 01       		.byte	0x1
 12357 0725 08       		.byte	0x8
 12358 0726 F2270000 		.4byte	.LASF116
 12359 072a 09       		.uleb128 0x9
 12360 072b 04       		.byte	0x4
 12361 072c 40030000 		.4byte	0x340
 12362 0730 0F       		.uleb128 0xf
 12363 0731 47010000 		.4byte	0x147
 12364 0735 0F       		.uleb128 0xf
 12365 0736 18070000 		.4byte	0x718
 12366 073a 17       		.uleb128 0x17
 12367 073b 8E050000 		.4byte	0x58e
 12368 073f 4A070000 		.4byte	0x74a
 12369 0743 18       		.uleb128 0x18
 12370 0744 74040000 		.4byte	0x474
 12371 0748 1A       		.byte	0x1a
 12372 0749 00       		.byte	0
 12373 074a 03       		.uleb128 0x3
 12374 074b E12E0000 		.4byte	.LASF117
 12375 074f 0D       		.byte	0xd
 12376 0750 34       		.byte	0x34
 12377 0751 E1060000 		.4byte	0x6e1
 12378 0755 09       		.uleb128 0x9
 12379 0756 04       		.byte	0x4
 12380 0757 4A070000 		.4byte	0x74a
 12381 075b 13       		.uleb128 0x13
 12382 075c 14       		.byte	0x14
 12383 075d 0E       		.byte	0xe
 12384 075e E4       		.byte	0xe4
 12385 075f B8070000 		.4byte	0x7b8
 12386 0763 12       		.uleb128 0x12
 12387 0764 646D6100 		.ascii	"dma\000"
 12388 0768 0E       		.byte	0xe
 12389 0769 E5       		.byte	0xe5
 12390 076a B8070000 		.4byte	0x7b8
 12391 076e 00       		.byte	0
 12392 076f 06       		.uleb128 0x6
 12393 0770 0C1A0000 		.4byte	.LASF118
 12394 0774 0E       		.byte	0xe
 12395 0775 E6       		.byte	0xe6
 12396 0776 BE070000 		.4byte	0x7be
 12397 077a 04       		.byte	0x4
 12398 077b 06       		.uleb128 0x6
 12399 077c F62A0000 		.4byte	.LASF119
 12400 0780 0E       		.byte	0xe
 12401 0781 E7       		.byte	0xe7
 12402 0782 CE000000 		.4byte	0xce
 12403 0786 08       		.byte	0x8
 12404 0787 06       		.uleb128 0x6
 12405 0788 F3330000 		.4byte	.LASF120
 12406 078c 0E       		.byte	0xe
 12407 078d E9       		.byte	0xe9
ARM GAS  /tmp/cc1ELVNa.s 			page 222


 12408 078e C4070000 		.4byte	0x7c4
 12409 0792 0C       		.byte	0xc
 12410 0793 06       		.uleb128 0x6
 12411 0794 BA140000 		.4byte	.LASF121
 12412 0798 0E       		.byte	0xe
 12413 0799 EA       		.byte	0xea
 12414 079a AD000000 		.4byte	0xad
 12415 079e 10       		.byte	0x10
 12416 079f 06       		.uleb128 0x6
 12417 07a0 C42E0000 		.4byte	.LASF122
 12418 07a4 0E       		.byte	0xe
 12419 07a5 EC       		.byte	0xec
 12420 07a6 AD000000 		.4byte	0xad
 12421 07aa 11       		.byte	0x11
 12422 07ab 06       		.uleb128 0x6
 12423 07ac E6050000 		.4byte	.LASF123
 12424 07b0 0E       		.byte	0xe
 12425 07b1 ED       		.byte	0xed
 12426 07b2 AD000000 		.4byte	0xad
 12427 07b6 12       		.byte	0x12
 12428 07b7 00       		.byte	0
 12429 07b8 09       		.uleb128 0x9
 12430 07b9 04       		.byte	0x4
 12431 07ba EE040000 		.4byte	0x4ee
 12432 07be 09       		.uleb128 0x9
 12433 07bf 04       		.byte	0x4
 12434 07c0 BE040000 		.4byte	0x4be
 12435 07c4 09       		.uleb128 0x9
 12436 07c5 04       		.byte	0x4
 12437 07c6 7B040000 		.4byte	0x47b
 12438 07ca 03       		.uleb128 0x3
 12439 07cb 071C0000 		.4byte	.LASF124
 12440 07cf 0E       		.byte	0xe
 12441 07d0 EE       		.byte	0xee
 12442 07d1 5B070000 		.4byte	0x75b
 12443 07d5 04       		.uleb128 0x4
 12444 07d6 01       		.byte	0x1
 12445 07d7 02       		.byte	0x2
 12446 07d8 9F010000 		.4byte	.LASF125
 12447 07dc 13       		.uleb128 0x13
 12448 07dd 04       		.byte	0x4
 12449 07de 0F       		.byte	0xf
 12450 07df EE       		.byte	0xee
 12451 07e0 FD070000 		.4byte	0x7fd
 12452 07e4 12       		.uleb128 0x12
 12453 07e5 73657400 		.ascii	"set\000"
 12454 07e9 0F       		.byte	0xf
 12455 07ea EF       		.byte	0xef
 12456 07eb B8000000 		.4byte	0xb8
 12457 07ef 00       		.byte	0
 12458 07f0 06       		.uleb128 0x6
 12459 07f1 53150000 		.4byte	.LASF126
 12460 07f5 0F       		.byte	0xf
 12461 07f6 F0       		.byte	0xf0
 12462 07f7 B8000000 		.4byte	0xb8
 12463 07fb 02       		.byte	0x2
 12464 07fc 00       		.byte	0
ARM GAS  /tmp/cc1ELVNa.s 			page 223


 12465 07fd 14       		.uleb128 0x14
 12466 07fe 04       		.byte	0x4
 12467 07ff 0F       		.byte	0xf
 12468 0800 EC       		.byte	0xec
 12469 0801 18080000 		.4byte	0x818
 12470 0805 19       		.uleb128 0x19
 12471 0806 5700     		.ascii	"W\000"
 12472 0808 0F       		.byte	0xf
 12473 0809 ED       		.byte	0xed
 12474 080a CE000000 		.4byte	0xce
 12475 080e 19       		.uleb128 0x19
 12476 080f 4800     		.ascii	"H\000"
 12477 0811 0F       		.byte	0xf
 12478 0812 F1       		.byte	0xf1
 12479 0813 DC070000 		.4byte	0x7dc
 12480 0817 00       		.byte	0
 12481 0818 13       		.uleb128 0x13
 12482 0819 30       		.byte	0x30
 12483 081a 0F       		.byte	0xf
 12484 081b E4       		.byte	0xe4
 12485 081c B1080000 		.4byte	0x8b1
 12486 0820 06       		.uleb128 0x6
 12487 0821 0E2F0000 		.4byte	.LASF127
 12488 0825 0F       		.byte	0xf
 12489 0826 E6       		.byte	0xe6
 12490 0827 7B040000 		.4byte	0x47b
 12491 082b 00       		.byte	0
 12492 082c 06       		.uleb128 0x6
 12493 082d 45050000 		.4byte	.LASF128
 12494 0831 0F       		.byte	0xf
 12495 0832 E7       		.byte	0xe7
 12496 0833 7B040000 		.4byte	0x47b
 12497 0837 04       		.byte	0x4
 12498 0838 06       		.uleb128 0x6
 12499 0839 1A170000 		.4byte	.LASF129
 12500 083d 0F       		.byte	0xf
 12501 083e E8       		.byte	0xe8
 12502 083f 7B040000 		.4byte	0x47b
 12503 0843 08       		.byte	0x8
 12504 0844 06       		.uleb128 0x6
 12505 0845 B92D0000 		.4byte	.LASF130
 12506 0849 0F       		.byte	0xf
 12507 084a E9       		.byte	0xe9
 12508 084b 7B040000 		.4byte	0x47b
 12509 084f 0C       		.byte	0xc
 12510 0850 12       		.uleb128 0x12
 12511 0851 49445200 		.ascii	"IDR\000"
 12512 0855 0F       		.byte	0xf
 12513 0856 EA       		.byte	0xea
 12514 0857 7B040000 		.4byte	0x47b
 12515 085b 10       		.byte	0x10
 12516 085c 12       		.uleb128 0x12
 12517 085d 4F445200 		.ascii	"ODR\000"
 12518 0861 0F       		.byte	0xf
 12519 0862 EB       		.byte	0xeb
 12520 0863 7B040000 		.4byte	0x47b
 12521 0867 14       		.byte	0x14
ARM GAS  /tmp/cc1ELVNa.s 			page 224


 12522 0868 06       		.uleb128 0x6
 12523 0869 E81B0000 		.4byte	.LASF131
 12524 086d 0F       		.byte	0xf
 12525 086e F2       		.byte	0xf2
 12526 086f B1080000 		.4byte	0x8b1
 12527 0873 18       		.byte	0x18
 12528 0874 06       		.uleb128 0x6
 12529 0875 4C1D0000 		.4byte	.LASF132
 12530 0879 0F       		.byte	0xf
 12531 087a F3       		.byte	0xf3
 12532 087b 7B040000 		.4byte	0x47b
 12533 087f 1C       		.byte	0x1c
 12534 0880 06       		.uleb128 0x6
 12535 0881 1B2B0000 		.4byte	.LASF133
 12536 0885 0F       		.byte	0xf
 12537 0886 F4       		.byte	0xf4
 12538 0887 7B040000 		.4byte	0x47b
 12539 088b 20       		.byte	0x20
 12540 088c 06       		.uleb128 0x6
 12541 088d 162B0000 		.4byte	.LASF134
 12542 0891 0F       		.byte	0xf
 12543 0892 F5       		.byte	0xf5
 12544 0893 7B040000 		.4byte	0x47b
 12545 0897 24       		.byte	0x24
 12546 0898 12       		.uleb128 0x12
 12547 0899 42525200 		.ascii	"BRR\000"
 12548 089d 0F       		.byte	0xf
 12549 089e F6       		.byte	0xf6
 12550 089f 7B040000 		.4byte	0x47b
 12551 08a3 28       		.byte	0x28
 12552 08a4 06       		.uleb128 0x6
 12553 08a5 1B2C0000 		.4byte	.LASF135
 12554 08a9 0F       		.byte	0xf
 12555 08aa F7       		.byte	0xf7
 12556 08ab 7B040000 		.4byte	0x47b
 12557 08af 2C       		.byte	0x2c
 12558 08b0 00       		.byte	0
 12559 08b1 0F       		.uleb128 0xf
 12560 08b2 FD070000 		.4byte	0x7fd
 12561 08b6 03       		.uleb128 0x3
 12562 08b7 93180000 		.4byte	.LASF136
 12563 08bb 0F       		.byte	0xf
 12564 08bc F8       		.byte	0xf8
 12565 08bd 18080000 		.4byte	0x818
 12566 08c1 11       		.uleb128 0x11
 12567 08c2 3D240000 		.4byte	.LASF137
 12568 08c6 0F       		.byte	0xf
 12569 08c7 5D01     		.2byte	0x15d
 12570 08c9 CD080000 		.4byte	0x8cd
 12571 08cd 09       		.uleb128 0x9
 12572 08ce 04       		.byte	0x4
 12573 08cf B6080000 		.4byte	0x8b6
 12574 08d3 09       		.uleb128 0x9
 12575 08d4 04       		.byte	0x4
 12576 08d5 D9080000 		.4byte	0x8d9
 12577 08d9 16       		.uleb128 0x16
 12578 08da CA070000 		.4byte	0x7ca
ARM GAS  /tmp/cc1ELVNa.s 			page 225


 12579 08de 1A       		.uleb128 0x1a
 12580 08df 01       		.byte	0x1
 12581 08e0 10       		.byte	0x10
 12582 08e1 46       		.byte	0x46
 12583 08e2 05090000 		.4byte	0x905
 12584 08e6 1B       		.uleb128 0x1b
 12585 08e7 900A0000 		.4byte	.LASF138
 12586 08eb 00       		.sleb128 0
 12587 08ec 1B       		.uleb128 0x1b
 12588 08ed 7E040000 		.4byte	.LASF139
 12589 08f1 01       		.sleb128 1
 12590 08f2 1B       		.uleb128 0x1b
 12591 08f3 EB340000 		.4byte	.LASF140
 12592 08f7 02       		.sleb128 2
 12593 08f8 1B       		.uleb128 0x1b
 12594 08f9 E0190000 		.4byte	.LASF141
 12595 08fd 03       		.sleb128 3
 12596 08fe 1B       		.uleb128 0x1b
 12597 08ff 131E0000 		.4byte	.LASF142
 12598 0903 04       		.sleb128 4
 12599 0904 00       		.byte	0
 12600 0905 03       		.uleb128 0x3
 12601 0906 4C050000 		.4byte	.LASF143
 12602 090a 10       		.byte	0x10
 12603 090b 4C       		.byte	0x4c
 12604 090c DE080000 		.4byte	0x8de
 12605 0910 11       		.uleb128 0x11
 12606 0911 7F320000 		.4byte	.LASF144
 12607 0915 11       		.byte	0x11
 12608 0916 9601     		.2byte	0x196
 12609 0918 1C090000 		.4byte	0x91c
 12610 091c 0A       		.uleb128 0xa
 12611 091d 7F320000 		.4byte	.LASF144
 12612 0921 30       		.byte	0x30
 12613 0922 11       		.byte	0x11
 12614 0923 BE01     		.2byte	0x1be
 12615 0925 9F090000 		.4byte	0x99f
 12616 0929 08       		.uleb128 0x8
 12617 092a 08220000 		.4byte	.LASF145
 12618 092e 11       		.byte	0x11
 12619 092f C201     		.2byte	0x1c2
 12620 0931 05090000 		.4byte	0x905
 12621 0935 00       		.byte	0
 12622 0936 08       		.uleb128 0x8
 12623 0937 DE2B0000 		.4byte	.LASF146
 12624 093b 11       		.byte	0x11
 12625 093c C601     		.2byte	0x1c6
 12626 093e 190A0000 		.4byte	0xa19
 12627 0942 04       		.byte	0x4
 12628 0943 08       		.uleb128 0x8
 12629 0944 890A0000 		.4byte	.LASF147
 12630 0948 11       		.byte	0x11
 12631 0949 CB01     		.2byte	0x1cb
 12632 094b 56020000 		.4byte	0x256
 12633 094f 08       		.byte	0x8
 12634 0950 08       		.uleb128 0x8
 12635 0951 FA140000 		.4byte	.LASF148
ARM GAS  /tmp/cc1ELVNa.s 			page 226


 12636 0955 11       		.byte	0x11
 12637 0956 D101     		.2byte	0x1d1
 12638 0958 4A070000 		.4byte	0x74a
 12639 095c 0C       		.byte	0xc
 12640 095d 07       		.uleb128 0x7
 12641 095e 73706900 		.ascii	"spi\000"
 12642 0962 11       		.byte	0x11
 12643 0963 DA01     		.2byte	0x1da
 12644 0965 240A0000 		.4byte	0xa24
 12645 0969 1C       		.byte	0x1c
 12646 096a 08       		.uleb128 0x8
 12647 096b BA010000 		.4byte	.LASF149
 12648 096f 11       		.byte	0x11
 12649 0970 DE01     		.2byte	0x1de
 12650 0972 D3080000 		.4byte	0x8d3
 12651 0976 20       		.byte	0x20
 12652 0977 08       		.uleb128 0x8
 12653 0978 C6030000 		.4byte	.LASF150
 12654 097c 11       		.byte	0x11
 12655 097d E201     		.2byte	0x1e2
 12656 097f D3080000 		.4byte	0x8d3
 12657 0983 24       		.byte	0x24
 12658 0984 08       		.uleb128 0x8
 12659 0985 5B0C0000 		.4byte	.LASF151
 12660 0989 11       		.byte	0x11
 12661 098a E601     		.2byte	0x1e6
 12662 098c CE000000 		.4byte	0xce
 12663 0990 28       		.byte	0x28
 12664 0991 08       		.uleb128 0x8
 12665 0992 070D0000 		.4byte	.LASF152
 12666 0996 11       		.byte	0x11
 12667 0997 EA01     		.2byte	0x1ea
 12668 0999 CE000000 		.4byte	0xce
 12669 099d 2C       		.byte	0x2c
 12670 099e 00       		.byte	0
 12671 099f 11       		.uleb128 0x11
 12672 09a0 B6020000 		.4byte	.LASF153
 12673 09a4 11       		.byte	0x11
 12674 09a5 9E01     		.2byte	0x19e
 12675 09a7 AB090000 		.4byte	0x9ab
 12676 09ab 09       		.uleb128 0x9
 12677 09ac 04       		.byte	0x4
 12678 09ad B1090000 		.4byte	0x9b1
 12679 09b1 0B       		.uleb128 0xb
 12680 09b2 BC090000 		.4byte	0x9bc
 12681 09b6 0C       		.uleb128 0xc
 12682 09b7 BC090000 		.4byte	0x9bc
 12683 09bb 00       		.byte	0
 12684 09bc 09       		.uleb128 0x9
 12685 09bd 04       		.byte	0x4
 12686 09be 10090000 		.4byte	0x910
 12687 09c2 10       		.uleb128 0x10
 12688 09c3 10       		.byte	0x10
 12689 09c4 11       		.byte	0x11
 12690 09c5 A301     		.2byte	0x1a3
 12691 09c7 0D0A0000 		.4byte	0xa0d
 12692 09cb 08       		.uleb128 0x8
ARM GAS  /tmp/cc1ELVNa.s 			page 227


 12693 09cc 1C0E0000 		.4byte	.LASF154
 12694 09d0 11       		.byte	0x11
 12695 09d1 A701     		.2byte	0x1a7
 12696 09d3 9F090000 		.4byte	0x99f
 12697 09d7 00       		.byte	0
 12698 09d8 08       		.uleb128 0x8
 12699 09d9 20360000 		.4byte	.LASF155
 12700 09dd 11       		.byte	0x11
 12701 09de AC01     		.2byte	0x1ac
 12702 09e0 C1080000 		.4byte	0x8c1
 12703 09e4 04       		.byte	0x4
 12704 09e5 08       		.uleb128 0x8
 12705 09e6 010D0000 		.4byte	.LASF156
 12706 09ea 11       		.byte	0x11
 12707 09eb B001     		.2byte	0x1b0
 12708 09ed B8000000 		.4byte	0xb8
 12709 09f1 08       		.byte	0x8
 12710 09f2 07       		.uleb128 0x7
 12711 09f3 63723100 		.ascii	"cr1\000"
 12712 09f7 11       		.byte	0x11
 12713 09f8 B401     		.2byte	0x1b4
 12714 09fa B8000000 		.4byte	0xb8
 12715 09fe 0A       		.byte	0xa
 12716 09ff 07       		.uleb128 0x7
 12717 0a00 63723200 		.ascii	"cr2\000"
 12718 0a04 11       		.byte	0x11
 12719 0a05 B801     		.2byte	0x1b8
 12720 0a07 B8000000 		.4byte	0xb8
 12721 0a0b 0C       		.byte	0xc
 12722 0a0c 00       		.byte	0
 12723 0a0d 11       		.uleb128 0x11
 12724 0a0e CE320000 		.4byte	.LASF157
 12725 0a12 11       		.byte	0x11
 12726 0a13 B901     		.2byte	0x1b9
 12727 0a15 C2090000 		.4byte	0x9c2
 12728 0a19 09       		.uleb128 0x9
 12729 0a1a 04       		.byte	0x4
 12730 0a1b 1F0A0000 		.4byte	0xa1f
 12731 0a1f 16       		.uleb128 0x16
 12732 0a20 0D0A0000 		.4byte	0xa0d
 12733 0a24 09       		.uleb128 0x9
 12734 0a25 04       		.byte	0x4
 12735 0a26 77050000 		.4byte	0x577
 12736 0a2a 03       		.uleb128 0x3
 12737 0a2b 66060000 		.4byte	.LASF158
 12738 0a2f 12       		.byte	0x12
 12739 0a30 38       		.byte	0x38
 12740 0a31 50000000 		.4byte	0x50
 12741 0a35 03       		.uleb128 0x3
 12742 0a36 14170000 		.4byte	.LASF159
 12743 0a3a 12       		.byte	0x12
 12744 0a3b 39       		.byte	0x39
 12745 0a3c 69000000 		.4byte	0x69
 12746 0a40 03       		.uleb128 0x3
 12747 0a41 330A0000 		.4byte	.LASF160
 12748 0a45 12       		.byte	0x12
 12749 0a46 3C       		.byte	0x3c
ARM GAS  /tmp/cc1ELVNa.s 			page 228


 12750 0a47 57000000 		.4byte	0x57
 12751 0a4b 14       		.uleb128 0x14
 12752 0a4c 06       		.byte	0x6
 12753 0a4d 12       		.byte	0x12
 12754 0a4e 46       		.byte	0x46
 12755 0a4f 6A0A0000 		.4byte	0xa6a
 12756 0a53 1C       		.uleb128 0x1c
 12757 0a54 422A0000 		.4byte	.LASF161
 12758 0a58 12       		.byte	0x12
 12759 0a59 48       		.byte	0x48
 12760 0a5a 6A0A0000 		.4byte	0xa6a
 12761 0a5e 1C       		.uleb128 0x1c
 12762 0a5f 99090000 		.4byte	.LASF162
 12763 0a63 12       		.byte	0x12
 12764 0a64 49       		.byte	0x49
 12765 0a65 7A0A0000 		.4byte	0xa7a
 12766 0a69 00       		.byte	0
 12767 0a6a 17       		.uleb128 0x17
 12768 0a6b 400A0000 		.4byte	0xa40
 12769 0a6f 7A0A0000 		.4byte	0xa7a
 12770 0a73 18       		.uleb128 0x18
 12771 0a74 74040000 		.4byte	0x474
 12772 0a78 02       		.byte	0x2
 12773 0a79 00       		.byte	0
 12774 0a7a 17       		.uleb128 0x17
 12775 0a7b 2A0A0000 		.4byte	0xa2a
 12776 0a7f 8A0A0000 		.4byte	0xa8a
 12777 0a83 18       		.uleb128 0x18
 12778 0a84 74040000 		.4byte	0x474
 12779 0a88 05       		.byte	0x5
 12780 0a89 00       		.byte	0
 12781 0a8a 03       		.uleb128 0x3
 12782 0a8b 4B140000 		.4byte	.LASF163
 12783 0a8f 12       		.byte	0x12
 12784 0a90 4A       		.byte	0x4a
 12785 0a91 4B0A0000 		.4byte	0xa4b
 12786 0a95 1A       		.uleb128 0x1a
 12787 0a96 01       		.byte	0x1
 12788 0a97 12       		.byte	0x12
 12789 0a98 59       		.byte	0x59
 12790 0a99 AA0A0000 		.4byte	0xaaa
 12791 0a9d 1B       		.uleb128 0x1b
 12792 0a9e 080C0000 		.4byte	.LASF164
 12793 0aa2 01       		.sleb128 1
 12794 0aa3 1B       		.uleb128 0x1b
 12795 0aa4 DB0C0000 		.4byte	.LASF165
 12796 0aa8 00       		.sleb128 0
 12797 0aa9 00       		.byte	0
 12798 0aaa 03       		.uleb128 0x3
 12799 0aab 711D0000 		.4byte	.LASF166
 12800 0aaf 12       		.byte	0x12
 12801 0ab0 5C       		.byte	0x5c
 12802 0ab1 950A0000 		.4byte	0xa95
 12803 0ab5 1A       		.uleb128 0x1a
 12804 0ab6 01       		.byte	0x1
 12805 0ab7 12       		.byte	0x12
 12806 0ab8 BB       		.byte	0xbb
ARM GAS  /tmp/cc1ELVNa.s 			page 229


 12807 0ab9 CB0A0000 		.4byte	0xacb
 12808 0abd 1B       		.uleb128 0x1b
 12809 0abe C32B0000 		.4byte	.LASF167
 12810 0ac2 00       		.sleb128 0
 12811 0ac3 1B       		.uleb128 0x1b
 12812 0ac4 7B1B0000 		.4byte	.LASF168
 12813 0ac8 8001     		.sleb128 128
 12814 0aca 00       		.byte	0
 12815 0acb 03       		.uleb128 0x3
 12816 0acc CE1D0000 		.4byte	.LASF169
 12817 0ad0 12       		.byte	0x12
 12818 0ad1 BE       		.byte	0xbe
 12819 0ad2 B50A0000 		.4byte	0xab5
 12820 0ad6 1A       		.uleb128 0x1a
 12821 0ad7 01       		.byte	0x1
 12822 0ad8 12       		.byte	0x12
 12823 0ad9 CB       		.byte	0xcb
 12824 0ada F70A0000 		.4byte	0xaf7
 12825 0ade 1B       		.uleb128 0x1b
 12826 0adf 292D0000 		.4byte	.LASF170
 12827 0ae3 00       		.sleb128 0
 12828 0ae4 1B       		.uleb128 0x1b
 12829 0ae5 310E0000 		.4byte	.LASF171
 12830 0ae9 10       		.sleb128 16
 12831 0aea 1B       		.uleb128 0x1b
 12832 0aeb BA120000 		.4byte	.LASF172
 12833 0aef 20       		.sleb128 32
 12834 0af0 1B       		.uleb128 0x1b
 12835 0af1 FE120000 		.4byte	.LASF173
 12836 0af5 30       		.sleb128 48
 12837 0af6 00       		.byte	0
 12838 0af7 03       		.uleb128 0x3
 12839 0af8 81250000 		.4byte	.LASF174
 12840 0afc 12       		.byte	0x12
 12841 0afd D0       		.byte	0xd0
 12842 0afe D60A0000 		.4byte	0xad6
 12843 0b02 1A       		.uleb128 0x1a
 12844 0b03 01       		.byte	0x1
 12845 0b04 12       		.byte	0x12
 12846 0b05 E5       		.byte	0xe5
 12847 0b06 4D0B0000 		.4byte	0xb4d
 12848 0b0a 1B       		.uleb128 0x1b
 12849 0b0b 91000000 		.4byte	.LASF175
 12850 0b0f 00       		.sleb128 0
 12851 0b10 1B       		.uleb128 0x1b
 12852 0b11 DC0B0000 		.4byte	.LASF176
 12853 0b15 10       		.sleb128 16
 12854 0b16 1B       		.uleb128 0x1b
 12855 0b17 C1290000 		.4byte	.LASF177
 12856 0b1b 20       		.sleb128 32
 12857 0b1c 1B       		.uleb128 0x1b
 12858 0b1d 32280000 		.4byte	.LASF178
 12859 0b21 30       		.sleb128 48
 12860 0b22 1B       		.uleb128 0x1b
 12861 0b23 E0250000 		.4byte	.LASF179
 12862 0b27 C000     		.sleb128 64
 12863 0b29 1B       		.uleb128 0x1b
ARM GAS  /tmp/cc1ELVNa.s 			page 230


 12864 0b2a D0340000 		.4byte	.LASF180
 12865 0b2e D000     		.sleb128 80
 12866 0b30 1B       		.uleb128 0x1b
 12867 0b31 E60C0000 		.4byte	.LASF181
 12868 0b35 E000     		.sleb128 96
 12869 0b37 1B       		.uleb128 0x1b
 12870 0b38 D6310000 		.4byte	.LASF182
 12871 0b3c F000     		.sleb128 112
 12872 0b3e 1B       		.uleb128 0x1b
 12873 0b3f 991D0000 		.4byte	.LASF183
 12874 0b43 8001     		.sleb128 128
 12875 0b45 1B       		.uleb128 0x1b
 12876 0b46 EC350000 		.4byte	.LASF184
 12877 0b4a 9001     		.sleb128 144
 12878 0b4c 00       		.byte	0
 12879 0b4d 03       		.uleb128 0x3
 12880 0b4e 78110000 		.4byte	.LASF185
 12881 0b52 12       		.byte	0x12
 12882 0b53 F0       		.byte	0xf0
 12883 0b54 020B0000 		.4byte	0xb02
 12884 0b58 1A       		.uleb128 0x1a
 12885 0b59 01       		.byte	0x1
 12886 0b5a 12       		.byte	0x12
 12887 0b5b FF       		.byte	0xff
 12888 0b5c 6D0B0000 		.4byte	0xb6d
 12889 0b60 1B       		.uleb128 0x1b
 12890 0b61 34030000 		.4byte	.LASF186
 12891 0b65 00       		.sleb128 0
 12892 0b66 1B       		.uleb128 0x1b
 12893 0b67 2F350000 		.4byte	.LASF187
 12894 0b6b 01       		.sleb128 1
 12895 0b6c 00       		.byte	0
 12896 0b6d 11       		.uleb128 0x11
 12897 0b6e 450E0000 		.4byte	.LASF188
 12898 0b72 12       		.byte	0x12
 12899 0b73 0201     		.2byte	0x102
 12900 0b75 580B0000 		.4byte	0xb58
 12901 0b79 1D       		.uleb128 0x1d
 12902 0b7a 01       		.byte	0x1
 12903 0b7b 12       		.byte	0x12
 12904 0b7c 0E01     		.2byte	0x10e
 12905 0b7e 8F0B0000 		.4byte	0xb8f
 12906 0b82 1B       		.uleb128 0x1b
 12907 0b83 D3000000 		.4byte	.LASF189
 12908 0b87 00       		.sleb128 0
 12909 0b88 1B       		.uleb128 0x1b
 12910 0b89 FC220000 		.4byte	.LASF190
 12911 0b8d 02       		.sleb128 2
 12912 0b8e 00       		.byte	0
 12913 0b8f 11       		.uleb128 0x11
 12914 0b90 50360000 		.4byte	.LASF191
 12915 0b94 12       		.byte	0x12
 12916 0b95 1101     		.2byte	0x111
 12917 0b97 790B0000 		.4byte	0xb79
 12918 0b9b 1D       		.uleb128 0x1d
 12919 0b9c 01       		.byte	0x1
 12920 0b9d 12       		.byte	0x12
ARM GAS  /tmp/cc1ELVNa.s 			page 231


 12921 0b9e 1D01     		.2byte	0x11d
 12922 0ba0 B10B0000 		.4byte	0xbb1
 12923 0ba4 1B       		.uleb128 0x1b
 12924 0ba5 57110000 		.4byte	.LASF192
 12925 0ba9 00       		.sleb128 0
 12926 0baa 1B       		.uleb128 0x1b
 12927 0bab F8320000 		.4byte	.LASF193
 12928 0baf 04       		.sleb128 4
 12929 0bb0 00       		.byte	0
 12930 0bb1 11       		.uleb128 0x11
 12931 0bb2 9C350000 		.4byte	.LASF194
 12932 0bb6 12       		.byte	0x12
 12933 0bb7 2001     		.2byte	0x120
 12934 0bb9 9B0B0000 		.4byte	0xb9b
 12935 0bbd 1D       		.uleb128 0x1d
 12936 0bbe 01       		.byte	0x1
 12937 0bbf 12       		.byte	0x12
 12938 0bc0 2C01     		.2byte	0x12c
 12939 0bc2 D30B0000 		.4byte	0xbd3
 12940 0bc6 1B       		.uleb128 0x1b
 12941 0bc7 86130000 		.4byte	.LASF195
 12942 0bcb 00       		.sleb128 0
 12943 0bcc 1B       		.uleb128 0x1b
 12944 0bcd 712C0000 		.4byte	.LASF196
 12945 0bd1 08       		.sleb128 8
 12946 0bd2 00       		.byte	0
 12947 0bd3 11       		.uleb128 0x11
 12948 0bd4 B1350000 		.4byte	.LASF197
 12949 0bd8 12       		.byte	0x12
 12950 0bd9 2F01     		.2byte	0x12f
 12951 0bdb BD0B0000 		.4byte	0xbbd
 12952 0bdf 1D       		.uleb128 0x1d
 12953 0be0 01       		.byte	0x1
 12954 0be1 12       		.byte	0x12
 12955 0be2 3B01     		.2byte	0x13b
 12956 0be4 F50B0000 		.4byte	0xbf5
 12957 0be8 1B       		.uleb128 0x1b
 12958 0be9 63250000 		.4byte	.LASF198
 12959 0bed 00       		.sleb128 0
 12960 0bee 1B       		.uleb128 0x1b
 12961 0bef 552E0000 		.4byte	.LASF199
 12962 0bf3 10       		.sleb128 16
 12963 0bf4 00       		.byte	0
 12964 0bf5 11       		.uleb128 0x11
 12965 0bf6 A6230000 		.4byte	.LASF200
 12966 0bfa 12       		.byte	0x12
 12967 0bfb 3E01     		.2byte	0x13e
 12968 0bfd DF0B0000 		.4byte	0xbdf
 12969 0c01 1D       		.uleb128 0x1d
 12970 0c02 01       		.byte	0x1
 12971 0c03 12       		.byte	0x12
 12972 0c04 4A01     		.2byte	0x14a
 12973 0c06 170C0000 		.4byte	0xc17
 12974 0c0a 1B       		.uleb128 0x1b
 12975 0c0b B2340000 		.4byte	.LASF201
 12976 0c0f 00       		.sleb128 0
 12977 0c10 1B       		.uleb128 0x1b
ARM GAS  /tmp/cc1ELVNa.s 			page 232


 12978 0c11 0C070000 		.4byte	.LASF202
 12979 0c15 20       		.sleb128 32
 12980 0c16 00       		.byte	0
 12981 0c17 11       		.uleb128 0x11
 12982 0c18 19230000 		.4byte	.LASF203
 12983 0c1c 12       		.byte	0x12
 12984 0c1d 4D01     		.2byte	0x14d
 12985 0c1f 010C0000 		.4byte	0xc01
 12986 0c23 1D       		.uleb128 0x1d
 12987 0c24 01       		.byte	0x1
 12988 0c25 12       		.byte	0x12
 12989 0c26 5901     		.2byte	0x159
 12990 0c28 3A0C0000 		.4byte	0xc3a
 12991 0c2c 1B       		.uleb128 0x1b
 12992 0c2d CC300000 		.4byte	.LASF204
 12993 0c31 00       		.sleb128 0
 12994 0c32 1B       		.uleb128 0x1b
 12995 0c33 78340000 		.4byte	.LASF205
 12996 0c37 C000     		.sleb128 64
 12997 0c39 00       		.byte	0
 12998 0c3a 11       		.uleb128 0x11
 12999 0c3b 40220000 		.4byte	.LASF206
 13000 0c3f 12       		.byte	0x12
 13001 0c40 5C01     		.2byte	0x15c
 13002 0c42 230C0000 		.4byte	0xc23
 13003 0c46 1D       		.uleb128 0x1d
 13004 0c47 01       		.byte	0x1
 13005 0c48 12       		.byte	0x12
 13006 0c49 6801     		.2byte	0x168
 13007 0c4b 5D0C0000 		.4byte	0xc5d
 13008 0c4f 1B       		.uleb128 0x1b
 13009 0c50 EB010000 		.4byte	.LASF207
 13010 0c54 00       		.sleb128 0
 13011 0c55 1B       		.uleb128 0x1b
 13012 0c56 7F0D0000 		.4byte	.LASF208
 13013 0c5a 8001     		.sleb128 128
 13014 0c5c 00       		.byte	0
 13015 0c5d 11       		.uleb128 0x11
 13016 0c5e 8D220000 		.4byte	.LASF209
 13017 0c62 12       		.byte	0x12
 13018 0c63 6B01     		.2byte	0x16b
 13019 0c65 460C0000 		.4byte	0xc46
 13020 0c69 1D       		.uleb128 0x1d
 13021 0c6a 01       		.byte	0x1
 13022 0c6b 12       		.byte	0x12
 13023 0c6c 8101     		.2byte	0x181
 13024 0c6e 800C0000 		.4byte	0xc80
 13025 0c72 1B       		.uleb128 0x1b
 13026 0c73 03190000 		.4byte	.LASF210
 13027 0c77 00       		.sleb128 0
 13028 0c78 1B       		.uleb128 0x1b
 13029 0c79 FB1A0000 		.4byte	.LASF211
 13030 0c7d C000     		.sleb128 64
 13031 0c7f 00       		.byte	0
 13032 0c80 11       		.uleb128 0x11
 13033 0c81 B0060000 		.4byte	.LASF212
 13034 0c85 12       		.byte	0x12
ARM GAS  /tmp/cc1ELVNa.s 			page 233


 13035 0c86 8401     		.2byte	0x184
 13036 0c88 690C0000 		.4byte	0xc69
 13037 0c8c 1D       		.uleb128 0x1d
 13038 0c8d 01       		.byte	0x1
 13039 0c8e 12       		.byte	0x12
 13040 0c8f 9101     		.2byte	0x191
 13041 0c91 A30C0000 		.4byte	0xca3
 13042 0c95 1B       		.uleb128 0x1b
 13043 0c96 A2270000 		.4byte	.LASF213
 13044 0c9a 00       		.sleb128 0
 13045 0c9b 1B       		.uleb128 0x1b
 13046 0c9c BF0B0000 		.4byte	.LASF214
 13047 0ca0 8001     		.sleb128 128
 13048 0ca2 00       		.byte	0
 13049 0ca3 11       		.uleb128 0x11
 13050 0ca4 64300000 		.4byte	.LASF215
 13051 0ca8 12       		.byte	0x12
 13052 0ca9 9401     		.2byte	0x194
 13053 0cab 8C0C0000 		.4byte	0xc8c
 13054 0caf 1D       		.uleb128 0x1d
 13055 0cb0 01       		.byte	0x1
 13056 0cb1 12       		.byte	0x12
 13057 0cb2 A101     		.2byte	0x1a1
 13058 0cb4 C50C0000 		.4byte	0xcc5
 13059 0cb8 1B       		.uleb128 0x1b
 13060 0cb9 150C0000 		.4byte	.LASF216
 13061 0cbd 00       		.sleb128 0
 13062 0cbe 1B       		.uleb128 0x1b
 13063 0cbf 63180000 		.4byte	.LASF217
 13064 0cc3 01       		.sleb128 1
 13065 0cc4 00       		.byte	0
 13066 0cc5 11       		.uleb128 0x11
 13067 0cc6 B40A0000 		.4byte	.LASF218
 13068 0cca 12       		.byte	0x12
 13069 0ccb A401     		.2byte	0x1a4
 13070 0ccd AF0C0000 		.4byte	0xcaf
 13071 0cd1 1D       		.uleb128 0x1d
 13072 0cd2 01       		.byte	0x1
 13073 0cd3 12       		.byte	0x12
 13074 0cd4 B101     		.2byte	0x1b1
 13075 0cd6 E70C0000 		.4byte	0xce7
 13076 0cda 1B       		.uleb128 0x1b
 13077 0cdb 9F380000 		.4byte	.LASF219
 13078 0cdf 00       		.sleb128 0
 13079 0ce0 1B       		.uleb128 0x1b
 13080 0ce1 BC310000 		.4byte	.LASF220
 13081 0ce5 02       		.sleb128 2
 13082 0ce6 00       		.byte	0
 13083 0ce7 11       		.uleb128 0x11
 13084 0ce8 681E0000 		.4byte	.LASF221
 13085 0cec 12       		.byte	0x12
 13086 0ced B401     		.2byte	0x1b4
 13087 0cef D10C0000 		.4byte	0xcd1
 13088 0cf3 1D       		.uleb128 0x1d
 13089 0cf4 01       		.byte	0x1
 13090 0cf5 12       		.byte	0x12
 13091 0cf6 C101     		.2byte	0x1c1
ARM GAS  /tmp/cc1ELVNa.s 			page 234


 13092 0cf8 090D0000 		.4byte	0xd09
 13093 0cfc 1B       		.uleb128 0x1b
 13094 0cfd DF2C0000 		.4byte	.LASF222
 13095 0d01 00       		.sleb128 0
 13096 0d02 1B       		.uleb128 0x1b
 13097 0d03 FC2A0000 		.4byte	.LASF223
 13098 0d07 04       		.sleb128 4
 13099 0d08 00       		.byte	0
 13100 0d09 11       		.uleb128 0x11
 13101 0d0a E22F0000 		.4byte	.LASF224
 13102 0d0e 12       		.byte	0x12
 13103 0d0f C401     		.2byte	0x1c4
 13104 0d11 F30C0000 		.4byte	0xcf3
 13105 0d15 1D       		.uleb128 0x1d
 13106 0d16 01       		.byte	0x1
 13107 0d17 12       		.byte	0x12
 13108 0d18 D101     		.2byte	0x1d1
 13109 0d1a 2B0D0000 		.4byte	0xd2b
 13110 0d1e 1B       		.uleb128 0x1b
 13111 0d1f A3070000 		.4byte	.LASF225
 13112 0d23 00       		.sleb128 0
 13113 0d24 1B       		.uleb128 0x1b
 13114 0d25 83190000 		.4byte	.LASF226
 13115 0d29 08       		.sleb128 8
 13116 0d2a 00       		.byte	0
 13117 0d2b 11       		.uleb128 0x11
 13118 0d2c A9100000 		.4byte	.LASF227
 13119 0d30 12       		.byte	0x12
 13120 0d31 D401     		.2byte	0x1d4
 13121 0d33 150D0000 		.4byte	0xd15
 13122 0d37 1D       		.uleb128 0x1d
 13123 0d38 01       		.byte	0x1
 13124 0d39 12       		.byte	0x12
 13125 0d3a E101     		.2byte	0x1e1
 13126 0d3c 4D0D0000 		.4byte	0xd4d
 13127 0d40 1B       		.uleb128 0x1b
 13128 0d41 00150000 		.4byte	.LASF228
 13129 0d45 00       		.sleb128 0
 13130 0d46 1B       		.uleb128 0x1b
 13131 0d47 8C2E0000 		.4byte	.LASF229
 13132 0d4b 01       		.sleb128 1
 13133 0d4c 00       		.byte	0
 13134 0d4d 11       		.uleb128 0x11
 13135 0d4e 450C0000 		.4byte	.LASF230
 13136 0d52 12       		.byte	0x12
 13137 0d53 E401     		.2byte	0x1e4
 13138 0d55 370D0000 		.4byte	0xd37
 13139 0d59 1D       		.uleb128 0x1d
 13140 0d5a 01       		.byte	0x1
 13141 0d5b 12       		.byte	0x12
 13142 0d5c F101     		.2byte	0x1f1
 13143 0d5e 6F0D0000 		.4byte	0xd6f
 13144 0d62 1B       		.uleb128 0x1b
 13145 0d63 7C1E0000 		.4byte	.LASF231
 13146 0d67 00       		.sleb128 0
 13147 0d68 1B       		.uleb128 0x1b
 13148 0d69 A82E0000 		.4byte	.LASF232
ARM GAS  /tmp/cc1ELVNa.s 			page 235


 13149 0d6d 02       		.sleb128 2
 13150 0d6e 00       		.byte	0
 13151 0d6f 11       		.uleb128 0x11
 13152 0d70 BF130000 		.4byte	.LASF233
 13153 0d74 12       		.byte	0x12
 13154 0d75 F401     		.2byte	0x1f4
 13155 0d77 590D0000 		.4byte	0xd59
 13156 0d7b 1D       		.uleb128 0x1d
 13157 0d7c 01       		.byte	0x1
 13158 0d7d 12       		.byte	0x12
 13159 0d7e 0102     		.2byte	0x201
 13160 0d80 910D0000 		.4byte	0xd91
 13161 0d84 1B       		.uleb128 0x1b
 13162 0d85 772B0000 		.4byte	.LASF234
 13163 0d89 00       		.sleb128 0
 13164 0d8a 1B       		.uleb128 0x1b
 13165 0d8b A4240000 		.4byte	.LASF235
 13166 0d8f 04       		.sleb128 4
 13167 0d90 00       		.byte	0
 13168 0d91 11       		.uleb128 0x11
 13169 0d92 6B060000 		.4byte	.LASF236
 13170 0d96 12       		.byte	0x12
 13171 0d97 0402     		.2byte	0x204
 13172 0d99 7B0D0000 		.4byte	0xd7b
 13173 0d9d 1D       		.uleb128 0x1d
 13174 0d9e 01       		.byte	0x1
 13175 0d9f 12       		.byte	0x12
 13176 0da0 1102     		.2byte	0x211
 13177 0da2 B30D0000 		.4byte	0xdb3
 13178 0da6 1B       		.uleb128 0x1b
 13179 0da7 6A140000 		.4byte	.LASF237
 13180 0dab 00       		.sleb128 0
 13181 0dac 1B       		.uleb128 0x1b
 13182 0dad 92050000 		.4byte	.LASF238
 13183 0db1 08       		.sleb128 8
 13184 0db2 00       		.byte	0
 13185 0db3 11       		.uleb128 0x11
 13186 0db4 77210000 		.4byte	.LASF239
 13187 0db8 12       		.byte	0x12
 13188 0db9 1402     		.2byte	0x214
 13189 0dbb 9D0D0000 		.4byte	0xd9d
 13190 0dbf 1D       		.uleb128 0x1d
 13191 0dc0 01       		.byte	0x1
 13192 0dc1 12       		.byte	0x12
 13193 0dc2 2102     		.2byte	0x221
 13194 0dc4 E10D0000 		.4byte	0xde1
 13195 0dc8 1B       		.uleb128 0x1b
 13196 0dc9 4B2B0000 		.4byte	.LASF240
 13197 0dcd 00       		.sleb128 0
 13198 0dce 1B       		.uleb128 0x1b
 13199 0dcf 612B0000 		.4byte	.LASF241
 13200 0dd3 10       		.sleb128 16
 13201 0dd4 1B       		.uleb128 0x1b
 13202 0dd5 202C0000 		.4byte	.LASF242
 13203 0dd9 20       		.sleb128 32
 13204 0dda 1B       		.uleb128 0x1b
 13205 0ddb 362C0000 		.4byte	.LASF243
ARM GAS  /tmp/cc1ELVNa.s 			page 236


 13206 0ddf 30       		.sleb128 48
 13207 0de0 00       		.byte	0
 13208 0de1 11       		.uleb128 0x11
 13209 0de2 50380000 		.4byte	.LASF244
 13210 0de6 12       		.byte	0x12
 13211 0de7 2602     		.2byte	0x226
 13212 0de9 BF0D0000 		.4byte	0xdbf
 13213 0ded 1D       		.uleb128 0x1d
 13214 0dee 01       		.byte	0x1
 13215 0def 12       		.byte	0x12
 13216 0df0 3302     		.2byte	0x233
 13217 0df2 120E0000 		.4byte	0xe12
 13218 0df6 1B       		.uleb128 0x1b
 13219 0df7 FF150000 		.4byte	.LASF245
 13220 0dfb 00       		.sleb128 0
 13221 0dfc 1B       		.uleb128 0x1b
 13222 0dfd AC050000 		.4byte	.LASF246
 13223 0e01 C000     		.sleb128 64
 13224 0e03 1B       		.uleb128 0x1b
 13225 0e04 8A0B0000 		.4byte	.LASF247
 13226 0e08 8001     		.sleb128 128
 13227 0e0a 1B       		.uleb128 0x1b
 13228 0e0b 24090000 		.4byte	.LASF248
 13229 0e0f C001     		.sleb128 192
 13230 0e11 00       		.byte	0
 13231 0e12 11       		.uleb128 0x11
 13232 0e13 A2170000 		.4byte	.LASF249
 13233 0e17 12       		.byte	0x12
 13234 0e18 3802     		.2byte	0x238
 13235 0e1a ED0D0000 		.4byte	0xded
 13236 0e1e 1D       		.uleb128 0x1d
 13237 0e1f 01       		.byte	0x1
 13238 0e20 12       		.byte	0x12
 13239 0e21 4502     		.2byte	0x245
 13240 0e23 340E0000 		.4byte	0xe34
 13241 0e27 1B       		.uleb128 0x1b
 13242 0e28 22100000 		.4byte	.LASF250
 13243 0e2c 00       		.sleb128 0
 13244 0e2d 1B       		.uleb128 0x1b
 13245 0e2e EB060000 		.4byte	.LASF251
 13246 0e32 02       		.sleb128 2
 13247 0e33 00       		.byte	0
 13248 0e34 11       		.uleb128 0x11
 13249 0e35 90080000 		.4byte	.LASF252
 13250 0e39 12       		.byte	0x12
 13251 0e3a 4802     		.2byte	0x248
 13252 0e3c 1E0E0000 		.4byte	0xe1e
 13253 0e40 1D       		.uleb128 0x1d
 13254 0e41 01       		.byte	0x1
 13255 0e42 12       		.byte	0x12
 13256 0e43 5502     		.2byte	0x255
 13257 0e45 560E0000 		.4byte	0xe56
 13258 0e49 1B       		.uleb128 0x1b
 13259 0e4a 04100000 		.4byte	.LASF253
 13260 0e4e 00       		.sleb128 0
 13261 0e4f 1B       		.uleb128 0x1b
 13262 0e50 05050000 		.4byte	.LASF254
ARM GAS  /tmp/cc1ELVNa.s 			page 237


 13263 0e54 04       		.sleb128 4
 13264 0e55 00       		.byte	0
 13265 0e56 11       		.uleb128 0x11
 13266 0e57 FC2D0000 		.4byte	.LASF255
 13267 0e5b 12       		.byte	0x12
 13268 0e5c 5802     		.2byte	0x258
 13269 0e5e 400E0000 		.4byte	0xe40
 13270 0e62 1D       		.uleb128 0x1d
 13271 0e63 01       		.byte	0x1
 13272 0e64 12       		.byte	0x12
 13273 0e65 6502     		.2byte	0x265
 13274 0e67 780E0000 		.4byte	0xe78
 13275 0e6b 1B       		.uleb128 0x1b
 13276 0e6c C0190000 		.4byte	.LASF256
 13277 0e70 00       		.sleb128 0
 13278 0e71 1B       		.uleb128 0x1b
 13279 0e72 C1260000 		.4byte	.LASF257
 13280 0e76 08       		.sleb128 8
 13281 0e77 00       		.byte	0
 13282 0e78 11       		.uleb128 0x11
 13283 0e79 AA2B0000 		.4byte	.LASF258
 13284 0e7d 12       		.byte	0x12
 13285 0e7e 6802     		.2byte	0x268
 13286 0e80 620E0000 		.4byte	0xe62
 13287 0e84 1D       		.uleb128 0x1d
 13288 0e85 01       		.byte	0x1
 13289 0e86 12       		.byte	0x12
 13290 0e87 7502     		.2byte	0x275
 13291 0e89 9A0E0000 		.4byte	0xe9a
 13292 0e8d 1B       		.uleb128 0x1b
 13293 0e8e A4220000 		.4byte	.LASF259
 13294 0e92 00       		.sleb128 0
 13295 0e93 1B       		.uleb128 0x1b
 13296 0e94 A2260000 		.4byte	.LASF260
 13297 0e98 10       		.sleb128 16
 13298 0e99 00       		.byte	0
 13299 0e9a 11       		.uleb128 0x11
 13300 0e9b FA250000 		.4byte	.LASF261
 13301 0e9f 12       		.byte	0x12
 13302 0ea0 7802     		.2byte	0x278
 13303 0ea2 840E0000 		.4byte	0xe84
 13304 0ea6 1D       		.uleb128 0x1d
 13305 0ea7 01       		.byte	0x1
 13306 0ea8 12       		.byte	0x12
 13307 0ea9 8502     		.2byte	0x285
 13308 0eab BC0E0000 		.4byte	0xebc
 13309 0eaf 1B       		.uleb128 0x1b
 13310 0eb0 9B140000 		.4byte	.LASF262
 13311 0eb4 00       		.sleb128 0
 13312 0eb5 1B       		.uleb128 0x1b
 13313 0eb6 7B090000 		.4byte	.LASF263
 13314 0eba 20       		.sleb128 32
 13315 0ebb 00       		.byte	0
 13316 0ebc 11       		.uleb128 0x11
 13317 0ebd 3F110000 		.4byte	.LASF264
 13318 0ec1 12       		.byte	0x12
 13319 0ec2 8802     		.2byte	0x288
ARM GAS  /tmp/cc1ELVNa.s 			page 238


 13320 0ec4 A60E0000 		.4byte	0xea6
 13321 0ec8 1D       		.uleb128 0x1d
 13322 0ec9 01       		.byte	0x1
 13323 0eca 12       		.byte	0x12
 13324 0ecb 9502     		.2byte	0x295
 13325 0ecd DF0E0000 		.4byte	0xedf
 13326 0ed1 1B       		.uleb128 0x1b
 13327 0ed2 48230000 		.4byte	.LASF265
 13328 0ed6 00       		.sleb128 0
 13329 0ed7 1B       		.uleb128 0x1b
 13330 0ed8 45090000 		.4byte	.LASF266
 13331 0edc C000     		.sleb128 64
 13332 0ede 00       		.byte	0
 13333 0edf 11       		.uleb128 0x11
 13334 0ee0 E6090000 		.4byte	.LASF267
 13335 0ee4 12       		.byte	0x12
 13336 0ee5 9802     		.2byte	0x298
 13337 0ee7 C80E0000 		.4byte	0xec8
 13338 0eeb 1D       		.uleb128 0x1d
 13339 0eec 01       		.byte	0x1
 13340 0eed 12       		.byte	0x12
 13341 0eee A502     		.2byte	0x2a5
 13342 0ef0 020F0000 		.4byte	0xf02
 13343 0ef4 1B       		.uleb128 0x1b
 13344 0ef5 10300000 		.4byte	.LASF268
 13345 0ef9 00       		.sleb128 0
 13346 0efa 1B       		.uleb128 0x1b
 13347 0efb 15120000 		.4byte	.LASF269
 13348 0eff 8001     		.sleb128 128
 13349 0f01 00       		.byte	0
 13350 0f02 11       		.uleb128 0x11
 13351 0f03 4D060000 		.4byte	.LASF270
 13352 0f07 12       		.byte	0x12
 13353 0f08 A802     		.2byte	0x2a8
 13354 0f0a EB0E0000 		.4byte	0xeeb
 13355 0f0e 1D       		.uleb128 0x1d
 13356 0f0f 01       		.byte	0x1
 13357 0f10 12       		.byte	0x12
 13358 0f11 B502     		.2byte	0x2b5
 13359 0f13 240F0000 		.4byte	0xf24
 13360 0f17 1B       		.uleb128 0x1b
 13361 0f18 A50B0000 		.4byte	.LASF271
 13362 0f1c 00       		.sleb128 0
 13363 0f1d 1B       		.uleb128 0x1b
 13364 0f1e 0C000000 		.4byte	.LASF272
 13365 0f22 01       		.sleb128 1
 13366 0f23 00       		.byte	0
 13367 0f24 11       		.uleb128 0x11
 13368 0f25 A71A0000 		.4byte	.LASF273
 13369 0f29 12       		.byte	0x12
 13370 0f2a B802     		.2byte	0x2b8
 13371 0f2c 0E0F0000 		.4byte	0xf0e
 13372 0f30 1D       		.uleb128 0x1d
 13373 0f31 01       		.byte	0x1
 13374 0f32 12       		.byte	0x12
 13375 0f33 C502     		.2byte	0x2c5
 13376 0f35 520F0000 		.4byte	0xf52
ARM GAS  /tmp/cc1ELVNa.s 			page 239


 13377 0f39 1B       		.uleb128 0x1b
 13378 0f3a 86160000 		.4byte	.LASF274
 13379 0f3e 00       		.sleb128 0
 13380 0f3f 1B       		.uleb128 0x1b
 13381 0f40 911F0000 		.4byte	.LASF275
 13382 0f44 02       		.sleb128 2
 13383 0f45 1B       		.uleb128 0x1b
 13384 0f46 AE1F0000 		.4byte	.LASF276
 13385 0f4a 04       		.sleb128 4
 13386 0f4b 1B       		.uleb128 0x1b
 13387 0f4c 29370000 		.4byte	.LASF277
 13388 0f50 06       		.sleb128 6
 13389 0f51 00       		.byte	0
 13390 0f52 11       		.uleb128 0x11
 13391 0f53 26000000 		.4byte	.LASF278
 13392 0f57 12       		.byte	0x12
 13393 0f58 CA02     		.2byte	0x2ca
 13394 0f5a 300F0000 		.4byte	0xf30
 13395 0f5e 1D       		.uleb128 0x1d
 13396 0f5f 01       		.byte	0x1
 13397 0f60 12       		.byte	0x12
 13398 0f61 D702     		.2byte	0x2d7
 13399 0f63 740F0000 		.4byte	0xf74
 13400 0f67 1B       		.uleb128 0x1b
 13401 0f68 52310000 		.4byte	.LASF279
 13402 0f6c 00       		.sleb128 0
 13403 0f6d 1B       		.uleb128 0x1b
 13404 0f6e 371F0000 		.4byte	.LASF280
 13405 0f72 08       		.sleb128 8
 13406 0f73 00       		.byte	0
 13407 0f74 11       		.uleb128 0x11
 13408 0f75 001E0000 		.4byte	.LASF281
 13409 0f79 12       		.byte	0x12
 13410 0f7a DA02     		.2byte	0x2da
 13411 0f7c 5E0F0000 		.4byte	0xf5e
 13412 0f80 1D       		.uleb128 0x1d
 13413 0f81 01       		.byte	0x1
 13414 0f82 12       		.byte	0x12
 13415 0f83 E702     		.2byte	0x2e7
 13416 0f85 970F0000 		.4byte	0xf97
 13417 0f89 1B       		.uleb128 0x1b
 13418 0f8a 991E0000 		.4byte	.LASF282
 13419 0f8e 00       		.sleb128 0
 13420 0f8f 1B       		.uleb128 0x1b
 13421 0f90 B50D0000 		.4byte	.LASF283
 13422 0f94 C000     		.sleb128 64
 13423 0f96 00       		.byte	0
 13424 0f97 11       		.uleb128 0x11
 13425 0f98 2E2F0000 		.4byte	.LASF284
 13426 0f9c 12       		.byte	0x12
 13427 0f9d EA02     		.2byte	0x2ea
 13428 0f9f 800F0000 		.4byte	0xf80
 13429 0fa3 1D       		.uleb128 0x1d
 13430 0fa4 01       		.byte	0x1
 13431 0fa5 12       		.byte	0x12
 13432 0fa6 F702     		.2byte	0x2f7
 13433 0fa8 B90F0000 		.4byte	0xfb9
ARM GAS  /tmp/cc1ELVNa.s 			page 240


 13434 0fac 1B       		.uleb128 0x1b
 13435 0fad 650C0000 		.4byte	.LASF285
 13436 0fb1 00       		.sleb128 0
 13437 0fb2 1B       		.uleb128 0x1b
 13438 0fb3 7A1D0000 		.4byte	.LASF286
 13439 0fb7 01       		.sleb128 1
 13440 0fb8 00       		.byte	0
 13441 0fb9 11       		.uleb128 0x11
 13442 0fba 22050000 		.4byte	.LASF287
 13443 0fbe 12       		.byte	0x12
 13444 0fbf FA02     		.2byte	0x2fa
 13445 0fc1 A30F0000 		.4byte	0xfa3
 13446 0fc5 1D       		.uleb128 0x1d
 13447 0fc6 01       		.byte	0x1
 13448 0fc7 12       		.byte	0x12
 13449 0fc8 0703     		.2byte	0x307
 13450 0fca DB0F0000 		.4byte	0xfdb
 13451 0fce 1B       		.uleb128 0x1b
 13452 0fcf 89320000 		.4byte	.LASF288
 13453 0fd3 00       		.sleb128 0
 13454 0fd4 1B       		.uleb128 0x1b
 13455 0fd5 67080000 		.4byte	.LASF289
 13456 0fd9 02       		.sleb128 2
 13457 0fda 00       		.byte	0
 13458 0fdb 11       		.uleb128 0x11
 13459 0fdc 7C150000 		.4byte	.LASF290
 13460 0fe0 12       		.byte	0x12
 13461 0fe1 0A03     		.2byte	0x30a
 13462 0fe3 C50F0000 		.4byte	0xfc5
 13463 0fe7 1D       		.uleb128 0x1d
 13464 0fe8 01       		.byte	0x1
 13465 0fe9 12       		.byte	0x12
 13466 0fea 1703     		.2byte	0x317
 13467 0fec FD0F0000 		.4byte	0xffd
 13468 0ff0 1B       		.uleb128 0x1b
 13469 0ff1 96020000 		.4byte	.LASF291
 13470 0ff5 00       		.sleb128 0
 13471 0ff6 1B       		.uleb128 0x1b
 13472 0ff7 521D0000 		.4byte	.LASF292
 13473 0ffb 04       		.sleb128 4
 13474 0ffc 00       		.byte	0
 13475 0ffd 11       		.uleb128 0x11
 13476 0ffe C0270000 		.4byte	.LASF293
 13477 1002 12       		.byte	0x12
 13478 1003 1A03     		.2byte	0x31a
 13479 1005 E70F0000 		.4byte	0xfe7
 13480 1009 1D       		.uleb128 0x1d
 13481 100a 01       		.byte	0x1
 13482 100b 12       		.byte	0x12
 13483 100c 2703     		.2byte	0x327
 13484 100e 1F100000 		.4byte	0x101f
 13485 1012 1B       		.uleb128 0x1b
 13486 1013 6B280000 		.4byte	.LASF294
 13487 1017 00       		.sleb128 0
 13488 1018 1B       		.uleb128 0x1b
 13489 1019 32080000 		.4byte	.LASF295
 13490 101d 08       		.sleb128 8
ARM GAS  /tmp/cc1ELVNa.s 			page 241


 13491 101e 00       		.byte	0
 13492 101f 11       		.uleb128 0x11
 13493 1020 AF0E0000 		.4byte	.LASF296
 13494 1024 12       		.byte	0x12
 13495 1025 2A03     		.2byte	0x32a
 13496 1027 09100000 		.4byte	0x1009
 13497 102b 1D       		.uleb128 0x1d
 13498 102c 01       		.byte	0x1
 13499 102d 12       		.byte	0x12
 13500 102e 3703     		.2byte	0x337
 13501 1030 42100000 		.4byte	0x1042
 13502 1034 1B       		.uleb128 0x1b
 13503 1035 85240000 		.4byte	.LASF297
 13504 1039 00       		.sleb128 0
 13505 103a 1B       		.uleb128 0x1b
 13506 103b 85070000 		.4byte	.LASF298
 13507 103f C000     		.sleb128 64
 13508 1041 00       		.byte	0
 13509 1042 11       		.uleb128 0x11
 13510 1043 34290000 		.4byte	.LASF299
 13511 1047 12       		.byte	0x12
 13512 1048 3A03     		.2byte	0x33a
 13513 104a 2B100000 		.4byte	0x102b
 13514 104e 1D       		.uleb128 0x1d
 13515 104f 01       		.byte	0x1
 13516 1050 12       		.byte	0x12
 13517 1051 4703     		.2byte	0x347
 13518 1053 65100000 		.4byte	0x1065
 13519 1057 1B       		.uleb128 0x1b
 13520 1058 712F0000 		.4byte	.LASF300
 13521 105c 00       		.sleb128 0
 13522 105d 1B       		.uleb128 0x1b
 13523 105e 902F0000 		.4byte	.LASF301
 13524 1062 8001     		.sleb128 128
 13525 1064 00       		.byte	0
 13526 1065 11       		.uleb128 0x11
 13527 1066 A5010000 		.4byte	.LASF302
 13528 106a 12       		.byte	0x12
 13529 106b 4A03     		.2byte	0x34a
 13530 106d 4E100000 		.4byte	0x104e
 13531 1071 1D       		.uleb128 0x1d
 13532 1072 01       		.byte	0x1
 13533 1073 12       		.byte	0x12
 13534 1074 5703     		.2byte	0x357
 13535 1076 87100000 		.4byte	0x1087
 13536 107a 1B       		.uleb128 0x1b
 13537 107b 9E190000 		.4byte	.LASF303
 13538 107f 00       		.sleb128 0
 13539 1080 1B       		.uleb128 0x1b
 13540 1081 461E0000 		.4byte	.LASF304
 13541 1085 02       		.sleb128 2
 13542 1086 00       		.byte	0
 13543 1087 11       		.uleb128 0x11
 13544 1088 142F0000 		.4byte	.LASF305
 13545 108c 12       		.byte	0x12
 13546 108d 5A03     		.2byte	0x35a
 13547 108f 71100000 		.4byte	0x1071
ARM GAS  /tmp/cc1ELVNa.s 			page 242


 13548 1093 1D       		.uleb128 0x1d
 13549 1094 01       		.byte	0x1
 13550 1095 12       		.byte	0x12
 13551 1096 6703     		.2byte	0x367
 13552 1098 A9100000 		.4byte	0x10a9
 13553 109c 1B       		.uleb128 0x1b
 13554 109d 32380000 		.4byte	.LASF306
 13555 10a1 00       		.sleb128 0
 13556 10a2 1B       		.uleb128 0x1b
 13557 10a3 0E080000 		.4byte	.LASF307
 13558 10a7 08       		.sleb128 8
 13559 10a8 00       		.byte	0
 13560 10a9 11       		.uleb128 0x11
 13561 10aa 042C0000 		.4byte	.LASF308
 13562 10ae 12       		.byte	0x12
 13563 10af 6A03     		.2byte	0x36a
 13564 10b1 93100000 		.4byte	0x1093
 13565 10b5 1D       		.uleb128 0x1d
 13566 10b6 01       		.byte	0x1
 13567 10b7 12       		.byte	0x12
 13568 10b8 7703     		.2byte	0x377
 13569 10ba CB100000 		.4byte	0x10cb
 13570 10be 1B       		.uleb128 0x1b
 13571 10bf F41F0000 		.4byte	.LASF309
 13572 10c3 00       		.sleb128 0
 13573 10c4 1B       		.uleb128 0x1b
 13574 10c5 902C0000 		.4byte	.LASF310
 13575 10c9 10       		.sleb128 16
 13576 10ca 00       		.byte	0
 13577 10cb 11       		.uleb128 0x11
 13578 10cc 57050000 		.4byte	.LASF311
 13579 10d0 12       		.byte	0x12
 13580 10d1 7A03     		.2byte	0x37a
 13581 10d3 B5100000 		.4byte	0x10b5
 13582 10d7 1D       		.uleb128 0x1d
 13583 10d8 01       		.byte	0x1
 13584 10d9 12       		.byte	0x12
 13585 10da 8703     		.2byte	0x387
 13586 10dc ED100000 		.4byte	0x10ed
 13587 10e0 1B       		.uleb128 0x1b
 13588 10e1 1E240000 		.4byte	.LASF312
 13589 10e5 00       		.sleb128 0
 13590 10e6 1B       		.uleb128 0x1b
 13591 10e7 15340000 		.4byte	.LASF313
 13592 10eb 20       		.sleb128 32
 13593 10ec 00       		.byte	0
 13594 10ed 11       		.uleb128 0x11
 13595 10ee 341D0000 		.4byte	.LASF314
 13596 10f2 12       		.byte	0x12
 13597 10f3 8A03     		.2byte	0x38a
 13598 10f5 D7100000 		.4byte	0x10d7
 13599 10f9 1D       		.uleb128 0x1d
 13600 10fa 01       		.byte	0x1
 13601 10fb 12       		.byte	0x12
 13602 10fc 9703     		.2byte	0x397
 13603 10fe 10110000 		.4byte	0x1110
 13604 1102 1B       		.uleb128 0x1b
ARM GAS  /tmp/cc1ELVNa.s 			page 243


 13605 1103 41190000 		.4byte	.LASF315
 13606 1107 00       		.sleb128 0
 13607 1108 1B       		.uleb128 0x1b
 13608 1109 D5330000 		.4byte	.LASF316
 13609 110d C000     		.sleb128 64
 13610 110f 00       		.byte	0
 13611 1110 11       		.uleb128 0x11
 13612 1111 B6170000 		.4byte	.LASF317
 13613 1115 12       		.byte	0x12
 13614 1116 9A03     		.2byte	0x39a
 13615 1118 F9100000 		.4byte	0x10f9
 13616 111c 1D       		.uleb128 0x1d
 13617 111d 01       		.byte	0x1
 13618 111e 12       		.byte	0x12
 13619 111f A703     		.2byte	0x3a7
 13620 1121 33110000 		.4byte	0x1133
 13621 1125 1B       		.uleb128 0x1b
 13622 1126 612A0000 		.4byte	.LASF318
 13623 112a 00       		.sleb128 0
 13624 112b 1B       		.uleb128 0x1b
 13625 112c 64240000 		.4byte	.LASF319
 13626 1130 8001     		.sleb128 128
 13627 1132 00       		.byte	0
 13628 1133 11       		.uleb128 0x11
 13629 1134 6B130000 		.4byte	.LASF320
 13630 1138 12       		.byte	0x12
 13631 1139 AA03     		.2byte	0x3aa
 13632 113b 1C110000 		.4byte	0x111c
 13633 113f 1D       		.uleb128 0x1d
 13634 1140 01       		.byte	0x1
 13635 1141 12       		.byte	0x12
 13636 1142 C203     		.2byte	0x3c2
 13637 1144 55110000 		.4byte	0x1155
 13638 1148 1B       		.uleb128 0x1b
 13639 1149 BB360000 		.4byte	.LASF321
 13640 114d 00       		.sleb128 0
 13641 114e 1B       		.uleb128 0x1b
 13642 114f 712D0000 		.4byte	.LASF322
 13643 1153 01       		.sleb128 1
 13644 1154 00       		.byte	0
 13645 1155 11       		.uleb128 0x11
 13646 1156 2E1A0000 		.4byte	.LASF323
 13647 115a 12       		.byte	0x12
 13648 115b C503     		.2byte	0x3c5
 13649 115d 3F110000 		.4byte	0x113f
 13650 1161 1D       		.uleb128 0x1d
 13651 1162 01       		.byte	0x1
 13652 1163 12       		.byte	0x12
 13653 1164 D103     		.2byte	0x3d1
 13654 1166 77110000 		.4byte	0x1177
 13655 116a 1B       		.uleb128 0x1b
 13656 116b 5F330000 		.4byte	.LASF324
 13657 116f 00       		.sleb128 0
 13658 1170 1B       		.uleb128 0x1b
 13659 1171 D0210000 		.4byte	.LASF325
 13660 1175 02       		.sleb128 2
 13661 1176 00       		.byte	0
ARM GAS  /tmp/cc1ELVNa.s 			page 244


 13662 1177 11       		.uleb128 0x11
 13663 1178 FA2C0000 		.4byte	.LASF326
 13664 117c 12       		.byte	0x12
 13665 117d D403     		.2byte	0x3d4
 13666 117f 61110000 		.4byte	0x1161
 13667 1183 1D       		.uleb128 0x1d
 13668 1184 01       		.byte	0x1
 13669 1185 12       		.byte	0x12
 13670 1186 E003     		.2byte	0x3e0
 13671 1188 99110000 		.4byte	0x1199
 13672 118c 1B       		.uleb128 0x1b
 13673 118d 39170000 		.4byte	.LASF327
 13674 1191 00       		.sleb128 0
 13675 1192 1B       		.uleb128 0x1b
 13676 1193 702E0000 		.4byte	.LASF328
 13677 1197 04       		.sleb128 4
 13678 1198 00       		.byte	0
 13679 1199 11       		.uleb128 0x11
 13680 119a 4D040000 		.4byte	.LASF329
 13681 119e 12       		.byte	0x12
 13682 119f E303     		.2byte	0x3e3
 13683 11a1 83110000 		.4byte	0x1183
 13684 11a5 1D       		.uleb128 0x1d
 13685 11a6 01       		.byte	0x1
 13686 11a7 12       		.byte	0x12
 13687 11a8 EF03     		.2byte	0x3ef
 13688 11aa BB110000 		.4byte	0x11bb
 13689 11ae 1B       		.uleb128 0x1b
 13690 11af D8100000 		.4byte	.LASF330
 13691 11b3 00       		.sleb128 0
 13692 11b4 1B       		.uleb128 0x1b
 13693 11b5 D2150000 		.4byte	.LASF331
 13694 11b9 08       		.sleb128 8
 13695 11ba 00       		.byte	0
 13696 11bb 11       		.uleb128 0x11
 13697 11bc 8B280000 		.4byte	.LASF332
 13698 11c0 12       		.byte	0x12
 13699 11c1 F203     		.2byte	0x3f2
 13700 11c3 A5110000 		.4byte	0x11a5
 13701 11c7 1D       		.uleb128 0x1d
 13702 11c8 01       		.byte	0x1
 13703 11c9 12       		.byte	0x12
 13704 11ca FE03     		.2byte	0x3fe
 13705 11cc DD110000 		.4byte	0x11dd
 13706 11d0 1B       		.uleb128 0x1b
 13707 11d1 C0180000 		.4byte	.LASF333
 13708 11d5 00       		.sleb128 0
 13709 11d6 1B       		.uleb128 0x1b
 13710 11d7 4B350000 		.4byte	.LASF334
 13711 11db 10       		.sleb128 16
 13712 11dc 00       		.byte	0
 13713 11dd 11       		.uleb128 0x11
 13714 11de 34180000 		.4byte	.LASF335
 13715 11e2 12       		.byte	0x12
 13716 11e3 0104     		.2byte	0x401
 13717 11e5 C7110000 		.4byte	0x11c7
 13718 11e9 1D       		.uleb128 0x1d
ARM GAS  /tmp/cc1ELVNa.s 			page 245


 13719 11ea 01       		.byte	0x1
 13720 11eb 12       		.byte	0x12
 13721 11ec 0D04     		.2byte	0x40d
 13722 11ee FF110000 		.4byte	0x11ff
 13723 11f2 1B       		.uleb128 0x1b
 13724 11f3 F7290000 		.4byte	.LASF336
 13725 11f7 00       		.sleb128 0
 13726 11f8 1B       		.uleb128 0x1b
 13727 11f9 F42E0000 		.4byte	.LASF337
 13728 11fd 20       		.sleb128 32
 13729 11fe 00       		.byte	0
 13730 11ff 11       		.uleb128 0x11
 13731 1200 2E2A0000 		.4byte	.LASF338
 13732 1204 12       		.byte	0x12
 13733 1205 1004     		.2byte	0x410
 13734 1207 E9110000 		.4byte	0x11e9
 13735 120b 1D       		.uleb128 0x1d
 13736 120c 01       		.byte	0x1
 13737 120d 12       		.byte	0x12
 13738 120e 1C04     		.2byte	0x41c
 13739 1210 22120000 		.4byte	0x1222
 13740 1214 1B       		.uleb128 0x1b
 13741 1215 AF000000 		.4byte	.LASF339
 13742 1219 00       		.sleb128 0
 13743 121a 1B       		.uleb128 0x1b
 13744 121b 950E0000 		.4byte	.LASF340
 13745 121f C000     		.sleb128 64
 13746 1221 00       		.byte	0
 13747 1222 11       		.uleb128 0x11
 13748 1223 D7010000 		.4byte	.LASF341
 13749 1227 12       		.byte	0x12
 13750 1228 1F04     		.2byte	0x41f
 13751 122a 0B120000 		.4byte	0x120b
 13752 122e 1D       		.uleb128 0x1d
 13753 122f 01       		.byte	0x1
 13754 1230 12       		.byte	0x12
 13755 1231 2B04     		.2byte	0x42b
 13756 1233 45120000 		.4byte	0x1245
 13757 1237 1B       		.uleb128 0x1b
 13758 1238 630B0000 		.4byte	.LASF342
 13759 123c 00       		.sleb128 0
 13760 123d 1B       		.uleb128 0x1b
 13761 123e 4A1A0000 		.4byte	.LASF343
 13762 1242 8001     		.sleb128 128
 13763 1244 00       		.byte	0
 13764 1245 11       		.uleb128 0x11
 13765 1246 94250000 		.4byte	.LASF344
 13766 124a 12       		.byte	0x12
 13767 124b 2E04     		.2byte	0x42e
 13768 124d 2E120000 		.4byte	0x122e
 13769 1251 1D       		.uleb128 0x1d
 13770 1252 01       		.byte	0x1
 13771 1253 12       		.byte	0x12
 13772 1254 4504     		.2byte	0x445
 13773 1256 67120000 		.4byte	0x1267
 13774 125a 1B       		.uleb128 0x1b
 13775 125b D20D0000 		.4byte	.LASF345
ARM GAS  /tmp/cc1ELVNa.s 			page 246


 13776 125f 00       		.sleb128 0
 13777 1260 1B       		.uleb128 0x1b
 13778 1261 F30D0000 		.4byte	.LASF346
 13779 1265 20       		.sleb128 32
 13780 1266 00       		.byte	0
 13781 1267 11       		.uleb128 0x11
 13782 1268 34120000 		.4byte	.LASF347
 13783 126c 12       		.byte	0x12
 13784 126d 4804     		.2byte	0x448
 13785 126f 51120000 		.4byte	0x1251
 13786 1273 1D       		.uleb128 0x1d
 13787 1274 01       		.byte	0x1
 13788 1275 12       		.byte	0x12
 13789 1276 5504     		.2byte	0x455
 13790 1278 98120000 		.4byte	0x1298
 13791 127c 1B       		.uleb128 0x1b
 13792 127d 8A170000 		.4byte	.LASF348
 13793 1281 00       		.sleb128 0
 13794 1282 1B       		.uleb128 0x1b
 13795 1283 65350000 		.4byte	.LASF349
 13796 1287 C000     		.sleb128 64
 13797 1289 1B       		.uleb128 0x1b
 13798 128a AA2F0000 		.4byte	.LASF350
 13799 128e 8001     		.sleb128 128
 13800 1290 1B       		.uleb128 0x1b
 13801 1291 E9230000 		.4byte	.LASF351
 13802 1295 C001     		.sleb128 192
 13803 1297 00       		.byte	0
 13804 1298 11       		.uleb128 0x11
 13805 1299 54030000 		.4byte	.LASF352
 13806 129d 12       		.byte	0x12
 13807 129e 5A04     		.2byte	0x45a
 13808 12a0 73120000 		.4byte	0x1273
 13809 12a4 1D       		.uleb128 0x1d
 13810 12a5 01       		.byte	0x1
 13811 12a6 12       		.byte	0x12
 13812 12a7 7104     		.2byte	0x471
 13813 12a9 BA120000 		.4byte	0x12ba
 13814 12ad 1B       		.uleb128 0x1b
 13815 12ae 201E0000 		.4byte	.LASF353
 13816 12b2 00       		.sleb128 0
 13817 12b3 1B       		.uleb128 0x1b
 13818 12b4 65380000 		.4byte	.LASF354
 13819 12b8 20       		.sleb128 32
 13820 12b9 00       		.byte	0
 13821 12ba 11       		.uleb128 0x11
 13822 12bb 85140000 		.4byte	.LASF355
 13823 12bf 12       		.byte	0x12
 13824 12c0 7404     		.2byte	0x474
 13825 12c2 A4120000 		.4byte	0x12a4
 13826 12c6 1D       		.uleb128 0x1d
 13827 12c7 01       		.byte	0x1
 13828 12c8 12       		.byte	0x12
 13829 12c9 8004     		.2byte	0x480
 13830 12cb DD120000 		.4byte	0x12dd
 13831 12cf 1B       		.uleb128 0x1b
 13832 12d0 E6170000 		.4byte	.LASF356
ARM GAS  /tmp/cc1ELVNa.s 			page 247


 13833 12d4 00       		.sleb128 0
 13834 12d5 1B       		.uleb128 0x1b
 13835 12d6 19130000 		.4byte	.LASF357
 13836 12da C000     		.sleb128 64
 13837 12dc 00       		.byte	0
 13838 12dd 11       		.uleb128 0x11
 13839 12de 15330000 		.4byte	.LASF358
 13840 12e2 12       		.byte	0x12
 13841 12e3 8304     		.2byte	0x483
 13842 12e5 C6120000 		.4byte	0x12c6
 13843 12e9 1D       		.uleb128 0x1d
 13844 12ea 01       		.byte	0x1
 13845 12eb 12       		.byte	0x12
 13846 12ec 8F04     		.2byte	0x48f
 13847 12ee 00130000 		.4byte	0x1300
 13848 12f2 1B       		.uleb128 0x1b
 13849 12f3 0C250000 		.4byte	.LASF359
 13850 12f7 00       		.sleb128 0
 13851 12f8 1B       		.uleb128 0x1b
 13852 12f9 37310000 		.4byte	.LASF360
 13853 12fd 8001     		.sleb128 128
 13854 12ff 00       		.byte	0
 13855 1300 11       		.uleb128 0x11
 13856 1301 F4000000 		.4byte	.LASF361
 13857 1305 12       		.byte	0x12
 13858 1306 9204     		.2byte	0x492
 13859 1308 E9120000 		.4byte	0x12e9
 13860 130c 1D       		.uleb128 0x1d
 13861 130d 01       		.byte	0x1
 13862 130e 12       		.byte	0x12
 13863 130f 9E04     		.2byte	0x49e
 13864 1311 22130000 		.4byte	0x1322
 13865 1315 1B       		.uleb128 0x1b
 13866 1316 65290000 		.4byte	.LASF362
 13867 131a 00       		.sleb128 0
 13868 131b 1B       		.uleb128 0x1b
 13869 131c F5340000 		.4byte	.LASF363
 13870 1320 01       		.sleb128 1
 13871 1321 00       		.byte	0
 13872 1322 11       		.uleb128 0x11
 13873 1323 D01C0000 		.4byte	.LASF364
 13874 1327 12       		.byte	0x12
 13875 1328 A104     		.2byte	0x4a1
 13876 132a 0C130000 		.4byte	0x130c
 13877 132e 1D       		.uleb128 0x1d
 13878 132f 01       		.byte	0x1
 13879 1330 12       		.byte	0x12
 13880 1331 B004     		.2byte	0x4b0
 13881 1333 44130000 		.4byte	0x1344
 13882 1337 1B       		.uleb128 0x1b
 13883 1338 7A020000 		.4byte	.LASF365
 13884 133c 00       		.sleb128 0
 13885 133d 1B       		.uleb128 0x1b
 13886 133e A6290000 		.4byte	.LASF366
 13887 1342 02       		.sleb128 2
 13888 1343 00       		.byte	0
 13889 1344 11       		.uleb128 0x11
ARM GAS  /tmp/cc1ELVNa.s 			page 248


 13890 1345 6A0D0000 		.4byte	.LASF367
 13891 1349 12       		.byte	0x12
 13892 134a B304     		.2byte	0x4b3
 13893 134c 2E130000 		.4byte	0x132e
 13894 1350 1D       		.uleb128 0x1d
 13895 1351 01       		.byte	0x1
 13896 1352 12       		.byte	0x12
 13897 1353 C204     		.2byte	0x4c2
 13898 1355 66130000 		.4byte	0x1366
 13899 1359 1B       		.uleb128 0x1b
 13900 135a C8350000 		.4byte	.LASF368
 13901 135e 00       		.sleb128 0
 13902 135f 1B       		.uleb128 0x1b
 13903 1360 F1280000 		.4byte	.LASF369
 13904 1364 04       		.sleb128 4
 13905 1365 00       		.byte	0
 13906 1366 11       		.uleb128 0x11
 13907 1367 951B0000 		.4byte	.LASF370
 13908 136b 12       		.byte	0x12
 13909 136c C504     		.2byte	0x4c5
 13910 136e 50130000 		.4byte	0x1350
 13911 1372 1D       		.uleb128 0x1d
 13912 1373 01       		.byte	0x1
 13913 1374 12       		.byte	0x12
 13914 1375 D404     		.2byte	0x4d4
 13915 1377 88130000 		.4byte	0x1388
 13916 137b 1B       		.uleb128 0x1b
 13917 137c 83100000 		.4byte	.LASF371
 13918 1380 00       		.sleb128 0
 13919 1381 1B       		.uleb128 0x1b
 13920 1382 B51C0000 		.4byte	.LASF372
 13921 1386 08       		.sleb128 8
 13922 1387 00       		.byte	0
 13923 1388 11       		.uleb128 0x11
 13924 1389 300C0000 		.4byte	.LASF373
 13925 138d 12       		.byte	0x12
 13926 138e D704     		.2byte	0x4d7
 13927 1390 72130000 		.4byte	0x1372
 13928 1394 1D       		.uleb128 0x1d
 13929 1395 01       		.byte	0x1
 13930 1396 12       		.byte	0x12
 13931 1397 E604     		.2byte	0x4e6
 13932 1399 AA130000 		.4byte	0x13aa
 13933 139d 1B       		.uleb128 0x1b
 13934 139e DB290000 		.4byte	.LASF374
 13935 13a2 00       		.sleb128 0
 13936 13a3 1B       		.uleb128 0x1b
 13937 13a4 191B0000 		.4byte	.LASF375
 13938 13a8 10       		.sleb128 16
 13939 13a9 00       		.byte	0
 13940 13aa 11       		.uleb128 0x11
 13941 13ab A6330000 		.4byte	.LASF376
 13942 13af 12       		.byte	0x12
 13943 13b0 E904     		.2byte	0x4e9
 13944 13b2 94130000 		.4byte	0x1394
 13945 13b6 1D       		.uleb128 0x1d
 13946 13b7 01       		.byte	0x1
ARM GAS  /tmp/cc1ELVNa.s 			page 249


 13947 13b8 12       		.byte	0x12
 13948 13b9 F804     		.2byte	0x4f8
 13949 13bb CC130000 		.4byte	0x13cc
 13950 13bf 1B       		.uleb128 0x1b
 13951 13c0 552C0000 		.4byte	.LASF377
 13952 13c4 00       		.sleb128 0
 13953 13c5 1B       		.uleb128 0x1b
 13954 13c6 53100000 		.4byte	.LASF378
 13955 13ca 20       		.sleb128 32
 13956 13cb 00       		.byte	0
 13957 13cc 11       		.uleb128 0x11
 13958 13cd 040B0000 		.4byte	.LASF379
 13959 13d1 12       		.byte	0x12
 13960 13d2 FB04     		.2byte	0x4fb
 13961 13d4 B6130000 		.4byte	0x13b6
 13962 13d8 1D       		.uleb128 0x1d
 13963 13d9 01       		.byte	0x1
 13964 13da 12       		.byte	0x12
 13965 13db 0A05     		.2byte	0x50a
 13966 13dd EF130000 		.4byte	0x13ef
 13967 13e1 1B       		.uleb128 0x1b
 13968 13e2 FE090000 		.4byte	.LASF380
 13969 13e6 00       		.sleb128 0
 13970 13e7 1B       		.uleb128 0x1b
 13971 13e8 A1280000 		.4byte	.LASF381
 13972 13ec C000     		.sleb128 64
 13973 13ee 00       		.byte	0
 13974 13ef 11       		.uleb128 0x11
 13975 13f0 341B0000 		.4byte	.LASF382
 13976 13f4 12       		.byte	0x12
 13977 13f5 0D05     		.2byte	0x50d
 13978 13f7 D8130000 		.4byte	0x13d8
 13979 13fb 1D       		.uleb128 0x1d
 13980 13fc 01       		.byte	0x1
 13981 13fd 12       		.byte	0x12
 13982 13fe 1C05     		.2byte	0x51c
 13983 1400 12140000 		.4byte	0x1412
 13984 1404 1B       		.uleb128 0x1b
 13985 1405 65360000 		.4byte	.LASF383
 13986 1409 00       		.sleb128 0
 13987 140a 1B       		.uleb128 0x1b
 13988 140b 262E0000 		.4byte	.LASF384
 13989 140f 8001     		.sleb128 128
 13990 1411 00       		.byte	0
 13991 1412 11       		.uleb128 0x11
 13992 1413 C0140000 		.4byte	.LASF385
 13993 1417 12       		.byte	0x12
 13994 1418 1F05     		.2byte	0x51f
 13995 141a FB130000 		.4byte	0x13fb
 13996 141e 1D       		.uleb128 0x1d
 13997 141f 01       		.byte	0x1
 13998 1420 12       		.byte	0x12
 13999 1421 2E05     		.2byte	0x52e
 14000 1423 34140000 		.4byte	0x1434
 14001 1427 1B       		.uleb128 0x1b
 14002 1428 A9130000 		.4byte	.LASF386
 14003 142c 00       		.sleb128 0
ARM GAS  /tmp/cc1ELVNa.s 			page 250


 14004 142d 1B       		.uleb128 0x1b
 14005 142e CF020000 		.4byte	.LASF387
 14006 1432 01       		.sleb128 1
 14007 1433 00       		.byte	0
 14008 1434 11       		.uleb128 0x11
 14009 1435 CD250000 		.4byte	.LASF388
 14010 1439 12       		.byte	0x12
 14011 143a 3105     		.2byte	0x531
 14012 143c 1E140000 		.4byte	0x141e
 14013 1440 1D       		.uleb128 0x1d
 14014 1441 01       		.byte	0x1
 14015 1442 12       		.byte	0x12
 14016 1443 3E05     		.2byte	0x53e
 14017 1445 56140000 		.4byte	0x1456
 14018 1449 1B       		.uleb128 0x1b
 14019 144a C12A0000 		.4byte	.LASF389
 14020 144e 00       		.sleb128 0
 14021 144f 1B       		.uleb128 0x1b
 14022 1450 39060000 		.4byte	.LASF390
 14023 1454 02       		.sleb128 2
 14024 1455 00       		.byte	0
 14025 1456 11       		.uleb128 0x11
 14026 1457 720F0000 		.4byte	.LASF391
 14027 145b 12       		.byte	0x12
 14028 145c 4105     		.2byte	0x541
 14029 145e 40140000 		.4byte	0x1440
 14030 1462 1D       		.uleb128 0x1d
 14031 1463 01       		.byte	0x1
 14032 1464 12       		.byte	0x12
 14033 1465 4E05     		.2byte	0x54e
 14034 1467 78140000 		.4byte	0x1478
 14035 146b 1B       		.uleb128 0x1b
 14036 146c D5130000 		.4byte	.LASF392
 14037 1470 00       		.sleb128 0
 14038 1471 1B       		.uleb128 0x1b
 14039 1472 18160000 		.4byte	.LASF393
 14040 1476 04       		.sleb128 4
 14041 1477 00       		.byte	0
 14042 1478 11       		.uleb128 0x11
 14043 1479 9D060000 		.4byte	.LASF394
 14044 147d 12       		.byte	0x12
 14045 147e 5105     		.2byte	0x551
 14046 1480 62140000 		.4byte	0x1462
 14047 1484 1D       		.uleb128 0x1d
 14048 1485 01       		.byte	0x1
 14049 1486 12       		.byte	0x12
 14050 1487 5E05     		.2byte	0x55e
 14051 1489 9A140000 		.4byte	0x149a
 14052 148d 1B       		.uleb128 0x1b
 14053 148e 3A360000 		.4byte	.LASF395
 14054 1492 00       		.sleb128 0
 14055 1493 1B       		.uleb128 0x1b
 14056 1494 EF180000 		.4byte	.LASF396
 14057 1498 08       		.sleb128 8
 14058 1499 00       		.byte	0
 14059 149a 11       		.uleb128 0x11
 14060 149b 382B0000 		.4byte	.LASF397
ARM GAS  /tmp/cc1ELVNa.s 			page 251


 14061 149f 12       		.byte	0x12
 14062 14a0 6105     		.2byte	0x561
 14063 14a2 84140000 		.4byte	0x1484
 14064 14a6 1D       		.uleb128 0x1d
 14065 14a7 01       		.byte	0x1
 14066 14a8 12       		.byte	0x12
 14067 14a9 6E05     		.2byte	0x56e
 14068 14ab BC140000 		.4byte	0x14bc
 14069 14af 1B       		.uleb128 0x1b
 14070 14b0 551F0000 		.4byte	.LASF398
 14071 14b4 00       		.sleb128 0
 14072 14b5 1B       		.uleb128 0x1b
 14073 14b6 8E270000 		.4byte	.LASF399
 14074 14ba 10       		.sleb128 16
 14075 14bb 00       		.byte	0
 14076 14bc 11       		.uleb128 0x11
 14077 14bd 25010000 		.4byte	.LASF400
 14078 14c1 12       		.byte	0x12
 14079 14c2 7105     		.2byte	0x571
 14080 14c4 A6140000 		.4byte	0x14a6
 14081 14c8 1D       		.uleb128 0x1d
 14082 14c9 01       		.byte	0x1
 14083 14ca 12       		.byte	0x12
 14084 14cb 7E05     		.2byte	0x57e
 14085 14cd DE140000 		.4byte	0x14de
 14086 14d1 1B       		.uleb128 0x1b
 14087 14d2 51080000 		.4byte	.LASF401
 14088 14d6 00       		.sleb128 0
 14089 14d7 1B       		.uleb128 0x1b
 14090 14d8 962B0000 		.4byte	.LASF402
 14091 14dc 20       		.sleb128 32
 14092 14dd 00       		.byte	0
 14093 14de 11       		.uleb128 0x11
 14094 14df F50B0000 		.4byte	.LASF403
 14095 14e3 12       		.byte	0x12
 14096 14e4 8105     		.2byte	0x581
 14097 14e6 C8140000 		.4byte	0x14c8
 14098 14ea 1D       		.uleb128 0x1d
 14099 14eb 01       		.byte	0x1
 14100 14ec 12       		.byte	0x12
 14101 14ed 8E05     		.2byte	0x58e
 14102 14ef 01150000 		.4byte	0x1501
 14103 14f3 1B       		.uleb128 0x1b
 14104 14f4 08140000 		.4byte	.LASF404
 14105 14f8 00       		.sleb128 0
 14106 14f9 1B       		.uleb128 0x1b
 14107 14fa 66020000 		.4byte	.LASF405
 14108 14fe C000     		.sleb128 64
 14109 1500 00       		.byte	0
 14110 1501 11       		.uleb128 0x11
 14111 1502 40150000 		.4byte	.LASF406
 14112 1506 12       		.byte	0x12
 14113 1507 9105     		.2byte	0x591
 14114 1509 EA140000 		.4byte	0x14ea
 14115 150d 1D       		.uleb128 0x1d
 14116 150e 01       		.byte	0x1
 14117 150f 12       		.byte	0x12
ARM GAS  /tmp/cc1ELVNa.s 			page 252


 14118 1510 B805     		.2byte	0x5b8
 14119 1512 23150000 		.4byte	0x1523
 14120 1516 1B       		.uleb128 0x1b
 14121 1517 08310000 		.4byte	.LASF407
 14122 151b 00       		.sleb128 0
 14123 151c 1B       		.uleb128 0x1b
 14124 151d 35200000 		.4byte	.LASF408
 14125 1521 01       		.sleb128 1
 14126 1522 00       		.byte	0
 14127 1523 11       		.uleb128 0x11
 14128 1524 EE160000 		.4byte	.LASF409
 14129 1528 12       		.byte	0x12
 14130 1529 BB05     		.2byte	0x5bb
 14131 152b 0D150000 		.4byte	0x150d
 14132 152f 1D       		.uleb128 0x1d
 14133 1530 01       		.byte	0x1
 14134 1531 12       		.byte	0x12
 14135 1532 C805     		.2byte	0x5c8
 14136 1534 45150000 		.4byte	0x1545
 14137 1538 1B       		.uleb128 0x1b
 14138 1539 77000000 		.4byte	.LASF410
 14139 153d 00       		.sleb128 0
 14140 153e 1B       		.uleb128 0x1b
 14141 153f B51D0000 		.4byte	.LASF411
 14142 1543 02       		.sleb128 2
 14143 1544 00       		.byte	0
 14144 1545 11       		.uleb128 0x11
 14145 1546 471B0000 		.4byte	.LASF412
 14146 154a 12       		.byte	0x12
 14147 154b CB05     		.2byte	0x5cb
 14148 154d 2F150000 		.4byte	0x152f
 14149 1551 1D       		.uleb128 0x1d
 14150 1552 01       		.byte	0x1
 14151 1553 12       		.byte	0x12
 14152 1554 D805     		.2byte	0x5d8
 14153 1556 67150000 		.4byte	0x1567
 14154 155a 1B       		.uleb128 0x1b
 14155 155b 142A0000 		.4byte	.LASF413
 14156 155f 00       		.sleb128 0
 14157 1560 1B       		.uleb128 0x1b
 14158 1561 9B0A0000 		.4byte	.LASF414
 14159 1565 04       		.sleb128 4
 14160 1566 00       		.byte	0
 14161 1567 11       		.uleb128 0x11
 14162 1568 CE2E0000 		.4byte	.LASF415
 14163 156c 12       		.byte	0x12
 14164 156d DB05     		.2byte	0x5db
 14165 156f 51150000 		.4byte	0x1551
 14166 1573 1D       		.uleb128 0x1d
 14167 1574 01       		.byte	0x1
 14168 1575 12       		.byte	0x12
 14169 1576 E805     		.2byte	0x5e8
 14170 1578 89150000 		.4byte	0x1589
 14171 157c 1B       		.uleb128 0x1b
 14172 157d 141A0000 		.4byte	.LASF416
 14173 1581 00       		.sleb128 0
 14174 1582 1B       		.uleb128 0x1b
ARM GAS  /tmp/cc1ELVNa.s 			page 253


 14175 1583 FF270000 		.4byte	.LASF417
 14176 1587 08       		.sleb128 8
 14177 1588 00       		.byte	0
 14178 1589 11       		.uleb128 0x11
 14179 158a AB150000 		.4byte	.LASF418
 14180 158e 12       		.byte	0x12
 14181 158f EB05     		.2byte	0x5eb
 14182 1591 73150000 		.4byte	0x1573
 14183 1595 1D       		.uleb128 0x1d
 14184 1596 01       		.byte	0x1
 14185 1597 12       		.byte	0x12
 14186 1598 F805     		.2byte	0x5f8
 14187 159a AB150000 		.4byte	0x15ab
 14188 159e 1B       		.uleb128 0x1b
 14189 159f F2080000 		.4byte	.LASF419
 14190 15a3 00       		.sleb128 0
 14191 15a4 1B       		.uleb128 0x1b
 14192 15a5 33340000 		.4byte	.LASF420
 14193 15a9 10       		.sleb128 16
 14194 15aa 00       		.byte	0
 14195 15ab 11       		.uleb128 0x11
 14196 15ac 01170000 		.4byte	.LASF421
 14197 15b0 12       		.byte	0x12
 14198 15b1 FB05     		.2byte	0x5fb
 14199 15b3 95150000 		.4byte	0x1595
 14200 15b7 1D       		.uleb128 0x1d
 14201 15b8 01       		.byte	0x1
 14202 15b9 12       		.byte	0x12
 14203 15ba 0806     		.2byte	0x608
 14204 15bc CD150000 		.4byte	0x15cd
 14205 15c0 1B       		.uleb128 0x1b
 14206 15c1 BB330000 		.4byte	.LASF422
 14207 15c5 00       		.sleb128 0
 14208 15c6 1B       		.uleb128 0x1b
 14209 15c7 53320000 		.4byte	.LASF423
 14210 15cb 20       		.sleb128 32
 14211 15cc 00       		.byte	0
 14212 15cd 11       		.uleb128 0x11
 14213 15ce 37300000 		.4byte	.LASF424
 14214 15d2 12       		.byte	0x12
 14215 15d3 0B06     		.2byte	0x60b
 14216 15d5 B7150000 		.4byte	0x15b7
 14217 15d9 1D       		.uleb128 0x1d
 14218 15da 01       		.byte	0x1
 14219 15db 12       		.byte	0x12
 14220 15dc 1806     		.2byte	0x618
 14221 15de EF150000 		.4byte	0x15ef
 14222 15e2 1B       		.uleb128 0x1b
 14223 15e3 0A320000 		.4byte	.LASF425
 14224 15e7 00       		.sleb128 0
 14225 15e8 1B       		.uleb128 0x1b
 14226 15e9 CE120000 		.4byte	.LASF426
 14227 15ed 01       		.sleb128 1
 14228 15ee 00       		.byte	0
 14229 15ef 11       		.uleb128 0x11
 14230 15f0 38010000 		.4byte	.LASF427
 14231 15f4 12       		.byte	0x12
ARM GAS  /tmp/cc1ELVNa.s 			page 254


 14232 15f5 1B06     		.2byte	0x61b
 14233 15f7 D9150000 		.4byte	0x15d9
 14234 15fb 1D       		.uleb128 0x1d
 14235 15fc 01       		.byte	0x1
 14236 15fd 12       		.byte	0x12
 14237 15fe 2706     		.2byte	0x627
 14238 1600 11160000 		.4byte	0x1611
 14239 1604 1B       		.uleb128 0x1b
 14240 1605 22310000 		.4byte	.LASF428
 14241 1609 00       		.sleb128 0
 14242 160a 1B       		.uleb128 0x1b
 14243 160b 132E0000 		.4byte	.LASF429
 14244 160f 02       		.sleb128 2
 14245 1610 00       		.byte	0
 14246 1611 11       		.uleb128 0x11
 14247 1612 A8120000 		.4byte	.LASF430
 14248 1616 12       		.byte	0x12
 14249 1617 2A06     		.2byte	0x62a
 14250 1619 FB150000 		.4byte	0x15fb
 14251 161d 1D       		.uleb128 0x1d
 14252 161e 01       		.byte	0x1
 14253 161f 12       		.byte	0x12
 14254 1620 3606     		.2byte	0x636
 14255 1622 33160000 		.4byte	0x1633
 14256 1626 1B       		.uleb128 0x1b
 14257 1627 56130000 		.4byte	.LASF431
 14258 162b 00       		.sleb128 0
 14259 162c 1B       		.uleb128 0x1b
 14260 162d C5100000 		.4byte	.LASF432
 14261 1631 04       		.sleb128 4
 14262 1632 00       		.byte	0
 14263 1633 11       		.uleb128 0x11
 14264 1634 09180000 		.4byte	.LASF433
 14265 1638 12       		.byte	0x12
 14266 1639 3906     		.2byte	0x639
 14267 163b 1D160000 		.4byte	0x161d
 14268 163f 1D       		.uleb128 0x1d
 14269 1640 01       		.byte	0x1
 14270 1641 12       		.byte	0x12
 14271 1642 4506     		.2byte	0x645
 14272 1644 55160000 		.4byte	0x1655
 14273 1648 1B       		.uleb128 0x1b
 14274 1649 F9330000 		.4byte	.LASF434
 14275 164d 00       		.sleb128 0
 14276 164e 1B       		.uleb128 0x1b
 14277 164f E80A0000 		.4byte	.LASF435
 14278 1653 08       		.sleb128 8
 14279 1654 00       		.byte	0
 14280 1655 11       		.uleb128 0x11
 14281 1656 41260000 		.4byte	.LASF436
 14282 165a 12       		.byte	0x12
 14283 165b 4806     		.2byte	0x648
 14284 165d 3F160000 		.4byte	0x163f
 14285 1661 1D       		.uleb128 0x1d
 14286 1662 01       		.byte	0x1
 14287 1663 12       		.byte	0x12
 14288 1664 5406     		.2byte	0x654
ARM GAS  /tmp/cc1ELVNa.s 			page 255


 14289 1666 77160000 		.4byte	0x1677
 14290 166a 1B       		.uleb128 0x1b
 14291 166b 8D2D0000 		.4byte	.LASF437
 14292 166f 00       		.sleb128 0
 14293 1670 1B       		.uleb128 0x1b
 14294 1671 EE200000 		.4byte	.LASF438
 14295 1675 10       		.sleb128 16
 14296 1676 00       		.byte	0
 14297 1677 11       		.uleb128 0x11
 14298 1678 8F230000 		.4byte	.LASF439
 14299 167c 12       		.byte	0x12
 14300 167d 5706     		.2byte	0x657
 14301 167f 61160000 		.4byte	0x1661
 14302 1683 1D       		.uleb128 0x1d
 14303 1684 01       		.byte	0x1
 14304 1685 12       		.byte	0x12
 14305 1686 6306     		.2byte	0x663
 14306 1688 99160000 		.4byte	0x1699
 14307 168c 1B       		.uleb128 0x1b
 14308 168d 25250000 		.4byte	.LASF440
 14309 1691 00       		.sleb128 0
 14310 1692 1B       		.uleb128 0x1b
 14311 1693 EB130000 		.4byte	.LASF441
 14312 1697 20       		.sleb128 32
 14313 1698 00       		.byte	0
 14314 1699 11       		.uleb128 0x11
 14315 169a 22170000 		.4byte	.LASF442
 14316 169e 12       		.byte	0x12
 14317 169f 6606     		.2byte	0x666
 14318 16a1 83160000 		.4byte	0x1683
 14319 16a5 1D       		.uleb128 0x1d
 14320 16a6 01       		.byte	0x1
 14321 16a7 12       		.byte	0x12
 14322 16a8 7206     		.2byte	0x672
 14323 16aa BC160000 		.4byte	0x16bc
 14324 16ae 1B       		.uleb128 0x1b
 14325 16af 48240000 		.4byte	.LASF443
 14326 16b3 00       		.sleb128 0
 14327 16b4 1B       		.uleb128 0x1b
 14328 16b5 A72A0000 		.4byte	.LASF444
 14329 16b9 C000     		.sleb128 64
 14330 16bb 00       		.byte	0
 14331 16bc 11       		.uleb128 0x11
 14332 16bd 0E220000 		.4byte	.LASF445
 14333 16c1 12       		.byte	0x12
 14334 16c2 7506     		.2byte	0x675
 14335 16c4 A5160000 		.4byte	0x16a5
 14336 16c8 1E       		.uleb128 0x1e
 14337 16c9 40320000 		.4byte	.LASF448
 14338 16cd 01       		.byte	0x1
 14339 16ce 4A       		.byte	0x4a
 14340 16cf AA0A0000 		.4byte	0xaaa
 14341 16d3 00000000 		.4byte	.LFB267
 14342 16d7 3A000000 		.4byte	.LFE267-.LFB267
 14343 16db 01       		.uleb128 0x1
 14344 16dc 9C       		.byte	0x9c
 14345 16dd FE160000 		.4byte	0x16fe
ARM GAS  /tmp/cc1ELVNa.s 			page 256


 14346 16e1 1F       		.uleb128 0x1f
 14347 16e2 13130000 		.4byte	.LASF446
 14348 16e6 01       		.byte	0x1
 14349 16e7 4B       		.byte	0x4b
 14350 16e8 AD000000 		.4byte	0xad
 14351 16ec 02       		.uleb128 0x2
 14352 16ed 91       		.byte	0x91
 14353 16ee 77       		.sleb128 -9
 14354 16ef 1F       		.uleb128 0x1f
 14355 16f0 70260000 		.4byte	.LASF447
 14356 16f4 01       		.byte	0x1
 14357 16f5 4D       		.byte	0x4d
 14358 16f6 AD000000 		.4byte	0xad
 14359 16fa 02       		.uleb128 0x2
 14360 16fb 91       		.byte	0x91
 14361 16fc 76       		.sleb128 -10
 14362 16fd 00       		.byte	0
 14363 16fe 1E       		.uleb128 0x1e
 14364 16ff BB230000 		.4byte	.LASF449
 14365 1703 01       		.byte	0x1
 14366 1704 5F       		.byte	0x5f
 14367 1705 AA0A0000 		.4byte	0xaaa
 14368 1709 40000000 		.4byte	.LFB268
 14369 170d 44000000 		.4byte	.LFE268-.LFB268
 14370 1711 01       		.uleb128 0x1
 14371 1712 9C       		.byte	0x9c
 14372 1713 50170000 		.4byte	0x1750
 14373 1717 20       		.uleb128 0x20
 14374 1718 CC000000 		.4byte	.LASF450
 14375 171c 01       		.byte	0x1
 14376 171d 5F       		.byte	0x5f
 14377 171e 3E030000 		.4byte	0x33e
 14378 1722 02       		.uleb128 0x2
 14379 1723 91       		.byte	0x91
 14380 1724 74       		.sleb128 -12
 14381 1725 21       		.uleb128 0x21
 14382 1726 52656700 		.ascii	"Reg\000"
 14383 172a 01       		.byte	0x1
 14384 172b 5F       		.byte	0x5f
 14385 172c 2A0A0000 		.4byte	0xa2a
 14386 1730 02       		.uleb128 0x2
 14387 1731 91       		.byte	0x91
 14388 1732 73       		.sleb128 -13
 14389 1733 20       		.uleb128 0x20
 14390 1734 40050000 		.4byte	.LASF451
 14391 1738 01       		.byte	0x1
 14392 1739 5F       		.byte	0x5f
 14393 173a 50170000 		.4byte	0x1750
 14394 173e 02       		.uleb128 0x2
 14395 173f 91       		.byte	0x91
 14396 1740 6C       		.sleb128 -20
 14397 1741 21       		.uleb128 0x21
 14398 1742 6C656E00 		.ascii	"len\000"
 14399 1746 01       		.byte	0x1
 14400 1747 5F       		.byte	0x5f
 14401 1748 350A0000 		.4byte	0xa35
 14402 174c 02       		.uleb128 0x2
ARM GAS  /tmp/cc1ELVNa.s 			page 257


 14403 174d 91       		.byte	0x91
 14404 174e 70       		.sleb128 -16
 14405 174f 00       		.byte	0
 14406 1750 09       		.uleb128 0x9
 14407 1751 04       		.byte	0x4
 14408 1752 2A0A0000 		.4byte	0xa2a
 14409 1756 1E       		.uleb128 0x1e
 14410 1757 0B210000 		.4byte	.LASF452
 14411 175b 01       		.byte	0x1
 14412 175c 74       		.byte	0x74
 14413 175d AA0A0000 		.4byte	0xaaa
 14414 1761 90000000 		.4byte	.LFB269
 14415 1765 44000000 		.4byte	.LFE269-.LFB269
 14416 1769 01       		.uleb128 0x1
 14417 176a 9C       		.byte	0x9c
 14418 176b A8170000 		.4byte	0x17a8
 14419 176f 20       		.uleb128 0x20
 14420 1770 CC000000 		.4byte	.LASF450
 14421 1774 01       		.byte	0x1
 14422 1775 74       		.byte	0x74
 14423 1776 3E030000 		.4byte	0x33e
 14424 177a 02       		.uleb128 0x2
 14425 177b 91       		.byte	0x91
 14426 177c 74       		.sleb128 -12
 14427 177d 21       		.uleb128 0x21
 14428 177e 52656700 		.ascii	"Reg\000"
 14429 1782 01       		.byte	0x1
 14430 1783 74       		.byte	0x74
 14431 1784 2A0A0000 		.4byte	0xa2a
 14432 1788 02       		.uleb128 0x2
 14433 1789 91       		.byte	0x91
 14434 178a 73       		.sleb128 -13
 14435 178b 20       		.uleb128 0x20
 14436 178c 40050000 		.4byte	.LASF451
 14437 1790 01       		.byte	0x1
 14438 1791 74       		.byte	0x74
 14439 1792 50170000 		.4byte	0x1750
 14440 1796 02       		.uleb128 0x2
 14441 1797 91       		.byte	0x91
 14442 1798 6C       		.sleb128 -20
 14443 1799 21       		.uleb128 0x21
 14444 179a 6C656E00 		.ascii	"len\000"
 14445 179e 01       		.byte	0x1
 14446 179f 74       		.byte	0x74
 14447 17a0 350A0000 		.4byte	0xa35
 14448 17a4 02       		.uleb128 0x2
 14449 17a5 91       		.byte	0x91
 14450 17a6 70       		.sleb128 -16
 14451 17a7 00       		.byte	0
 14452 17a8 1E       		.uleb128 0x1e
 14453 17a9 A0160000 		.4byte	.LASF453
 14454 17ad 01       		.byte	0x1
 14455 17ae 89       		.byte	0x89
 14456 17af AA0A0000 		.4byte	0xaaa
 14457 17b3 E0000000 		.4byte	.LFB270
 14458 17b7 28000000 		.4byte	.LFE270-.LFB270
 14459 17bb 01       		.uleb128 0x1
ARM GAS  /tmp/cc1ELVNa.s 			page 258


 14460 17bc 9C       		.byte	0x9c
 14461 17bd DE170000 		.4byte	0x17de
 14462 17c1 20       		.uleb128 0x20
 14463 17c2 CC000000 		.4byte	.LASF450
 14464 17c6 01       		.byte	0x1
 14465 17c7 89       		.byte	0x89
 14466 17c8 3E030000 		.4byte	0x33e
 14467 17cc 02       		.uleb128 0x2
 14468 17cd 91       		.byte	0x91
 14469 17ce 74       		.sleb128 -12
 14470 17cf 20       		.uleb128 0x20
 14471 17d0 13130000 		.4byte	.LASF446
 14472 17d4 01       		.byte	0x1
 14473 17d5 89       		.byte	0x89
 14474 17d6 50170000 		.4byte	0x1750
 14475 17da 02       		.uleb128 0x2
 14476 17db 91       		.byte	0x91
 14477 17dc 70       		.sleb128 -16
 14478 17dd 00       		.byte	0
 14479 17de 1E       		.uleb128 0x1e
 14480 17df BB0C0000 		.4byte	.LASF454
 14481 17e3 01       		.byte	0x1
 14482 17e4 9B       		.byte	0x9b
 14483 17e5 AA0A0000 		.4byte	0xaaa
 14484 17e9 10010000 		.4byte	.LFB271
 14485 17ed 68000000 		.4byte	.LFE271-.LFB271
 14486 17f1 01       		.uleb128 0x1
 14487 17f2 9C       		.byte	0x9c
 14488 17f3 22180000 		.4byte	0x1822
 14489 17f7 20       		.uleb128 0x20
 14490 17f8 CC000000 		.4byte	.LASF450
 14491 17fc 01       		.byte	0x1
 14492 17fd 9B       		.byte	0x9b
 14493 17fe 3E030000 		.4byte	0x33e
 14494 1802 02       		.uleb128 0x2
 14495 1803 91       		.byte	0x91
 14496 1804 6C       		.sleb128 -20
 14497 1805 20       		.uleb128 0x20
 14498 1806 2B290000 		.4byte	.LASF455
 14499 180a 01       		.byte	0x1
 14500 180b 9B       		.byte	0x9b
 14501 180c CB0A0000 		.4byte	0xacb
 14502 1810 02       		.uleb128 0x2
 14503 1811 91       		.byte	0x91
 14504 1812 6B       		.sleb128 -21
 14505 1813 1F       		.uleb128 0x1f
 14506 1814 13130000 		.4byte	.LASF446
 14507 1818 01       		.byte	0x1
 14508 1819 9D       		.byte	0x9d
 14509 181a 2A0A0000 		.4byte	0xa2a
 14510 181e 02       		.uleb128 0x2
 14511 181f 91       		.byte	0x91
 14512 1820 77       		.sleb128 -9
 14513 1821 00       		.byte	0
 14514 1822 1E       		.uleb128 0x1e
 14515 1823 C22F0000 		.4byte	.LASF456
 14516 1827 01       		.byte	0x1
ARM GAS  /tmp/cc1ELVNa.s 			page 259


 14517 1828 B2       		.byte	0xb2
 14518 1829 AA0A0000 		.4byte	0xaaa
 14519 182d 80010000 		.4byte	.LFB272
 14520 1831 36000000 		.4byte	.LFE272-.LFB272
 14521 1835 01       		.uleb128 0x1
 14522 1836 9C       		.byte	0x9c
 14523 1837 58180000 		.4byte	0x1858
 14524 183b 20       		.uleb128 0x20
 14525 183c CC000000 		.4byte	.LASF450
 14526 1840 01       		.byte	0x1
 14527 1841 B2       		.byte	0xb2
 14528 1842 3E030000 		.4byte	0x33e
 14529 1846 02       		.uleb128 0x2
 14530 1847 91       		.byte	0x91
 14531 1848 74       		.sleb128 -12
 14532 1849 20       		.uleb128 0x20
 14533 184a 13130000 		.4byte	.LASF446
 14534 184e 01       		.byte	0x1
 14535 184f B2       		.byte	0xb2
 14536 1850 58180000 		.4byte	0x1858
 14537 1854 02       		.uleb128 0x2
 14538 1855 91       		.byte	0x91
 14539 1856 70       		.sleb128 -16
 14540 1857 00       		.byte	0
 14541 1858 09       		.uleb128 0x9
 14542 1859 04       		.byte	0x4
 14543 185a CB0A0000 		.4byte	0xacb
 14544 185e 1E       		.uleb128 0x1e
 14545 185f ED1B0000 		.4byte	.LASF457
 14546 1863 01       		.byte	0x1
 14547 1864 C3       		.byte	0xc3
 14548 1865 AA0A0000 		.4byte	0xaaa
 14549 1869 C0010000 		.4byte	.LFB273
 14550 186d 68000000 		.4byte	.LFE273-.LFB273
 14551 1871 01       		.uleb128 0x1
 14552 1872 9C       		.byte	0x9c
 14553 1873 A2180000 		.4byte	0x18a2
 14554 1877 20       		.uleb128 0x20
 14555 1878 CC000000 		.4byte	.LASF450
 14556 187c 01       		.byte	0x1
 14557 187d C3       		.byte	0xc3
 14558 187e 3E030000 		.4byte	0x33e
 14559 1882 02       		.uleb128 0x2
 14560 1883 91       		.byte	0x91
 14561 1884 6C       		.sleb128 -20
 14562 1885 20       		.uleb128 0x20
 14563 1886 2B290000 		.4byte	.LASF455
 14564 188a 01       		.byte	0x1
 14565 188b C3       		.byte	0xc3
 14566 188c F70A0000 		.4byte	0xaf7
 14567 1890 02       		.uleb128 0x2
 14568 1891 91       		.byte	0x91
 14569 1892 6B       		.sleb128 -21
 14570 1893 1F       		.uleb128 0x1f
 14571 1894 13130000 		.4byte	.LASF446
 14572 1898 01       		.byte	0x1
 14573 1899 C5       		.byte	0xc5
ARM GAS  /tmp/cc1ELVNa.s 			page 260


 14574 189a 2A0A0000 		.4byte	0xa2a
 14575 189e 02       		.uleb128 0x2
 14576 189f 91       		.byte	0x91
 14577 18a0 77       		.sleb128 -9
 14578 18a1 00       		.byte	0
 14579 18a2 1E       		.uleb128 0x1e
 14580 18a3 4A300000 		.4byte	.LASF458
 14581 18a7 01       		.byte	0x1
 14582 18a8 DA       		.byte	0xda
 14583 18a9 AA0A0000 		.4byte	0xaaa
 14584 18ad 30020000 		.4byte	.LFB274
 14585 18b1 36000000 		.4byte	.LFE274-.LFB274
 14586 18b5 01       		.uleb128 0x1
 14587 18b6 9C       		.byte	0x9c
 14588 18b7 D8180000 		.4byte	0x18d8
 14589 18bb 20       		.uleb128 0x20
 14590 18bc CC000000 		.4byte	.LASF450
 14591 18c0 01       		.byte	0x1
 14592 18c1 DA       		.byte	0xda
 14593 18c2 3E030000 		.4byte	0x33e
 14594 18c6 02       		.uleb128 0x2
 14595 18c7 91       		.byte	0x91
 14596 18c8 74       		.sleb128 -12
 14597 18c9 20       		.uleb128 0x20
 14598 18ca 13130000 		.4byte	.LASF446
 14599 18ce 01       		.byte	0x1
 14600 18cf DA       		.byte	0xda
 14601 18d0 D8180000 		.4byte	0x18d8
 14602 18d4 02       		.uleb128 0x2
 14603 18d5 91       		.byte	0x91
 14604 18d6 70       		.sleb128 -16
 14605 18d7 00       		.byte	0
 14606 18d8 09       		.uleb128 0x9
 14607 18d9 04       		.byte	0x4
 14608 18da F70A0000 		.4byte	0xaf7
 14609 18de 1E       		.uleb128 0x1e
 14610 18df C8060000 		.4byte	.LASF459
 14611 18e3 01       		.byte	0x1
 14612 18e4 EB       		.byte	0xeb
 14613 18e5 AA0A0000 		.4byte	0xaaa
 14614 18e9 70020000 		.4byte	.LFB275
 14615 18ed 28000000 		.4byte	.LFE275-.LFB275
 14616 18f1 01       		.uleb128 0x1
 14617 18f2 9C       		.byte	0x9c
 14618 18f3 14190000 		.4byte	0x1914
 14619 18f7 20       		.uleb128 0x20
 14620 18f8 CC000000 		.4byte	.LASF450
 14621 18fc 01       		.byte	0x1
 14622 18fd EB       		.byte	0xeb
 14623 18fe 3E030000 		.4byte	0x33e
 14624 1902 02       		.uleb128 0x2
 14625 1903 91       		.byte	0x91
 14626 1904 74       		.sleb128 -12
 14627 1905 20       		.uleb128 0x20
 14628 1906 501F0000 		.4byte	.LASF460
 14629 190a 01       		.byte	0x1
 14630 190b EB       		.byte	0xeb
ARM GAS  /tmp/cc1ELVNa.s 			page 261


 14631 190c 50170000 		.4byte	0x1750
 14632 1910 02       		.uleb128 0x2
 14633 1911 91       		.byte	0x91
 14634 1912 70       		.sleb128 -16
 14635 1913 00       		.byte	0
 14636 1914 22       		.uleb128 0x22
 14637 1915 D72A0000 		.4byte	.LASF461
 14638 1919 01       		.byte	0x1
 14639 191a 1801     		.2byte	0x118
 14640 191c AA0A0000 		.4byte	0xaaa
 14641 1920 A0020000 		.4byte	.LFB276
 14642 1924 0C020000 		.4byte	.LFE276-.LFB276
 14643 1928 01       		.uleb128 0x1
 14644 1929 9C       		.byte	0x9c
 14645 192a B3190000 		.4byte	0x19b3
 14646 192e 23       		.uleb128 0x23
 14647 192f CC000000 		.4byte	.LASF450
 14648 1933 01       		.byte	0x1
 14649 1934 1801     		.2byte	0x118
 14650 1936 3E030000 		.4byte	0x33e
 14651 193a 02       		.uleb128 0x2
 14652 193b 91       		.byte	0x91
 14653 193c 5C       		.sleb128 -36
 14654 193d 23       		.uleb128 0x23
 14655 193e 501F0000 		.4byte	.LASF460
 14656 1942 01       		.byte	0x1
 14657 1943 1801     		.2byte	0x118
 14658 1945 B3190000 		.4byte	0x19b3
 14659 1949 02       		.uleb128 0x2
 14660 194a 91       		.byte	0x91
 14661 194b 58       		.sleb128 -40
 14662 194c 24       		.uleb128 0x24
 14663 194d E0370000 		.4byte	.LASF462
 14664 1951 01       		.byte	0x1
 14665 1952 1A01     		.2byte	0x11a
 14666 1954 8A0A0000 		.4byte	0xa8a
 14667 1958 02       		.uleb128 0x2
 14668 1959 91       		.byte	0x91
 14669 195a 64       		.sleb128 -28
 14670 195b 24       		.uleb128 0x24
 14671 195c 6E100000 		.4byte	.LASF463
 14672 1960 01       		.byte	0x1
 14673 1961 1B01     		.2byte	0x11b
 14674 1963 2A0A0000 		.4byte	0xa2a
 14675 1967 02       		.uleb128 0x2
 14676 1968 91       		.byte	0x91
 14677 1969 6F       		.sleb128 -17
 14678 196a 24       		.uleb128 0x24
 14679 196b 820B0000 		.4byte	.LASF464
 14680 196f 01       		.byte	0x1
 14681 1970 1B01     		.2byte	0x11b
 14682 1972 2A0A0000 		.4byte	0xa2a
 14683 1976 02       		.uleb128 0x2
 14684 1977 91       		.byte	0x91
 14685 1978 6E       		.sleb128 -18
 14686 1979 24       		.uleb128 0x24
 14687 197a BA140000 		.4byte	.LASF121
ARM GAS  /tmp/cc1ELVNa.s 			page 262


 14688 197e 01       		.byte	0x1
 14689 197f 1B01     		.2byte	0x11b
 14690 1981 2A0A0000 		.4byte	0xa2a
 14691 1985 02       		.uleb128 0x2
 14692 1986 91       		.byte	0x91
 14693 1987 6D       		.sleb128 -19
 14694 1988 25       		.uleb128 0x25
 14695 1989 6C7000   		.ascii	"lp\000"
 14696 198c 01       		.byte	0x1
 14697 198d 1C01     		.2byte	0x11c
 14698 198f 2B0D0000 		.4byte	0xd2b
 14699 1993 02       		.uleb128 0x2
 14700 1994 91       		.byte	0x91
 14701 1995 63       		.sleb128 -29
 14702 1996 25       		.uleb128 0x25
 14703 1997 687200   		.ascii	"hr\000"
 14704 199a 01       		.byte	0x1
 14705 199b 1D01     		.2byte	0x11d
 14706 199d 740F0000 		.4byte	0xf74
 14707 19a1 02       		.uleb128 0x2
 14708 19a2 91       		.byte	0x91
 14709 19a3 62       		.sleb128 -30
 14710 19a4 25       		.uleb128 0x25
 14711 19a5 667300   		.ascii	"fs\000"
 14712 19a8 01       		.byte	0x1
 14713 19a9 1E01     		.2byte	0x11e
 14714 19ab F70A0000 		.4byte	0xaf7
 14715 19af 02       		.uleb128 0x2
 14716 19b0 91       		.byte	0x91
 14717 19b1 61       		.sleb128 -31
 14718 19b2 00       		.byte	0
 14719 19b3 09       		.uleb128 0x9
 14720 19b4 04       		.byte	0x4
 14721 19b5 25000000 		.4byte	0x25
 14722 19b9 22       		.uleb128 0x22
 14723 19ba 02040000 		.4byte	.LASF465
 14724 19be 01       		.byte	0x1
 14725 19bf 6001     		.2byte	0x160
 14726 19c1 AA0A0000 		.4byte	0xaaa
 14727 19c5 B0040000 		.4byte	.LFB277
 14728 19c9 68000000 		.4byte	.LFE277-.LFB277
 14729 19cd 01       		.uleb128 0x1
 14730 19ce 9C       		.byte	0x9c
 14731 19cf 011A0000 		.4byte	0x1a01
 14732 19d3 23       		.uleb128 0x23
 14733 19d4 CC000000 		.4byte	.LASF450
 14734 19d8 01       		.byte	0x1
 14735 19d9 6001     		.2byte	0x160
 14736 19db 3E030000 		.4byte	0x33e
 14737 19df 02       		.uleb128 0x2
 14738 19e0 91       		.byte	0x91
 14739 19e1 6C       		.sleb128 -20
 14740 19e2 23       		.uleb128 0x23
 14741 19e3 2B290000 		.4byte	.LASF455
 14742 19e7 01       		.byte	0x1
 14743 19e8 6001     		.2byte	0x160
 14744 19ea 4D0B0000 		.4byte	0xb4d
ARM GAS  /tmp/cc1ELVNa.s 			page 263


 14745 19ee 02       		.uleb128 0x2
 14746 19ef 91       		.byte	0x91
 14747 19f0 6B       		.sleb128 -21
 14748 19f1 24       		.uleb128 0x24
 14749 19f2 13130000 		.4byte	.LASF446
 14750 19f6 01       		.byte	0x1
 14751 19f7 6201     		.2byte	0x162
 14752 19f9 2A0A0000 		.4byte	0xa2a
 14753 19fd 02       		.uleb128 0x2
 14754 19fe 91       		.byte	0x91
 14755 19ff 77       		.sleb128 -9
 14756 1a00 00       		.byte	0
 14757 1a01 22       		.uleb128 0x22
 14758 1a02 E21D0000 		.4byte	.LASF466
 14759 1a06 01       		.byte	0x1
 14760 1a07 7701     		.2byte	0x177
 14761 1a09 AA0A0000 		.4byte	0xaaa
 14762 1a0d 20050000 		.4byte	.LFB278
 14763 1a11 36000000 		.4byte	.LFE278-.LFB278
 14764 1a15 01       		.uleb128 0x1
 14765 1a16 9C       		.byte	0x9c
 14766 1a17 3A1A0000 		.4byte	0x1a3a
 14767 1a1b 23       		.uleb128 0x23
 14768 1a1c CC000000 		.4byte	.LASF450
 14769 1a20 01       		.byte	0x1
 14770 1a21 7701     		.2byte	0x177
 14771 1a23 3E030000 		.4byte	0x33e
 14772 1a27 02       		.uleb128 0x2
 14773 1a28 91       		.byte	0x91
 14774 1a29 74       		.sleb128 -12
 14775 1a2a 23       		.uleb128 0x23
 14776 1a2b 13130000 		.4byte	.LASF446
 14777 1a2f 01       		.byte	0x1
 14778 1a30 7701     		.2byte	0x177
 14779 1a32 3A1A0000 		.4byte	0x1a3a
 14780 1a36 02       		.uleb128 0x2
 14781 1a37 91       		.byte	0x91
 14782 1a38 70       		.sleb128 -16
 14783 1a39 00       		.byte	0
 14784 1a3a 09       		.uleb128 0x9
 14785 1a3b 04       		.byte	0x4
 14786 1a3c 4D0B0000 		.4byte	0xb4d
 14787 1a40 22       		.uleb128 0x22
 14788 1a41 D71F0000 		.4byte	.LASF467
 14789 1a45 01       		.byte	0x1
 14790 1a46 8A01     		.2byte	0x18a
 14791 1a48 AA0A0000 		.4byte	0xaaa
 14792 1a4c 60050000 		.4byte	.LFB279
 14793 1a50 36000000 		.4byte	.LFE279-.LFB279
 14794 1a54 01       		.uleb128 0x1
 14795 1a55 9C       		.byte	0x9c
 14796 1a56 791A0000 		.4byte	0x1a79
 14797 1a5a 23       		.uleb128 0x23
 14798 1a5b CC000000 		.4byte	.LASF450
 14799 1a5f 01       		.byte	0x1
 14800 1a60 8A01     		.2byte	0x18a
 14801 1a62 3E030000 		.4byte	0x33e
ARM GAS  /tmp/cc1ELVNa.s 			page 264


 14802 1a66 02       		.uleb128 0x2
 14803 1a67 91       		.byte	0x91
 14804 1a68 74       		.sleb128 -12
 14805 1a69 23       		.uleb128 0x23
 14806 1a6a 13130000 		.4byte	.LASF446
 14807 1a6e 01       		.byte	0x1
 14808 1a6f 8A01     		.2byte	0x18a
 14809 1a71 791A0000 		.4byte	0x1a79
 14810 1a75 02       		.uleb128 0x2
 14811 1a76 91       		.byte	0x91
 14812 1a77 70       		.sleb128 -16
 14813 1a78 00       		.byte	0
 14814 1a79 09       		.uleb128 0x9
 14815 1a7a 04       		.byte	0x4
 14816 1a7b 6D0B0000 		.4byte	0xb6d
 14817 1a7f 22       		.uleb128 0x22
 14818 1a80 39130000 		.4byte	.LASF468
 14819 1a84 01       		.byte	0x1
 14820 1a85 9B01     		.2byte	0x19b
 14821 1a87 AA0A0000 		.4byte	0xaaa
 14822 1a8b A0050000 		.4byte	.LFB280
 14823 1a8f 36000000 		.4byte	.LFE280-.LFB280
 14824 1a93 01       		.uleb128 0x1
 14825 1a94 9C       		.byte	0x9c
 14826 1a95 B81A0000 		.4byte	0x1ab8
 14827 1a99 23       		.uleb128 0x23
 14828 1a9a CC000000 		.4byte	.LASF450
 14829 1a9e 01       		.byte	0x1
 14830 1a9f 9B01     		.2byte	0x19b
 14831 1aa1 3E030000 		.4byte	0x33e
 14832 1aa5 02       		.uleb128 0x2
 14833 1aa6 91       		.byte	0x91
 14834 1aa7 74       		.sleb128 -12
 14835 1aa8 23       		.uleb128 0x23
 14836 1aa9 13130000 		.4byte	.LASF446
 14837 1aad 01       		.byte	0x1
 14838 1aae 9B01     		.2byte	0x19b
 14839 1ab0 B81A0000 		.4byte	0x1ab8
 14840 1ab4 02       		.uleb128 0x2
 14841 1ab5 91       		.byte	0x91
 14842 1ab6 70       		.sleb128 -16
 14843 1ab7 00       		.byte	0
 14844 1ab8 09       		.uleb128 0x9
 14845 1ab9 04       		.byte	0x4
 14846 1aba 8F0B0000 		.4byte	0xb8f
 14847 1abe 22       		.uleb128 0x22
 14848 1abf 61040000 		.4byte	.LASF469
 14849 1ac3 01       		.byte	0x1
 14850 1ac4 AC01     		.2byte	0x1ac
 14851 1ac6 AA0A0000 		.4byte	0xaaa
 14852 1aca E0050000 		.4byte	.LFB281
 14853 1ace 36000000 		.4byte	.LFE281-.LFB281
 14854 1ad2 01       		.uleb128 0x1
 14855 1ad3 9C       		.byte	0x9c
 14856 1ad4 F71A0000 		.4byte	0x1af7
 14857 1ad8 23       		.uleb128 0x23
 14858 1ad9 CC000000 		.4byte	.LASF450
ARM GAS  /tmp/cc1ELVNa.s 			page 265


 14859 1add 01       		.byte	0x1
 14860 1ade AC01     		.2byte	0x1ac
 14861 1ae0 3E030000 		.4byte	0x33e
 14862 1ae4 02       		.uleb128 0x2
 14863 1ae5 91       		.byte	0x91
 14864 1ae6 74       		.sleb128 -12
 14865 1ae7 23       		.uleb128 0x23
 14866 1ae8 13130000 		.4byte	.LASF446
 14867 1aec 01       		.byte	0x1
 14868 1aed AC01     		.2byte	0x1ac
 14869 1aef F71A0000 		.4byte	0x1af7
 14870 1af3 02       		.uleb128 0x2
 14871 1af4 91       		.byte	0x91
 14872 1af5 70       		.sleb128 -16
 14873 1af6 00       		.byte	0
 14874 1af7 09       		.uleb128 0x9
 14875 1af8 04       		.byte	0x4
 14876 1af9 B10B0000 		.4byte	0xbb1
 14877 1afd 22       		.uleb128 0x22
 14878 1afe 4C280000 		.4byte	.LASF470
 14879 1b02 01       		.byte	0x1
 14880 1b03 BD01     		.2byte	0x1bd
 14881 1b05 AA0A0000 		.4byte	0xaaa
 14882 1b09 20060000 		.4byte	.LFB282
 14883 1b0d 36000000 		.4byte	.LFE282-.LFB282
 14884 1b11 01       		.uleb128 0x1
 14885 1b12 9C       		.byte	0x9c
 14886 1b13 361B0000 		.4byte	0x1b36
 14887 1b17 23       		.uleb128 0x23
 14888 1b18 CC000000 		.4byte	.LASF450
 14889 1b1c 01       		.byte	0x1
 14890 1b1d BD01     		.2byte	0x1bd
 14891 1b1f 3E030000 		.4byte	0x33e
 14892 1b23 02       		.uleb128 0x2
 14893 1b24 91       		.byte	0x91
 14894 1b25 74       		.sleb128 -12
 14895 1b26 23       		.uleb128 0x23
 14896 1b27 13130000 		.4byte	.LASF446
 14897 1b2b 01       		.byte	0x1
 14898 1b2c BD01     		.2byte	0x1bd
 14899 1b2e 361B0000 		.4byte	0x1b36
 14900 1b32 02       		.uleb128 0x2
 14901 1b33 91       		.byte	0x91
 14902 1b34 70       		.sleb128 -16
 14903 1b35 00       		.byte	0
 14904 1b36 09       		.uleb128 0x9
 14905 1b37 04       		.byte	0x4
 14906 1b38 D30B0000 		.4byte	0xbd3
 14907 1b3c 22       		.uleb128 0x22
 14908 1b3d E5030000 		.4byte	.LASF471
 14909 1b41 01       		.byte	0x1
 14910 1b42 CE01     		.2byte	0x1ce
 14911 1b44 AA0A0000 		.4byte	0xaaa
 14912 1b48 60060000 		.4byte	.LFB283
 14913 1b4c 36000000 		.4byte	.LFE283-.LFB283
 14914 1b50 01       		.uleb128 0x1
 14915 1b51 9C       		.byte	0x9c
ARM GAS  /tmp/cc1ELVNa.s 			page 266


 14916 1b52 751B0000 		.4byte	0x1b75
 14917 1b56 23       		.uleb128 0x23
 14918 1b57 CC000000 		.4byte	.LASF450
 14919 1b5b 01       		.byte	0x1
 14920 1b5c CE01     		.2byte	0x1ce
 14921 1b5e 3E030000 		.4byte	0x33e
 14922 1b62 02       		.uleb128 0x2
 14923 1b63 91       		.byte	0x91
 14924 1b64 74       		.sleb128 -12
 14925 1b65 23       		.uleb128 0x23
 14926 1b66 13130000 		.4byte	.LASF446
 14927 1b6a 01       		.byte	0x1
 14928 1b6b CE01     		.2byte	0x1ce
 14929 1b6d 751B0000 		.4byte	0x1b75
 14930 1b71 02       		.uleb128 0x2
 14931 1b72 91       		.byte	0x91
 14932 1b73 70       		.sleb128 -16
 14933 1b74 00       		.byte	0
 14934 1b75 09       		.uleb128 0x9
 14935 1b76 04       		.byte	0x4
 14936 1b77 F50B0000 		.4byte	0xbf5
 14937 1b7b 22       		.uleb128 0x22
 14938 1b7c AE040000 		.4byte	.LASF472
 14939 1b80 01       		.byte	0x1
 14940 1b81 DF01     		.2byte	0x1df
 14941 1b83 AA0A0000 		.4byte	0xaaa
 14942 1b87 A0060000 		.4byte	.LFB284
 14943 1b8b 36000000 		.4byte	.LFE284-.LFB284
 14944 1b8f 01       		.uleb128 0x1
 14945 1b90 9C       		.byte	0x9c
 14946 1b91 B41B0000 		.4byte	0x1bb4
 14947 1b95 23       		.uleb128 0x23
 14948 1b96 CC000000 		.4byte	.LASF450
 14949 1b9a 01       		.byte	0x1
 14950 1b9b DF01     		.2byte	0x1df
 14951 1b9d 3E030000 		.4byte	0x33e
 14952 1ba1 02       		.uleb128 0x2
 14953 1ba2 91       		.byte	0x91
 14954 1ba3 74       		.sleb128 -12
 14955 1ba4 23       		.uleb128 0x23
 14956 1ba5 13130000 		.4byte	.LASF446
 14957 1ba9 01       		.byte	0x1
 14958 1baa DF01     		.2byte	0x1df
 14959 1bac B41B0000 		.4byte	0x1bb4
 14960 1bb0 02       		.uleb128 0x2
 14961 1bb1 91       		.byte	0x91
 14962 1bb2 70       		.sleb128 -16
 14963 1bb3 00       		.byte	0
 14964 1bb4 09       		.uleb128 0x9
 14965 1bb5 04       		.byte	0x4
 14966 1bb6 170C0000 		.4byte	0xc17
 14967 1bba 22       		.uleb128 0x22
 14968 1bbb F5050000 		.4byte	.LASF473
 14969 1bbf 01       		.byte	0x1
 14970 1bc0 F001     		.2byte	0x1f0
 14971 1bc2 AA0A0000 		.4byte	0xaaa
 14972 1bc6 E0060000 		.4byte	.LFB285
ARM GAS  /tmp/cc1ELVNa.s 			page 267


 14973 1bca 36000000 		.4byte	.LFE285-.LFB285
 14974 1bce 01       		.uleb128 0x1
 14975 1bcf 9C       		.byte	0x9c
 14976 1bd0 F31B0000 		.4byte	0x1bf3
 14977 1bd4 23       		.uleb128 0x23
 14978 1bd5 CC000000 		.4byte	.LASF450
 14979 1bd9 01       		.byte	0x1
 14980 1bda F001     		.2byte	0x1f0
 14981 1bdc 3E030000 		.4byte	0x33e
 14982 1be0 02       		.uleb128 0x2
 14983 1be1 91       		.byte	0x91
 14984 1be2 74       		.sleb128 -12
 14985 1be3 23       		.uleb128 0x23
 14986 1be4 13130000 		.4byte	.LASF446
 14987 1be8 01       		.byte	0x1
 14988 1be9 F001     		.2byte	0x1f0
 14989 1beb F31B0000 		.4byte	0x1bf3
 14990 1bef 02       		.uleb128 0x2
 14991 1bf0 91       		.byte	0x91
 14992 1bf1 70       		.sleb128 -16
 14993 1bf2 00       		.byte	0
 14994 1bf3 09       		.uleb128 0x9
 14995 1bf4 04       		.byte	0x4
 14996 1bf5 3A0C0000 		.4byte	0xc3a
 14997 1bf9 22       		.uleb128 0x22
 14998 1bfa 22190000 		.4byte	.LASF474
 14999 1bfe 01       		.byte	0x1
 15000 1bff 0102     		.2byte	0x201
 15001 1c01 AA0A0000 		.4byte	0xaaa
 15002 1c05 20070000 		.4byte	.LFB286
 15003 1c09 36000000 		.4byte	.LFE286-.LFB286
 15004 1c0d 01       		.uleb128 0x1
 15005 1c0e 9C       		.byte	0x9c
 15006 1c0f 321C0000 		.4byte	0x1c32
 15007 1c13 23       		.uleb128 0x23
 15008 1c14 CC000000 		.4byte	.LASF450
 15009 1c18 01       		.byte	0x1
 15010 1c19 0102     		.2byte	0x201
 15011 1c1b 3E030000 		.4byte	0x33e
 15012 1c1f 02       		.uleb128 0x2
 15013 1c20 91       		.byte	0x91
 15014 1c21 74       		.sleb128 -12
 15015 1c22 23       		.uleb128 0x23
 15016 1c23 13130000 		.4byte	.LASF446
 15017 1c27 01       		.byte	0x1
 15018 1c28 0102     		.2byte	0x201
 15019 1c2a 321C0000 		.4byte	0x1c32
 15020 1c2e 02       		.uleb128 0x2
 15021 1c2f 91       		.byte	0x91
 15022 1c30 70       		.sleb128 -16
 15023 1c31 00       		.byte	0
 15024 1c32 09       		.uleb128 0x9
 15025 1c33 04       		.byte	0x4
 15026 1c34 5D0C0000 		.4byte	0xc5d
 15027 1c38 22       		.uleb128 0x22
 15028 1c39 1A1C0000 		.4byte	.LASF475
 15029 1c3d 01       		.byte	0x1
ARM GAS  /tmp/cc1ELVNa.s 			page 268


 15030 1c3e 1202     		.2byte	0x212
 15031 1c40 AA0A0000 		.4byte	0xaaa
 15032 1c44 60070000 		.4byte	.LFB287
 15033 1c48 38000000 		.4byte	.LFE287-.LFB287
 15034 1c4c 01       		.uleb128 0x1
 15035 1c4d 9C       		.byte	0x9c
 15036 1c4e 711C0000 		.4byte	0x1c71
 15037 1c52 23       		.uleb128 0x23
 15038 1c53 CC000000 		.4byte	.LASF450
 15039 1c57 01       		.byte	0x1
 15040 1c58 1202     		.2byte	0x212
 15041 1c5a 3E030000 		.4byte	0x33e
 15042 1c5e 02       		.uleb128 0x2
 15043 1c5f 91       		.byte	0x91
 15044 1c60 74       		.sleb128 -12
 15045 1c61 23       		.uleb128 0x23
 15046 1c62 13130000 		.4byte	.LASF446
 15047 1c66 01       		.byte	0x1
 15048 1c67 1202     		.2byte	0x212
 15049 1c69 50170000 		.4byte	0x1750
 15050 1c6d 02       		.uleb128 0x2
 15051 1c6e 91       		.byte	0x91
 15052 1c6f 70       		.sleb128 -16
 15053 1c70 00       		.byte	0
 15054 1c71 22       		.uleb128 0x22
 15055 1c72 08010000 		.4byte	.LASF476
 15056 1c76 01       		.byte	0x1
 15057 1c77 2402     		.2byte	0x224
 15058 1c79 AA0A0000 		.4byte	0xaaa
 15059 1c7d A0070000 		.4byte	.LFB288
 15060 1c81 68000000 		.4byte	.LFE288-.LFB288
 15061 1c85 01       		.uleb128 0x1
 15062 1c86 9C       		.byte	0x9c
 15063 1c87 B91C0000 		.4byte	0x1cb9
 15064 1c8b 23       		.uleb128 0x23
 15065 1c8c CC000000 		.4byte	.LASF450
 15066 1c90 01       		.byte	0x1
 15067 1c91 2402     		.2byte	0x224
 15068 1c93 3E030000 		.4byte	0x33e
 15069 1c97 02       		.uleb128 0x2
 15070 1c98 91       		.byte	0x91
 15071 1c99 6C       		.sleb128 -20
 15072 1c9a 23       		.uleb128 0x23
 15073 1c9b 2B290000 		.4byte	.LASF455
 15074 1c9f 01       		.byte	0x1
 15075 1ca0 2402     		.2byte	0x224
 15076 1ca2 800C0000 		.4byte	0xc80
 15077 1ca6 02       		.uleb128 0x2
 15078 1ca7 91       		.byte	0x91
 15079 1ca8 6B       		.sleb128 -21
 15080 1ca9 24       		.uleb128 0x24
 15081 1caa 13130000 		.4byte	.LASF446
 15082 1cae 01       		.byte	0x1
 15083 1caf 2602     		.2byte	0x226
 15084 1cb1 2A0A0000 		.4byte	0xa2a
 15085 1cb5 02       		.uleb128 0x2
 15086 1cb6 91       		.byte	0x91
ARM GAS  /tmp/cc1ELVNa.s 			page 269


 15087 1cb7 77       		.sleb128 -9
 15088 1cb8 00       		.byte	0
 15089 1cb9 22       		.uleb128 0x22
 15090 1cba A6370000 		.4byte	.LASF477
 15091 1cbe 01       		.byte	0x1
 15092 1cbf 3B02     		.2byte	0x23b
 15093 1cc1 AA0A0000 		.4byte	0xaaa
 15094 1cc5 10080000 		.4byte	.LFB289
 15095 1cc9 36000000 		.4byte	.LFE289-.LFB289
 15096 1ccd 01       		.uleb128 0x1
 15097 1cce 9C       		.byte	0x9c
 15098 1ccf F21C0000 		.4byte	0x1cf2
 15099 1cd3 23       		.uleb128 0x23
 15100 1cd4 CC000000 		.4byte	.LASF450
 15101 1cd8 01       		.byte	0x1
 15102 1cd9 3B02     		.2byte	0x23b
 15103 1cdb 3E030000 		.4byte	0x33e
 15104 1cdf 02       		.uleb128 0x2
 15105 1ce0 91       		.byte	0x91
 15106 1ce1 74       		.sleb128 -12
 15107 1ce2 23       		.uleb128 0x23
 15108 1ce3 13130000 		.4byte	.LASF446
 15109 1ce7 01       		.byte	0x1
 15110 1ce8 3B02     		.2byte	0x23b
 15111 1cea F21C0000 		.4byte	0x1cf2
 15112 1cee 02       		.uleb128 0x2
 15113 1cef 91       		.byte	0x91
 15114 1cf0 70       		.sleb128 -16
 15115 1cf1 00       		.byte	0
 15116 1cf2 09       		.uleb128 0x9
 15117 1cf3 04       		.byte	0x4
 15118 1cf4 800C0000 		.4byte	0xc80
 15119 1cf8 22       		.uleb128 0x22
 15120 1cf9 6C1C0000 		.4byte	.LASF478
 15121 1cfd 01       		.byte	0x1
 15122 1cfe 4C02     		.2byte	0x24c
 15123 1d00 AA0A0000 		.4byte	0xaaa
 15124 1d04 50080000 		.4byte	.LFB290
 15125 1d08 68000000 		.4byte	.LFE290-.LFB290
 15126 1d0c 01       		.uleb128 0x1
 15127 1d0d 9C       		.byte	0x9c
 15128 1d0e 401D0000 		.4byte	0x1d40
 15129 1d12 23       		.uleb128 0x23
 15130 1d13 CC000000 		.4byte	.LASF450
 15131 1d17 01       		.byte	0x1
 15132 1d18 4C02     		.2byte	0x24c
 15133 1d1a 3E030000 		.4byte	0x33e
 15134 1d1e 02       		.uleb128 0x2
 15135 1d1f 91       		.byte	0x91
 15136 1d20 6C       		.sleb128 -20
 15137 1d21 23       		.uleb128 0x23
 15138 1d22 2B290000 		.4byte	.LASF455
 15139 1d26 01       		.byte	0x1
 15140 1d27 4C02     		.2byte	0x24c
 15141 1d29 A30C0000 		.4byte	0xca3
 15142 1d2d 02       		.uleb128 0x2
 15143 1d2e 91       		.byte	0x91
ARM GAS  /tmp/cc1ELVNa.s 			page 270


 15144 1d2f 6B       		.sleb128 -21
 15145 1d30 24       		.uleb128 0x24
 15146 1d31 13130000 		.4byte	.LASF446
 15147 1d35 01       		.byte	0x1
 15148 1d36 4E02     		.2byte	0x24e
 15149 1d38 2A0A0000 		.4byte	0xa2a
 15150 1d3c 02       		.uleb128 0x2
 15151 1d3d 91       		.byte	0x91
 15152 1d3e 77       		.sleb128 -9
 15153 1d3f 00       		.byte	0
 15154 1d40 22       		.uleb128 0x22
 15155 1d41 09360000 		.4byte	.LASF479
 15156 1d45 01       		.byte	0x1
 15157 1d46 6302     		.2byte	0x263
 15158 1d48 AA0A0000 		.4byte	0xaaa
 15159 1d4c C0080000 		.4byte	.LFB291
 15160 1d50 36000000 		.4byte	.LFE291-.LFB291
 15161 1d54 01       		.uleb128 0x1
 15162 1d55 9C       		.byte	0x9c
 15163 1d56 791D0000 		.4byte	0x1d79
 15164 1d5a 23       		.uleb128 0x23
 15165 1d5b CC000000 		.4byte	.LASF450
 15166 1d5f 01       		.byte	0x1
 15167 1d60 6302     		.2byte	0x263
 15168 1d62 3E030000 		.4byte	0x33e
 15169 1d66 02       		.uleb128 0x2
 15170 1d67 91       		.byte	0x91
 15171 1d68 74       		.sleb128 -12
 15172 1d69 23       		.uleb128 0x23
 15173 1d6a 13130000 		.4byte	.LASF446
 15174 1d6e 01       		.byte	0x1
 15175 1d6f 6302     		.2byte	0x263
 15176 1d71 791D0000 		.4byte	0x1d79
 15177 1d75 02       		.uleb128 0x2
 15178 1d76 91       		.byte	0x91
 15179 1d77 70       		.sleb128 -16
 15180 1d78 00       		.byte	0
 15181 1d79 09       		.uleb128 0x9
 15182 1d7a 04       		.byte	0x4
 15183 1d7b A30C0000 		.4byte	0xca3
 15184 1d7f 22       		.uleb128 0x22
 15185 1d80 DB360000 		.4byte	.LASF480
 15186 1d84 01       		.byte	0x1
 15187 1d85 7402     		.2byte	0x274
 15188 1d87 AA0A0000 		.4byte	0xaaa
 15189 1d8b 00090000 		.4byte	.LFB292
 15190 1d8f 68000000 		.4byte	.LFE292-.LFB292
 15191 1d93 01       		.uleb128 0x1
 15192 1d94 9C       		.byte	0x9c
 15193 1d95 C71D0000 		.4byte	0x1dc7
 15194 1d99 23       		.uleb128 0x23
 15195 1d9a CC000000 		.4byte	.LASF450
 15196 1d9e 01       		.byte	0x1
 15197 1d9f 7402     		.2byte	0x274
 15198 1da1 3E030000 		.4byte	0x33e
 15199 1da5 02       		.uleb128 0x2
 15200 1da6 91       		.byte	0x91
ARM GAS  /tmp/cc1ELVNa.s 			page 271


 15201 1da7 6C       		.sleb128 -20
 15202 1da8 23       		.uleb128 0x23
 15203 1da9 2B290000 		.4byte	.LASF455
 15204 1dad 01       		.byte	0x1
 15205 1dae 7402     		.2byte	0x274
 15206 1db0 C50C0000 		.4byte	0xcc5
 15207 1db4 02       		.uleb128 0x2
 15208 1db5 91       		.byte	0x91
 15209 1db6 6B       		.sleb128 -21
 15210 1db7 24       		.uleb128 0x24
 15211 1db8 13130000 		.4byte	.LASF446
 15212 1dbc 01       		.byte	0x1
 15213 1dbd 7602     		.2byte	0x276
 15214 1dbf 2A0A0000 		.4byte	0xa2a
 15215 1dc3 02       		.uleb128 0x2
 15216 1dc4 91       		.byte	0x91
 15217 1dc5 77       		.sleb128 -9
 15218 1dc6 00       		.byte	0
 15219 1dc7 22       		.uleb128 0x22
 15220 1dc8 71170000 		.4byte	.LASF481
 15221 1dcc 01       		.byte	0x1
 15222 1dcd 8B02     		.2byte	0x28b
 15223 1dcf AA0A0000 		.4byte	0xaaa
 15224 1dd3 70090000 		.4byte	.LFB293
 15225 1dd7 36000000 		.4byte	.LFE293-.LFB293
 15226 1ddb 01       		.uleb128 0x1
 15227 1ddc 9C       		.byte	0x9c
 15228 1ddd 001E0000 		.4byte	0x1e00
 15229 1de1 23       		.uleb128 0x23
 15230 1de2 CC000000 		.4byte	.LASF450
 15231 1de6 01       		.byte	0x1
 15232 1de7 8B02     		.2byte	0x28b
 15233 1de9 3E030000 		.4byte	0x33e
 15234 1ded 02       		.uleb128 0x2
 15235 1dee 91       		.byte	0x91
 15236 1def 74       		.sleb128 -12
 15237 1df0 23       		.uleb128 0x23
 15238 1df1 13130000 		.4byte	.LASF446
 15239 1df5 01       		.byte	0x1
 15240 1df6 8B02     		.2byte	0x28b
 15241 1df8 001E0000 		.4byte	0x1e00
 15242 1dfc 02       		.uleb128 0x2
 15243 1dfd 91       		.byte	0x91
 15244 1dfe 70       		.sleb128 -16
 15245 1dff 00       		.byte	0
 15246 1e00 09       		.uleb128 0x9
 15247 1e01 04       		.byte	0x4
 15248 1e02 C50C0000 		.4byte	0xcc5
 15249 1e06 22       		.uleb128 0x22
 15250 1e07 20030000 		.4byte	.LASF482
 15251 1e0b 01       		.byte	0x1
 15252 1e0c 9C02     		.2byte	0x29c
 15253 1e0e AA0A0000 		.4byte	0xaaa
 15254 1e12 B0090000 		.4byte	.LFB294
 15255 1e16 68000000 		.4byte	.LFE294-.LFB294
 15256 1e1a 01       		.uleb128 0x1
 15257 1e1b 9C       		.byte	0x9c
ARM GAS  /tmp/cc1ELVNa.s 			page 272


 15258 1e1c 4E1E0000 		.4byte	0x1e4e
 15259 1e20 23       		.uleb128 0x23
 15260 1e21 CC000000 		.4byte	.LASF450
 15261 1e25 01       		.byte	0x1
 15262 1e26 9C02     		.2byte	0x29c
 15263 1e28 3E030000 		.4byte	0x33e
 15264 1e2c 02       		.uleb128 0x2
 15265 1e2d 91       		.byte	0x91
 15266 1e2e 6C       		.sleb128 -20
 15267 1e2f 23       		.uleb128 0x23
 15268 1e30 2B290000 		.4byte	.LASF455
 15269 1e34 01       		.byte	0x1
 15270 1e35 9C02     		.2byte	0x29c
 15271 1e37 E70C0000 		.4byte	0xce7
 15272 1e3b 02       		.uleb128 0x2
 15273 1e3c 91       		.byte	0x91
 15274 1e3d 6B       		.sleb128 -21
 15275 1e3e 24       		.uleb128 0x24
 15276 1e3f 13130000 		.4byte	.LASF446
 15277 1e43 01       		.byte	0x1
 15278 1e44 9E02     		.2byte	0x29e
 15279 1e46 2A0A0000 		.4byte	0xa2a
 15280 1e4a 02       		.uleb128 0x2
 15281 1e4b 91       		.byte	0x91
 15282 1e4c 77       		.sleb128 -9
 15283 1e4d 00       		.byte	0
 15284 1e4e 22       		.uleb128 0x22
 15285 1e4f 831C0000 		.4byte	.LASF483
 15286 1e53 01       		.byte	0x1
 15287 1e54 B302     		.2byte	0x2b3
 15288 1e56 AA0A0000 		.4byte	0xaaa
 15289 1e5a 200A0000 		.4byte	.LFB295
 15290 1e5e 36000000 		.4byte	.LFE295-.LFB295
 15291 1e62 01       		.uleb128 0x1
 15292 1e63 9C       		.byte	0x9c
 15293 1e64 871E0000 		.4byte	0x1e87
 15294 1e68 23       		.uleb128 0x23
 15295 1e69 CC000000 		.4byte	.LASF450
 15296 1e6d 01       		.byte	0x1
 15297 1e6e B302     		.2byte	0x2b3
 15298 1e70 3E030000 		.4byte	0x33e
 15299 1e74 02       		.uleb128 0x2
 15300 1e75 91       		.byte	0x91
 15301 1e76 74       		.sleb128 -12
 15302 1e77 23       		.uleb128 0x23
 15303 1e78 13130000 		.4byte	.LASF446
 15304 1e7c 01       		.byte	0x1
 15305 1e7d B302     		.2byte	0x2b3
 15306 1e7f 871E0000 		.4byte	0x1e87
 15307 1e83 02       		.uleb128 0x2
 15308 1e84 91       		.byte	0x91
 15309 1e85 70       		.sleb128 -16
 15310 1e86 00       		.byte	0
 15311 1e87 09       		.uleb128 0x9
 15312 1e88 04       		.byte	0x4
 15313 1e89 E70C0000 		.4byte	0xce7
 15314 1e8d 22       		.uleb128 0x22
ARM GAS  /tmp/cc1ELVNa.s 			page 273


 15315 1e8e FA070000 		.4byte	.LASF484
 15316 1e92 01       		.byte	0x1
 15317 1e93 C402     		.2byte	0x2c4
 15318 1e95 AA0A0000 		.4byte	0xaaa
 15319 1e99 600A0000 		.4byte	.LFB296
 15320 1e9d 68000000 		.4byte	.LFE296-.LFB296
 15321 1ea1 01       		.uleb128 0x1
 15322 1ea2 9C       		.byte	0x9c
 15323 1ea3 D51E0000 		.4byte	0x1ed5
 15324 1ea7 23       		.uleb128 0x23
 15325 1ea8 CC000000 		.4byte	.LASF450
 15326 1eac 01       		.byte	0x1
 15327 1ead C402     		.2byte	0x2c4
 15328 1eaf 3E030000 		.4byte	0x33e
 15329 1eb3 02       		.uleb128 0x2
 15330 1eb4 91       		.byte	0x91
 15331 1eb5 6C       		.sleb128 -20
 15332 1eb6 23       		.uleb128 0x23
 15333 1eb7 2B290000 		.4byte	.LASF455
 15334 1ebb 01       		.byte	0x1
 15335 1ebc C402     		.2byte	0x2c4
 15336 1ebe 090D0000 		.4byte	0xd09
 15337 1ec2 02       		.uleb128 0x2
 15338 1ec3 91       		.byte	0x91
 15339 1ec4 6B       		.sleb128 -21
 15340 1ec5 24       		.uleb128 0x24
 15341 1ec6 13130000 		.4byte	.LASF446
 15342 1eca 01       		.byte	0x1
 15343 1ecb C602     		.2byte	0x2c6
 15344 1ecd 2A0A0000 		.4byte	0xa2a
 15345 1ed1 02       		.uleb128 0x2
 15346 1ed2 91       		.byte	0x91
 15347 1ed3 77       		.sleb128 -9
 15348 1ed4 00       		.byte	0
 15349 1ed5 22       		.uleb128 0x22
 15350 1ed6 C4220000 		.4byte	.LASF485
 15351 1eda 01       		.byte	0x1
 15352 1edb DB02     		.2byte	0x2db
 15353 1edd AA0A0000 		.4byte	0xaaa
 15354 1ee1 D00A0000 		.4byte	.LFB297
 15355 1ee5 36000000 		.4byte	.LFE297-.LFB297
 15356 1ee9 01       		.uleb128 0x1
 15357 1eea 9C       		.byte	0x9c
 15358 1eeb 0E1F0000 		.4byte	0x1f0e
 15359 1eef 23       		.uleb128 0x23
 15360 1ef0 CC000000 		.4byte	.LASF450
 15361 1ef4 01       		.byte	0x1
 15362 1ef5 DB02     		.2byte	0x2db
 15363 1ef7 3E030000 		.4byte	0x33e
 15364 1efb 02       		.uleb128 0x2
 15365 1efc 91       		.byte	0x91
 15366 1efd 74       		.sleb128 -12
 15367 1efe 23       		.uleb128 0x23
 15368 1eff 13130000 		.4byte	.LASF446
 15369 1f03 01       		.byte	0x1
 15370 1f04 DB02     		.2byte	0x2db
 15371 1f06 0E1F0000 		.4byte	0x1f0e
ARM GAS  /tmp/cc1ELVNa.s 			page 274


 15372 1f0a 02       		.uleb128 0x2
 15373 1f0b 91       		.byte	0x91
 15374 1f0c 70       		.sleb128 -16
 15375 1f0d 00       		.byte	0
 15376 1f0e 09       		.uleb128 0x9
 15377 1f0f 04       		.byte	0x4
 15378 1f10 090D0000 		.4byte	0xd09
 15379 1f14 22       		.uleb128 0x22
 15380 1f15 2B0D0000 		.4byte	.LASF486
 15381 1f19 01       		.byte	0x1
 15382 1f1a EC02     		.2byte	0x2ec
 15383 1f1c AA0A0000 		.4byte	0xaaa
 15384 1f20 100B0000 		.4byte	.LFB298
 15385 1f24 68000000 		.4byte	.LFE298-.LFB298
 15386 1f28 01       		.uleb128 0x1
 15387 1f29 9C       		.byte	0x9c
 15388 1f2a 5C1F0000 		.4byte	0x1f5c
 15389 1f2e 23       		.uleb128 0x23
 15390 1f2f CC000000 		.4byte	.LASF450
 15391 1f33 01       		.byte	0x1
 15392 1f34 EC02     		.2byte	0x2ec
 15393 1f36 3E030000 		.4byte	0x33e
 15394 1f3a 02       		.uleb128 0x2
 15395 1f3b 91       		.byte	0x91
 15396 1f3c 6C       		.sleb128 -20
 15397 1f3d 23       		.uleb128 0x23
 15398 1f3e 2B290000 		.4byte	.LASF455
 15399 1f42 01       		.byte	0x1
 15400 1f43 EC02     		.2byte	0x2ec
 15401 1f45 2B0D0000 		.4byte	0xd2b
 15402 1f49 02       		.uleb128 0x2
 15403 1f4a 91       		.byte	0x91
 15404 1f4b 6B       		.sleb128 -21
 15405 1f4c 24       		.uleb128 0x24
 15406 1f4d 13130000 		.4byte	.LASF446
 15407 1f51 01       		.byte	0x1
 15408 1f52 EE02     		.2byte	0x2ee
 15409 1f54 2A0A0000 		.4byte	0xa2a
 15410 1f58 02       		.uleb128 0x2
 15411 1f59 91       		.byte	0x91
 15412 1f5a 77       		.sleb128 -9
 15413 1f5b 00       		.byte	0
 15414 1f5c 22       		.uleb128 0x22
 15415 1f5d D8220000 		.4byte	.LASF487
 15416 1f61 01       		.byte	0x1
 15417 1f62 0303     		.2byte	0x303
 15418 1f64 AA0A0000 		.4byte	0xaaa
 15419 1f68 800B0000 		.4byte	.LFB299
 15420 1f6c 36000000 		.4byte	.LFE299-.LFB299
 15421 1f70 01       		.uleb128 0x1
 15422 1f71 9C       		.byte	0x9c
 15423 1f72 951F0000 		.4byte	0x1f95
 15424 1f76 23       		.uleb128 0x23
 15425 1f77 CC000000 		.4byte	.LASF450
 15426 1f7b 01       		.byte	0x1
 15427 1f7c 0303     		.2byte	0x303
 15428 1f7e 3E030000 		.4byte	0x33e
ARM GAS  /tmp/cc1ELVNa.s 			page 275


 15429 1f82 02       		.uleb128 0x2
 15430 1f83 91       		.byte	0x91
 15431 1f84 74       		.sleb128 -12
 15432 1f85 23       		.uleb128 0x23
 15433 1f86 13130000 		.4byte	.LASF446
 15434 1f8a 01       		.byte	0x1
 15435 1f8b 0303     		.2byte	0x303
 15436 1f8d 951F0000 		.4byte	0x1f95
 15437 1f91 02       		.uleb128 0x2
 15438 1f92 91       		.byte	0x91
 15439 1f93 70       		.sleb128 -16
 15440 1f94 00       		.byte	0
 15441 1f95 09       		.uleb128 0x9
 15442 1f96 04       		.byte	0x4
 15443 1f97 2B0D0000 		.4byte	0xd2b
 15444 1f9b 22       		.uleb128 0x22
 15445 1f9c BB1A0000 		.4byte	.LASF488
 15446 1fa0 01       		.byte	0x1
 15447 1fa1 1403     		.2byte	0x314
 15448 1fa3 AA0A0000 		.4byte	0xaaa
 15449 1fa7 C00B0000 		.4byte	.LFB300
 15450 1fab 68000000 		.4byte	.LFE300-.LFB300
 15451 1faf 01       		.uleb128 0x1
 15452 1fb0 9C       		.byte	0x9c
 15453 1fb1 E31F0000 		.4byte	0x1fe3
 15454 1fb5 23       		.uleb128 0x23
 15455 1fb6 CC000000 		.4byte	.LASF450
 15456 1fba 01       		.byte	0x1
 15457 1fbb 1403     		.2byte	0x314
 15458 1fbd 3E030000 		.4byte	0x33e
 15459 1fc1 02       		.uleb128 0x2
 15460 1fc2 91       		.byte	0x91
 15461 1fc3 6C       		.sleb128 -20
 15462 1fc4 23       		.uleb128 0x23
 15463 1fc5 2B290000 		.4byte	.LASF455
 15464 1fc9 01       		.byte	0x1
 15465 1fca 1403     		.2byte	0x314
 15466 1fcc 4D0D0000 		.4byte	0xd4d
 15467 1fd0 02       		.uleb128 0x2
 15468 1fd1 91       		.byte	0x91
 15469 1fd2 6B       		.sleb128 -21
 15470 1fd3 24       		.uleb128 0x24
 15471 1fd4 13130000 		.4byte	.LASF446
 15472 1fd8 01       		.byte	0x1
 15473 1fd9 1603     		.2byte	0x316
 15474 1fdb 2A0A0000 		.4byte	0xa2a
 15475 1fdf 02       		.uleb128 0x2
 15476 1fe0 91       		.byte	0x91
 15477 1fe1 77       		.sleb128 -9
 15478 1fe2 00       		.byte	0
 15479 1fe3 22       		.uleb128 0x22
 15480 1fe4 E0260000 		.4byte	.LASF489
 15481 1fe8 01       		.byte	0x1
 15482 1fe9 2B03     		.2byte	0x32b
 15483 1feb AA0A0000 		.4byte	0xaaa
 15484 1fef 300C0000 		.4byte	.LFB301
 15485 1ff3 36000000 		.4byte	.LFE301-.LFB301
ARM GAS  /tmp/cc1ELVNa.s 			page 276


 15486 1ff7 01       		.uleb128 0x1
 15487 1ff8 9C       		.byte	0x9c
 15488 1ff9 1C200000 		.4byte	0x201c
 15489 1ffd 23       		.uleb128 0x23
 15490 1ffe CC000000 		.4byte	.LASF450
 15491 2002 01       		.byte	0x1
 15492 2003 2B03     		.2byte	0x32b
 15493 2005 3E030000 		.4byte	0x33e
 15494 2009 02       		.uleb128 0x2
 15495 200a 91       		.byte	0x91
 15496 200b 74       		.sleb128 -12
 15497 200c 23       		.uleb128 0x23
 15498 200d 13130000 		.4byte	.LASF446
 15499 2011 01       		.byte	0x1
 15500 2012 2B03     		.2byte	0x32b
 15501 2014 1C200000 		.4byte	0x201c
 15502 2018 02       		.uleb128 0x2
 15503 2019 91       		.byte	0x91
 15504 201a 70       		.sleb128 -16
 15505 201b 00       		.byte	0
 15506 201c 09       		.uleb128 0x9
 15507 201d 04       		.byte	0x4
 15508 201e 4D0D0000 		.4byte	0xd4d
 15509 2022 22       		.uleb128 0x22
 15510 2023 DB1A0000 		.4byte	.LASF490
 15511 2027 01       		.byte	0x1
 15512 2028 3C03     		.2byte	0x33c
 15513 202a AA0A0000 		.4byte	0xaaa
 15514 202e 700C0000 		.4byte	.LFB302
 15515 2032 68000000 		.4byte	.LFE302-.LFB302
 15516 2036 01       		.uleb128 0x1
 15517 2037 9C       		.byte	0x9c
 15518 2038 6A200000 		.4byte	0x206a
 15519 203c 23       		.uleb128 0x23
 15520 203d CC000000 		.4byte	.LASF450
 15521 2041 01       		.byte	0x1
 15522 2042 3C03     		.2byte	0x33c
 15523 2044 3E030000 		.4byte	0x33e
 15524 2048 02       		.uleb128 0x2
 15525 2049 91       		.byte	0x91
 15526 204a 6C       		.sleb128 -20
 15527 204b 23       		.uleb128 0x23
 15528 204c 2B290000 		.4byte	.LASF455
 15529 2050 01       		.byte	0x1
 15530 2051 3C03     		.2byte	0x33c
 15531 2053 6F0D0000 		.4byte	0xd6f
 15532 2057 02       		.uleb128 0x2
 15533 2058 91       		.byte	0x91
 15534 2059 6B       		.sleb128 -21
 15535 205a 24       		.uleb128 0x24
 15536 205b 13130000 		.4byte	.LASF446
 15537 205f 01       		.byte	0x1
 15538 2060 3E03     		.2byte	0x33e
 15539 2062 2A0A0000 		.4byte	0xa2a
 15540 2066 02       		.uleb128 0x2
 15541 2067 91       		.byte	0x91
 15542 2068 77       		.sleb128 -9
ARM GAS  /tmp/cc1ELVNa.s 			page 277


 15543 2069 00       		.byte	0
 15544 206a 22       		.uleb128 0x22
 15545 206b 00270000 		.4byte	.LASF491
 15546 206f 01       		.byte	0x1
 15547 2070 5303     		.2byte	0x353
 15548 2072 AA0A0000 		.4byte	0xaaa
 15549 2076 E00C0000 		.4byte	.LFB303
 15550 207a 36000000 		.4byte	.LFE303-.LFB303
 15551 207e 01       		.uleb128 0x1
 15552 207f 9C       		.byte	0x9c
 15553 2080 A3200000 		.4byte	0x20a3
 15554 2084 23       		.uleb128 0x23
 15555 2085 CC000000 		.4byte	.LASF450
 15556 2089 01       		.byte	0x1
 15557 208a 5303     		.2byte	0x353
 15558 208c 3E030000 		.4byte	0x33e
 15559 2090 02       		.uleb128 0x2
 15560 2091 91       		.byte	0x91
 15561 2092 74       		.sleb128 -12
 15562 2093 23       		.uleb128 0x23
 15563 2094 13130000 		.4byte	.LASF446
 15564 2098 01       		.byte	0x1
 15565 2099 5303     		.2byte	0x353
 15566 209b A3200000 		.4byte	0x20a3
 15567 209f 02       		.uleb128 0x2
 15568 20a0 91       		.byte	0x91
 15569 20a1 70       		.sleb128 -16
 15570 20a2 00       		.byte	0
 15571 20a3 09       		.uleb128 0x9
 15572 20a4 04       		.byte	0x4
 15573 20a5 6F0D0000 		.4byte	0xd6f
 15574 20a9 22       		.uleb128 0x22
 15575 20aa E1120000 		.4byte	.LASF492
 15576 20ae 01       		.byte	0x1
 15577 20af 6403     		.2byte	0x364
 15578 20b1 AA0A0000 		.4byte	0xaaa
 15579 20b5 200D0000 		.4byte	.LFB304
 15580 20b9 68000000 		.4byte	.LFE304-.LFB304
 15581 20bd 01       		.uleb128 0x1
 15582 20be 9C       		.byte	0x9c
 15583 20bf F1200000 		.4byte	0x20f1
 15584 20c3 23       		.uleb128 0x23
 15585 20c4 CC000000 		.4byte	.LASF450
 15586 20c8 01       		.byte	0x1
 15587 20c9 6403     		.2byte	0x364
 15588 20cb 3E030000 		.4byte	0x33e
 15589 20cf 02       		.uleb128 0x2
 15590 20d0 91       		.byte	0x91
 15591 20d1 6C       		.sleb128 -20
 15592 20d2 23       		.uleb128 0x23
 15593 20d3 2B290000 		.4byte	.LASF455
 15594 20d7 01       		.byte	0x1
 15595 20d8 6403     		.2byte	0x364
 15596 20da 910D0000 		.4byte	0xd91
 15597 20de 02       		.uleb128 0x2
 15598 20df 91       		.byte	0x91
 15599 20e0 6B       		.sleb128 -21
ARM GAS  /tmp/cc1ELVNa.s 			page 278


 15600 20e1 24       		.uleb128 0x24
 15601 20e2 13130000 		.4byte	.LASF446
 15602 20e6 01       		.byte	0x1
 15603 20e7 6603     		.2byte	0x366
 15604 20e9 2A0A0000 		.4byte	0xa2a
 15605 20ed 02       		.uleb128 0x2
 15606 20ee 91       		.byte	0x91
 15607 20ef 77       		.sleb128 -9
 15608 20f0 00       		.byte	0
 15609 20f1 22       		.uleb128 0x22
 15610 20f2 E70F0000 		.4byte	.LASF493
 15611 20f6 01       		.byte	0x1
 15612 20f7 7B03     		.2byte	0x37b
 15613 20f9 AA0A0000 		.4byte	0xaaa
 15614 20fd 900D0000 		.4byte	.LFB305
 15615 2101 36000000 		.4byte	.LFE305-.LFB305
 15616 2105 01       		.uleb128 0x1
 15617 2106 9C       		.byte	0x9c
 15618 2107 2A210000 		.4byte	0x212a
 15619 210b 23       		.uleb128 0x23
 15620 210c CC000000 		.4byte	.LASF450
 15621 2110 01       		.byte	0x1
 15622 2111 7B03     		.2byte	0x37b
 15623 2113 3E030000 		.4byte	0x33e
 15624 2117 02       		.uleb128 0x2
 15625 2118 91       		.byte	0x91
 15626 2119 74       		.sleb128 -12
 15627 211a 23       		.uleb128 0x23
 15628 211b 13130000 		.4byte	.LASF446
 15629 211f 01       		.byte	0x1
 15630 2120 7B03     		.2byte	0x37b
 15631 2122 2A210000 		.4byte	0x212a
 15632 2126 02       		.uleb128 0x2
 15633 2127 91       		.byte	0x91
 15634 2128 70       		.sleb128 -16
 15635 2129 00       		.byte	0
 15636 212a 09       		.uleb128 0x9
 15637 212b 04       		.byte	0x4
 15638 212c 910D0000 		.4byte	0xd91
 15639 2130 22       		.uleb128 0x22
 15640 2131 C2090000 		.4byte	.LASF494
 15641 2135 01       		.byte	0x1
 15642 2136 8C03     		.2byte	0x38c
 15643 2138 AA0A0000 		.4byte	0xaaa
 15644 213c D00D0000 		.4byte	.LFB306
 15645 2140 68000000 		.4byte	.LFE306-.LFB306
 15646 2144 01       		.uleb128 0x1
 15647 2145 9C       		.byte	0x9c
 15648 2146 78210000 		.4byte	0x2178
 15649 214a 23       		.uleb128 0x23
 15650 214b CC000000 		.4byte	.LASF450
 15651 214f 01       		.byte	0x1
 15652 2150 8C03     		.2byte	0x38c
 15653 2152 3E030000 		.4byte	0x33e
 15654 2156 02       		.uleb128 0x2
 15655 2157 91       		.byte	0x91
 15656 2158 6C       		.sleb128 -20
ARM GAS  /tmp/cc1ELVNa.s 			page 279


 15657 2159 23       		.uleb128 0x23
 15658 215a 2B290000 		.4byte	.LASF455
 15659 215e 01       		.byte	0x1
 15660 215f 8C03     		.2byte	0x38c
 15661 2161 B30D0000 		.4byte	0xdb3
 15662 2165 02       		.uleb128 0x2
 15663 2166 91       		.byte	0x91
 15664 2167 6B       		.sleb128 -21
 15665 2168 24       		.uleb128 0x24
 15666 2169 13130000 		.4byte	.LASF446
 15667 216d 01       		.byte	0x1
 15668 216e 8E03     		.2byte	0x38e
 15669 2170 2A0A0000 		.4byte	0xa2a
 15670 2174 02       		.uleb128 0x2
 15671 2175 91       		.byte	0x91
 15672 2176 77       		.sleb128 -9
 15673 2177 00       		.byte	0
 15674 2178 22       		.uleb128 0x22
 15675 2179 35160000 		.4byte	.LASF495
 15676 217d 01       		.byte	0x1
 15677 217e A303     		.2byte	0x3a3
 15678 2180 AA0A0000 		.4byte	0xaaa
 15679 2184 400E0000 		.4byte	.LFB307
 15680 2188 36000000 		.4byte	.LFE307-.LFB307
 15681 218c 01       		.uleb128 0x1
 15682 218d 9C       		.byte	0x9c
 15683 218e B1210000 		.4byte	0x21b1
 15684 2192 23       		.uleb128 0x23
 15685 2193 CC000000 		.4byte	.LASF450
 15686 2197 01       		.byte	0x1
 15687 2198 A303     		.2byte	0x3a3
 15688 219a 3E030000 		.4byte	0x33e
 15689 219e 02       		.uleb128 0x2
 15690 219f 91       		.byte	0x91
 15691 21a0 74       		.sleb128 -12
 15692 21a1 23       		.uleb128 0x23
 15693 21a2 13130000 		.4byte	.LASF446
 15694 21a6 01       		.byte	0x1
 15695 21a7 A303     		.2byte	0x3a3
 15696 21a9 B1210000 		.4byte	0x21b1
 15697 21ad 02       		.uleb128 0x2
 15698 21ae 91       		.byte	0x91
 15699 21af 70       		.sleb128 -16
 15700 21b0 00       		.byte	0
 15701 21b1 09       		.uleb128 0x9
 15702 21b2 04       		.byte	0x4
 15703 21b3 B30D0000 		.4byte	0xdb3
 15704 21b7 22       		.uleb128 0x22
 15705 21b8 E5040000 		.4byte	.LASF496
 15706 21bc 01       		.byte	0x1
 15707 21bd B403     		.2byte	0x3b4
 15708 21bf AA0A0000 		.4byte	0xaaa
 15709 21c3 800E0000 		.4byte	.LFB308
 15710 21c7 68000000 		.4byte	.LFE308-.LFB308
 15711 21cb 01       		.uleb128 0x1
 15712 21cc 9C       		.byte	0x9c
 15713 21cd FF210000 		.4byte	0x21ff
ARM GAS  /tmp/cc1ELVNa.s 			page 280


 15714 21d1 23       		.uleb128 0x23
 15715 21d2 CC000000 		.4byte	.LASF450
 15716 21d6 01       		.byte	0x1
 15717 21d7 B403     		.2byte	0x3b4
 15718 21d9 3E030000 		.4byte	0x33e
 15719 21dd 02       		.uleb128 0x2
 15720 21de 91       		.byte	0x91
 15721 21df 6C       		.sleb128 -20
 15722 21e0 23       		.uleb128 0x23
 15723 21e1 2B290000 		.4byte	.LASF455
 15724 21e5 01       		.byte	0x1
 15725 21e6 B403     		.2byte	0x3b4
 15726 21e8 E10D0000 		.4byte	0xde1
 15727 21ec 02       		.uleb128 0x2
 15728 21ed 91       		.byte	0x91
 15729 21ee 6B       		.sleb128 -21
 15730 21ef 24       		.uleb128 0x24
 15731 21f0 13130000 		.4byte	.LASF446
 15732 21f4 01       		.byte	0x1
 15733 21f5 B603     		.2byte	0x3b6
 15734 21f7 2A0A0000 		.4byte	0xa2a
 15735 21fb 02       		.uleb128 0x2
 15736 21fc 91       		.byte	0x91
 15737 21fd 77       		.sleb128 -9
 15738 21fe 00       		.byte	0
 15739 21ff 22       		.uleb128 0x22
 15740 2200 67030000 		.4byte	.LASF497
 15741 2204 01       		.byte	0x1
 15742 2205 CB03     		.2byte	0x3cb
 15743 2207 AA0A0000 		.4byte	0xaaa
 15744 220b F00E0000 		.4byte	.LFB309
 15745 220f 36000000 		.4byte	.LFE309-.LFB309
 15746 2213 01       		.uleb128 0x1
 15747 2214 9C       		.byte	0x9c
 15748 2215 38220000 		.4byte	0x2238
 15749 2219 23       		.uleb128 0x23
 15750 221a CC000000 		.4byte	.LASF450
 15751 221e 01       		.byte	0x1
 15752 221f CB03     		.2byte	0x3cb
 15753 2221 3E030000 		.4byte	0x33e
 15754 2225 02       		.uleb128 0x2
 15755 2226 91       		.byte	0x91
 15756 2227 74       		.sleb128 -12
 15757 2228 23       		.uleb128 0x23
 15758 2229 13130000 		.4byte	.LASF446
 15759 222d 01       		.byte	0x1
 15760 222e CB03     		.2byte	0x3cb
 15761 2230 38220000 		.4byte	0x2238
 15762 2234 02       		.uleb128 0x2
 15763 2235 91       		.byte	0x91
 15764 2236 70       		.sleb128 -16
 15765 2237 00       		.byte	0
 15766 2238 09       		.uleb128 0x9
 15767 2239 04       		.byte	0x4
 15768 223a E10D0000 		.4byte	0xde1
 15769 223e 22       		.uleb128 0x22
 15770 223f D8280000 		.4byte	.LASF498
ARM GAS  /tmp/cc1ELVNa.s 			page 281


 15771 2243 01       		.byte	0x1
 15772 2244 DC03     		.2byte	0x3dc
 15773 2246 AA0A0000 		.4byte	0xaaa
 15774 224a 300F0000 		.4byte	.LFB310
 15775 224e 68000000 		.4byte	.LFE310-.LFB310
 15776 2252 01       		.uleb128 0x1
 15777 2253 9C       		.byte	0x9c
 15778 2254 86220000 		.4byte	0x2286
 15779 2258 23       		.uleb128 0x23
 15780 2259 CC000000 		.4byte	.LASF450
 15781 225d 01       		.byte	0x1
 15782 225e DC03     		.2byte	0x3dc
 15783 2260 3E030000 		.4byte	0x33e
 15784 2264 02       		.uleb128 0x2
 15785 2265 91       		.byte	0x91
 15786 2266 6C       		.sleb128 -20
 15787 2267 23       		.uleb128 0x23
 15788 2268 2B290000 		.4byte	.LASF455
 15789 226c 01       		.byte	0x1
 15790 226d DC03     		.2byte	0x3dc
 15791 226f 120E0000 		.4byte	0xe12
 15792 2273 02       		.uleb128 0x2
 15793 2274 91       		.byte	0x91
 15794 2275 6B       		.sleb128 -21
 15795 2276 24       		.uleb128 0x24
 15796 2277 13130000 		.4byte	.LASF446
 15797 227b 01       		.byte	0x1
 15798 227c DE03     		.2byte	0x3de
 15799 227e 2A0A0000 		.4byte	0xa2a
 15800 2282 02       		.uleb128 0x2
 15801 2283 91       		.byte	0x91
 15802 2284 77       		.sleb128 -9
 15803 2285 00       		.byte	0
 15804 2286 22       		.uleb128 0x22
 15805 2287 3C2E0000 		.4byte	.LASF499
 15806 228b 01       		.byte	0x1
 15807 228c F303     		.2byte	0x3f3
 15808 228e AA0A0000 		.4byte	0xaaa
 15809 2292 A00F0000 		.4byte	.LFB311
 15810 2296 36000000 		.4byte	.LFE311-.LFB311
 15811 229a 01       		.uleb128 0x1
 15812 229b 9C       		.byte	0x9c
 15813 229c BF220000 		.4byte	0x22bf
 15814 22a0 23       		.uleb128 0x23
 15815 22a1 CC000000 		.4byte	.LASF450
 15816 22a5 01       		.byte	0x1
 15817 22a6 F303     		.2byte	0x3f3
 15818 22a8 3E030000 		.4byte	0x33e
 15819 22ac 02       		.uleb128 0x2
 15820 22ad 91       		.byte	0x91
 15821 22ae 74       		.sleb128 -12
 15822 22af 23       		.uleb128 0x23
 15823 22b0 13130000 		.4byte	.LASF446
 15824 22b4 01       		.byte	0x1
 15825 22b5 F303     		.2byte	0x3f3
 15826 22b7 BF220000 		.4byte	0x22bf
 15827 22bb 02       		.uleb128 0x2
ARM GAS  /tmp/cc1ELVNa.s 			page 282


 15828 22bc 91       		.byte	0x91
 15829 22bd 70       		.sleb128 -16
 15830 22be 00       		.byte	0
 15831 22bf 09       		.uleb128 0x9
 15832 22c0 04       		.byte	0x4
 15833 22c1 120E0000 		.4byte	0xe12
 15834 22c5 22       		.uleb128 0x22
 15835 22c6 A9320000 		.4byte	.LASF500
 15836 22ca 01       		.byte	0x1
 15837 22cb 0404     		.2byte	0x404
 15838 22cd AA0A0000 		.4byte	0xaaa
 15839 22d1 E00F0000 		.4byte	.LFB312
 15840 22d5 68000000 		.4byte	.LFE312-.LFB312
 15841 22d9 01       		.uleb128 0x1
 15842 22da 9C       		.byte	0x9c
 15843 22db 0D230000 		.4byte	0x230d
 15844 22df 23       		.uleb128 0x23
 15845 22e0 CC000000 		.4byte	.LASF450
 15846 22e4 01       		.byte	0x1
 15847 22e5 0404     		.2byte	0x404
 15848 22e7 3E030000 		.4byte	0x33e
 15849 22eb 02       		.uleb128 0x2
 15850 22ec 91       		.byte	0x91
 15851 22ed 6C       		.sleb128 -20
 15852 22ee 23       		.uleb128 0x23
 15853 22ef 2B290000 		.4byte	.LASF455
 15854 22f3 01       		.byte	0x1
 15855 22f4 0404     		.2byte	0x404
 15856 22f6 340E0000 		.4byte	0xe34
 15857 22fa 02       		.uleb128 0x2
 15858 22fb 91       		.byte	0x91
 15859 22fc 6B       		.sleb128 -21
 15860 22fd 24       		.uleb128 0x24
 15861 22fe 13130000 		.4byte	.LASF446
 15862 2302 01       		.byte	0x1
 15863 2303 0604     		.2byte	0x406
 15864 2305 2A0A0000 		.4byte	0xa2a
 15865 2309 02       		.uleb128 0x2
 15866 230a 91       		.byte	0x91
 15867 230b 77       		.sleb128 -9
 15868 230c 00       		.byte	0
 15869 230d 22       		.uleb128 0x22
 15870 230e 81290000 		.4byte	.LASF501
 15871 2312 01       		.byte	0x1
 15872 2313 1B04     		.2byte	0x41b
 15873 2315 AA0A0000 		.4byte	0xaaa
 15874 2319 50100000 		.4byte	.LFB313
 15875 231d 36000000 		.4byte	.LFE313-.LFB313
 15876 2321 01       		.uleb128 0x1
 15877 2322 9C       		.byte	0x9c
 15878 2323 46230000 		.4byte	0x2346
 15879 2327 23       		.uleb128 0x23
 15880 2328 CC000000 		.4byte	.LASF450
 15881 232c 01       		.byte	0x1
 15882 232d 1B04     		.2byte	0x41b
 15883 232f 3E030000 		.4byte	0x33e
 15884 2333 02       		.uleb128 0x2
ARM GAS  /tmp/cc1ELVNa.s 			page 283


 15885 2334 91       		.byte	0x91
 15886 2335 74       		.sleb128 -12
 15887 2336 23       		.uleb128 0x23
 15888 2337 13130000 		.4byte	.LASF446
 15889 233b 01       		.byte	0x1
 15890 233c 1B04     		.2byte	0x41b
 15891 233e 46230000 		.4byte	0x2346
 15892 2342 02       		.uleb128 0x2
 15893 2343 91       		.byte	0x91
 15894 2344 70       		.sleb128 -16
 15895 2345 00       		.byte	0
 15896 2346 09       		.uleb128 0x9
 15897 2347 04       		.byte	0x4
 15898 2348 340E0000 		.4byte	0xe34
 15899 234c 22       		.uleb128 0x22
 15900 234d 87040000 		.4byte	.LASF502
 15901 2351 01       		.byte	0x1
 15902 2352 2C04     		.2byte	0x42c
 15903 2354 AA0A0000 		.4byte	0xaaa
 15904 2358 90100000 		.4byte	.LFB314
 15905 235c 68000000 		.4byte	.LFE314-.LFB314
 15906 2360 01       		.uleb128 0x1
 15907 2361 9C       		.byte	0x9c
 15908 2362 94230000 		.4byte	0x2394
 15909 2366 23       		.uleb128 0x23
 15910 2367 CC000000 		.4byte	.LASF450
 15911 236b 01       		.byte	0x1
 15912 236c 2C04     		.2byte	0x42c
 15913 236e 3E030000 		.4byte	0x33e
 15914 2372 02       		.uleb128 0x2
 15915 2373 91       		.byte	0x91
 15916 2374 6C       		.sleb128 -20
 15917 2375 23       		.uleb128 0x23
 15918 2376 2B290000 		.4byte	.LASF455
 15919 237a 01       		.byte	0x1
 15920 237b 2C04     		.2byte	0x42c
 15921 237d 560E0000 		.4byte	0xe56
 15922 2381 02       		.uleb128 0x2
 15923 2382 91       		.byte	0x91
 15924 2383 6B       		.sleb128 -21
 15925 2384 24       		.uleb128 0x24
 15926 2385 13130000 		.4byte	.LASF446
 15927 2389 01       		.byte	0x1
 15928 238a 2E04     		.2byte	0x42e
 15929 238c 2A0A0000 		.4byte	0xa2a
 15930 2390 02       		.uleb128 0x2
 15931 2391 91       		.byte	0x91
 15932 2392 77       		.sleb128 -9
 15933 2393 00       		.byte	0
 15934 2394 22       		.uleb128 0x22
 15935 2395 0B020000 		.4byte	.LASF503
 15936 2399 01       		.byte	0x1
 15937 239a 4304     		.2byte	0x443
 15938 239c AA0A0000 		.4byte	0xaaa
 15939 23a0 00110000 		.4byte	.LFB315
 15940 23a4 36000000 		.4byte	.LFE315-.LFB315
 15941 23a8 01       		.uleb128 0x1
ARM GAS  /tmp/cc1ELVNa.s 			page 284


 15942 23a9 9C       		.byte	0x9c
 15943 23aa CD230000 		.4byte	0x23cd
 15944 23ae 23       		.uleb128 0x23
 15945 23af CC000000 		.4byte	.LASF450
 15946 23b3 01       		.byte	0x1
 15947 23b4 4304     		.2byte	0x443
 15948 23b6 3E030000 		.4byte	0x33e
 15949 23ba 02       		.uleb128 0x2
 15950 23bb 91       		.byte	0x91
 15951 23bc 74       		.sleb128 -12
 15952 23bd 23       		.uleb128 0x23
 15953 23be 13130000 		.4byte	.LASF446
 15954 23c2 01       		.byte	0x1
 15955 23c3 4304     		.2byte	0x443
 15956 23c5 CD230000 		.4byte	0x23cd
 15957 23c9 02       		.uleb128 0x2
 15958 23ca 91       		.byte	0x91
 15959 23cb 70       		.sleb128 -16
 15960 23cc 00       		.byte	0
 15961 23cd 09       		.uleb128 0x9
 15962 23ce 04       		.byte	0x4
 15963 23cf 560E0000 		.4byte	0xe56
 15964 23d3 22       		.uleb128 0x22
 15965 23d4 BF070000 		.4byte	.LASF504
 15966 23d8 01       		.byte	0x1
 15967 23d9 5404     		.2byte	0x454
 15968 23db AA0A0000 		.4byte	0xaaa
 15969 23df 40110000 		.4byte	.LFB316
 15970 23e3 68000000 		.4byte	.LFE316-.LFB316
 15971 23e7 01       		.uleb128 0x1
 15972 23e8 9C       		.byte	0x9c
 15973 23e9 1B240000 		.4byte	0x241b
 15974 23ed 23       		.uleb128 0x23
 15975 23ee CC000000 		.4byte	.LASF450
 15976 23f2 01       		.byte	0x1
 15977 23f3 5404     		.2byte	0x454
 15978 23f5 3E030000 		.4byte	0x33e
 15979 23f9 02       		.uleb128 0x2
 15980 23fa 91       		.byte	0x91
 15981 23fb 6C       		.sleb128 -20
 15982 23fc 23       		.uleb128 0x23
 15983 23fd 2B290000 		.4byte	.LASF455
 15984 2401 01       		.byte	0x1
 15985 2402 5404     		.2byte	0x454
 15986 2404 780E0000 		.4byte	0xe78
 15987 2408 02       		.uleb128 0x2
 15988 2409 91       		.byte	0x91
 15989 240a 6B       		.sleb128 -21
 15990 240b 24       		.uleb128 0x24
 15991 240c 13130000 		.4byte	.LASF446
 15992 2410 01       		.byte	0x1
 15993 2411 5604     		.2byte	0x456
 15994 2413 2A0A0000 		.4byte	0xa2a
 15995 2417 02       		.uleb128 0x2
 15996 2418 91       		.byte	0x91
 15997 2419 77       		.sleb128 -9
 15998 241a 00       		.byte	0
ARM GAS  /tmp/cc1ELVNa.s 			page 285


 15999 241b 22       		.uleb128 0x22
 16000 241c 59150000 		.4byte	.LASF505
 16001 2420 01       		.byte	0x1
 16002 2421 6B04     		.2byte	0x46b
 16003 2423 AA0A0000 		.4byte	0xaaa
 16004 2427 B0110000 		.4byte	.LFB317
 16005 242b 36000000 		.4byte	.LFE317-.LFB317
 16006 242f 01       		.uleb128 0x1
 16007 2430 9C       		.byte	0x9c
 16008 2431 54240000 		.4byte	0x2454
 16009 2435 23       		.uleb128 0x23
 16010 2436 CC000000 		.4byte	.LASF450
 16011 243a 01       		.byte	0x1
 16012 243b 6B04     		.2byte	0x46b
 16013 243d 3E030000 		.4byte	0x33e
 16014 2441 02       		.uleb128 0x2
 16015 2442 91       		.byte	0x91
 16016 2443 74       		.sleb128 -12
 16017 2444 23       		.uleb128 0x23
 16018 2445 13130000 		.4byte	.LASF446
 16019 2449 01       		.byte	0x1
 16020 244a 6B04     		.2byte	0x46b
 16021 244c 54240000 		.4byte	0x2454
 16022 2450 02       		.uleb128 0x2
 16023 2451 91       		.byte	0x91
 16024 2452 70       		.sleb128 -16
 16025 2453 00       		.byte	0
 16026 2454 09       		.uleb128 0x9
 16027 2455 04       		.byte	0x4
 16028 2456 780E0000 		.4byte	0xe78
 16029 245a 22       		.uleb128 0x22
 16030 245b 62070000 		.4byte	.LASF506
 16031 245f 01       		.byte	0x1
 16032 2460 7C04     		.2byte	0x47c
 16033 2462 AA0A0000 		.4byte	0xaaa
 16034 2466 F0110000 		.4byte	.LFB318
 16035 246a 68000000 		.4byte	.LFE318-.LFB318
 16036 246e 01       		.uleb128 0x1
 16037 246f 9C       		.byte	0x9c
 16038 2470 A2240000 		.4byte	0x24a2
 16039 2474 23       		.uleb128 0x23
 16040 2475 CC000000 		.4byte	.LASF450
 16041 2479 01       		.byte	0x1
 16042 247a 7C04     		.2byte	0x47c
 16043 247c 3E030000 		.4byte	0x33e
 16044 2480 02       		.uleb128 0x2
 16045 2481 91       		.byte	0x91
 16046 2482 6C       		.sleb128 -20
 16047 2483 23       		.uleb128 0x23
 16048 2484 2B290000 		.4byte	.LASF455
 16049 2488 01       		.byte	0x1
 16050 2489 7C04     		.2byte	0x47c
 16051 248b 9A0E0000 		.4byte	0xe9a
 16052 248f 02       		.uleb128 0x2
 16053 2490 91       		.byte	0x91
 16054 2491 6B       		.sleb128 -21
 16055 2492 24       		.uleb128 0x24
ARM GAS  /tmp/cc1ELVNa.s 			page 286


 16056 2493 13130000 		.4byte	.LASF446
 16057 2497 01       		.byte	0x1
 16058 2498 7E04     		.2byte	0x47e
 16059 249a 2A0A0000 		.4byte	0xa2a
 16060 249e 02       		.uleb128 0x2
 16061 249f 91       		.byte	0x91
 16062 24a0 77       		.sleb128 -9
 16063 24a1 00       		.byte	0
 16064 24a2 22       		.uleb128 0x22
 16065 24a3 1D150000 		.4byte	.LASF507
 16066 24a7 01       		.byte	0x1
 16067 24a8 9304     		.2byte	0x493
 16068 24aa AA0A0000 		.4byte	0xaaa
 16069 24ae 60120000 		.4byte	.LFB319
 16070 24b2 36000000 		.4byte	.LFE319-.LFB319
 16071 24b6 01       		.uleb128 0x1
 16072 24b7 9C       		.byte	0x9c
 16073 24b8 DB240000 		.4byte	0x24db
 16074 24bc 23       		.uleb128 0x23
 16075 24bd CC000000 		.4byte	.LASF450
 16076 24c1 01       		.byte	0x1
 16077 24c2 9304     		.2byte	0x493
 16078 24c4 3E030000 		.4byte	0x33e
 16079 24c8 02       		.uleb128 0x2
 16080 24c9 91       		.byte	0x91
 16081 24ca 74       		.sleb128 -12
 16082 24cb 23       		.uleb128 0x23
 16083 24cc 13130000 		.4byte	.LASF446
 16084 24d0 01       		.byte	0x1
 16085 24d1 9304     		.2byte	0x493
 16086 24d3 DB240000 		.4byte	0x24db
 16087 24d7 02       		.uleb128 0x2
 16088 24d8 91       		.byte	0x91
 16089 24d9 70       		.sleb128 -16
 16090 24da 00       		.byte	0
 16091 24db 09       		.uleb128 0x9
 16092 24dc 04       		.byte	0x4
 16093 24dd 9A0E0000 		.4byte	0xe9a
 16094 24e1 22       		.uleb128 0x22
 16095 24e2 AA300000 		.4byte	.LASF508
 16096 24e6 01       		.byte	0x1
 16097 24e7 A404     		.2byte	0x4a4
 16098 24e9 AA0A0000 		.4byte	0xaaa
 16099 24ed A0120000 		.4byte	.LFB320
 16100 24f1 68000000 		.4byte	.LFE320-.LFB320
 16101 24f5 01       		.uleb128 0x1
 16102 24f6 9C       		.byte	0x9c
 16103 24f7 29250000 		.4byte	0x2529
 16104 24fb 23       		.uleb128 0x23
 16105 24fc CC000000 		.4byte	.LASF450
 16106 2500 01       		.byte	0x1
 16107 2501 A404     		.2byte	0x4a4
 16108 2503 3E030000 		.4byte	0x33e
 16109 2507 02       		.uleb128 0x2
 16110 2508 91       		.byte	0x91
 16111 2509 6C       		.sleb128 -20
 16112 250a 23       		.uleb128 0x23
ARM GAS  /tmp/cc1ELVNa.s 			page 287


 16113 250b 2B290000 		.4byte	.LASF455
 16114 250f 01       		.byte	0x1
 16115 2510 A404     		.2byte	0x4a4
 16116 2512 BC0E0000 		.4byte	0xebc
 16117 2516 02       		.uleb128 0x2
 16118 2517 91       		.byte	0x91
 16119 2518 6B       		.sleb128 -21
 16120 2519 24       		.uleb128 0x24
 16121 251a 13130000 		.4byte	.LASF446
 16122 251e 01       		.byte	0x1
 16123 251f A604     		.2byte	0x4a6
 16124 2521 2A0A0000 		.4byte	0xa2a
 16125 2525 02       		.uleb128 0x2
 16126 2526 91       		.byte	0x91
 16127 2527 77       		.sleb128 -9
 16128 2528 00       		.byte	0
 16129 2529 22       		.uleb128 0x22
 16130 252a EF360000 		.4byte	.LASF509
 16131 252e 01       		.byte	0x1
 16132 252f BB04     		.2byte	0x4bb
 16133 2531 AA0A0000 		.4byte	0xaaa
 16134 2535 10130000 		.4byte	.LFB321
 16135 2539 36000000 		.4byte	.LFE321-.LFB321
 16136 253d 01       		.uleb128 0x1
 16137 253e 9C       		.byte	0x9c
 16138 253f 62250000 		.4byte	0x2562
 16139 2543 23       		.uleb128 0x23
 16140 2544 CC000000 		.4byte	.LASF450
 16141 2548 01       		.byte	0x1
 16142 2549 BB04     		.2byte	0x4bb
 16143 254b 3E030000 		.4byte	0x33e
 16144 254f 02       		.uleb128 0x2
 16145 2550 91       		.byte	0x91
 16146 2551 74       		.sleb128 -12
 16147 2552 23       		.uleb128 0x23
 16148 2553 13130000 		.4byte	.LASF446
 16149 2557 01       		.byte	0x1
 16150 2558 BB04     		.2byte	0x4bb
 16151 255a 62250000 		.4byte	0x2562
 16152 255e 02       		.uleb128 0x2
 16153 255f 91       		.byte	0x91
 16154 2560 70       		.sleb128 -16
 16155 2561 00       		.byte	0
 16156 2562 09       		.uleb128 0x9
 16157 2563 04       		.byte	0x4
 16158 2564 BC0E0000 		.4byte	0xebc
 16159 2568 22       		.uleb128 0x22
 16160 2569 7B300000 		.4byte	.LASF510
 16161 256d 01       		.byte	0x1
 16162 256e CC04     		.2byte	0x4cc
 16163 2570 AA0A0000 		.4byte	0xaaa
 16164 2574 50130000 		.4byte	.LFB322
 16165 2578 68000000 		.4byte	.LFE322-.LFB322
 16166 257c 01       		.uleb128 0x1
 16167 257d 9C       		.byte	0x9c
 16168 257e B0250000 		.4byte	0x25b0
 16169 2582 23       		.uleb128 0x23
ARM GAS  /tmp/cc1ELVNa.s 			page 288


 16170 2583 CC000000 		.4byte	.LASF450
 16171 2587 01       		.byte	0x1
 16172 2588 CC04     		.2byte	0x4cc
 16173 258a 3E030000 		.4byte	0x33e
 16174 258e 02       		.uleb128 0x2
 16175 258f 91       		.byte	0x91
 16176 2590 6C       		.sleb128 -20
 16177 2591 23       		.uleb128 0x23
 16178 2592 2B290000 		.4byte	.LASF455
 16179 2596 01       		.byte	0x1
 16180 2597 CC04     		.2byte	0x4cc
 16181 2599 DF0E0000 		.4byte	0xedf
 16182 259d 02       		.uleb128 0x2
 16183 259e 91       		.byte	0x91
 16184 259f 6B       		.sleb128 -21
 16185 25a0 24       		.uleb128 0x24
 16186 25a1 13130000 		.4byte	.LASF446
 16187 25a5 01       		.byte	0x1
 16188 25a6 CE04     		.2byte	0x4ce
 16189 25a8 2A0A0000 		.4byte	0xa2a
 16190 25ac 02       		.uleb128 0x2
 16191 25ad 91       		.byte	0x91
 16192 25ae 77       		.sleb128 -9
 16193 25af 00       		.byte	0
 16194 25b0 22       		.uleb128 0x22
 16195 25b1 13200000 		.4byte	.LASF511
 16196 25b5 01       		.byte	0x1
 16197 25b6 E304     		.2byte	0x4e3
 16198 25b8 AA0A0000 		.4byte	0xaaa
 16199 25bc C0130000 		.4byte	.LFB323
 16200 25c0 36000000 		.4byte	.LFE323-.LFB323
 16201 25c4 01       		.uleb128 0x1
 16202 25c5 9C       		.byte	0x9c
 16203 25c6 E9250000 		.4byte	0x25e9
 16204 25ca 23       		.uleb128 0x23
 16205 25cb CC000000 		.4byte	.LASF450
 16206 25cf 01       		.byte	0x1
 16207 25d0 E304     		.2byte	0x4e3
 16208 25d2 3E030000 		.4byte	0x33e
 16209 25d6 02       		.uleb128 0x2
 16210 25d7 91       		.byte	0x91
 16211 25d8 74       		.sleb128 -12
 16212 25d9 23       		.uleb128 0x23
 16213 25da 13130000 		.4byte	.LASF446
 16214 25de 01       		.byte	0x1
 16215 25df E304     		.2byte	0x4e3
 16216 25e1 E9250000 		.4byte	0x25e9
 16217 25e5 02       		.uleb128 0x2
 16218 25e6 91       		.byte	0x91
 16219 25e7 70       		.sleb128 -16
 16220 25e8 00       		.byte	0
 16221 25e9 09       		.uleb128 0x9
 16222 25ea 04       		.byte	0x4
 16223 25eb DF0E0000 		.4byte	0xedf
 16224 25ef 22       		.uleb128 0x22
 16225 25f0 0F380000 		.4byte	.LASF512
 16226 25f4 01       		.byte	0x1
ARM GAS  /tmp/cc1ELVNa.s 			page 289


 16227 25f5 F404     		.2byte	0x4f4
 16228 25f7 AA0A0000 		.4byte	0xaaa
 16229 25fb 00140000 		.4byte	.LFB324
 16230 25ff 68000000 		.4byte	.LFE324-.LFB324
 16231 2603 01       		.uleb128 0x1
 16232 2604 9C       		.byte	0x9c
 16233 2605 37260000 		.4byte	0x2637
 16234 2609 23       		.uleb128 0x23
 16235 260a CC000000 		.4byte	.LASF450
 16236 260e 01       		.byte	0x1
 16237 260f F404     		.2byte	0x4f4
 16238 2611 3E030000 		.4byte	0x33e
 16239 2615 02       		.uleb128 0x2
 16240 2616 91       		.byte	0x91
 16241 2617 6C       		.sleb128 -20
 16242 2618 23       		.uleb128 0x23
 16243 2619 2B290000 		.4byte	.LASF455
 16244 261d 01       		.byte	0x1
 16245 261e F404     		.2byte	0x4f4
 16246 2620 020F0000 		.4byte	0xf02
 16247 2624 02       		.uleb128 0x2
 16248 2625 91       		.byte	0x91
 16249 2626 6B       		.sleb128 -21
 16250 2627 24       		.uleb128 0x24
 16251 2628 13130000 		.4byte	.LASF446
 16252 262c 01       		.byte	0x1
 16253 262d F604     		.2byte	0x4f6
 16254 262f 2A0A0000 		.4byte	0xa2a
 16255 2633 02       		.uleb128 0x2
 16256 2634 91       		.byte	0x91
 16257 2635 77       		.sleb128 -9
 16258 2636 00       		.byte	0
 16259 2637 22       		.uleb128 0x22
 16260 2638 9F090000 		.4byte	.LASF513
 16261 263c 01       		.byte	0x1
 16262 263d 0B05     		.2byte	0x50b
 16263 263f AA0A0000 		.4byte	0xaaa
 16264 2643 70140000 		.4byte	.LFB325
 16265 2647 36000000 		.4byte	.LFE325-.LFB325
 16266 264b 01       		.uleb128 0x1
 16267 264c 9C       		.byte	0x9c
 16268 264d 70260000 		.4byte	0x2670
 16269 2651 23       		.uleb128 0x23
 16270 2652 CC000000 		.4byte	.LASF450
 16271 2656 01       		.byte	0x1
 16272 2657 0B05     		.2byte	0x50b
 16273 2659 3E030000 		.4byte	0x33e
 16274 265d 02       		.uleb128 0x2
 16275 265e 91       		.byte	0x91
 16276 265f 74       		.sleb128 -12
 16277 2660 23       		.uleb128 0x23
 16278 2661 13130000 		.4byte	.LASF446
 16279 2665 01       		.byte	0x1
 16280 2666 0B05     		.2byte	0x50b
 16281 2668 70260000 		.4byte	0x2670
 16282 266c 02       		.uleb128 0x2
 16283 266d 91       		.byte	0x91
ARM GAS  /tmp/cc1ELVNa.s 			page 290


 16284 266e 70       		.sleb128 -16
 16285 266f 00       		.byte	0
 16286 2670 09       		.uleb128 0x9
 16287 2671 04       		.byte	0x4
 16288 2672 020F0000 		.4byte	0xf02
 16289 2676 22       		.uleb128 0x22
 16290 2677 4C290000 		.4byte	.LASF514
 16291 267b 01       		.byte	0x1
 16292 267c 1C05     		.2byte	0x51c
 16293 267e AA0A0000 		.4byte	0xaaa
 16294 2682 B0140000 		.4byte	.LFB326
 16295 2686 68000000 		.4byte	.LFE326-.LFB326
 16296 268a 01       		.uleb128 0x1
 16297 268b 9C       		.byte	0x9c
 16298 268c BE260000 		.4byte	0x26be
 16299 2690 23       		.uleb128 0x23
 16300 2691 CC000000 		.4byte	.LASF450
 16301 2695 01       		.byte	0x1
 16302 2696 1C05     		.2byte	0x51c
 16303 2698 3E030000 		.4byte	0x33e
 16304 269c 02       		.uleb128 0x2
 16305 269d 91       		.byte	0x91
 16306 269e 6C       		.sleb128 -20
 16307 269f 23       		.uleb128 0x23
 16308 26a0 2B290000 		.4byte	.LASF455
 16309 26a4 01       		.byte	0x1
 16310 26a5 1C05     		.2byte	0x51c
 16311 26a7 240F0000 		.4byte	0xf24
 16312 26ab 02       		.uleb128 0x2
 16313 26ac 91       		.byte	0x91
 16314 26ad 6B       		.sleb128 -21
 16315 26ae 24       		.uleb128 0x24
 16316 26af 13130000 		.4byte	.LASF446
 16317 26b3 01       		.byte	0x1
 16318 26b4 1E05     		.2byte	0x51e
 16319 26b6 2A0A0000 		.4byte	0xa2a
 16320 26ba 02       		.uleb128 0x2
 16321 26bb 91       		.byte	0x91
 16322 26bc 77       		.sleb128 -9
 16323 26bd 00       		.byte	0
 16324 26be 22       		.uleb128 0x22
 16325 26bf 9C0D0000 		.4byte	.LASF515
 16326 26c3 01       		.byte	0x1
 16327 26c4 3305     		.2byte	0x533
 16328 26c6 AA0A0000 		.4byte	0xaaa
 16329 26ca 20150000 		.4byte	.LFB327
 16330 26ce 36000000 		.4byte	.LFE327-.LFB327
 16331 26d2 01       		.uleb128 0x1
 16332 26d3 9C       		.byte	0x9c
 16333 26d4 F7260000 		.4byte	0x26f7
 16334 26d8 23       		.uleb128 0x23
 16335 26d9 CC000000 		.4byte	.LASF450
 16336 26dd 01       		.byte	0x1
 16337 26de 3305     		.2byte	0x533
 16338 26e0 3E030000 		.4byte	0x33e
 16339 26e4 02       		.uleb128 0x2
 16340 26e5 91       		.byte	0x91
ARM GAS  /tmp/cc1ELVNa.s 			page 291


 16341 26e6 74       		.sleb128 -12
 16342 26e7 23       		.uleb128 0x23
 16343 26e8 13130000 		.4byte	.LASF446
 16344 26ec 01       		.byte	0x1
 16345 26ed 3305     		.2byte	0x533
 16346 26ef F7260000 		.4byte	0x26f7
 16347 26f3 02       		.uleb128 0x2
 16348 26f4 91       		.byte	0x91
 16349 26f5 70       		.sleb128 -16
 16350 26f6 00       		.byte	0
 16351 26f7 09       		.uleb128 0x9
 16352 26f8 04       		.byte	0x4
 16353 26f9 240F0000 		.4byte	0xf24
 16354 26fd 22       		.uleb128 0x22
 16355 26fe 9E210000 		.4byte	.LASF516
 16356 2702 01       		.byte	0x1
 16357 2703 4405     		.2byte	0x544
 16358 2705 AA0A0000 		.4byte	0xaaa
 16359 2709 60150000 		.4byte	.LFB328
 16360 270d 68000000 		.4byte	.LFE328-.LFB328
 16361 2711 01       		.uleb128 0x1
 16362 2712 9C       		.byte	0x9c
 16363 2713 45270000 		.4byte	0x2745
 16364 2717 23       		.uleb128 0x23
 16365 2718 CC000000 		.4byte	.LASF450
 16366 271c 01       		.byte	0x1
 16367 271d 4405     		.2byte	0x544
 16368 271f 3E030000 		.4byte	0x33e
 16369 2723 02       		.uleb128 0x2
 16370 2724 91       		.byte	0x91
 16371 2725 6C       		.sleb128 -20
 16372 2726 23       		.uleb128 0x23
 16373 2727 2B290000 		.4byte	.LASF455
 16374 272b 01       		.byte	0x1
 16375 272c 4405     		.2byte	0x544
 16376 272e 520F0000 		.4byte	0xf52
 16377 2732 02       		.uleb128 0x2
 16378 2733 91       		.byte	0x91
 16379 2734 6B       		.sleb128 -21
 16380 2735 24       		.uleb128 0x24
 16381 2736 13130000 		.4byte	.LASF446
 16382 273a 01       		.byte	0x1
 16383 273b 4605     		.2byte	0x546
 16384 273d 2A0A0000 		.4byte	0xa2a
 16385 2741 02       		.uleb128 0x2
 16386 2742 91       		.byte	0x91
 16387 2743 77       		.sleb128 -9
 16388 2744 00       		.byte	0
 16389 2745 22       		.uleb128 0x22
 16390 2746 D8320000 		.4byte	.LASF517
 16391 274a 01       		.byte	0x1
 16392 274b 5B05     		.2byte	0x55b
 16393 274d AA0A0000 		.4byte	0xaaa
 16394 2751 D0150000 		.4byte	.LFB329
 16395 2755 36000000 		.4byte	.LFE329-.LFB329
 16396 2759 01       		.uleb128 0x1
 16397 275a 9C       		.byte	0x9c
ARM GAS  /tmp/cc1ELVNa.s 			page 292


 16398 275b 7E270000 		.4byte	0x277e
 16399 275f 23       		.uleb128 0x23
 16400 2760 CC000000 		.4byte	.LASF450
 16401 2764 01       		.byte	0x1
 16402 2765 5B05     		.2byte	0x55b
 16403 2767 3E030000 		.4byte	0x33e
 16404 276b 02       		.uleb128 0x2
 16405 276c 91       		.byte	0x91
 16406 276d 74       		.sleb128 -12
 16407 276e 23       		.uleb128 0x23
 16408 276f 13130000 		.4byte	.LASF446
 16409 2773 01       		.byte	0x1
 16410 2774 5B05     		.2byte	0x55b
 16411 2776 7E270000 		.4byte	0x277e
 16412 277a 02       		.uleb128 0x2
 16413 277b 91       		.byte	0x91
 16414 277c 70       		.sleb128 -16
 16415 277d 00       		.byte	0
 16416 277e 09       		.uleb128 0x9
 16417 277f 04       		.byte	0x4
 16418 2780 520F0000 		.4byte	0xf52
 16419 2784 22       		.uleb128 0x22
 16420 2785 7D180000 		.4byte	.LASF518
 16421 2789 01       		.byte	0x1
 16422 278a 6C05     		.2byte	0x56c
 16423 278c AA0A0000 		.4byte	0xaaa
 16424 2790 10160000 		.4byte	.LFB330
 16425 2794 68000000 		.4byte	.LFE330-.LFB330
 16426 2798 01       		.uleb128 0x1
 16427 2799 9C       		.byte	0x9c
 16428 279a CC270000 		.4byte	0x27cc
 16429 279e 23       		.uleb128 0x23
 16430 279f CC000000 		.4byte	.LASF450
 16431 27a3 01       		.byte	0x1
 16432 27a4 6C05     		.2byte	0x56c
 16433 27a6 3E030000 		.4byte	0x33e
 16434 27aa 02       		.uleb128 0x2
 16435 27ab 91       		.byte	0x91
 16436 27ac 6C       		.sleb128 -20
 16437 27ad 23       		.uleb128 0x23
 16438 27ae 2B290000 		.4byte	.LASF455
 16439 27b2 01       		.byte	0x1
 16440 27b3 6C05     		.2byte	0x56c
 16441 27b5 740F0000 		.4byte	0xf74
 16442 27b9 02       		.uleb128 0x2
 16443 27ba 91       		.byte	0x91
 16444 27bb 6B       		.sleb128 -21
 16445 27bc 24       		.uleb128 0x24
 16446 27bd 13130000 		.4byte	.LASF446
 16447 27c1 01       		.byte	0x1
 16448 27c2 6E05     		.2byte	0x56e
 16449 27c4 2A0A0000 		.4byte	0xa2a
 16450 27c8 02       		.uleb128 0x2
 16451 27c9 91       		.byte	0x91
 16452 27ca 77       		.sleb128 -9
 16453 27cb 00       		.byte	0
 16454 27cc 22       		.uleb128 0x22
ARM GAS  /tmp/cc1ELVNa.s 			page 293


 16455 27cd 95150000 		.4byte	.LASF519
 16456 27d1 01       		.byte	0x1
 16457 27d2 8305     		.2byte	0x583
 16458 27d4 AA0A0000 		.4byte	0xaaa
 16459 27d8 80160000 		.4byte	.LFB331
 16460 27dc 36000000 		.4byte	.LFE331-.LFB331
 16461 27e0 01       		.uleb128 0x1
 16462 27e1 9C       		.byte	0x9c
 16463 27e2 05280000 		.4byte	0x2805
 16464 27e6 23       		.uleb128 0x23
 16465 27e7 CC000000 		.4byte	.LASF450
 16466 27eb 01       		.byte	0x1
 16467 27ec 8305     		.2byte	0x583
 16468 27ee 3E030000 		.4byte	0x33e
 16469 27f2 02       		.uleb128 0x2
 16470 27f3 91       		.byte	0x91
 16471 27f4 74       		.sleb128 -12
 16472 27f5 23       		.uleb128 0x23
 16473 27f6 13130000 		.4byte	.LASF446
 16474 27fa 01       		.byte	0x1
 16475 27fb 8305     		.2byte	0x583
 16476 27fd 05280000 		.4byte	0x2805
 16477 2801 02       		.uleb128 0x2
 16478 2802 91       		.byte	0x91
 16479 2803 70       		.sleb128 -16
 16480 2804 00       		.byte	0
 16481 2805 09       		.uleb128 0x9
 16482 2806 04       		.byte	0x4
 16483 2807 740F0000 		.4byte	0xf74
 16484 280b 22       		.uleb128 0x22
 16485 280c 51000000 		.4byte	.LASF520
 16486 2810 01       		.byte	0x1
 16487 2811 9405     		.2byte	0x594
 16488 2813 AA0A0000 		.4byte	0xaaa
 16489 2817 C0160000 		.4byte	.LFB332
 16490 281b 68000000 		.4byte	.LFE332-.LFB332
 16491 281f 01       		.uleb128 0x1
 16492 2820 9C       		.byte	0x9c
 16493 2821 53280000 		.4byte	0x2853
 16494 2825 23       		.uleb128 0x23
 16495 2826 CC000000 		.4byte	.LASF450
 16496 282a 01       		.byte	0x1
 16497 282b 9405     		.2byte	0x594
 16498 282d 3E030000 		.4byte	0x33e
 16499 2831 02       		.uleb128 0x2
 16500 2832 91       		.byte	0x91
 16501 2833 6C       		.sleb128 -20
 16502 2834 23       		.uleb128 0x23
 16503 2835 2B290000 		.4byte	.LASF455
 16504 2839 01       		.byte	0x1
 16505 283a 9405     		.2byte	0x594
 16506 283c 970F0000 		.4byte	0xf97
 16507 2840 02       		.uleb128 0x2
 16508 2841 91       		.byte	0x91
 16509 2842 6B       		.sleb128 -21
 16510 2843 24       		.uleb128 0x24
 16511 2844 13130000 		.4byte	.LASF446
ARM GAS  /tmp/cc1ELVNa.s 			page 294


 16512 2848 01       		.byte	0x1
 16513 2849 9605     		.2byte	0x596
 16514 284b 2A0A0000 		.4byte	0xa2a
 16515 284f 02       		.uleb128 0x2
 16516 2850 91       		.byte	0x91
 16517 2851 77       		.sleb128 -9
 16518 2852 00       		.byte	0
 16519 2853 22       		.uleb128 0x22
 16520 2854 430B0000 		.4byte	.LASF521
 16521 2858 01       		.byte	0x1
 16522 2859 AB05     		.2byte	0x5ab
 16523 285b AA0A0000 		.4byte	0xaaa
 16524 285f 30170000 		.4byte	.LFB333
 16525 2863 36000000 		.4byte	.LFE333-.LFB333
 16526 2867 01       		.uleb128 0x1
 16527 2868 9C       		.byte	0x9c
 16528 2869 8C280000 		.4byte	0x288c
 16529 286d 23       		.uleb128 0x23
 16530 286e CC000000 		.4byte	.LASF450
 16531 2872 01       		.byte	0x1
 16532 2873 AB05     		.2byte	0x5ab
 16533 2875 3E030000 		.4byte	0x33e
 16534 2879 02       		.uleb128 0x2
 16535 287a 91       		.byte	0x91
 16536 287b 74       		.sleb128 -12
 16537 287c 23       		.uleb128 0x23
 16538 287d 13130000 		.4byte	.LASF446
 16539 2881 01       		.byte	0x1
 16540 2882 AB05     		.2byte	0x5ab
 16541 2884 8C280000 		.4byte	0x288c
 16542 2888 02       		.uleb128 0x2
 16543 2889 91       		.byte	0x91
 16544 288a 70       		.sleb128 -16
 16545 288b 00       		.byte	0
 16546 288c 09       		.uleb128 0x9
 16547 288d 04       		.byte	0x4
 16548 288e 970F0000 		.4byte	0xf97
 16549 2892 22       		.uleb128 0x22
 16550 2893 DD240000 		.4byte	.LASF522
 16551 2897 01       		.byte	0x1
 16552 2898 BC05     		.2byte	0x5bc
 16553 289a AA0A0000 		.4byte	0xaaa
 16554 289e 70170000 		.4byte	.LFB334
 16555 28a2 68000000 		.4byte	.LFE334-.LFB334
 16556 28a6 01       		.uleb128 0x1
 16557 28a7 9C       		.byte	0x9c
 16558 28a8 DA280000 		.4byte	0x28da
 16559 28ac 23       		.uleb128 0x23
 16560 28ad CC000000 		.4byte	.LASF450
 16561 28b1 01       		.byte	0x1
 16562 28b2 BC05     		.2byte	0x5bc
 16563 28b4 3E030000 		.4byte	0x33e
 16564 28b8 02       		.uleb128 0x2
 16565 28b9 91       		.byte	0x91
 16566 28ba 6C       		.sleb128 -20
 16567 28bb 23       		.uleb128 0x23
 16568 28bc 2B290000 		.4byte	.LASF455
ARM GAS  /tmp/cc1ELVNa.s 			page 295


 16569 28c0 01       		.byte	0x1
 16570 28c1 BC05     		.2byte	0x5bc
 16571 28c3 B90F0000 		.4byte	0xfb9
 16572 28c7 02       		.uleb128 0x2
 16573 28c8 91       		.byte	0x91
 16574 28c9 6B       		.sleb128 -21
 16575 28ca 24       		.uleb128 0x24
 16576 28cb 13130000 		.4byte	.LASF446
 16577 28cf 01       		.byte	0x1
 16578 28d0 BE05     		.2byte	0x5be
 16579 28d2 2A0A0000 		.4byte	0xa2a
 16580 28d6 02       		.uleb128 0x2
 16581 28d7 91       		.byte	0x91
 16582 28d8 77       		.sleb128 -9
 16583 28d9 00       		.byte	0
 16584 28da 22       		.uleb128 0x22
 16585 28db 1C1F0000 		.4byte	.LASF523
 16586 28df 01       		.byte	0x1
 16587 28e0 D305     		.2byte	0x5d3
 16588 28e2 AA0A0000 		.4byte	0xaaa
 16589 28e6 E0170000 		.4byte	.LFB335
 16590 28ea 36000000 		.4byte	.LFE335-.LFB335
 16591 28ee 01       		.uleb128 0x1
 16592 28ef 9C       		.byte	0x9c
 16593 28f0 13290000 		.4byte	0x2913
 16594 28f4 23       		.uleb128 0x23
 16595 28f5 CC000000 		.4byte	.LASF450
 16596 28f9 01       		.byte	0x1
 16597 28fa D305     		.2byte	0x5d3
 16598 28fc 3E030000 		.4byte	0x33e
 16599 2900 02       		.uleb128 0x2
 16600 2901 91       		.byte	0x91
 16601 2902 74       		.sleb128 -12
 16602 2903 23       		.uleb128 0x23
 16603 2904 13130000 		.4byte	.LASF446
 16604 2908 01       		.byte	0x1
 16605 2909 D305     		.2byte	0x5d3
 16606 290b 13290000 		.4byte	0x2913
 16607 290f 02       		.uleb128 0x2
 16608 2910 91       		.byte	0x91
 16609 2911 70       		.sleb128 -16
 16610 2912 00       		.byte	0
 16611 2913 09       		.uleb128 0x9
 16612 2914 04       		.byte	0x4
 16613 2915 B90F0000 		.4byte	0xfb9
 16614 2919 22       		.uleb128 0x22
 16615 291a CD110000 		.4byte	.LASF524
 16616 291e 01       		.byte	0x1
 16617 291f E405     		.2byte	0x5e4
 16618 2921 AA0A0000 		.4byte	0xaaa
 16619 2925 20180000 		.4byte	.LFB336
 16620 2929 68000000 		.4byte	.LFE336-.LFB336
 16621 292d 01       		.uleb128 0x1
 16622 292e 9C       		.byte	0x9c
 16623 292f 61290000 		.4byte	0x2961
 16624 2933 23       		.uleb128 0x23
 16625 2934 CC000000 		.4byte	.LASF450
ARM GAS  /tmp/cc1ELVNa.s 			page 296


 16626 2938 01       		.byte	0x1
 16627 2939 E405     		.2byte	0x5e4
 16628 293b 3E030000 		.4byte	0x33e
 16629 293f 02       		.uleb128 0x2
 16630 2940 91       		.byte	0x91
 16631 2941 6C       		.sleb128 -20
 16632 2942 23       		.uleb128 0x23
 16633 2943 2B290000 		.4byte	.LASF455
 16634 2947 01       		.byte	0x1
 16635 2948 E405     		.2byte	0x5e4
 16636 294a DB0F0000 		.4byte	0xfdb
 16637 294e 02       		.uleb128 0x2
 16638 294f 91       		.byte	0x91
 16639 2950 6B       		.sleb128 -21
 16640 2951 24       		.uleb128 0x24
 16641 2952 13130000 		.4byte	.LASF446
 16642 2956 01       		.byte	0x1
 16643 2957 E605     		.2byte	0x5e6
 16644 2959 2A0A0000 		.4byte	0xa2a
 16645 295d 02       		.uleb128 0x2
 16646 295e 91       		.byte	0x91
 16647 295f 77       		.sleb128 -9
 16648 2960 00       		.byte	0
 16649 2961 22       		.uleb128 0x22
 16650 2962 47270000 		.4byte	.LASF525
 16651 2966 01       		.byte	0x1
 16652 2967 FB05     		.2byte	0x5fb
 16653 2969 AA0A0000 		.4byte	0xaaa
 16654 296d 90180000 		.4byte	.LFB337
 16655 2971 36000000 		.4byte	.LFE337-.LFB337
 16656 2975 01       		.uleb128 0x1
 16657 2976 9C       		.byte	0x9c
 16658 2977 9A290000 		.4byte	0x299a
 16659 297b 23       		.uleb128 0x23
 16660 297c CC000000 		.4byte	.LASF450
 16661 2980 01       		.byte	0x1
 16662 2981 FB05     		.2byte	0x5fb
 16663 2983 3E030000 		.4byte	0x33e
 16664 2987 02       		.uleb128 0x2
 16665 2988 91       		.byte	0x91
 16666 2989 74       		.sleb128 -12
 16667 298a 23       		.uleb128 0x23
 16668 298b 13130000 		.4byte	.LASF446
 16669 298f 01       		.byte	0x1
 16670 2990 FB05     		.2byte	0x5fb
 16671 2992 9A290000 		.4byte	0x299a
 16672 2996 02       		.uleb128 0x2
 16673 2997 91       		.byte	0x91
 16674 2998 70       		.sleb128 -16
 16675 2999 00       		.byte	0
 16676 299a 09       		.uleb128 0x9
 16677 299b 04       		.byte	0x4
 16678 299c DB0F0000 		.4byte	0xfdb
 16679 29a0 22       		.uleb128 0x22
 16680 29a1 C2240000 		.4byte	.LASF526
 16681 29a5 01       		.byte	0x1
 16682 29a6 0C06     		.2byte	0x60c
ARM GAS  /tmp/cc1ELVNa.s 			page 297


 16683 29a8 AA0A0000 		.4byte	0xaaa
 16684 29ac D0180000 		.4byte	.LFB338
 16685 29b0 68000000 		.4byte	.LFE338-.LFB338
 16686 29b4 01       		.uleb128 0x1
 16687 29b5 9C       		.byte	0x9c
 16688 29b6 E8290000 		.4byte	0x29e8
 16689 29ba 23       		.uleb128 0x23
 16690 29bb CC000000 		.4byte	.LASF450
 16691 29bf 01       		.byte	0x1
 16692 29c0 0C06     		.2byte	0x60c
 16693 29c2 3E030000 		.4byte	0x33e
 16694 29c6 02       		.uleb128 0x2
 16695 29c7 91       		.byte	0x91
 16696 29c8 6C       		.sleb128 -20
 16697 29c9 23       		.uleb128 0x23
 16698 29ca 2B290000 		.4byte	.LASF455
 16699 29ce 01       		.byte	0x1
 16700 29cf 0C06     		.2byte	0x60c
 16701 29d1 FD0F0000 		.4byte	0xffd
 16702 29d5 02       		.uleb128 0x2
 16703 29d6 91       		.byte	0x91
 16704 29d7 6B       		.sleb128 -21
 16705 29d8 24       		.uleb128 0x24
 16706 29d9 13130000 		.4byte	.LASF446
 16707 29dd 01       		.byte	0x1
 16708 29de 0E06     		.2byte	0x60e
 16709 29e0 2A0A0000 		.4byte	0xa2a
 16710 29e4 02       		.uleb128 0x2
 16711 29e5 91       		.byte	0x91
 16712 29e6 77       		.sleb128 -9
 16713 29e7 00       		.byte	0
 16714 29e8 22       		.uleb128 0x22
 16715 29e9 180A0000 		.4byte	.LASF527
 16716 29ed 01       		.byte	0x1
 16717 29ee 2306     		.2byte	0x623
 16718 29f0 AA0A0000 		.4byte	0xaaa
 16719 29f4 40190000 		.4byte	.LFB339
 16720 29f8 36000000 		.4byte	.LFE339-.LFB339
 16721 29fc 01       		.uleb128 0x1
 16722 29fd 9C       		.byte	0x9c
 16723 29fe 212A0000 		.4byte	0x2a21
 16724 2a02 23       		.uleb128 0x23
 16725 2a03 CC000000 		.4byte	.LASF450
 16726 2a07 01       		.byte	0x1
 16727 2a08 2306     		.2byte	0x623
 16728 2a0a 3E030000 		.4byte	0x33e
 16729 2a0e 02       		.uleb128 0x2
 16730 2a0f 91       		.byte	0x91
 16731 2a10 74       		.sleb128 -12
 16732 2a11 23       		.uleb128 0x23
 16733 2a12 13130000 		.4byte	.LASF446
 16734 2a16 01       		.byte	0x1
 16735 2a17 2306     		.2byte	0x623
 16736 2a19 212A0000 		.4byte	0x2a21
 16737 2a1d 02       		.uleb128 0x2
 16738 2a1e 91       		.byte	0x91
 16739 2a1f 70       		.sleb128 -16
ARM GAS  /tmp/cc1ELVNa.s 			page 298


 16740 2a20 00       		.byte	0
 16741 2a21 09       		.uleb128 0x9
 16742 2a22 04       		.byte	0x4
 16743 2a23 FD0F0000 		.4byte	0xffd
 16744 2a27 22       		.uleb128 0x22
 16745 2a28 A6110000 		.4byte	.LASF528
 16746 2a2c 01       		.byte	0x1
 16747 2a2d 3406     		.2byte	0x634
 16748 2a2f AA0A0000 		.4byte	0xaaa
 16749 2a33 80190000 		.4byte	.LFB340
 16750 2a37 68000000 		.4byte	.LFE340-.LFB340
 16751 2a3b 01       		.uleb128 0x1
 16752 2a3c 9C       		.byte	0x9c
 16753 2a3d 6F2A0000 		.4byte	0x2a6f
 16754 2a41 23       		.uleb128 0x23
 16755 2a42 CC000000 		.4byte	.LASF450
 16756 2a46 01       		.byte	0x1
 16757 2a47 3406     		.2byte	0x634
 16758 2a49 3E030000 		.4byte	0x33e
 16759 2a4d 02       		.uleb128 0x2
 16760 2a4e 91       		.byte	0x91
 16761 2a4f 6C       		.sleb128 -20
 16762 2a50 23       		.uleb128 0x23
 16763 2a51 2B290000 		.4byte	.LASF455
 16764 2a55 01       		.byte	0x1
 16765 2a56 3406     		.2byte	0x634
 16766 2a58 1F100000 		.4byte	0x101f
 16767 2a5c 02       		.uleb128 0x2
 16768 2a5d 91       		.byte	0x91
 16769 2a5e 6B       		.sleb128 -21
 16770 2a5f 24       		.uleb128 0x24
 16771 2a60 13130000 		.4byte	.LASF446
 16772 2a64 01       		.byte	0x1
 16773 2a65 3606     		.2byte	0x636
 16774 2a67 2A0A0000 		.4byte	0xa2a
 16775 2a6b 02       		.uleb128 0x2
 16776 2a6c 91       		.byte	0x91
 16777 2a6d 77       		.sleb128 -9
 16778 2a6e 00       		.byte	0
 16779 2a6f 22       		.uleb128 0x22
 16780 2a70 20270000 		.4byte	.LASF529
 16781 2a74 01       		.byte	0x1
 16782 2a75 4B06     		.2byte	0x64b
 16783 2a77 AA0A0000 		.4byte	0xaaa
 16784 2a7b F0190000 		.4byte	.LFB341
 16785 2a7f 36000000 		.4byte	.LFE341-.LFB341
 16786 2a83 01       		.uleb128 0x1
 16787 2a84 9C       		.byte	0x9c
 16788 2a85 A82A0000 		.4byte	0x2aa8
 16789 2a89 23       		.uleb128 0x23
 16790 2a8a CC000000 		.4byte	.LASF450
 16791 2a8e 01       		.byte	0x1
 16792 2a8f 4B06     		.2byte	0x64b
 16793 2a91 3E030000 		.4byte	0x33e
 16794 2a95 02       		.uleb128 0x2
 16795 2a96 91       		.byte	0x91
 16796 2a97 74       		.sleb128 -12
ARM GAS  /tmp/cc1ELVNa.s 			page 299


 16797 2a98 23       		.uleb128 0x23
 16798 2a99 13130000 		.4byte	.LASF446
 16799 2a9d 01       		.byte	0x1
 16800 2a9e 4B06     		.2byte	0x64b
 16801 2aa0 A82A0000 		.4byte	0x2aa8
 16802 2aa4 02       		.uleb128 0x2
 16803 2aa5 91       		.byte	0x91
 16804 2aa6 70       		.sleb128 -16
 16805 2aa7 00       		.byte	0
 16806 2aa8 09       		.uleb128 0x9
 16807 2aa9 04       		.byte	0x4
 16808 2aaa 1F100000 		.4byte	0x101f
 16809 2aae 22       		.uleb128 0x22
 16810 2aaf 56370000 		.4byte	.LASF530
 16811 2ab3 01       		.byte	0x1
 16812 2ab4 5C06     		.2byte	0x65c
 16813 2ab6 AA0A0000 		.4byte	0xaaa
 16814 2aba 301A0000 		.4byte	.LFB342
 16815 2abe 68000000 		.4byte	.LFE342-.LFB342
 16816 2ac2 01       		.uleb128 0x1
 16817 2ac3 9C       		.byte	0x9c
 16818 2ac4 F62A0000 		.4byte	0x2af6
 16819 2ac8 23       		.uleb128 0x23
 16820 2ac9 CC000000 		.4byte	.LASF450
 16821 2acd 01       		.byte	0x1
 16822 2ace 5C06     		.2byte	0x65c
 16823 2ad0 3E030000 		.4byte	0x33e
 16824 2ad4 02       		.uleb128 0x2
 16825 2ad5 91       		.byte	0x91
 16826 2ad6 6C       		.sleb128 -20
 16827 2ad7 23       		.uleb128 0x23
 16828 2ad8 2B290000 		.4byte	.LASF455
 16829 2adc 01       		.byte	0x1
 16830 2add 5C06     		.2byte	0x65c
 16831 2adf 42100000 		.4byte	0x1042
 16832 2ae3 02       		.uleb128 0x2
 16833 2ae4 91       		.byte	0x91
 16834 2ae5 6B       		.sleb128 -21
 16835 2ae6 24       		.uleb128 0x24
 16836 2ae7 13130000 		.4byte	.LASF446
 16837 2aeb 01       		.byte	0x1
 16838 2aec 5E06     		.2byte	0x65e
 16839 2aee 2A0A0000 		.4byte	0xa2a
 16840 2af2 02       		.uleb128 0x2
 16841 2af3 91       		.byte	0x91
 16842 2af4 77       		.sleb128 -9
 16843 2af5 00       		.byte	0
 16844 2af6 22       		.uleb128 0x22
 16845 2af7 A3360000 		.4byte	.LASF531
 16846 2afb 01       		.byte	0x1
 16847 2afc 7306     		.2byte	0x673
 16848 2afe AA0A0000 		.4byte	0xaaa
 16849 2b02 A01A0000 		.4byte	.LFB343
 16850 2b06 36000000 		.4byte	.LFE343-.LFB343
 16851 2b0a 01       		.uleb128 0x1
 16852 2b0b 9C       		.byte	0x9c
 16853 2b0c 2F2B0000 		.4byte	0x2b2f
ARM GAS  /tmp/cc1ELVNa.s 			page 300


 16854 2b10 23       		.uleb128 0x23
 16855 2b11 CC000000 		.4byte	.LASF450
 16856 2b15 01       		.byte	0x1
 16857 2b16 7306     		.2byte	0x673
 16858 2b18 3E030000 		.4byte	0x33e
 16859 2b1c 02       		.uleb128 0x2
 16860 2b1d 91       		.byte	0x91
 16861 2b1e 74       		.sleb128 -12
 16862 2b1f 23       		.uleb128 0x23
 16863 2b20 13130000 		.4byte	.LASF446
 16864 2b24 01       		.byte	0x1
 16865 2b25 7306     		.2byte	0x673
 16866 2b27 2F2B0000 		.4byte	0x2b2f
 16867 2b2b 02       		.uleb128 0x2
 16868 2b2c 91       		.byte	0x91
 16869 2b2d 70       		.sleb128 -16
 16870 2b2e 00       		.byte	0
 16871 2b2f 09       		.uleb128 0x9
 16872 2b30 04       		.byte	0x4
 16873 2b31 42100000 		.4byte	0x1042
 16874 2b35 22       		.uleb128 0x22
 16875 2b36 19110000 		.4byte	.LASF532
 16876 2b3a 01       		.byte	0x1
 16877 2b3b 8406     		.2byte	0x684
 16878 2b3d AA0A0000 		.4byte	0xaaa
 16879 2b41 E01A0000 		.4byte	.LFB344
 16880 2b45 68000000 		.4byte	.LFE344-.LFB344
 16881 2b49 01       		.uleb128 0x1
 16882 2b4a 9C       		.byte	0x9c
 16883 2b4b 7D2B0000 		.4byte	0x2b7d
 16884 2b4f 23       		.uleb128 0x23
 16885 2b50 CC000000 		.4byte	.LASF450
 16886 2b54 01       		.byte	0x1
 16887 2b55 8406     		.2byte	0x684
 16888 2b57 3E030000 		.4byte	0x33e
 16889 2b5b 02       		.uleb128 0x2
 16890 2b5c 91       		.byte	0x91
 16891 2b5d 6C       		.sleb128 -20
 16892 2b5e 23       		.uleb128 0x23
 16893 2b5f 2B290000 		.4byte	.LASF455
 16894 2b63 01       		.byte	0x1
 16895 2b64 8406     		.2byte	0x684
 16896 2b66 65100000 		.4byte	0x1065
 16897 2b6a 02       		.uleb128 0x2
 16898 2b6b 91       		.byte	0x91
 16899 2b6c 6B       		.sleb128 -21
 16900 2b6d 24       		.uleb128 0x24
 16901 2b6e 13130000 		.4byte	.LASF446
 16902 2b72 01       		.byte	0x1
 16903 2b73 8606     		.2byte	0x686
 16904 2b75 2A0A0000 		.4byte	0xa2a
 16905 2b79 02       		.uleb128 0x2
 16906 2b7a 91       		.byte	0x91
 16907 2b7b 77       		.sleb128 -9
 16908 2b7c 00       		.byte	0
 16909 2b7d 22       		.uleb128 0x22
 16910 2b7e 850C0000 		.4byte	.LASF533
ARM GAS  /tmp/cc1ELVNa.s 			page 301


 16911 2b82 01       		.byte	0x1
 16912 2b83 9B06     		.2byte	0x69b
 16913 2b85 AA0A0000 		.4byte	0xaaa
 16914 2b89 501B0000 		.4byte	.LFB345
 16915 2b8d 36000000 		.4byte	.LFE345-.LFB345
 16916 2b91 01       		.uleb128 0x1
 16917 2b92 9C       		.byte	0x9c
 16918 2b93 B62B0000 		.4byte	0x2bb6
 16919 2b97 23       		.uleb128 0x23
 16920 2b98 CC000000 		.4byte	.LASF450
 16921 2b9c 01       		.byte	0x1
 16922 2b9d 9B06     		.2byte	0x69b
 16923 2b9f 3E030000 		.4byte	0x33e
 16924 2ba3 02       		.uleb128 0x2
 16925 2ba4 91       		.byte	0x91
 16926 2ba5 74       		.sleb128 -12
 16927 2ba6 23       		.uleb128 0x23
 16928 2ba7 13130000 		.4byte	.LASF446
 16929 2bab 01       		.byte	0x1
 16930 2bac 9B06     		.2byte	0x69b
 16931 2bae B62B0000 		.4byte	0x2bb6
 16932 2bb2 02       		.uleb128 0x2
 16933 2bb3 91       		.byte	0x91
 16934 2bb4 70       		.sleb128 -16
 16935 2bb5 00       		.byte	0
 16936 2bb6 09       		.uleb128 0x9
 16937 2bb7 04       		.byte	0x4
 16938 2bb8 65100000 		.4byte	0x1065
 16939 2bbc 22       		.uleb128 0x22
 16940 2bbd 18280000 		.4byte	.LASF534
 16941 2bc1 01       		.byte	0x1
 16942 2bc2 AC06     		.2byte	0x6ac
 16943 2bc4 AA0A0000 		.4byte	0xaaa
 16944 2bc8 901B0000 		.4byte	.LFB346
 16945 2bcc 68000000 		.4byte	.LFE346-.LFB346
 16946 2bd0 01       		.uleb128 0x1
 16947 2bd1 9C       		.byte	0x9c
 16948 2bd2 042C0000 		.4byte	0x2c04
 16949 2bd6 23       		.uleb128 0x23
 16950 2bd7 CC000000 		.4byte	.LASF450
 16951 2bdb 01       		.byte	0x1
 16952 2bdc AC06     		.2byte	0x6ac
 16953 2bde 3E030000 		.4byte	0x33e
 16954 2be2 02       		.uleb128 0x2
 16955 2be3 91       		.byte	0x91
 16956 2be4 6C       		.sleb128 -20
 16957 2be5 23       		.uleb128 0x23
 16958 2be6 2B290000 		.4byte	.LASF455
 16959 2bea 01       		.byte	0x1
 16960 2beb AC06     		.2byte	0x6ac
 16961 2bed 87100000 		.4byte	0x1087
 16962 2bf1 02       		.uleb128 0x2
 16963 2bf2 91       		.byte	0x91
 16964 2bf3 6B       		.sleb128 -21
 16965 2bf4 24       		.uleb128 0x24
 16966 2bf5 13130000 		.4byte	.LASF446
 16967 2bf9 01       		.byte	0x1
ARM GAS  /tmp/cc1ELVNa.s 			page 302


 16968 2bfa AE06     		.2byte	0x6ae
 16969 2bfc 2A0A0000 		.4byte	0xa2a
 16970 2c00 02       		.uleb128 0x2
 16971 2c01 91       		.byte	0x91
 16972 2c02 77       		.sleb128 -9
 16973 2c03 00       		.byte	0
 16974 2c04 22       		.uleb128 0x22
 16975 2c05 32020000 		.4byte	.LASF535
 16976 2c09 01       		.byte	0x1
 16977 2c0a C306     		.2byte	0x6c3
 16978 2c0c AA0A0000 		.4byte	0xaaa
 16979 2c10 001C0000 		.4byte	.LFB347
 16980 2c14 36000000 		.4byte	.LFE347-.LFB347
 16981 2c18 01       		.uleb128 0x1
 16982 2c19 9C       		.byte	0x9c
 16983 2c1a 3D2C0000 		.4byte	0x2c3d
 16984 2c1e 23       		.uleb128 0x23
 16985 2c1f CC000000 		.4byte	.LASF450
 16986 2c23 01       		.byte	0x1
 16987 2c24 C306     		.2byte	0x6c3
 16988 2c26 3E030000 		.4byte	0x33e
 16989 2c2a 02       		.uleb128 0x2
 16990 2c2b 91       		.byte	0x91
 16991 2c2c 74       		.sleb128 -12
 16992 2c2d 23       		.uleb128 0x23
 16993 2c2e 13130000 		.4byte	.LASF446
 16994 2c32 01       		.byte	0x1
 16995 2c33 C306     		.2byte	0x6c3
 16996 2c35 3D2C0000 		.4byte	0x2c3d
 16997 2c39 02       		.uleb128 0x2
 16998 2c3a 91       		.byte	0x91
 16999 2c3b 70       		.sleb128 -16
 17000 2c3c 00       		.byte	0
 17001 2c3d 09       		.uleb128 0x9
 17002 2c3e 04       		.byte	0x4
 17003 2c3f 87100000 		.4byte	0x1087
 17004 2c43 22       		.uleb128 0x22
 17005 2c44 3D2D0000 		.4byte	.LASF536
 17006 2c48 01       		.byte	0x1
 17007 2c49 D406     		.2byte	0x6d4
 17008 2c4b AA0A0000 		.4byte	0xaaa
 17009 2c4f 401C0000 		.4byte	.LFB348
 17010 2c53 68000000 		.4byte	.LFE348-.LFB348
 17011 2c57 01       		.uleb128 0x1
 17012 2c58 9C       		.byte	0x9c
 17013 2c59 8B2C0000 		.4byte	0x2c8b
 17014 2c5d 23       		.uleb128 0x23
 17015 2c5e CC000000 		.4byte	.LASF450
 17016 2c62 01       		.byte	0x1
 17017 2c63 D406     		.2byte	0x6d4
 17018 2c65 3E030000 		.4byte	0x33e
 17019 2c69 02       		.uleb128 0x2
 17020 2c6a 91       		.byte	0x91
 17021 2c6b 6C       		.sleb128 -20
 17022 2c6c 23       		.uleb128 0x23
 17023 2c6d 2B290000 		.4byte	.LASF455
 17024 2c71 01       		.byte	0x1
ARM GAS  /tmp/cc1ELVNa.s 			page 303


 17025 2c72 D406     		.2byte	0x6d4
 17026 2c74 A9100000 		.4byte	0x10a9
 17027 2c78 02       		.uleb128 0x2
 17028 2c79 91       		.byte	0x91
 17029 2c7a 6B       		.sleb128 -21
 17030 2c7b 24       		.uleb128 0x24
 17031 2c7c 13130000 		.4byte	.LASF446
 17032 2c80 01       		.byte	0x1
 17033 2c81 D606     		.2byte	0x6d6
 17034 2c83 2A0A0000 		.4byte	0xa2a
 17035 2c87 02       		.uleb128 0x2
 17036 2c88 91       		.byte	0x91
 17037 2c89 77       		.sleb128 -9
 17038 2c8a 00       		.byte	0
 17039 2c8b 22       		.uleb128 0x22
 17040 2c8c 79260000 		.4byte	.LASF537
 17041 2c90 01       		.byte	0x1
 17042 2c91 EB06     		.2byte	0x6eb
 17043 2c93 AA0A0000 		.4byte	0xaaa
 17044 2c97 B01C0000 		.4byte	.LFB349
 17045 2c9b 36000000 		.4byte	.LFE349-.LFB349
 17046 2c9f 01       		.uleb128 0x1
 17047 2ca0 9C       		.byte	0x9c
 17048 2ca1 C42C0000 		.4byte	0x2cc4
 17049 2ca5 23       		.uleb128 0x23
 17050 2ca6 CC000000 		.4byte	.LASF450
 17051 2caa 01       		.byte	0x1
 17052 2cab EB06     		.2byte	0x6eb
 17053 2cad 3E030000 		.4byte	0x33e
 17054 2cb1 02       		.uleb128 0x2
 17055 2cb2 91       		.byte	0x91
 17056 2cb3 74       		.sleb128 -12
 17057 2cb4 23       		.uleb128 0x23
 17058 2cb5 13130000 		.4byte	.LASF446
 17059 2cb9 01       		.byte	0x1
 17060 2cba EB06     		.2byte	0x6eb
 17061 2cbc C42C0000 		.4byte	0x2cc4
 17062 2cc0 02       		.uleb128 0x2
 17063 2cc1 91       		.byte	0x91
 17064 2cc2 70       		.sleb128 -16
 17065 2cc3 00       		.byte	0
 17066 2cc4 09       		.uleb128 0x9
 17067 2cc5 04       		.byte	0x4
 17068 2cc6 A9100000 		.4byte	0x10a9
 17069 2cca 22       		.uleb128 0x22
 17070 2ccb FD1C0000 		.4byte	.LASF538
 17071 2ccf 01       		.byte	0x1
 17072 2cd0 FC06     		.2byte	0x6fc
 17073 2cd2 AA0A0000 		.4byte	0xaaa
 17074 2cd6 F01C0000 		.4byte	.LFB350
 17075 2cda 68000000 		.4byte	.LFE350-.LFB350
 17076 2cde 01       		.uleb128 0x1
 17077 2cdf 9C       		.byte	0x9c
 17078 2ce0 122D0000 		.4byte	0x2d12
 17079 2ce4 23       		.uleb128 0x23
 17080 2ce5 CC000000 		.4byte	.LASF450
 17081 2ce9 01       		.byte	0x1
ARM GAS  /tmp/cc1ELVNa.s 			page 304


 17082 2cea FC06     		.2byte	0x6fc
 17083 2cec 3E030000 		.4byte	0x33e
 17084 2cf0 02       		.uleb128 0x2
 17085 2cf1 91       		.byte	0x91
 17086 2cf2 6C       		.sleb128 -20
 17087 2cf3 23       		.uleb128 0x23
 17088 2cf4 2B290000 		.4byte	.LASF455
 17089 2cf8 01       		.byte	0x1
 17090 2cf9 FC06     		.2byte	0x6fc
 17091 2cfb CB100000 		.4byte	0x10cb
 17092 2cff 02       		.uleb128 0x2
 17093 2d00 91       		.byte	0x91
 17094 2d01 6B       		.sleb128 -21
 17095 2d02 24       		.uleb128 0x24
 17096 2d03 13130000 		.4byte	.LASF446
 17097 2d07 01       		.byte	0x1
 17098 2d08 FE06     		.2byte	0x6fe
 17099 2d0a 2A0A0000 		.4byte	0xa2a
 17100 2d0e 02       		.uleb128 0x2
 17101 2d0f 91       		.byte	0x91
 17102 2d10 77       		.sleb128 -9
 17103 2d11 00       		.byte	0
 17104 2d12 22       		.uleb128 0x22
 17105 2d13 66190000 		.4byte	.LASF539
 17106 2d17 01       		.byte	0x1
 17107 2d18 1307     		.2byte	0x713
 17108 2d1a AA0A0000 		.4byte	0xaaa
 17109 2d1e 601D0000 		.4byte	.LFB351
 17110 2d22 36000000 		.4byte	.LFE351-.LFB351
 17111 2d26 01       		.uleb128 0x1
 17112 2d27 9C       		.byte	0x9c
 17113 2d28 4B2D0000 		.4byte	0x2d4b
 17114 2d2c 23       		.uleb128 0x23
 17115 2d2d CC000000 		.4byte	.LASF450
 17116 2d31 01       		.byte	0x1
 17117 2d32 1307     		.2byte	0x713
 17118 2d34 3E030000 		.4byte	0x33e
 17119 2d38 02       		.uleb128 0x2
 17120 2d39 91       		.byte	0x91
 17121 2d3a 74       		.sleb128 -12
 17122 2d3b 23       		.uleb128 0x23
 17123 2d3c 13130000 		.4byte	.LASF446
 17124 2d40 01       		.byte	0x1
 17125 2d41 1307     		.2byte	0x713
 17126 2d43 4B2D0000 		.4byte	0x2d4b
 17127 2d47 02       		.uleb128 0x2
 17128 2d48 91       		.byte	0x91
 17129 2d49 70       		.sleb128 -16
 17130 2d4a 00       		.byte	0
 17131 2d4b 09       		.uleb128 0x9
 17132 2d4c 04       		.byte	0x4
 17133 2d4d CB100000 		.4byte	0x10cb
 17134 2d51 22       		.uleb128 0x22
 17135 2d52 511C0000 		.4byte	.LASF540
 17136 2d56 01       		.byte	0x1
 17137 2d57 2407     		.2byte	0x724
 17138 2d59 AA0A0000 		.4byte	0xaaa
ARM GAS  /tmp/cc1ELVNa.s 			page 305


 17139 2d5d A01D0000 		.4byte	.LFB352
 17140 2d61 68000000 		.4byte	.LFE352-.LFB352
 17141 2d65 01       		.uleb128 0x1
 17142 2d66 9C       		.byte	0x9c
 17143 2d67 992D0000 		.4byte	0x2d99
 17144 2d6b 23       		.uleb128 0x23
 17145 2d6c CC000000 		.4byte	.LASF450
 17146 2d70 01       		.byte	0x1
 17147 2d71 2407     		.2byte	0x724
 17148 2d73 3E030000 		.4byte	0x33e
 17149 2d77 02       		.uleb128 0x2
 17150 2d78 91       		.byte	0x91
 17151 2d79 6C       		.sleb128 -20
 17152 2d7a 23       		.uleb128 0x23
 17153 2d7b 2B290000 		.4byte	.LASF455
 17154 2d7f 01       		.byte	0x1
 17155 2d80 2407     		.2byte	0x724
 17156 2d82 ED100000 		.4byte	0x10ed
 17157 2d86 02       		.uleb128 0x2
 17158 2d87 91       		.byte	0x91
 17159 2d88 6B       		.sleb128 -21
 17160 2d89 24       		.uleb128 0x24
 17161 2d8a 13130000 		.4byte	.LASF446
 17162 2d8e 01       		.byte	0x1
 17163 2d8f 2607     		.2byte	0x726
 17164 2d91 2A0A0000 		.4byte	0xa2a
 17165 2d95 02       		.uleb128 0x2
 17166 2d96 91       		.byte	0x91
 17167 2d97 77       		.sleb128 -9
 17168 2d98 00       		.byte	0
 17169 2d99 22       		.uleb128 0x22
 17170 2d9a FE020000 		.4byte	.LASF541
 17171 2d9e 01       		.byte	0x1
 17172 2d9f 3B07     		.2byte	0x73b
 17173 2da1 AA0A0000 		.4byte	0xaaa
 17174 2da5 101E0000 		.4byte	.LFB353
 17175 2da9 36000000 		.4byte	.LFE353-.LFB353
 17176 2dad 01       		.uleb128 0x1
 17177 2dae 9C       		.byte	0x9c
 17178 2daf D22D0000 		.4byte	0x2dd2
 17179 2db3 23       		.uleb128 0x23
 17180 2db4 CC000000 		.4byte	.LASF450
 17181 2db8 01       		.byte	0x1
 17182 2db9 3B07     		.2byte	0x73b
 17183 2dbb 3E030000 		.4byte	0x33e
 17184 2dbf 02       		.uleb128 0x2
 17185 2dc0 91       		.byte	0x91
 17186 2dc1 74       		.sleb128 -12
 17187 2dc2 23       		.uleb128 0x23
 17188 2dc3 13130000 		.4byte	.LASF446
 17189 2dc7 01       		.byte	0x1
 17190 2dc8 3B07     		.2byte	0x73b
 17191 2dca D22D0000 		.4byte	0x2dd2
 17192 2dce 02       		.uleb128 0x2
 17193 2dcf 91       		.byte	0x91
 17194 2dd0 70       		.sleb128 -16
 17195 2dd1 00       		.byte	0
ARM GAS  /tmp/cc1ELVNa.s 			page 306


 17196 2dd2 09       		.uleb128 0x9
 17197 2dd3 04       		.byte	0x4
 17198 2dd4 ED100000 		.4byte	0x10ed
 17199 2dd8 22       		.uleb128 0x22
 17200 2dd9 361C0000 		.4byte	.LASF542
 17201 2ddd 01       		.byte	0x1
 17202 2dde 4C07     		.2byte	0x74c
 17203 2de0 AA0A0000 		.4byte	0xaaa
 17204 2de4 501E0000 		.4byte	.LFB354
 17205 2de8 68000000 		.4byte	.LFE354-.LFB354
 17206 2dec 01       		.uleb128 0x1
 17207 2ded 9C       		.byte	0x9c
 17208 2dee 202E0000 		.4byte	0x2e20
 17209 2df2 23       		.uleb128 0x23
 17210 2df3 CC000000 		.4byte	.LASF450
 17211 2df7 01       		.byte	0x1
 17212 2df8 4C07     		.2byte	0x74c
 17213 2dfa 3E030000 		.4byte	0x33e
 17214 2dfe 02       		.uleb128 0x2
 17215 2dff 91       		.byte	0x91
 17216 2e00 6C       		.sleb128 -20
 17217 2e01 23       		.uleb128 0x23
 17218 2e02 2B290000 		.4byte	.LASF455
 17219 2e06 01       		.byte	0x1
 17220 2e07 4C07     		.2byte	0x74c
 17221 2e09 10110000 		.4byte	0x1110
 17222 2e0d 02       		.uleb128 0x2
 17223 2e0e 91       		.byte	0x91
 17224 2e0f 6B       		.sleb128 -21
 17225 2e10 24       		.uleb128 0x24
 17226 2e11 13130000 		.4byte	.LASF446
 17227 2e15 01       		.byte	0x1
 17228 2e16 4E07     		.2byte	0x74e
 17229 2e18 2A0A0000 		.4byte	0xa2a
 17230 2e1c 02       		.uleb128 0x2
 17231 2e1d 91       		.byte	0x91
 17232 2e1e 77       		.sleb128 -9
 17233 2e1f 00       		.byte	0
 17234 2e20 22       		.uleb128 0x22
 17235 2e21 E3020000 		.4byte	.LASF543
 17236 2e25 01       		.byte	0x1
 17237 2e26 6307     		.2byte	0x763
 17238 2e28 AA0A0000 		.4byte	0xaaa
 17239 2e2c C01E0000 		.4byte	.LFB355
 17240 2e30 36000000 		.4byte	.LFE355-.LFB355
 17241 2e34 01       		.uleb128 0x1
 17242 2e35 9C       		.byte	0x9c
 17243 2e36 592E0000 		.4byte	0x2e59
 17244 2e3a 23       		.uleb128 0x23
 17245 2e3b CC000000 		.4byte	.LASF450
 17246 2e3f 01       		.byte	0x1
 17247 2e40 6307     		.2byte	0x763
 17248 2e42 3E030000 		.4byte	0x33e
 17249 2e46 02       		.uleb128 0x2
 17250 2e47 91       		.byte	0x91
 17251 2e48 74       		.sleb128 -12
 17252 2e49 23       		.uleb128 0x23
ARM GAS  /tmp/cc1ELVNa.s 			page 307


 17253 2e4a 13130000 		.4byte	.LASF446
 17254 2e4e 01       		.byte	0x1
 17255 2e4f 6307     		.2byte	0x763
 17256 2e51 592E0000 		.4byte	0x2e59
 17257 2e55 02       		.uleb128 0x2
 17258 2e56 91       		.byte	0x91
 17259 2e57 70       		.sleb128 -16
 17260 2e58 00       		.byte	0
 17261 2e59 09       		.uleb128 0x9
 17262 2e5a 04       		.byte	0x4
 17263 2e5b 10110000 		.4byte	0x1110
 17264 2e5f 22       		.uleb128 0x22
 17265 2e60 27040000 		.4byte	.LASF544
 17266 2e64 01       		.byte	0x1
 17267 2e65 7407     		.2byte	0x774
 17268 2e67 AA0A0000 		.4byte	0xaaa
 17269 2e6b 001F0000 		.4byte	.LFB356
 17270 2e6f 68000000 		.4byte	.LFE356-.LFB356
 17271 2e73 01       		.uleb128 0x1
 17272 2e74 9C       		.byte	0x9c
 17273 2e75 A72E0000 		.4byte	0x2ea7
 17274 2e79 23       		.uleb128 0x23
 17275 2e7a CC000000 		.4byte	.LASF450
 17276 2e7e 01       		.byte	0x1
 17277 2e7f 7407     		.2byte	0x774
 17278 2e81 3E030000 		.4byte	0x33e
 17279 2e85 02       		.uleb128 0x2
 17280 2e86 91       		.byte	0x91
 17281 2e87 6C       		.sleb128 -20
 17282 2e88 23       		.uleb128 0x23
 17283 2e89 2B290000 		.4byte	.LASF455
 17284 2e8d 01       		.byte	0x1
 17285 2e8e 7407     		.2byte	0x774
 17286 2e90 33110000 		.4byte	0x1133
 17287 2e94 02       		.uleb128 0x2
 17288 2e95 91       		.byte	0x91
 17289 2e96 6B       		.sleb128 -21
 17290 2e97 24       		.uleb128 0x24
 17291 2e98 13130000 		.4byte	.LASF446
 17292 2e9c 01       		.byte	0x1
 17293 2e9d 7607     		.2byte	0x776
 17294 2e9f 2A0A0000 		.4byte	0xa2a
 17295 2ea3 02       		.uleb128 0x2
 17296 2ea4 91       		.byte	0x91
 17297 2ea5 77       		.sleb128 -9
 17298 2ea6 00       		.byte	0
 17299 2ea7 22       		.uleb128 0x22
 17300 2ea8 81010000 		.4byte	.LASF545
 17301 2eac 01       		.byte	0x1
 17302 2ead 8B07     		.2byte	0x78b
 17303 2eaf AA0A0000 		.4byte	0xaaa
 17304 2eb3 701F0000 		.4byte	.LFB357
 17305 2eb7 36000000 		.4byte	.LFE357-.LFB357
 17306 2ebb 01       		.uleb128 0x1
 17307 2ebc 9C       		.byte	0x9c
 17308 2ebd E02E0000 		.4byte	0x2ee0
 17309 2ec1 23       		.uleb128 0x23
ARM GAS  /tmp/cc1ELVNa.s 			page 308


 17310 2ec2 CC000000 		.4byte	.LASF450
 17311 2ec6 01       		.byte	0x1
 17312 2ec7 8B07     		.2byte	0x78b
 17313 2ec9 3E030000 		.4byte	0x33e
 17314 2ecd 02       		.uleb128 0x2
 17315 2ece 91       		.byte	0x91
 17316 2ecf 74       		.sleb128 -12
 17317 2ed0 23       		.uleb128 0x23
 17318 2ed1 13130000 		.4byte	.LASF446
 17319 2ed5 01       		.byte	0x1
 17320 2ed6 8B07     		.2byte	0x78b
 17321 2ed8 E02E0000 		.4byte	0x2ee0
 17322 2edc 02       		.uleb128 0x2
 17323 2edd 91       		.byte	0x91
 17324 2ede 70       		.sleb128 -16
 17325 2edf 00       		.byte	0
 17326 2ee0 09       		.uleb128 0x9
 17327 2ee1 04       		.byte	0x4
 17328 2ee2 33110000 		.4byte	0x1133
 17329 2ee6 22       		.uleb128 0x22
 17330 2ee7 12060000 		.4byte	.LASF546
 17331 2eeb 01       		.byte	0x1
 17332 2eec 9C07     		.2byte	0x79c
 17333 2eee AA0A0000 		.4byte	0xaaa
 17334 2ef2 B01F0000 		.4byte	.LFB358
 17335 2ef6 60000000 		.4byte	.LFE358-.LFB358
 17336 2efa 01       		.uleb128 0x1
 17337 2efb 9C       		.byte	0x9c
 17338 2efc 2E2F0000 		.4byte	0x2f2e
 17339 2f00 23       		.uleb128 0x23
 17340 2f01 CC000000 		.4byte	.LASF450
 17341 2f05 01       		.byte	0x1
 17342 2f06 9C07     		.2byte	0x79c
 17343 2f08 3E030000 		.4byte	0x33e
 17344 2f0c 02       		.uleb128 0x2
 17345 2f0d 91       		.byte	0x91
 17346 2f0e 6C       		.sleb128 -20
 17347 2f0f 23       		.uleb128 0x23
 17348 2f10 2B290000 		.4byte	.LASF455
 17349 2f14 01       		.byte	0x1
 17350 2f15 9C07     		.2byte	0x79c
 17351 2f17 2A0A0000 		.4byte	0xa2a
 17352 2f1b 02       		.uleb128 0x2
 17353 2f1c 91       		.byte	0x91
 17354 2f1d 6B       		.sleb128 -21
 17355 2f1e 24       		.uleb128 0x24
 17356 2f1f 13130000 		.4byte	.LASF446
 17357 2f23 01       		.byte	0x1
 17358 2f24 9E07     		.2byte	0x79e
 17359 2f26 2A0A0000 		.4byte	0xa2a
 17360 2f2a 02       		.uleb128 0x2
 17361 2f2b 91       		.byte	0x91
 17362 2f2c 77       		.sleb128 -9
 17363 2f2d 00       		.byte	0
 17364 2f2e 22       		.uleb128 0x22
 17365 2f2f A9030000 		.4byte	.LASF547
 17366 2f33 01       		.byte	0x1
ARM GAS  /tmp/cc1ELVNa.s 			page 309


 17367 2f34 B607     		.2byte	0x7b6
 17368 2f36 AA0A0000 		.4byte	0xaaa
 17369 2f3a 10200000 		.4byte	.LFB359
 17370 2f3e 38000000 		.4byte	.LFE359-.LFB359
 17371 2f42 01       		.uleb128 0x1
 17372 2f43 9C       		.byte	0x9c
 17373 2f44 672F0000 		.4byte	0x2f67
 17374 2f48 23       		.uleb128 0x23
 17375 2f49 CC000000 		.4byte	.LASF450
 17376 2f4d 01       		.byte	0x1
 17377 2f4e B607     		.2byte	0x7b6
 17378 2f50 3E030000 		.4byte	0x33e
 17379 2f54 02       		.uleb128 0x2
 17380 2f55 91       		.byte	0x91
 17381 2f56 74       		.sleb128 -12
 17382 2f57 23       		.uleb128 0x23
 17383 2f58 13130000 		.4byte	.LASF446
 17384 2f5c 01       		.byte	0x1
 17385 2f5d B607     		.2byte	0x7b6
 17386 2f5f 50170000 		.4byte	0x1750
 17387 2f63 02       		.uleb128 0x2
 17388 2f64 91       		.byte	0x91
 17389 2f65 70       		.sleb128 -16
 17390 2f66 00       		.byte	0
 17391 2f67 22       		.uleb128 0x22
 17392 2f68 48180000 		.4byte	.LASF548
 17393 2f6c 01       		.byte	0x1
 17394 2f6d C807     		.2byte	0x7c8
 17395 2f6f AA0A0000 		.4byte	0xaaa
 17396 2f73 50200000 		.4byte	.LFB360
 17397 2f77 36000000 		.4byte	.LFE360-.LFB360
 17398 2f7b 01       		.uleb128 0x1
 17399 2f7c 9C       		.byte	0x9c
 17400 2f7d A02F0000 		.4byte	0x2fa0
 17401 2f81 23       		.uleb128 0x23
 17402 2f82 CC000000 		.4byte	.LASF450
 17403 2f86 01       		.byte	0x1
 17404 2f87 C807     		.2byte	0x7c8
 17405 2f89 3E030000 		.4byte	0x33e
 17406 2f8d 02       		.uleb128 0x2
 17407 2f8e 91       		.byte	0x91
 17408 2f8f 74       		.sleb128 -12
 17409 2f90 23       		.uleb128 0x23
 17410 2f91 13130000 		.4byte	.LASF446
 17411 2f95 01       		.byte	0x1
 17412 2f96 C807     		.2byte	0x7c8
 17413 2f98 A02F0000 		.4byte	0x2fa0
 17414 2f9c 02       		.uleb128 0x2
 17415 2f9d 91       		.byte	0x91
 17416 2f9e 70       		.sleb128 -16
 17417 2f9f 00       		.byte	0
 17418 2fa0 09       		.uleb128 0x9
 17419 2fa1 04       		.byte	0x4
 17420 2fa2 55110000 		.4byte	0x1155
 17421 2fa6 22       		.uleb128 0x22
 17422 2fa7 67230000 		.4byte	.LASF549
 17423 2fab 01       		.byte	0x1
ARM GAS  /tmp/cc1ELVNa.s 			page 310


 17424 2fac D907     		.2byte	0x7d9
 17425 2fae AA0A0000 		.4byte	0xaaa
 17426 2fb2 90200000 		.4byte	.LFB361
 17427 2fb6 36000000 		.4byte	.LFE361-.LFB361
 17428 2fba 01       		.uleb128 0x1
 17429 2fbb 9C       		.byte	0x9c
 17430 2fbc DF2F0000 		.4byte	0x2fdf
 17431 2fc0 23       		.uleb128 0x23
 17432 2fc1 CC000000 		.4byte	.LASF450
 17433 2fc5 01       		.byte	0x1
 17434 2fc6 D907     		.2byte	0x7d9
 17435 2fc8 3E030000 		.4byte	0x33e
 17436 2fcc 02       		.uleb128 0x2
 17437 2fcd 91       		.byte	0x91
 17438 2fce 74       		.sleb128 -12
 17439 2fcf 23       		.uleb128 0x23
 17440 2fd0 13130000 		.4byte	.LASF446
 17441 2fd4 01       		.byte	0x1
 17442 2fd5 D907     		.2byte	0x7d9
 17443 2fd7 DF2F0000 		.4byte	0x2fdf
 17444 2fdb 02       		.uleb128 0x2
 17445 2fdc 91       		.byte	0x91
 17446 2fdd 70       		.sleb128 -16
 17447 2fde 00       		.byte	0
 17448 2fdf 09       		.uleb128 0x9
 17449 2fe0 04       		.byte	0x4
 17450 2fe1 77110000 		.4byte	0x1177
 17451 2fe5 22       		.uleb128 0x22
 17452 2fe6 0E2D0000 		.4byte	.LASF550
 17453 2fea 01       		.byte	0x1
 17454 2feb EA07     		.2byte	0x7ea
 17455 2fed AA0A0000 		.4byte	0xaaa
 17456 2ff1 D0200000 		.4byte	.LFB362
 17457 2ff5 36000000 		.4byte	.LFE362-.LFB362
 17458 2ff9 01       		.uleb128 0x1
 17459 2ffa 9C       		.byte	0x9c
 17460 2ffb 1E300000 		.4byte	0x301e
 17461 2fff 23       		.uleb128 0x23
 17462 3000 CC000000 		.4byte	.LASF450
 17463 3004 01       		.byte	0x1
 17464 3005 EA07     		.2byte	0x7ea
 17465 3007 3E030000 		.4byte	0x33e
 17466 300b 02       		.uleb128 0x2
 17467 300c 91       		.byte	0x91
 17468 300d 74       		.sleb128 -12
 17469 300e 23       		.uleb128 0x23
 17470 300f 13130000 		.4byte	.LASF446
 17471 3013 01       		.byte	0x1
 17472 3014 EA07     		.2byte	0x7ea
 17473 3016 1E300000 		.4byte	0x301e
 17474 301a 02       		.uleb128 0x2
 17475 301b 91       		.byte	0x91
 17476 301c 70       		.sleb128 -16
 17477 301d 00       		.byte	0
 17478 301e 09       		.uleb128 0x9
 17479 301f 04       		.byte	0x4
 17480 3020 99110000 		.4byte	0x1199
ARM GAS  /tmp/cc1ELVNa.s 			page 311


 17481 3024 22       		.uleb128 0x22
 17482 3025 C3370000 		.4byte	.LASF551
 17483 3029 01       		.byte	0x1
 17484 302a FB07     		.2byte	0x7fb
 17485 302c AA0A0000 		.4byte	0xaaa
 17486 3030 10210000 		.4byte	.LFB363
 17487 3034 36000000 		.4byte	.LFE363-.LFB363
 17488 3038 01       		.uleb128 0x1
 17489 3039 9C       		.byte	0x9c
 17490 303a 5D300000 		.4byte	0x305d
 17491 303e 23       		.uleb128 0x23
 17492 303f CC000000 		.4byte	.LASF450
 17493 3043 01       		.byte	0x1
 17494 3044 FB07     		.2byte	0x7fb
 17495 3046 3E030000 		.4byte	0x33e
 17496 304a 02       		.uleb128 0x2
 17497 304b 91       		.byte	0x91
 17498 304c 74       		.sleb128 -12
 17499 304d 23       		.uleb128 0x23
 17500 304e 13130000 		.4byte	.LASF446
 17501 3052 01       		.byte	0x1
 17502 3053 FB07     		.2byte	0x7fb
 17503 3055 5D300000 		.4byte	0x305d
 17504 3059 02       		.uleb128 0x2
 17505 305a 91       		.byte	0x91
 17506 305b 70       		.sleb128 -16
 17507 305c 00       		.byte	0
 17508 305d 09       		.uleb128 0x9
 17509 305e 04       		.byte	0x4
 17510 305f BB110000 		.4byte	0x11bb
 17511 3063 22       		.uleb128 0x22
 17512 3064 542D0000 		.4byte	.LASF552
 17513 3068 01       		.byte	0x1
 17514 3069 0C08     		.2byte	0x80c
 17515 306b AA0A0000 		.4byte	0xaaa
 17516 306f 50210000 		.4byte	.LFB364
 17517 3073 36000000 		.4byte	.LFE364-.LFB364
 17518 3077 01       		.uleb128 0x1
 17519 3078 9C       		.byte	0x9c
 17520 3079 9C300000 		.4byte	0x309c
 17521 307d 23       		.uleb128 0x23
 17522 307e CC000000 		.4byte	.LASF450
 17523 3082 01       		.byte	0x1
 17524 3083 0C08     		.2byte	0x80c
 17525 3085 3E030000 		.4byte	0x33e
 17526 3089 02       		.uleb128 0x2
 17527 308a 91       		.byte	0x91
 17528 308b 74       		.sleb128 -12
 17529 308c 23       		.uleb128 0x23
 17530 308d 13130000 		.4byte	.LASF446
 17531 3091 01       		.byte	0x1
 17532 3092 0C08     		.2byte	0x80c
 17533 3094 9C300000 		.4byte	0x309c
 17534 3098 02       		.uleb128 0x2
 17535 3099 91       		.byte	0x91
 17536 309a 70       		.sleb128 -16
 17537 309b 00       		.byte	0
ARM GAS  /tmp/cc1ELVNa.s 			page 312


 17538 309c 09       		.uleb128 0x9
 17539 309d 04       		.byte	0x4
 17540 309e DD110000 		.4byte	0x11dd
 17541 30a2 22       		.uleb128 0x22
 17542 30a3 21210000 		.4byte	.LASF553
 17543 30a7 01       		.byte	0x1
 17544 30a8 1D08     		.2byte	0x81d
 17545 30aa AA0A0000 		.4byte	0xaaa
 17546 30ae 90210000 		.4byte	.LFB365
 17547 30b2 36000000 		.4byte	.LFE365-.LFB365
 17548 30b6 01       		.uleb128 0x1
 17549 30b7 9C       		.byte	0x9c
 17550 30b8 DB300000 		.4byte	0x30db
 17551 30bc 23       		.uleb128 0x23
 17552 30bd CC000000 		.4byte	.LASF450
 17553 30c1 01       		.byte	0x1
 17554 30c2 1D08     		.2byte	0x81d
 17555 30c4 3E030000 		.4byte	0x33e
 17556 30c8 02       		.uleb128 0x2
 17557 30c9 91       		.byte	0x91
 17558 30ca 74       		.sleb128 -12
 17559 30cb 23       		.uleb128 0x23
 17560 30cc 13130000 		.4byte	.LASF446
 17561 30d0 01       		.byte	0x1
 17562 30d1 1D08     		.2byte	0x81d
 17563 30d3 DB300000 		.4byte	0x30db
 17564 30d7 02       		.uleb128 0x2
 17565 30d8 91       		.byte	0x91
 17566 30d9 70       		.sleb128 -16
 17567 30da 00       		.byte	0
 17568 30db 09       		.uleb128 0x9
 17569 30dc 04       		.byte	0x4
 17570 30dd FF110000 		.4byte	0x11ff
 17571 30e1 22       		.uleb128 0x22
 17572 30e2 2E140000 		.4byte	.LASF554
 17573 30e6 01       		.byte	0x1
 17574 30e7 2E08     		.2byte	0x82e
 17575 30e9 AA0A0000 		.4byte	0xaaa
 17576 30ed D0210000 		.4byte	.LFB366
 17577 30f1 36000000 		.4byte	.LFE366-.LFB366
 17578 30f5 01       		.uleb128 0x1
 17579 30f6 9C       		.byte	0x9c
 17580 30f7 1A310000 		.4byte	0x311a
 17581 30fb 23       		.uleb128 0x23
 17582 30fc CC000000 		.4byte	.LASF450
 17583 3100 01       		.byte	0x1
 17584 3101 2E08     		.2byte	0x82e
 17585 3103 3E030000 		.4byte	0x33e
 17586 3107 02       		.uleb128 0x2
 17587 3108 91       		.byte	0x91
 17588 3109 74       		.sleb128 -12
 17589 310a 23       		.uleb128 0x23
 17590 310b 13130000 		.4byte	.LASF446
 17591 310f 01       		.byte	0x1
 17592 3110 2E08     		.2byte	0x82e
 17593 3112 1A310000 		.4byte	0x311a
 17594 3116 02       		.uleb128 0x2
ARM GAS  /tmp/cc1ELVNa.s 			page 313


 17595 3117 91       		.byte	0x91
 17596 3118 70       		.sleb128 -16
 17597 3119 00       		.byte	0
 17598 311a 09       		.uleb128 0x9
 17599 311b 04       		.byte	0x4
 17600 311c 22120000 		.4byte	0x1222
 17601 3120 22       		.uleb128 0x22
 17602 3121 0C290000 		.4byte	.LASF555
 17603 3125 01       		.byte	0x1
 17604 3126 3F08     		.2byte	0x83f
 17605 3128 AA0A0000 		.4byte	0xaaa
 17606 312c 10220000 		.4byte	.LFB367
 17607 3130 36000000 		.4byte	.LFE367-.LFB367
 17608 3134 01       		.uleb128 0x1
 17609 3135 9C       		.byte	0x9c
 17610 3136 59310000 		.4byte	0x3159
 17611 313a 23       		.uleb128 0x23
 17612 313b CC000000 		.4byte	.LASF450
 17613 313f 01       		.byte	0x1
 17614 3140 3F08     		.2byte	0x83f
 17615 3142 3E030000 		.4byte	0x33e
 17616 3146 02       		.uleb128 0x2
 17617 3147 91       		.byte	0x91
 17618 3148 74       		.sleb128 -12
 17619 3149 23       		.uleb128 0x23
 17620 314a 13130000 		.4byte	.LASF446
 17621 314e 01       		.byte	0x1
 17622 314f 3F08     		.2byte	0x83f
 17623 3151 59310000 		.4byte	0x3159
 17624 3155 02       		.uleb128 0x2
 17625 3156 91       		.byte	0x91
 17626 3157 70       		.sleb128 -16
 17627 3158 00       		.byte	0
 17628 3159 09       		.uleb128 0x9
 17629 315a 04       		.byte	0x4
 17630 315b 45120000 		.4byte	0x1245
 17631 315f 22       		.uleb128 0x22
 17632 3160 DC140000 		.4byte	.LASF556
 17633 3164 01       		.byte	0x1
 17634 3165 5008     		.2byte	0x850
 17635 3167 AA0A0000 		.4byte	0xaaa
 17636 316b 50220000 		.4byte	.LFB368
 17637 316f 74000000 		.4byte	.LFE368-.LFB368
 17638 3173 01       		.uleb128 0x1
 17639 3174 9C       		.byte	0x9c
 17640 3175 A7310000 		.4byte	0x31a7
 17641 3179 23       		.uleb128 0x23
 17642 317a CC000000 		.4byte	.LASF450
 17643 317e 01       		.byte	0x1
 17644 317f 5008     		.2byte	0x850
 17645 3181 3E030000 		.4byte	0x33e
 17646 3185 02       		.uleb128 0x2
 17647 3186 91       		.byte	0x91
 17648 3187 6C       		.sleb128 -20
 17649 3188 23       		.uleb128 0x23
 17650 3189 2B290000 		.4byte	.LASF455
 17651 318d 01       		.byte	0x1
ARM GAS  /tmp/cc1ELVNa.s 			page 314


 17652 318e 5008     		.2byte	0x850
 17653 3190 2A0A0000 		.4byte	0xa2a
 17654 3194 02       		.uleb128 0x2
 17655 3195 91       		.byte	0x91
 17656 3196 6B       		.sleb128 -21
 17657 3197 24       		.uleb128 0x24
 17658 3198 13130000 		.4byte	.LASF446
 17659 319c 01       		.byte	0x1
 17660 319d 5208     		.2byte	0x852
 17661 319f 2A0A0000 		.4byte	0xa2a
 17662 31a3 02       		.uleb128 0x2
 17663 31a4 91       		.byte	0x91
 17664 31a5 77       		.sleb128 -9
 17665 31a6 00       		.byte	0
 17666 31a7 22       		.uleb128 0x22
 17667 31a8 6B0A0000 		.4byte	.LASF557
 17668 31ac 01       		.byte	0x1
 17669 31ad 6A08     		.2byte	0x86a
 17670 31af AA0A0000 		.4byte	0xaaa
 17671 31b3 D0220000 		.4byte	.LFB369
 17672 31b7 3E000000 		.4byte	.LFE369-.LFB369
 17673 31bb 01       		.uleb128 0x1
 17674 31bc 9C       		.byte	0x9c
 17675 31bd E0310000 		.4byte	0x31e0
 17676 31c1 23       		.uleb128 0x23
 17677 31c2 CC000000 		.4byte	.LASF450
 17678 31c6 01       		.byte	0x1
 17679 31c7 6A08     		.2byte	0x86a
 17680 31c9 3E030000 		.4byte	0x33e
 17681 31cd 02       		.uleb128 0x2
 17682 31ce 91       		.byte	0x91
 17683 31cf 74       		.sleb128 -12
 17684 31d0 23       		.uleb128 0x23
 17685 31d1 13130000 		.4byte	.LASF446
 17686 31d5 01       		.byte	0x1
 17687 31d6 6A08     		.2byte	0x86a
 17688 31d8 50170000 		.4byte	0x1750
 17689 31dc 02       		.uleb128 0x2
 17690 31dd 91       		.byte	0x91
 17691 31de 70       		.sleb128 -16
 17692 31df 00       		.byte	0
 17693 31e0 22       		.uleb128 0x22
 17694 31e1 422F0000 		.4byte	.LASF558
 17695 31e5 01       		.byte	0x1
 17696 31e6 7C08     		.2byte	0x87c
 17697 31e8 AA0A0000 		.4byte	0xaaa
 17698 31ec 10230000 		.4byte	.LFB370
 17699 31f0 68000000 		.4byte	.LFE370-.LFB370
 17700 31f4 01       		.uleb128 0x1
 17701 31f5 9C       		.byte	0x9c
 17702 31f6 28320000 		.4byte	0x3228
 17703 31fa 23       		.uleb128 0x23
 17704 31fb CC000000 		.4byte	.LASF450
 17705 31ff 01       		.byte	0x1
 17706 3200 7C08     		.2byte	0x87c
 17707 3202 3E030000 		.4byte	0x33e
 17708 3206 02       		.uleb128 0x2
ARM GAS  /tmp/cc1ELVNa.s 			page 315


 17709 3207 91       		.byte	0x91
 17710 3208 6C       		.sleb128 -20
 17711 3209 23       		.uleb128 0x23
 17712 320a 2B290000 		.4byte	.LASF455
 17713 320e 01       		.byte	0x1
 17714 320f 7C08     		.2byte	0x87c
 17715 3211 67120000 		.4byte	0x1267
 17716 3215 02       		.uleb128 0x2
 17717 3216 91       		.byte	0x91
 17718 3217 6B       		.sleb128 -21
 17719 3218 24       		.uleb128 0x24
 17720 3219 13130000 		.4byte	.LASF446
 17721 321d 01       		.byte	0x1
 17722 321e 7E08     		.2byte	0x87e
 17723 3220 2A0A0000 		.4byte	0xa2a
 17724 3224 02       		.uleb128 0x2
 17725 3225 91       		.byte	0x91
 17726 3226 77       		.sleb128 -9
 17727 3227 00       		.byte	0
 17728 3228 22       		.uleb128 0x22
 17729 3229 B9160000 		.4byte	.LASF559
 17730 322d 01       		.byte	0x1
 17731 322e 9308     		.2byte	0x893
 17732 3230 AA0A0000 		.4byte	0xaaa
 17733 3234 80230000 		.4byte	.LFB371
 17734 3238 36000000 		.4byte	.LFE371-.LFB371
 17735 323c 01       		.uleb128 0x1
 17736 323d 9C       		.byte	0x9c
 17737 323e 61320000 		.4byte	0x3261
 17738 3242 23       		.uleb128 0x23
 17739 3243 CC000000 		.4byte	.LASF450
 17740 3247 01       		.byte	0x1
 17741 3248 9308     		.2byte	0x893
 17742 324a 3E030000 		.4byte	0x33e
 17743 324e 02       		.uleb128 0x2
 17744 324f 91       		.byte	0x91
 17745 3250 74       		.sleb128 -12
 17746 3251 23       		.uleb128 0x23
 17747 3252 13130000 		.4byte	.LASF446
 17748 3256 01       		.byte	0x1
 17749 3257 9308     		.2byte	0x893
 17750 3259 61320000 		.4byte	0x3261
 17751 325d 02       		.uleb128 0x2
 17752 325e 91       		.byte	0x91
 17753 325f 70       		.sleb128 -16
 17754 3260 00       		.byte	0
 17755 3261 09       		.uleb128 0x9
 17756 3262 04       		.byte	0x4
 17757 3263 67120000 		.4byte	0x1267
 17758 3267 22       		.uleb128 0x22
 17759 3268 F11E0000 		.4byte	.LASF560
 17760 326c 01       		.byte	0x1
 17761 326d A408     		.2byte	0x8a4
 17762 326f AA0A0000 		.4byte	0xaaa
 17763 3273 C0230000 		.4byte	.LFB372
 17764 3277 68000000 		.4byte	.LFE372-.LFB372
 17765 327b 01       		.uleb128 0x1
ARM GAS  /tmp/cc1ELVNa.s 			page 316


 17766 327c 9C       		.byte	0x9c
 17767 327d AF320000 		.4byte	0x32af
 17768 3281 23       		.uleb128 0x23
 17769 3282 CC000000 		.4byte	.LASF450
 17770 3286 01       		.byte	0x1
 17771 3287 A408     		.2byte	0x8a4
 17772 3289 3E030000 		.4byte	0x33e
 17773 328d 02       		.uleb128 0x2
 17774 328e 91       		.byte	0x91
 17775 328f 6C       		.sleb128 -20
 17776 3290 23       		.uleb128 0x23
 17777 3291 2B290000 		.4byte	.LASF455
 17778 3295 01       		.byte	0x1
 17779 3296 A408     		.2byte	0x8a4
 17780 3298 98120000 		.4byte	0x1298
 17781 329c 02       		.uleb128 0x2
 17782 329d 91       		.byte	0x91
 17783 329e 6B       		.sleb128 -21
 17784 329f 24       		.uleb128 0x24
 17785 32a0 13130000 		.4byte	.LASF446
 17786 32a4 01       		.byte	0x1
 17787 32a5 A608     		.2byte	0x8a6
 17788 32a7 2A0A0000 		.4byte	0xa2a
 17789 32ab 02       		.uleb128 0x2
 17790 32ac 91       		.byte	0x91
 17791 32ad 77       		.sleb128 -9
 17792 32ae 00       		.byte	0
 17793 32af 22       		.uleb128 0x22
 17794 32b0 A7180000 		.4byte	.LASF561
 17795 32b4 01       		.byte	0x1
 17796 32b5 BB08     		.2byte	0x8bb
 17797 32b7 AA0A0000 		.4byte	0xaaa
 17798 32bb 30240000 		.4byte	.LFB373
 17799 32bf 36000000 		.4byte	.LFE373-.LFB373
 17800 32c3 01       		.uleb128 0x1
 17801 32c4 9C       		.byte	0x9c
 17802 32c5 E8320000 		.4byte	0x32e8
 17803 32c9 23       		.uleb128 0x23
 17804 32ca CC000000 		.4byte	.LASF450
 17805 32ce 01       		.byte	0x1
 17806 32cf BB08     		.2byte	0x8bb
 17807 32d1 3E030000 		.4byte	0x33e
 17808 32d5 02       		.uleb128 0x2
 17809 32d6 91       		.byte	0x91
 17810 32d7 74       		.sleb128 -12
 17811 32d8 23       		.uleb128 0x23
 17812 32d9 13130000 		.4byte	.LASF446
 17813 32dd 01       		.byte	0x1
 17814 32de BB08     		.2byte	0x8bb
 17815 32e0 E8320000 		.4byte	0x32e8
 17816 32e4 02       		.uleb128 0x2
 17817 32e5 91       		.byte	0x91
 17818 32e6 70       		.sleb128 -16
 17819 32e7 00       		.byte	0
 17820 32e8 09       		.uleb128 0x9
 17821 32e9 04       		.byte	0x4
 17822 32ea 98120000 		.4byte	0x1298
ARM GAS  /tmp/cc1ELVNa.s 			page 317


 17823 32ee 22       		.uleb128 0x22
 17824 32ef 27070000 		.4byte	.LASF562
 17825 32f3 01       		.byte	0x1
 17826 32f4 CC08     		.2byte	0x8cc
 17827 32f6 AA0A0000 		.4byte	0xaaa
 17828 32fa 70240000 		.4byte	.LFB374
 17829 32fe 3E000000 		.4byte	.LFE374-.LFB374
 17830 3302 01       		.uleb128 0x1
 17831 3303 9C       		.byte	0x9c
 17832 3304 27330000 		.4byte	0x3327
 17833 3308 23       		.uleb128 0x23
 17834 3309 CC000000 		.4byte	.LASF450
 17835 330d 01       		.byte	0x1
 17836 330e CC08     		.2byte	0x8cc
 17837 3310 3E030000 		.4byte	0x33e
 17838 3314 02       		.uleb128 0x2
 17839 3315 91       		.byte	0x91
 17840 3316 74       		.sleb128 -12
 17841 3317 23       		.uleb128 0x23
 17842 3318 13130000 		.4byte	.LASF446
 17843 331c 01       		.byte	0x1
 17844 331d CC08     		.2byte	0x8cc
 17845 331f 50170000 		.4byte	0x1750
 17846 3323 02       		.uleb128 0x2
 17847 3324 91       		.byte	0x91
 17848 3325 70       		.sleb128 -16
 17849 3326 00       		.byte	0
 17850 3327 22       		.uleb128 0x22
 17851 3328 F62F0000 		.4byte	.LASF563
 17852 332c 01       		.byte	0x1
 17853 332d DE08     		.2byte	0x8de
 17854 332f AA0A0000 		.4byte	0xaaa
 17855 3333 B0240000 		.4byte	.LFB375
 17856 3337 36000000 		.4byte	.LFE375-.LFB375
 17857 333b 01       		.uleb128 0x1
 17858 333c 9C       		.byte	0x9c
 17859 333d 60330000 		.4byte	0x3360
 17860 3341 23       		.uleb128 0x23
 17861 3342 CC000000 		.4byte	.LASF450
 17862 3346 01       		.byte	0x1
 17863 3347 DE08     		.2byte	0x8de
 17864 3349 3E030000 		.4byte	0x33e
 17865 334d 02       		.uleb128 0x2
 17866 334e 91       		.byte	0x91
 17867 334f 74       		.sleb128 -12
 17868 3350 23       		.uleb128 0x23
 17869 3351 13130000 		.4byte	.LASF446
 17870 3355 01       		.byte	0x1
 17871 3356 DE08     		.2byte	0x8de
 17872 3358 60330000 		.4byte	0x3360
 17873 335c 02       		.uleb128 0x2
 17874 335d 91       		.byte	0x91
 17875 335e 70       		.sleb128 -16
 17876 335f 00       		.byte	0
 17877 3360 09       		.uleb128 0x9
 17878 3361 04       		.byte	0x4
 17879 3362 BA120000 		.4byte	0x12ba
ARM GAS  /tmp/cc1ELVNa.s 			page 318


 17880 3366 22       		.uleb128 0x22
 17881 3367 EC210000 		.4byte	.LASF564
 17882 336b 01       		.byte	0x1
 17883 336c EF08     		.2byte	0x8ef
 17884 336e AA0A0000 		.4byte	0xaaa
 17885 3372 F0240000 		.4byte	.LFB376
 17886 3376 36000000 		.4byte	.LFE376-.LFB376
 17887 337a 01       		.uleb128 0x1
 17888 337b 9C       		.byte	0x9c
 17889 337c 9F330000 		.4byte	0x339f
 17890 3380 23       		.uleb128 0x23
 17891 3381 CC000000 		.4byte	.LASF450
 17892 3385 01       		.byte	0x1
 17893 3386 EF08     		.2byte	0x8ef
 17894 3388 3E030000 		.4byte	0x33e
 17895 338c 02       		.uleb128 0x2
 17896 338d 91       		.byte	0x91
 17897 338e 74       		.sleb128 -12
 17898 338f 23       		.uleb128 0x23
 17899 3390 13130000 		.4byte	.LASF446
 17900 3394 01       		.byte	0x1
 17901 3395 EF08     		.2byte	0x8ef
 17902 3397 9F330000 		.4byte	0x339f
 17903 339b 02       		.uleb128 0x2
 17904 339c 91       		.byte	0x91
 17905 339d 70       		.sleb128 -16
 17906 339e 00       		.byte	0
 17907 339f 09       		.uleb128 0x9
 17908 33a0 04       		.byte	0x4
 17909 33a1 DD120000 		.4byte	0x12dd
 17910 33a5 22       		.uleb128 0x22
 17911 33a6 4E120000 		.4byte	.LASF565
 17912 33aa 01       		.byte	0x1
 17913 33ab 0009     		.2byte	0x900
 17914 33ad AA0A0000 		.4byte	0xaaa
 17915 33b1 30250000 		.4byte	.LFB377
 17916 33b5 36000000 		.4byte	.LFE377-.LFB377
 17917 33b9 01       		.uleb128 0x1
 17918 33ba 9C       		.byte	0x9c
 17919 33bb DE330000 		.4byte	0x33de
 17920 33bf 23       		.uleb128 0x23
 17921 33c0 CC000000 		.4byte	.LASF450
 17922 33c4 01       		.byte	0x1
 17923 33c5 0009     		.2byte	0x900
 17924 33c7 3E030000 		.4byte	0x33e
 17925 33cb 02       		.uleb128 0x2
 17926 33cc 91       		.byte	0x91
 17927 33cd 74       		.sleb128 -12
 17928 33ce 23       		.uleb128 0x23
 17929 33cf 13130000 		.4byte	.LASF446
 17930 33d3 01       		.byte	0x1
 17931 33d4 0009     		.2byte	0x900
 17932 33d6 DE330000 		.4byte	0x33de
 17933 33da 02       		.uleb128 0x2
 17934 33db 91       		.byte	0x91
 17935 33dc 70       		.sleb128 -16
 17936 33dd 00       		.byte	0
ARM GAS  /tmp/cc1ELVNa.s 			page 319


 17937 33de 09       		.uleb128 0x9
 17938 33df 04       		.byte	0x4
 17939 33e0 00130000 		.4byte	0x1300
 17940 33e4 22       		.uleb128 0x22
 17941 33e5 6F050000 		.4byte	.LASF566
 17942 33e9 01       		.byte	0x1
 17943 33ea 1109     		.2byte	0x911
 17944 33ec AA0A0000 		.4byte	0xaaa
 17945 33f0 70250000 		.4byte	.LFB378
 17946 33f4 68000000 		.4byte	.LFE378-.LFB378
 17947 33f8 01       		.uleb128 0x1
 17948 33f9 9C       		.byte	0x9c
 17949 33fa 2C340000 		.4byte	0x342c
 17950 33fe 23       		.uleb128 0x23
 17951 33ff CC000000 		.4byte	.LASF450
 17952 3403 01       		.byte	0x1
 17953 3404 1109     		.2byte	0x911
 17954 3406 3E030000 		.4byte	0x33e
 17955 340a 02       		.uleb128 0x2
 17956 340b 91       		.byte	0x91
 17957 340c 6C       		.sleb128 -20
 17958 340d 23       		.uleb128 0x23
 17959 340e 2B290000 		.4byte	.LASF455
 17960 3412 01       		.byte	0x1
 17961 3413 1109     		.2byte	0x911
 17962 3415 22130000 		.4byte	0x1322
 17963 3419 02       		.uleb128 0x2
 17964 341a 91       		.byte	0x91
 17965 341b 6B       		.sleb128 -21
 17966 341c 24       		.uleb128 0x24
 17967 341d 13130000 		.4byte	.LASF446
 17968 3421 01       		.byte	0x1
 17969 3422 1309     		.2byte	0x913
 17970 3424 2A0A0000 		.4byte	0xa2a
 17971 3428 02       		.uleb128 0x2
 17972 3429 91       		.byte	0x91
 17973 342a 77       		.sleb128 -9
 17974 342b 00       		.byte	0
 17975 342c 22       		.uleb128 0x22
 17976 342d 6E1A0000 		.4byte	.LASF567
 17977 3431 01       		.byte	0x1
 17978 3432 2809     		.2byte	0x928
 17979 3434 AA0A0000 		.4byte	0xaaa
 17980 3438 E0250000 		.4byte	.LFB379
 17981 343c 36000000 		.4byte	.LFE379-.LFB379
 17982 3440 01       		.uleb128 0x1
 17983 3441 9C       		.byte	0x9c
 17984 3442 65340000 		.4byte	0x3465
 17985 3446 23       		.uleb128 0x23
 17986 3447 CC000000 		.4byte	.LASF450
 17987 344b 01       		.byte	0x1
 17988 344c 2809     		.2byte	0x928
 17989 344e 3E030000 		.4byte	0x33e
 17990 3452 02       		.uleb128 0x2
 17991 3453 91       		.byte	0x91
 17992 3454 74       		.sleb128 -12
 17993 3455 23       		.uleb128 0x23
ARM GAS  /tmp/cc1ELVNa.s 			page 320


 17994 3456 13130000 		.4byte	.LASF446
 17995 345a 01       		.byte	0x1
 17996 345b 2809     		.2byte	0x928
 17997 345d 65340000 		.4byte	0x3465
 17998 3461 02       		.uleb128 0x2
 17999 3462 91       		.byte	0x91
 18000 3463 70       		.sleb128 -16
 18001 3464 00       		.byte	0
 18002 3465 09       		.uleb128 0x9
 18003 3466 04       		.byte	0x4
 18004 3467 22130000 		.4byte	0x1322
 18005 346b 22       		.uleb128 0x22
 18006 346c 4C020000 		.4byte	.LASF568
 18007 3470 01       		.byte	0x1
 18008 3471 3909     		.2byte	0x939
 18009 3473 AA0A0000 		.4byte	0xaaa
 18010 3477 20260000 		.4byte	.LFB380
 18011 347b 68000000 		.4byte	.LFE380-.LFB380
 18012 347f 01       		.uleb128 0x1
 18013 3480 9C       		.byte	0x9c
 18014 3481 B3340000 		.4byte	0x34b3
 18015 3485 23       		.uleb128 0x23
 18016 3486 CC000000 		.4byte	.LASF450
 18017 348a 01       		.byte	0x1
 18018 348b 3909     		.2byte	0x939
 18019 348d 3E030000 		.4byte	0x33e
 18020 3491 02       		.uleb128 0x2
 18021 3492 91       		.byte	0x91
 18022 3493 6C       		.sleb128 -20
 18023 3494 23       		.uleb128 0x23
 18024 3495 2B290000 		.4byte	.LASF455
 18025 3499 01       		.byte	0x1
 18026 349a 3909     		.2byte	0x939
 18027 349c 44130000 		.4byte	0x1344
 18028 34a0 02       		.uleb128 0x2
 18029 34a1 91       		.byte	0x91
 18030 34a2 6B       		.sleb128 -21
 18031 34a3 24       		.uleb128 0x24
 18032 34a4 13130000 		.4byte	.LASF446
 18033 34a8 01       		.byte	0x1
 18034 34a9 3B09     		.2byte	0x93b
 18035 34ab 2A0A0000 		.4byte	0xa2a
 18036 34af 02       		.uleb128 0x2
 18037 34b0 91       		.byte	0x91
 18038 34b1 77       		.sleb128 -9
 18039 34b2 00       		.byte	0
 18040 34b3 22       		.uleb128 0x22
 18041 34b4 110D0000 		.4byte	.LASF569
 18042 34b8 01       		.byte	0x1
 18043 34b9 5009     		.2byte	0x950
 18044 34bb AA0A0000 		.4byte	0xaaa
 18045 34bf 90260000 		.4byte	.LFB381
 18046 34c3 36000000 		.4byte	.LFE381-.LFB381
 18047 34c7 01       		.uleb128 0x1
 18048 34c8 9C       		.byte	0x9c
 18049 34c9 EC340000 		.4byte	0x34ec
 18050 34cd 23       		.uleb128 0x23
ARM GAS  /tmp/cc1ELVNa.s 			page 321


 18051 34ce CC000000 		.4byte	.LASF450
 18052 34d2 01       		.byte	0x1
 18053 34d3 5009     		.2byte	0x950
 18054 34d5 3E030000 		.4byte	0x33e
 18055 34d9 02       		.uleb128 0x2
 18056 34da 91       		.byte	0x91
 18057 34db 74       		.sleb128 -12
 18058 34dc 23       		.uleb128 0x23
 18059 34dd 13130000 		.4byte	.LASF446
 18060 34e1 01       		.byte	0x1
 18061 34e2 5009     		.2byte	0x950
 18062 34e4 EC340000 		.4byte	0x34ec
 18063 34e8 02       		.uleb128 0x2
 18064 34e9 91       		.byte	0x91
 18065 34ea 70       		.sleb128 -16
 18066 34eb 00       		.byte	0
 18067 34ec 09       		.uleb128 0x9
 18068 34ed 04       		.byte	0x4
 18069 34ee 44130000 		.4byte	0x1344
 18070 34f2 22       		.uleb128 0x22
 18071 34f3 C80A0000 		.4byte	.LASF570
 18072 34f7 01       		.byte	0x1
 18073 34f8 6109     		.2byte	0x961
 18074 34fa AA0A0000 		.4byte	0xaaa
 18075 34fe D0260000 		.4byte	.LFB382
 18076 3502 68000000 		.4byte	.LFE382-.LFB382
 18077 3506 01       		.uleb128 0x1
 18078 3507 9C       		.byte	0x9c
 18079 3508 3A350000 		.4byte	0x353a
 18080 350c 23       		.uleb128 0x23
 18081 350d CC000000 		.4byte	.LASF450
 18082 3511 01       		.byte	0x1
 18083 3512 6109     		.2byte	0x961
 18084 3514 3E030000 		.4byte	0x33e
 18085 3518 02       		.uleb128 0x2
 18086 3519 91       		.byte	0x91
 18087 351a 6C       		.sleb128 -20
 18088 351b 23       		.uleb128 0x23
 18089 351c 2B290000 		.4byte	.LASF455
 18090 3520 01       		.byte	0x1
 18091 3521 6109     		.2byte	0x961
 18092 3523 66130000 		.4byte	0x1366
 18093 3527 02       		.uleb128 0x2
 18094 3528 91       		.byte	0x91
 18095 3529 6B       		.sleb128 -21
 18096 352a 24       		.uleb128 0x24
 18097 352b 13130000 		.4byte	.LASF446
 18098 352f 01       		.byte	0x1
 18099 3530 6309     		.2byte	0x963
 18100 3532 2A0A0000 		.4byte	0xa2a
 18101 3536 02       		.uleb128 0x2
 18102 3537 91       		.byte	0x91
 18103 3538 77       		.sleb128 -9
 18104 3539 00       		.byte	0
 18105 353a 22       		.uleb128 0x22
 18106 353b 5D210000 		.4byte	.LASF571
 18107 353f 01       		.byte	0x1
ARM GAS  /tmp/cc1ELVNa.s 			page 322


 18108 3540 7809     		.2byte	0x978
 18109 3542 AA0A0000 		.4byte	0xaaa
 18110 3546 40270000 		.4byte	.LFB383
 18111 354a 36000000 		.4byte	.LFE383-.LFB383
 18112 354e 01       		.uleb128 0x1
 18113 354f 9C       		.byte	0x9c
 18114 3550 73350000 		.4byte	0x3573
 18115 3554 23       		.uleb128 0x23
 18116 3555 CC000000 		.4byte	.LASF450
 18117 3559 01       		.byte	0x1
 18118 355a 7809     		.2byte	0x978
 18119 355c 3E030000 		.4byte	0x33e
 18120 3560 02       		.uleb128 0x2
 18121 3561 91       		.byte	0x91
 18122 3562 74       		.sleb128 -12
 18123 3563 23       		.uleb128 0x23
 18124 3564 13130000 		.4byte	.LASF446
 18125 3568 01       		.byte	0x1
 18126 3569 7809     		.2byte	0x978
 18127 356b 73350000 		.4byte	0x3573
 18128 356f 02       		.uleb128 0x2
 18129 3570 91       		.byte	0x91
 18130 3571 70       		.sleb128 -16
 18131 3572 00       		.byte	0
 18132 3573 09       		.uleb128 0x9
 18133 3574 04       		.byte	0x4
 18134 3575 66130000 		.4byte	0x1366
 18135 3579 22       		.uleb128 0x22
 18136 357a 48070000 		.4byte	.LASF572
 18137 357e 01       		.byte	0x1
 18138 357f 8909     		.2byte	0x989
 18139 3581 AA0A0000 		.4byte	0xaaa
 18140 3585 80270000 		.4byte	.LFB384
 18141 3589 68000000 		.4byte	.LFE384-.LFB384
 18142 358d 01       		.uleb128 0x1
 18143 358e 9C       		.byte	0x9c
 18144 358f C1350000 		.4byte	0x35c1
 18145 3593 23       		.uleb128 0x23
 18146 3594 CC000000 		.4byte	.LASF450
 18147 3598 01       		.byte	0x1
 18148 3599 8909     		.2byte	0x989
 18149 359b 3E030000 		.4byte	0x33e
 18150 359f 02       		.uleb128 0x2
 18151 35a0 91       		.byte	0x91
 18152 35a1 6C       		.sleb128 -20
 18153 35a2 23       		.uleb128 0x23
 18154 35a3 2B290000 		.4byte	.LASF455
 18155 35a7 01       		.byte	0x1
 18156 35a8 8909     		.2byte	0x989
 18157 35aa 88130000 		.4byte	0x1388
 18158 35ae 02       		.uleb128 0x2
 18159 35af 91       		.byte	0x91
 18160 35b0 6B       		.sleb128 -21
 18161 35b1 24       		.uleb128 0x24
 18162 35b2 13130000 		.4byte	.LASF446
 18163 35b6 01       		.byte	0x1
 18164 35b7 8B09     		.2byte	0x98b
ARM GAS  /tmp/cc1ELVNa.s 			page 323


 18165 35b9 2A0A0000 		.4byte	0xa2a
 18166 35bd 02       		.uleb128 0x2
 18167 35be 91       		.byte	0x91
 18168 35bf 77       		.sleb128 -9
 18169 35c0 00       		.byte	0
 18170 35c1 22       		.uleb128 0x22
 18171 35c2 1A1D0000 		.4byte	.LASF573
 18172 35c6 01       		.byte	0x1
 18173 35c7 A009     		.2byte	0x9a0
 18174 35c9 AA0A0000 		.4byte	0xaaa
 18175 35cd F0270000 		.4byte	.LFB385
 18176 35d1 36000000 		.4byte	.LFE385-.LFB385
 18177 35d5 01       		.uleb128 0x1
 18178 35d6 9C       		.byte	0x9c
 18179 35d7 FA350000 		.4byte	0x35fa
 18180 35db 23       		.uleb128 0x23
 18181 35dc CC000000 		.4byte	.LASF450
 18182 35e0 01       		.byte	0x1
 18183 35e1 A009     		.2byte	0x9a0
 18184 35e3 3E030000 		.4byte	0x33e
 18185 35e7 02       		.uleb128 0x2
 18186 35e8 91       		.byte	0x91
 18187 35e9 74       		.sleb128 -12
 18188 35ea 23       		.uleb128 0x23
 18189 35eb 13130000 		.4byte	.LASF446
 18190 35ef 01       		.byte	0x1
 18191 35f0 A009     		.2byte	0x9a0
 18192 35f2 FA350000 		.4byte	0x35fa
 18193 35f6 02       		.uleb128 0x2
 18194 35f7 91       		.byte	0x91
 18195 35f8 70       		.sleb128 -16
 18196 35f9 00       		.byte	0
 18197 35fa 09       		.uleb128 0x9
 18198 35fb 04       		.byte	0x4
 18199 35fc 88130000 		.4byte	0x1388
 18200 3600 22       		.uleb128 0x22
 18201 3601 6D120000 		.4byte	.LASF574
 18202 3605 01       		.byte	0x1
 18203 3606 B109     		.2byte	0x9b1
 18204 3608 AA0A0000 		.4byte	0xaaa
 18205 360c 30280000 		.4byte	.LFB386
 18206 3610 68000000 		.4byte	.LFE386-.LFB386
 18207 3614 01       		.uleb128 0x1
 18208 3615 9C       		.byte	0x9c
 18209 3616 48360000 		.4byte	0x3648
 18210 361a 23       		.uleb128 0x23
 18211 361b CC000000 		.4byte	.LASF450
 18212 361f 01       		.byte	0x1
 18213 3620 B109     		.2byte	0x9b1
 18214 3622 3E030000 		.4byte	0x33e
 18215 3626 02       		.uleb128 0x2
 18216 3627 91       		.byte	0x91
 18217 3628 6C       		.sleb128 -20
 18218 3629 23       		.uleb128 0x23
 18219 362a 2B290000 		.4byte	.LASF455
 18220 362e 01       		.byte	0x1
 18221 362f B109     		.2byte	0x9b1
ARM GAS  /tmp/cc1ELVNa.s 			page 324


 18222 3631 AA130000 		.4byte	0x13aa
 18223 3635 02       		.uleb128 0x2
 18224 3636 91       		.byte	0x91
 18225 3637 6B       		.sleb128 -21
 18226 3638 24       		.uleb128 0x24
 18227 3639 13130000 		.4byte	.LASF446
 18228 363d 01       		.byte	0x1
 18229 363e B309     		.2byte	0x9b3
 18230 3640 2A0A0000 		.4byte	0xa2a
 18231 3644 02       		.uleb128 0x2
 18232 3645 91       		.byte	0x91
 18233 3646 77       		.sleb128 -9
 18234 3647 00       		.byte	0
 18235 3648 22       		.uleb128 0x22
 18236 3649 56260000 		.4byte	.LASF575
 18237 364d 01       		.byte	0x1
 18238 364e C809     		.2byte	0x9c8
 18239 3650 AA0A0000 		.4byte	0xaaa
 18240 3654 A0280000 		.4byte	.LFB387
 18241 3658 36000000 		.4byte	.LFE387-.LFB387
 18242 365c 01       		.uleb128 0x1
 18243 365d 9C       		.byte	0x9c
 18244 365e 81360000 		.4byte	0x3681
 18245 3662 23       		.uleb128 0x23
 18246 3663 CC000000 		.4byte	.LASF450
 18247 3667 01       		.byte	0x1
 18248 3668 C809     		.2byte	0x9c8
 18249 366a 3E030000 		.4byte	0x33e
 18250 366e 02       		.uleb128 0x2
 18251 366f 91       		.byte	0x91
 18252 3670 74       		.sleb128 -12
 18253 3671 23       		.uleb128 0x23
 18254 3672 13130000 		.4byte	.LASF446
 18255 3676 01       		.byte	0x1
 18256 3677 C809     		.2byte	0x9c8
 18257 3679 81360000 		.4byte	0x3681
 18258 367d 02       		.uleb128 0x2
 18259 367e 91       		.byte	0x91
 18260 367f 70       		.sleb128 -16
 18261 3680 00       		.byte	0
 18262 3681 09       		.uleb128 0x9
 18263 3682 04       		.byte	0x4
 18264 3683 AA130000 		.4byte	0x13aa
 18265 3687 22       		.uleb128 0x22
 18266 3688 450D0000 		.4byte	.LASF576
 18267 368c 01       		.byte	0x1
 18268 368d D909     		.2byte	0x9d9
 18269 368f AA0A0000 		.4byte	0xaaa
 18270 3693 E0280000 		.4byte	.LFB388
 18271 3697 68000000 		.4byte	.LFE388-.LFB388
 18272 369b 01       		.uleb128 0x1
 18273 369c 9C       		.byte	0x9c
 18274 369d CF360000 		.4byte	0x36cf
 18275 36a1 23       		.uleb128 0x23
 18276 36a2 CC000000 		.4byte	.LASF450
 18277 36a6 01       		.byte	0x1
 18278 36a7 D909     		.2byte	0x9d9
ARM GAS  /tmp/cc1ELVNa.s 			page 325


 18279 36a9 3E030000 		.4byte	0x33e
 18280 36ad 02       		.uleb128 0x2
 18281 36ae 91       		.byte	0x91
 18282 36af 6C       		.sleb128 -20
 18283 36b0 23       		.uleb128 0x23
 18284 36b1 2B290000 		.4byte	.LASF455
 18285 36b5 01       		.byte	0x1
 18286 36b6 D909     		.2byte	0x9d9
 18287 36b8 CC130000 		.4byte	0x13cc
 18288 36bc 02       		.uleb128 0x2
 18289 36bd 91       		.byte	0x91
 18290 36be 6B       		.sleb128 -21
 18291 36bf 24       		.uleb128 0x24
 18292 36c0 13130000 		.4byte	.LASF446
 18293 36c4 01       		.byte	0x1
 18294 36c5 DB09     		.2byte	0x9db
 18295 36c7 2A0A0000 		.4byte	0xa2a
 18296 36cb 02       		.uleb128 0x2
 18297 36cc 91       		.byte	0x91
 18298 36cd 77       		.sleb128 -9
 18299 36ce 00       		.byte	0
 18300 36cf 22       		.uleb128 0x22
 18301 36d0 2E230000 		.4byte	.LASF577
 18302 36d4 01       		.byte	0x1
 18303 36d5 F009     		.2byte	0x9f0
 18304 36d7 AA0A0000 		.4byte	0xaaa
 18305 36db 50290000 		.4byte	.LFB389
 18306 36df 36000000 		.4byte	.LFE389-.LFB389
 18307 36e3 01       		.uleb128 0x1
 18308 36e4 9C       		.byte	0x9c
 18309 36e5 08370000 		.4byte	0x3708
 18310 36e9 23       		.uleb128 0x23
 18311 36ea CC000000 		.4byte	.LASF450
 18312 36ee 01       		.byte	0x1
 18313 36ef F009     		.2byte	0x9f0
 18314 36f1 3E030000 		.4byte	0x33e
 18315 36f5 02       		.uleb128 0x2
 18316 36f6 91       		.byte	0x91
 18317 36f7 74       		.sleb128 -12
 18318 36f8 23       		.uleb128 0x23
 18319 36f9 13130000 		.4byte	.LASF446
 18320 36fd 01       		.byte	0x1
 18321 36fe F009     		.2byte	0x9f0
 18322 3700 08370000 		.4byte	0x3708
 18323 3704 02       		.uleb128 0x2
 18324 3705 91       		.byte	0x91
 18325 3706 70       		.sleb128 -16
 18326 3707 00       		.byte	0
 18327 3708 09       		.uleb128 0x9
 18328 3709 04       		.byte	0x4
 18329 370a CC130000 		.4byte	0x13cc
 18330 370e 22       		.uleb128 0x22
 18331 370f 39000000 		.4byte	.LASF578
 18332 3713 01       		.byte	0x1
 18333 3714 010A     		.2byte	0xa01
 18334 3716 AA0A0000 		.4byte	0xaaa
 18335 371a 90290000 		.4byte	.LFB390
ARM GAS  /tmp/cc1ELVNa.s 			page 326


 18336 371e 68000000 		.4byte	.LFE390-.LFB390
 18337 3722 01       		.uleb128 0x1
 18338 3723 9C       		.byte	0x9c
 18339 3724 56370000 		.4byte	0x3756
 18340 3728 23       		.uleb128 0x23
 18341 3729 CC000000 		.4byte	.LASF450
 18342 372d 01       		.byte	0x1
 18343 372e 010A     		.2byte	0xa01
 18344 3730 3E030000 		.4byte	0x33e
 18345 3734 02       		.uleb128 0x2
 18346 3735 91       		.byte	0x91
 18347 3736 6C       		.sleb128 -20
 18348 3737 23       		.uleb128 0x23
 18349 3738 2B290000 		.4byte	.LASF455
 18350 373c 01       		.byte	0x1
 18351 373d 010A     		.2byte	0xa01
 18352 373f EF130000 		.4byte	0x13ef
 18353 3743 02       		.uleb128 0x2
 18354 3744 91       		.byte	0x91
 18355 3745 6B       		.sleb128 -21
 18356 3746 24       		.uleb128 0x24
 18357 3747 13130000 		.4byte	.LASF446
 18358 374b 01       		.byte	0x1
 18359 374c 030A     		.2byte	0xa03
 18360 374e 2A0A0000 		.4byte	0xa2a
 18361 3752 02       		.uleb128 0x2
 18362 3753 91       		.byte	0x91
 18363 3754 77       		.sleb128 -9
 18364 3755 00       		.byte	0
 18365 3756 22       		.uleb128 0x22
 18366 3757 7F380000 		.4byte	.LASF579
 18367 375b 01       		.byte	0x1
 18368 375c 180A     		.2byte	0xa18
 18369 375e AA0A0000 		.4byte	0xaaa
 18370 3762 002A0000 		.4byte	.LFB391
 18371 3766 36000000 		.4byte	.LFE391-.LFB391
 18372 376a 01       		.uleb128 0x1
 18373 376b 9C       		.byte	0x9c
 18374 376c 8F370000 		.4byte	0x378f
 18375 3770 23       		.uleb128 0x23
 18376 3771 CC000000 		.4byte	.LASF450
 18377 3775 01       		.byte	0x1
 18378 3776 180A     		.2byte	0xa18
 18379 3778 3E030000 		.4byte	0x33e
 18380 377c 02       		.uleb128 0x2
 18381 377d 91       		.byte	0x91
 18382 377e 74       		.sleb128 -12
 18383 377f 23       		.uleb128 0x23
 18384 3780 13130000 		.4byte	.LASF446
 18385 3784 01       		.byte	0x1
 18386 3785 180A     		.2byte	0xa18
 18387 3787 8F370000 		.4byte	0x378f
 18388 378b 02       		.uleb128 0x2
 18389 378c 91       		.byte	0x91
 18390 378d 70       		.sleb128 -16
 18391 378e 00       		.byte	0
 18392 378f 09       		.uleb128 0x9
ARM GAS  /tmp/cc1ELVNa.s 			page 327


 18393 3790 04       		.byte	0x4
 18394 3791 EF130000 		.4byte	0x13ef
 18395 3795 22       		.uleb128 0x22
 18396 3796 1B180000 		.4byte	.LASF580
 18397 379a 01       		.byte	0x1
 18398 379b 290A     		.2byte	0xa29
 18399 379d AA0A0000 		.4byte	0xaaa
 18400 37a1 402A0000 		.4byte	.LFB392
 18401 37a5 68000000 		.4byte	.LFE392-.LFB392
 18402 37a9 01       		.uleb128 0x1
 18403 37aa 9C       		.byte	0x9c
 18404 37ab DD370000 		.4byte	0x37dd
 18405 37af 23       		.uleb128 0x23
 18406 37b0 CC000000 		.4byte	.LASF450
 18407 37b4 01       		.byte	0x1
 18408 37b5 290A     		.2byte	0xa29
 18409 37b7 3E030000 		.4byte	0x33e
 18410 37bb 02       		.uleb128 0x2
 18411 37bc 91       		.byte	0x91
 18412 37bd 6C       		.sleb128 -20
 18413 37be 23       		.uleb128 0x23
 18414 37bf 2B290000 		.4byte	.LASF455
 18415 37c3 01       		.byte	0x1
 18416 37c4 290A     		.2byte	0xa29
 18417 37c6 12140000 		.4byte	0x1412
 18418 37ca 02       		.uleb128 0x2
 18419 37cb 91       		.byte	0x91
 18420 37cc 6B       		.sleb128 -21
 18421 37cd 24       		.uleb128 0x24
 18422 37ce 13130000 		.4byte	.LASF446
 18423 37d2 01       		.byte	0x1
 18424 37d3 2B0A     		.2byte	0xa2b
 18425 37d5 2A0A0000 		.4byte	0xa2a
 18426 37d9 02       		.uleb128 0x2
 18427 37da 91       		.byte	0x91
 18428 37db 77       		.sleb128 -9
 18429 37dc 00       		.byte	0
 18430 37dd 22       		.uleb128 0x22
 18431 37de CC030000 		.4byte	.LASF581
 18432 37e2 01       		.byte	0x1
 18433 37e3 400A     		.2byte	0xa40
 18434 37e5 AA0A0000 		.4byte	0xaaa
 18435 37e9 B02A0000 		.4byte	.LFB393
 18436 37ed 36000000 		.4byte	.LFE393-.LFB393
 18437 37f1 01       		.uleb128 0x1
 18438 37f2 9C       		.byte	0x9c
 18439 37f3 16380000 		.4byte	0x3816
 18440 37f7 23       		.uleb128 0x23
 18441 37f8 CC000000 		.4byte	.LASF450
 18442 37fc 01       		.byte	0x1
 18443 37fd 400A     		.2byte	0xa40
 18444 37ff 3E030000 		.4byte	0x33e
 18445 3803 02       		.uleb128 0x2
 18446 3804 91       		.byte	0x91
 18447 3805 74       		.sleb128 -12
 18448 3806 23       		.uleb128 0x23
 18449 3807 13130000 		.4byte	.LASF446
ARM GAS  /tmp/cc1ELVNa.s 			page 328


 18450 380b 01       		.byte	0x1
 18451 380c 400A     		.2byte	0xa40
 18452 380e 16380000 		.4byte	0x3816
 18453 3812 02       		.uleb128 0x2
 18454 3813 91       		.byte	0x91
 18455 3814 70       		.sleb128 -16
 18456 3815 00       		.byte	0
 18457 3816 09       		.uleb128 0x9
 18458 3817 04       		.byte	0x4
 18459 3818 12140000 		.4byte	0x1412
 18460 381c 22       		.uleb128 0x22
 18461 381d CB040000 		.4byte	.LASF582
 18462 3821 01       		.byte	0x1
 18463 3822 510A     		.2byte	0xa51
 18464 3824 AA0A0000 		.4byte	0xaaa
 18465 3828 F02A0000 		.4byte	.LFB394
 18466 382c 68000000 		.4byte	.LFE394-.LFB394
 18467 3830 01       		.uleb128 0x1
 18468 3831 9C       		.byte	0x9c
 18469 3832 64380000 		.4byte	0x3864
 18470 3836 23       		.uleb128 0x23
 18471 3837 CC000000 		.4byte	.LASF450
 18472 383b 01       		.byte	0x1
 18473 383c 510A     		.2byte	0xa51
 18474 383e 3E030000 		.4byte	0x33e
 18475 3842 02       		.uleb128 0x2
 18476 3843 91       		.byte	0x91
 18477 3844 6C       		.sleb128 -20
 18478 3845 23       		.uleb128 0x23
 18479 3846 2B290000 		.4byte	.LASF455
 18480 384a 01       		.byte	0x1
 18481 384b 510A     		.2byte	0xa51
 18482 384d 22130000 		.4byte	0x1322
 18483 3851 02       		.uleb128 0x2
 18484 3852 91       		.byte	0x91
 18485 3853 6B       		.sleb128 -21
 18486 3854 24       		.uleb128 0x24
 18487 3855 13130000 		.4byte	.LASF446
 18488 3859 01       		.byte	0x1
 18489 385a 530A     		.2byte	0xa53
 18490 385c 2A0A0000 		.4byte	0xa2a
 18491 3860 02       		.uleb128 0x2
 18492 3861 91       		.byte	0x91
 18493 3862 77       		.sleb128 -9
 18494 3863 00       		.byte	0
 18495 3864 22       		.uleb128 0x22
 18496 3865 F2190000 		.4byte	.LASF583
 18497 3869 01       		.byte	0x1
 18498 386a 680A     		.2byte	0xa68
 18499 386c AA0A0000 		.4byte	0xaaa
 18500 3870 602B0000 		.4byte	.LFB395
 18501 3874 36000000 		.4byte	.LFE395-.LFB395
 18502 3878 01       		.uleb128 0x1
 18503 3879 9C       		.byte	0x9c
 18504 387a 9D380000 		.4byte	0x389d
 18505 387e 23       		.uleb128 0x23
 18506 387f CC000000 		.4byte	.LASF450
ARM GAS  /tmp/cc1ELVNa.s 			page 329


 18507 3883 01       		.byte	0x1
 18508 3884 680A     		.2byte	0xa68
 18509 3886 3E030000 		.4byte	0x33e
 18510 388a 02       		.uleb128 0x2
 18511 388b 91       		.byte	0x91
 18512 388c 74       		.sleb128 -12
 18513 388d 23       		.uleb128 0x23
 18514 388e 13130000 		.4byte	.LASF446
 18515 3892 01       		.byte	0x1
 18516 3893 680A     		.2byte	0xa68
 18517 3895 65340000 		.4byte	0x3465
 18518 3899 02       		.uleb128 0x2
 18519 389a 91       		.byte	0x91
 18520 389b 70       		.sleb128 -16
 18521 389c 00       		.byte	0
 18522 389d 22       		.uleb128 0x22
 18523 389e 4A010000 		.4byte	.LASF584
 18524 38a2 01       		.byte	0x1
 18525 38a3 790A     		.2byte	0xa79
 18526 38a5 AA0A0000 		.4byte	0xaaa
 18527 38a9 A02B0000 		.4byte	.LFB396
 18528 38ad 68000000 		.4byte	.LFE396-.LFB396
 18529 38b1 01       		.uleb128 0x1
 18530 38b2 9C       		.byte	0x9c
 18531 38b3 E5380000 		.4byte	0x38e5
 18532 38b7 23       		.uleb128 0x23
 18533 38b8 CC000000 		.4byte	.LASF450
 18534 38bc 01       		.byte	0x1
 18535 38bd 790A     		.2byte	0xa79
 18536 38bf 3E030000 		.4byte	0x33e
 18537 38c3 02       		.uleb128 0x2
 18538 38c4 91       		.byte	0x91
 18539 38c5 6C       		.sleb128 -20
 18540 38c6 23       		.uleb128 0x23
 18541 38c7 2B290000 		.4byte	.LASF455
 18542 38cb 01       		.byte	0x1
 18543 38cc 790A     		.2byte	0xa79
 18544 38ce 44130000 		.4byte	0x1344
 18545 38d2 02       		.uleb128 0x2
 18546 38d3 91       		.byte	0x91
 18547 38d4 6B       		.sleb128 -21
 18548 38d5 24       		.uleb128 0x24
 18549 38d6 13130000 		.4byte	.LASF446
 18550 38da 01       		.byte	0x1
 18551 38db 7B0A     		.2byte	0xa7b
 18552 38dd 2A0A0000 		.4byte	0xa2a
 18553 38e1 02       		.uleb128 0x2
 18554 38e2 91       		.byte	0x91
 18555 38e3 77       		.sleb128 -9
 18556 38e4 00       		.byte	0
 18557 38e5 22       		.uleb128 0x22
 18558 38e6 D4160000 		.4byte	.LASF585
 18559 38ea 01       		.byte	0x1
 18560 38eb 900A     		.2byte	0xa90
 18561 38ed AA0A0000 		.4byte	0xaaa
 18562 38f1 102C0000 		.4byte	.LFB397
 18563 38f5 36000000 		.4byte	.LFE397-.LFB397
ARM GAS  /tmp/cc1ELVNa.s 			page 330


 18564 38f9 01       		.uleb128 0x1
 18565 38fa 9C       		.byte	0x9c
 18566 38fb 1E390000 		.4byte	0x391e
 18567 38ff 23       		.uleb128 0x23
 18568 3900 CC000000 		.4byte	.LASF450
 18569 3904 01       		.byte	0x1
 18570 3905 900A     		.2byte	0xa90
 18571 3907 3E030000 		.4byte	0x33e
 18572 390b 02       		.uleb128 0x2
 18573 390c 91       		.byte	0x91
 18574 390d 74       		.sleb128 -12
 18575 390e 23       		.uleb128 0x23
 18576 390f 13130000 		.4byte	.LASF446
 18577 3913 01       		.byte	0x1
 18578 3914 900A     		.2byte	0xa90
 18579 3916 EC340000 		.4byte	0x34ec
 18580 391a 02       		.uleb128 0x2
 18581 391b 91       		.byte	0x91
 18582 391c 70       		.sleb128 -16
 18583 391d 00       		.byte	0
 18584 391e 22       		.uleb128 0x22
 18585 391f 510A0000 		.4byte	.LASF586
 18586 3923 01       		.byte	0x1
 18587 3924 A10A     		.2byte	0xaa1
 18588 3926 AA0A0000 		.4byte	0xaaa
 18589 392a 502C0000 		.4byte	.LFB398
 18590 392e 68000000 		.4byte	.LFE398-.LFB398
 18591 3932 01       		.uleb128 0x1
 18592 3933 9C       		.byte	0x9c
 18593 3934 66390000 		.4byte	0x3966
 18594 3938 23       		.uleb128 0x23
 18595 3939 CC000000 		.4byte	.LASF450
 18596 393d 01       		.byte	0x1
 18597 393e A10A     		.2byte	0xaa1
 18598 3940 3E030000 		.4byte	0x33e
 18599 3944 02       		.uleb128 0x2
 18600 3945 91       		.byte	0x91
 18601 3946 6C       		.sleb128 -20
 18602 3947 23       		.uleb128 0x23
 18603 3948 2B290000 		.4byte	.LASF455
 18604 394c 01       		.byte	0x1
 18605 394d A10A     		.2byte	0xaa1
 18606 394f 66130000 		.4byte	0x1366
 18607 3953 02       		.uleb128 0x2
 18608 3954 91       		.byte	0x91
 18609 3955 6B       		.sleb128 -21
 18610 3956 24       		.uleb128 0x24
 18611 3957 13130000 		.4byte	.LASF446
 18612 395b 01       		.byte	0x1
 18613 395c A30A     		.2byte	0xaa3
 18614 395e 2A0A0000 		.4byte	0xa2a
 18615 3962 02       		.uleb128 0x2
 18616 3963 91       		.byte	0x91
 18617 3964 77       		.sleb128 -9
 18618 3965 00       		.byte	0
 18619 3966 22       		.uleb128 0x22
 18620 3967 58200000 		.4byte	.LASF587
ARM GAS  /tmp/cc1ELVNa.s 			page 331


 18621 396b 01       		.byte	0x1
 18622 396c B80A     		.2byte	0xab8
 18623 396e AA0A0000 		.4byte	0xaaa
 18624 3972 C02C0000 		.4byte	.LFB399
 18625 3976 36000000 		.4byte	.LFE399-.LFB399
 18626 397a 01       		.uleb128 0x1
 18627 397b 9C       		.byte	0x9c
 18628 397c 9F390000 		.4byte	0x399f
 18629 3980 23       		.uleb128 0x23
 18630 3981 CC000000 		.4byte	.LASF450
 18631 3985 01       		.byte	0x1
 18632 3986 B80A     		.2byte	0xab8
 18633 3988 3E030000 		.4byte	0x33e
 18634 398c 02       		.uleb128 0x2
 18635 398d 91       		.byte	0x91
 18636 398e 74       		.sleb128 -12
 18637 398f 23       		.uleb128 0x23
 18638 3990 13130000 		.4byte	.LASF446
 18639 3994 01       		.byte	0x1
 18640 3995 B80A     		.2byte	0xab8
 18641 3997 73350000 		.4byte	0x3573
 18642 399b 02       		.uleb128 0x2
 18643 399c 91       		.byte	0x91
 18644 399d 70       		.sleb128 -16
 18645 399e 00       		.byte	0
 18646 399f 22       		.uleb128 0x22
 18647 39a0 83060000 		.4byte	.LASF588
 18648 39a4 01       		.byte	0x1
 18649 39a5 C90A     		.2byte	0xac9
 18650 39a7 AA0A0000 		.4byte	0xaaa
 18651 39ab 002D0000 		.4byte	.LFB400
 18652 39af 68000000 		.4byte	.LFE400-.LFB400
 18653 39b3 01       		.uleb128 0x1
 18654 39b4 9C       		.byte	0x9c
 18655 39b5 E7390000 		.4byte	0x39e7
 18656 39b9 23       		.uleb128 0x23
 18657 39ba CC000000 		.4byte	.LASF450
 18658 39be 01       		.byte	0x1
 18659 39bf C90A     		.2byte	0xac9
 18660 39c1 3E030000 		.4byte	0x33e
 18661 39c5 02       		.uleb128 0x2
 18662 39c6 91       		.byte	0x91
 18663 39c7 6C       		.sleb128 -20
 18664 39c8 23       		.uleb128 0x23
 18665 39c9 2B290000 		.4byte	.LASF455
 18666 39cd 01       		.byte	0x1
 18667 39ce C90A     		.2byte	0xac9
 18668 39d0 88130000 		.4byte	0x1388
 18669 39d4 02       		.uleb128 0x2
 18670 39d5 91       		.byte	0x91
 18671 39d6 6B       		.sleb128 -21
 18672 39d7 24       		.uleb128 0x24
 18673 39d8 13130000 		.4byte	.LASF446
 18674 39dc 01       		.byte	0x1
 18675 39dd CB0A     		.2byte	0xacb
 18676 39df 2A0A0000 		.4byte	0xa2a
 18677 39e3 02       		.uleb128 0x2
ARM GAS  /tmp/cc1ELVNa.s 			page 332


 18678 39e4 91       		.byte	0x91
 18679 39e5 77       		.sleb128 -9
 18680 39e6 00       		.byte	0
 18681 39e7 22       		.uleb128 0x22
 18682 39e8 CE1B0000 		.4byte	.LASF589
 18683 39ec 01       		.byte	0x1
 18684 39ed E00A     		.2byte	0xae0
 18685 39ef AA0A0000 		.4byte	0xaaa
 18686 39f3 702D0000 		.4byte	.LFB401
 18687 39f7 36000000 		.4byte	.LFE401-.LFB401
 18688 39fb 01       		.uleb128 0x1
 18689 39fc 9C       		.byte	0x9c
 18690 39fd 203A0000 		.4byte	0x3a20
 18691 3a01 23       		.uleb128 0x23
 18692 3a02 CC000000 		.4byte	.LASF450
 18693 3a06 01       		.byte	0x1
 18694 3a07 E00A     		.2byte	0xae0
 18695 3a09 3E030000 		.4byte	0x33e
 18696 3a0d 02       		.uleb128 0x2
 18697 3a0e 91       		.byte	0x91
 18698 3a0f 74       		.sleb128 -12
 18699 3a10 23       		.uleb128 0x23
 18700 3a11 13130000 		.4byte	.LASF446
 18701 3a15 01       		.byte	0x1
 18702 3a16 E00A     		.2byte	0xae0
 18703 3a18 FA350000 		.4byte	0x35fa
 18704 3a1c 02       		.uleb128 0x2
 18705 3a1d 91       		.byte	0x91
 18706 3a1e 70       		.sleb128 -16
 18707 3a1f 00       		.byte	0
 18708 3a20 22       		.uleb128 0x22
 18709 3a21 8C110000 		.4byte	.LASF590
 18710 3a25 01       		.byte	0x1
 18711 3a26 F10A     		.2byte	0xaf1
 18712 3a28 AA0A0000 		.4byte	0xaaa
 18713 3a2c B02D0000 		.4byte	.LFB402
 18714 3a30 68000000 		.4byte	.LFE402-.LFB402
 18715 3a34 01       		.uleb128 0x1
 18716 3a35 9C       		.byte	0x9c
 18717 3a36 683A0000 		.4byte	0x3a68
 18718 3a3a 23       		.uleb128 0x23
 18719 3a3b CC000000 		.4byte	.LASF450
 18720 3a3f 01       		.byte	0x1
 18721 3a40 F10A     		.2byte	0xaf1
 18722 3a42 3E030000 		.4byte	0x33e
 18723 3a46 02       		.uleb128 0x2
 18724 3a47 91       		.byte	0x91
 18725 3a48 6C       		.sleb128 -20
 18726 3a49 23       		.uleb128 0x23
 18727 3a4a 2B290000 		.4byte	.LASF455
 18728 3a4e 01       		.byte	0x1
 18729 3a4f F10A     		.2byte	0xaf1
 18730 3a51 AA130000 		.4byte	0x13aa
 18731 3a55 02       		.uleb128 0x2
 18732 3a56 91       		.byte	0x91
 18733 3a57 6B       		.sleb128 -21
 18734 3a58 24       		.uleb128 0x24
ARM GAS  /tmp/cc1ELVNa.s 			page 333


 18735 3a59 13130000 		.4byte	.LASF446
 18736 3a5d 01       		.byte	0x1
 18737 3a5e F30A     		.2byte	0xaf3
 18738 3a60 2A0A0000 		.4byte	0xa2a
 18739 3a64 02       		.uleb128 0x2
 18740 3a65 91       		.byte	0x91
 18741 3a66 77       		.sleb128 -9
 18742 3a67 00       		.byte	0
 18743 3a68 22       		.uleb128 0x22
 18744 3a69 B3250000 		.4byte	.LASF591
 18745 3a6d 01       		.byte	0x1
 18746 3a6e 080B     		.2byte	0xb08
 18747 3a70 AA0A0000 		.4byte	0xaaa
 18748 3a74 202E0000 		.4byte	.LFB403
 18749 3a78 36000000 		.4byte	.LFE403-.LFB403
 18750 3a7c 01       		.uleb128 0x1
 18751 3a7d 9C       		.byte	0x9c
 18752 3a7e A13A0000 		.4byte	0x3aa1
 18753 3a82 23       		.uleb128 0x23
 18754 3a83 CC000000 		.4byte	.LASF450
 18755 3a87 01       		.byte	0x1
 18756 3a88 080B     		.2byte	0xb08
 18757 3a8a 3E030000 		.4byte	0x33e
 18758 3a8e 02       		.uleb128 0x2
 18759 3a8f 91       		.byte	0x91
 18760 3a90 74       		.sleb128 -12
 18761 3a91 23       		.uleb128 0x23
 18762 3a92 13130000 		.4byte	.LASF446
 18763 3a96 01       		.byte	0x1
 18764 3a97 080B     		.2byte	0xb08
 18765 3a99 81360000 		.4byte	0x3681
 18766 3a9d 02       		.uleb128 0x2
 18767 3a9e 91       		.byte	0x91
 18768 3a9f 70       		.sleb128 -16
 18769 3aa0 00       		.byte	0
 18770 3aa1 22       		.uleb128 0x22
 18771 3aa2 2F330000 		.4byte	.LASF592
 18772 3aa6 01       		.byte	0x1
 18773 3aa7 190B     		.2byte	0xb19
 18774 3aa9 AA0A0000 		.4byte	0xaaa
 18775 3aad 602E0000 		.4byte	.LFB404
 18776 3ab1 68000000 		.4byte	.LFE404-.LFB404
 18777 3ab5 01       		.uleb128 0x1
 18778 3ab6 9C       		.byte	0x9c
 18779 3ab7 E93A0000 		.4byte	0x3ae9
 18780 3abb 23       		.uleb128 0x23
 18781 3abc CC000000 		.4byte	.LASF450
 18782 3ac0 01       		.byte	0x1
 18783 3ac1 190B     		.2byte	0xb19
 18784 3ac3 3E030000 		.4byte	0x33e
 18785 3ac7 02       		.uleb128 0x2
 18786 3ac8 91       		.byte	0x91
 18787 3ac9 6C       		.sleb128 -20
 18788 3aca 23       		.uleb128 0x23
 18789 3acb 2B290000 		.4byte	.LASF455
 18790 3acf 01       		.byte	0x1
 18791 3ad0 190B     		.2byte	0xb19
ARM GAS  /tmp/cc1ELVNa.s 			page 334


 18792 3ad2 CC130000 		.4byte	0x13cc
 18793 3ad6 02       		.uleb128 0x2
 18794 3ad7 91       		.byte	0x91
 18795 3ad8 6B       		.sleb128 -21
 18796 3ad9 24       		.uleb128 0x24
 18797 3ada 13130000 		.4byte	.LASF446
 18798 3ade 01       		.byte	0x1
 18799 3adf 1B0B     		.2byte	0xb1b
 18800 3ae1 2A0A0000 		.4byte	0xa2a
 18801 3ae5 02       		.uleb128 0x2
 18802 3ae6 91       		.byte	0x91
 18803 3ae7 77       		.sleb128 -9
 18804 3ae8 00       		.byte	0
 18805 3ae9 22       		.uleb128 0x22
 18806 3aea 73220000 		.4byte	.LASF593
 18807 3aee 01       		.byte	0x1
 18808 3aef 300B     		.2byte	0xb30
 18809 3af1 AA0A0000 		.4byte	0xaaa
 18810 3af5 D02E0000 		.4byte	.LFB405
 18811 3af9 36000000 		.4byte	.LFE405-.LFB405
 18812 3afd 01       		.uleb128 0x1
 18813 3afe 9C       		.byte	0x9c
 18814 3aff 223B0000 		.4byte	0x3b22
 18815 3b03 23       		.uleb128 0x23
 18816 3b04 CC000000 		.4byte	.LASF450
 18817 3b08 01       		.byte	0x1
 18818 3b09 300B     		.2byte	0xb30
 18819 3b0b 3E030000 		.4byte	0x33e
 18820 3b0f 02       		.uleb128 0x2
 18821 3b10 91       		.byte	0x91
 18822 3b11 74       		.sleb128 -12
 18823 3b12 23       		.uleb128 0x23
 18824 3b13 13130000 		.4byte	.LASF446
 18825 3b17 01       		.byte	0x1
 18826 3b18 300B     		.2byte	0xb30
 18827 3b1a 08370000 		.4byte	0x3708
 18828 3b1e 02       		.uleb128 0x2
 18829 3b1f 91       		.byte	0x91
 18830 3b20 70       		.sleb128 -16
 18831 3b21 00       		.byte	0
 18832 3b22 22       		.uleb128 0x22
 18833 3b23 E51C0000 		.4byte	.LASF594
 18834 3b27 01       		.byte	0x1
 18835 3b28 410B     		.2byte	0xb41
 18836 3b2a AA0A0000 		.4byte	0xaaa
 18837 3b2e 102F0000 		.4byte	.LFB406
 18838 3b32 68000000 		.4byte	.LFE406-.LFB406
 18839 3b36 01       		.uleb128 0x1
 18840 3b37 9C       		.byte	0x9c
 18841 3b38 6A3B0000 		.4byte	0x3b6a
 18842 3b3c 23       		.uleb128 0x23
 18843 3b3d CC000000 		.4byte	.LASF450
 18844 3b41 01       		.byte	0x1
 18845 3b42 410B     		.2byte	0xb41
 18846 3b44 3E030000 		.4byte	0x33e
 18847 3b48 02       		.uleb128 0x2
 18848 3b49 91       		.byte	0x91
ARM GAS  /tmp/cc1ELVNa.s 			page 335


 18849 3b4a 6C       		.sleb128 -20
 18850 3b4b 23       		.uleb128 0x23
 18851 3b4c 2B290000 		.4byte	.LASF455
 18852 3b50 01       		.byte	0x1
 18853 3b51 410B     		.2byte	0xb41
 18854 3b53 EF130000 		.4byte	0x13ef
 18855 3b57 02       		.uleb128 0x2
 18856 3b58 91       		.byte	0x91
 18857 3b59 6B       		.sleb128 -21
 18858 3b5a 24       		.uleb128 0x24
 18859 3b5b 13130000 		.4byte	.LASF446
 18860 3b5f 01       		.byte	0x1
 18861 3b60 430B     		.2byte	0xb43
 18862 3b62 2A0A0000 		.4byte	0xa2a
 18863 3b66 02       		.uleb128 0x2
 18864 3b67 91       		.byte	0x91
 18865 3b68 77       		.sleb128 -9
 18866 3b69 00       		.byte	0
 18867 3b6a 22       		.uleb128 0x22
 18868 3b6b B61B0000 		.4byte	.LASF595
 18869 3b6f 01       		.byte	0x1
 18870 3b70 580B     		.2byte	0xb58
 18871 3b72 AA0A0000 		.4byte	0xaaa
 18872 3b76 802F0000 		.4byte	.LFB407
 18873 3b7a 36000000 		.4byte	.LFE407-.LFB407
 18874 3b7e 01       		.uleb128 0x1
 18875 3b7f 9C       		.byte	0x9c
 18876 3b80 A33B0000 		.4byte	0x3ba3
 18877 3b84 23       		.uleb128 0x23
 18878 3b85 CC000000 		.4byte	.LASF450
 18879 3b89 01       		.byte	0x1
 18880 3b8a 580B     		.2byte	0xb58
 18881 3b8c 3E030000 		.4byte	0x33e
 18882 3b90 02       		.uleb128 0x2
 18883 3b91 91       		.byte	0x91
 18884 3b92 74       		.sleb128 -12
 18885 3b93 23       		.uleb128 0x23
 18886 3b94 13130000 		.4byte	.LASF446
 18887 3b98 01       		.byte	0x1
 18888 3b99 580B     		.2byte	0xb58
 18889 3b9b 8F370000 		.4byte	0x378f
 18890 3b9f 02       		.uleb128 0x2
 18891 3ba0 91       		.byte	0x91
 18892 3ba1 70       		.sleb128 -16
 18893 3ba2 00       		.byte	0
 18894 3ba3 22       		.uleb128 0x22
 18895 3ba4 190B0000 		.4byte	.LASF596
 18896 3ba8 01       		.byte	0x1
 18897 3ba9 690B     		.2byte	0xb69
 18898 3bab AA0A0000 		.4byte	0xaaa
 18899 3baf C02F0000 		.4byte	.LFB408
 18900 3bb3 68000000 		.4byte	.LFE408-.LFB408
 18901 3bb7 01       		.uleb128 0x1
 18902 3bb8 9C       		.byte	0x9c
 18903 3bb9 EB3B0000 		.4byte	0x3beb
 18904 3bbd 23       		.uleb128 0x23
 18905 3bbe CC000000 		.4byte	.LASF450
ARM GAS  /tmp/cc1ELVNa.s 			page 336


 18906 3bc2 01       		.byte	0x1
 18907 3bc3 690B     		.2byte	0xb69
 18908 3bc5 3E030000 		.4byte	0x33e
 18909 3bc9 02       		.uleb128 0x2
 18910 3bca 91       		.byte	0x91
 18911 3bcb 6C       		.sleb128 -20
 18912 3bcc 23       		.uleb128 0x23
 18913 3bcd 2B290000 		.4byte	.LASF455
 18914 3bd1 01       		.byte	0x1
 18915 3bd2 690B     		.2byte	0xb69
 18916 3bd4 12140000 		.4byte	0x1412
 18917 3bd8 02       		.uleb128 0x2
 18918 3bd9 91       		.byte	0x91
 18919 3bda 6B       		.sleb128 -21
 18920 3bdb 24       		.uleb128 0x24
 18921 3bdc 13130000 		.4byte	.LASF446
 18922 3be0 01       		.byte	0x1
 18923 3be1 6B0B     		.2byte	0xb6b
 18924 3be3 2A0A0000 		.4byte	0xa2a
 18925 3be7 02       		.uleb128 0x2
 18926 3be8 91       		.byte	0x91
 18927 3be9 77       		.sleb128 -9
 18928 3bea 00       		.byte	0
 18929 3beb 22       		.uleb128 0x22
 18930 3bec 9E0F0000 		.4byte	.LASF597
 18931 3bf0 01       		.byte	0x1
 18932 3bf1 800B     		.2byte	0xb80
 18933 3bf3 AA0A0000 		.4byte	0xaaa
 18934 3bf7 30300000 		.4byte	.LFB409
 18935 3bfb 36000000 		.4byte	.LFE409-.LFB409
 18936 3bff 01       		.uleb128 0x1
 18937 3c00 9C       		.byte	0x9c
 18938 3c01 243C0000 		.4byte	0x3c24
 18939 3c05 23       		.uleb128 0x23
 18940 3c06 CC000000 		.4byte	.LASF450
 18941 3c0a 01       		.byte	0x1
 18942 3c0b 800B     		.2byte	0xb80
 18943 3c0d 3E030000 		.4byte	0x33e
 18944 3c11 02       		.uleb128 0x2
 18945 3c12 91       		.byte	0x91
 18946 3c13 74       		.sleb128 -12
 18947 3c14 23       		.uleb128 0x23
 18948 3c15 13130000 		.4byte	.LASF446
 18949 3c19 01       		.byte	0x1
 18950 3c1a 800B     		.2byte	0xb80
 18951 3c1c 16380000 		.4byte	0x3816
 18952 3c20 02       		.uleb128 0x2
 18953 3c21 91       		.byte	0x91
 18954 3c22 70       		.sleb128 -16
 18955 3c23 00       		.byte	0
 18956 3c24 22       		.uleb128 0x22
 18957 3c25 28260000 		.4byte	.LASF598
 18958 3c29 01       		.byte	0x1
 18959 3c2a 910B     		.2byte	0xb91
 18960 3c2c AA0A0000 		.4byte	0xaaa
 18961 3c30 70300000 		.4byte	.LFB410
 18962 3c34 36000000 		.4byte	.LFE410-.LFB410
ARM GAS  /tmp/cc1ELVNa.s 			page 337


 18963 3c38 01       		.uleb128 0x1
 18964 3c39 9C       		.byte	0x9c
 18965 3c3a 5D3C0000 		.4byte	0x3c5d
 18966 3c3e 23       		.uleb128 0x23
 18967 3c3f CC000000 		.4byte	.LASF450
 18968 3c43 01       		.byte	0x1
 18969 3c44 910B     		.2byte	0xb91
 18970 3c46 3E030000 		.4byte	0x33e
 18971 3c4a 02       		.uleb128 0x2
 18972 3c4b 91       		.byte	0x91
 18973 3c4c 74       		.sleb128 -12
 18974 3c4d 23       		.uleb128 0x23
 18975 3c4e 13130000 		.4byte	.LASF446
 18976 3c52 01       		.byte	0x1
 18977 3c53 910B     		.2byte	0xb91
 18978 3c55 5D3C0000 		.4byte	0x3c5d
 18979 3c59 02       		.uleb128 0x2
 18980 3c5a 91       		.byte	0x91
 18981 3c5b 70       		.sleb128 -16
 18982 3c5c 00       		.byte	0
 18983 3c5d 09       		.uleb128 0x9
 18984 3c5e 04       		.byte	0x4
 18985 3c5f 34140000 		.4byte	0x1434
 18986 3c63 22       		.uleb128 0x22
 18987 3c64 87030000 		.4byte	.LASF599
 18988 3c68 01       		.byte	0x1
 18989 3c69 A20B     		.2byte	0xba2
 18990 3c6b AA0A0000 		.4byte	0xaaa
 18991 3c6f B0300000 		.4byte	.LFB411
 18992 3c73 36000000 		.4byte	.LFE411-.LFB411
 18993 3c77 01       		.uleb128 0x1
 18994 3c78 9C       		.byte	0x9c
 18995 3c79 9C3C0000 		.4byte	0x3c9c
 18996 3c7d 23       		.uleb128 0x23
 18997 3c7e CC000000 		.4byte	.LASF450
 18998 3c82 01       		.byte	0x1
 18999 3c83 A20B     		.2byte	0xba2
 19000 3c85 3E030000 		.4byte	0x33e
 19001 3c89 02       		.uleb128 0x2
 19002 3c8a 91       		.byte	0x91
 19003 3c8b 74       		.sleb128 -12
 19004 3c8c 23       		.uleb128 0x23
 19005 3c8d 13130000 		.4byte	.LASF446
 19006 3c91 01       		.byte	0x1
 19007 3c92 A20B     		.2byte	0xba2
 19008 3c94 9C3C0000 		.4byte	0x3c9c
 19009 3c98 02       		.uleb128 0x2
 19010 3c99 91       		.byte	0x91
 19011 3c9a 70       		.sleb128 -16
 19012 3c9b 00       		.byte	0
 19013 3c9c 09       		.uleb128 0x9
 19014 3c9d 04       		.byte	0x4
 19015 3c9e 56140000 		.4byte	0x1456
 19016 3ca2 22       		.uleb128 0x22
 19017 3ca3 A20C0000 		.4byte	.LASF600
 19018 3ca7 01       		.byte	0x1
 19019 3ca8 B30B     		.2byte	0xbb3
ARM GAS  /tmp/cc1ELVNa.s 			page 338


 19020 3caa AA0A0000 		.4byte	0xaaa
 19021 3cae F0300000 		.4byte	.LFB412
 19022 3cb2 36000000 		.4byte	.LFE412-.LFB412
 19023 3cb6 01       		.uleb128 0x1
 19024 3cb7 9C       		.byte	0x9c
 19025 3cb8 DB3C0000 		.4byte	0x3cdb
 19026 3cbc 23       		.uleb128 0x23
 19027 3cbd CC000000 		.4byte	.LASF450
 19028 3cc1 01       		.byte	0x1
 19029 3cc2 B30B     		.2byte	0xbb3
 19030 3cc4 3E030000 		.4byte	0x33e
 19031 3cc8 02       		.uleb128 0x2
 19032 3cc9 91       		.byte	0x91
 19033 3cca 74       		.sleb128 -12
 19034 3ccb 23       		.uleb128 0x23
 19035 3ccc 13130000 		.4byte	.LASF446
 19036 3cd0 01       		.byte	0x1
 19037 3cd1 B30B     		.2byte	0xbb3
 19038 3cd3 DB3C0000 		.4byte	0x3cdb
 19039 3cd7 02       		.uleb128 0x2
 19040 3cd8 91       		.byte	0x91
 19041 3cd9 70       		.sleb128 -16
 19042 3cda 00       		.byte	0
 19043 3cdb 09       		.uleb128 0x9
 19044 3cdc 04       		.byte	0x4
 19045 3cdd 78140000 		.4byte	0x1478
 19046 3ce1 22       		.uleb128 0x22
 19047 3ce2 AB080000 		.4byte	.LASF601
 19048 3ce6 01       		.byte	0x1
 19049 3ce7 C40B     		.2byte	0xbc4
 19050 3ce9 AA0A0000 		.4byte	0xaaa
 19051 3ced 30310000 		.4byte	.LFB413
 19052 3cf1 36000000 		.4byte	.LFE413-.LFB413
 19053 3cf5 01       		.uleb128 0x1
 19054 3cf6 9C       		.byte	0x9c
 19055 3cf7 1A3D0000 		.4byte	0x3d1a
 19056 3cfb 23       		.uleb128 0x23
 19057 3cfc CC000000 		.4byte	.LASF450
 19058 3d00 01       		.byte	0x1
 19059 3d01 C40B     		.2byte	0xbc4
 19060 3d03 3E030000 		.4byte	0x33e
 19061 3d07 02       		.uleb128 0x2
 19062 3d08 91       		.byte	0x91
 19063 3d09 74       		.sleb128 -12
 19064 3d0a 23       		.uleb128 0x23
 19065 3d0b 13130000 		.4byte	.LASF446
 19066 3d0f 01       		.byte	0x1
 19067 3d10 C40B     		.2byte	0xbc4
 19068 3d12 1A3D0000 		.4byte	0x3d1a
 19069 3d16 02       		.uleb128 0x2
 19070 3d17 91       		.byte	0x91
 19071 3d18 70       		.sleb128 -16
 19072 3d19 00       		.byte	0
 19073 3d1a 09       		.uleb128 0x9
 19074 3d1b 04       		.byte	0x4
 19075 3d1c 9A140000 		.4byte	0x149a
 19076 3d20 22       		.uleb128 0x22
ARM GAS  /tmp/cc1ELVNa.s 			page 339


 19077 3d21 80310000 		.4byte	.LASF602
 19078 3d25 01       		.byte	0x1
 19079 3d26 D50B     		.2byte	0xbd5
 19080 3d28 AA0A0000 		.4byte	0xaaa
 19081 3d2c 70310000 		.4byte	.LFB414
 19082 3d30 36000000 		.4byte	.LFE414-.LFB414
 19083 3d34 01       		.uleb128 0x1
 19084 3d35 9C       		.byte	0x9c
 19085 3d36 593D0000 		.4byte	0x3d59
 19086 3d3a 23       		.uleb128 0x23
 19087 3d3b CC000000 		.4byte	.LASF450
 19088 3d3f 01       		.byte	0x1
 19089 3d40 D50B     		.2byte	0xbd5
 19090 3d42 3E030000 		.4byte	0x33e
 19091 3d46 02       		.uleb128 0x2
 19092 3d47 91       		.byte	0x91
 19093 3d48 74       		.sleb128 -12
 19094 3d49 23       		.uleb128 0x23
 19095 3d4a 13130000 		.4byte	.LASF446
 19096 3d4e 01       		.byte	0x1
 19097 3d4f D50B     		.2byte	0xbd5
 19098 3d51 593D0000 		.4byte	0x3d59
 19099 3d55 02       		.uleb128 0x2
 19100 3d56 91       		.byte	0x91
 19101 3d57 70       		.sleb128 -16
 19102 3d58 00       		.byte	0
 19103 3d59 09       		.uleb128 0x9
 19104 3d5a 04       		.byte	0x4
 19105 3d5b BC140000 		.4byte	0x14bc
 19106 3d5f 22       		.uleb128 0x22
 19107 3d60 850F0000 		.4byte	.LASF603
 19108 3d64 01       		.byte	0x1
 19109 3d65 E60B     		.2byte	0xbe6
 19110 3d67 AA0A0000 		.4byte	0xaaa
 19111 3d6b B0310000 		.4byte	.LFB415
 19112 3d6f 36000000 		.4byte	.LFE415-.LFB415
 19113 3d73 01       		.uleb128 0x1
 19114 3d74 9C       		.byte	0x9c
 19115 3d75 983D0000 		.4byte	0x3d98
 19116 3d79 23       		.uleb128 0x23
 19117 3d7a CC000000 		.4byte	.LASF450
 19118 3d7e 01       		.byte	0x1
 19119 3d7f E60B     		.2byte	0xbe6
 19120 3d81 3E030000 		.4byte	0x33e
 19121 3d85 02       		.uleb128 0x2
 19122 3d86 91       		.byte	0x91
 19123 3d87 74       		.sleb128 -12
 19124 3d88 23       		.uleb128 0x23
 19125 3d89 13130000 		.4byte	.LASF446
 19126 3d8d 01       		.byte	0x1
 19127 3d8e E60B     		.2byte	0xbe6
 19128 3d90 983D0000 		.4byte	0x3d98
 19129 3d94 02       		.uleb128 0x2
 19130 3d95 91       		.byte	0x91
 19131 3d96 70       		.sleb128 -16
 19132 3d97 00       		.byte	0
 19133 3d98 09       		.uleb128 0x9
ARM GAS  /tmp/cc1ELVNa.s 			page 340


 19134 3d99 04       		.byte	0x4
 19135 3d9a DE140000 		.4byte	0x14de
 19136 3d9e 22       		.uleb128 0x22
 19137 3d9f 90120000 		.4byte	.LASF604
 19138 3da3 01       		.byte	0x1
 19139 3da4 F70B     		.2byte	0xbf7
 19140 3da6 AA0A0000 		.4byte	0xaaa
 19141 3daa F0310000 		.4byte	.LFB416
 19142 3dae 36000000 		.4byte	.LFE416-.LFB416
 19143 3db2 01       		.uleb128 0x1
 19144 3db3 9C       		.byte	0x9c
 19145 3db4 D73D0000 		.4byte	0x3dd7
 19146 3db8 23       		.uleb128 0x23
 19147 3db9 CC000000 		.4byte	.LASF450
 19148 3dbd 01       		.byte	0x1
 19149 3dbe F70B     		.2byte	0xbf7
 19150 3dc0 3E030000 		.4byte	0x33e
 19151 3dc4 02       		.uleb128 0x2
 19152 3dc5 91       		.byte	0x91
 19153 3dc6 74       		.sleb128 -12
 19154 3dc7 23       		.uleb128 0x23
 19155 3dc8 13130000 		.4byte	.LASF446
 19156 3dcc 01       		.byte	0x1
 19157 3dcd F70B     		.2byte	0xbf7
 19158 3dcf D73D0000 		.4byte	0x3dd7
 19159 3dd3 02       		.uleb128 0x2
 19160 3dd4 91       		.byte	0x91
 19161 3dd5 70       		.sleb128 -16
 19162 3dd6 00       		.byte	0
 19163 3dd7 09       		.uleb128 0x9
 19164 3dd8 04       		.byte	0x4
 19165 3dd9 01150000 		.4byte	0x1501
 19166 3ddd 22       		.uleb128 0x22
 19167 3dde 6E370000 		.4byte	.LASF605
 19168 3de2 01       		.byte	0x1
 19169 3de3 080C     		.2byte	0xc08
 19170 3de5 AA0A0000 		.4byte	0xaaa
 19171 3de9 30320000 		.4byte	.LFB417
 19172 3ded 36000000 		.4byte	.LFE417-.LFB417
 19173 3df1 01       		.uleb128 0x1
 19174 3df2 9C       		.byte	0x9c
 19175 3df3 163E0000 		.4byte	0x3e16
 19176 3df7 23       		.uleb128 0x23
 19177 3df8 CC000000 		.4byte	.LASF450
 19178 3dfc 01       		.byte	0x1
 19179 3dfd 080C     		.2byte	0xc08
 19180 3dff 3E030000 		.4byte	0x33e
 19181 3e03 02       		.uleb128 0x2
 19182 3e04 91       		.byte	0x91
 19183 3e05 74       		.sleb128 -12
 19184 3e06 23       		.uleb128 0x23
 19185 3e07 13130000 		.4byte	.LASF446
 19186 3e0b 01       		.byte	0x1
 19187 3e0c 080C     		.2byte	0xc08
 19188 3e0e 5D3C0000 		.4byte	0x3c5d
 19189 3e12 02       		.uleb128 0x2
 19190 3e13 91       		.byte	0x91
ARM GAS  /tmp/cc1ELVNa.s 			page 341


 19191 3e14 70       		.sleb128 -16
 19192 3e15 00       		.byte	0
 19193 3e16 22       		.uleb128 0x22
 19194 3e17 6D160000 		.4byte	.LASF606
 19195 3e1b 01       		.byte	0x1
 19196 3e1c 190C     		.2byte	0xc19
 19197 3e1e AA0A0000 		.4byte	0xaaa
 19198 3e22 70320000 		.4byte	.LFB418
 19199 3e26 36000000 		.4byte	.LFE418-.LFB418
 19200 3e2a 01       		.uleb128 0x1
 19201 3e2b 9C       		.byte	0x9c
 19202 3e2c 4F3E0000 		.4byte	0x3e4f
 19203 3e30 23       		.uleb128 0x23
 19204 3e31 CC000000 		.4byte	.LASF450
 19205 3e35 01       		.byte	0x1
 19206 3e36 190C     		.2byte	0xc19
 19207 3e38 3E030000 		.4byte	0x33e
 19208 3e3c 02       		.uleb128 0x2
 19209 3e3d 91       		.byte	0x91
 19210 3e3e 74       		.sleb128 -12
 19211 3e3f 23       		.uleb128 0x23
 19212 3e40 13130000 		.4byte	.LASF446
 19213 3e44 01       		.byte	0x1
 19214 3e45 190C     		.2byte	0xc19
 19215 3e47 9C3C0000 		.4byte	0x3c9c
 19216 3e4b 02       		.uleb128 0x2
 19217 3e4c 91       		.byte	0x91
 19218 3e4d 70       		.sleb128 -16
 19219 3e4e 00       		.byte	0
 19220 3e4f 22       		.uleb128 0x22
 19221 3e50 D9270000 		.4byte	.LASF607
 19222 3e54 01       		.byte	0x1
 19223 3e55 2A0C     		.2byte	0xc2a
 19224 3e57 AA0A0000 		.4byte	0xaaa
 19225 3e5b B0320000 		.4byte	.LFB419
 19226 3e5f 36000000 		.4byte	.LFE419-.LFB419
 19227 3e63 01       		.uleb128 0x1
 19228 3e64 9C       		.byte	0x9c
 19229 3e65 883E0000 		.4byte	0x3e88
 19230 3e69 23       		.uleb128 0x23
 19231 3e6a CC000000 		.4byte	.LASF450
 19232 3e6e 01       		.byte	0x1
 19233 3e6f 2A0C     		.2byte	0xc2a
 19234 3e71 3E030000 		.4byte	0x33e
 19235 3e75 02       		.uleb128 0x2
 19236 3e76 91       		.byte	0x91
 19237 3e77 74       		.sleb128 -12
 19238 3e78 23       		.uleb128 0x23
 19239 3e79 13130000 		.4byte	.LASF446
 19240 3e7d 01       		.byte	0x1
 19241 3e7e 2A0C     		.2byte	0xc2a
 19242 3e80 DB3C0000 		.4byte	0x3cdb
 19243 3e84 02       		.uleb128 0x2
 19244 3e85 91       		.byte	0x91
 19245 3e86 70       		.sleb128 -16
 19246 3e87 00       		.byte	0
 19247 3e88 22       		.uleb128 0x22
ARM GAS  /tmp/cc1ELVNa.s 			page 342


 19248 3e89 621B0000 		.4byte	.LASF608
 19249 3e8d 01       		.byte	0x1
 19250 3e8e 3B0C     		.2byte	0xc3b
 19251 3e90 AA0A0000 		.4byte	0xaaa
 19252 3e94 F0320000 		.4byte	.LFB420
 19253 3e98 36000000 		.4byte	.LFE420-.LFB420
 19254 3e9c 01       		.uleb128 0x1
 19255 3e9d 9C       		.byte	0x9c
 19256 3e9e C13E0000 		.4byte	0x3ec1
 19257 3ea2 23       		.uleb128 0x23
 19258 3ea3 CC000000 		.4byte	.LASF450
 19259 3ea7 01       		.byte	0x1
 19260 3ea8 3B0C     		.2byte	0xc3b
 19261 3eaa 3E030000 		.4byte	0x33e
 19262 3eae 02       		.uleb128 0x2
 19263 3eaf 91       		.byte	0x91
 19264 3eb0 74       		.sleb128 -12
 19265 3eb1 23       		.uleb128 0x23
 19266 3eb2 13130000 		.4byte	.LASF446
 19267 3eb6 01       		.byte	0x1
 19268 3eb7 3B0C     		.2byte	0xc3b
 19269 3eb9 1A3D0000 		.4byte	0x3d1a
 19270 3ebd 02       		.uleb128 0x2
 19271 3ebe 91       		.byte	0x91
 19272 3ebf 70       		.sleb128 -16
 19273 3ec0 00       		.byte	0
 19274 3ec1 22       		.uleb128 0x22
 19275 3ec2 C4080000 		.4byte	.LASF609
 19276 3ec6 01       		.byte	0x1
 19277 3ec7 4C0C     		.2byte	0xc4c
 19278 3ec9 AA0A0000 		.4byte	0xaaa
 19279 3ecd 30330000 		.4byte	.LFB421
 19280 3ed1 36000000 		.4byte	.LFE421-.LFB421
 19281 3ed5 01       		.uleb128 0x1
 19282 3ed6 9C       		.byte	0x9c
 19283 3ed7 FA3E0000 		.4byte	0x3efa
 19284 3edb 23       		.uleb128 0x23
 19285 3edc CC000000 		.4byte	.LASF450
 19286 3ee0 01       		.byte	0x1
 19287 3ee1 4C0C     		.2byte	0xc4c
 19288 3ee3 3E030000 		.4byte	0x33e
 19289 3ee7 02       		.uleb128 0x2
 19290 3ee8 91       		.byte	0x91
 19291 3ee9 74       		.sleb128 -12
 19292 3eea 23       		.uleb128 0x23
 19293 3eeb 13130000 		.4byte	.LASF446
 19294 3eef 01       		.byte	0x1
 19295 3ef0 4C0C     		.2byte	0xc4c
 19296 3ef2 593D0000 		.4byte	0x3d59
 19297 3ef6 02       		.uleb128 0x2
 19298 3ef7 91       		.byte	0x91
 19299 3ef8 70       		.sleb128 -16
 19300 3ef9 00       		.byte	0
 19301 3efa 22       		.uleb128 0x22
 19302 3efb B7210000 		.4byte	.LASF610
 19303 3eff 01       		.byte	0x1
 19304 3f00 5D0C     		.2byte	0xc5d
ARM GAS  /tmp/cc1ELVNa.s 			page 343


 19305 3f02 AA0A0000 		.4byte	0xaaa
 19306 3f06 70330000 		.4byte	.LFB422
 19307 3f0a 36000000 		.4byte	.LFE422-.LFB422
 19308 3f0e 01       		.uleb128 0x1
 19309 3f0f 9C       		.byte	0x9c
 19310 3f10 333F0000 		.4byte	0x3f33
 19311 3f14 23       		.uleb128 0x23
 19312 3f15 CC000000 		.4byte	.LASF450
 19313 3f19 01       		.byte	0x1
 19314 3f1a 5D0C     		.2byte	0xc5d
 19315 3f1c 3E030000 		.4byte	0x33e
 19316 3f20 02       		.uleb128 0x2
 19317 3f21 91       		.byte	0x91
 19318 3f22 74       		.sleb128 -12
 19319 3f23 23       		.uleb128 0x23
 19320 3f24 13130000 		.4byte	.LASF446
 19321 3f28 01       		.byte	0x1
 19322 3f29 5D0C     		.2byte	0xc5d
 19323 3f2b 983D0000 		.4byte	0x3d98
 19324 3f2f 02       		.uleb128 0x2
 19325 3f30 91       		.byte	0x91
 19326 3f31 70       		.sleb128 -16
 19327 3f32 00       		.byte	0
 19328 3f33 22       		.uleb128 0x22
 19329 3f34 C92D0000 		.4byte	.LASF611
 19330 3f38 01       		.byte	0x1
 19331 3f39 6E0C     		.2byte	0xc6e
 19332 3f3b AA0A0000 		.4byte	0xaaa
 19333 3f3f B0330000 		.4byte	.LFB423
 19334 3f43 36000000 		.4byte	.LFE423-.LFB423
 19335 3f47 01       		.uleb128 0x1
 19336 3f48 9C       		.byte	0x9c
 19337 3f49 6C3F0000 		.4byte	0x3f6c
 19338 3f4d 23       		.uleb128 0x23
 19339 3f4e CC000000 		.4byte	.LASF450
 19340 3f52 01       		.byte	0x1
 19341 3f53 6E0C     		.2byte	0xc6e
 19342 3f55 3E030000 		.4byte	0x33e
 19343 3f59 02       		.uleb128 0x2
 19344 3f5a 91       		.byte	0x91
 19345 3f5b 74       		.sleb128 -12
 19346 3f5c 23       		.uleb128 0x23
 19347 3f5d 13130000 		.4byte	.LASF446
 19348 3f61 01       		.byte	0x1
 19349 3f62 6E0C     		.2byte	0xc6e
 19350 3f64 D73D0000 		.4byte	0x3dd7
 19351 3f68 02       		.uleb128 0x2
 19352 3f69 91       		.byte	0x91
 19353 3f6a 70       		.sleb128 -16
 19354 3f6b 00       		.byte	0
 19355 3f6c 22       		.uleb128 0x22
 19356 3f6d 760E0000 		.4byte	.LASF612
 19357 3f71 01       		.byte	0x1
 19358 3f72 7F0C     		.2byte	0xc7f
 19359 3f74 AA0A0000 		.4byte	0xaaa
 19360 3f78 F0330000 		.4byte	.LFB424
 19361 3f7c 74000000 		.4byte	.LFE424-.LFB424
ARM GAS  /tmp/cc1ELVNa.s 			page 344


 19362 3f80 01       		.uleb128 0x1
 19363 3f81 9C       		.byte	0x9c
 19364 3f82 B43F0000 		.4byte	0x3fb4
 19365 3f86 23       		.uleb128 0x23
 19366 3f87 CC000000 		.4byte	.LASF450
 19367 3f8b 01       		.byte	0x1
 19368 3f8c 7F0C     		.2byte	0xc7f
 19369 3f8e 3E030000 		.4byte	0x33e
 19370 3f92 02       		.uleb128 0x2
 19371 3f93 91       		.byte	0x91
 19372 3f94 6C       		.sleb128 -20
 19373 3f95 23       		.uleb128 0x23
 19374 3f96 2B290000 		.4byte	.LASF455
 19375 3f9a 01       		.byte	0x1
 19376 3f9b 7F0C     		.2byte	0xc7f
 19377 3f9d 2A0A0000 		.4byte	0xa2a
 19378 3fa1 02       		.uleb128 0x2
 19379 3fa2 91       		.byte	0x91
 19380 3fa3 6B       		.sleb128 -21
 19381 3fa4 24       		.uleb128 0x24
 19382 3fa5 13130000 		.4byte	.LASF446
 19383 3fa9 01       		.byte	0x1
 19384 3faa 810C     		.2byte	0xc81
 19385 3fac 2A0A0000 		.4byte	0xa2a
 19386 3fb0 02       		.uleb128 0x2
 19387 3fb1 91       		.byte	0x91
 19388 3fb2 77       		.sleb128 -9
 19389 3fb3 00       		.byte	0
 19390 3fb4 22       		.uleb128 0x22
 19391 3fb5 E52B0000 		.4byte	.LASF613
 19392 3fb9 01       		.byte	0x1
 19393 3fba 990C     		.2byte	0xc99
 19394 3fbc AA0A0000 		.4byte	0xaaa
 19395 3fc0 70340000 		.4byte	.LFB425
 19396 3fc4 3E000000 		.4byte	.LFE425-.LFB425
 19397 3fc8 01       		.uleb128 0x1
 19398 3fc9 9C       		.byte	0x9c
 19399 3fca ED3F0000 		.4byte	0x3fed
 19400 3fce 23       		.uleb128 0x23
 19401 3fcf CC000000 		.4byte	.LASF450
 19402 3fd3 01       		.byte	0x1
 19403 3fd4 990C     		.2byte	0xc99
 19404 3fd6 3E030000 		.4byte	0x33e
 19405 3fda 02       		.uleb128 0x2
 19406 3fdb 91       		.byte	0x91
 19407 3fdc 74       		.sleb128 -12
 19408 3fdd 23       		.uleb128 0x23
 19409 3fde 13130000 		.4byte	.LASF446
 19410 3fe2 01       		.byte	0x1
 19411 3fe3 990C     		.2byte	0xc99
 19412 3fe5 50170000 		.4byte	0x1750
 19413 3fe9 02       		.uleb128 0x2
 19414 3fea 91       		.byte	0x91
 19415 3feb 70       		.sleb128 -16
 19416 3fec 00       		.byte	0
 19417 3fed 22       		.uleb128 0x22
 19418 3fee 3E210000 		.4byte	.LASF614
ARM GAS  /tmp/cc1ELVNa.s 			page 345


 19419 3ff2 01       		.byte	0x1
 19420 3ff3 AB0C     		.2byte	0xcab
 19421 3ff5 AA0A0000 		.4byte	0xaaa
 19422 3ff9 B0340000 		.4byte	.LFB426
 19423 3ffd 74000000 		.4byte	.LFE426-.LFB426
 19424 4001 01       		.uleb128 0x1
 19425 4002 9C       		.byte	0x9c
 19426 4003 35400000 		.4byte	0x4035
 19427 4007 23       		.uleb128 0x23
 19428 4008 CC000000 		.4byte	.LASF450
 19429 400c 01       		.byte	0x1
 19430 400d AB0C     		.2byte	0xcab
 19431 400f 3E030000 		.4byte	0x33e
 19432 4013 02       		.uleb128 0x2
 19433 4014 91       		.byte	0x91
 19434 4015 6C       		.sleb128 -20
 19435 4016 23       		.uleb128 0x23
 19436 4017 2B290000 		.4byte	.LASF455
 19437 401b 01       		.byte	0x1
 19438 401c AB0C     		.2byte	0xcab
 19439 401e 2A0A0000 		.4byte	0xa2a
 19440 4022 02       		.uleb128 0x2
 19441 4023 91       		.byte	0x91
 19442 4024 6B       		.sleb128 -21
 19443 4025 24       		.uleb128 0x24
 19444 4026 13130000 		.4byte	.LASF446
 19445 402a 01       		.byte	0x1
 19446 402b AD0C     		.2byte	0xcad
 19447 402d 2A0A0000 		.4byte	0xa2a
 19448 4031 02       		.uleb128 0x2
 19449 4032 91       		.byte	0x91
 19450 4033 77       		.sleb128 -9
 19451 4034 00       		.byte	0
 19452 4035 22       		.uleb128 0x22
 19453 4036 10350000 		.4byte	.LASF615
 19454 403a 01       		.byte	0x1
 19455 403b C50C     		.2byte	0xcc5
 19456 403d AA0A0000 		.4byte	0xaaa
 19457 4041 30350000 		.4byte	.LFB427
 19458 4045 3E000000 		.4byte	.LFE427-.LFB427
 19459 4049 01       		.uleb128 0x1
 19460 404a 9C       		.byte	0x9c
 19461 404b 6E400000 		.4byte	0x406e
 19462 404f 23       		.uleb128 0x23
 19463 4050 CC000000 		.4byte	.LASF450
 19464 4054 01       		.byte	0x1
 19465 4055 C50C     		.2byte	0xcc5
 19466 4057 3E030000 		.4byte	0x33e
 19467 405b 02       		.uleb128 0x2
 19468 405c 91       		.byte	0x91
 19469 405d 74       		.sleb128 -12
 19470 405e 23       		.uleb128 0x23
 19471 405f 13130000 		.4byte	.LASF446
 19472 4063 01       		.byte	0x1
 19473 4064 C50C     		.2byte	0xcc5
 19474 4066 50170000 		.4byte	0x1750
 19475 406a 02       		.uleb128 0x2
ARM GAS  /tmp/cc1ELVNa.s 			page 346


 19476 406b 91       		.byte	0x91
 19477 406c 70       		.sleb128 -16
 19478 406d 00       		.byte	0
 19479 406e 22       		.uleb128 0x22
 19480 406f 832A0000 		.4byte	.LASF616
 19481 4073 01       		.byte	0x1
 19482 4074 D70C     		.2byte	0xcd7
 19483 4076 AA0A0000 		.4byte	0xaaa
 19484 407a 70350000 		.4byte	.LFB428
 19485 407e 74000000 		.4byte	.LFE428-.LFB428
 19486 4082 01       		.uleb128 0x1
 19487 4083 9C       		.byte	0x9c
 19488 4084 B6400000 		.4byte	0x40b6
 19489 4088 23       		.uleb128 0x23
 19490 4089 CC000000 		.4byte	.LASF450
 19491 408d 01       		.byte	0x1
 19492 408e D70C     		.2byte	0xcd7
 19493 4090 3E030000 		.4byte	0x33e
 19494 4094 02       		.uleb128 0x2
 19495 4095 91       		.byte	0x91
 19496 4096 6C       		.sleb128 -20
 19497 4097 23       		.uleb128 0x23
 19498 4098 2B290000 		.4byte	.LASF455
 19499 409c 01       		.byte	0x1
 19500 409d D70C     		.2byte	0xcd7
 19501 409f 2A0A0000 		.4byte	0xa2a
 19502 40a3 02       		.uleb128 0x2
 19503 40a4 91       		.byte	0x91
 19504 40a5 6B       		.sleb128 -21
 19505 40a6 24       		.uleb128 0x24
 19506 40a7 13130000 		.4byte	.LASF446
 19507 40ab 01       		.byte	0x1
 19508 40ac D90C     		.2byte	0xcd9
 19509 40ae 2A0A0000 		.4byte	0xa2a
 19510 40b2 02       		.uleb128 0x2
 19511 40b3 91       		.byte	0x91
 19512 40b4 77       		.sleb128 -9
 19513 40b5 00       		.byte	0
 19514 40b6 22       		.uleb128 0x22
 19515 40b7 BA280000 		.4byte	.LASF617
 19516 40bb 01       		.byte	0x1
 19517 40bc F10C     		.2byte	0xcf1
 19518 40be AA0A0000 		.4byte	0xaaa
 19519 40c2 F0350000 		.4byte	.LFB429
 19520 40c6 3E000000 		.4byte	.LFE429-.LFB429
 19521 40ca 01       		.uleb128 0x1
 19522 40cb 9C       		.byte	0x9c
 19523 40cc EF400000 		.4byte	0x40ef
 19524 40d0 23       		.uleb128 0x23
 19525 40d1 CC000000 		.4byte	.LASF450
 19526 40d5 01       		.byte	0x1
 19527 40d6 F10C     		.2byte	0xcf1
 19528 40d8 3E030000 		.4byte	0x33e
 19529 40dc 02       		.uleb128 0x2
 19530 40dd 91       		.byte	0x91
 19531 40de 74       		.sleb128 -12
 19532 40df 23       		.uleb128 0x23
ARM GAS  /tmp/cc1ELVNa.s 			page 347


 19533 40e0 13130000 		.4byte	.LASF446
 19534 40e4 01       		.byte	0x1
 19535 40e5 F10C     		.2byte	0xcf1
 19536 40e7 50170000 		.4byte	0x1750
 19537 40eb 02       		.uleb128 0x2
 19538 40ec 91       		.byte	0x91
 19539 40ed 70       		.sleb128 -16
 19540 40ee 00       		.byte	0
 19541 40ef 22       		.uleb128 0x22
 19542 40f0 5A340000 		.4byte	.LASF618
 19543 40f4 01       		.byte	0x1
 19544 40f5 030D     		.2byte	0xd03
 19545 40f7 AA0A0000 		.4byte	0xaaa
 19546 40fb 30360000 		.4byte	.LFB430
 19547 40ff 74000000 		.4byte	.LFE430-.LFB430
 19548 4103 01       		.uleb128 0x1
 19549 4104 9C       		.byte	0x9c
 19550 4105 37410000 		.4byte	0x4137
 19551 4109 23       		.uleb128 0x23
 19552 410a CC000000 		.4byte	.LASF450
 19553 410e 01       		.byte	0x1
 19554 410f 030D     		.2byte	0xd03
 19555 4111 3E030000 		.4byte	0x33e
 19556 4115 02       		.uleb128 0x2
 19557 4116 91       		.byte	0x91
 19558 4117 6C       		.sleb128 -20
 19559 4118 23       		.uleb128 0x23
 19560 4119 2B290000 		.4byte	.LASF455
 19561 411d 01       		.byte	0x1
 19562 411e 030D     		.2byte	0xd03
 19563 4120 2A0A0000 		.4byte	0xa2a
 19564 4124 02       		.uleb128 0x2
 19565 4125 91       		.byte	0x91
 19566 4126 6B       		.sleb128 -21
 19567 4127 24       		.uleb128 0x24
 19568 4128 13130000 		.4byte	.LASF446
 19569 412c 01       		.byte	0x1
 19570 412d 050D     		.2byte	0xd05
 19571 412f 2A0A0000 		.4byte	0xa2a
 19572 4133 02       		.uleb128 0x2
 19573 4134 91       		.byte	0x91
 19574 4135 77       		.sleb128 -9
 19575 4136 00       		.byte	0
 19576 4137 22       		.uleb128 0x22
 19577 4138 971C0000 		.4byte	.LASF619
 19578 413c 01       		.byte	0x1
 19579 413d 1D0D     		.2byte	0xd1d
 19580 413f AA0A0000 		.4byte	0xaaa
 19581 4143 B0360000 		.4byte	.LFB431
 19582 4147 3E000000 		.4byte	.LFE431-.LFB431
 19583 414b 01       		.uleb128 0x1
 19584 414c 9C       		.byte	0x9c
 19585 414d 70410000 		.4byte	0x4170
 19586 4151 23       		.uleb128 0x23
 19587 4152 CC000000 		.4byte	.LASF450
 19588 4156 01       		.byte	0x1
 19589 4157 1D0D     		.2byte	0xd1d
ARM GAS  /tmp/cc1ELVNa.s 			page 348


 19590 4159 3E030000 		.4byte	0x33e
 19591 415d 02       		.uleb128 0x2
 19592 415e 91       		.byte	0x91
 19593 415f 74       		.sleb128 -12
 19594 4160 23       		.uleb128 0x23
 19595 4161 13130000 		.4byte	.LASF446
 19596 4165 01       		.byte	0x1
 19597 4166 1D0D     		.2byte	0xd1d
 19598 4168 50170000 		.4byte	0x1750
 19599 416c 02       		.uleb128 0x2
 19600 416d 91       		.byte	0x91
 19601 416e 70       		.sleb128 -16
 19602 416f 00       		.byte	0
 19603 4170 22       		.uleb128 0x22
 19604 4171 202B0000 		.4byte	.LASF620
 19605 4175 01       		.byte	0x1
 19606 4176 2F0D     		.2byte	0xd2f
 19607 4178 AA0A0000 		.4byte	0xaaa
 19608 417c F0360000 		.4byte	.LFB432
 19609 4180 68000000 		.4byte	.LFE432-.LFB432
 19610 4184 01       		.uleb128 0x1
 19611 4185 9C       		.byte	0x9c
 19612 4186 B8410000 		.4byte	0x41b8
 19613 418a 23       		.uleb128 0x23
 19614 418b CC000000 		.4byte	.LASF450
 19615 418f 01       		.byte	0x1
 19616 4190 2F0D     		.2byte	0xd2f
 19617 4192 3E030000 		.4byte	0x33e
 19618 4196 02       		.uleb128 0x2
 19619 4197 91       		.byte	0x91
 19620 4198 6C       		.sleb128 -20
 19621 4199 23       		.uleb128 0x23
 19622 419a 2B290000 		.4byte	.LASF455
 19623 419e 01       		.byte	0x1
 19624 419f 2F0D     		.2byte	0xd2f
 19625 41a1 23150000 		.4byte	0x1523
 19626 41a5 02       		.uleb128 0x2
 19627 41a6 91       		.byte	0x91
 19628 41a7 6B       		.sleb128 -21
 19629 41a8 24       		.uleb128 0x24
 19630 41a9 13130000 		.4byte	.LASF446
 19631 41ad 01       		.byte	0x1
 19632 41ae 310D     		.2byte	0xd31
 19633 41b0 2A0A0000 		.4byte	0xa2a
 19634 41b4 02       		.uleb128 0x2
 19635 41b5 91       		.byte	0x91
 19636 41b6 77       		.sleb128 -9
 19637 41b7 00       		.byte	0
 19638 41b8 22       		.uleb128 0x22
 19639 41b9 492A0000 		.4byte	.LASF621
 19640 41bd 01       		.byte	0x1
 19641 41be 460D     		.2byte	0xd46
 19642 41c0 AA0A0000 		.4byte	0xaaa
 19643 41c4 60370000 		.4byte	.LFB433
 19644 41c8 36000000 		.4byte	.LFE433-.LFB433
 19645 41cc 01       		.uleb128 0x1
 19646 41cd 9C       		.byte	0x9c
ARM GAS  /tmp/cc1ELVNa.s 			page 349


 19647 41ce F1410000 		.4byte	0x41f1
 19648 41d2 23       		.uleb128 0x23
 19649 41d3 CC000000 		.4byte	.LASF450
 19650 41d7 01       		.byte	0x1
 19651 41d8 460D     		.2byte	0xd46
 19652 41da 3E030000 		.4byte	0x33e
 19653 41de 02       		.uleb128 0x2
 19654 41df 91       		.byte	0x91
 19655 41e0 74       		.sleb128 -12
 19656 41e1 23       		.uleb128 0x23
 19657 41e2 13130000 		.4byte	.LASF446
 19658 41e6 01       		.byte	0x1
 19659 41e7 460D     		.2byte	0xd46
 19660 41e9 F1410000 		.4byte	0x41f1
 19661 41ed 02       		.uleb128 0x2
 19662 41ee 91       		.byte	0x91
 19663 41ef 70       		.sleb128 -16
 19664 41f0 00       		.byte	0
 19665 41f1 09       		.uleb128 0x9
 19666 41f2 04       		.byte	0x4
 19667 41f3 23150000 		.4byte	0x1523
 19668 41f7 22       		.uleb128 0x22
 19669 41f8 ED370000 		.4byte	.LASF622
 19670 41fc 01       		.byte	0x1
 19671 41fd 570D     		.2byte	0xd57
 19672 41ff AA0A0000 		.4byte	0xaaa
 19673 4203 A0370000 		.4byte	.LFB434
 19674 4207 68000000 		.4byte	.LFE434-.LFB434
 19675 420b 01       		.uleb128 0x1
 19676 420c 9C       		.byte	0x9c
 19677 420d 3F420000 		.4byte	0x423f
 19678 4211 23       		.uleb128 0x23
 19679 4212 CC000000 		.4byte	.LASF450
 19680 4216 01       		.byte	0x1
 19681 4217 570D     		.2byte	0xd57
 19682 4219 3E030000 		.4byte	0x33e
 19683 421d 02       		.uleb128 0x2
 19684 421e 91       		.byte	0x91
 19685 421f 6C       		.sleb128 -20
 19686 4220 23       		.uleb128 0x23
 19687 4221 2B290000 		.4byte	.LASF455
 19688 4225 01       		.byte	0x1
 19689 4226 570D     		.2byte	0xd57
 19690 4228 45150000 		.4byte	0x1545
 19691 422c 02       		.uleb128 0x2
 19692 422d 91       		.byte	0x91
 19693 422e 6B       		.sleb128 -21
 19694 422f 24       		.uleb128 0x24
 19695 4230 13130000 		.4byte	.LASF446
 19696 4234 01       		.byte	0x1
 19697 4235 590D     		.2byte	0xd59
 19698 4237 2A0A0000 		.4byte	0xa2a
 19699 423b 02       		.uleb128 0x2
 19700 423c 91       		.byte	0x91
 19701 423d 77       		.sleb128 -9
 19702 423e 00       		.byte	0
 19703 423f 22       		.uleb128 0x22
ARM GAS  /tmp/cc1ELVNa.s 			page 350


 19704 4240 11370000 		.4byte	.LASF623
 19705 4244 01       		.byte	0x1
 19706 4245 6E0D     		.2byte	0xd6e
 19707 4247 AA0A0000 		.4byte	0xaaa
 19708 424b 10380000 		.4byte	.LFB435
 19709 424f 36000000 		.4byte	.LFE435-.LFB435
 19710 4253 01       		.uleb128 0x1
 19711 4254 9C       		.byte	0x9c
 19712 4255 78420000 		.4byte	0x4278
 19713 4259 23       		.uleb128 0x23
 19714 425a CC000000 		.4byte	.LASF450
 19715 425e 01       		.byte	0x1
 19716 425f 6E0D     		.2byte	0xd6e
 19717 4261 3E030000 		.4byte	0x33e
 19718 4265 02       		.uleb128 0x2
 19719 4266 91       		.byte	0x91
 19720 4267 74       		.sleb128 -12
 19721 4268 23       		.uleb128 0x23
 19722 4269 13130000 		.4byte	.LASF446
 19723 426d 01       		.byte	0x1
 19724 426e 6E0D     		.2byte	0xd6e
 19725 4270 78420000 		.4byte	0x4278
 19726 4274 02       		.uleb128 0x2
 19727 4275 91       		.byte	0x91
 19728 4276 70       		.sleb128 -16
 19729 4277 00       		.byte	0
 19730 4278 09       		.uleb128 0x9
 19731 4279 04       		.byte	0x4
 19732 427a 45150000 		.4byte	0x1545
 19733 427e 22       		.uleb128 0x22
 19734 427f 7A360000 		.4byte	.LASF624
 19735 4283 01       		.byte	0x1
 19736 4284 7F0D     		.2byte	0xd7f
 19737 4286 AA0A0000 		.4byte	0xaaa
 19738 428a 50380000 		.4byte	.LFB436
 19739 428e 68000000 		.4byte	.LFE436-.LFB436
 19740 4292 01       		.uleb128 0x1
 19741 4293 9C       		.byte	0x9c
 19742 4294 C6420000 		.4byte	0x42c6
 19743 4298 23       		.uleb128 0x23
 19744 4299 CC000000 		.4byte	.LASF450
 19745 429d 01       		.byte	0x1
 19746 429e 7F0D     		.2byte	0xd7f
 19747 42a0 3E030000 		.4byte	0x33e
 19748 42a4 02       		.uleb128 0x2
 19749 42a5 91       		.byte	0x91
 19750 42a6 6C       		.sleb128 -20
 19751 42a7 23       		.uleb128 0x23
 19752 42a8 2B290000 		.4byte	.LASF455
 19753 42ac 01       		.byte	0x1
 19754 42ad 7F0D     		.2byte	0xd7f
 19755 42af 67150000 		.4byte	0x1567
 19756 42b3 02       		.uleb128 0x2
 19757 42b4 91       		.byte	0x91
 19758 42b5 6B       		.sleb128 -21
 19759 42b6 24       		.uleb128 0x24
 19760 42b7 13130000 		.4byte	.LASF446
ARM GAS  /tmp/cc1ELVNa.s 			page 351


 19761 42bb 01       		.byte	0x1
 19762 42bc 810D     		.2byte	0xd81
 19763 42be 2A0A0000 		.4byte	0xa2a
 19764 42c2 02       		.uleb128 0x2
 19765 42c3 91       		.byte	0x91
 19766 42c4 77       		.sleb128 -9
 19767 42c5 00       		.byte	0
 19768 42c6 22       		.uleb128 0x22
 19769 42c7 C02C0000 		.4byte	.LASF625
 19770 42cb 01       		.byte	0x1
 19771 42cc 960D     		.2byte	0xd96
 19772 42ce AA0A0000 		.4byte	0xaaa
 19773 42d2 C0380000 		.4byte	.LFB437
 19774 42d6 36000000 		.4byte	.LFE437-.LFB437
 19775 42da 01       		.uleb128 0x1
 19776 42db 9C       		.byte	0x9c
 19777 42dc FF420000 		.4byte	0x42ff
 19778 42e0 23       		.uleb128 0x23
 19779 42e1 CC000000 		.4byte	.LASF450
 19780 42e5 01       		.byte	0x1
 19781 42e6 960D     		.2byte	0xd96
 19782 42e8 3E030000 		.4byte	0x33e
 19783 42ec 02       		.uleb128 0x2
 19784 42ed 91       		.byte	0x91
 19785 42ee 74       		.sleb128 -12
 19786 42ef 23       		.uleb128 0x23
 19787 42f0 13130000 		.4byte	.LASF446
 19788 42f4 01       		.byte	0x1
 19789 42f5 960D     		.2byte	0xd96
 19790 42f7 FF420000 		.4byte	0x42ff
 19791 42fb 02       		.uleb128 0x2
 19792 42fc 91       		.byte	0x91
 19793 42fd 70       		.sleb128 -16
 19794 42fe 00       		.byte	0
 19795 42ff 09       		.uleb128 0x9
 19796 4300 04       		.byte	0x4
 19797 4301 67150000 		.4byte	0x1567
 19798 4305 22       		.uleb128 0x22
 19799 4306 390A0000 		.4byte	.LASF626
 19800 430a 01       		.byte	0x1
 19801 430b A70D     		.2byte	0xda7
 19802 430d AA0A0000 		.4byte	0xaaa
 19803 4311 00390000 		.4byte	.LFB438
 19804 4315 68000000 		.4byte	.LFE438-.LFB438
 19805 4319 01       		.uleb128 0x1
 19806 431a 9C       		.byte	0x9c
 19807 431b 4D430000 		.4byte	0x434d
 19808 431f 23       		.uleb128 0x23
 19809 4320 CC000000 		.4byte	.LASF450
 19810 4324 01       		.byte	0x1
 19811 4325 A70D     		.2byte	0xda7
 19812 4327 3E030000 		.4byte	0x33e
 19813 432b 02       		.uleb128 0x2
 19814 432c 91       		.byte	0x91
 19815 432d 6C       		.sleb128 -20
 19816 432e 23       		.uleb128 0x23
 19817 432f 2B290000 		.4byte	.LASF455
ARM GAS  /tmp/cc1ELVNa.s 			page 352


 19818 4333 01       		.byte	0x1
 19819 4334 A70D     		.2byte	0xda7
 19820 4336 89150000 		.4byte	0x1589
 19821 433a 02       		.uleb128 0x2
 19822 433b 91       		.byte	0x91
 19823 433c 6B       		.sleb128 -21
 19824 433d 24       		.uleb128 0x24
 19825 433e 13130000 		.4byte	.LASF446
 19826 4342 01       		.byte	0x1
 19827 4343 A90D     		.2byte	0xda9
 19828 4345 2A0A0000 		.4byte	0xa2a
 19829 4349 02       		.uleb128 0x2
 19830 434a 91       		.byte	0x91
 19831 434b 77       		.sleb128 -9
 19832 434c 00       		.byte	0
 19833 434d 22       		.uleb128 0x22
 19834 434e 63090000 		.4byte	.LASF627
 19835 4352 01       		.byte	0x1
 19836 4353 BE0D     		.2byte	0xdbe
 19837 4355 AA0A0000 		.4byte	0xaaa
 19838 4359 70390000 		.4byte	.LFB439
 19839 435d 36000000 		.4byte	.LFE439-.LFB439
 19840 4361 01       		.uleb128 0x1
 19841 4362 9C       		.byte	0x9c
 19842 4363 86430000 		.4byte	0x4386
 19843 4367 23       		.uleb128 0x23
 19844 4368 CC000000 		.4byte	.LASF450
 19845 436c 01       		.byte	0x1
 19846 436d BE0D     		.2byte	0xdbe
 19847 436f 3E030000 		.4byte	0x33e
 19848 4373 02       		.uleb128 0x2
 19849 4374 91       		.byte	0x91
 19850 4375 74       		.sleb128 -12
 19851 4376 23       		.uleb128 0x23
 19852 4377 13130000 		.4byte	.LASF446
 19853 437b 01       		.byte	0x1
 19854 437c BE0D     		.2byte	0xdbe
 19855 437e 86430000 		.4byte	0x4386
 19856 4382 02       		.uleb128 0x2
 19857 4383 91       		.byte	0x91
 19858 4384 70       		.sleb128 -16
 19859 4385 00       		.byte	0
 19860 4386 09       		.uleb128 0x9
 19861 4387 04       		.byte	0x4
 19862 4388 89150000 		.4byte	0x1589
 19863 438c 22       		.uleb128 0x22
 19864 438d 0C090000 		.4byte	.LASF628
 19865 4391 01       		.byte	0x1
 19866 4392 CF0D     		.2byte	0xdcf
 19867 4394 AA0A0000 		.4byte	0xaaa
 19868 4398 B0390000 		.4byte	.LFB440
 19869 439c 68000000 		.4byte	.LFE440-.LFB440
 19870 43a0 01       		.uleb128 0x1
 19871 43a1 9C       		.byte	0x9c
 19872 43a2 D4430000 		.4byte	0x43d4
 19873 43a6 23       		.uleb128 0x23
 19874 43a7 CC000000 		.4byte	.LASF450
ARM GAS  /tmp/cc1ELVNa.s 			page 353


 19875 43ab 01       		.byte	0x1
 19876 43ac CF0D     		.2byte	0xdcf
 19877 43ae 3E030000 		.4byte	0x33e
 19878 43b2 02       		.uleb128 0x2
 19879 43b3 91       		.byte	0x91
 19880 43b4 6C       		.sleb128 -20
 19881 43b5 23       		.uleb128 0x23
 19882 43b6 2B290000 		.4byte	.LASF455
 19883 43ba 01       		.byte	0x1
 19884 43bb CF0D     		.2byte	0xdcf
 19885 43bd AB150000 		.4byte	0x15ab
 19886 43c1 02       		.uleb128 0x2
 19887 43c2 91       		.byte	0x91
 19888 43c3 6B       		.sleb128 -21
 19889 43c4 24       		.uleb128 0x24
 19890 43c5 13130000 		.4byte	.LASF446
 19891 43c9 01       		.byte	0x1
 19892 43ca D10D     		.2byte	0xdd1
 19893 43cc 2A0A0000 		.4byte	0xa2a
 19894 43d0 02       		.uleb128 0x2
 19895 43d1 91       		.byte	0x91
 19896 43d2 77       		.sleb128 -9
 19897 43d3 00       		.byte	0
 19898 43d4 22       		.uleb128 0x22
 19899 43d5 E2070000 		.4byte	.LASF629
 19900 43d9 01       		.byte	0x1
 19901 43da E60D     		.2byte	0xde6
 19902 43dc AA0A0000 		.4byte	0xaaa
 19903 43e0 203A0000 		.4byte	.LFB441
 19904 43e4 36000000 		.4byte	.LFE441-.LFB441
 19905 43e8 01       		.uleb128 0x1
 19906 43e9 9C       		.byte	0x9c
 19907 43ea 0D440000 		.4byte	0x440d
 19908 43ee 23       		.uleb128 0x23
 19909 43ef CC000000 		.4byte	.LASF450
 19910 43f3 01       		.byte	0x1
 19911 43f4 E60D     		.2byte	0xde6
 19912 43f6 3E030000 		.4byte	0x33e
 19913 43fa 02       		.uleb128 0x2
 19914 43fb 91       		.byte	0x91
 19915 43fc 74       		.sleb128 -12
 19916 43fd 23       		.uleb128 0x23
 19917 43fe 13130000 		.4byte	.LASF446
 19918 4402 01       		.byte	0x1
 19919 4403 E60D     		.2byte	0xde6
 19920 4405 0D440000 		.4byte	0x440d
 19921 4409 02       		.uleb128 0x2
 19922 440a 91       		.byte	0x91
 19923 440b 70       		.sleb128 -16
 19924 440c 00       		.byte	0
 19925 440d 09       		.uleb128 0x9
 19926 440e 04       		.byte	0x4
 19927 440f AB150000 		.4byte	0x15ab
 19928 4413 22       		.uleb128 0x22
 19929 4414 CE170000 		.4byte	.LASF630
 19930 4418 01       		.byte	0x1
 19931 4419 F70D     		.2byte	0xdf7
ARM GAS  /tmp/cc1ELVNa.s 			page 354


 19932 441b AA0A0000 		.4byte	0xaaa
 19933 441f 603A0000 		.4byte	.LFB442
 19934 4423 68000000 		.4byte	.LFE442-.LFB442
 19935 4427 01       		.uleb128 0x1
 19936 4428 9C       		.byte	0x9c
 19937 4429 5B440000 		.4byte	0x445b
 19938 442d 23       		.uleb128 0x23
 19939 442e CC000000 		.4byte	.LASF450
 19940 4432 01       		.byte	0x1
 19941 4433 F70D     		.2byte	0xdf7
 19942 4435 3E030000 		.4byte	0x33e
 19943 4439 02       		.uleb128 0x2
 19944 443a 91       		.byte	0x91
 19945 443b 6C       		.sleb128 -20
 19946 443c 23       		.uleb128 0x23
 19947 443d 2B290000 		.4byte	.LASF455
 19948 4441 01       		.byte	0x1
 19949 4442 F70D     		.2byte	0xdf7
 19950 4444 CD150000 		.4byte	0x15cd
 19951 4448 02       		.uleb128 0x2
 19952 4449 91       		.byte	0x91
 19953 444a 6B       		.sleb128 -21
 19954 444b 24       		.uleb128 0x24
 19955 444c 13130000 		.4byte	.LASF446
 19956 4450 01       		.byte	0x1
 19957 4451 F90D     		.2byte	0xdf9
 19958 4453 2A0A0000 		.4byte	0xa2a
 19959 4457 02       		.uleb128 0x2
 19960 4458 91       		.byte	0x91
 19961 4459 77       		.sleb128 -9
 19962 445a 00       		.byte	0
 19963 445b 22       		.uleb128 0x22
 19964 445c 59170000 		.4byte	.LASF631
 19965 4460 01       		.byte	0x1
 19966 4461 0E0E     		.2byte	0xe0e
 19967 4463 AA0A0000 		.4byte	0xaaa
 19968 4467 D03A0000 		.4byte	.LFB443
 19969 446b 36000000 		.4byte	.LFE443-.LFB443
 19970 446f 01       		.uleb128 0x1
 19971 4470 9C       		.byte	0x9c
 19972 4471 94440000 		.4byte	0x4494
 19973 4475 23       		.uleb128 0x23
 19974 4476 CC000000 		.4byte	.LASF450
 19975 447a 01       		.byte	0x1
 19976 447b 0E0E     		.2byte	0xe0e
 19977 447d 3E030000 		.4byte	0x33e
 19978 4481 02       		.uleb128 0x2
 19979 4482 91       		.byte	0x91
 19980 4483 74       		.sleb128 -12
 19981 4484 23       		.uleb128 0x23
 19982 4485 13130000 		.4byte	.LASF446
 19983 4489 01       		.byte	0x1
 19984 448a 0E0E     		.2byte	0xe0e
 19985 448c 94440000 		.4byte	0x4494
 19986 4490 02       		.uleb128 0x2
 19987 4491 91       		.byte	0x91
 19988 4492 70       		.sleb128 -16
ARM GAS  /tmp/cc1ELVNa.s 			page 355


 19989 4493 00       		.byte	0
 19990 4494 09       		.uleb128 0x9
 19991 4495 04       		.byte	0x4
 19992 4496 CD150000 		.4byte	0x15cd
 19993 449a 22       		.uleb128 0x22
 19994 449b B91E0000 		.4byte	.LASF632
 19995 449f 01       		.byte	0x1
 19996 44a0 1F0E     		.2byte	0xe1f
 19997 44a2 AA0A0000 		.4byte	0xaaa
 19998 44a6 103B0000 		.4byte	.LFB444
 19999 44aa 36000000 		.4byte	.LFE444-.LFB444
 20000 44ae 01       		.uleb128 0x1
 20001 44af 9C       		.byte	0x9c
 20002 44b0 D3440000 		.4byte	0x44d3
 20003 44b4 23       		.uleb128 0x23
 20004 44b5 CC000000 		.4byte	.LASF450
 20005 44b9 01       		.byte	0x1
 20006 44ba 1F0E     		.2byte	0xe1f
 20007 44bc 3E030000 		.4byte	0x33e
 20008 44c0 02       		.uleb128 0x2
 20009 44c1 91       		.byte	0x91
 20010 44c2 74       		.sleb128 -12
 20011 44c3 23       		.uleb128 0x23
 20012 44c4 13130000 		.4byte	.LASF446
 20013 44c8 01       		.byte	0x1
 20014 44c9 1F0E     		.2byte	0xe1f
 20015 44cb D3440000 		.4byte	0x44d3
 20016 44cf 02       		.uleb128 0x2
 20017 44d0 91       		.byte	0x91
 20018 44d1 70       		.sleb128 -16
 20019 44d2 00       		.byte	0
 20020 44d3 09       		.uleb128 0x9
 20021 44d4 04       		.byte	0x4
 20022 44d5 EF150000 		.4byte	0x15ef
 20023 44d9 22       		.uleb128 0x22
 20024 44da C0010000 		.4byte	.LASF633
 20025 44de 01       		.byte	0x1
 20026 44df 300E     		.2byte	0xe30
 20027 44e1 AA0A0000 		.4byte	0xaaa
 20028 44e5 503B0000 		.4byte	.LFB445
 20029 44e9 36000000 		.4byte	.LFE445-.LFB445
 20030 44ed 01       		.uleb128 0x1
 20031 44ee 9C       		.byte	0x9c
 20032 44ef 12450000 		.4byte	0x4512
 20033 44f3 23       		.uleb128 0x23
 20034 44f4 CC000000 		.4byte	.LASF450
 20035 44f8 01       		.byte	0x1
 20036 44f9 300E     		.2byte	0xe30
 20037 44fb 3E030000 		.4byte	0x33e
 20038 44ff 02       		.uleb128 0x2
 20039 4500 91       		.byte	0x91
 20040 4501 74       		.sleb128 -12
 20041 4502 23       		.uleb128 0x23
 20042 4503 13130000 		.4byte	.LASF446
 20043 4507 01       		.byte	0x1
 20044 4508 300E     		.2byte	0xe30
 20045 450a 12450000 		.4byte	0x4512
ARM GAS  /tmp/cc1ELVNa.s 			page 356


 20046 450e 02       		.uleb128 0x2
 20047 450f 91       		.byte	0x91
 20048 4510 70       		.sleb128 -16
 20049 4511 00       		.byte	0
 20050 4512 09       		.uleb128 0x9
 20051 4513 04       		.byte	0x4
 20052 4514 11160000 		.4byte	0x1611
 20053 4518 22       		.uleb128 0x22
 20054 4519 DA1E0000 		.4byte	.LASF634
 20055 451d 01       		.byte	0x1
 20056 451e 410E     		.2byte	0xe41
 20057 4520 AA0A0000 		.4byte	0xaaa
 20058 4524 903B0000 		.4byte	.LFB446
 20059 4528 36000000 		.4byte	.LFE446-.LFB446
 20060 452c 01       		.uleb128 0x1
 20061 452d 9C       		.byte	0x9c
 20062 452e 51450000 		.4byte	0x4551
 20063 4532 23       		.uleb128 0x23
 20064 4533 CC000000 		.4byte	.LASF450
 20065 4537 01       		.byte	0x1
 20066 4538 410E     		.2byte	0xe41
 20067 453a 3E030000 		.4byte	0x33e
 20068 453e 02       		.uleb128 0x2
 20069 453f 91       		.byte	0x91
 20070 4540 74       		.sleb128 -12
 20071 4541 23       		.uleb128 0x23
 20072 4542 13130000 		.4byte	.LASF446
 20073 4546 01       		.byte	0x1
 20074 4547 410E     		.2byte	0xe41
 20075 4549 51450000 		.4byte	0x4551
 20076 454d 02       		.uleb128 0x2
 20077 454e 91       		.byte	0x91
 20078 454f 70       		.sleb128 -16
 20079 4550 00       		.byte	0
 20080 4551 09       		.uleb128 0x9
 20081 4552 04       		.byte	0x4
 20082 4553 33160000 		.4byte	0x1633
 20083 4557 22       		.uleb128 0x22
 20084 4558 26320000 		.4byte	.LASF635
 20085 455c 01       		.byte	0x1
 20086 455d 520E     		.2byte	0xe52
 20087 455f AA0A0000 		.4byte	0xaaa
 20088 4563 D03B0000 		.4byte	.LFB447
 20089 4567 36000000 		.4byte	.LFE447-.LFB447
 20090 456b 01       		.uleb128 0x1
 20091 456c 9C       		.byte	0x9c
 20092 456d 90450000 		.4byte	0x4590
 20093 4571 23       		.uleb128 0x23
 20094 4572 CC000000 		.4byte	.LASF450
 20095 4576 01       		.byte	0x1
 20096 4577 520E     		.2byte	0xe52
 20097 4579 3E030000 		.4byte	0x33e
 20098 457d 02       		.uleb128 0x2
 20099 457e 91       		.byte	0x91
 20100 457f 74       		.sleb128 -12
 20101 4580 23       		.uleb128 0x23
 20102 4581 13130000 		.4byte	.LASF446
ARM GAS  /tmp/cc1ELVNa.s 			page 357


 20103 4585 01       		.byte	0x1
 20104 4586 520E     		.2byte	0xe52
 20105 4588 90450000 		.4byte	0x4590
 20106 458c 02       		.uleb128 0x2
 20107 458d 91       		.byte	0x91
 20108 458e 70       		.sleb128 -16
 20109 458f 00       		.byte	0
 20110 4590 09       		.uleb128 0x9
 20111 4591 04       		.byte	0x4
 20112 4592 55160000 		.4byte	0x1655
 20113 4596 22       		.uleb128 0x22
 20114 4597 51160000 		.4byte	.LASF636
 20115 459b 01       		.byte	0x1
 20116 459c 630E     		.2byte	0xe63
 20117 459e AA0A0000 		.4byte	0xaaa
 20118 45a2 103C0000 		.4byte	.LFB448
 20119 45a6 36000000 		.4byte	.LFE448-.LFB448
 20120 45aa 01       		.uleb128 0x1
 20121 45ab 9C       		.byte	0x9c
 20122 45ac CF450000 		.4byte	0x45cf
 20123 45b0 23       		.uleb128 0x23
 20124 45b1 CC000000 		.4byte	.LASF450
 20125 45b5 01       		.byte	0x1
 20126 45b6 630E     		.2byte	0xe63
 20127 45b8 3E030000 		.4byte	0x33e
 20128 45bc 02       		.uleb128 0x2
 20129 45bd 91       		.byte	0x91
 20130 45be 74       		.sleb128 -12
 20131 45bf 23       		.uleb128 0x23
 20132 45c0 13130000 		.4byte	.LASF446
 20133 45c4 01       		.byte	0x1
 20134 45c5 630E     		.2byte	0xe63
 20135 45c7 CF450000 		.4byte	0x45cf
 20136 45cb 02       		.uleb128 0x2
 20137 45cc 91       		.byte	0x91
 20138 45cd 70       		.sleb128 -16
 20139 45ce 00       		.byte	0
 20140 45cf 09       		.uleb128 0x9
 20141 45d0 04       		.byte	0x4
 20142 45d1 77160000 		.4byte	0x1677
 20143 45d5 22       		.uleb128 0x22
 20144 45d6 72200000 		.4byte	.LASF637
 20145 45da 01       		.byte	0x1
 20146 45db 740E     		.2byte	0xe74
 20147 45dd AA0A0000 		.4byte	0xaaa
 20148 45e1 503C0000 		.4byte	.LFB449
 20149 45e5 36000000 		.4byte	.LFE449-.LFB449
 20150 45e9 01       		.uleb128 0x1
 20151 45ea 9C       		.byte	0x9c
 20152 45eb 0E460000 		.4byte	0x460e
 20153 45ef 23       		.uleb128 0x23
 20154 45f0 CC000000 		.4byte	.LASF450
 20155 45f4 01       		.byte	0x1
 20156 45f5 740E     		.2byte	0xe74
 20157 45f7 3E030000 		.4byte	0x33e
 20158 45fb 02       		.uleb128 0x2
 20159 45fc 91       		.byte	0x91
ARM GAS  /tmp/cc1ELVNa.s 			page 358


 20160 45fd 74       		.sleb128 -12
 20161 45fe 23       		.uleb128 0x23
 20162 45ff 13130000 		.4byte	.LASF446
 20163 4603 01       		.byte	0x1
 20164 4604 740E     		.2byte	0xe74
 20165 4606 0E460000 		.4byte	0x460e
 20166 460a 02       		.uleb128 0x2
 20167 460b 91       		.byte	0x91
 20168 460c 70       		.sleb128 -16
 20169 460d 00       		.byte	0
 20170 460e 09       		.uleb128 0x9
 20171 460f 04       		.byte	0x4
 20172 4610 99160000 		.4byte	0x1699
 20173 4614 22       		.uleb128 0x22
 20174 4615 D5200000 		.4byte	.LASF638
 20175 4619 01       		.byte	0x1
 20176 461a 850E     		.2byte	0xe85
 20177 461c AA0A0000 		.4byte	0xaaa
 20178 4620 903C0000 		.4byte	.LFB450
 20179 4624 36000000 		.4byte	.LFE450-.LFB450
 20180 4628 01       		.uleb128 0x1
 20181 4629 9C       		.byte	0x9c
 20182 462a 4D460000 		.4byte	0x464d
 20183 462e 23       		.uleb128 0x23
 20184 462f CC000000 		.4byte	.LASF450
 20185 4633 01       		.byte	0x1
 20186 4634 850E     		.2byte	0xe85
 20187 4636 3E030000 		.4byte	0x33e
 20188 463a 02       		.uleb128 0x2
 20189 463b 91       		.byte	0x91
 20190 463c 74       		.sleb128 -12
 20191 463d 23       		.uleb128 0x23
 20192 463e 13130000 		.4byte	.LASF446
 20193 4642 01       		.byte	0x1
 20194 4643 850E     		.2byte	0xe85
 20195 4645 4D460000 		.4byte	0x464d
 20196 4649 02       		.uleb128 0x2
 20197 464a 91       		.byte	0x91
 20198 464b 70       		.sleb128 -16
 20199 464c 00       		.byte	0
 20200 464d 09       		.uleb128 0x9
 20201 464e 04       		.byte	0x4
 20202 464f BC160000 		.4byte	0x16bc
 20203 4653 22       		.uleb128 0x22
 20204 4654 93340000 		.4byte	.LASF639
 20205 4658 01       		.byte	0x1
 20206 4659 960E     		.2byte	0xe96
 20207 465b AA0A0000 		.4byte	0xaaa
 20208 465f D03C0000 		.4byte	.LFB451
 20209 4663 74000000 		.4byte	.LFE451-.LFB451
 20210 4667 01       		.uleb128 0x1
 20211 4668 9C       		.byte	0x9c
 20212 4669 9B460000 		.4byte	0x469b
 20213 466d 23       		.uleb128 0x23
 20214 466e CC000000 		.4byte	.LASF450
 20215 4672 01       		.byte	0x1
 20216 4673 960E     		.2byte	0xe96
ARM GAS  /tmp/cc1ELVNa.s 			page 359


 20217 4675 3E030000 		.4byte	0x33e
 20218 4679 02       		.uleb128 0x2
 20219 467a 91       		.byte	0x91
 20220 467b 6C       		.sleb128 -20
 20221 467c 23       		.uleb128 0x23
 20222 467d 2B290000 		.4byte	.LASF455
 20223 4681 01       		.byte	0x1
 20224 4682 960E     		.2byte	0xe96
 20225 4684 2A0A0000 		.4byte	0xa2a
 20226 4688 02       		.uleb128 0x2
 20227 4689 91       		.byte	0x91
 20228 468a 6B       		.sleb128 -21
 20229 468b 24       		.uleb128 0x24
 20230 468c 13130000 		.4byte	.LASF446
 20231 4690 01       		.byte	0x1
 20232 4691 980E     		.2byte	0xe98
 20233 4693 2A0A0000 		.4byte	0xa2a
 20234 4697 02       		.uleb128 0x2
 20235 4698 91       		.byte	0x91
 20236 4699 77       		.sleb128 -9
 20237 469a 00       		.byte	0
 20238 469b 22       		.uleb128 0x22
 20239 469c FA100000 		.4byte	.LASF640
 20240 46a0 01       		.byte	0x1
 20241 46a1 B00E     		.2byte	0xeb0
 20242 46a3 AA0A0000 		.4byte	0xaaa
 20243 46a7 503D0000 		.4byte	.LFB452
 20244 46ab 3E000000 		.4byte	.LFE452-.LFB452
 20245 46af 01       		.uleb128 0x1
 20246 46b0 9C       		.byte	0x9c
 20247 46b1 D4460000 		.4byte	0x46d4
 20248 46b5 23       		.uleb128 0x23
 20249 46b6 CC000000 		.4byte	.LASF450
 20250 46ba 01       		.byte	0x1
 20251 46bb B00E     		.2byte	0xeb0
 20252 46bd 3E030000 		.4byte	0x33e
 20253 46c1 02       		.uleb128 0x2
 20254 46c2 91       		.byte	0x91
 20255 46c3 74       		.sleb128 -12
 20256 46c4 23       		.uleb128 0x23
 20257 46c5 13130000 		.4byte	.LASF446
 20258 46c9 01       		.byte	0x1
 20259 46ca B00E     		.2byte	0xeb0
 20260 46cc 50170000 		.4byte	0x1750
 20261 46d0 02       		.uleb128 0x2
 20262 46d1 91       		.byte	0x91
 20263 46d2 70       		.sleb128 -16
 20264 46d3 00       		.byte	0
 20265 46d4 22       		.uleb128 0x22
 20266 46d5 7F330000 		.4byte	.LASF641
 20267 46d9 01       		.byte	0x1
 20268 46da C20E     		.2byte	0xec2
 20269 46dc AA0A0000 		.4byte	0xaaa
 20270 46e0 903D0000 		.4byte	.LFB453
 20271 46e4 74000000 		.4byte	.LFE453-.LFB453
 20272 46e8 01       		.uleb128 0x1
 20273 46e9 9C       		.byte	0x9c
ARM GAS  /tmp/cc1ELVNa.s 			page 360


 20274 46ea 1C470000 		.4byte	0x471c
 20275 46ee 23       		.uleb128 0x23
 20276 46ef CC000000 		.4byte	.LASF450
 20277 46f3 01       		.byte	0x1
 20278 46f4 C20E     		.2byte	0xec2
 20279 46f6 3E030000 		.4byte	0x33e
 20280 46fa 02       		.uleb128 0x2
 20281 46fb 91       		.byte	0x91
 20282 46fc 6C       		.sleb128 -20
 20283 46fd 23       		.uleb128 0x23
 20284 46fe 2B290000 		.4byte	.LASF455
 20285 4702 01       		.byte	0x1
 20286 4703 C20E     		.2byte	0xec2
 20287 4705 2A0A0000 		.4byte	0xa2a
 20288 4709 02       		.uleb128 0x2
 20289 470a 91       		.byte	0x91
 20290 470b 6B       		.sleb128 -21
 20291 470c 24       		.uleb128 0x24
 20292 470d 13130000 		.4byte	.LASF446
 20293 4711 01       		.byte	0x1
 20294 4712 C40E     		.2byte	0xec4
 20295 4714 2A0A0000 		.4byte	0xa2a
 20296 4718 02       		.uleb128 0x2
 20297 4719 91       		.byte	0x91
 20298 471a 77       		.sleb128 -9
 20299 471b 00       		.byte	0
 20300 471c 22       		.uleb128 0x22
 20301 471d 87370000 		.4byte	.LASF642
 20302 4721 01       		.byte	0x1
 20303 4722 DC0E     		.2byte	0xedc
 20304 4724 AA0A0000 		.4byte	0xaaa
 20305 4728 103E0000 		.4byte	.LFB454
 20306 472c 3E000000 		.4byte	.LFE454-.LFB454
 20307 4730 01       		.uleb128 0x1
 20308 4731 9C       		.byte	0x9c
 20309 4732 55470000 		.4byte	0x4755
 20310 4736 23       		.uleb128 0x23
 20311 4737 CC000000 		.4byte	.LASF450
 20312 473b 01       		.byte	0x1
 20313 473c DC0E     		.2byte	0xedc
 20314 473e 3E030000 		.4byte	0x33e
 20315 4742 02       		.uleb128 0x2
 20316 4743 91       		.byte	0x91
 20317 4744 74       		.sleb128 -12
 20318 4745 23       		.uleb128 0x23
 20319 4746 13130000 		.4byte	.LASF446
 20320 474a 01       		.byte	0x1
 20321 474b DC0E     		.2byte	0xedc
 20322 474d 50170000 		.4byte	0x1750
 20323 4751 02       		.uleb128 0x2
 20324 4752 91       		.byte	0x91
 20325 4753 70       		.sleb128 -16
 20326 4754 00       		.byte	0
 20327 4755 22       		.uleb128 0x22
 20328 4756 7B350000 		.4byte	.LASF643
 20329 475a 01       		.byte	0x1
 20330 475b EE0E     		.2byte	0xeee
ARM GAS  /tmp/cc1ELVNa.s 			page 361


 20331 475d AA0A0000 		.4byte	0xaaa
 20332 4761 503E0000 		.4byte	.LFB455
 20333 4765 60000000 		.4byte	.LFE455-.LFB455
 20334 4769 01       		.uleb128 0x1
 20335 476a 9C       		.byte	0x9c
 20336 476b 9D470000 		.4byte	0x479d
 20337 476f 23       		.uleb128 0x23
 20338 4770 CC000000 		.4byte	.LASF450
 20339 4774 01       		.byte	0x1
 20340 4775 EE0E     		.2byte	0xeee
 20341 4777 3E030000 		.4byte	0x33e
 20342 477b 02       		.uleb128 0x2
 20343 477c 91       		.byte	0x91
 20344 477d 6C       		.sleb128 -20
 20345 477e 23       		.uleb128 0x23
 20346 477f 2B290000 		.4byte	.LASF455
 20347 4783 01       		.byte	0x1
 20348 4784 EE0E     		.2byte	0xeee
 20349 4786 2A0A0000 		.4byte	0xa2a
 20350 478a 02       		.uleb128 0x2
 20351 478b 91       		.byte	0x91
 20352 478c 6B       		.sleb128 -21
 20353 478d 24       		.uleb128 0x24
 20354 478e 13130000 		.4byte	.LASF446
 20355 4792 01       		.byte	0x1
 20356 4793 F00E     		.2byte	0xef0
 20357 4795 2A0A0000 		.4byte	0xa2a
 20358 4799 02       		.uleb128 0x2
 20359 479a 91       		.byte	0x91
 20360 479b 77       		.sleb128 -9
 20361 479c 00       		.byte	0
 20362 479d 22       		.uleb128 0x22
 20363 479e F4110000 		.4byte	.LASF644
 20364 47a2 01       		.byte	0x1
 20365 47a3 080F     		.2byte	0xf08
 20366 47a5 AA0A0000 		.4byte	0xaaa
 20367 47a9 B03E0000 		.4byte	.LFB456
 20368 47ad 38000000 		.4byte	.LFE456-.LFB456
 20369 47b1 01       		.uleb128 0x1
 20370 47b2 9C       		.byte	0x9c
 20371 47b3 D6470000 		.4byte	0x47d6
 20372 47b7 23       		.uleb128 0x23
 20373 47b8 CC000000 		.4byte	.LASF450
 20374 47bc 01       		.byte	0x1
 20375 47bd 080F     		.2byte	0xf08
 20376 47bf 3E030000 		.4byte	0x33e
 20377 47c3 02       		.uleb128 0x2
 20378 47c4 91       		.byte	0x91
 20379 47c5 74       		.sleb128 -12
 20380 47c6 23       		.uleb128 0x23
 20381 47c7 13130000 		.4byte	.LASF446
 20382 47cb 01       		.byte	0x1
 20383 47cc 080F     		.2byte	0xf08
 20384 47ce 50170000 		.4byte	0x1750
 20385 47d2 02       		.uleb128 0x2
 20386 47d3 91       		.byte	0x91
 20387 47d4 70       		.sleb128 -16
ARM GAS  /tmp/cc1ELVNa.s 			page 362


 20388 47d5 00       		.byte	0
 20389 47d6 22       		.uleb128 0x22
 20390 47d7 6E270000 		.4byte	.LASF645
 20391 47db 01       		.byte	0x1
 20392 47dc 1A0F     		.2byte	0xf1a
 20393 47de AA0A0000 		.4byte	0xaaa
 20394 47e2 F03E0000 		.4byte	.LFB457
 20395 47e6 60000000 		.4byte	.LFE457-.LFB457
 20396 47ea 01       		.uleb128 0x1
 20397 47eb 9C       		.byte	0x9c
 20398 47ec 1E480000 		.4byte	0x481e
 20399 47f0 23       		.uleb128 0x23
 20400 47f1 CC000000 		.4byte	.LASF450
 20401 47f5 01       		.byte	0x1
 20402 47f6 1A0F     		.2byte	0xf1a
 20403 47f8 3E030000 		.4byte	0x33e
 20404 47fc 02       		.uleb128 0x2
 20405 47fd 91       		.byte	0x91
 20406 47fe 6C       		.sleb128 -20
 20407 47ff 23       		.uleb128 0x23
 20408 4800 2B290000 		.4byte	.LASF455
 20409 4804 01       		.byte	0x1
 20410 4805 1A0F     		.2byte	0xf1a
 20411 4807 2A0A0000 		.4byte	0xa2a
 20412 480b 02       		.uleb128 0x2
 20413 480c 91       		.byte	0x91
 20414 480d 6B       		.sleb128 -21
 20415 480e 24       		.uleb128 0x24
 20416 480f 13130000 		.4byte	.LASF446
 20417 4813 01       		.byte	0x1
 20418 4814 1C0F     		.2byte	0xf1c
 20419 4816 2A0A0000 		.4byte	0xa2a
 20420 481a 02       		.uleb128 0x2
 20421 481b 91       		.byte	0x91
 20422 481c 77       		.sleb128 -9
 20423 481d 00       		.byte	0
 20424 481e 22       		.uleb128 0x22
 20425 481f 43250000 		.4byte	.LASF646
 20426 4823 01       		.byte	0x1
 20427 4824 340F     		.2byte	0xf34
 20428 4826 AA0A0000 		.4byte	0xaaa
 20429 482a 503F0000 		.4byte	.LFB458
 20430 482e 38000000 		.4byte	.LFE458-.LFB458
 20431 4832 01       		.uleb128 0x1
 20432 4833 9C       		.byte	0x9c
 20433 4834 57480000 		.4byte	0x4857
 20434 4838 23       		.uleb128 0x23
 20435 4839 CC000000 		.4byte	.LASF450
 20436 483d 01       		.byte	0x1
 20437 483e 340F     		.2byte	0xf34
 20438 4840 3E030000 		.4byte	0x33e
 20439 4844 02       		.uleb128 0x2
 20440 4845 91       		.byte	0x91
 20441 4846 74       		.sleb128 -12
 20442 4847 23       		.uleb128 0x23
 20443 4848 13130000 		.4byte	.LASF446
 20444 484c 01       		.byte	0x1
ARM GAS  /tmp/cc1ELVNa.s 			page 363


 20445 484d 340F     		.2byte	0xf34
 20446 484f 50170000 		.4byte	0x1750
 20447 4853 02       		.uleb128 0x2
 20448 4854 91       		.byte	0x91
 20449 4855 70       		.sleb128 -16
 20450 4856 00       		.byte	0
 20451 4857 22       		.uleb128 0x22
 20452 4858 55220000 		.4byte	.LASF647
 20453 485c 01       		.byte	0x1
 20454 485d 460F     		.2byte	0xf46
 20455 485f AA0A0000 		.4byte	0xaaa
 20456 4863 903F0000 		.4byte	.LFB459
 20457 4867 86000000 		.4byte	.LFE459-.LFB459
 20458 486b 01       		.uleb128 0x1
 20459 486c 9C       		.byte	0x9c
 20460 486d C6480000 		.4byte	0x48c6
 20461 4871 23       		.uleb128 0x23
 20462 4872 CC000000 		.4byte	.LASF450
 20463 4876 01       		.byte	0x1
 20464 4877 460F     		.2byte	0xf46
 20465 4879 3E030000 		.4byte	0x33e
 20466 487d 02       		.uleb128 0x2
 20467 487e 91       		.byte	0x91
 20468 487f 6C       		.sleb128 -20
 20469 4880 23       		.uleb128 0x23
 20470 4881 501F0000 		.4byte	.LASF460
 20471 4885 01       		.byte	0x1
 20472 4886 460F     		.2byte	0xf46
 20473 4888 50170000 		.4byte	0x1750
 20474 488c 02       		.uleb128 0x2
 20475 488d 91       		.byte	0x91
 20476 488e 68       		.sleb128 -24
 20477 488f 25       		.uleb128 0x25
 20478 4890 6900     		.ascii	"i\000"
 20479 4892 01       		.byte	0x1
 20480 4893 480F     		.2byte	0xf48
 20481 4895 2A0A0000 		.4byte	0xa2a
 20482 4899 02       		.uleb128 0x2
 20483 489a 91       		.byte	0x91
 20484 489b 77       		.sleb128 -9
 20485 489c 25       		.uleb128 0x25
 20486 489d 6A00     		.ascii	"j\000"
 20487 489f 01       		.byte	0x1
 20488 48a0 480F     		.2byte	0xf48
 20489 48a2 2A0A0000 		.4byte	0xa2a
 20490 48a6 02       		.uleb128 0x2
 20491 48a7 91       		.byte	0x91
 20492 48a8 76       		.sleb128 -10
 20493 48a9 25       		.uleb128 0x25
 20494 48aa 6B00     		.ascii	"k\000"
 20495 48ac 01       		.byte	0x1
 20496 48ad 480F     		.2byte	0xf48
 20497 48af 2A0A0000 		.4byte	0xa2a
 20498 48b3 02       		.uleb128 0x2
 20499 48b4 91       		.byte	0x91
 20500 48b5 75       		.sleb128 -11
 20501 48b6 24       		.uleb128 0x24
ARM GAS  /tmp/cc1ELVNa.s 			page 364


 20502 48b7 27220000 		.4byte	.LASF648
 20503 48bb 01       		.byte	0x1
 20504 48bc 490F     		.2byte	0xf49
 20505 48be 2A0A0000 		.4byte	0xa2a
 20506 48c2 02       		.uleb128 0x2
 20507 48c3 91       		.byte	0x91
 20508 48c4 74       		.sleb128 -12
 20509 48c5 00       		.byte	0
 20510 48c6 1F       		.uleb128 0x1f
 20511 48c7 6B1F0000 		.4byte	.LASF649
 20512 48cb 01       		.byte	0x1
 20513 48cc 3B       		.byte	0x3b
 20514 48cd 0D0A0000 		.4byte	0xa0d
 20515 48d1 05       		.uleb128 0x5
 20516 48d2 03       		.byte	0x3
 20517 48d3 00000000 		.4byte	lsm303ad_accel_cfg
 20518 48d7 26       		.uleb128 0x26
 20519 48d8 9D300000 		.4byte	.LASF650
 20520 48dc 13       		.byte	0x13
 20521 48dd FA06     		.2byte	0x6fa
 20522 48df E3480000 		.4byte	0x48e3
 20523 48e3 0F       		.uleb128 0xf
 20524 48e4 C3000000 		.4byte	0xc3
 20525 48e8 27       		.uleb128 0x27
 20526 48e9 636800   		.ascii	"ch\000"
 20527 48ec 07       		.byte	0x7
 20528 48ed 0902     		.2byte	0x209
 20529 48ef 0D040000 		.4byte	0x40d
 20530 48f3 26       		.uleb128 0x26
 20531 48f4 F8240000 		.4byte	.LASF651
 20532 48f8 11       		.byte	0x11
 20533 48f9 FA01     		.2byte	0x1fa
 20534 48fb 10090000 		.4byte	0x910
 20535 48ff 17       		.uleb128 0x17
 20536 4900 94000000 		.4byte	0x94
 20537 4904 15490000 		.4byte	0x4915
 20538 4908 18       		.uleb128 0x18
 20539 4909 74040000 		.4byte	0x474
 20540 490d 02       		.byte	0x2
 20541 490e 18       		.uleb128 0x18
 20542 490f 74040000 		.4byte	0x474
 20543 4913 03       		.byte	0x3
 20544 4914 00       		.byte	0
 20545 4915 28       		.uleb128 0x28
 20546 4916 881A0000 		.4byte	.LASF652
 20547 491a 01       		.byte	0x1
 20548 491b FE       		.byte	0xfe
 20549 491c 26490000 		.4byte	0x4926
 20550 4920 05       		.uleb128 0x5
 20551 4921 03       		.byte	0x3
 20552 4922 00000000 		.4byte	LSM303AGR_ACC_Sensitivity_List
 20553 4926 16       		.uleb128 0x16
 20554 4927 FF480000 		.4byte	0x48ff
 20555 492b 00       		.byte	0
 20556              		.section	.debug_abbrev,"",%progbits
 20557              	.Ldebug_abbrev0:
 20558 0000 01       		.uleb128 0x1
ARM GAS  /tmp/cc1ELVNa.s 			page 365


 20559 0001 11       		.uleb128 0x11
 20560 0002 01       		.byte	0x1
 20561 0003 25       		.uleb128 0x25
 20562 0004 0E       		.uleb128 0xe
 20563 0005 13       		.uleb128 0x13
 20564 0006 0B       		.uleb128 0xb
 20565 0007 03       		.uleb128 0x3
 20566 0008 0E       		.uleb128 0xe
 20567 0009 1B       		.uleb128 0x1b
 20568 000a 0E       		.uleb128 0xe
 20569 000b 11       		.uleb128 0x11
 20570 000c 01       		.uleb128 0x1
 20571 000d 12       		.uleb128 0x12
 20572 000e 06       		.uleb128 0x6
 20573 000f 10       		.uleb128 0x10
 20574 0010 17       		.uleb128 0x17
 20575 0011 00       		.byte	0
 20576 0012 00       		.byte	0
 20577 0013 02       		.uleb128 0x2
 20578 0014 24       		.uleb128 0x24
 20579 0015 00       		.byte	0
 20580 0016 0B       		.uleb128 0xb
 20581 0017 0B       		.uleb128 0xb
 20582 0018 3E       		.uleb128 0x3e
 20583 0019 0B       		.uleb128 0xb
 20584 001a 03       		.uleb128 0x3
 20585 001b 08       		.uleb128 0x8
 20586 001c 00       		.byte	0
 20587 001d 00       		.byte	0
 20588 001e 03       		.uleb128 0x3
 20589 001f 16       		.uleb128 0x16
 20590 0020 00       		.byte	0
 20591 0021 03       		.uleb128 0x3
 20592 0022 0E       		.uleb128 0xe
 20593 0023 3A       		.uleb128 0x3a
 20594 0024 0B       		.uleb128 0xb
 20595 0025 3B       		.uleb128 0x3b
 20596 0026 0B       		.uleb128 0xb
 20597 0027 49       		.uleb128 0x49
 20598 0028 13       		.uleb128 0x13
 20599 0029 00       		.byte	0
 20600 002a 00       		.byte	0
 20601 002b 04       		.uleb128 0x4
 20602 002c 24       		.uleb128 0x24
 20603 002d 00       		.byte	0
 20604 002e 0B       		.uleb128 0xb
 20605 002f 0B       		.uleb128 0xb
 20606 0030 3E       		.uleb128 0x3e
 20607 0031 0B       		.uleb128 0xb
 20608 0032 03       		.uleb128 0x3
 20609 0033 0E       		.uleb128 0xe
 20610 0034 00       		.byte	0
 20611 0035 00       		.byte	0
 20612 0036 05       		.uleb128 0x5
 20613 0037 13       		.uleb128 0x13
 20614 0038 01       		.byte	0x1
 20615 0039 03       		.uleb128 0x3
ARM GAS  /tmp/cc1ELVNa.s 			page 366


 20616 003a 0E       		.uleb128 0xe
 20617 003b 0B       		.uleb128 0xb
 20618 003c 0B       		.uleb128 0xb
 20619 003d 3A       		.uleb128 0x3a
 20620 003e 0B       		.uleb128 0xb
 20621 003f 3B       		.uleb128 0x3b
 20622 0040 0B       		.uleb128 0xb
 20623 0041 01       		.uleb128 0x1
 20624 0042 13       		.uleb128 0x13
 20625 0043 00       		.byte	0
 20626 0044 00       		.byte	0
 20627 0045 06       		.uleb128 0x6
 20628 0046 0D       		.uleb128 0xd
 20629 0047 00       		.byte	0
 20630 0048 03       		.uleb128 0x3
 20631 0049 0E       		.uleb128 0xe
 20632 004a 3A       		.uleb128 0x3a
 20633 004b 0B       		.uleb128 0xb
 20634 004c 3B       		.uleb128 0x3b
 20635 004d 0B       		.uleb128 0xb
 20636 004e 49       		.uleb128 0x49
 20637 004f 13       		.uleb128 0x13
 20638 0050 38       		.uleb128 0x38
 20639 0051 0B       		.uleb128 0xb
 20640 0052 00       		.byte	0
 20641 0053 00       		.byte	0
 20642 0054 07       		.uleb128 0x7
 20643 0055 0D       		.uleb128 0xd
 20644 0056 00       		.byte	0
 20645 0057 03       		.uleb128 0x3
 20646 0058 08       		.uleb128 0x8
 20647 0059 3A       		.uleb128 0x3a
 20648 005a 0B       		.uleb128 0xb
 20649 005b 3B       		.uleb128 0x3b
 20650 005c 05       		.uleb128 0x5
 20651 005d 49       		.uleb128 0x49
 20652 005e 13       		.uleb128 0x13
 20653 005f 38       		.uleb128 0x38
 20654 0060 0B       		.uleb128 0xb
 20655 0061 00       		.byte	0
 20656 0062 00       		.byte	0
 20657 0063 08       		.uleb128 0x8
 20658 0064 0D       		.uleb128 0xd
 20659 0065 00       		.byte	0
 20660 0066 03       		.uleb128 0x3
 20661 0067 0E       		.uleb128 0xe
 20662 0068 3A       		.uleb128 0x3a
 20663 0069 0B       		.uleb128 0xb
 20664 006a 3B       		.uleb128 0x3b
 20665 006b 05       		.uleb128 0x5
 20666 006c 49       		.uleb128 0x49
 20667 006d 13       		.uleb128 0x13
 20668 006e 38       		.uleb128 0x38
 20669 006f 0B       		.uleb128 0xb
 20670 0070 00       		.byte	0
 20671 0071 00       		.byte	0
 20672 0072 09       		.uleb128 0x9
ARM GAS  /tmp/cc1ELVNa.s 			page 367


 20673 0073 0F       		.uleb128 0xf
 20674 0074 00       		.byte	0
 20675 0075 0B       		.uleb128 0xb
 20676 0076 0B       		.uleb128 0xb
 20677 0077 49       		.uleb128 0x49
 20678 0078 13       		.uleb128 0x13
 20679 0079 00       		.byte	0
 20680 007a 00       		.byte	0
 20681 007b 0A       		.uleb128 0xa
 20682 007c 13       		.uleb128 0x13
 20683 007d 01       		.byte	0x1
 20684 007e 03       		.uleb128 0x3
 20685 007f 0E       		.uleb128 0xe
 20686 0080 0B       		.uleb128 0xb
 20687 0081 0B       		.uleb128 0xb
 20688 0082 3A       		.uleb128 0x3a
 20689 0083 0B       		.uleb128 0xb
 20690 0084 3B       		.uleb128 0x3b
 20691 0085 05       		.uleb128 0x5
 20692 0086 01       		.uleb128 0x1
 20693 0087 13       		.uleb128 0x13
 20694 0088 00       		.byte	0
 20695 0089 00       		.byte	0
 20696 008a 0B       		.uleb128 0xb
 20697 008b 15       		.uleb128 0x15
 20698 008c 01       		.byte	0x1
 20699 008d 27       		.uleb128 0x27
 20700 008e 19       		.uleb128 0x19
 20701 008f 01       		.uleb128 0x1
 20702 0090 13       		.uleb128 0x13
 20703 0091 00       		.byte	0
 20704 0092 00       		.byte	0
 20705 0093 0C       		.uleb128 0xc
 20706 0094 05       		.uleb128 0x5
 20707 0095 00       		.byte	0
 20708 0096 49       		.uleb128 0x49
 20709 0097 13       		.uleb128 0x13
 20710 0098 00       		.byte	0
 20711 0099 00       		.byte	0
 20712 009a 0D       		.uleb128 0xd
 20713 009b 0F       		.uleb128 0xf
 20714 009c 00       		.byte	0
 20715 009d 0B       		.uleb128 0xb
 20716 009e 0B       		.uleb128 0xb
 20717 009f 00       		.byte	0
 20718 00a0 00       		.byte	0
 20719 00a1 0E       		.uleb128 0xe
 20720 00a2 13       		.uleb128 0x13
 20721 00a3 01       		.byte	0x1
 20722 00a4 03       		.uleb128 0x3
 20723 00a5 0E       		.uleb128 0xe
 20724 00a6 0B       		.uleb128 0xb
 20725 00a7 05       		.uleb128 0x5
 20726 00a8 3A       		.uleb128 0x3a
 20727 00a9 0B       		.uleb128 0xb
 20728 00aa 3B       		.uleb128 0x3b
 20729 00ab 05       		.uleb128 0x5
ARM GAS  /tmp/cc1ELVNa.s 			page 368


 20730 00ac 01       		.uleb128 0x1
 20731 00ad 13       		.uleb128 0x13
 20732 00ae 00       		.byte	0
 20733 00af 00       		.byte	0
 20734 00b0 0F       		.uleb128 0xf
 20735 00b1 35       		.uleb128 0x35
 20736 00b2 00       		.byte	0
 20737 00b3 49       		.uleb128 0x49
 20738 00b4 13       		.uleb128 0x13
 20739 00b5 00       		.byte	0
 20740 00b6 00       		.byte	0
 20741 00b7 10       		.uleb128 0x10
 20742 00b8 13       		.uleb128 0x13
 20743 00b9 01       		.byte	0x1
 20744 00ba 0B       		.uleb128 0xb
 20745 00bb 0B       		.uleb128 0xb
 20746 00bc 3A       		.uleb128 0x3a
 20747 00bd 0B       		.uleb128 0xb
 20748 00be 3B       		.uleb128 0x3b
 20749 00bf 05       		.uleb128 0x5
 20750 00c0 01       		.uleb128 0x1
 20751 00c1 13       		.uleb128 0x13
 20752 00c2 00       		.byte	0
 20753 00c3 00       		.byte	0
 20754 00c4 11       		.uleb128 0x11
 20755 00c5 16       		.uleb128 0x16
 20756 00c6 00       		.byte	0
 20757 00c7 03       		.uleb128 0x3
 20758 00c8 0E       		.uleb128 0xe
 20759 00c9 3A       		.uleb128 0x3a
 20760 00ca 0B       		.uleb128 0xb
 20761 00cb 3B       		.uleb128 0x3b
 20762 00cc 05       		.uleb128 0x5
 20763 00cd 49       		.uleb128 0x49
 20764 00ce 13       		.uleb128 0x13
 20765 00cf 00       		.byte	0
 20766 00d0 00       		.byte	0
 20767 00d1 12       		.uleb128 0x12
 20768 00d2 0D       		.uleb128 0xd
 20769 00d3 00       		.byte	0
 20770 00d4 03       		.uleb128 0x3
 20771 00d5 08       		.uleb128 0x8
 20772 00d6 3A       		.uleb128 0x3a
 20773 00d7 0B       		.uleb128 0xb
 20774 00d8 3B       		.uleb128 0x3b
 20775 00d9 0B       		.uleb128 0xb
 20776 00da 49       		.uleb128 0x49
 20777 00db 13       		.uleb128 0x13
 20778 00dc 38       		.uleb128 0x38
 20779 00dd 0B       		.uleb128 0xb
 20780 00de 00       		.byte	0
 20781 00df 00       		.byte	0
 20782 00e0 13       		.uleb128 0x13
 20783 00e1 13       		.uleb128 0x13
 20784 00e2 01       		.byte	0x1
 20785 00e3 0B       		.uleb128 0xb
 20786 00e4 0B       		.uleb128 0xb
ARM GAS  /tmp/cc1ELVNa.s 			page 369


 20787 00e5 3A       		.uleb128 0x3a
 20788 00e6 0B       		.uleb128 0xb
 20789 00e7 3B       		.uleb128 0x3b
 20790 00e8 0B       		.uleb128 0xb
 20791 00e9 01       		.uleb128 0x1
 20792 00ea 13       		.uleb128 0x13
 20793 00eb 00       		.byte	0
 20794 00ec 00       		.byte	0
 20795 00ed 14       		.uleb128 0x14
 20796 00ee 17       		.uleb128 0x17
 20797 00ef 01       		.byte	0x1
 20798 00f0 0B       		.uleb128 0xb
 20799 00f1 0B       		.uleb128 0xb
 20800 00f2 3A       		.uleb128 0x3a
 20801 00f3 0B       		.uleb128 0xb
 20802 00f4 3B       		.uleb128 0x3b
 20803 00f5 0B       		.uleb128 0xb
 20804 00f6 01       		.uleb128 0x1
 20805 00f7 13       		.uleb128 0x13
 20806 00f8 00       		.byte	0
 20807 00f9 00       		.byte	0
 20808 00fa 15       		.uleb128 0x15
 20809 00fb 0D       		.uleb128 0xd
 20810 00fc 00       		.byte	0
 20811 00fd 03       		.uleb128 0x3
 20812 00fe 0E       		.uleb128 0xe
 20813 00ff 3A       		.uleb128 0x3a
 20814 0100 0B       		.uleb128 0xb
 20815 0101 3B       		.uleb128 0x3b
 20816 0102 05       		.uleb128 0x5
 20817 0103 49       		.uleb128 0x49
 20818 0104 13       		.uleb128 0x13
 20819 0105 00       		.byte	0
 20820 0106 00       		.byte	0
 20821 0107 16       		.uleb128 0x16
 20822 0108 26       		.uleb128 0x26
 20823 0109 00       		.byte	0
 20824 010a 49       		.uleb128 0x49
 20825 010b 13       		.uleb128 0x13
 20826 010c 00       		.byte	0
 20827 010d 00       		.byte	0
 20828 010e 17       		.uleb128 0x17
 20829 010f 01       		.uleb128 0x1
 20830 0110 01       		.byte	0x1
 20831 0111 49       		.uleb128 0x49
 20832 0112 13       		.uleb128 0x13
 20833 0113 01       		.uleb128 0x1
 20834 0114 13       		.uleb128 0x13
 20835 0115 00       		.byte	0
 20836 0116 00       		.byte	0
 20837 0117 18       		.uleb128 0x18
 20838 0118 21       		.uleb128 0x21
 20839 0119 00       		.byte	0
 20840 011a 49       		.uleb128 0x49
 20841 011b 13       		.uleb128 0x13
 20842 011c 2F       		.uleb128 0x2f
 20843 011d 0B       		.uleb128 0xb
ARM GAS  /tmp/cc1ELVNa.s 			page 370


 20844 011e 00       		.byte	0
 20845 011f 00       		.byte	0
 20846 0120 19       		.uleb128 0x19
 20847 0121 0D       		.uleb128 0xd
 20848 0122 00       		.byte	0
 20849 0123 03       		.uleb128 0x3
 20850 0124 08       		.uleb128 0x8
 20851 0125 3A       		.uleb128 0x3a
 20852 0126 0B       		.uleb128 0xb
 20853 0127 3B       		.uleb128 0x3b
 20854 0128 0B       		.uleb128 0xb
 20855 0129 49       		.uleb128 0x49
 20856 012a 13       		.uleb128 0x13
 20857 012b 00       		.byte	0
 20858 012c 00       		.byte	0
 20859 012d 1A       		.uleb128 0x1a
 20860 012e 04       		.uleb128 0x4
 20861 012f 01       		.byte	0x1
 20862 0130 0B       		.uleb128 0xb
 20863 0131 0B       		.uleb128 0xb
 20864 0132 3A       		.uleb128 0x3a
 20865 0133 0B       		.uleb128 0xb
 20866 0134 3B       		.uleb128 0x3b
 20867 0135 0B       		.uleb128 0xb
 20868 0136 01       		.uleb128 0x1
 20869 0137 13       		.uleb128 0x13
 20870 0138 00       		.byte	0
 20871 0139 00       		.byte	0
 20872 013a 1B       		.uleb128 0x1b
 20873 013b 28       		.uleb128 0x28
 20874 013c 00       		.byte	0
 20875 013d 03       		.uleb128 0x3
 20876 013e 0E       		.uleb128 0xe
 20877 013f 1C       		.uleb128 0x1c
 20878 0140 0D       		.uleb128 0xd
 20879 0141 00       		.byte	0
 20880 0142 00       		.byte	0
 20881 0143 1C       		.uleb128 0x1c
 20882 0144 0D       		.uleb128 0xd
 20883 0145 00       		.byte	0
 20884 0146 03       		.uleb128 0x3
 20885 0147 0E       		.uleb128 0xe
 20886 0148 3A       		.uleb128 0x3a
 20887 0149 0B       		.uleb128 0xb
 20888 014a 3B       		.uleb128 0x3b
 20889 014b 0B       		.uleb128 0xb
 20890 014c 49       		.uleb128 0x49
 20891 014d 13       		.uleb128 0x13
 20892 014e 00       		.byte	0
 20893 014f 00       		.byte	0
 20894 0150 1D       		.uleb128 0x1d
 20895 0151 04       		.uleb128 0x4
 20896 0152 01       		.byte	0x1
 20897 0153 0B       		.uleb128 0xb
 20898 0154 0B       		.uleb128 0xb
 20899 0155 3A       		.uleb128 0x3a
 20900 0156 0B       		.uleb128 0xb
ARM GAS  /tmp/cc1ELVNa.s 			page 371


 20901 0157 3B       		.uleb128 0x3b
 20902 0158 05       		.uleb128 0x5
 20903 0159 01       		.uleb128 0x1
 20904 015a 13       		.uleb128 0x13
 20905 015b 00       		.byte	0
 20906 015c 00       		.byte	0
 20907 015d 1E       		.uleb128 0x1e
 20908 015e 2E       		.uleb128 0x2e
 20909 015f 01       		.byte	0x1
 20910 0160 3F       		.uleb128 0x3f
 20911 0161 19       		.uleb128 0x19
 20912 0162 03       		.uleb128 0x3
 20913 0163 0E       		.uleb128 0xe
 20914 0164 3A       		.uleb128 0x3a
 20915 0165 0B       		.uleb128 0xb
 20916 0166 3B       		.uleb128 0x3b
 20917 0167 0B       		.uleb128 0xb
 20918 0168 27       		.uleb128 0x27
 20919 0169 19       		.uleb128 0x19
 20920 016a 49       		.uleb128 0x49
 20921 016b 13       		.uleb128 0x13
 20922 016c 11       		.uleb128 0x11
 20923 016d 01       		.uleb128 0x1
 20924 016e 12       		.uleb128 0x12
 20925 016f 06       		.uleb128 0x6
 20926 0170 40       		.uleb128 0x40
 20927 0171 18       		.uleb128 0x18
 20928 0172 9642     		.uleb128 0x2116
 20929 0174 19       		.uleb128 0x19
 20930 0175 01       		.uleb128 0x1
 20931 0176 13       		.uleb128 0x13
 20932 0177 00       		.byte	0
 20933 0178 00       		.byte	0
 20934 0179 1F       		.uleb128 0x1f
 20935 017a 34       		.uleb128 0x34
 20936 017b 00       		.byte	0
 20937 017c 03       		.uleb128 0x3
 20938 017d 0E       		.uleb128 0xe
 20939 017e 3A       		.uleb128 0x3a
 20940 017f 0B       		.uleb128 0xb
 20941 0180 3B       		.uleb128 0x3b
 20942 0181 0B       		.uleb128 0xb
 20943 0182 49       		.uleb128 0x49
 20944 0183 13       		.uleb128 0x13
 20945 0184 02       		.uleb128 0x2
 20946 0185 18       		.uleb128 0x18
 20947 0186 00       		.byte	0
 20948 0187 00       		.byte	0
 20949 0188 20       		.uleb128 0x20
 20950 0189 05       		.uleb128 0x5
 20951 018a 00       		.byte	0
 20952 018b 03       		.uleb128 0x3
 20953 018c 0E       		.uleb128 0xe
 20954 018d 3A       		.uleb128 0x3a
 20955 018e 0B       		.uleb128 0xb
 20956 018f 3B       		.uleb128 0x3b
 20957 0190 0B       		.uleb128 0xb
ARM GAS  /tmp/cc1ELVNa.s 			page 372


 20958 0191 49       		.uleb128 0x49
 20959 0192 13       		.uleb128 0x13
 20960 0193 02       		.uleb128 0x2
 20961 0194 18       		.uleb128 0x18
 20962 0195 00       		.byte	0
 20963 0196 00       		.byte	0
 20964 0197 21       		.uleb128 0x21
 20965 0198 05       		.uleb128 0x5
 20966 0199 00       		.byte	0
 20967 019a 03       		.uleb128 0x3
 20968 019b 08       		.uleb128 0x8
 20969 019c 3A       		.uleb128 0x3a
 20970 019d 0B       		.uleb128 0xb
 20971 019e 3B       		.uleb128 0x3b
 20972 019f 0B       		.uleb128 0xb
 20973 01a0 49       		.uleb128 0x49
 20974 01a1 13       		.uleb128 0x13
 20975 01a2 02       		.uleb128 0x2
 20976 01a3 18       		.uleb128 0x18
 20977 01a4 00       		.byte	0
 20978 01a5 00       		.byte	0
 20979 01a6 22       		.uleb128 0x22
 20980 01a7 2E       		.uleb128 0x2e
 20981 01a8 01       		.byte	0x1
 20982 01a9 3F       		.uleb128 0x3f
 20983 01aa 19       		.uleb128 0x19
 20984 01ab 03       		.uleb128 0x3
 20985 01ac 0E       		.uleb128 0xe
 20986 01ad 3A       		.uleb128 0x3a
 20987 01ae 0B       		.uleb128 0xb
 20988 01af 3B       		.uleb128 0x3b
 20989 01b0 05       		.uleb128 0x5
 20990 01b1 27       		.uleb128 0x27
 20991 01b2 19       		.uleb128 0x19
 20992 01b3 49       		.uleb128 0x49
 20993 01b4 13       		.uleb128 0x13
 20994 01b5 11       		.uleb128 0x11
 20995 01b6 01       		.uleb128 0x1
 20996 01b7 12       		.uleb128 0x12
 20997 01b8 06       		.uleb128 0x6
 20998 01b9 40       		.uleb128 0x40
 20999 01ba 18       		.uleb128 0x18
 21000 01bb 9642     		.uleb128 0x2116
 21001 01bd 19       		.uleb128 0x19
 21002 01be 01       		.uleb128 0x1
 21003 01bf 13       		.uleb128 0x13
 21004 01c0 00       		.byte	0
 21005 01c1 00       		.byte	0
 21006 01c2 23       		.uleb128 0x23
 21007 01c3 05       		.uleb128 0x5
 21008 01c4 00       		.byte	0
 21009 01c5 03       		.uleb128 0x3
 21010 01c6 0E       		.uleb128 0xe
 21011 01c7 3A       		.uleb128 0x3a
 21012 01c8 0B       		.uleb128 0xb
 21013 01c9 3B       		.uleb128 0x3b
 21014 01ca 05       		.uleb128 0x5
ARM GAS  /tmp/cc1ELVNa.s 			page 373


 21015 01cb 49       		.uleb128 0x49
 21016 01cc 13       		.uleb128 0x13
 21017 01cd 02       		.uleb128 0x2
 21018 01ce 18       		.uleb128 0x18
 21019 01cf 00       		.byte	0
 21020 01d0 00       		.byte	0
 21021 01d1 24       		.uleb128 0x24
 21022 01d2 34       		.uleb128 0x34
 21023 01d3 00       		.byte	0
 21024 01d4 03       		.uleb128 0x3
 21025 01d5 0E       		.uleb128 0xe
 21026 01d6 3A       		.uleb128 0x3a
 21027 01d7 0B       		.uleb128 0xb
 21028 01d8 3B       		.uleb128 0x3b
 21029 01d9 05       		.uleb128 0x5
 21030 01da 49       		.uleb128 0x49
 21031 01db 13       		.uleb128 0x13
 21032 01dc 02       		.uleb128 0x2
 21033 01dd 18       		.uleb128 0x18
 21034 01de 00       		.byte	0
 21035 01df 00       		.byte	0
 21036 01e0 25       		.uleb128 0x25
 21037 01e1 34       		.uleb128 0x34
 21038 01e2 00       		.byte	0
 21039 01e3 03       		.uleb128 0x3
 21040 01e4 08       		.uleb128 0x8
 21041 01e5 3A       		.uleb128 0x3a
 21042 01e6 0B       		.uleb128 0xb
 21043 01e7 3B       		.uleb128 0x3b
 21044 01e8 05       		.uleb128 0x5
 21045 01e9 49       		.uleb128 0x49
 21046 01ea 13       		.uleb128 0x13
 21047 01eb 02       		.uleb128 0x2
 21048 01ec 18       		.uleb128 0x18
 21049 01ed 00       		.byte	0
 21050 01ee 00       		.byte	0
 21051 01ef 26       		.uleb128 0x26
 21052 01f0 34       		.uleb128 0x34
 21053 01f1 00       		.byte	0
 21054 01f2 03       		.uleb128 0x3
 21055 01f3 0E       		.uleb128 0xe
 21056 01f4 3A       		.uleb128 0x3a
 21057 01f5 0B       		.uleb128 0xb
 21058 01f6 3B       		.uleb128 0x3b
 21059 01f7 05       		.uleb128 0x5
 21060 01f8 49       		.uleb128 0x49
 21061 01f9 13       		.uleb128 0x13
 21062 01fa 3F       		.uleb128 0x3f
 21063 01fb 19       		.uleb128 0x19
 21064 01fc 3C       		.uleb128 0x3c
 21065 01fd 19       		.uleb128 0x19
 21066 01fe 00       		.byte	0
 21067 01ff 00       		.byte	0
 21068 0200 27       		.uleb128 0x27
 21069 0201 34       		.uleb128 0x34
 21070 0202 00       		.byte	0
 21071 0203 03       		.uleb128 0x3
ARM GAS  /tmp/cc1ELVNa.s 			page 374


 21072 0204 08       		.uleb128 0x8
 21073 0205 3A       		.uleb128 0x3a
 21074 0206 0B       		.uleb128 0xb
 21075 0207 3B       		.uleb128 0x3b
 21076 0208 05       		.uleb128 0x5
 21077 0209 49       		.uleb128 0x49
 21078 020a 13       		.uleb128 0x13
 21079 020b 3F       		.uleb128 0x3f
 21080 020c 19       		.uleb128 0x19
 21081 020d 3C       		.uleb128 0x3c
 21082 020e 19       		.uleb128 0x19
 21083 020f 00       		.byte	0
 21084 0210 00       		.byte	0
 21085 0211 28       		.uleb128 0x28
 21086 0212 34       		.uleb128 0x34
 21087 0213 00       		.byte	0
 21088 0214 03       		.uleb128 0x3
 21089 0215 0E       		.uleb128 0xe
 21090 0216 3A       		.uleb128 0x3a
 21091 0217 0B       		.uleb128 0xb
 21092 0218 3B       		.uleb128 0x3b
 21093 0219 0B       		.uleb128 0xb
 21094 021a 49       		.uleb128 0x49
 21095 021b 13       		.uleb128 0x13
 21096 021c 3F       		.uleb128 0x3f
 21097 021d 19       		.uleb128 0x19
 21098 021e 02       		.uleb128 0x2
 21099 021f 18       		.uleb128 0x18
 21100 0220 00       		.byte	0
 21101 0221 00       		.byte	0
 21102 0222 00       		.byte	0
 21103              		.section	.debug_aranges,"",%progbits
 21104 0000 1C000000 		.4byte	0x1c
 21105 0004 0200     		.2byte	0x2
 21106 0006 00000000 		.4byte	.Ldebug_info0
 21107 000a 04       		.byte	0x4
 21108 000b 00       		.byte	0
 21109 000c 0000     		.2byte	0
 21110 000e 0000     		.2byte	0
 21111 0010 00000000 		.4byte	.Ltext0
 21112 0014 16400000 		.4byte	.Letext0-.Ltext0
 21113 0018 00000000 		.4byte	0
 21114 001c 00000000 		.4byte	0
 21115              		.section	.debug_line,"",%progbits
 21116              	.Ldebug_line0:
 21117 0000 390B0000 		.section	.debug_str,"MS",%progbits,1
 21117      0200EC03 
 21117      00000201 
 21117      FB0E0D00 
 21117      01010101 
 21118              	.LASF99:
 21119 0000 706F7274 		.ascii	"port_intctx\000"
 21119      5F696E74 
 21119      63747800 
 21120              	.LASF272:
 21121 000c 4C534D33 		.ascii	"LSM303AGR_ACC_SIM_3_WIRES\000"
 21121      30334147 
ARM GAS  /tmp/cc1ELVNa.s 			page 375


 21121      525F4143 
 21121      435F5349 
 21121      4D5F335F 
 21122              	.LASF278:
 21123 0026 4C534D33 		.ascii	"LSM303AGR_ACC_ST_t\000"
 21123      30334147 
 21123      525F4143 
 21123      435F5354 
 21123      5F7400
 21124              	.LASF578:
 21125 0039 4C534D33 		.ascii	"LSM303AGR_ACC_W_Int1_6D\000"
 21125      30334147 
 21125      525F4143 
 21125      435F575F 
 21125      496E7431 
 21126              	.LASF520:
 21127 0051 4C534D33 		.ascii	"LSM303AGR_ACC_W_LittleBigEndian\000"
 21127      30334147 
 21127      525F4143 
 21127      435F575F 
 21127      4C697474 
 21128              	.LASF26:
 21129 0071 6D73675F 		.ascii	"msg_t\000"
 21129      7400
 21130              	.LASF410:
 21131 0077 4C534D33 		.ascii	"LSM303AGR_ACC_XD_DISABLED\000"
 21131      30334147 
 21131      525F4143 
 21131      435F5844 
 21131      5F444953 
 21132              	.LASF175:
 21133 0091 4C534D33 		.ascii	"LSM303AGR_ACC_ODR_DO_PWR_DOWN\000"
 21133      30334147 
 21133      525F4143 
 21133      435F4F44 
 21133      525F444F 
 21134              	.LASF339:
 21135 00af 4C534D33 		.ascii	"LSM303AGR_ACC_ZOR_NO_OVERRUN\000"
 21135      30334147 
 21135      525F4143 
 21135      435F5A4F 
 21135      525F4E4F 
 21136              	.LASF450:
 21137 00cc 68616E64 		.ascii	"handle\000"
 21137      6C6500
 21138              	.LASF189:
 21139 00d3 4C534D33 		.ascii	"LSM303AGR_ACC_2DA__NOT_AVAILABLE\000"
 21139      30334147 
 21139      525F4143 
 21139      435F3244 
 21139      415F5F4E 
 21140              	.LASF361:
 21141 00f4 4C534D33 		.ascii	"LSM303AGR_ACC_WTM_t\000"
 21141      30334147 
 21141      525F4143 
 21141      435F5754 
 21141      4D5F7400 
ARM GAS  /tmp/cc1ELVNa.s 			page 376


 21142              	.LASF476:
 21143 0108 4C534D33 		.ascii	"LSM303AGR_ACC_W_TEMP_EN_bits\000"
 21143      30334147 
 21143      525F4143 
 21143      435F575F 
 21143      54454D50 
 21144              	.LASF400:
 21145 0125 4C534D33 		.ascii	"LSM303AGR_ACC_ZL_t\000"
 21145      30334147 
 21145      525F4143 
 21145      435F5A4C 
 21145      5F7400
 21146              	.LASF427:
 21147 0138 4C534D33 		.ascii	"LSM303AGR_ACC_X_t\000"
 21147      30334147 
 21147      525F4143 
 21147      435F585F 
 21147      7400
 21148              	.LASF584:
 21149 014a 4C534D33 		.ascii	"LSM303AGR_ACC_W_Int2EnXHi\000"
 21149      30334147 
 21149      525F4143 
 21149      435F575F 
 21149      496E7432 
 21150              	.LASF77:
 21151 0164 63685F73 		.ascii	"ch_system_t\000"
 21151      79737465 
 21151      6D5F7400 
 21152              	.LASF3:
 21153 0170 5F5F7569 		.ascii	"__uint8_t\000"
 21153      6E74385F 
 21153      7400
 21154              	.LASF106:
 21155 017a 77747365 		.ascii	"wtsemp\000"
 21155      6D7000
 21156              	.LASF545:
 21157 0181 4C534D33 		.ascii	"LSM303AGR_ACC_R_Click_on_INT2\000"
 21157      30334147 
 21157      525F4143 
 21157      435F525F 
 21157      436C6963 
 21158              	.LASF125:
 21159 019f 5F426F6F 		.ascii	"_Bool\000"
 21159      6C00
 21160              	.LASF302:
 21161 01a5 4C534D33 		.ascii	"LSM303AGR_ACC_BOOT_t\000"
 21161      30334147 
 21161      525F4143 
 21161      435F424F 
 21161      4F545F74 
 21162              	.LASF149:
 21163 01ba 646D6172 		.ascii	"dmarx\000"
 21163      7800
 21164              	.LASF633:
 21165 01c0 4C534D33 		.ascii	"LSM303AGR_ACC_R_ClickY\000"
 21165      30334147 
 21165      525F4143 
ARM GAS  /tmp/cc1ELVNa.s 			page 377


 21165      435F525F 
 21165      436C6963 
 21166              	.LASF341:
 21167 01d7 4C534D33 		.ascii	"LSM303AGR_ACC_ZOR_t\000"
 21167      30334147 
 21167      525F4143 
 21167      435F5A4F 
 21167      525F7400 
 21168              	.LASF207:
 21169 01eb 4C534D33 		.ascii	"LSM303AGR_ACC_321OR__NO_OVERRUN\000"
 21169      30334147 
 21169      525F4143 
 21169      435F3332 
 21169      314F525F 
 21170              	.LASF503:
 21171 020b 4C534D33 		.ascii	"LSM303AGR_ACC_R_FIFO_Watermark_on_INT1\000"
 21171      30334147 
 21171      525F4143 
 21171      435F525F 
 21171      4649464F 
 21172              	.LASF535:
 21173 0232 4C534D33 		.ascii	"LSM303AGR_ACC_R_IntActive\000"
 21173      30334147 
 21173      525F4143 
 21173      435F525F 
 21173      496E7441 
 21174              	.LASF568:
 21175 024c 4C534D33 		.ascii	"LSM303AGR_ACC_W_Int1EnXHi\000"
 21175      30334147 
 21175      525F4143 
 21175      435F575F 
 21175      496E7431 
 21176              	.LASF405:
 21177 0266 4C534D33 		.ascii	"LSM303AGR_ACC_IA_UP\000"
 21177      30334147 
 21177      525F4143 
 21177      435F4941 
 21177      5F555000 
 21178              	.LASF365:
 21179 027a 4C534D33 		.ascii	"LSM303AGR_ACC_XHIE_DISABLED\000"
 21179      30334147 
 21179      525F4143 
 21179      435F5848 
 21179      49455F44 
 21180              	.LASF291:
 21181 0296 4C534D33 		.ascii	"LSM303AGR_ACC_D4D_INT1_DISABLED\000"
 21181      30334147 
 21181      525F4143 
 21181      435F4434 
 21181      445F494E 
 21182              	.LASF153:
 21183 02b6 73706963 		.ascii	"spicallback_t\000"
 21183      616C6C62 
 21183      61636B5F 
 21183      7400
 21184              	.LASF73:
 21185 02c4 76745F73 		.ascii	"vt_systime\000"
ARM GAS  /tmp/cc1ELVNa.s 			page 378


 21185      79737469 
 21185      6D6500
 21186              	.LASF387:
 21187 02cf 4C534D33 		.ascii	"LSM303AGR_ACC_XL_UP\000"
 21187      30334147 
 21187      525F4143 
 21187      435F584C 
 21187      5F555000 
 21188              	.LASF543:
 21189 02e3 4C534D33 		.ascii	"LSM303AGR_ACC_R_I2_on_INT1\000"
 21189      30334147 
 21189      525F4143 
 21189      435F525F 
 21189      49325F6F 
 21190              	.LASF541:
 21191 02fe 4C534D33 		.ascii	"LSM303AGR_ACC_R_I2_on_INT2\000"
 21191      30334147 
 21191      525F4143 
 21191      435F525F 
 21191      49325F6F 
 21192              	.LASF115:
 21193 0319 6D5F6E65 		.ascii	"m_next\000"
 21193      787400
 21194              	.LASF482:
 21195 0320 4C534D33 		.ascii	"LSM303AGR_ACC_W_YEN\000"
 21195      30334147 
 21195      525F4143 
 21195      435F575F 
 21195      59454E00 
 21196              	.LASF186:
 21197 0334 4C534D33 		.ascii	"LSM303AGR_ACC_1DA_NOT_AVAILABLE\000"
 21197      30334147 
 21197      525F4143 
 21197      435F3144 
 21197      415F4E4F 
 21198              	.LASF352:
 21199 0354 4C534D33 		.ascii	"LSM303AGR_ACC_FM_t\000"
 21199      30334147 
 21199      525F4143 
 21199      435F464D 
 21199      5F7400
 21200              	.LASF497:
 21201 0367 4C534D33 		.ascii	"LSM303AGR_ACC_R_hpf_cutoff_freq\000"
 21201      30334147 
 21201      525F4143 
 21201      435F525F 
 21201      6870665F 
 21202              	.LASF599:
 21203 0387 4C534D33 		.ascii	"LSM303AGR_ACC_R_Int1_XHi\000"
 21203      30334147 
 21203      525F4143 
 21203      435F525F 
 21203      496E7431 
 21204              	.LASF16:
 21205 03a0 75696E74 		.ascii	"uint16_t\000"
 21205      31365F74 
 21205      00
ARM GAS  /tmp/cc1ELVNa.s 			page 379


 21206              	.LASF547:
 21207 03a9 4C534D33 		.ascii	"LSM303AGR_ACC_R_ReferenceVal\000"
 21207      30334147 
 21207      525F4143 
 21207      435F525F 
 21207      52656665 
 21208              	.LASF150:
 21209 03c6 646D6174 		.ascii	"dmatx\000"
 21209      7800
 21210              	.LASF581:
 21211 03cc 4C534D33 		.ascii	"LSM303AGR_ACC_R_Int1_AOI\000"
 21211      30334147 
 21211      525F4143 
 21211      435F525F 
 21211      496E7431 
 21212              	.LASF471:
 21213 03e5 4C534D33 		.ascii	"LSM303AGR_ACC_R_DataXOverrun\000"
 21213      30334147 
 21213      525F4143 
 21213      435F525F 
 21213      44617461 
 21214              	.LASF465:
 21215 0402 4C534D33 		.ascii	"LSM303AGR_ACC_W_ODR\000"
 21215      30334147 
 21215      525F4143 
 21215      435F575F 
 21215      4F445200 
 21216              	.LASF54:
 21217 0416 63685F74 		.ascii	"ch_threads_queue\000"
 21217      68726561 
 21217      64735F71 
 21217      75657565 
 21217      00
 21218              	.LASF544:
 21219 0427 4C534D33 		.ascii	"LSM303AGR_ACC_W_Click_on_INT2\000"
 21219      30334147 
 21219      525F4143 
 21219      435F575F 
 21219      436C6963 
 21220              	.LASF35:
 21221 0445 705F6E65 		.ascii	"p_newer\000"
 21221      77657200 
 21222              	.LASF329:
 21223 044d 4C534D33 		.ascii	"LSM303AGR_ACC_ZDA_t\000"
 21223      30334147 
 21223      525F4143 
 21223      435F5A44 
 21223      415F7400 
 21224              	.LASF469:
 21225 0461 4C534D33 		.ascii	"LSM303AGR_ACC_R_z_data_avail\000"
 21225      30334147 
 21225      525F4143 
 21225      435F525F 
 21225      7A5F6461 
 21226              	.LASF139:
 21227 047e 5350495F 		.ascii	"SPI_STOP\000"
 21227      53544F50 
ARM GAS  /tmp/cc1ELVNa.s 			page 380


 21227      00
 21228              	.LASF502:
 21229 0487 4C534D33 		.ascii	"LSM303AGR_ACC_W_FIFO_Watermark_on_INT1\000"
 21229      30334147 
 21229      525F4143 
 21229      435F575F 
 21229      4649464F 
 21230              	.LASF472:
 21231 04ae 4C534D33 		.ascii	"LSM303AGR_ACC_R_DataYOverrun\000"
 21231      30334147 
 21231      525F4143 
 21231      435F525F 
 21231      44617461 
 21232              	.LASF582:
 21233 04cb 4C534D33 		.ascii	"LSM303AGR_ACC_W_Int2EnXLo\000"
 21233      30334147 
 21233      525F4143 
 21233      435F575F 
 21233      496E7432 
 21234              	.LASF496:
 21235 04e5 4C534D33 		.ascii	"LSM303AGR_ACC_W_hpf_cutoff_freq\000"
 21235      30334147 
 21235      525F4143 
 21235      435F575F 
 21235      6870665F 
 21236              	.LASF254:
 21237 0505 4C534D33 		.ascii	"LSM303AGR_ACC_I1_WTM_ENABLED\000"
 21237      30334147 
 21237      525F4143 
 21237      435F4931 
 21237      5F57544D 
 21238              	.LASF287:
 21239 0522 4C534D33 		.ascii	"LSM303AGR_ACC_D4D_INT2_t\000"
 21239      30334147 
 21239      525F4143 
 21239      435F4434 
 21239      445F494E 
 21240              	.LASF86:
 21241 053b 434D4152 		.ascii	"CMAR\000"
 21241      00
 21242              	.LASF451:
 21243 0540 42756670 		.ascii	"Bufp\000"
 21243      00
 21244              	.LASF128:
 21245 0545 4F545950 		.ascii	"OTYPER\000"
 21245      455200
 21246              	.LASF143:
 21247 054c 73706973 		.ascii	"spistate_t\000"
 21247      74617465 
 21247      5F7400
 21248              	.LASF311:
 21249 0557 4C534D33 		.ascii	"LSM303AGR_ACC_BOOT_I1_t\000"
 21249      30334147 
 21249      525F4143 
 21249      435F424F 
 21249      4F545F49 
 21250              	.LASF566:
ARM GAS  /tmp/cc1ELVNa.s 			page 381


 21251 056f 4C534D33 		.ascii	"LSM303AGR_ACC_W_Int1EnXLo\000"
 21251      30334147 
 21251      525F4143 
 21251      435F575F 
 21251      496E7431 
 21252              	.LASF30:
 21253 0589 74687265 		.ascii	"thread_t\000"
 21253      61645F74 
 21253      00
 21254              	.LASF238:
 21255 0592 4C534D33 		.ascii	"LSM303AGR_ACC_FDS_ENABLED\000"
 21255      30334147 
 21255      525F4143 
 21255      435F4644 
 21255      535F454E 
 21256              	.LASF246:
 21257 05ac 4C534D33 		.ascii	"LSM303AGR_ACC_HPM_REFERENCE_SIGNAL\000"
 21257      30334147 
 21257      525F4143 
 21257      435F4850 
 21257      4D5F5245 
 21258              	.LASF72:
 21259 05cf 63685F76 		.ascii	"ch_virtual_timers_list\000"
 21259      69727475 
 21259      616C5F74 
 21259      696D6572 
 21259      735F6C69 
 21260              	.LASF123:
 21261 05e6 76656374 		.ascii	"vector\000"
 21261      6F7200
 21262              	.LASF17:
 21263 05ed 696E7433 		.ascii	"int32_t\000"
 21263      325F7400 
 21264              	.LASF473:
 21265 05f5 4C534D33 		.ascii	"LSM303AGR_ACC_R_DataZOverrun\000"
 21265      30334147 
 21265      525F4143 
 21265      435F525F 
 21265      44617461 
 21266              	.LASF546:
 21267 0612 4C534D33 		.ascii	"LSM303AGR_ACC_W_ReferenceVal\000"
 21267      30334147 
 21267      525F4143 
 21267      435F575F 
 21267      52656665 
 21268              	.LASF29:
 21269 062f 73797374 		.ascii	"systime_t\000"
 21269      696D655F 
 21269      7400
 21270              	.LASF390:
 21271 0639 4C534D33 		.ascii	"LSM303AGR_ACC_XH_UP\000"
 21271      30334147 
 21271      525F4143 
 21271      435F5848 
 21271      5F555000 
 21272              	.LASF270:
 21273 064d 4C534D33 		.ascii	"LSM303AGR_ACC_I1_CLICK_t\000"
ARM GAS  /tmp/cc1ELVNa.s 			page 382


 21273      30334147 
 21273      525F4143 
 21273      435F4931 
 21273      5F434C49 
 21274              	.LASF158:
 21275 0666 75385F74 		.ascii	"u8_t\000"
 21275      00
 21276              	.LASF236:
 21277 066b 4C534D33 		.ascii	"LSM303AGR_ACC_HPCLICK_t\000"
 21277      30334147 
 21277      525F4143 
 21277      435F4850 
 21277      434C4943 
 21278              	.LASF588:
 21279 0683 4C534D33 		.ascii	"LSM303AGR_ACC_W_Int2EnYHi\000"
 21279      30334147 
 21279      525F4143 
 21279      435F575F 
 21279      496E7432 
 21280              	.LASF394:
 21281 069d 4C534D33 		.ascii	"LSM303AGR_ACC_YL_t\000"
 21281      30334147 
 21281      525F4143 
 21281      435F594C 
 21281      5F7400
 21282              	.LASF212:
 21283 06b0 4C534D33 		.ascii	"LSM303AGR_ACC_TEMP_EN_t\000"
 21283      30334147 
 21283      525F4143 
 21283      435F5445 
 21283      4D505F45 
 21284              	.LASF459:
 21285 06c8 4C534D33 		.ascii	"LSM303AGR_ACC_Get_Raw_Acceleration\000"
 21285      30334147 
 21285      525F4143 
 21285      435F4765 
 21285      745F5261 
 21286              	.LASF251:
 21287 06eb 4C534D33 		.ascii	"LSM303AGR_ACC_I1_OVERRUN_ENABLED\000"
 21287      30334147 
 21287      525F4143 
 21287      435F4931 
 21287      5F4F5645 
 21288              	.LASF202:
 21289 070c 4C534D33 		.ascii	"LSM303AGR_ACC_2OR__OVERRUN\000"
 21289      30334147 
 21289      525F4143 
 21289      435F324F 
 21289      525F5F4F 
 21290              	.LASF562:
 21291 0727 4C534D33 		.ascii	"LSM303AGR_ACC_R_FifoSamplesAvail\000"
 21291      30334147 
 21291      525F4143 
 21291      435F525F 
 21291      4669666F 
 21292              	.LASF572:
 21293 0748 4C534D33 		.ascii	"LSM303AGR_ACC_W_Int1EnYHi\000"
ARM GAS  /tmp/cc1ELVNa.s 			page 383


 21293      30334147 
 21293      525F4143 
 21293      435F575F 
 21293      496E7431 
 21294              	.LASF506:
 21295 0762 4C534D33 		.ascii	"LSM303AGR_ACC_W_FIFO_DRDY1_on_INT1\000"
 21295      30334147 
 21295      525F4143 
 21295      435F575F 
 21295      4649464F 
 21296              	.LASF298:
 21297 0785 4C534D33 		.ascii	"LSM303AGR_ACC_FIFO_EN_ENABLED\000"
 21297      30334147 
 21297      525F4143 
 21297      435F4649 
 21297      464F5F45 
 21298              	.LASF225:
 21299 07a3 4C534D33 		.ascii	"LSM303AGR_ACC_LPEN_DISABLED\000"
 21299      30334147 
 21299      525F4143 
 21299      435F4C50 
 21299      454E5F44 
 21300              	.LASF504:
 21301 07bf 4C534D33 		.ascii	"LSM303AGR_ACC_W_FIFO_DRDY2_on_INT1\000"
 21301      30334147 
 21301      525F4143 
 21301      435F575F 
 21301      4649464F 
 21302              	.LASF629:
 21303 07e2 4C534D33 		.ascii	"LSM303AGR_ACC_R_ZSingle\000"
 21303      30334147 
 21303      525F4143 
 21303      435F525F 
 21303      5A53696E 
 21304              	.LASF484:
 21305 07fa 4C534D33 		.ascii	"LSM303AGR_ACC_W_ZEN\000"
 21305      30334147 
 21305      525F4143 
 21305      435F575F 
 21305      5A454E00 
 21306              	.LASF307:
 21307 080e 4C534D33 		.ascii	"LSM303AGR_ACC_P2_ACT_ENABLED\000"
 21307      30334147 
 21307      525F4143 
 21307      435F5032 
 21307      5F414354 
 21308              	.LASF80:
 21309 082b 76746C69 		.ascii	"vtlist\000"
 21309      737400
 21310              	.LASF295:
 21311 0832 4C534D33 		.ascii	"LSM303AGR_ACC_LIR_INT1_ENABLED\000"
 21311      30334147 
 21311      525F4143 
 21311      435F4C49 
 21311      525F494E 
 21312              	.LASF401:
 21313 0851 4C534D33 		.ascii	"LSM303AGR_ACC_ZH_DOWN\000"
ARM GAS  /tmp/cc1ELVNa.s 			page 384


 21313      30334147 
 21313      525F4143 
 21313      435F5A48 
 21313      5F444F57 
 21314              	.LASF289:
 21315 0867 4C534D33 		.ascii	"LSM303AGR_ACC_LIR_INT2_ENABLED\000"
 21315      30334147 
 21315      525F4143 
 21315      435F4C49 
 21315      525F494E 
 21316              	.LASF42:
 21317 0886 705F7761 		.ascii	"p_waiting\000"
 21317      6974696E 
 21317      6700
 21318              	.LASF252:
 21319 0890 4C534D33 		.ascii	"LSM303AGR_ACC_I1_OVERRUN_t\000"
 21319      30334147 
 21319      525F4143 
 21319      435F4931 
 21319      5F4F5645 
 21320              	.LASF601:
 21321 08ab 4C534D33 		.ascii	"LSM303AGR_ACC_R_Int1_YHi\000"
 21321      30334147 
 21321      525F4143 
 21321      435F525F 
 21321      496E7431 
 21322              	.LASF609:
 21323 08c4 4C534D33 		.ascii	"LSM303AGR_ACC_R_Int2_Zlo\000"
 21323      30334147 
 21323      525F4143 
 21323      435F525F 
 21323      496E7432 
 21324              	.LASF79:
 21325 08dd 726C6973 		.ascii	"rlist\000"
 21325      7400
 21326              	.LASF50:
 21327 08e3 74687265 		.ascii	"threads_list_t\000"
 21327      6164735F 
 21327      6C697374 
 21327      5F7400
 21328              	.LASF419:
 21329 08f2 4C534D33 		.ascii	"LSM303AGR_ACC_ZS_DISABLED\000"
 21329      30334147 
 21329      525F4143 
 21329      435F5A53 
 21329      5F444953 
 21330              	.LASF628:
 21331 090c 4C534D33 		.ascii	"LSM303AGR_ACC_W_ZSingle\000"
 21331      30334147 
 21331      525F4143 
 21331      435F575F 
 21331      5A53696E 
 21332              	.LASF248:
 21333 0924 4C534D33 		.ascii	"LSM303AGR_ACC_HPM_AUTORST_ON_INT\000"
 21333      30334147 
 21333      525F4143 
 21333      435F4850 
ARM GAS  /tmp/cc1ELVNa.s 			page 385


 21333      4D5F4155 
 21334              	.LASF266:
 21335 0945 4C534D33 		.ascii	"LSM303AGR_ACC_I1_AOI1_ENABLED\000"
 21335      30334147 
 21335      525F4143 
 21335      435F4931 
 21335      5F414F49 
 21336              	.LASF627:
 21337 0963 4C534D33 		.ascii	"LSM303AGR_ACC_R_YDouble\000"
 21337      30334147 
 21337      525F4143 
 21337      435F525F 
 21337      59446F75 
 21338              	.LASF263:
 21339 097b 4C534D33 		.ascii	"LSM303AGR_ACC_I1_AOI2_ENABLED\000"
 21339      30334147 
 21339      525F4143 
 21339      435F4931 
 21339      5F414F49 
 21340              	.LASF162:
 21341 0999 75386269 		.ascii	"u8bit\000"
 21341      7400
 21342              	.LASF513:
 21343 099f 4C534D33 		.ascii	"LSM303AGR_ACC_R_FIFO_Click_on_INT1\000"
 21343      30334147 
 21343      525F4143 
 21343      435F525F 
 21343      4649464F 
 21344              	.LASF494:
 21345 09c2 4C534D33 		.ascii	"LSM303AGR_ACC_W_Data_Filter\000"
 21345      30334147 
 21345      525F4143 
 21345      435F575F 
 21345      44617461 
 21346              	.LASF25:
 21347 09de 74707269 		.ascii	"tprio_t\000"
 21347      6F5F7400 
 21348              	.LASF267:
 21349 09e6 4C534D33 		.ascii	"LSM303AGR_ACC_I1_AOI1_t\000"
 21349      30334147 
 21349      525F4143 
 21349      435F4931 
 21349      5F414F49 
 21350              	.LASF380:
 21351 09fe 4C534D33 		.ascii	"LSM303AGR_ACC_6D_DISABLED\000"
 21351      30334147 
 21351      525F4143 
 21351      435F3644 
 21351      5F444953 
 21352              	.LASF527:
 21353 0a18 4C534D33 		.ascii	"LSM303AGR_ACC_R_4D_on_INT1\000"
 21353      30334147 
 21353      525F4143 
 21353      435F525F 
 21353      34445F6F 
 21354              	.LASF160:
 21355 0a33 6931365F 		.ascii	"i16_t\000"
ARM GAS  /tmp/cc1ELVNa.s 			page 386


 21355      7400
 21356              	.LASF626:
 21357 0a39 4C534D33 		.ascii	"LSM303AGR_ACC_W_YDouble\000"
 21357      30334147 
 21357      525F4143 
 21357      435F575F 
 21357      59446F75 
 21358              	.LASF586:
 21359 0a51 4C534D33 		.ascii	"LSM303AGR_ACC_W_Int2EnYLo\000"
 21359      30334147 
 21359      525F4143 
 21359      435F575F 
 21359      496E7432 
 21360              	.LASF557:
 21361 0a6b 4C534D33 		.ascii	"LSM303AGR_ACC_R_FifoThreshold\000"
 21361      30334147 
 21361      525F4143 
 21361      435F525F 
 21361      4669666F 
 21362              	.LASF147:
 21363 0a89 74687265 		.ascii	"thread\000"
 21363      616400
 21364              	.LASF138:
 21365 0a90 5350495F 		.ascii	"SPI_UNINIT\000"
 21365      554E494E 
 21365      495400
 21366              	.LASF414:
 21367 0a9b 4C534D33 		.ascii	"LSM303AGR_ACC_YS_ENABLED\000"
 21367      30334147 
 21367      525F4143 
 21367      435F5953 
 21367      5F454E41 
 21368              	.LASF218:
 21369 0ab4 4C534D33 		.ascii	"LSM303AGR_ACC_XEN_t\000"
 21369      30334147 
 21369      525F4143 
 21369      435F5845 
 21369      4E5F7400 
 21370              	.LASF570:
 21371 0ac8 4C534D33 		.ascii	"LSM303AGR_ACC_W_Int1EnYLo\000"
 21371      30334147 
 21371      525F4143 
 21371      435F575F 
 21371      496E7431 
 21372              	.LASF90:
 21373 0ae2 43524350 		.ascii	"CRCPR\000"
 21373      5200
 21374              	.LASF435:
 21375 0ae8 4C534D33 		.ascii	"LSM303AGR_ACC_SIGN_NEGATIVE\000"
 21375      30334147 
 21375      525F4143 
 21375      435F5349 
 21375      474E5F4E 
 21376              	.LASF379:
 21377 0b04 4C534D33 		.ascii	"LSM303AGR_ACC_ZHIE_t\000"
 21377      30334147 
 21377      525F4143 
ARM GAS  /tmp/cc1ELVNa.s 			page 387


 21377      435F5A48 
 21377      49455F74 
 21378              	.LASF596:
 21379 0b19 4C534D33 		.ascii	"LSM303AGR_ACC_W_Int2_AOI\000"
 21379      30334147 
 21379      525F4143 
 21379      435F575F 
 21379      496E7432 
 21380              	.LASF6:
 21381 0b32 5F5F7569 		.ascii	"__uint16_t\000"
 21381      6E743136 
 21381      5F7400
 21382              	.LASF44:
 21383 0b3d 705F6D73 		.ascii	"p_msg\000"
 21383      6700
 21384              	.LASF521:
 21385 0b43 4C534D33 		.ascii	"LSM303AGR_ACC_R_LittleBigEndian\000"
 21385      30334147 
 21385      525F4143 
 21385      435F525F 
 21385      4C697474 
 21386              	.LASF342:
 21387 0b63 4C534D33 		.ascii	"LSM303AGR_ACC_ZYXOR_NO_OVERRUN\000"
 21387      30334147 
 21387      525F4143 
 21387      435F5A59 
 21387      584F525F 
 21388              	.LASF464:
 21389 0b82 66735F6D 		.ascii	"fs_mode\000"
 21389      6F646500 
 21390              	.LASF247:
 21391 0b8a 4C534D33 		.ascii	"LSM303AGR_ACC_HPM_NORMAL_2\000"
 21391      30334147 
 21391      525F4143 
 21391      435F4850 
 21391      4D5F4E4F 
 21392              	.LASF271:
 21393 0ba5 4C534D33 		.ascii	"LSM303AGR_ACC_SIM_4_WIRES\000"
 21393      30334147 
 21393      525F4143 
 21393      435F5349 
 21393      4D5F345F 
 21394              	.LASF214:
 21395 0bbf 4C534D33 		.ascii	"LSM303AGR_ACC_ADC_PD_ENABLED\000"
 21395      30334147 
 21395      525F4143 
 21395      435F4144 
 21395      435F5044 
 21396              	.LASF176:
 21397 0bdc 4C534D33 		.ascii	"LSM303AGR_ACC_ODR_DO_1Hz\000"
 21397      30334147 
 21397      525F4143 
 21397      435F4F44 
 21397      525F444F 
 21398              	.LASF403:
 21399 0bf5 4C534D33 		.ascii	"LSM303AGR_ACC_ZH_t\000"
 21399      30334147 
ARM GAS  /tmp/cc1ELVNa.s 			page 388


 21399      525F4143 
 21399      435F5A48 
 21399      5F7400
 21400              	.LASF164:
 21401 0c08 4D454D53 		.ascii	"MEMS_SUCCESS\000"
 21401      5F535543 
 21401      43455353 
 21401      00
 21402              	.LASF216:
 21403 0c15 4C534D33 		.ascii	"LSM303AGR_ACC_XEN_DISABLED\000"
 21403      30334147 
 21403      525F4143 
 21403      435F5845 
 21403      4E5F4449 
 21404              	.LASF373:
 21405 0c30 4C534D33 		.ascii	"LSM303AGR_ACC_YHIE_t\000"
 21405      30334147 
 21405      525F4143 
 21405      435F5948 
 21405      49455F74 
 21406              	.LASF230:
 21407 0c45 4C534D33 		.ascii	"LSM303AGR_ACC_HPIS1_t\000"
 21407      30334147 
 21407      525F4143 
 21407      435F4850 
 21407      4953315F 
 21408              	.LASF151:
 21409 0c5b 7278646D 		.ascii	"rxdmamode\000"
 21409      616D6F64 
 21409      6500
 21410              	.LASF285:
 21411 0c65 4C534D33 		.ascii	"LSM303AGR_ACC_D4D_INT2_DISABLED\000"
 21411      30334147 
 21411      525F4143 
 21411      435F4434 
 21411      445F494E 
 21412              	.LASF533:
 21413 0c85 4C534D33 		.ascii	"LSM303AGR_ACC_R_RebootMemory\000"
 21413      30334147 
 21413      525F4143 
 21413      435F525F 
 21413      5265626F 
 21414              	.LASF600:
 21415 0ca2 4C534D33 		.ascii	"LSM303AGR_ACC_R_Int1_YLo\000"
 21415      30334147 
 21415      525F4143 
 21415      435F525F 
 21415      496E7431 
 21416              	.LASF454:
 21417 0cbb 4C534D33 		.ascii	"LSM303AGR_ACC_W_BlockDataUpdate\000"
 21417      30334147 
 21417      525F4143 
 21417      435F575F 
 21417      426C6F63 
 21418              	.LASF165:
 21419 0cdb 4D454D53 		.ascii	"MEMS_ERROR\000"
 21419      5F455252 
ARM GAS  /tmp/cc1ELVNa.s 			page 389


 21419      4F5200
 21420              	.LASF181:
 21421 0ce6 4C534D33 		.ascii	"LSM303AGR_ACC_ODR_DO_200Hz\000"
 21421      30334147 
 21421      525F4143 
 21421      435F4F44 
 21421      525F444F 
 21422              	.LASF156:
 21423 0d01 73737061 		.ascii	"sspad\000"
 21423      6400
 21424              	.LASF152:
 21425 0d07 7478646D 		.ascii	"txdmamode\000"
 21425      616D6F64 
 21425      6500
 21426              	.LASF569:
 21427 0d11 4C534D33 		.ascii	"LSM303AGR_ACC_R_Int1EnXHi\000"
 21427      30334147 
 21427      525F4143 
 21427      435F525F 
 21427      496E7431 
 21428              	.LASF486:
 21429 0d2b 4C534D33 		.ascii	"LSM303AGR_ACC_W_LOWPWR_EN\000"
 21429      30334147 
 21429      525F4143 
 21429      435F575F 
 21429      4C4F5750 
 21430              	.LASF576:
 21431 0d45 4C534D33 		.ascii	"LSM303AGR_ACC_W_Int1EnZHi\000"
 21431      30334147 
 21431      525F4143 
 21431      435F575F 
 21431      496E7431 
 21432              	.LASF97:
 21433 0d5f 73746B61 		.ascii	"stkalign_t\000"
 21433      6C69676E 
 21433      5F7400
 21434              	.LASF367:
 21435 0d6a 4C534D33 		.ascii	"LSM303AGR_ACC_XHIE_t\000"
 21435      30334147 
 21435      525F4143 
 21435      435F5848 
 21435      49455F74 
 21436              	.LASF208:
 21437 0d7f 4C534D33 		.ascii	"LSM303AGR_ACC_321OR__OVERRUN\000"
 21437      30334147 
 21437      525F4143 
 21437      435F3332 
 21437      314F525F 
 21438              	.LASF515:
 21439 0d9c 4C534D33 		.ascii	"LSM303AGR_ACC_R_SPI_mode\000"
 21439      30334147 
 21439      525F4143 
 21439      435F525F 
 21439      5350495F 
 21440              	.LASF283:
 21441 0db5 4C534D33 		.ascii	"LSM303AGR_ACC_BLE_BIG_ENDIAN\000"
 21441      30334147 
ARM GAS  /tmp/cc1ELVNa.s 			page 390


 21441      525F4143 
 21441      435F424C 
 21441      455F4249 
 21442              	.LASF345:
 21443 0dd2 4C534D33 		.ascii	"LSM303AGR_ACC_TR_TRIGGER_ON_INT1\000"
 21443      30334147 
 21443      525F4143 
 21443      435F5452 
 21443      5F545249 
 21444              	.LASF346:
 21445 0df3 4C534D33 		.ascii	"LSM303AGR_ACC_TR_TRIGGER_ON_INT2\000"
 21445      30334147 
 21445      525F4143 
 21445      435F5452 
 21445      5F545249 
 21446              	.LASF67:
 21447 0e14 76745F70 		.ascii	"vt_prev\000"
 21447      72657600 
 21448              	.LASF154:
 21449 0e1c 656E645F 		.ascii	"end_cb\000"
 21449      636200
 21450              	.LASF4:
 21451 0e23 756E7369 		.ascii	"unsigned char\000"
 21451      676E6564 
 21451      20636861 
 21451      7200
 21452              	.LASF171:
 21453 0e31 4C534D33 		.ascii	"LSM303AGR_ACC_FS_4G\000"
 21453      30334147 
 21453      525F4143 
 21453      435F4653 
 21453      5F344700 
 21454              	.LASF188:
 21455 0e45 4C534D33 		.ascii	"LSM303AGR_ACC_1DA_t\000"
 21455      30334147 
 21455      525F4143 
 21455      435F3144 
 21455      415F7400 
 21456              	.LASF111:
 21457 0e59 735F636E 		.ascii	"s_cnt\000"
 21457      7400
 21458              	.LASF55:
 21459 0e5f 72656164 		.ascii	"ready_list_t\000"
 21459      795F6C69 
 21459      73745F74 
 21459      00
 21460              	.LASF51:
 21461 0e6c 63685F74 		.ascii	"ch_thread\000"
 21461      68726561 
 21461      6400
 21462              	.LASF612:
 21463 0e76 4C534D33 		.ascii	"LSM303AGR_ACC_W_Int1_Threshold\000"
 21463      30334147 
 21463      525F4143 
 21463      435F575F 
 21463      496E7431 
 21464              	.LASF340:
ARM GAS  /tmp/cc1ELVNa.s 			page 391


 21465 0e95 4C534D33 		.ascii	"LSM303AGR_ACC_ZOR_OVERRUN\000"
 21465      30334147 
 21465      525F4143 
 21465      435F5A4F 
 21465      525F4F56 
 21466              	.LASF296:
 21467 0eaf 4C534D33 		.ascii	"LSM303AGR_ACC_LIR_INT1_t\000"
 21467      30334147 
 21467      525F4143 
 21467      435F4C49 
 21467      525F494E 
 21468              	.LASF653:
 21469 0ec8 474E5520 		.ascii	"GNU C 4.8.4 20140526 (release) [ARM/embedded-4_8-br"
 21469      4320342E 
 21469      382E3420 
 21469      32303134 
 21469      30353236 
 21470 0efb 616E6368 		.ascii	"anch revision 211358] -mcpu=cortex-m4 -mno-thumb-in"
 21470      20726576 
 21470      6973696F 
 21470      6E203231 
 21470      31333538 
 21471 0f2e 74657277 		.ascii	"terwork -mthumb -ggdb -O0 -fomit-frame-pointer -fal"
 21471      6F726B20 
 21471      2D6D7468 
 21471      756D6220 
 21471      2D676764 
 21472 0f61 69676E2D 		.ascii	"ign-functions=16\000"
 21472      66756E63 
 21472      74696F6E 
 21472      733D3136 
 21472      00
 21473              	.LASF391:
 21474 0f72 4C534D33 		.ascii	"LSM303AGR_ACC_XH_t\000"
 21474      30334147 
 21474      525F4143 
 21474      435F5848 
 21474      5F7400
 21475              	.LASF603:
 21476 0f85 4C534D33 		.ascii	"LSM303AGR_ACC_R_Int1_ZHi\000"
 21476      30334147 
 21476      525F4143 
 21476      435F525F 
 21476      496E7431 
 21477              	.LASF597:
 21478 0f9e 4C534D33 		.ascii	"LSM303AGR_ACC_R_Int2_AOI\000"
 21478      30334147 
 21478      525F4143 
 21478      435F525F 
 21478      496E7432 
 21479              	.LASF654:
 21480 0fb7 4253502F 		.ascii	"BSP/Components/lsm303agr/LSM303AGR_ACC_driver.c\000"
 21480      436F6D70 
 21480      6F6E656E 
 21480      74732F6C 
 21480      736D3330 
 21481              	.LASF493:
ARM GAS  /tmp/cc1ELVNa.s 			page 392


 21482 0fe7 4C534D33 		.ascii	"LSM303AGR_ACC_R_hpf_click_en\000"
 21482      30334147 
 21482      525F4143 
 21482      435F525F 
 21482      6870665F 
 21483              	.LASF253:
 21484 1004 4C534D33 		.ascii	"LSM303AGR_ACC_I1_WTM_DISABLED\000"
 21484      30334147 
 21484      525F4143 
 21484      435F4931 
 21484      5F57544D 
 21485              	.LASF250:
 21486 1022 4C534D33 		.ascii	"LSM303AGR_ACC_I1_OVERRUN_DISABLED\000"
 21486      30334147 
 21486      525F4143 
 21486      435F4931 
 21486      5F4F5645 
 21487              	.LASF74:
 21488 1044 73797374 		.ascii	"system_debug_t\000"
 21488      656D5F64 
 21488      65627567 
 21488      5F7400
 21489              	.LASF378:
 21490 1053 4C534D33 		.ascii	"LSM303AGR_ACC_ZHIE_ENABLED\000"
 21490      30334147 
 21490      525F4143 
 21490      435F5A48 
 21490      49455F45 
 21491              	.LASF463:
 21492 106e 6F705F6D 		.ascii	"op_mode\000"
 21492      6F646500 
 21493              	.LASF34:
 21494 1076 705F6374 		.ascii	"p_ctx\000"
 21494      7800
 21495              	.LASF70:
 21496 107c 76745F70 		.ascii	"vt_par\000"
 21496      617200
 21497              	.LASF371:
 21498 1083 4C534D33 		.ascii	"LSM303AGR_ACC_YHIE_DISABLED\000"
 21498      30334147 
 21498      525F4143 
 21498      435F5948 
 21498      49455F44 
 21499              	.LASF62:
 21500 109f 725F6375 		.ascii	"r_current\000"
 21500      7272656E 
 21500      7400
 21501              	.LASF227:
 21502 10a9 4C534D33 		.ascii	"LSM303AGR_ACC_LPEN_t\000"
 21502      30334147 
 21502      525F4143 
 21502      435F4C50 
 21502      454E5F74 
 21503              	.LASF92:
 21504 10be 54584352 		.ascii	"TXCRCR\000"
 21504      435200
 21505              	.LASF432:
ARM GAS  /tmp/cc1ELVNa.s 			page 393


 21506 10c5 4C534D33 		.ascii	"LSM303AGR_ACC_Z_UP\000"
 21506      30334147 
 21506      525F4143 
 21506      435F5A5F 
 21506      555000
 21507              	.LASF330:
 21508 10d8 4C534D33 		.ascii	"LSM303AGR_ACC_ZYXDA_NOT_AVAILABLE\000"
 21508      30334147 
 21508      525F4143 
 21508      435F5A59 
 21508      5844415F 
 21509              	.LASF640:
 21510 10fa 4C534D33 		.ascii	"LSM303AGR_ACC_R_ClickThreshold\000"
 21510      30334147 
 21510      525F4143 
 21510      435F525F 
 21510      436C6963 
 21511              	.LASF532:
 21512 1119 4C534D33 		.ascii	"LSM303AGR_ACC_W_RebootMemory\000"
 21512      30334147 
 21512      525F4143 
 21512      435F575F 
 21512      5265626F 
 21513              	.LASF19:
 21514 1136 75696E74 		.ascii	"uint64_t\000"
 21514      36345F74 
 21514      00
 21515              	.LASF264:
 21516 113f 4C534D33 		.ascii	"LSM303AGR_ACC_I1_AOI2_t\000"
 21516      30334147 
 21516      525F4143 
 21516      435F4931 
 21516      5F414F49 
 21517              	.LASF192:
 21518 1157 4C534D33 		.ascii	"LSM303AGR_ACC_3DA__NOT_AVAILABLE\000"
 21518      30334147 
 21518      525F4143 
 21518      435F3344 
 21518      415F5F4E 
 21519              	.LASF185:
 21520 1178 4C534D33 		.ascii	"LSM303AGR_ACC_ODR_t\000"
 21520      30334147 
 21520      525F4143 
 21520      435F4F44 
 21520      525F7400 
 21521              	.LASF590:
 21522 118c 4C534D33 		.ascii	"LSM303AGR_ACC_W_Int2EnZLo\000"
 21522      30334147 
 21522      525F4143 
 21522      435F575F 
 21522      496E7432 
 21523              	.LASF528:
 21524 11a6 4C534D33 		.ascii	"LSM303AGR_ACC_W_LatchInterrupt_on_INT1\000"
 21524      30334147 
 21524      525F4143 
 21524      435F575F 
 21524      4C617463 
ARM GAS  /tmp/cc1ELVNa.s 			page 394


 21525              	.LASF524:
 21526 11cd 4C534D33 		.ascii	"LSM303AGR_ACC_W_LatchInterrupt_on_INT2\000"
 21526      30334147 
 21526      525F4143 
 21526      435F575F 
 21526      4C617463 
 21527              	.LASF644:
 21528 11f4 4C534D33 		.ascii	"LSM303AGR_ACC_R_ClickTimeLatency\000"
 21528      30334147 
 21528      525F4143 
 21528      435F525F 
 21528      436C6963 
 21529              	.LASF269:
 21530 1215 4C534D33 		.ascii	"LSM303AGR_ACC_I1_CLICK_ENABLED\000"
 21530      30334147 
 21530      525F4143 
 21530      435F4931 
 21530      5F434C49 
 21531              	.LASF347:
 21532 1234 4C534D33 		.ascii	"LSM303AGR_ACC_TR_t\000"
 21532      30334147 
 21532      525F4143 
 21532      435F5452 
 21532      5F7400
 21533              	.LASF91:
 21534 1247 52584352 		.ascii	"RXCRCR\000"
 21534      435200
 21535              	.LASF565:
 21536 124e 4C534D33 		.ascii	"LSM303AGR_ACC_R_WatermarkLevel\000"
 21536      30334147 
 21536      525F4143 
 21536      435F525F 
 21536      57617465 
 21537              	.LASF574:
 21538 126d 4C534D33 		.ascii	"LSM303AGR_ACC_W_Int1EnZLo\000"
 21538      30334147 
 21538      525F4143 
 21538      435F575F 
 21538      496E7431 
 21539              	.LASF112:
 21540 1287 63685F6D 		.ascii	"ch_mutex\000"
 21540      75746578 
 21540      00
 21541              	.LASF604:
 21542 1290 4C534D33 		.ascii	"LSM303AGR_ACC_R_Int1_IA\000"
 21542      30334147 
 21542      525F4143 
 21542      435F525F 
 21542      496E7431 
 21543              	.LASF430:
 21544 12a8 4C534D33 		.ascii	"LSM303AGR_ACC_Y_t\000"
 21544      30334147 
 21544      525F4143 
 21544      435F595F 
 21544      7400
 21545              	.LASF172:
 21546 12ba 4C534D33 		.ascii	"LSM303AGR_ACC_FS_8G\000"
ARM GAS  /tmp/cc1ELVNa.s 			page 395


 21546      30334147 
 21546      525F4143 
 21546      435F4653 
 21546      5F384700 
 21547              	.LASF426:
 21548 12ce 4C534D33 		.ascii	"LSM303AGR_ACC_X_UP\000"
 21548      30334147 
 21548      525F4143 
 21548      435F585F 
 21548      555000
 21549              	.LASF492:
 21550 12e1 4C534D33 		.ascii	"LSM303AGR_ACC_W_hpf_click_en\000"
 21550      30334147 
 21550      525F4143 
 21550      435F575F 
 21550      6870665F 
 21551              	.LASF173:
 21552 12fe 4C534D33 		.ascii	"LSM303AGR_ACC_FS_16G\000"
 21552      30334147 
 21552      525F4143 
 21552      435F4653 
 21552      5F313647 
 21553              	.LASF446:
 21554 1313 76616C75 		.ascii	"value\000"
 21554      6500
 21555              	.LASF357:
 21556 1319 4C534D33 		.ascii	"LSM303AGR_ACC_OVRN_FIFO_OVERRUN\000"
 21556      30334147 
 21556      525F4143 
 21556      435F4F56 
 21556      524E5F46 
 21557              	.LASF468:
 21558 1339 4C534D33 		.ascii	"LSM303AGR_ACC_R_y_data_avail\000"
 21558      30334147 
 21558      525F4143 
 21558      435F525F 
 21558      795F6461 
 21559              	.LASF431:
 21560 1356 4C534D33 		.ascii	"LSM303AGR_ACC_Z_DOWN\000"
 21560      30334147 
 21560      525F4143 
 21560      435F5A5F 
 21560      444F574E 
 21561              	.LASF320:
 21562 136b 4C534D33 		.ascii	"LSM303AGR_ACC_I2_CLICKEN_t\000"
 21562      30334147 
 21562      525F4143 
 21562      435F4932 
 21562      5F434C49 
 21563              	.LASF195:
 21564 1386 4C534D33 		.ascii	"LSM303AGR_ACC_321DA__NOT_AVAILABLE\000"
 21564      30334147 
 21564      525F4143 
 21564      435F3332 
 21564      3144415F 
 21565              	.LASF386:
 21566 13a9 4C534D33 		.ascii	"LSM303AGR_ACC_XL_DOWN\000"
ARM GAS  /tmp/cc1ELVNa.s 			page 396


 21566      30334147 
 21566      525F4143 
 21566      435F584C 
 21566      5F444F57 
 21567              	.LASF233:
 21568 13bf 4C534D33 		.ascii	"LSM303AGR_ACC_HPIS2_t\000"
 21568      30334147 
 21568      525F4143 
 21568      435F4850 
 21568      4953325F 
 21569              	.LASF392:
 21570 13d5 4C534D33 		.ascii	"LSM303AGR_ACC_YL_DOWN\000"
 21570      30334147 
 21570      525F4143 
 21570      435F594C 
 21570      5F444F57 
 21571              	.LASF441:
 21572 13eb 4C534D33 		.ascii	"LSM303AGR_ACC_DCLICK_ENABLED\000"
 21572      30334147 
 21572      525F4143 
 21572      435F4443 
 21572      4C49434B 
 21573              	.LASF404:
 21574 1408 4C534D33 		.ascii	"LSM303AGR_ACC_IA_DOWN\000"
 21574      30334147 
 21574      525F4143 
 21574      435F4941 
 21574      5F444F57 
 21575              	.LASF64:
 21576 141e 76697274 		.ascii	"virtual_timer_t\000"
 21576      75616C5F 
 21576      74696D65 
 21576      725F7400 
 21577              	.LASF554:
 21578 142e 4C534D33 		.ascii	"LSM303AGR_ACC_R_ZDataOverrun\000"
 21578      30334147 
 21578      525F4143 
 21578      435F525F 
 21578      5A446174 
 21579              	.LASF163:
 21580 144b 54797065 		.ascii	"Type3Axis16bit_U\000"
 21580      33417869 
 21580      73313662 
 21580      69745F55 
 21580      00
 21581              	.LASF59:
 21582 145c 725F6374 		.ascii	"r_ctx\000"
 21582      7800
 21583              	.LASF66:
 21584 1462 76745F6E 		.ascii	"vt_next\000"
 21584      65787400 
 21585              	.LASF237:
 21586 146a 4C534D33 		.ascii	"LSM303AGR_ACC_FDS_BYPASSED\000"
 21586      30334147 
 21586      525F4143 
 21586      435F4644 
 21586      535F4259 
ARM GAS  /tmp/cc1ELVNa.s 			page 397


 21587              	.LASF355:
 21588 1485 4C534D33 		.ascii	"LSM303AGR_ACC_EMPTY_t\000"
 21588      30334147 
 21588      525F4143 
 21588      435F454D 
 21588      5054595F 
 21589              	.LASF262:
 21590 149b 4C534D33 		.ascii	"LSM303AGR_ACC_I1_AOI2_DISABLED\000"
 21590      30334147 
 21590      525F4143 
 21590      435F4931 
 21590      5F414F49 
 21591              	.LASF121:
 21592 14ba 73686966 		.ascii	"shift\000"
 21592      7400
 21593              	.LASF385:
 21594 14c0 4C534D33 		.ascii	"LSM303AGR_ACC_AOI_t\000"
 21594      30334147 
 21594      525F4143 
 21594      435F414F 
 21594      495F7400 
 21595              	.LASF20:
 21596 14d4 7274636E 		.ascii	"rtcnt_t\000"
 21596      745F7400 
 21597              	.LASF556:
 21598 14dc 4C534D33 		.ascii	"LSM303AGR_ACC_W_FifoThreshold\000"
 21598      30334147 
 21598      525F4143 
 21598      435F575F 
 21598      4669666F 
 21599              	.LASF148:
 21600 14fa 6D757465 		.ascii	"mutex\000"
 21600      7800
 21601              	.LASF228:
 21602 1500 4C534D33 		.ascii	"LSM303AGR_ACC_HPIS1_DISABLED\000"
 21602      30334147 
 21602      525F4143 
 21602      435F4850 
 21602      4953315F 
 21603              	.LASF507:
 21604 151d 4C534D33 		.ascii	"LSM303AGR_ACC_R_FIFO_DRDY1_on_INT1\000"
 21604      30334147 
 21604      525F4143 
 21604      435F525F 
 21604      4649464F 
 21605              	.LASF406:
 21606 1540 4C534D33 		.ascii	"LSM303AGR_ACC_IA_t\000"
 21606      30334147 
 21606      525F4143 
 21606      435F4941 
 21606      5F7400
 21607              	.LASF126:
 21608 1553 636C6561 		.ascii	"clear\000"
 21608      7200
 21609              	.LASF505:
 21610 1559 4C534D33 		.ascii	"LSM303AGR_ACC_R_FIFO_DRDY2_on_INT1\000"
 21610      30334147 
ARM GAS  /tmp/cc1ELVNa.s 			page 398


 21610      525F4143 
 21610      435F525F 
 21610      4649464F 
 21611              	.LASF290:
 21612 157c 4C534D33 		.ascii	"LSM303AGR_ACC_LIR_INT2_t\000"
 21612      30334147 
 21612      525F4143 
 21612      435F4C49 
 21612      525F494E 
 21613              	.LASF519:
 21614 1595 4C534D33 		.ascii	"LSM303AGR_ACC_R_HiRes\000"
 21614      30334147 
 21614      525F4143 
 21614      435F525F 
 21614      48695265 
 21615              	.LASF418:
 21616 15ab 4C534D33 		.ascii	"LSM303AGR_ACC_YD_t\000"
 21616      30334147 
 21616      525F4143 
 21616      435F5944 
 21616      5F7400
 21617              	.LASF88:
 21618 15be 49464352 		.ascii	"IFCR\000"
 21618      00
 21619              	.LASF2:
 21620 15c3 73697A65 		.ascii	"size_t\000"
 21620      5F7400
 21621              	.LASF15:
 21622 15ca 75696E74 		.ascii	"uint8_t\000"
 21622      385F7400 
 21623              	.LASF331:
 21624 15d2 4C534D33 		.ascii	"LSM303AGR_ACC_ZYXDA_AVAILABLE\000"
 21624      30334147 
 21624      525F4143 
 21624      435F5A59 
 21624      5844415F 
 21625              	.LASF61:
 21626 15f0 725F6F6C 		.ascii	"r_older\000"
 21626      64657200 
 21627              	.LASF32:
 21628 15f8 705F7072 		.ascii	"p_prev\000"
 21628      657600
 21629              	.LASF245:
 21630 15ff 4C534D33 		.ascii	"LSM303AGR_ACC_HPM_NORMAL\000"
 21630      30334147 
 21630      525F4143 
 21630      435F4850 
 21630      4D5F4E4F 
 21631              	.LASF393:
 21632 1618 4C534D33 		.ascii	"LSM303AGR_ACC_YL_UP\000"
 21632      30334147 
 21632      525F4143 
 21632      435F594C 
 21632      5F555000 
 21633              	.LASF103:
 21634 162c 65786974 		.ascii	"exitcode\000"
 21634      636F6465 
ARM GAS  /tmp/cc1ELVNa.s 			page 399


 21634      00
 21635              	.LASF495:
 21636 1635 4C534D33 		.ascii	"LSM303AGR_ACC_R_Data_Filter\000"
 21636      30334147 
 21636      525F4143 
 21636      435F525F 
 21636      44617461 
 21637              	.LASF636:
 21638 1651 4C534D33 		.ascii	"LSM303AGR_ACC_R_SingleCLICK\000"
 21638      30334147 
 21638      525F4143 
 21638      435F525F 
 21638      53696E67 
 21639              	.LASF606:
 21640 166d 4C534D33 		.ascii	"LSM303AGR_ACC_R_Int2_XHi\000"
 21640      30334147 
 21640      525F4143 
 21640      435F525F 
 21640      496E7432 
 21641              	.LASF274:
 21642 1686 4C534D33 		.ascii	"LSM303AGR_ACC_ST_DISABLED\000"
 21642      30334147 
 21642      525F4143 
 21642      435F5354 
 21642      5F444953 
 21643              	.LASF453:
 21644 16a0 4C534D33 		.ascii	"LSM303AGR_ACC_R_WHO_AM_I\000"
 21644      30334147 
 21644      525F4143 
 21644      435F525F 
 21644      57484F5F 
 21645              	.LASF559:
 21646 16b9 4C534D33 		.ascii	"LSM303AGR_ACC_R_TriggerSel\000"
 21646      30334147 
 21646      525F4143 
 21646      435F525F 
 21646      54726967 
 21647              	.LASF585:
 21648 16d4 4C534D33 		.ascii	"LSM303AGR_ACC_R_Int2EnXHi\000"
 21648      30334147 
 21648      525F4143 
 21648      435F525F 
 21648      496E7432 
 21649              	.LASF409:
 21650 16ee 4C534D33 		.ascii	"LSM303AGR_ACC_XS_t\000"
 21650      30334147 
 21650      525F4143 
 21650      435F5853 
 21650      5F7400
 21651              	.LASF421:
 21652 1701 4C534D33 		.ascii	"LSM303AGR_ACC_ZS_t\000"
 21652      30334147 
 21652      525F4143 
 21652      435F5A53 
 21652      5F7400
 21653              	.LASF159:
 21654 1714 7531365F 		.ascii	"u16_t\000"
ARM GAS  /tmp/cc1ELVNa.s 			page 400


 21654      7400
 21655              	.LASF129:
 21656 171a 4F535045 		.ascii	"OSPEEDR\000"
 21656      45445200 
 21657              	.LASF442:
 21658 1722 4C534D33 		.ascii	"LSM303AGR_ACC_DCLICK_t\000"
 21658      30334147 
 21658      525F4143 
 21658      435F4443 
 21658      4C49434B 
 21659              	.LASF327:
 21660 1739 4C534D33 		.ascii	"LSM303AGR_ACC_ZDA_NOT_AVAILABLE\000"
 21660      30334147 
 21660      525F4143 
 21660      435F5A44 
 21660      415F4E4F 
 21661              	.LASF631:
 21662 1759 4C534D33 		.ascii	"LSM303AGR_ACC_R_ZDouble\000"
 21662      30334147 
 21662      525F4143 
 21662      435F525F 
 21662      5A446F75 
 21663              	.LASF481:
 21664 1771 4C534D33 		.ascii	"LSM303AGR_ACC_R_XEN\000"
 21664      30334147 
 21664      525F4143 
 21664      435F525F 
 21664      58454E00 
 21665              	.LASF85:
 21666 1785 43504152 		.ascii	"CPAR\000"
 21666      00
 21667              	.LASF348:
 21668 178a 4C534D33 		.ascii	"LSM303AGR_ACC_FM_BYPASS\000"
 21668      30334147 
 21668      525F4143 
 21668      435F464D 
 21668      5F425950 
 21669              	.LASF249:
 21670 17a2 4C534D33 		.ascii	"LSM303AGR_ACC_HPM_t\000"
 21670      30334147 
 21670      525F4143 
 21670      435F4850 
 21670      4D5F7400 
 21671              	.LASF317:
 21672 17b6 4C534D33 		.ascii	"LSM303AGR_ACC_I2_INT1_t\000"
 21672      30334147 
 21672      525F4143 
 21672      435F4932 
 21672      5F494E54 
 21673              	.LASF630:
 21674 17ce 4C534D33 		.ascii	"LSM303AGR_ACC_W_ZDouble\000"
 21674      30334147 
 21674      525F4143 
 21674      435F575F 
 21674      5A446F75 
 21675              	.LASF356:
 21676 17e6 4C534D33 		.ascii	"LSM303AGR_ACC_OVRN_FIFO_NO_OVERRUN\000"
ARM GAS  /tmp/cc1ELVNa.s 			page 401


 21676      30334147 
 21676      525F4143 
 21676      435F4F56 
 21676      524E5F46 
 21677              	.LASF433:
 21678 1809 4C534D33 		.ascii	"LSM303AGR_ACC_Z_t\000"
 21678      30334147 
 21678      525F4143 
 21678      435F5A5F 
 21678      7400
 21679              	.LASF580:
 21680 181b 4C534D33 		.ascii	"LSM303AGR_ACC_W_Int1_AOI\000"
 21680      30334147 
 21680      525F4143 
 21680      435F575F 
 21680      496E7431 
 21681              	.LASF335:
 21682 1834 4C534D33 		.ascii	"LSM303AGR_ACC_XOR_t\000"
 21682      30334147 
 21682      525F4143 
 21682      435F584F 
 21682      525F7400 
 21683              	.LASF548:
 21684 1848 4C534D33 		.ascii	"LSM303AGR_ACC_R_XDataAvail\000"
 21684      30334147 
 21684      525F4143 
 21684      435F525F 
 21684      58446174 
 21685              	.LASF217:
 21686 1863 4C534D33 		.ascii	"LSM303AGR_ACC_XEN_ENABLED\000"
 21686      30334147 
 21686      525F4143 
 21686      435F5845 
 21686      4E5F454E 
 21687              	.LASF518:
 21688 187d 4C534D33 		.ascii	"LSM303AGR_ACC_W_HiRes\000"
 21688      30334147 
 21688      525F4143 
 21688      435F575F 
 21688      48695265 
 21689              	.LASF136:
 21690 1893 73746D33 		.ascii	"stm32_gpio_t\000"
 21690      325F6770 
 21690      696F5F74 
 21690      00
 21691              	.LASF102:
 21692 18a0 7264796D 		.ascii	"rdymsg\000"
 21692      736700
 21693              	.LASF561:
 21694 18a7 4C534D33 		.ascii	"LSM303AGR_ACC_R_FifoMode\000"
 21694      30334147 
 21694      525F4143 
 21694      435F525F 
 21694      4669666F 
 21695              	.LASF333:
 21696 18c0 4C534D33 		.ascii	"LSM303AGR_ACC_XOR_NO_OVERRUN\000"
 21696      30334147 
ARM GAS  /tmp/cc1ELVNa.s 			page 402


 21696      525F4143 
 21696      435F584F 
 21696      525F4E4F 
 21697              	.LASF33:
 21698 18dd 705F7072 		.ascii	"p_prio\000"
 21698      696F00
 21699              	.LASF13:
 21700 18e4 5F5F7569 		.ascii	"__uint64_t\000"
 21700      6E743634 
 21700      5F7400
 21701              	.LASF396:
 21702 18ef 4C534D33 		.ascii	"LSM303AGR_ACC_YH_UP\000"
 21702      30334147 
 21702      525F4143 
 21702      435F5948 
 21702      5F555000 
 21703              	.LASF210:
 21704 1903 4C534D33 		.ascii	"LSM303AGR_ACC_TEMP_EN_DISABLED\000"
 21704      30334147 
 21704      525F4143 
 21704      435F5445 
 21704      4D505F45 
 21705              	.LASF474:
 21706 1922 4C534D33 		.ascii	"LSM303AGR_ACC_R_DataXYZOverrun\000"
 21706      30334147 
 21706      525F4143 
 21706      435F525F 
 21706      44617461 
 21707              	.LASF315:
 21708 1941 4C534D33 		.ascii	"LSM303AGR_ACC_I2_INT1_DISABLED\000"
 21708      30334147 
 21708      525F4143 
 21708      435F4932 
 21708      5F494E54 
 21709              	.LASF84:
 21710 1960 434E4454 		.ascii	"CNDTR\000"
 21710      5200
 21711              	.LASF539:
 21712 1966 4C534D33 		.ascii	"LSM303AGR_ACC_R_Boot_on_INT2\000"
 21712      30334147 
 21712      525F4143 
 21712      435F525F 
 21712      426F6F74 
 21713              	.LASF226:
 21714 1983 4C534D33 		.ascii	"LSM303AGR_ACC_LPEN_ENABLED\000"
 21714      30334147 
 21714      525F4143 
 21714      435F4C50 
 21714      454E5F45 
 21715              	.LASF303:
 21716 199e 4C534D33 		.ascii	"LSM303AGR_ACC_H_LACTIVE_ACTIVE_HI\000"
 21716      30334147 
 21716      525F4143 
 21716      435F485F 
 21716      4C414354 
 21717              	.LASF256:
 21718 19c0 4C534D33 		.ascii	"LSM303AGR_ACC_I1_DRDY2_DISABLED\000"
ARM GAS  /tmp/cc1ELVNa.s 			page 403


 21718      30334147 
 21718      525F4143 
 21718      435F4931 
 21718      5F445244 
 21719              	.LASF141:
 21720 19e0 5350495F 		.ascii	"SPI_ACTIVE\000"
 21720      41435449 
 21720      564500
 21721              	.LASF31:
 21722 19eb 705F6E65 		.ascii	"p_next\000"
 21722      787400
 21723              	.LASF583:
 21724 19f2 4C534D33 		.ascii	"LSM303AGR_ACC_R_Int2EnXLo\000"
 21724      30334147 
 21724      525F4143 
 21724      435F525F 
 21724      496E7432 
 21725              	.LASF118:
 21726 1a0c 6368616E 		.ascii	"channel\000"
 21726      6E656C00 
 21727              	.LASF416:
 21728 1a14 4C534D33 		.ascii	"LSM303AGR_ACC_YD_DISABLED\000"
 21728      30334147 
 21728      525F4143 
 21728      435F5944 
 21728      5F444953 
 21729              	.LASF323:
 21730 1a2e 4C534D33 		.ascii	"LSM303AGR_ACC_XDA_t\000"
 21730      30334147 
 21730      525F4143 
 21730      435F5844 
 21730      415F7400 
 21731              	.LASF23:
 21732 1a42 74726566 		.ascii	"trefs_t\000"
 21732      735F7400 
 21733              	.LASF343:
 21734 1a4a 4C534D33 		.ascii	"LSM303AGR_ACC_ZYXOR_OVERRUN\000"
 21734      30334147 
 21734      525F4143 
 21734      435F5A59 
 21734      584F525F 
 21735              	.LASF48:
 21736 1a66 705F6D70 		.ascii	"p_mpool\000"
 21736      6F6F6C00 
 21737              	.LASF567:
 21738 1a6e 4C534D33 		.ascii	"LSM303AGR_ACC_R_Int1EnXLo\000"
 21738      30334147 
 21738      525F4143 
 21738      435F525F 
 21738      496E7431 
 21739              	.LASF652:
 21740 1a88 4C534D33 		.ascii	"LSM303AGR_ACC_Sensitivity_List\000"
 21740      30334147 
 21740      525F4143 
 21740      435F5365 
 21740      6E736974 
 21741              	.LASF273:
ARM GAS  /tmp/cc1ELVNa.s 			page 404


 21742 1aa7 4C534D33 		.ascii	"LSM303AGR_ACC_SIM_t\000"
 21742      30334147 
 21742      525F4143 
 21742      435F5349 
 21742      4D5F7400 
 21743              	.LASF488:
 21744 1abb 4C534D33 		.ascii	"LSM303AGR_ACC_W_hpf_aoi_en_int1\000"
 21744      30334147 
 21744      525F4143 
 21744      435F575F 
 21744      6870665F 
 21745              	.LASF490:
 21746 1adb 4C534D33 		.ascii	"LSM303AGR_ACC_W_hpf_aoi_en_int2\000"
 21746      30334147 
 21746      525F4143 
 21746      435F575F 
 21746      6870665F 
 21747              	.LASF211:
 21748 1afb 4C534D33 		.ascii	"LSM303AGR_ACC_TEMP_EN_ENABLED\000"
 21748      30334147 
 21748      525F4143 
 21748      435F5445 
 21748      4D505F45 
 21749              	.LASF375:
 21750 1b19 4C534D33 		.ascii	"LSM303AGR_ACC_ZLIE_ENABLED\000"
 21750      30334147 
 21750      525F4143 
 21750      435F5A4C 
 21750      49455F45 
 21751              	.LASF382:
 21752 1b34 4C534D33 		.ascii	"LSM303AGR_ACC_6D_t\000"
 21752      30334147 
 21752      525F4143 
 21752      435F3644 
 21752      5F7400
 21753              	.LASF412:
 21754 1b47 4C534D33 		.ascii	"LSM303AGR_ACC_XD_t\000"
 21754      30334147 
 21754      525F4143 
 21754      435F5844 
 21754      5F7400
 21755              	.LASF21:
 21756 1b5a 746D6F64 		.ascii	"tmode_t\000"
 21756      655F7400 
 21757              	.LASF608:
 21758 1b62 4C534D33 		.ascii	"LSM303AGR_ACC_R_Int2_YHi\000"
 21758      30334147 
 21758      525F4143 
 21758      435F525F 
 21758      496E7432 
 21759              	.LASF168:
 21760 1b7b 4C534D33 		.ascii	"LSM303AGR_ACC_BDU_ENABLED\000"
 21760      30334147 
 21760      525F4143 
 21760      435F4244 
 21760      555F454E 
 21761              	.LASF370:
ARM GAS  /tmp/cc1ELVNa.s 			page 405


 21762 1b95 4C534D33 		.ascii	"LSM303AGR_ACC_YLIE_t\000"
 21762      30334147 
 21762      525F4143 
 21762      435F594C 
 21762      49455F74 
 21763              	.LASF89:
 21764 1baa 444D415F 		.ascii	"DMA_TypeDef\000"
 21764      54797065 
 21764      44656600 
 21765              	.LASF595:
 21766 1bb6 4C534D33 		.ascii	"LSM303AGR_ACC_R_Int2_6D\000"
 21766      30334147 
 21766      525F4143 
 21766      435F525F 
 21766      496E7432 
 21767              	.LASF589:
 21768 1bce 4C534D33 		.ascii	"LSM303AGR_ACC_R_Int2EnYHi\000"
 21768      30334147 
 21768      525F4143 
 21768      435F525F 
 21768      496E7432 
 21769              	.LASF131:
 21770 1be8 42535252 		.ascii	"BSRR\000"
 21770      00
 21771              	.LASF457:
 21772 1bed 4C534D33 		.ascii	"LSM303AGR_ACC_W_FullScale\000"
 21772      30334147 
 21772      525F4143 
 21772      435F575F 
 21772      46756C6C 
 21773              	.LASF124:
 21774 1c07 73746D33 		.ascii	"stm32_dma_stream_t\000"
 21774      325F646D 
 21774      615F7374 
 21774      7265616D 
 21774      5F7400
 21775              	.LASF475:
 21776 1c1a 4C534D33 		.ascii	"LSM303AGR_ACC_R_int_counter\000"
 21776      30334147 
 21776      525F4143 
 21776      435F525F 
 21776      696E745F 
 21777              	.LASF542:
 21778 1c36 4C534D33 		.ascii	"LSM303AGR_ACC_W_I2_on_INT1\000"
 21778      30334147 
 21778      525F4143 
 21778      435F575F 
 21778      49325F6F 
 21779              	.LASF540:
 21780 1c51 4C534D33 		.ascii	"LSM303AGR_ACC_W_I2_on_INT2\000"
 21780      30334147 
 21780      525F4143 
 21780      435F575F 
 21780      49325F6F 
 21781              	.LASF478:
 21782 1c6c 4C534D33 		.ascii	"LSM303AGR_ACC_W_ADC_PD\000"
 21782      30334147 
ARM GAS  /tmp/cc1ELVNa.s 			page 406


 21782      525F4143 
 21782      435F575F 
 21782      4144435F 
 21783              	.LASF483:
 21784 1c83 4C534D33 		.ascii	"LSM303AGR_ACC_R_YEN\000"
 21784      30334147 
 21784      525F4143 
 21784      435F525F 
 21784      59454E00 
 21785              	.LASF619:
 21786 1c97 4C534D33 		.ascii	"LSM303AGR_ACC_R_Int2_Duration\000"
 21786      30334147 
 21786      525F4143 
 21786      435F525F 
 21786      496E7432 
 21787              	.LASF372:
 21788 1cb5 4C534D33 		.ascii	"LSM303AGR_ACC_YHIE_ENABLED\000"
 21788      30334147 
 21788      525F4143 
 21788      435F5948 
 21788      49455F45 
 21789              	.LASF364:
 21790 1cd0 4C534D33 		.ascii	"LSM303AGR_ACC_XLIE_t\000"
 21790      30334147 
 21790      525F4143 
 21790      435F584C 
 21790      49455F74 
 21791              	.LASF594:
 21792 1ce5 4C534D33 		.ascii	"LSM303AGR_ACC_W_Int2_6D\000"
 21792      30334147 
 21792      525F4143 
 21792      435F575F 
 21792      496E7432 
 21793              	.LASF538:
 21794 1cfd 4C534D33 		.ascii	"LSM303AGR_ACC_W_Boot_on_INT2\000"
 21794      30334147 
 21794      525F4143 
 21794      435F575F 
 21794      426F6F74 
 21795              	.LASF573:
 21796 1d1a 4C534D33 		.ascii	"LSM303AGR_ACC_R_Int1EnYHi\000"
 21796      30334147 
 21796      525F4143 
 21796      435F525F 
 21796      496E7431 
 21797              	.LASF314:
 21798 1d34 4C534D33 		.ascii	"LSM303AGR_ACC_I2_INT2_t\000"
 21798      30334147 
 21798      525F4143 
 21798      435F4932 
 21798      5F494E54 
 21799              	.LASF132:
 21800 1d4c 4C4F434B 		.ascii	"LOCKR\000"
 21800      5200
 21801              	.LASF292:
 21802 1d52 4C534D33 		.ascii	"LSM303AGR_ACC_D4D_INT1_ENABLED\000"
 21802      30334147 
ARM GAS  /tmp/cc1ELVNa.s 			page 407


 21802      525F4143 
 21802      435F4434 
 21802      445F494E 
 21803              	.LASF166:
 21804 1d71 73746174 		.ascii	"status_t\000"
 21804      75735F74 
 21804      00
 21805              	.LASF286:
 21806 1d7a 4C534D33 		.ascii	"LSM303AGR_ACC_D4D_INT2_ENABLED\000"
 21806      30334147 
 21806      525F4143 
 21806      435F4434 
 21806      445F494E 
 21807              	.LASF183:
 21808 1d99 4C534D33 		.ascii	"LSM303AGR_ACC_ODR_DO_1_6KHz\000"
 21808      30334147 
 21808      525F4143 
 21808      435F4F44 
 21808      525F444F 
 21809              	.LASF411:
 21810 1db5 4C534D33 		.ascii	"LSM303AGR_ACC_XD_ENABLED\000"
 21810      30334147 
 21810      525F4143 
 21810      435F5844 
 21810      5F454E41 
 21811              	.LASF169:
 21812 1dce 4C534D33 		.ascii	"LSM303AGR_ACC_BDU_t\000"
 21812      30334147 
 21812      525F4143 
 21812      435F4244 
 21812      555F7400 
 21813              	.LASF466:
 21814 1de2 4C534D33 		.ascii	"LSM303AGR_ACC_R_ODR\000"
 21814      30334147 
 21814      525F4143 
 21814      435F525F 
 21814      4F445200 
 21815              	.LASF76:
 21816 1df6 70616E69 		.ascii	"panic_msg\000"
 21816      635F6D73 
 21816      6700
 21817              	.LASF281:
 21818 1e00 4C534D33 		.ascii	"LSM303AGR_ACC_HR_t\000"
 21818      30334147 
 21818      525F4143 
 21818      435F4852 
 21818      5F7400
 21819              	.LASF142:
 21820 1e13 5350495F 		.ascii	"SPI_COMPLETE\000"
 21820      434F4D50 
 21820      4C455445 
 21820      00
 21821              	.LASF353:
 21822 1e20 4C534D33 		.ascii	"LSM303AGR_ACC_EMPTY_NOT_EMPTY\000"
 21822      30334147 
 21822      525F4143 
 21822      435F454D 
ARM GAS  /tmp/cc1ELVNa.s 			page 408


 21822      5054595F 
 21823              	.LASF60:
 21824 1e3e 725F6E65 		.ascii	"r_newer\000"
 21824      77657200 
 21825              	.LASF304:
 21826 1e46 4C534D33 		.ascii	"LSM303AGR_ACC_H_LACTIVE_ACTIVE_LO\000"
 21826      30334147 
 21826      525F4143 
 21826      435F485F 
 21826      4C414354 
 21827              	.LASF221:
 21828 1e68 4C534D33 		.ascii	"LSM303AGR_ACC_YEN_t\000"
 21828      30334147 
 21828      525F4143 
 21828      435F5945 
 21828      4E5F7400 
 21829              	.LASF231:
 21830 1e7c 4C534D33 		.ascii	"LSM303AGR_ACC_HPIS2_DISABLED\000"
 21830      30334147 
 21830      525F4143 
 21830      435F4850 
 21830      4953325F 
 21831              	.LASF282:
 21832 1e99 4C534D33 		.ascii	"LSM303AGR_ACC_BLE_LITTLE_ENDIAN\000"
 21832      30334147 
 21832      525F4143 
 21832      435F424C 
 21832      455F4C49 
 21833              	.LASF632:
 21834 1eb9 4C534D33 		.ascii	"LSM303AGR_ACC_R_ClickX\000"
 21834      30334147 
 21834      525F4143 
 21834      435F525F 
 21834      436C6963 
 21835              	.LASF24:
 21836 1ed0 74736C69 		.ascii	"tslices_t\000"
 21836      6365735F 
 21836      7400
 21837              	.LASF634:
 21838 1eda 4C534D33 		.ascii	"LSM303AGR_ACC_R_ClickZ\000"
 21838      30334147 
 21838      525F4143 
 21838      435F525F 
 21838      436C6963 
 21839              	.LASF560:
 21840 1ef1 4C534D33 		.ascii	"LSM303AGR_ACC_W_FifoMode\000"
 21840      30334147 
 21840      525F4143 
 21840      435F575F 
 21840      4669666F 
 21841              	.LASF68:
 21842 1f0a 76745F64 		.ascii	"vt_delta\000"
 21842      656C7461 
 21842      00
 21843              	.LASF83:
 21844 1f13 73697A65 		.ascii	"sizetype\000"
 21844      74797065 
ARM GAS  /tmp/cc1ELVNa.s 			page 409


 21844      00
 21845              	.LASF523:
 21846 1f1c 4C534D33 		.ascii	"LSM303AGR_ACC_R_4D_on_INT2\000"
 21846      30334147 
 21846      525F4143 
 21846      435F525F 
 21846      34445F6F 
 21847              	.LASF280:
 21848 1f37 4C534D33 		.ascii	"LSM303AGR_ACC_HR_ENABLED\000"
 21848      30334147 
 21848      525F4143 
 21848      435F4852 
 21848      5F454E41 
 21849              	.LASF460:
 21850 1f50 62756666 		.ascii	"buff\000"
 21850      00
 21851              	.LASF398:
 21852 1f55 4C534D33 		.ascii	"LSM303AGR_ACC_ZL_DOWN\000"
 21852      30334147 
 21852      525F4143 
 21852      435F5A4C 
 21852      5F444F57 
 21853              	.LASF649:
 21854 1f6b 6C736D33 		.ascii	"lsm303ad_accel_cfg\000"
 21854      30336164 
 21854      5F616363 
 21854      656C5F63 
 21854      666700
 21855              	.LASF7:
 21856 1f7e 73686F72 		.ascii	"short unsigned int\000"
 21856      7420756E 
 21856      7369676E 
 21856      65642069 
 21856      6E7400
 21857              	.LASF275:
 21858 1f91 4C534D33 		.ascii	"LSM303AGR_ACC_ST_SELF_TEST_0\000"
 21858      30334147 
 21858      525F4143 
 21858      435F5354 
 21858      5F53454C 
 21859              	.LASF276:
 21860 1fae 4C534D33 		.ascii	"LSM303AGR_ACC_ST_SELF_TEST_1\000"
 21860      30334147 
 21860      525F4143 
 21860      435F5354 
 21860      5F53454C 
 21861              	.LASF1:
 21862 1fcb 7369676E 		.ascii	"signed char\000"
 21862      65642063 
 21862      68617200 
 21863              	.LASF467:
 21864 1fd7 4C534D33 		.ascii	"LSM303AGR_ACC_R_x_data_avail\000"
 21864      30334147 
 21864      525F4143 
 21864      435F525F 
 21864      785F6461 
 21865              	.LASF309:
ARM GAS  /tmp/cc1ELVNa.s 			page 410


 21866 1ff4 4C534D33 		.ascii	"LSM303AGR_ACC_BOOT_I1_DISABLED\000"
 21866      30334147 
 21866      525F4143 
 21866      435F424F 
 21866      4F545F49 
 21867              	.LASF511:
 21868 2013 4C534D33 		.ascii	"LSM303AGR_ACC_R_FIFO_AOL1_on_INT1\000"
 21868      30334147 
 21868      525F4143 
 21868      435F525F 
 21868      4649464F 
 21869              	.LASF408:
 21870 2035 4C534D33 		.ascii	"LSM303AGR_ACC_XS_ENABLED\000"
 21870      30334147 
 21870      525F4143 
 21870      435F5853 
 21870      5F454E41 
 21871              	.LASF41:
 21872 204e 705F7072 		.ascii	"p_preempt\000"
 21872      65656D70 
 21872      7400
 21873              	.LASF587:
 21874 2058 4C534D33 		.ascii	"LSM303AGR_ACC_R_Int2EnYLo\000"
 21874      30334147 
 21874      525F4143 
 21874      435F525F 
 21874      496E7432 
 21875              	.LASF637:
 21876 2072 4C534D33 		.ascii	"LSM303AGR_ACC_R_DoubleCLICK\000"
 21876      30334147 
 21876      525F4143 
 21876      435F525F 
 21876      446F7562 
 21877              	.LASF655:
 21878 208e 2F6E6673 		.ascii	"/nfs/nfs7/home/vvedanta/P442/p442-submissions/senso"
 21878      2F6E6673 
 21878      372F686F 
 21878      6D652F76 
 21878      76656461 
 21879 20c1 7274696C 		.ascii	"rtile/final_project\000"
 21879      652F6669 
 21879      6E616C5F 
 21879      70726F6A 
 21879      65637400 
 21880              	.LASF638:
 21881 20d5 4C534D33 		.ascii	"LSM303AGR_ACC_R_CLICK_IA\000"
 21881      30334147 
 21881      525F4143 
 21881      435F525F 
 21881      434C4943 
 21882              	.LASF438:
 21883 20ee 4C534D33 		.ascii	"LSM303AGR_ACC_SCLICK_ENABLED\000"
 21883      30334147 
 21883      525F4143 
 21883      435F5343 
 21883      4C49434B 
 21884              	.LASF452:
ARM GAS  /tmp/cc1ELVNa.s 			page 411


 21885 210b 4C534D33 		.ascii	"LSM303AGR_ACC_ReadReg\000"
 21885      30334147 
 21885      525F4143 
 21885      435F5265 
 21885      61645265 
 21886              	.LASF553:
 21887 2121 4C534D33 		.ascii	"LSM303AGR_ACC_R_YDataOverrun\000"
 21887      30334147 
 21887      525F4143 
 21887      435F525F 
 21887      59446174 
 21888              	.LASF614:
 21889 213e 4C534D33 		.ascii	"LSM303AGR_ACC_W_Int2_Threshold\000"
 21889      30334147 
 21889      525F4143 
 21889      435F575F 
 21889      496E7432 
 21890              	.LASF571:
 21891 215d 4C534D33 		.ascii	"LSM303AGR_ACC_R_Int1EnYLo\000"
 21891      30334147 
 21891      525F4143 
 21891      435F525F 
 21891      496E7431 
 21892              	.LASF239:
 21893 2177 4C534D33 		.ascii	"LSM303AGR_ACC_FDS_t\000"
 21893      30334147 
 21893      525F4143 
 21893      435F4644 
 21893      535F7400 
 21894              	.LASF43:
 21895 218b 705F6D73 		.ascii	"p_msgqueue\000"
 21895      67717565 
 21895      756500
 21896              	.LASF114:
 21897 2196 6D5F6F77 		.ascii	"m_owner\000"
 21897      6E657200 
 21898              	.LASF516:
 21899 219e 4C534D33 		.ascii	"LSM303AGR_ACC_W_SelfTest\000"
 21899      30334147 
 21899      525F4143 
 21899      435F575F 
 21899      53656C66 
 21900              	.LASF610:
 21901 21b7 4C534D33 		.ascii	"LSM303AGR_ACC_R_Int2_ZHi\000"
 21901      30334147 
 21901      525F4143 
 21901      435F525F 
 21901      496E7432 
 21902              	.LASF325:
 21903 21d0 4C534D33 		.ascii	"LSM303AGR_ACC_YDA_AVAILABLE\000"
 21903      30334147 
 21903      525F4143 
 21903      435F5944 
 21903      415F4156 
 21904              	.LASF564:
 21905 21ec 4C534D33 		.ascii	"LSM303AGR_ACC_R_FifoOverrun\000"
 21905      30334147 
ARM GAS  /tmp/cc1ELVNa.s 			page 412


 21905      525F4143 
 21905      435F525F 
 21905      4669666F 
 21906              	.LASF145:
 21907 2208 73746174 		.ascii	"state\000"
 21907      6500
 21908              	.LASF445:
 21909 220e 4C534D33 		.ascii	"LSM303AGR_ACC_CLICK_IA_t\000"
 21909      30334147 
 21909      525F4143 
 21909      435F434C 
 21909      49434B5F 
 21910              	.LASF648:
 21911 2227 6E756D62 		.ascii	"numberOfByteForDimension\000"
 21911      65724F66 
 21911      42797465 
 21911      466F7244 
 21911      696D656E 
 21912              	.LASF206:
 21913 2240 4C534D33 		.ascii	"LSM303AGR_ACC_3OR__t\000"
 21913      30334147 
 21913      525F4143 
 21913      435F334F 
 21913      525F5F74 
 21914              	.LASF647:
 21915 2255 4C534D33 		.ascii	"LSM303AGR_ACC_Get_Voltage_ADC\000"
 21915      30334147 
 21915      525F4143 
 21915      435F4765 
 21915      745F566F 
 21916              	.LASF593:
 21917 2273 4C534D33 		.ascii	"LSM303AGR_ACC_R_Int2EnZHi\000"
 21917      30334147 
 21917      525F4143 
 21917      435F525F 
 21917      496E7432 
 21918              	.LASF209:
 21919 228d 4C534D33 		.ascii	"LSM303AGR_ACC_321OR__t\000"
 21919      30334147 
 21919      525F4143 
 21919      435F3332 
 21919      314F525F 
 21920              	.LASF259:
 21921 22a4 4C534D33 		.ascii	"LSM303AGR_ACC_I1_DRDY1_DISABLED\000"
 21921      30334147 
 21921      525F4143 
 21921      435F4931 
 21921      5F445244 
 21922              	.LASF485:
 21923 22c4 4C534D33 		.ascii	"LSM303AGR_ACC_R_ZEN\000"
 21923      30334147 
 21923      525F4143 
 21923      435F525F 
 21923      5A454E00 
 21924              	.LASF487:
 21925 22d8 4C534D33 		.ascii	"LSM303AGR_ACC_R_LOWPWR_EN\000"
 21925      30334147 
ARM GAS  /tmp/cc1ELVNa.s 			page 413


 21925      525F4143 
 21925      435F525F 
 21925      4C4F5750 
 21926              	.LASF78:
 21927 22f2 63685F73 		.ascii	"ch_system\000"
 21927      79737465 
 21927      6D00
 21928              	.LASF190:
 21929 22fc 4C534D33 		.ascii	"LSM303AGR_ACC_2DA__AVAILABLE\000"
 21929      30334147 
 21929      525F4143 
 21929      435F3244 
 21929      415F5F41 
 21930              	.LASF203:
 21931 2319 4C534D33 		.ascii	"LSM303AGR_ACC_2OR__t\000"
 21931      30334147 
 21931      525F4143 
 21931      435F324F 
 21931      525F5F74 
 21932              	.LASF577:
 21933 232e 4C534D33 		.ascii	"LSM303AGR_ACC_R_Int1EnZHi\000"
 21933      30334147 
 21933      525F4143 
 21933      435F525F 
 21933      496E7431 
 21934              	.LASF265:
 21935 2348 4C534D33 		.ascii	"LSM303AGR_ACC_I1_AOI1_DISABLED\000"
 21935      30334147 
 21935      525F4143 
 21935      435F4931 
 21935      5F414F49 
 21936              	.LASF549:
 21937 2367 4C534D33 		.ascii	"LSM303AGR_ACC_R_YDataAvail\000"
 21937      30334147 
 21937      525F4143 
 21937      435F525F 
 21937      59446174 
 21938              	.LASF109:
 21939 2382 63685F73 		.ascii	"ch_semaphore\000"
 21939      656D6170 
 21939      686F7265 
 21939      00
 21940              	.LASF439:
 21941 238f 4C534D33 		.ascii	"LSM303AGR_ACC_SCLICK_t\000"
 21941      30334147 
 21941      525F4143 
 21941      435F5343 
 21941      4C49434B 
 21942              	.LASF200:
 21943 23a6 4C534D33 		.ascii	"LSM303AGR_ACC_1OR__t\000"
 21943      30334147 
 21943      525F4143 
 21943      435F314F 
 21943      525F5F74 
 21944              	.LASF449:
 21945 23bb 4C534D33 		.ascii	"LSM303AGR_ACC_WriteReg\000"
 21945      30334147 
ARM GAS  /tmp/cc1ELVNa.s 			page 414


 21945      525F4143 
 21945      435F5772 
 21945      69746552 
 21946              	.LASF53:
 21947 23d2 74687265 		.ascii	"threads_queue_t\000"
 21947      6164735F 
 21947      71756575 
 21947      655F7400 
 21948              	.LASF40:
 21949 23e2 705F7265 		.ascii	"p_refs\000"
 21949      667300
 21950              	.LASF351:
 21951 23e9 4C534D33 		.ascii	"LSM303AGR_ACC_FM_TRIGGER\000"
 21951      30334147 
 21951      525F4143 
 21951      435F464D 
 21951      5F545249 
 21952              	.LASF9:
 21953 2402 6C6F6E67 		.ascii	"long int\000"
 21953      20696E74 
 21953      00
 21954              	.LASF81:
 21955 240b 6D61696E 		.ascii	"mainthread\000"
 21955      74687265 
 21955      616400
 21956              	.LASF113:
 21957 2416 6D5F7175 		.ascii	"m_queue\000"
 21957      65756500 
 21958              	.LASF312:
 21959 241e 4C534D33 		.ascii	"LSM303AGR_ACC_I2_INT2_DISABLED\000"
 21959      30334147 
 21959      525F4143 
 21959      435F4932 
 21959      5F494E54 
 21960              	.LASF137:
 21961 243d 696F706F 		.ascii	"ioportid_t\000"
 21961      72746964 
 21961      5F7400
 21962              	.LASF443:
 21963 2448 4C534D33 		.ascii	"LSM303AGR_ACC_CLICK_IA_DOWN\000"
 21963      30334147 
 21963      525F4143 
 21963      435F434C 
 21963      49434B5F 
 21964              	.LASF319:
 21965 2464 4C534D33 		.ascii	"LSM303AGR_ACC_I2_CLICKEN_ENABLED\000"
 21965      30334147 
 21965      525F4143 
 21965      435F4932 
 21965      5F434C49 
 21966              	.LASF297:
 21967 2485 4C534D33 		.ascii	"LSM303AGR_ACC_FIFO_EN_DISABLED\000"
 21967      30334147 
 21967      525F4143 
 21967      435F4649 
 21967      464F5F45 
 21968              	.LASF235:
ARM GAS  /tmp/cc1ELVNa.s 			page 415


 21969 24a4 4C534D33 		.ascii	"LSM303AGR_ACC_HPCLICK_ENABLED\000"
 21969      30334147 
 21969      525F4143 
 21969      435F4850 
 21969      434C4943 
 21970              	.LASF526:
 21971 24c2 4C534D33 		.ascii	"LSM303AGR_ACC_W_4D_on_INT1\000"
 21971      30334147 
 21971      525F4143 
 21971      435F575F 
 21971      34445F6F 
 21972              	.LASF522:
 21973 24dd 4C534D33 		.ascii	"LSM303AGR_ACC_W_4D_on_INT2\000"
 21973      30334147 
 21973      525F4143 
 21973      435F575F 
 21973      34445F6F 
 21974              	.LASF651:
 21975 24f8 53504944 		.ascii	"SPID2\000"
 21975      3200
 21976              	.LASF105:
 21977 24fe 77747472 		.ascii	"wttrp\000"
 21977      7000
 21978              	.LASF98:
 21979 2504 636F6E74 		.ascii	"context\000"
 21979      65787400 
 21980              	.LASF359:
 21981 250c 4C534D33 		.ascii	"LSM303AGR_ACC_WTM_NORMAL\000"
 21981      30334147 
 21981      525F4143 
 21981      435F5754 
 21981      4D5F4E4F 
 21982              	.LASF440:
 21983 2525 4C534D33 		.ascii	"LSM303AGR_ACC_DCLICK_DISABLED\000"
 21983      30334147 
 21983      525F4143 
 21983      435F4443 
 21983      4C49434B 
 21984              	.LASF646:
 21985 2543 4C534D33 		.ascii	"LSM303AGR_ACC_R_ClickTimeWindow\000"
 21985      30334147 
 21985      525F4143 
 21985      435F525F 
 21985      436C6963 
 21986              	.LASF198:
 21987 2563 4C534D33 		.ascii	"LSM303AGR_ACC_1OR__NO_OVERRUN\000"
 21987      30334147 
 21987      525F4143 
 21987      435F314F 
 21987      525F5F4E 
 21988              	.LASF174:
 21989 2581 4C534D33 		.ascii	"LSM303AGR_ACC_FS_t\000"
 21989      30334147 
 21989      525F4143 
 21989      435F4653 
 21989      5F7400
 21990              	.LASF344:
ARM GAS  /tmp/cc1ELVNa.s 			page 416


 21991 2594 4C534D33 		.ascii	"LSM303AGR_ACC_ZYXOR_t\000"
 21991      30334147 
 21991      525F4143 
 21991      435F5A59 
 21991      584F525F 
 21992              	.LASF18:
 21993 25aa 75696E74 		.ascii	"uint32_t\000"
 21993      33325F74 
 21993      00
 21994              	.LASF591:
 21995 25b3 4C534D33 		.ascii	"LSM303AGR_ACC_R_Int2EnZLo\000"
 21995      30334147 
 21995      525F4143 
 21995      435F525F 
 21995      496E7432 
 21996              	.LASF388:
 21997 25cd 4C534D33 		.ascii	"LSM303AGR_ACC_XL_t\000"
 21997      30334147 
 21997      525F4143 
 21997      435F584C 
 21997      5F7400
 21998              	.LASF179:
 21999 25e0 4C534D33 		.ascii	"LSM303AGR_ACC_ODR_DO_50Hz\000"
 21999      30334147 
 21999      525F4143 
 21999      435F4F44 
 21999      525F444F 
 22000              	.LASF261:
 22001 25fa 4C534D33 		.ascii	"LSM303AGR_ACC_I1_DRDY1_t\000"
 22001      30334147 
 22001      525F4143 
 22001      435F4931 
 22001      5F445244 
 22002              	.LASF96:
 22003 2613 72656761 		.ascii	"regarm_t\000"
 22003      726D5F74 
 22003      00
 22004              	.LASF27:
 22005 261c 6576656E 		.ascii	"eventmask_t\000"
 22005      746D6173 
 22005      6B5F7400 
 22006              	.LASF598:
 22007 2628 4C534D33 		.ascii	"LSM303AGR_ACC_R_Int1_Xlo\000"
 22007      30334147 
 22007      525F4143 
 22007      435F525F 
 22007      496E7431 
 22008              	.LASF436:
 22009 2641 4C534D33 		.ascii	"LSM303AGR_ACC_SIGN_t\000"
 22009      30334147 
 22009      525F4143 
 22009      435F5349 
 22009      474E5F74 
 22010              	.LASF575:
 22011 2656 4C534D33 		.ascii	"LSM303AGR_ACC_R_Int1EnZLo\000"
 22011      30334147 
 22011      525F4143 
ARM GAS  /tmp/cc1ELVNa.s 			page 417


 22011      435F525F 
 22011      496E7431 
 22012              	.LASF447:
 22013 2670 52454731 		.ascii	"REG1_VAL\000"
 22013      5F56414C 
 22013      00
 22014              	.LASF537:
 22015 2679 4C534D33 		.ascii	"LSM303AGR_ACC_R_P2_ACT\000"
 22015      30334147 
 22015      525F4143 
 22015      435F525F 
 22015      50325F41 
 22016              	.LASF11:
 22017 2690 6C6F6E67 		.ascii	"long unsigned int\000"
 22017      20756E73 
 22017      69676E65 
 22017      6420696E 
 22017      7400
 22018              	.LASF260:
 22019 26a2 4C534D33 		.ascii	"LSM303AGR_ACC_I1_DRDY1_ENABLED\000"
 22019      30334147 
 22019      525F4143 
 22019      435F4931 
 22019      5F445244 
 22020              	.LASF257:
 22021 26c1 4C534D33 		.ascii	"LSM303AGR_ACC_I1_DRDY2_ENABLED\000"
 22021      30334147 
 22021      525F4143 
 22021      435F4931 
 22021      5F445244 
 22022              	.LASF489:
 22023 26e0 4C534D33 		.ascii	"LSM303AGR_ACC_R_hpf_aoi_en_int1\000"
 22023      30334147 
 22023      525F4143 
 22023      435F525F 
 22023      6870665F 
 22024              	.LASF491:
 22025 2700 4C534D33 		.ascii	"LSM303AGR_ACC_R_hpf_aoi_en_int2\000"
 22025      30334147 
 22025      525F4143 
 22025      435F525F 
 22025      6870665F 
 22026              	.LASF529:
 22027 2720 4C534D33 		.ascii	"LSM303AGR_ACC_R_LatchInterrupt_on_INT1\000"
 22027      30334147 
 22027      525F4143 
 22027      435F525F 
 22027      4C617463 
 22028              	.LASF525:
 22029 2747 4C534D33 		.ascii	"LSM303AGR_ACC_R_LatchInterrupt_on_INT2\000"
 22029      30334147 
 22029      525F4143 
 22029      435F525F 
 22029      4C617463 
 22030              	.LASF645:
 22031 276e 4C534D33 		.ascii	"LSM303AGR_ACC_W_ClickTimeWindow\000"
 22031      30334147 
ARM GAS  /tmp/cc1ELVNa.s 			page 418


 22031      525F4143 
 22031      435F575F 
 22031      436C6963 
 22032              	.LASF399:
 22033 278e 4C534D33 		.ascii	"LSM303AGR_ACC_ZL_UP\000"
 22033      30334147 
 22033      525F4143 
 22033      435F5A4C 
 22033      5F555000 
 22034              	.LASF213:
 22035 27a2 4C534D33 		.ascii	"LSM303AGR_ACC_ADC_PD_DISABLED\000"
 22035      30334147 
 22035      525F4143 
 22035      435F4144 
 22035      435F5044 
 22036              	.LASF293:
 22037 27c0 4C534D33 		.ascii	"LSM303AGR_ACC_D4D_INT1_t\000"
 22037      30334147 
 22037      525F4143 
 22037      435F4434 
 22037      445F494E 
 22038              	.LASF607:
 22039 27d9 4C534D33 		.ascii	"LSM303AGR_ACC_R_Int2_YLo\000"
 22039      30334147 
 22039      525F4143 
 22039      435F525F 
 22039      496E7432 
 22040              	.LASF116:
 22041 27f2 63686172 		.ascii	"char\000"
 22041      00
 22042              	.LASF57:
 22043 27f7 725F7175 		.ascii	"r_queue\000"
 22043      65756500 
 22044              	.LASF417:
 22045 27ff 4C534D33 		.ascii	"LSM303AGR_ACC_YD_ENABLED\000"
 22045      30334147 
 22045      525F4143 
 22045      435F5944 
 22045      5F454E41 
 22046              	.LASF534:
 22047 2818 4C534D33 		.ascii	"LSM303AGR_ACC_W_IntActive\000"
 22047      30334147 
 22047      525F4143 
 22047      435F575F 
 22047      496E7441 
 22048              	.LASF178:
 22049 2832 4C534D33 		.ascii	"LSM303AGR_ACC_ODR_DO_25Hz\000"
 22049      30334147 
 22049      525F4143 
 22049      435F4F44 
 22049      525F444F 
 22050              	.LASF470:
 22051 284c 4C534D33 		.ascii	"LSM303AGR_ACC_R_xyz_data_avail\000"
 22051      30334147 
 22051      525F4143 
 22051      435F525F 
 22051      78797A5F 
ARM GAS  /tmp/cc1ELVNa.s 			page 419


 22052              	.LASF294:
 22053 286b 4C534D33 		.ascii	"LSM303AGR_ACC_LIR_INT1_DISABLED\000"
 22053      30334147 
 22053      525F4143 
 22053      435F4C49 
 22053      525F494E 
 22054              	.LASF332:
 22055 288b 4C534D33 		.ascii	"LSM303AGR_ACC_ZYXDA_t\000"
 22055      30334147 
 22055      525F4143 
 22055      435F5A59 
 22055      5844415F 
 22056              	.LASF381:
 22057 28a1 4C534D33 		.ascii	"LSM303AGR_ACC_6D_ENABLED\000"
 22057      30334147 
 22057      525F4143 
 22057      435F3644 
 22057      5F454E41 
 22058              	.LASF617:
 22059 28ba 4C534D33 		.ascii	"LSM303AGR_ACC_R_Int1_Duration\000"
 22059      30334147 
 22059      525F4143 
 22059      435F525F 
 22059      496E7431 
 22060              	.LASF498:
 22061 28d8 4C534D33 		.ascii	"LSM303AGR_ACC_W_hpf_mode\000"
 22061      30334147 
 22061      525F4143 
 22061      435F575F 
 22061      6870665F 
 22062              	.LASF369:
 22063 28f1 4C534D33 		.ascii	"LSM303AGR_ACC_YLIE_ENABLED\000"
 22063      30334147 
 22063      525F4143 
 22063      435F594C 
 22063      49455F45 
 22064              	.LASF555:
 22065 290c 4C534D33 		.ascii	"LSM303AGR_ACC_R_XYZDataOverrun\000"
 22065      30334147 
 22065      525F4143 
 22065      435F525F 
 22065      58595A44 
 22066              	.LASF455:
 22067 292b 6E657756 		.ascii	"newValue\000"
 22067      616C7565 
 22067      00
 22068              	.LASF299:
 22069 2934 4C534D33 		.ascii	"LSM303AGR_ACC_FIFO_EN_t\000"
 22069      30334147 
 22069      525F4143 
 22069      435F4649 
 22069      464F5F45 
 22070              	.LASF514:
 22071 294c 4C534D33 		.ascii	"LSM303AGR_ACC_W_SPI_mode\000"
 22071      30334147 
 22071      525F4143 
 22071      435F575F 
ARM GAS  /tmp/cc1ELVNa.s 			page 420


 22071      5350495F 
 22072              	.LASF362:
 22073 2965 4C534D33 		.ascii	"LSM303AGR_ACC_XLIE_DISABLED\000"
 22073      30334147 
 22073      525F4143 
 22073      435F584C 
 22073      49455F44 
 22074              	.LASF501:
 22075 2981 4C534D33 		.ascii	"LSM303AGR_ACC_R_FIFO_Overrun_on_INT1\000"
 22075      30334147 
 22075      525F4143 
 22075      435F525F 
 22075      4649464F 
 22076              	.LASF366:
 22077 29a6 4C534D33 		.ascii	"LSM303AGR_ACC_XHIE_ENABLED\000"
 22077      30334147 
 22077      525F4143 
 22077      435F5848 
 22077      49455F45 
 22078              	.LASF177:
 22079 29c1 4C534D33 		.ascii	"LSM303AGR_ACC_ODR_DO_10Hz\000"
 22079      30334147 
 22079      525F4143 
 22079      435F4F44 
 22079      525F444F 
 22080              	.LASF374:
 22081 29db 4C534D33 		.ascii	"LSM303AGR_ACC_ZLIE_DISABLED\000"
 22081      30334147 
 22081      525F4143 
 22081      435F5A4C 
 22081      49455F44 
 22082              	.LASF336:
 22083 29f7 4C534D33 		.ascii	"LSM303AGR_ACC_YOR_NO_OVERRUN\000"
 22083      30334147 
 22083      525F4143 
 22083      435F594F 
 22083      525F4E4F 
 22084              	.LASF413:
 22085 2a14 4C534D33 		.ascii	"LSM303AGR_ACC_YS_DISABLED\000"
 22085      30334147 
 22085      525F4143 
 22085      435F5953 
 22085      5F444953 
 22086              	.LASF338:
 22087 2a2e 4C534D33 		.ascii	"LSM303AGR_ACC_YOR_t\000"
 22087      30334147 
 22087      525F4143 
 22087      435F594F 
 22087      525F7400 
 22088              	.LASF161:
 22089 2a42 69313662 		.ascii	"i16bit\000"
 22089      697400
 22090              	.LASF621:
 22091 2a49 4C534D33 		.ascii	"LSM303AGR_ACC_R_XSingle\000"
 22091      30334147 
 22091      525F4143 
 22091      435F525F 
ARM GAS  /tmp/cc1ELVNa.s 			page 421


 22091      5853696E 
 22092              	.LASF318:
 22093 2a61 4C534D33 		.ascii	"LSM303AGR_ACC_I2_CLICKEN_DISABLED\000"
 22093      30334147 
 22093      525F4143 
 22093      435F4932 
 22093      5F434C49 
 22094              	.LASF616:
 22095 2a83 4C534D33 		.ascii	"LSM303AGR_ACC_W_Int1_Duration\000"
 22095      30334147 
 22095      525F4143 
 22095      435F575F 
 22095      496E7431 
 22096              	.LASF28:
 22097 2aa1 636E745F 		.ascii	"cnt_t\000"
 22097      7400
 22098              	.LASF444:
 22099 2aa7 4C534D33 		.ascii	"LSM303AGR_ACC_CLICK_IA_UP\000"
 22099      30334147 
 22099      525F4143 
 22099      435F434C 
 22099      49434B5F 
 22100              	.LASF389:
 22101 2ac1 4C534D33 		.ascii	"LSM303AGR_ACC_XH_DOWN\000"
 22101      30334147 
 22101      525F4143 
 22101      435F5848 
 22101      5F444F57 
 22102              	.LASF461:
 22103 2ad7 4C534D33 		.ascii	"LSM303AGR_ACC_Get_Acceleration\000"
 22103      30334147 
 22103      525F4143 
 22103      435F4765 
 22103      745F4163 
 22104              	.LASF119:
 22105 2af6 636D6173 		.ascii	"cmask\000"
 22105      6B00
 22106              	.LASF223:
 22107 2afc 4C534D33 		.ascii	"LSM303AGR_ACC_ZEN_ENABLED\000"
 22107      30334147 
 22107      525F4143 
 22107      435F5A45 
 22107      4E5F454E 
 22108              	.LASF134:
 22109 2b16 41465248 		.ascii	"AFRH\000"
 22109      00
 22110              	.LASF133:
 22111 2b1b 4146524C 		.ascii	"AFRL\000"
 22111      00
 22112              	.LASF620:
 22113 2b20 4C534D33 		.ascii	"LSM303AGR_ACC_W_XSingle\000"
 22113      30334147 
 22113      525F4143 
 22113      435F575F 
 22113      5853696E 
 22114              	.LASF397:
 22115 2b38 4C534D33 		.ascii	"LSM303AGR_ACC_YH_t\000"
ARM GAS  /tmp/cc1ELVNa.s 			page 422


 22115      30334147 
 22115      525F4143 
 22115      435F5948 
 22115      5F7400
 22116              	.LASF240:
 22117 2b4b 4C534D33 		.ascii	"LSM303AGR_ACC_HPCF_00\000"
 22117      30334147 
 22117      525F4143 
 22117      435F4850 
 22117      43465F30 
 22118              	.LASF241:
 22119 2b61 4C534D33 		.ascii	"LSM303AGR_ACC_HPCF_01\000"
 22119      30334147 
 22119      525F4143 
 22119      435F4850 
 22119      43465F30 
 22120              	.LASF234:
 22121 2b77 4C534D33 		.ascii	"LSM303AGR_ACC_HPCLICK_DISABLED\000"
 22121      30334147 
 22121      525F4143 
 22121      435F4850 
 22121      434C4943 
 22122              	.LASF402:
 22123 2b96 4C534D33 		.ascii	"LSM303AGR_ACC_ZH_UP\000"
 22123      30334147 
 22123      525F4143 
 22123      435F5A48 
 22123      5F555000 
 22124              	.LASF258:
 22125 2baa 4C534D33 		.ascii	"LSM303AGR_ACC_I1_DRDY2_t\000"
 22125      30334147 
 22125      525F4143 
 22125      435F4931 
 22125      5F445244 
 22126              	.LASF167:
 22127 2bc3 4C534D33 		.ascii	"LSM303AGR_ACC_BDU_DISABLED\000"
 22127      30334147 
 22127      525F4143 
 22127      435F4244 
 22127      555F4449 
 22128              	.LASF146:
 22129 2bde 636F6E66 		.ascii	"config\000"
 22129      696700
 22130              	.LASF613:
 22131 2be5 4C534D33 		.ascii	"LSM303AGR_ACC_R_Int1_Threshold\000"
 22131      30334147 
 22131      525F4143 
 22131      435F525F 
 22131      496E7431 
 22132              	.LASF308:
 22133 2c04 4C534D33 		.ascii	"LSM303AGR_ACC_P2_ACT_t\000"
 22133      30334147 
 22133      525F4143 
 22133      435F5032 
 22133      5F414354 
 22134              	.LASF135:
 22135 2c1b 41534352 		.ascii	"ASCR\000"
ARM GAS  /tmp/cc1ELVNa.s 			page 423


 22135      00
 22136              	.LASF242:
 22137 2c20 4C534D33 		.ascii	"LSM303AGR_ACC_HPCF_10\000"
 22137      30334147 
 22137      525F4143 
 22137      435F4850 
 22137      43465F31 
 22138              	.LASF243:
 22139 2c36 4C534D33 		.ascii	"LSM303AGR_ACC_HPCF_11\000"
 22139      30334147 
 22139      525F4143 
 22139      435F4850 
 22139      43465F31 
 22140              	.LASF63:
 22141 2c4c 76746675 		.ascii	"vtfunc_t\000"
 22141      6E635F74 
 22141      00
 22142              	.LASF377:
 22143 2c55 4C534D33 		.ascii	"LSM303AGR_ACC_ZHIE_DISABLED\000"
 22143      30334147 
 22143      525F4143 
 22143      435F5A48 
 22143      49455F44 
 22144              	.LASF196:
 22145 2c71 4C534D33 		.ascii	"LSM303AGR_ACC_321DA__AVAILABLE\000"
 22145      30334147 
 22145      525F4143 
 22145      435F3332 
 22145      3144415F 
 22146              	.LASF310:
 22147 2c90 4C534D33 		.ascii	"LSM303AGR_ACC_BOOT_I1_ENABLED\000"
 22147      30334147 
 22147      525F4143 
 22147      435F424F 
 22147      4F545F49 
 22148              	.LASF104:
 22149 2cae 77746F62 		.ascii	"wtobjp\000"
 22149      6A7000
 22150              	.LASF47:
 22151 2cb5 705F7265 		.ascii	"p_realprio\000"
 22151      616C7072 
 22151      696F00
 22152              	.LASF625:
 22153 2cc0 4C534D33 		.ascii	"LSM303AGR_ACC_R_YSingle\000"
 22153      30334147 
 22153      525F4143 
 22153      435F525F 
 22153      5953696E 
 22154              	.LASF107:
 22155 2cd8 77746D74 		.ascii	"wtmtxp\000"
 22155      787000
 22156              	.LASF222:
 22157 2cdf 4C534D33 		.ascii	"LSM303AGR_ACC_ZEN_DISABLED\000"
 22157      30334147 
 22157      525F4143 
 22157      435F5A45 
 22157      4E5F4449 
ARM GAS  /tmp/cc1ELVNa.s 			page 424


 22158              	.LASF326:
 22159 2cfa 4C534D33 		.ascii	"LSM303AGR_ACC_YDA_t\000"
 22159      30334147 
 22159      525F4143 
 22159      435F5944 
 22159      415F7400 
 22160              	.LASF550:
 22161 2d0e 4C534D33 		.ascii	"LSM303AGR_ACC_R_ZDataAvail\000"
 22161      30334147 
 22161      525F4143 
 22161      435F525F 
 22161      5A446174 
 22162              	.LASF170:
 22163 2d29 4C534D33 		.ascii	"LSM303AGR_ACC_FS_2G\000"
 22163      30334147 
 22163      525F4143 
 22163      435F4653 
 22163      5F324700 
 22164              	.LASF536:
 22165 2d3d 4C534D33 		.ascii	"LSM303AGR_ACC_W_P2_ACT\000"
 22165      30334147 
 22165      525F4143 
 22165      435F575F 
 22165      50325F41 
 22166              	.LASF552:
 22167 2d54 4C534D33 		.ascii	"LSM303AGR_ACC_R_XDataOverrun\000"
 22167      30334147 
 22167      525F4143 
 22167      435F525F 
 22167      58446174 
 22168              	.LASF322:
 22169 2d71 4C534D33 		.ascii	"LSM303AGR_ACC_XDA_AVAILABLE\000"
 22169      30334147 
 22169      525F4143 
 22169      435F5844 
 22169      415F4156 
 22170              	.LASF437:
 22171 2d8d 4C534D33 		.ascii	"LSM303AGR_ACC_SCLICK_DISABLED\000"
 22171      30334147 
 22171      525F4143 
 22171      435F5343 
 22171      4C49434B 
 22172              	.LASF56:
 22173 2dab 63685F72 		.ascii	"ch_ready_list\000"
 22173      65616479 
 22173      5F6C6973 
 22173      7400
 22174              	.LASF130:
 22175 2db9 50555044 		.ascii	"PUPDR\000"
 22175      5200
 22176              	.LASF8:
 22177 2dbf 5F5F696E 		.ascii	"__int32_t\000"
 22177      7433325F 
 22177      7400
 22178              	.LASF611:
 22179 2dc9 4C534D33 		.ascii	"LSM303AGR_ACC_R_Int2_IA\000"
 22179      30334147 
ARM GAS  /tmp/cc1ELVNa.s 			page 425


 22179      525F4143 
 22179      435F525F 
 22179      496E7432 
 22180              	.LASF10:
 22181 2de1 5F5F7569 		.ascii	"__uint32_t\000"
 22181      6E743332 
 22181      5F7400
 22182              	.LASF75:
 22183 2dec 63685F73 		.ascii	"ch_system_debug\000"
 22183      79737465 
 22183      6D5F6465 
 22183      62756700 
 22184              	.LASF255:
 22185 2dfc 4C534D33 		.ascii	"LSM303AGR_ACC_I1_WTM_t\000"
 22185      30334147 
 22185      525F4143 
 22185      435F4931 
 22185      5F57544D 
 22186              	.LASF429:
 22187 2e13 4C534D33 		.ascii	"LSM303AGR_ACC_Y_UP\000"
 22187      30334147 
 22187      525F4143 
 22187      435F595F 
 22187      555000
 22188              	.LASF384:
 22189 2e26 4C534D33 		.ascii	"LSM303AGR_ACC_AOI_AND\000"
 22189      30334147 
 22189      525F4143 
 22189      435F414F 
 22189      495F414E 
 22190              	.LASF499:
 22191 2e3c 4C534D33 		.ascii	"LSM303AGR_ACC_R_hpf_mode\000"
 22191      30334147 
 22191      525F4143 
 22191      435F525F 
 22191      6870665F 
 22192              	.LASF199:
 22193 2e55 4C534D33 		.ascii	"LSM303AGR_ACC_1OR__OVERRUN\000"
 22193      30334147 
 22193      525F4143 
 22193      435F314F 
 22193      525F5F4F 
 22194              	.LASF328:
 22195 2e70 4C534D33 		.ascii	"LSM303AGR_ACC_ZDA_AVAILABLE\000"
 22195      30334147 
 22195      525F4143 
 22195      435F5A44 
 22195      415F4156 
 22196              	.LASF229:
 22197 2e8c 4C534D33 		.ascii	"LSM303AGR_ACC_HPIS1_ENABLED\000"
 22197      30334147 
 22197      525F4143 
 22197      435F4850 
 22197      4953315F 
 22198              	.LASF232:
 22199 2ea8 4C534D33 		.ascii	"LSM303AGR_ACC_HPIS2_ENABLED\000"
 22199      30334147 
ARM GAS  /tmp/cc1ELVNa.s 			page 426


 22199      525F4143 
 22199      435F4850 
 22199      4953325F 
 22200              	.LASF122:
 22201 2ec4 73656C66 		.ascii	"selfindex\000"
 22201      696E6465 
 22201      7800
 22202              	.LASF415:
 22203 2ece 4C534D33 		.ascii	"LSM303AGR_ACC_YS_t\000"
 22203      30334147 
 22203      525F4143 
 22203      435F5953 
 22203      5F7400
 22204              	.LASF117:
 22205 2ee1 6D757465 		.ascii	"mutex_t\000"
 22205      785F7400 
 22206              	.LASF45:
 22207 2ee9 705F6570 		.ascii	"p_epending\000"
 22207      656E6469 
 22207      6E6700
 22208              	.LASF337:
 22209 2ef4 4C534D33 		.ascii	"LSM303AGR_ACC_YOR_OVERRUN\000"
 22209      30334147 
 22209      525F4143 
 22209      435F594F 
 22209      525F4F56 
 22210              	.LASF127:
 22211 2f0e 4D4F4445 		.ascii	"MODER\000"
 22211      5200
 22212              	.LASF305:
 22213 2f14 4C534D33 		.ascii	"LSM303AGR_ACC_H_LACTIVE_t\000"
 22213      30334147 
 22213      525F4143 
 22213      435F485F 
 22213      4C414354 
 22214              	.LASF284:
 22215 2f2e 4C534D33 		.ascii	"LSM303AGR_ACC_BLE_t\000"
 22215      30334147 
 22215      525F4143 
 22215      435F424C 
 22215      455F7400 
 22216              	.LASF558:
 22217 2f42 4C534D33 		.ascii	"LSM303AGR_ACC_W_TriggerSel\000"
 22217      30334147 
 22217      525F4143 
 22217      435F575F 
 22217      54726967 
 22218              	.LASF93:
 22219 2f5d 52455345 		.ascii	"RESERVED1\000"
 22219      52564544 
 22219      3100
 22220              	.LASF94:
 22221 2f67 52455345 		.ascii	"RESERVED2\000"
 22221      52564544 
 22221      3200
 22222              	.LASF300:
 22223 2f71 4C534D33 		.ascii	"LSM303AGR_ACC_BOOT_NORMAL_MODE\000"
ARM GAS  /tmp/cc1ELVNa.s 			page 427


 22223      30334147 
 22223      525F4143 
 22223      435F424F 
 22223      4F545F4E 
 22224              	.LASF301:
 22225 2f90 4C534D33 		.ascii	"LSM303AGR_ACC_BOOT_REBOOT\000"
 22225      30334147 
 22225      525F4143 
 22225      435F424F 
 22225      4F545F52 
 22226              	.LASF350:
 22227 2faa 4C534D33 		.ascii	"LSM303AGR_ACC_FM_STREAM\000"
 22227      30334147 
 22227      525F4143 
 22227      435F464D 
 22227      5F535452 
 22228              	.LASF456:
 22229 2fc2 4C534D33 		.ascii	"LSM303AGR_ACC_R_BlockDataUpdate\000"
 22229      30334147 
 22229      525F4143 
 22229      435F525F 
 22229      426C6F63 
 22230              	.LASF224:
 22231 2fe2 4C534D33 		.ascii	"LSM303AGR_ACC_ZEN_t\000"
 22231      30334147 
 22231      525F4143 
 22231      435F5A45 
 22231      4E5F7400 
 22232              	.LASF563:
 22233 2ff6 4C534D33 		.ascii	"LSM303AGR_ACC_R_FifoEmpty\000"
 22233      30334147 
 22233      525F4143 
 22233      435F525F 
 22233      4669666F 
 22234              	.LASF268:
 22235 3010 4C534D33 		.ascii	"LSM303AGR_ACC_I1_CLICK_DISABLED\000"
 22235      30334147 
 22235      525F4143 
 22235      435F4931 
 22235      5F434C49 
 22236              	.LASF58:
 22237 3030 725F7072 		.ascii	"r_prio\000"
 22237      696F00
 22238              	.LASF424:
 22239 3037 4C534D33 		.ascii	"LSM303AGR_ACC_ZD_t\000"
 22239      30334147 
 22239      525F4143 
 22239      435F5A44 
 22239      5F7400
 22240              	.LASF458:
 22241 304a 4C534D33 		.ascii	"LSM303AGR_ACC_R_FullScale\000"
 22241      30334147 
 22241      525F4143 
 22241      435F525F 
 22241      46756C6C 
 22242              	.LASF215:
 22243 3064 4C534D33 		.ascii	"LSM303AGR_ACC_ADC_PD_t\000"
ARM GAS  /tmp/cc1ELVNa.s 			page 428


 22243      30334147 
 22243      525F4143 
 22243      435F4144 
 22243      435F5044 
 22244              	.LASF510:
 22245 307b 4C534D33 		.ascii	"LSM303AGR_ACC_W_FIFO_AOL1_on_INT1\000"
 22245      30334147 
 22245      525F4143 
 22245      435F575F 
 22245      4649464F 
 22246              	.LASF650:
 22247 309d 49544D5F 		.ascii	"ITM_RxBuffer\000"
 22247      52784275 
 22247      66666572 
 22247      00
 22248              	.LASF508:
 22249 30aa 4C534D33 		.ascii	"LSM303AGR_ACC_W_FIFO_AOL2_on_INT1\000"
 22249      30334147 
 22249      525F4143 
 22249      435F575F 
 22249      4649464F 
 22250              	.LASF204:
 22251 30cc 4C534D33 		.ascii	"LSM303AGR_ACC_3OR__NO_OVERRUN\000"
 22251      30334147 
 22251      525F4143 
 22251      435F334F 
 22251      525F5F4E 
 22252              	.LASF14:
 22253 30ea 6C6F6E67 		.ascii	"long long unsigned int\000"
 22253      206C6F6E 
 22253      6720756E 
 22253      7369676E 
 22253      65642069 
 22254              	.LASF100:
 22255 3101 6F666673 		.ascii	"offset\000"
 22255      657400
 22256              	.LASF407:
 22257 3108 4C534D33 		.ascii	"LSM303AGR_ACC_XS_DISABLED\000"
 22257      30334147 
 22257      525F4143 
 22257      435F5853 
 22257      5F444953 
 22258              	.LASF428:
 22259 3122 4C534D33 		.ascii	"LSM303AGR_ACC_Y_DOWN\000"
 22259      30334147 
 22259      525F4143 
 22259      435F595F 
 22259      444F574E 
 22260              	.LASF360:
 22261 3137 4C534D33 		.ascii	"LSM303AGR_ACC_WTM_OVERFLOW\000"
 22261      30334147 
 22261      525F4143 
 22261      435F5754 
 22261      4D5F4F56 
 22262              	.LASF279:
 22263 3152 4C534D33 		.ascii	"LSM303AGR_ACC_HR_DISABLED\000"
 22263      30334147 
ARM GAS  /tmp/cc1ELVNa.s 			page 429


 22263      525F4143 
 22263      435F4852 
 22263      5F444953 
 22264              	.LASF87:
 22265 316c 444D415F 		.ascii	"DMA_Channel_TypeDef\000"
 22265      4368616E 
 22265      6E656C5F 
 22265      54797065 
 22265      44656600 
 22266              	.LASF602:
 22267 3180 4C534D33 		.ascii	"LSM303AGR_ACC_R_Int1_Zlo\000"
 22267      30334147 
 22267      525F4143 
 22267      435F525F 
 22267      496E7431 
 22268              	.LASF82:
 22269 3199 69646C65 		.ascii	"idle_thread_wa\000"
 22269      5F746872 
 22269      6561645F 
 22269      776100
 22270              	.LASF95:
 22271 31a8 5350495F 		.ascii	"SPI_TypeDef\000"
 22271      54797065 
 22271      44656600 
 22272              	.LASF69:
 22273 31b4 76745F66 		.ascii	"vt_func\000"
 22273      756E6300 
 22274              	.LASF220:
 22275 31bc 4C534D33 		.ascii	"LSM303AGR_ACC_YEN_ENABLED\000"
 22275      30334147 
 22275      525F4143 
 22275      435F5945 
 22275      4E5F454E 
 22276              	.LASF182:
 22277 31d6 4C534D33 		.ascii	"LSM303AGR_ACC_ODR_DO_400Hz\000"
 22277      30334147 
 22277      525F4143 
 22277      435F4F44 
 22277      525F444F 
 22278              	.LASF65:
 22279 31f1 63685F76 		.ascii	"ch_virtual_timer\000"
 22279      69727475 
 22279      616C5F74 
 22279      696D6572 
 22279      00
 22280              	.LASF39:
 22281 3202 705F666C 		.ascii	"p_flags\000"
 22281      61677300 
 22282              	.LASF425:
 22283 320a 4C534D33 		.ascii	"LSM303AGR_ACC_X_DOWN\000"
 22283      30334147 
 22283      525F4143 
 22283      435F585F 
 22283      444F574E 
 22284              	.LASF108:
 22285 321f 65776D61 		.ascii	"ewmask\000"
 22285      736B00
ARM GAS  /tmp/cc1ELVNa.s 			page 430


 22286              	.LASF635:
 22287 3226 4C534D33 		.ascii	"LSM303AGR_ACC_R_ClickSign\000"
 22287      30334147 
 22287      525F4143 
 22287      435F525F 
 22287      436C6963 
 22288              	.LASF448:
 22289 3240 4C534D33 		.ascii	"LSM303AGR_ACC_Init\000"
 22289      30334147 
 22289      525F4143 
 22289      435F496E 
 22289      697400
 22290              	.LASF423:
 22291 3253 4C534D33 		.ascii	"LSM303AGR_ACC_ZD_ENABLED\000"
 22291      30334147 
 22291      525F4143 
 22291      435F5A44 
 22291      5F454E41 
 22292              	.LASF46:
 22293 326c 705F6D74 		.ascii	"p_mtxlist\000"
 22293      786C6973 
 22293      7400
 22294              	.LASF22:
 22295 3276 74737461 		.ascii	"tstate_t\000"
 22295      74655F74 
 22295      00
 22296              	.LASF144:
 22297 327f 53504944 		.ascii	"SPIDriver\000"
 22297      72697665 
 22297      7200
 22298              	.LASF288:
 22299 3289 4C534D33 		.ascii	"LSM303AGR_ACC_LIR_INT2_DISABLED\000"
 22299      30334147 
 22299      525F4143 
 22299      435F4C49 
 22299      525F494E 
 22300              	.LASF500:
 22301 32a9 4C534D33 		.ascii	"LSM303AGR_ACC_W_FIFO_Overrun_on_INT1\000"
 22301      30334147 
 22301      525F4143 
 22301      435F575F 
 22301      4649464F 
 22302              	.LASF157:
 22303 32ce 53504943 		.ascii	"SPIConfig\000"
 22303      6F6E6669 
 22303      6700
 22304              	.LASF517:
 22305 32d8 4C534D33 		.ascii	"LSM303AGR_ACC_R_SelfTest\000"
 22305      30334147 
 22305      525F4143 
 22305      435F525F 
 22305      53656C66 
 22306              	.LASF37:
 22307 32f1 705F6E61 		.ascii	"p_name\000"
 22307      6D6500
 22308              	.LASF193:
 22309 32f8 4C534D33 		.ascii	"LSM303AGR_ACC_3DA__AVAILABLE\000"
ARM GAS  /tmp/cc1ELVNa.s 			page 431


 22309      30334147 
 22309      525F4143 
 22309      435F3344 
 22309      415F5F41 
 22310              	.LASF358:
 22311 3315 4C534D33 		.ascii	"LSM303AGR_ACC_OVRN_FIFO_t\000"
 22311      30334147 
 22311      525F4143 
 22311      435F4F56 
 22311      524E5F46 
 22312              	.LASF592:
 22313 332f 4C534D33 		.ascii	"LSM303AGR_ACC_W_Int2EnZHi\000"
 22313      30334147 
 22313      525F4143 
 22313      435F575F 
 22313      496E7432 
 22314              	.LASF71:
 22315 3349 76697274 		.ascii	"virtual_timers_list_t\000"
 22315      75616C5F 
 22315      74696D65 
 22315      72735F6C 
 22315      6973745F 
 22316              	.LASF324:
 22317 335f 4C534D33 		.ascii	"LSM303AGR_ACC_YDA_NOT_AVAILABLE\000"
 22317      30334147 
 22317      525F4143 
 22317      435F5944 
 22317      415F4E4F 
 22318              	.LASF641:
 22319 337f 4C534D33 		.ascii	"LSM303AGR_ACC_W_ClickTimeLimit\000"
 22319      30334147 
 22319      525F4143 
 22319      435F575F 
 22319      436C6963 
 22320              	.LASF110:
 22321 339e 735F7175 		.ascii	"s_queue\000"
 22321      65756500 
 22322              	.LASF376:
 22323 33a6 4C534D33 		.ascii	"LSM303AGR_ACC_ZLIE_t\000"
 22323      30334147 
 22323      525F4143 
 22323      435F5A4C 
 22323      49455F74 
 22324              	.LASF422:
 22325 33bb 4C534D33 		.ascii	"LSM303AGR_ACC_ZD_DISABLED\000"
 22325      30334147 
 22325      525F4143 
 22325      435F5A44 
 22325      5F444953 
 22326              	.LASF316:
 22327 33d5 4C534D33 		.ascii	"LSM303AGR_ACC_I2_INT1_ENABLED\000"
 22327      30334147 
 22327      525F4143 
 22327      435F4932 
 22327      5F494E54 
 22328              	.LASF120:
 22329 33f3 6373656C 		.ascii	"cselr\000"
ARM GAS  /tmp/cc1ELVNa.s 			page 432


 22329      7200
 22330              	.LASF434:
 22331 33f9 4C534D33 		.ascii	"LSM303AGR_ACC_SIGN_POSITIVE\000"
 22331      30334147 
 22331      525F4143 
 22331      435F5349 
 22331      474E5F50 
 22332              	.LASF313:
 22333 3415 4C534D33 		.ascii	"LSM303AGR_ACC_I2_INT2_ENABLED\000"
 22333      30334147 
 22333      525F4143 
 22333      435F4932 
 22333      5F494E54 
 22334              	.LASF420:
 22335 3433 4C534D33 		.ascii	"LSM303AGR_ACC_ZS_ENABLED\000"
 22335      30334147 
 22335      525F4143 
 22335      435F5A53 
 22335      5F454E41 
 22336              	.LASF12:
 22337 344c 6C6F6E67 		.ascii	"long long int\000"
 22337      206C6F6E 
 22337      6720696E 
 22337      7400
 22338              	.LASF618:
 22339 345a 4C534D33 		.ascii	"LSM303AGR_ACC_W_Int2_Duration\000"
 22339      30334147 
 22339      525F4143 
 22339      435F575F 
 22339      496E7432 
 22340              	.LASF205:
 22341 3478 4C534D33 		.ascii	"LSM303AGR_ACC_3OR__OVERRUN\000"
 22341      30334147 
 22341      525F4143 
 22341      435F334F 
 22341      525F5F4F 
 22342              	.LASF639:
 22343 3493 4C534D33 		.ascii	"LSM303AGR_ACC_W_ClickThreshold\000"
 22343      30334147 
 22343      525F4143 
 22343      435F575F 
 22343      436C6963 
 22344              	.LASF201:
 22345 34b2 4C534D33 		.ascii	"LSM303AGR_ACC_2OR__NO_OVERRUN\000"
 22345      30334147 
 22345      525F4143 
 22345      435F324F 
 22345      525F5F4E 
 22346              	.LASF180:
 22347 34d0 4C534D33 		.ascii	"LSM303AGR_ACC_ODR_DO_100Hz\000"
 22347      30334147 
 22347      525F4143 
 22347      435F4F44 
 22347      525F444F 
 22348              	.LASF140:
 22349 34eb 5350495F 		.ascii	"SPI_READY\000"
 22349      52454144 
ARM GAS  /tmp/cc1ELVNa.s 			page 433


 22349      5900
 22350              	.LASF363:
 22351 34f5 4C534D33 		.ascii	"LSM303AGR_ACC_XLIE_ENABLED\000"
 22351      30334147 
 22351      525F4143 
 22351      435F584C 
 22351      49455F45 
 22352              	.LASF615:
 22353 3510 4C534D33 		.ascii	"LSM303AGR_ACC_R_Int2_Threshold\000"
 22353      30334147 
 22353      525F4143 
 22353      435F525F 
 22353      496E7432 
 22354              	.LASF187:
 22355 352f 4C534D33 		.ascii	"LSM303AGR_ACC_1DA_AVAILABLE\000"
 22355      30334147 
 22355      525F4143 
 22355      435F3144 
 22355      415F4156 
 22356              	.LASF334:
 22357 354b 4C534D33 		.ascii	"LSM303AGR_ACC_XOR_OVERRUN\000"
 22357      30334147 
 22357      525F4143 
 22357      435F584F 
 22357      525F4F56 
 22358              	.LASF349:
 22359 3565 4C534D33 		.ascii	"LSM303AGR_ACC_FM_FIFO\000"
 22359      30334147 
 22359      525F4143 
 22359      435F464D 
 22359      5F464946 
 22360              	.LASF643:
 22361 357b 4C534D33 		.ascii	"LSM303AGR_ACC_W_ClickTimeLatency\000"
 22361      30334147 
 22361      525F4143 
 22361      435F575F 
 22361      436C6963 
 22362              	.LASF194:
 22363 359c 4C534D33 		.ascii	"LSM303AGR_ACC_3DA__t\000"
 22363      30334147 
 22363      525F4143 
 22363      435F3344 
 22363      415F5F74 
 22364              	.LASF197:
 22365 35b1 4C534D33 		.ascii	"LSM303AGR_ACC_321DA__t\000"
 22365      30334147 
 22365      525F4143 
 22365      435F3332 
 22365      3144415F 
 22366              	.LASF368:
 22367 35c8 4C534D33 		.ascii	"LSM303AGR_ACC_YLIE_DISABLED\000"
 22367      30334147 
 22367      525F4143 
 22367      435F594C 
 22367      49455F44 
 22368              	.LASF36:
 22369 35e4 705F6F6C 		.ascii	"p_older\000"
ARM GAS  /tmp/cc1ELVNa.s 			page 434


 22369      64657200 
 22370              	.LASF184:
 22371 35ec 4C534D33 		.ascii	"LSM303AGR_ACC_ODR_DO_1_25KHz\000"
 22371      30334147 
 22371      525F4143 
 22371      435F4F44 
 22371      525F444F 
 22372              	.LASF479:
 22373 3609 4C534D33 		.ascii	"LSM303AGR_ACC_R_ADC_PD\000"
 22373      30334147 
 22373      525F4143 
 22373      435F525F 
 22373      4144435F 
 22374              	.LASF155:
 22375 3620 7373706F 		.ascii	"ssport\000"
 22375      727400
 22376              	.LASF49:
 22377 3627 74687265 		.ascii	"thread_reference_t\000"
 22377      61645F72 
 22377      65666572 
 22377      656E6365 
 22377      5F7400
 22378              	.LASF395:
 22379 363a 4C534D33 		.ascii	"LSM303AGR_ACC_YH_DOWN\000"
 22379      30334147 
 22379      525F4143 
 22379      435F5948 
 22379      5F444F57 
 22380              	.LASF191:
 22381 3650 4C534D33 		.ascii	"LSM303AGR_ACC_2DA__t\000"
 22381      30334147 
 22381      525F4143 
 22381      435F3244 
 22381      415F5F74 
 22382              	.LASF383:
 22383 3665 4C534D33 		.ascii	"LSM303AGR_ACC_AOI_OR\000"
 22383      30334147 
 22383      525F4143 
 22383      435F414F 
 22383      495F4F52 
 22384              	.LASF624:
 22385 367a 4C534D33 		.ascii	"LSM303AGR_ACC_W_YSingle\000"
 22385      30334147 
 22385      525F4143 
 22385      435F575F 
 22385      5953696E 
 22386              	.LASF101:
 22387 3692 746D5F63 		.ascii	"tm_calibration_t\000"
 22387      616C6962 
 22387      72617469 
 22387      6F6E5F74 
 22387      00
 22388              	.LASF531:
 22389 36a3 4C534D33 		.ascii	"LSM303AGR_ACC_R_FIFO_EN\000"
 22389      30334147 
 22389      525F4143 
 22389      435F525F 
ARM GAS  /tmp/cc1ELVNa.s 			page 435


 22389      4649464F 
 22390              	.LASF321:
 22391 36bb 4C534D33 		.ascii	"LSM303AGR_ACC_XDA_NOT_AVAILABLE\000"
 22391      30334147 
 22391      525F4143 
 22391      435F5844 
 22391      415F4E4F 
 22392              	.LASF480:
 22393 36db 4C534D33 		.ascii	"LSM303AGR_ACC_W_XEN\000"
 22393      30334147 
 22393      525F4143 
 22393      435F575F 
 22393      58454E00 
 22394              	.LASF509:
 22395 36ef 4C534D33 		.ascii	"LSM303AGR_ACC_R_FIFO_AOL2_on_INT1\000"
 22395      30334147 
 22395      525F4143 
 22395      435F525F 
 22395      4649464F 
 22396              	.LASF623:
 22397 3711 4C534D33 		.ascii	"LSM303AGR_ACC_R_XDouble\000"
 22397      30334147 
 22397      525F4143 
 22397      435F525F 
 22397      58446F75 
 22398              	.LASF277:
 22399 3729 4C534D33 		.ascii	"LSM303AGR_ACC_ST_NOT_APPLICABLE\000"
 22399      30334147 
 22399      525F4143 
 22399      435F5354 
 22399      5F4E4F54 
 22400              	.LASF0:
 22401 3749 756E7369 		.ascii	"unsigned int\000"
 22401      676E6564 
 22401      20696E74 
 22401      00
 22402              	.LASF530:
 22403 3756 4C534D33 		.ascii	"LSM303AGR_ACC_W_FIFO_EN\000"
 22403      30334147 
 22403      525F4143 
 22403      435F575F 
 22403      4649464F 
 22404              	.LASF605:
 22405 376e 4C534D33 		.ascii	"LSM303AGR_ACC_R_Int2_Xlo\000"
 22405      30334147 
 22405      525F4143 
 22405      435F525F 
 22405      496E7432 
 22406              	.LASF642:
 22407 3787 4C534D33 		.ascii	"LSM303AGR_ACC_R_ClickTimeLimit\000"
 22407      30334147 
 22407      525F4143 
 22407      435F525F 
 22407      436C6963 
 22408              	.LASF477:
 22409 37a6 4C534D33 		.ascii	"LSM303AGR_ACC_R_TEMP_EN_bits\000"
 22409      30334147 
ARM GAS  /tmp/cc1ELVNa.s 			page 436


 22409      525F4143 
 22409      435F525F 
 22409      54454D50 
 22410              	.LASF551:
 22411 37c3 4C534D33 		.ascii	"LSM303AGR_ACC_R_XYZDataAvail\000"
 22411      30334147 
 22411      525F4143 
 22411      435F525F 
 22411      58595A44 
 22412              	.LASF462:
 22413 37e0 7261775F 		.ascii	"raw_data_tmp\000"
 22413      64617461 
 22413      5F746D70 
 22413      00
 22414              	.LASF622:
 22415 37ed 4C534D33 		.ascii	"LSM303AGR_ACC_W_XDouble\000"
 22415      30334147 
 22415      525F4143 
 22415      435F575F 
 22415      58446F75 
 22416              	.LASF5:
 22417 3805 73686F72 		.ascii	"short int\000"
 22417      7420696E 
 22417      7400
 22418              	.LASF512:
 22419 380f 4C534D33 		.ascii	"LSM303AGR_ACC_W_FIFO_Click_on_INT1\000"
 22419      30334147 
 22419      525F4143 
 22419      435F575F 
 22419      4649464F 
 22420              	.LASF306:
 22421 3832 4C534D33 		.ascii	"LSM303AGR_ACC_P2_ACT_DISABLED\000"
 22421      30334147 
 22421      525F4143 
 22421      435F5032 
 22421      5F414354 
 22422              	.LASF244:
 22423 3850 4C534D33 		.ascii	"LSM303AGR_ACC_HPCF_t\000"
 22423      30334147 
 22423      525F4143 
 22423      435F4850 
 22423      43465F74 
 22424              	.LASF354:
 22425 3865 4C534D33 		.ascii	"LSM303AGR_ACC_EMPTY_EMPTY\000"
 22425      30334147 
 22425      525F4143 
 22425      435F454D 
 22425      5054595F 
 22426              	.LASF579:
 22427 387f 4C534D33 		.ascii	"LSM303AGR_ACC_R_Int1_6D\000"
 22427      30334147 
 22427      525F4143 
 22427      435F525F 
 22427      496E7431 
 22428              	.LASF38:
 22429 3897 705F7374 		.ascii	"p_state\000"
 22429      61746500 
ARM GAS  /tmp/cc1ELVNa.s 			page 437


 22430              	.LASF219:
 22431 389f 4C534D33 		.ascii	"LSM303AGR_ACC_YEN_DISABLED\000"
 22431      30334147 
 22431      525F4143 
 22431      435F5945 
 22431      4E5F4449 
 22432              	.LASF52:
 22433 38ba 63685F74 		.ascii	"ch_threads_list\000"
 22433      68726561 
 22433      64735F6C 
 22433      69737400 
 22434              		.ident	"GCC: (GNU Tools for ARM Embedded Processors) 4.8.4 20140526 (release) [ARM/embedded-4_8-br
ARM GAS  /tmp/cc1ELVNa.s 			page 438


DEFINED SYMBOLS
                            *ABS*:00000000 LSM303AGR_ACC_driver.c
     /tmp/cc1ELVNa.s:19     .data:00000000 $d
     /tmp/cc1ELVNa.s:22     .data:00000000 lsm303ad_accel_cfg
     /tmp/cc1ELVNa.s:30     .text:00000000 $t
     /tmp/cc1ELVNa.s:36     .text:00000000 LSM303AGR_ACC_Init
     /tmp/cc1ELVNa.s:84     .text:00000040 LSM303AGR_ACC_WriteReg
     /tmp/cc1ELVNa.s:127    .text:0000007c $d
     /tmp/cc1ELVNa.s:132    .text:00000084 $t
     /tmp/cc1ELVNa.s:138    .text:00000090 LSM303AGR_ACC_ReadReg
     /tmp/cc1ELVNa.s:181    .text:000000cc $d
     /tmp/cc1ELVNa.s:186    .text:000000d4 $t
     /tmp/cc1ELVNa.s:192    .text:000000e0 LSM303AGR_ACC_R_WHO_AM_I
     /tmp/cc1ELVNa.s:235    .text:00000110 LSM303AGR_ACC_W_BlockDataUpdate
     /tmp/cc1ELVNa.s:305    .text:00000180 LSM303AGR_ACC_R_BlockDataUpdate
     /tmp/cc1ELVNa.s:355    .text:000001c0 LSM303AGR_ACC_W_FullScale
     /tmp/cc1ELVNa.s:425    .text:00000230 LSM303AGR_ACC_R_FullScale
     /tmp/cc1ELVNa.s:475    .text:00000270 LSM303AGR_ACC_Get_Raw_Acceleration
     /tmp/cc1ELVNa.s:517    .rodata:00000000 LSM303AGR_ACC_Sensitivity_List
     /tmp/cc1ELVNa.s:514    .rodata:00000000 $d
     /tmp/cc1ELVNa.s:550    .text:000002a0 LSM303AGR_ACC_Get_Acceleration
     /tmp/cc1ELVNa.s:3969   .text:00001680 LSM303AGR_ACC_R_HiRes
     /tmp/cc1ELVNa.s:2049   .text:00000b80 LSM303AGR_ACC_R_LOWPWR_EN
     /tmp/cc1ELVNa.s:796    .text:000004a8 $d
     /tmp/cc1ELVNa.s:800    .text:000004ac $t
     /tmp/cc1ELVNa.s:806    .text:000004b0 LSM303AGR_ACC_W_ODR
     /tmp/cc1ELVNa.s:876    .text:00000520 LSM303AGR_ACC_R_ODR
     /tmp/cc1ELVNa.s:926    .text:00000560 LSM303AGR_ACC_R_x_data_avail
     /tmp/cc1ELVNa.s:976    .text:000005a0 LSM303AGR_ACC_R_y_data_avail
     /tmp/cc1ELVNa.s:1026   .text:000005e0 LSM303AGR_ACC_R_z_data_avail
     /tmp/cc1ELVNa.s:1076   .text:00000620 LSM303AGR_ACC_R_xyz_data_avail
     /tmp/cc1ELVNa.s:1126   .text:00000660 LSM303AGR_ACC_R_DataXOverrun
     /tmp/cc1ELVNa.s:1176   .text:000006a0 LSM303AGR_ACC_R_DataYOverrun
     /tmp/cc1ELVNa.s:1226   .text:000006e0 LSM303AGR_ACC_R_DataZOverrun
     /tmp/cc1ELVNa.s:1276   .text:00000720 LSM303AGR_ACC_R_DataXYZOverrun
     /tmp/cc1ELVNa.s:1326   .text:00000760 LSM303AGR_ACC_R_int_counter
     /tmp/cc1ELVNa.s:1379   .text:000007a0 LSM303AGR_ACC_W_TEMP_EN_bits
     /tmp/cc1ELVNa.s:1449   .text:00000810 LSM303AGR_ACC_R_TEMP_EN_bits
     /tmp/cc1ELVNa.s:1499   .text:00000850 LSM303AGR_ACC_W_ADC_PD
     /tmp/cc1ELVNa.s:1569   .text:000008c0 LSM303AGR_ACC_R_ADC_PD
     /tmp/cc1ELVNa.s:1619   .text:00000900 LSM303AGR_ACC_W_XEN
     /tmp/cc1ELVNa.s:1689   .text:00000970 LSM303AGR_ACC_R_XEN
     /tmp/cc1ELVNa.s:1739   .text:000009b0 LSM303AGR_ACC_W_YEN
     /tmp/cc1ELVNa.s:1809   .text:00000a20 LSM303AGR_ACC_R_YEN
     /tmp/cc1ELVNa.s:1859   .text:00000a60 LSM303AGR_ACC_W_ZEN
     /tmp/cc1ELVNa.s:1929   .text:00000ad0 LSM303AGR_ACC_R_ZEN
     /tmp/cc1ELVNa.s:1979   .text:00000b10 LSM303AGR_ACC_W_LOWPWR_EN
     /tmp/cc1ELVNa.s:2099   .text:00000bc0 LSM303AGR_ACC_W_hpf_aoi_en_int1
     /tmp/cc1ELVNa.s:2169   .text:00000c30 LSM303AGR_ACC_R_hpf_aoi_en_int1
     /tmp/cc1ELVNa.s:2219   .text:00000c70 LSM303AGR_ACC_W_hpf_aoi_en_int2
     /tmp/cc1ELVNa.s:2289   .text:00000ce0 LSM303AGR_ACC_R_hpf_aoi_en_int2
     /tmp/cc1ELVNa.s:2339   .text:00000d20 LSM303AGR_ACC_W_hpf_click_en
     /tmp/cc1ELVNa.s:2409   .text:00000d90 LSM303AGR_ACC_R_hpf_click_en
     /tmp/cc1ELVNa.s:2459   .text:00000dd0 LSM303AGR_ACC_W_Data_Filter
     /tmp/cc1ELVNa.s:2529   .text:00000e40 LSM303AGR_ACC_R_Data_Filter
     /tmp/cc1ELVNa.s:2579   .text:00000e80 LSM303AGR_ACC_W_hpf_cutoff_freq
     /tmp/cc1ELVNa.s:2649   .text:00000ef0 LSM303AGR_ACC_R_hpf_cutoff_freq
ARM GAS  /tmp/cc1ELVNa.s 			page 439


     /tmp/cc1ELVNa.s:2699   .text:00000f30 LSM303AGR_ACC_W_hpf_mode
     /tmp/cc1ELVNa.s:2769   .text:00000fa0 LSM303AGR_ACC_R_hpf_mode
     /tmp/cc1ELVNa.s:2819   .text:00000fe0 LSM303AGR_ACC_W_FIFO_Overrun_on_INT1
     /tmp/cc1ELVNa.s:2889   .text:00001050 LSM303AGR_ACC_R_FIFO_Overrun_on_INT1
     /tmp/cc1ELVNa.s:2939   .text:00001090 LSM303AGR_ACC_W_FIFO_Watermark_on_INT1
     /tmp/cc1ELVNa.s:3009   .text:00001100 LSM303AGR_ACC_R_FIFO_Watermark_on_INT1
     /tmp/cc1ELVNa.s:3059   .text:00001140 LSM303AGR_ACC_W_FIFO_DRDY2_on_INT1
     /tmp/cc1ELVNa.s:3129   .text:000011b0 LSM303AGR_ACC_R_FIFO_DRDY2_on_INT1
     /tmp/cc1ELVNa.s:3179   .text:000011f0 LSM303AGR_ACC_W_FIFO_DRDY1_on_INT1
     /tmp/cc1ELVNa.s:3249   .text:00001260 LSM303AGR_ACC_R_FIFO_DRDY1_on_INT1
     /tmp/cc1ELVNa.s:3299   .text:000012a0 LSM303AGR_ACC_W_FIFO_AOL2_on_INT1
     /tmp/cc1ELVNa.s:3369   .text:00001310 LSM303AGR_ACC_R_FIFO_AOL2_on_INT1
     /tmp/cc1ELVNa.s:3419   .text:00001350 LSM303AGR_ACC_W_FIFO_AOL1_on_INT1
     /tmp/cc1ELVNa.s:3489   .text:000013c0 LSM303AGR_ACC_R_FIFO_AOL1_on_INT1
     /tmp/cc1ELVNa.s:3539   .text:00001400 LSM303AGR_ACC_W_FIFO_Click_on_INT1
     /tmp/cc1ELVNa.s:3609   .text:00001470 LSM303AGR_ACC_R_FIFO_Click_on_INT1
     /tmp/cc1ELVNa.s:3659   .text:000014b0 LSM303AGR_ACC_W_SPI_mode
     /tmp/cc1ELVNa.s:3729   .text:00001520 LSM303AGR_ACC_R_SPI_mode
     /tmp/cc1ELVNa.s:3779   .text:00001560 LSM303AGR_ACC_W_SelfTest
     /tmp/cc1ELVNa.s:3849   .text:000015d0 LSM303AGR_ACC_R_SelfTest
     /tmp/cc1ELVNa.s:3899   .text:00001610 LSM303AGR_ACC_W_HiRes
     /tmp/cc1ELVNa.s:4019   .text:000016c0 LSM303AGR_ACC_W_LittleBigEndian
     /tmp/cc1ELVNa.s:4089   .text:00001730 LSM303AGR_ACC_R_LittleBigEndian
     /tmp/cc1ELVNa.s:4139   .text:00001770 LSM303AGR_ACC_W_4D_on_INT2
     /tmp/cc1ELVNa.s:4209   .text:000017e0 LSM303AGR_ACC_R_4D_on_INT2
     /tmp/cc1ELVNa.s:4259   .text:00001820 LSM303AGR_ACC_W_LatchInterrupt_on_INT2
     /tmp/cc1ELVNa.s:4329   .text:00001890 LSM303AGR_ACC_R_LatchInterrupt_on_INT2
     /tmp/cc1ELVNa.s:4379   .text:000018d0 LSM303AGR_ACC_W_4D_on_INT1
     /tmp/cc1ELVNa.s:4449   .text:00001940 LSM303AGR_ACC_R_4D_on_INT1
     /tmp/cc1ELVNa.s:4499   .text:00001980 LSM303AGR_ACC_W_LatchInterrupt_on_INT1
     /tmp/cc1ELVNa.s:4569   .text:000019f0 LSM303AGR_ACC_R_LatchInterrupt_on_INT1
     /tmp/cc1ELVNa.s:4619   .text:00001a30 LSM303AGR_ACC_W_FIFO_EN
     /tmp/cc1ELVNa.s:4689   .text:00001aa0 LSM303AGR_ACC_R_FIFO_EN
     /tmp/cc1ELVNa.s:4739   .text:00001ae0 LSM303AGR_ACC_W_RebootMemory
     /tmp/cc1ELVNa.s:4809   .text:00001b50 LSM303AGR_ACC_R_RebootMemory
     /tmp/cc1ELVNa.s:4859   .text:00001b90 LSM303AGR_ACC_W_IntActive
     /tmp/cc1ELVNa.s:4929   .text:00001c00 LSM303AGR_ACC_R_IntActive
     /tmp/cc1ELVNa.s:4979   .text:00001c40 LSM303AGR_ACC_W_P2_ACT
     /tmp/cc1ELVNa.s:5049   .text:00001cb0 LSM303AGR_ACC_R_P2_ACT
     /tmp/cc1ELVNa.s:5099   .text:00001cf0 LSM303AGR_ACC_W_Boot_on_INT2
     /tmp/cc1ELVNa.s:5169   .text:00001d60 LSM303AGR_ACC_R_Boot_on_INT2
     /tmp/cc1ELVNa.s:5219   .text:00001da0 LSM303AGR_ACC_W_I2_on_INT2
     /tmp/cc1ELVNa.s:5289   .text:00001e10 LSM303AGR_ACC_R_I2_on_INT2
     /tmp/cc1ELVNa.s:5339   .text:00001e50 LSM303AGR_ACC_W_I2_on_INT1
     /tmp/cc1ELVNa.s:5409   .text:00001ec0 LSM303AGR_ACC_R_I2_on_INT1
     /tmp/cc1ELVNa.s:5459   .text:00001f00 LSM303AGR_ACC_W_Click_on_INT2
     /tmp/cc1ELVNa.s:5529   .text:00001f70 LSM303AGR_ACC_R_Click_on_INT2
     /tmp/cc1ELVNa.s:5579   .text:00001fb0 LSM303AGR_ACC_W_ReferenceVal
     /tmp/cc1ELVNa.s:5647   .text:00002010 LSM303AGR_ACC_R_ReferenceVal
     /tmp/cc1ELVNa.s:5700   .text:00002050 LSM303AGR_ACC_R_XDataAvail
     /tmp/cc1ELVNa.s:5750   .text:00002090 LSM303AGR_ACC_R_YDataAvail
     /tmp/cc1ELVNa.s:5800   .text:000020d0 LSM303AGR_ACC_R_ZDataAvail
     /tmp/cc1ELVNa.s:5850   .text:00002110 LSM303AGR_ACC_R_XYZDataAvail
     /tmp/cc1ELVNa.s:5900   .text:00002150 LSM303AGR_ACC_R_XDataOverrun
     /tmp/cc1ELVNa.s:5950   .text:00002190 LSM303AGR_ACC_R_YDataOverrun
     /tmp/cc1ELVNa.s:6000   .text:000021d0 LSM303AGR_ACC_R_ZDataOverrun
     /tmp/cc1ELVNa.s:6050   .text:00002210 LSM303AGR_ACC_R_XYZDataOverrun
ARM GAS  /tmp/cc1ELVNa.s 			page 440


     /tmp/cc1ELVNa.s:6100   .text:00002250 LSM303AGR_ACC_W_FifoThreshold
     /tmp/cc1ELVNa.s:6174   .text:000022d0 LSM303AGR_ACC_R_FifoThreshold
     /tmp/cc1ELVNa.s:6229   .text:00002310 LSM303AGR_ACC_W_TriggerSel
     /tmp/cc1ELVNa.s:6299   .text:00002380 LSM303AGR_ACC_R_TriggerSel
     /tmp/cc1ELVNa.s:6349   .text:000023c0 LSM303AGR_ACC_W_FifoMode
     /tmp/cc1ELVNa.s:6419   .text:00002430 LSM303AGR_ACC_R_FifoMode
     /tmp/cc1ELVNa.s:6469   .text:00002470 LSM303AGR_ACC_R_FifoSamplesAvail
     /tmp/cc1ELVNa.s:6524   .text:000024b0 LSM303AGR_ACC_R_FifoEmpty
     /tmp/cc1ELVNa.s:6574   .text:000024f0 LSM303AGR_ACC_R_FifoOverrun
     /tmp/cc1ELVNa.s:6624   .text:00002530 LSM303AGR_ACC_R_WatermarkLevel
     /tmp/cc1ELVNa.s:6674   .text:00002570 LSM303AGR_ACC_W_Int1EnXLo
     /tmp/cc1ELVNa.s:6744   .text:000025e0 LSM303AGR_ACC_R_Int1EnXLo
     /tmp/cc1ELVNa.s:6794   .text:00002620 LSM303AGR_ACC_W_Int1EnXHi
     /tmp/cc1ELVNa.s:6864   .text:00002690 LSM303AGR_ACC_R_Int1EnXHi
     /tmp/cc1ELVNa.s:6914   .text:000026d0 LSM303AGR_ACC_W_Int1EnYLo
     /tmp/cc1ELVNa.s:6984   .text:00002740 LSM303AGR_ACC_R_Int1EnYLo
     /tmp/cc1ELVNa.s:7034   .text:00002780 LSM303AGR_ACC_W_Int1EnYHi
     /tmp/cc1ELVNa.s:7104   .text:000027f0 LSM303AGR_ACC_R_Int1EnYHi
     /tmp/cc1ELVNa.s:7154   .text:00002830 LSM303AGR_ACC_W_Int1EnZLo
     /tmp/cc1ELVNa.s:7224   .text:000028a0 LSM303AGR_ACC_R_Int1EnZLo
     /tmp/cc1ELVNa.s:7274   .text:000028e0 LSM303AGR_ACC_W_Int1EnZHi
     /tmp/cc1ELVNa.s:7344   .text:00002950 LSM303AGR_ACC_R_Int1EnZHi
     /tmp/cc1ELVNa.s:7394   .text:00002990 LSM303AGR_ACC_W_Int1_6D
     /tmp/cc1ELVNa.s:7464   .text:00002a00 LSM303AGR_ACC_R_Int1_6D
     /tmp/cc1ELVNa.s:7514   .text:00002a40 LSM303AGR_ACC_W_Int1_AOI
     /tmp/cc1ELVNa.s:7584   .text:00002ab0 LSM303AGR_ACC_R_Int1_AOI
     /tmp/cc1ELVNa.s:7634   .text:00002af0 LSM303AGR_ACC_W_Int2EnXLo
     /tmp/cc1ELVNa.s:7704   .text:00002b60 LSM303AGR_ACC_R_Int2EnXLo
     /tmp/cc1ELVNa.s:7754   .text:00002ba0 LSM303AGR_ACC_W_Int2EnXHi
     /tmp/cc1ELVNa.s:7824   .text:00002c10 LSM303AGR_ACC_R_Int2EnXHi
     /tmp/cc1ELVNa.s:7874   .text:00002c50 LSM303AGR_ACC_W_Int2EnYLo
     /tmp/cc1ELVNa.s:7944   .text:00002cc0 LSM303AGR_ACC_R_Int2EnYLo
     /tmp/cc1ELVNa.s:7994   .text:00002d00 LSM303AGR_ACC_W_Int2EnYHi
     /tmp/cc1ELVNa.s:8064   .text:00002d70 LSM303AGR_ACC_R_Int2EnYHi
     /tmp/cc1ELVNa.s:8114   .text:00002db0 LSM303AGR_ACC_W_Int2EnZLo
     /tmp/cc1ELVNa.s:8184   .text:00002e20 LSM303AGR_ACC_R_Int2EnZLo
     /tmp/cc1ELVNa.s:8234   .text:00002e60 LSM303AGR_ACC_W_Int2EnZHi
     /tmp/cc1ELVNa.s:8304   .text:00002ed0 LSM303AGR_ACC_R_Int2EnZHi
     /tmp/cc1ELVNa.s:8354   .text:00002f10 LSM303AGR_ACC_W_Int2_6D
     /tmp/cc1ELVNa.s:8424   .text:00002f80 LSM303AGR_ACC_R_Int2_6D
     /tmp/cc1ELVNa.s:8474   .text:00002fc0 LSM303AGR_ACC_W_Int2_AOI
     /tmp/cc1ELVNa.s:8544   .text:00003030 LSM303AGR_ACC_R_Int2_AOI
     /tmp/cc1ELVNa.s:8594   .text:00003070 LSM303AGR_ACC_R_Int1_Xlo
     /tmp/cc1ELVNa.s:8644   .text:000030b0 LSM303AGR_ACC_R_Int1_XHi
     /tmp/cc1ELVNa.s:8694   .text:000030f0 LSM303AGR_ACC_R_Int1_YLo
     /tmp/cc1ELVNa.s:8744   .text:00003130 LSM303AGR_ACC_R_Int1_YHi
     /tmp/cc1ELVNa.s:8794   .text:00003170 LSM303AGR_ACC_R_Int1_Zlo
     /tmp/cc1ELVNa.s:8844   .text:000031b0 LSM303AGR_ACC_R_Int1_ZHi
     /tmp/cc1ELVNa.s:8894   .text:000031f0 LSM303AGR_ACC_R_Int1_IA
     /tmp/cc1ELVNa.s:8944   .text:00003230 LSM303AGR_ACC_R_Int2_Xlo
     /tmp/cc1ELVNa.s:8994   .text:00003270 LSM303AGR_ACC_R_Int2_XHi
     /tmp/cc1ELVNa.s:9044   .text:000032b0 LSM303AGR_ACC_R_Int2_YLo
     /tmp/cc1ELVNa.s:9094   .text:000032f0 LSM303AGR_ACC_R_Int2_YHi
     /tmp/cc1ELVNa.s:9144   .text:00003330 LSM303AGR_ACC_R_Int2_Zlo
     /tmp/cc1ELVNa.s:9194   .text:00003370 LSM303AGR_ACC_R_Int2_ZHi
     /tmp/cc1ELVNa.s:9244   .text:000033b0 LSM303AGR_ACC_R_Int2_IA
     /tmp/cc1ELVNa.s:9294   .text:000033f0 LSM303AGR_ACC_W_Int1_Threshold
ARM GAS  /tmp/cc1ELVNa.s 			page 441


     /tmp/cc1ELVNa.s:9368   .text:00003470 LSM303AGR_ACC_R_Int1_Threshold
     /tmp/cc1ELVNa.s:9423   .text:000034b0 LSM303AGR_ACC_W_Int2_Threshold
     /tmp/cc1ELVNa.s:9497   .text:00003530 LSM303AGR_ACC_R_Int2_Threshold
     /tmp/cc1ELVNa.s:9552   .text:00003570 LSM303AGR_ACC_W_Int1_Duration
     /tmp/cc1ELVNa.s:9626   .text:000035f0 LSM303AGR_ACC_R_Int1_Duration
     /tmp/cc1ELVNa.s:9681   .text:00003630 LSM303AGR_ACC_W_Int2_Duration
     /tmp/cc1ELVNa.s:9755   .text:000036b0 LSM303AGR_ACC_R_Int2_Duration
     /tmp/cc1ELVNa.s:9810   .text:000036f0 LSM303AGR_ACC_W_XSingle
     /tmp/cc1ELVNa.s:9880   .text:00003760 LSM303AGR_ACC_R_XSingle
     /tmp/cc1ELVNa.s:9930   .text:000037a0 LSM303AGR_ACC_W_XDouble
     /tmp/cc1ELVNa.s:10000  .text:00003810 LSM303AGR_ACC_R_XDouble
     /tmp/cc1ELVNa.s:10050  .text:00003850 LSM303AGR_ACC_W_YSingle
     /tmp/cc1ELVNa.s:10120  .text:000038c0 LSM303AGR_ACC_R_YSingle
     /tmp/cc1ELVNa.s:10170  .text:00003900 LSM303AGR_ACC_W_YDouble
     /tmp/cc1ELVNa.s:10240  .text:00003970 LSM303AGR_ACC_R_YDouble
     /tmp/cc1ELVNa.s:10290  .text:000039b0 LSM303AGR_ACC_W_ZSingle
     /tmp/cc1ELVNa.s:10360  .text:00003a20 LSM303AGR_ACC_R_ZSingle
     /tmp/cc1ELVNa.s:10410  .text:00003a60 LSM303AGR_ACC_W_ZDouble
     /tmp/cc1ELVNa.s:10480  .text:00003ad0 LSM303AGR_ACC_R_ZDouble
     /tmp/cc1ELVNa.s:10530  .text:00003b10 LSM303AGR_ACC_R_ClickX
     /tmp/cc1ELVNa.s:10580  .text:00003b50 LSM303AGR_ACC_R_ClickY
     /tmp/cc1ELVNa.s:10630  .text:00003b90 LSM303AGR_ACC_R_ClickZ
     /tmp/cc1ELVNa.s:10680  .text:00003bd0 LSM303AGR_ACC_R_ClickSign
     /tmp/cc1ELVNa.s:10730  .text:00003c10 LSM303AGR_ACC_R_SingleCLICK
     /tmp/cc1ELVNa.s:10780  .text:00003c50 LSM303AGR_ACC_R_DoubleCLICK
     /tmp/cc1ELVNa.s:10830  .text:00003c90 LSM303AGR_ACC_R_CLICK_IA
     /tmp/cc1ELVNa.s:10880  .text:00003cd0 LSM303AGR_ACC_W_ClickThreshold
     /tmp/cc1ELVNa.s:10954  .text:00003d50 LSM303AGR_ACC_R_ClickThreshold
     /tmp/cc1ELVNa.s:11009  .text:00003d90 LSM303AGR_ACC_W_ClickTimeLimit
     /tmp/cc1ELVNa.s:11083  .text:00003e10 LSM303AGR_ACC_R_ClickTimeLimit
     /tmp/cc1ELVNa.s:11138  .text:00003e50 LSM303AGR_ACC_W_ClickTimeLatency
     /tmp/cc1ELVNa.s:11206  .text:00003eb0 LSM303AGR_ACC_R_ClickTimeLatency
     /tmp/cc1ELVNa.s:11259  .text:00003ef0 LSM303AGR_ACC_W_ClickTimeWindow
     /tmp/cc1ELVNa.s:11327  .text:00003f50 LSM303AGR_ACC_R_ClickTimeWindow
     /tmp/cc1ELVNa.s:11380  .text:00003f90 LSM303AGR_ACC_Get_Voltage_ADC
                     .debug_frame:00000010 $d

UNDEFINED SYMBOLS
Sensor_IO_SPI_Write
SPID2
Sensor_IO_SPI_Read
__aeabi_ldivmod
