ARM GAS  /tmp/cc1ELVNa.s 			page 1


   1              		.syntax unified
   2              		.cpu cortex-m4
   3              		.fpu softvfp
   4              		.eabi_attribute 20, 1
   5              		.eabi_attribute 21, 1
   6              		.eabi_attribute 23, 3
   7              		.eabi_attribute 24, 1
   8              		.eabi_attribute 25, 1
   9              		.eabi_attribute 26, 1
  10              		.eabi_attribute 30, 6
  11              		.eabi_attribute 34, 1
  12              		.eabi_attribute 18, 4
  13              		.thumb
  14              		.file	"LSM303AGR_ACC_driver.c"
  15              		.text
  16              	.Ltext0:
  17              		.cfi_sections	.debug_frame
  18              		.data
  19              		.align	2
  20              		.type	lsm303ad_accel_cfg, %object
  21              		.size	lsm303ad_accel_cfg, 16
  22              	lsm303ad_accel_cfg:
  23 0000 00000000 		.word	0
  24 0004 00080048 		.word	1207961600
  25 0008 0400     		.short	4
  26 000a 30C0     		.short	-16336
  27 000c 0000     		.short	0
  28 000e 0000     		.space	2
  29              		.text
  30              		.align	2
  31              		.p2align 4,,15
  32              		.global	LSM303AGR_ACC_Init
  33              		.thumb
  34              		.thumb_func
  35              		.type	LSM303AGR_ACC_Init, %function
  36              	LSM303AGR_ACC_Init:
  37              	.LFB267:
  38              		.file 1 "BSP/Components/lsm303agr/LSM303AGR_ACC_driver.c"
  39              		.loc 1 74 0
  40              		.cfi_startproc
  41              		@ args = 0, pretend = 0, frame = 8
  42              		@ frame_needed = 0, uses_anonymous_args = 0
  43 0000 00B5     		push	{lr}
  44              		.cfi_def_cfa_offset 4
  45              		.cfi_offset 14, -4
  46 0002 83B0     		sub	sp, sp, #12
  47              		.cfi_def_cfa_offset 16
  48              		.loc 1 75 0
  49 0004 0123     		movs	r3, #1
  50 0006 8DF80730 		strb	r3, [sp, #7]
  51              		.loc 1 76 0
  52 000a 0DF10703 		add	r3, sp, #7
  53 000e 0020     		movs	r0, #0
  54 0010 2321     		movs	r1, #35
  55 0012 1A46     		mov	r2, r3
  56 0014 0123     		movs	r3, #1
  57 0016 FFF7FEFF 		bl	LSM303AGR_ACC_WriteReg
ARM GAS  /tmp/cc1ELVNa.s 			page 2


  58              		.loc 1 77 0
  59 001a 2723     		movs	r3, #39
  60 001c 8DF80630 		strb	r3, [sp, #6]
  61              		.loc 1 78 0
  62 0020 0DF10603 		add	r3, sp, #6
  63 0024 0020     		movs	r0, #0
  64 0026 2021     		movs	r1, #32
  65 0028 1A46     		mov	r2, r3
  66 002a 0123     		movs	r3, #1
  67 002c FFF7FEFF 		bl	LSM303AGR_ACC_WriteReg
  68              		.loc 1 82 0
  69 0030 0123     		movs	r3, #1
  70              		.loc 1 83 0
  71 0032 1846     		mov	r0, r3
  72 0034 03B0     		add	sp, sp, #12
  73              		@ sp needed
  74 0036 5DF804FB 		ldr	pc, [sp], #4
  75              		.cfi_endproc
  76              	.LFE267:
  77              		.size	LSM303AGR_ACC_Init, .-LSM303AGR_ACC_Init
  78 003a 00BF     		.align	2
  79 003c AFF30080 		.p2align 4,,15
  80              		.global	LSM303AGR_ACC_WriteReg
  81              		.thumb
  82              		.thumb_func
  83              		.type	LSM303AGR_ACC_WriteReg, %function
  84              	LSM303AGR_ACC_WriteReg:
  85              	.LFB268:
  86              		.loc 1 95 0
  87              		.cfi_startproc
  88              		@ args = 0, pretend = 0, frame = 16
  89              		@ frame_needed = 0, uses_anonymous_args = 0
  90 0040 00B5     		push	{lr}
  91              		.cfi_def_cfa_offset 4
  92              		.cfi_offset 14, -4
  93 0042 87B0     		sub	sp, sp, #28
  94              		.cfi_def_cfa_offset 32
  95 0044 0590     		str	r0, [sp, #20]
  96 0046 0392     		str	r2, [sp, #12]
  97 0048 0A46     		mov	r2, r1
  98 004a 8DF81320 		strb	r2, [sp, #19]
  99 004e ADF81030 		strh	r3, [sp, #16]	@ movhi
 100              		.loc 1 97 0
 101 0052 9DF81330 		ldrb	r3, [sp, #19]	@ zero_extendqisi2
 102 0056 BDF81020 		ldrh	r2, [sp, #16]
 103 005a 0092     		str	r2, [sp]
 104 005c 0748     		ldr	r0, .L6
 105 005e 0849     		ldr	r1, .L6+4
 106 0060 1A46     		mov	r2, r3
 107 0062 039B     		ldr	r3, [sp, #12]
 108 0064 FFF7FEFF 		bl	Sensor_IO_SPI_Write
 109 0068 0346     		mov	r3, r0
 110 006a 002B     		cmp	r3, #0
 111 006c 01D0     		beq	.L4
 112              		.loc 1 99 0
 113 006e 0023     		movs	r3, #0
 114 0070 00E0     		b	.L5
ARM GAS  /tmp/cc1ELVNa.s 			page 3


 115              	.L4:
 116              		.loc 1 103 0
 117 0072 0123     		movs	r3, #1
 118              	.L5:
 119              		.loc 1 105 0
 120 0074 1846     		mov	r0, r3
 121 0076 07B0     		add	sp, sp, #28
 122              		@ sp needed
 123 0078 5DF804FB 		ldr	pc, [sp], #4
 124              	.L7:
 125              		.align	2
 126              	.L6:
 127 007c 00000000 		.word	SPID2
 128 0080 00000000 		.word	lsm303ad_accel_cfg
 129              		.cfi_endproc
 130              	.LFE268:
 131              		.size	LSM303AGR_ACC_WriteReg, .-LSM303AGR_ACC_WriteReg
 132              		.align	2
 133 0084 AFF30080 		.p2align 4,,15
 133      AFF30080 
 133      AFF30080 
 134              		.global	LSM303AGR_ACC_ReadReg
 135              		.thumb
 136              		.thumb_func
 137              		.type	LSM303AGR_ACC_ReadReg, %function
 138              	LSM303AGR_ACC_ReadReg:
 139              	.LFB269:
 140              		.loc 1 116 0
 141              		.cfi_startproc
 142              		@ args = 0, pretend = 0, frame = 16
 143              		@ frame_needed = 0, uses_anonymous_args = 0
 144 0090 00B5     		push	{lr}
 145              		.cfi_def_cfa_offset 4
 146              		.cfi_offset 14, -4
 147 0092 87B0     		sub	sp, sp, #28
 148              		.cfi_def_cfa_offset 32
 149 0094 0590     		str	r0, [sp, #20]
 150 0096 0392     		str	r2, [sp, #12]
 151 0098 0A46     		mov	r2, r1
 152 009a 8DF81320 		strb	r2, [sp, #19]
 153 009e ADF81030 		strh	r3, [sp, #16]	@ movhi
 154              		.loc 1 118 0
 155 00a2 9DF81330 		ldrb	r3, [sp, #19]	@ zero_extendqisi2
 156 00a6 BDF81020 		ldrh	r2, [sp, #16]
 157 00aa 0092     		str	r2, [sp]
 158 00ac 0748     		ldr	r0, .L11
 159 00ae 0849     		ldr	r1, .L11+4
 160 00b0 1A46     		mov	r2, r3
 161 00b2 039B     		ldr	r3, [sp, #12]
 162 00b4 FFF7FEFF 		bl	Sensor_IO_SPI_Read
 163 00b8 0346     		mov	r3, r0
 164 00ba 002B     		cmp	r3, #0
 165 00bc 01D0     		beq	.L9
 166              		.loc 1 120 0
 167 00be 0023     		movs	r3, #0
 168 00c0 00E0     		b	.L10
 169              	.L9:
ARM GAS  /tmp/cc1ELVNa.s 			page 4


 170              		.loc 1 124 0
 171 00c2 0123     		movs	r3, #1
 172              	.L10:
 173              		.loc 1 126 0
 174 00c4 1846     		mov	r0, r3
 175 00c6 07B0     		add	sp, sp, #28
 176              		@ sp needed
 177 00c8 5DF804FB 		ldr	pc, [sp], #4
 178              	.L12:
 179              		.align	2
 180              	.L11:
 181 00cc 00000000 		.word	SPID2
 182 00d0 00000000 		.word	lsm303ad_accel_cfg
 183              		.cfi_endproc
 184              	.LFE269:
 185              		.size	LSM303AGR_ACC_ReadReg, .-LSM303AGR_ACC_ReadReg
 186              		.align	2
 187 00d4 AFF30080 		.p2align 4,,15
 187      AFF30080 
 187      AFF30080 
 188              		.global	LSM303AGR_ACC_R_WHO_AM_I
 189              		.thumb
 190              		.thumb_func
 191              		.type	LSM303AGR_ACC_R_WHO_AM_I, %function
 192              	LSM303AGR_ACC_R_WHO_AM_I:
 193              	.LFB270:
 194              		.loc 1 138 0
 195              		.cfi_startproc
 196              		@ args = 0, pretend = 0, frame = 8
 197              		@ frame_needed = 0, uses_anonymous_args = 0
 198 00e0 00B5     		push	{lr}
 199              		.cfi_def_cfa_offset 4
 200              		.cfi_offset 14, -4
 201 00e2 83B0     		sub	sp, sp, #12
 202              		.cfi_def_cfa_offset 16
 203 00e4 0190     		str	r0, [sp, #4]
 204 00e6 0091     		str	r1, [sp]
 205              		.loc 1 139 0
 206 00e8 0198     		ldr	r0, [sp, #4]
 207 00ea 0F21     		movs	r1, #15
 208 00ec 009A     		ldr	r2, [sp]
 209 00ee 0123     		movs	r3, #1
 210 00f0 FFF7FEFF 		bl	LSM303AGR_ACC_ReadReg
 211 00f4 0346     		mov	r3, r0
 212 00f6 002B     		cmp	r3, #0
 213 00f8 01D1     		bne	.L14
 214              		.loc 1 140 0
 215 00fa 0023     		movs	r3, #0
 216 00fc 00E0     		b	.L15
 217              	.L14:
 218              		.loc 1 145 0
 219 00fe 0123     		movs	r3, #1
 220              	.L15:
 221              		.loc 1 146 0
 222 0100 1846     		mov	r0, r3
 223 0102 03B0     		add	sp, sp, #12
 224              		@ sp needed
ARM GAS  /tmp/cc1ELVNa.s 			page 5


 225 0104 5DF804FB 		ldr	pc, [sp], #4
 226              		.cfi_endproc
 227              	.LFE270:
 228              		.size	LSM303AGR_ACC_R_WHO_AM_I, .-LSM303AGR_ACC_R_WHO_AM_I
 229              		.align	2
 230 0108 AFF30080 		.p2align 4,,15
 230      AFF30080 
 231              		.global	LSM303AGR_ACC_W_BlockDataUpdate
 232              		.thumb
 233              		.thumb_func
 234              		.type	LSM303AGR_ACC_W_BlockDataUpdate, %function
 235              	LSM303AGR_ACC_W_BlockDataUpdate:
 236              	.LFB271:
 237              		.loc 1 156 0
 238              		.cfi_startproc
 239              		@ args = 0, pretend = 0, frame = 16
 240              		@ frame_needed = 0, uses_anonymous_args = 0
 241 0110 00B5     		push	{lr}
 242              		.cfi_def_cfa_offset 4
 243              		.cfi_offset 14, -4
 244 0112 85B0     		sub	sp, sp, #20
 245              		.cfi_def_cfa_offset 24
 246 0114 0190     		str	r0, [sp, #4]
 247 0116 0B46     		mov	r3, r1
 248 0118 8DF80330 		strb	r3, [sp, #3]
 249              		.loc 1 159 0
 250 011c 0DF10F03 		add	r3, sp, #15
 251 0120 0198     		ldr	r0, [sp, #4]
 252 0122 2321     		movs	r1, #35
 253 0124 1A46     		mov	r2, r3
 254 0126 0123     		movs	r3, #1
 255 0128 FFF7FEFF 		bl	LSM303AGR_ACC_ReadReg
 256 012c 0346     		mov	r3, r0
 257 012e 002B     		cmp	r3, #0
 258 0130 01D1     		bne	.L17
 259              		.loc 1 160 0
 260 0132 0023     		movs	r3, #0
 261 0134 1CE0     		b	.L20
 262              	.L17:
 263              		.loc 1 162 0
 264 0136 9DF80F30 		ldrb	r3, [sp, #15]	@ zero_extendqisi2
 265 013a 03F07F03 		and	r3, r3, #127
 266 013e DBB2     		uxtb	r3, r3
 267 0140 8DF80F30 		strb	r3, [sp, #15]
 268              		.loc 1 163 0
 269 0144 9DF80F20 		ldrb	r2, [sp, #15]	@ zero_extendqisi2
 270 0148 9DF80330 		ldrb	r3, [sp, #3]
 271 014c 1343     		orrs	r3, r3, r2
 272 014e DBB2     		uxtb	r3, r3
 273 0150 8DF80F30 		strb	r3, [sp, #15]
 274              		.loc 1 165 0
 275 0154 0DF10F03 		add	r3, sp, #15
 276 0158 0198     		ldr	r0, [sp, #4]
 277 015a 2321     		movs	r1, #35
 278 015c 1A46     		mov	r2, r3
 279 015e 0123     		movs	r3, #1
 280 0160 FFF7FEFF 		bl	LSM303AGR_ACC_WriteReg
ARM GAS  /tmp/cc1ELVNa.s 			page 6


 281 0164 0346     		mov	r3, r0
 282 0166 002B     		cmp	r3, #0
 283 0168 01D1     		bne	.L19
 284              		.loc 1 166 0
 285 016a 0023     		movs	r3, #0
 286 016c 00E0     		b	.L20
 287              	.L19:
 288              		.loc 1 168 0
 289 016e 0123     		movs	r3, #1
 290              	.L20:
 291              		.loc 1 169 0
 292 0170 1846     		mov	r0, r3
 293 0172 05B0     		add	sp, sp, #20
 294              		@ sp needed
 295 0174 5DF804FB 		ldr	pc, [sp], #4
 296              		.cfi_endproc
 297              	.LFE271:
 298              		.size	LSM303AGR_ACC_W_BlockDataUpdate, .-LSM303AGR_ACC_W_BlockDataUpdate
 299              		.align	2
 300 0178 AFF30080 		.p2align 4,,15
 300      AFF30080 
 301              		.global	LSM303AGR_ACC_R_BlockDataUpdate
 302              		.thumb
 303              		.thumb_func
 304              		.type	LSM303AGR_ACC_R_BlockDataUpdate, %function
 305              	LSM303AGR_ACC_R_BlockDataUpdate:
 306              	.LFB272:
 307              		.loc 1 179 0
 308              		.cfi_startproc
 309              		@ args = 0, pretend = 0, frame = 8
 310              		@ frame_needed = 0, uses_anonymous_args = 0
 311 0180 00B5     		push	{lr}
 312              		.cfi_def_cfa_offset 4
 313              		.cfi_offset 14, -4
 314 0182 83B0     		sub	sp, sp, #12
 315              		.cfi_def_cfa_offset 16
 316 0184 0190     		str	r0, [sp, #4]
 317 0186 0091     		str	r1, [sp]
 318              		.loc 1 180 0
 319 0188 0198     		ldr	r0, [sp, #4]
 320 018a 2321     		movs	r1, #35
 321 018c 009A     		ldr	r2, [sp]
 322 018e 0123     		movs	r3, #1
 323 0190 FFF7FEFF 		bl	LSM303AGR_ACC_ReadReg
 324 0194 0346     		mov	r3, r0
 325 0196 002B     		cmp	r3, #0
 326 0198 01D1     		bne	.L22
 327              		.loc 1 181 0
 328 019a 0023     		movs	r3, #0
 329 019c 07E0     		b	.L23
 330              	.L22:
 331              		.loc 1 183 0
 332 019e 009B     		ldr	r3, [sp]
 333 01a0 1B78     		ldrb	r3, [r3]	@ zero_extendqisi2
 334 01a2 23F07F03 		bic	r3, r3, #127
 335 01a6 DAB2     		uxtb	r2, r3
 336 01a8 009B     		ldr	r3, [sp]
ARM GAS  /tmp/cc1ELVNa.s 			page 7


 337 01aa 1A70     		strb	r2, [r3]
 338              		.loc 1 185 0
 339 01ac 0123     		movs	r3, #1
 340              	.L23:
 341              		.loc 1 186 0
 342 01ae 1846     		mov	r0, r3
 343 01b0 03B0     		add	sp, sp, #12
 344              		@ sp needed
 345 01b2 5DF804FB 		ldr	pc, [sp], #4
 346              		.cfi_endproc
 347              	.LFE272:
 348              		.size	LSM303AGR_ACC_R_BlockDataUpdate, .-LSM303AGR_ACC_R_BlockDataUpdate
 349 01b6 00BF     		.align	2
 350 01b8 AFF30080 		.p2align 4,,15
 350      AFF30080 
 351              		.global	LSM303AGR_ACC_W_FullScale
 352              		.thumb
 353              		.thumb_func
 354              		.type	LSM303AGR_ACC_W_FullScale, %function
 355              	LSM303AGR_ACC_W_FullScale:
 356              	.LFB273:
 357              		.loc 1 196 0
 358              		.cfi_startproc
 359              		@ args = 0, pretend = 0, frame = 16
 360              		@ frame_needed = 0, uses_anonymous_args = 0
 361 01c0 00B5     		push	{lr}
 362              		.cfi_def_cfa_offset 4
 363              		.cfi_offset 14, -4
 364 01c2 85B0     		sub	sp, sp, #20
 365              		.cfi_def_cfa_offset 24
 366 01c4 0190     		str	r0, [sp, #4]
 367 01c6 0B46     		mov	r3, r1
 368 01c8 8DF80330 		strb	r3, [sp, #3]
 369              		.loc 1 199 0
 370 01cc 0DF10F03 		add	r3, sp, #15
 371 01d0 0198     		ldr	r0, [sp, #4]
 372 01d2 2321     		movs	r1, #35
 373 01d4 1A46     		mov	r2, r3
 374 01d6 0123     		movs	r3, #1
 375 01d8 FFF7FEFF 		bl	LSM303AGR_ACC_ReadReg
 376 01dc 0346     		mov	r3, r0
 377 01de 002B     		cmp	r3, #0
 378 01e0 01D1     		bne	.L25
 379              		.loc 1 200 0
 380 01e2 0023     		movs	r3, #0
 381 01e4 1CE0     		b	.L28
 382              	.L25:
 383              		.loc 1 202 0
 384 01e6 9DF80F30 		ldrb	r3, [sp, #15]	@ zero_extendqisi2
 385 01ea 23F03003 		bic	r3, r3, #48
 386 01ee DBB2     		uxtb	r3, r3
 387 01f0 8DF80F30 		strb	r3, [sp, #15]
 388              		.loc 1 203 0
 389 01f4 9DF80F20 		ldrb	r2, [sp, #15]	@ zero_extendqisi2
 390 01f8 9DF80330 		ldrb	r3, [sp, #3]
 391 01fc 1343     		orrs	r3, r3, r2
 392 01fe DBB2     		uxtb	r3, r3
ARM GAS  /tmp/cc1ELVNa.s 			page 8


 393 0200 8DF80F30 		strb	r3, [sp, #15]
 394              		.loc 1 205 0
 395 0204 0DF10F03 		add	r3, sp, #15
 396 0208 0198     		ldr	r0, [sp, #4]
 397 020a 2321     		movs	r1, #35
 398 020c 1A46     		mov	r2, r3
 399 020e 0123     		movs	r3, #1
 400 0210 FFF7FEFF 		bl	LSM303AGR_ACC_WriteReg
 401 0214 0346     		mov	r3, r0
 402 0216 002B     		cmp	r3, #0
 403 0218 01D1     		bne	.L27
 404              		.loc 1 206 0
 405 021a 0023     		movs	r3, #0
 406 021c 00E0     		b	.L28
 407              	.L27:
 408              		.loc 1 208 0
 409 021e 0123     		movs	r3, #1
 410              	.L28:
 411              		.loc 1 209 0
 412 0220 1846     		mov	r0, r3
 413 0222 05B0     		add	sp, sp, #20
 414              		@ sp needed
 415 0224 5DF804FB 		ldr	pc, [sp], #4
 416              		.cfi_endproc
 417              	.LFE273:
 418              		.size	LSM303AGR_ACC_W_FullScale, .-LSM303AGR_ACC_W_FullScale
 419              		.align	2
 420 0228 AFF30080 		.p2align 4,,15
 420      AFF30080 
 421              		.global	LSM303AGR_ACC_R_FullScale
 422              		.thumb
 423              		.thumb_func
 424              		.type	LSM303AGR_ACC_R_FullScale, %function
 425              	LSM303AGR_ACC_R_FullScale:
 426              	.LFB274:
 427              		.loc 1 219 0
 428              		.cfi_startproc
 429              		@ args = 0, pretend = 0, frame = 8
 430              		@ frame_needed = 0, uses_anonymous_args = 0
 431 0230 00B5     		push	{lr}
 432              		.cfi_def_cfa_offset 4
 433              		.cfi_offset 14, -4
 434 0232 83B0     		sub	sp, sp, #12
 435              		.cfi_def_cfa_offset 16
 436 0234 0190     		str	r0, [sp, #4]
 437 0236 0091     		str	r1, [sp]
 438              		.loc 1 220 0
 439 0238 0198     		ldr	r0, [sp, #4]
 440 023a 2321     		movs	r1, #35
 441 023c 009A     		ldr	r2, [sp]
 442 023e 0123     		movs	r3, #1
 443 0240 FFF7FEFF 		bl	LSM303AGR_ACC_ReadReg
 444 0244 0346     		mov	r3, r0
 445 0246 002B     		cmp	r3, #0
 446 0248 01D1     		bne	.L30
 447              		.loc 1 221 0
 448 024a 0023     		movs	r3, #0
ARM GAS  /tmp/cc1ELVNa.s 			page 9


 449 024c 07E0     		b	.L31
 450              	.L30:
 451              		.loc 1 223 0
 452 024e 009B     		ldr	r3, [sp]
 453 0250 1B78     		ldrb	r3, [r3]	@ zero_extendqisi2
 454 0252 03F03003 		and	r3, r3, #48
 455 0256 DAB2     		uxtb	r2, r3
 456 0258 009B     		ldr	r3, [sp]
 457 025a 1A70     		strb	r2, [r3]
 458              		.loc 1 225 0
 459 025c 0123     		movs	r3, #1
 460              	.L31:
 461              		.loc 1 226 0
 462 025e 1846     		mov	r0, r3
 463 0260 03B0     		add	sp, sp, #12
 464              		@ sp needed
 465 0262 5DF804FB 		ldr	pc, [sp], #4
 466              		.cfi_endproc
 467              	.LFE274:
 468              		.size	LSM303AGR_ACC_R_FullScale, .-LSM303AGR_ACC_R_FullScale
 469 0266 00BF     		.align	2
 470 0268 AFF30080 		.p2align 4,,15
 470      AFF30080 
 471              		.global	LSM303AGR_ACC_Get_Raw_Acceleration
 472              		.thumb
 473              		.thumb_func
 474              		.type	LSM303AGR_ACC_Get_Raw_Acceleration, %function
 475              	LSM303AGR_ACC_Get_Raw_Acceleration:
 476              	.LFB275:
 477              		.loc 1 236 0
 478              		.cfi_startproc
 479              		@ args = 0, pretend = 0, frame = 8
 480              		@ frame_needed = 0, uses_anonymous_args = 0
 481 0270 00B5     		push	{lr}
 482              		.cfi_def_cfa_offset 4
 483              		.cfi_offset 14, -4
 484 0272 83B0     		sub	sp, sp, #12
 485              		.cfi_def_cfa_offset 16
 486 0274 0190     		str	r0, [sp, #4]
 487 0276 0091     		str	r1, [sp]
 488              		.loc 1 237 0
 489 0278 0198     		ldr	r0, [sp, #4]
 490 027a 2821     		movs	r1, #40
 491 027c 009A     		ldr	r2, [sp]
 492 027e 0623     		movs	r3, #6
 493 0280 FFF7FEFF 		bl	LSM303AGR_ACC_ReadReg
 494 0284 0346     		mov	r3, r0
 495 0286 002B     		cmp	r3, #0
 496 0288 01D1     		bne	.L33
 497              		.loc 1 238 0
 498 028a 0023     		movs	r3, #0
 499 028c 00E0     		b	.L34
 500              	.L33:
 501              		.loc 1 240 0
 502 028e 0123     		movs	r3, #1
 503              	.L34:
 504              		.loc 1 241 0
ARM GAS  /tmp/cc1ELVNa.s 			page 10


 505 0290 1846     		mov	r0, r3
 506 0292 03B0     		add	sp, sp, #12
 507              		@ sp needed
 508 0294 5DF804FB 		ldr	pc, [sp], #4
 509              		.cfi_endproc
 510              	.LFE275:
 511              		.size	LSM303AGR_ACC_Get_Raw_Acceleration, .-LSM303AGR_ACC_Get_Raw_Acceleration
 512              		.global	LSM303AGR_ACC_Sensitivity_List
 513              		.section	.rodata
 514              		.align	3
 515              		.type	LSM303AGR_ACC_Sensitivity_List, %object
 516              		.size	LSM303AGR_ACC_Sensitivity_List, 96
 517              	LSM303AGR_ACC_Sensitivity_List:
 518 0000 D4030000 		.word	980
 519 0004 00000000 		.word	0
 520 0008 9E070000 		.word	1950
 521 000c 00000000 		.word	0
 522 0010 3C0F0000 		.word	3900
 523 0014 00000000 		.word	0
 524 0018 C82D0000 		.word	11720
 525 001c 00000000 		.word	0
 526 0020 3C0F0000 		.word	3900
 527 0024 00000000 		.word	0
 528 0028 8C1E0000 		.word	7820
 529 002c 00000000 		.word	0
 530 0030 0E3D0000 		.word	15630
 531 0034 00000000 		.word	0
 532 0038 34B70000 		.word	46900
 533 003c 00000000 		.word	0
 534 0040 0E3D0000 		.word	15630
 535 0044 00000000 		.word	0
 536 0048 1C7A0000 		.word	31260
 537 004c 00000000 		.word	0
 538 0050 38F40000 		.word	62520
 539 0054 00000000 		.word	0
 540 0058 BCDC0200 		.word	187580
 541 005c 00000000 		.word	0
 542              		.global	__aeabi_ldivmod
 543              		.text
 544              		.align	2
 545 0298 AFF30080 		.p2align 4,,15
 545      AFF30080 
 546              		.global	LSM303AGR_ACC_Get_Acceleration
 547              		.thumb
 548              		.thumb_func
 549              		.type	LSM303AGR_ACC_Get_Acceleration, %function
 550              	LSM303AGR_ACC_Get_Acceleration:
 551              	.LFB276:
 552              		.loc 1 281 0
 553              		.cfi_startproc
 554              		@ args = 0, pretend = 0, frame = 24
 555              		@ frame_needed = 0, uses_anonymous_args = 0
 556 02a0 70B5     		push	{r4, r5, r6, lr}
 557              		.cfi_def_cfa_offset 16
 558              		.cfi_offset 4, -16
 559              		.cfi_offset 5, -12
 560              		.cfi_offset 6, -8
ARM GAS  /tmp/cc1ELVNa.s 			page 11


 561              		.cfi_offset 14, -4
 562 02a2 86B0     		sub	sp, sp, #24
 563              		.cfi_def_cfa_offset 40
 564 02a4 0190     		str	r0, [sp, #4]
 565 02a6 0091     		str	r1, [sp]
 566              		.loc 1 283 0
 567 02a8 0023     		movs	r3, #0
 568 02aa 8DF81730 		strb	r3, [sp, #23]
 569 02ae 0023     		movs	r3, #0
 570 02b0 8DF81630 		strb	r3, [sp, #22]
 571 02b4 0023     		movs	r3, #0
 572 02b6 8DF81530 		strb	r3, [sp, #21]
 573              		.loc 1 289 0
 574 02ba 0DF10A03 		add	r3, sp, #10
 575 02be 0198     		ldr	r0, [sp, #4]
 576 02c0 1946     		mov	r1, r3
 577 02c2 FFF7FEFF 		bl	LSM303AGR_ACC_R_HiRes
 578              		.loc 1 290 0
 579 02c6 0DF10B03 		add	r3, sp, #11
 580 02ca 0198     		ldr	r0, [sp, #4]
 581 02cc 1946     		mov	r1, r3
 582 02ce FFF7FEFF 		bl	LSM303AGR_ACC_R_LOWPWR_EN
 583              		.loc 1 292 0
 584 02d2 9DF80B30 		ldrb	r3, [sp, #11]	@ zero_extendqisi2
 585 02d6 082B     		cmp	r3, #8
 586 02d8 0AD1     		bne	.L36
 587              		.loc 1 292 0 is_stmt 0 discriminator 1
 588 02da 9DF80A30 		ldrb	r3, [sp, #10]	@ zero_extendqisi2
 589 02de 002B     		cmp	r3, #0
 590 02e0 06D1     		bne	.L36
 591              		.loc 1 295 0 is_stmt 1
 592 02e2 0223     		movs	r3, #2
 593 02e4 8DF81730 		strb	r3, [sp, #23]
 594              		.loc 1 296 0
 595 02e8 0823     		movs	r3, #8
 596 02ea 8DF81530 		strb	r3, [sp, #21]
 597 02ee 1FE0     		b	.L37
 598              	.L36:
 599              		.loc 1 298 0
 600 02f0 9DF80B30 		ldrb	r3, [sp, #11]	@ zero_extendqisi2
 601 02f4 002B     		cmp	r3, #0
 602 02f6 0AD1     		bne	.L38
 603              		.loc 1 298 0 is_stmt 0 discriminator 1
 604 02f8 9DF80A30 		ldrb	r3, [sp, #10]	@ zero_extendqisi2
 605 02fc 002B     		cmp	r3, #0
 606 02fe 06D1     		bne	.L38
 607              		.loc 1 301 0 is_stmt 1
 608 0300 0123     		movs	r3, #1
 609 0302 8DF81730 		strb	r3, [sp, #23]
 610              		.loc 1 302 0
 611 0306 0623     		movs	r3, #6
 612 0308 8DF81530 		strb	r3, [sp, #21]
 613 030c 10E0     		b	.L37
 614              	.L38:
 615              		.loc 1 304 0
 616 030e 9DF80B30 		ldrb	r3, [sp, #11]	@ zero_extendqisi2
 617 0312 002B     		cmp	r3, #0
ARM GAS  /tmp/cc1ELVNa.s 			page 12


 618 0314 0AD1     		bne	.L39
 619              		.loc 1 304 0 is_stmt 0 discriminator 1
 620 0316 9DF80A30 		ldrb	r3, [sp, #10]	@ zero_extendqisi2
 621 031a 082B     		cmp	r3, #8
 622 031c 06D1     		bne	.L39
 623              		.loc 1 307 0 is_stmt 1
 624 031e 0023     		movs	r3, #0
 625 0320 8DF81730 		strb	r3, [sp, #23]
 626              		.loc 1 308 0
 627 0324 0423     		movs	r3, #4
 628 0326 8DF81530 		strb	r3, [sp, #21]
 629 032a 01E0     		b	.L37
 630              	.L39:
 631              		.loc 1 311 0
 632 032c 0023     		movs	r3, #0
 633 032e B8E0     		b	.L47
 634              	.L37:
 635              		.loc 1 314 0
 636 0330 0DF10903 		add	r3, sp, #9
 637 0334 0198     		ldr	r0, [sp, #4]
 638 0336 1946     		mov	r1, r3
 639 0338 FFF7FEFF 		bl	LSM303AGR_ACC_R_FullScale
 640              		.loc 1 315 0
 641 033c 9DF80930 		ldrb	r3, [sp, #9]	@ zero_extendqisi2
 642 0340 102B     		cmp	r3, #16
 643 0342 0DD0     		beq	.L42
 644 0344 102B     		cmp	r3, #16
 645 0346 02DC     		bgt	.L43
 646 0348 002B     		cmp	r3, #0
 647 034a 05D0     		beq	.L44
 648 034c 14E0     		b	.L41
 649              	.L43:
 650 034e 202B     		cmp	r3, #32
 651 0350 0AD0     		beq	.L45
 652 0352 302B     		cmp	r3, #48
 653 0354 0CD0     		beq	.L46
 654 0356 0FE0     		b	.L41
 655              	.L44:
 656              		.loc 1 318 0
 657 0358 0023     		movs	r3, #0
 658 035a 8DF81630 		strb	r3, [sp, #22]
 659              		.loc 1 319 0
 660 035e 0BE0     		b	.L41
 661              	.L42:
 662              		.loc 1 322 0
 663 0360 0123     		movs	r3, #1
 664 0362 8DF81630 		strb	r3, [sp, #22]
 665              		.loc 1 323 0
 666 0366 07E0     		b	.L41
 667              	.L45:
 668              		.loc 1 326 0
 669 0368 0223     		movs	r3, #2
 670 036a 8DF81630 		strb	r3, [sp, #22]
 671              		.loc 1 327 0
 672 036e 03E0     		b	.L41
 673              	.L46:
 674              		.loc 1 330 0
ARM GAS  /tmp/cc1ELVNa.s 			page 13


 675 0370 0323     		movs	r3, #3
 676 0372 8DF81630 		strb	r3, [sp, #22]
 677              		.loc 1 331 0
 678 0376 00BF     		nop
 679              	.L41:
 680              		.loc 1 335 0
 681 0378 03AB     		add	r3, sp, #12
 682 037a 0198     		ldr	r0, [sp, #4]
 683 037c 1946     		mov	r1, r3
 684 037e FFF7FEFF 		bl	LSM303AGR_ACC_Get_Raw_Acceleration
 685              		.loc 1 338 0
 686 0382 BDF80C30 		ldrh	r3, [sp, #12]
 687 0386 1AB2     		sxth	r2, r3
 688 0388 9DF81530 		ldrb	r3, [sp, #21]	@ zero_extendqisi2
 689 038c 42FA03F3 		asr	r3, r2, r3
 690 0390 1846     		mov	r0, r3
 691 0392 4FEAE071 		asr	r1, r0, #31
 692 0396 9DF81740 		ldrb	r4, [sp, #23]	@ zero_extendqisi2
 693 039a 9DF81630 		ldrb	r3, [sp, #22]	@ zero_extendqisi2
 694 039e 424A     		ldr	r2, .L48
 695 03a0 A400     		lsls	r4, r4, #2
 696 03a2 2344     		add	r3, r3, r4
 697 03a4 DB00     		lsls	r3, r3, #3
 698 03a6 1344     		add	r3, r3, r2
 699 03a8 D3E90023 		ldrd	r2, [r3]
 700 03ac 02FB01F5 		mul	r5, r2, r1
 701 03b0 00FB03F4 		mul	r4, r0, r3
 702 03b4 2C44     		add	r4, r4, r5
 703 03b6 A0FB0223 		umull	r2, r3, r0, r2
 704 03ba E118     		adds	r1, r4, r3
 705 03bc 0B46     		mov	r3, r1
 706 03be 12F5FA72 		adds	r2, r2, #500
 707 03c2 43F10003 		adc	r3, r3, #0
 708 03c6 1046     		mov	r0, r2
 709 03c8 1946     		mov	r1, r3
 710 03ca 4FF47A72 		mov	r2, #1000
 711 03ce 4FF00003 		mov	r3, #0
 712 03d2 FFF7FEFF 		bl	__aeabi_ldivmod
 713 03d6 0246     		mov	r2, r0
 714 03d8 0B46     		mov	r3, r1
 715 03da 009B     		ldr	r3, [sp]
 716 03dc 1A60     		str	r2, [r3]
 717              		.loc 1 339 0
 718 03de 009B     		ldr	r3, [sp]
 719 03e0 1C1D     		adds	r4, r3, #4
 720 03e2 BDF80E30 		ldrh	r3, [sp, #14]
 721 03e6 1AB2     		sxth	r2, r3
 722 03e8 9DF81530 		ldrb	r3, [sp, #21]	@ zero_extendqisi2
 723 03ec 42FA03F3 		asr	r3, r2, r3
 724 03f0 1846     		mov	r0, r3
 725 03f2 4FEAE071 		asr	r1, r0, #31
 726 03f6 9DF81750 		ldrb	r5, [sp, #23]	@ zero_extendqisi2
 727 03fa 9DF81630 		ldrb	r3, [sp, #22]	@ zero_extendqisi2
 728 03fe 2A4A     		ldr	r2, .L48
 729 0400 AD00     		lsls	r5, r5, #2
 730 0402 2B44     		add	r3, r3, r5
 731 0404 DB00     		lsls	r3, r3, #3
ARM GAS  /tmp/cc1ELVNa.s 			page 14


 732 0406 1344     		add	r3, r3, r2
 733 0408 D3E90023 		ldrd	r2, [r3]
 734 040c 02FB01F6 		mul	r6, r2, r1
 735 0410 00FB03F5 		mul	r5, r0, r3
 736 0414 3544     		add	r5, r5, r6
 737 0416 A0FB0223 		umull	r2, r3, r0, r2
 738 041a E918     		adds	r1, r5, r3
 739 041c 0B46     		mov	r3, r1
 740 041e 12F5FA72 		adds	r2, r2, #500
 741 0422 43F10003 		adc	r3, r3, #0
 742 0426 1046     		mov	r0, r2
 743 0428 1946     		mov	r1, r3
 744 042a 4FF47A72 		mov	r2, #1000
 745 042e 4FF00003 		mov	r3, #0
 746 0432 FFF7FEFF 		bl	__aeabi_ldivmod
 747 0436 0246     		mov	r2, r0
 748 0438 0B46     		mov	r3, r1
 749 043a 1346     		mov	r3, r2
 750 043c 2360     		str	r3, [r4]
 751              		.loc 1 340 0
 752 043e 009B     		ldr	r3, [sp]
 753 0440 03F10804 		add	r4, r3, #8
 754 0444 BDF81030 		ldrh	r3, [sp, #16]
 755 0448 1AB2     		sxth	r2, r3
 756 044a 9DF81530 		ldrb	r3, [sp, #21]	@ zero_extendqisi2
 757 044e 42FA03F3 		asr	r3, r2, r3
 758 0452 1846     		mov	r0, r3
 759 0454 4FEAE071 		asr	r1, r0, #31
 760 0458 9DF81750 		ldrb	r5, [sp, #23]	@ zero_extendqisi2
 761 045c 9DF81630 		ldrb	r3, [sp, #22]	@ zero_extendqisi2
 762 0460 114A     		ldr	r2, .L48
 763 0462 AD00     		lsls	r5, r5, #2
 764 0464 2B44     		add	r3, r3, r5
 765 0466 DB00     		lsls	r3, r3, #3
 766 0468 1344     		add	r3, r3, r2
 767 046a D3E90023 		ldrd	r2, [r3]
 768 046e 02FB01F6 		mul	r6, r2, r1
 769 0472 00FB03F5 		mul	r5, r0, r3
 770 0476 3544     		add	r5, r5, r6
 771 0478 A0FB0223 		umull	r2, r3, r0, r2
 772 047c E918     		adds	r1, r5, r3
 773 047e 0B46     		mov	r3, r1
 774 0480 12F5FA72 		adds	r2, r2, #500
 775 0484 43F10003 		adc	r3, r3, #0
 776 0488 1046     		mov	r0, r2
 777 048a 1946     		mov	r1, r3
 778 048c 4FF47A72 		mov	r2, #1000
 779 0490 4FF00003 		mov	r3, #0
 780 0494 FFF7FEFF 		bl	__aeabi_ldivmod
 781 0498 0246     		mov	r2, r0
 782 049a 0B46     		mov	r3, r1
 783 049c 1346     		mov	r3, r2
 784 049e 2360     		str	r3, [r4]
 785              		.loc 1 342 0
 786 04a0 0123     		movs	r3, #1
 787              	.L47:
 788              		.loc 1 343 0
ARM GAS  /tmp/cc1ELVNa.s 			page 15


 789 04a2 1846     		mov	r0, r3
 790 04a4 06B0     		add	sp, sp, #24
 791              		@ sp needed
 792 04a6 70BD     		pop	{r4, r5, r6, pc}
 793              	.L49:
 794              		.align	2
 795              	.L48:
 796 04a8 00000000 		.word	LSM303AGR_ACC_Sensitivity_List
 797              		.cfi_endproc
 798              	.LFE276:
 799              		.size	LSM303AGR_ACC_Get_Acceleration, .-LSM303AGR_ACC_Get_Acceleration
 800              		.align	2
 801 04ac AFF30080 		.p2align 4,,15
 802              		.global	LSM303AGR_ACC_W_ODR
 803              		.thumb
 804              		.thumb_func
 805              		.type	LSM303AGR_ACC_W_ODR, %function
 806              	LSM303AGR_ACC_W_ODR:
 807              	.LFB277:
 808              		.loc 1 353 0
 809              		.cfi_startproc
 810              		@ args = 0, pretend = 0, frame = 16
 811              		@ frame_needed = 0, uses_anonymous_args = 0
 812 04b0 00B5     		push	{lr}
 813              		.cfi_def_cfa_offset 4
 814              		.cfi_offset 14, -4
 815 04b2 85B0     		sub	sp, sp, #20
 816              		.cfi_def_cfa_offset 24
 817 04b4 0190     		str	r0, [sp, #4]
 818 04b6 0B46     		mov	r3, r1
 819 04b8 8DF80330 		strb	r3, [sp, #3]
 820              		.loc 1 356 0
 821 04bc 0DF10F03 		add	r3, sp, #15
 822 04c0 0198     		ldr	r0, [sp, #4]
 823 04c2 2021     		movs	r1, #32
 824 04c4 1A46     		mov	r2, r3
 825 04c6 0123     		movs	r3, #1
 826 04c8 FFF7FEFF 		bl	LSM303AGR_ACC_ReadReg
 827 04cc 0346     		mov	r3, r0
 828 04ce 002B     		cmp	r3, #0
 829 04d0 01D1     		bne	.L51
 830              		.loc 1 357 0
 831 04d2 0023     		movs	r3, #0
 832 04d4 1CE0     		b	.L54
 833              	.L51:
 834              		.loc 1 359 0
 835 04d6 9DF80F30 		ldrb	r3, [sp, #15]	@ zero_extendqisi2
 836 04da 03F00F03 		and	r3, r3, #15
 837 04de DBB2     		uxtb	r3, r3
 838 04e0 8DF80F30 		strb	r3, [sp, #15]
 839              		.loc 1 360 0
 840 04e4 9DF80F20 		ldrb	r2, [sp, #15]	@ zero_extendqisi2
 841 04e8 9DF80330 		ldrb	r3, [sp, #3]
 842 04ec 1343     		orrs	r3, r3, r2
 843 04ee DBB2     		uxtb	r3, r3
 844 04f0 8DF80F30 		strb	r3, [sp, #15]
 845              		.loc 1 362 0
ARM GAS  /tmp/cc1ELVNa.s 			page 16


 846 04f4 0DF10F03 		add	r3, sp, #15
 847 04f8 0198     		ldr	r0, [sp, #4]
 848 04fa 2021     		movs	r1, #32
 849 04fc 1A46     		mov	r2, r3
 850 04fe 0123     		movs	r3, #1
 851 0500 FFF7FEFF 		bl	LSM303AGR_ACC_WriteReg
 852 0504 0346     		mov	r3, r0
 853 0506 002B     		cmp	r3, #0
 854 0508 01D1     		bne	.L53
 855              		.loc 1 363 0
 856 050a 0023     		movs	r3, #0
 857 050c 00E0     		b	.L54
 858              	.L53:
 859              		.loc 1 365 0
 860 050e 0123     		movs	r3, #1
 861              	.L54:
 862              		.loc 1 366 0
 863 0510 1846     		mov	r0, r3
 864 0512 05B0     		add	sp, sp, #20
 865              		@ sp needed
 866 0514 5DF804FB 		ldr	pc, [sp], #4
 867              		.cfi_endproc
 868              	.LFE277:
 869              		.size	LSM303AGR_ACC_W_ODR, .-LSM303AGR_ACC_W_ODR
 870              		.align	2
 871 0518 AFF30080 		.p2align 4,,15
 871      AFF30080 
 872              		.global	LSM303AGR_ACC_R_ODR
 873              		.thumb
 874              		.thumb_func
 875              		.type	LSM303AGR_ACC_R_ODR, %function
 876              	LSM303AGR_ACC_R_ODR:
 877              	.LFB278:
 878              		.loc 1 376 0
 879              		.cfi_startproc
 880              		@ args = 0, pretend = 0, frame = 8
 881              		@ frame_needed = 0, uses_anonymous_args = 0
 882 0520 00B5     		push	{lr}
 883              		.cfi_def_cfa_offset 4
 884              		.cfi_offset 14, -4
 885 0522 83B0     		sub	sp, sp, #12
 886              		.cfi_def_cfa_offset 16
 887 0524 0190     		str	r0, [sp, #4]
 888 0526 0091     		str	r1, [sp]
 889              		.loc 1 377 0
 890 0528 0198     		ldr	r0, [sp, #4]
 891 052a 2021     		movs	r1, #32
 892 052c 009A     		ldr	r2, [sp]
 893 052e 0123     		movs	r3, #1
 894 0530 FFF7FEFF 		bl	LSM303AGR_ACC_ReadReg
 895 0534 0346     		mov	r3, r0
 896 0536 002B     		cmp	r3, #0
 897 0538 01D1     		bne	.L56
 898              		.loc 1 378 0
 899 053a 0023     		movs	r3, #0
 900 053c 07E0     		b	.L57
 901              	.L56:
ARM GAS  /tmp/cc1ELVNa.s 			page 17


 902              		.loc 1 380 0
 903 053e 009B     		ldr	r3, [sp]
 904 0540 1B78     		ldrb	r3, [r3]	@ zero_extendqisi2
 905 0542 23F00F03 		bic	r3, r3, #15
 906 0546 DAB2     		uxtb	r2, r3
 907 0548 009B     		ldr	r3, [sp]
 908 054a 1A70     		strb	r2, [r3]
 909              		.loc 1 382 0
 910 054c 0123     		movs	r3, #1
 911              	.L57:
 912              		.loc 1 383 0
 913 054e 1846     		mov	r0, r3
 914 0550 03B0     		add	sp, sp, #12
 915              		@ sp needed
 916 0552 5DF804FB 		ldr	pc, [sp], #4
 917              		.cfi_endproc
 918              	.LFE278:
 919              		.size	LSM303AGR_ACC_R_ODR, .-LSM303AGR_ACC_R_ODR
 920 0556 00BF     		.align	2
 921 0558 AFF30080 		.p2align 4,,15
 921      AFF30080 
 922              		.global	LSM303AGR_ACC_R_x_data_avail
 923              		.thumb
 924              		.thumb_func
 925              		.type	LSM303AGR_ACC_R_x_data_avail, %function
 926              	LSM303AGR_ACC_R_x_data_avail:
 927              	.LFB279:
 928              		.loc 1 395 0
 929              		.cfi_startproc
 930              		@ args = 0, pretend = 0, frame = 8
 931              		@ frame_needed = 0, uses_anonymous_args = 0
 932 0560 00B5     		push	{lr}
 933              		.cfi_def_cfa_offset 4
 934              		.cfi_offset 14, -4
 935 0562 83B0     		sub	sp, sp, #12
 936              		.cfi_def_cfa_offset 16
 937 0564 0190     		str	r0, [sp, #4]
 938 0566 0091     		str	r1, [sp]
 939              		.loc 1 396 0
 940 0568 0198     		ldr	r0, [sp, #4]
 941 056a 0721     		movs	r1, #7
 942 056c 009A     		ldr	r2, [sp]
 943 056e 0123     		movs	r3, #1
 944 0570 FFF7FEFF 		bl	LSM303AGR_ACC_ReadReg
 945 0574 0346     		mov	r3, r0
 946 0576 002B     		cmp	r3, #0
 947 0578 01D1     		bne	.L59
 948              		.loc 1 397 0
 949 057a 0023     		movs	r3, #0
 950 057c 07E0     		b	.L60
 951              	.L59:
 952              		.loc 1 399 0
 953 057e 009B     		ldr	r3, [sp]
 954 0580 1B78     		ldrb	r3, [r3]	@ zero_extendqisi2
 955 0582 03F00103 		and	r3, r3, #1
 956 0586 DAB2     		uxtb	r2, r3
 957 0588 009B     		ldr	r3, [sp]
ARM GAS  /tmp/cc1ELVNa.s 			page 18


 958 058a 1A70     		strb	r2, [r3]
 959              		.loc 1 401 0
 960 058c 0123     		movs	r3, #1
 961              	.L60:
 962              		.loc 1 402 0
 963 058e 1846     		mov	r0, r3
 964 0590 03B0     		add	sp, sp, #12
 965              		@ sp needed
 966 0592 5DF804FB 		ldr	pc, [sp], #4
 967              		.cfi_endproc
 968              	.LFE279:
 969              		.size	LSM303AGR_ACC_R_x_data_avail, .-LSM303AGR_ACC_R_x_data_avail
 970 0596 00BF     		.align	2
 971 0598 AFF30080 		.p2align 4,,15
 971      AFF30080 
 972              		.global	LSM303AGR_ACC_R_y_data_avail
 973              		.thumb
 974              		.thumb_func
 975              		.type	LSM303AGR_ACC_R_y_data_avail, %function
 976              	LSM303AGR_ACC_R_y_data_avail:
 977              	.LFB280:
 978              		.loc 1 412 0
 979              		.cfi_startproc
 980              		@ args = 0, pretend = 0, frame = 8
 981              		@ frame_needed = 0, uses_anonymous_args = 0
 982 05a0 00B5     		push	{lr}
 983              		.cfi_def_cfa_offset 4
 984              		.cfi_offset 14, -4
 985 05a2 83B0     		sub	sp, sp, #12
 986              		.cfi_def_cfa_offset 16
 987 05a4 0190     		str	r0, [sp, #4]
 988 05a6 0091     		str	r1, [sp]
 989              		.loc 1 413 0
 990 05a8 0198     		ldr	r0, [sp, #4]
 991 05aa 0721     		movs	r1, #7
 992 05ac 009A     		ldr	r2, [sp]
 993 05ae 0123     		movs	r3, #1
 994 05b0 FFF7FEFF 		bl	LSM303AGR_ACC_ReadReg
 995 05b4 0346     		mov	r3, r0
 996 05b6 002B     		cmp	r3, #0
 997 05b8 01D1     		bne	.L62
 998              		.loc 1 414 0
 999 05ba 0023     		movs	r3, #0
 1000 05bc 07E0     		b	.L63
 1001              	.L62:
 1002              		.loc 1 416 0
 1003 05be 009B     		ldr	r3, [sp]
 1004 05c0 1B78     		ldrb	r3, [r3]	@ zero_extendqisi2
 1005 05c2 03F00203 		and	r3, r3, #2
 1006 05c6 DAB2     		uxtb	r2, r3
 1007 05c8 009B     		ldr	r3, [sp]
 1008 05ca 1A70     		strb	r2, [r3]
 1009              		.loc 1 418 0
 1010 05cc 0123     		movs	r3, #1
 1011              	.L63:
 1012              		.loc 1 419 0
 1013 05ce 1846     		mov	r0, r3
ARM GAS  /tmp/cc1ELVNa.s 			page 19


 1014 05d0 03B0     		add	sp, sp, #12
 1015              		@ sp needed
 1016 05d2 5DF804FB 		ldr	pc, [sp], #4
 1017              		.cfi_endproc
 1018              	.LFE280:
 1019              		.size	LSM303AGR_ACC_R_y_data_avail, .-LSM303AGR_ACC_R_y_data_avail
 1020 05d6 00BF     		.align	2
 1021 05d8 AFF30080 		.p2align 4,,15
 1021      AFF30080 
 1022              		.global	LSM303AGR_ACC_R_z_data_avail
 1023              		.thumb
 1024              		.thumb_func
 1025              		.type	LSM303AGR_ACC_R_z_data_avail, %function
 1026              	LSM303AGR_ACC_R_z_data_avail:
 1027              	.LFB281:
 1028              		.loc 1 429 0
 1029              		.cfi_startproc
 1030              		@ args = 0, pretend = 0, frame = 8
 1031              		@ frame_needed = 0, uses_anonymous_args = 0
 1032 05e0 00B5     		push	{lr}
 1033              		.cfi_def_cfa_offset 4
 1034              		.cfi_offset 14, -4
 1035 05e2 83B0     		sub	sp, sp, #12
 1036              		.cfi_def_cfa_offset 16
 1037 05e4 0190     		str	r0, [sp, #4]
 1038 05e6 0091     		str	r1, [sp]
 1039              		.loc 1 430 0
 1040 05e8 0198     		ldr	r0, [sp, #4]
 1041 05ea 0721     		movs	r1, #7
 1042 05ec 009A     		ldr	r2, [sp]
 1043 05ee 0123     		movs	r3, #1
 1044 05f0 FFF7FEFF 		bl	LSM303AGR_ACC_ReadReg
 1045 05f4 0346     		mov	r3, r0
 1046 05f6 002B     		cmp	r3, #0
 1047 05f8 01D1     		bne	.L65
 1048              		.loc 1 431 0
 1049 05fa 0023     		movs	r3, #0
 1050 05fc 07E0     		b	.L66
 1051              	.L65:
 1052              		.loc 1 433 0
 1053 05fe 009B     		ldr	r3, [sp]
 1054 0600 1B78     		ldrb	r3, [r3]	@ zero_extendqisi2
 1055 0602 03F00403 		and	r3, r3, #4
 1056 0606 DAB2     		uxtb	r2, r3
 1057 0608 009B     		ldr	r3, [sp]
 1058 060a 1A70     		strb	r2, [r3]
 1059              		.loc 1 435 0
 1060 060c 0123     		movs	r3, #1
 1061              	.L66:
 1062              		.loc 1 436 0
 1063 060e 1846     		mov	r0, r3
 1064 0610 03B0     		add	sp, sp, #12
 1065              		@ sp needed
 1066 0612 5DF804FB 		ldr	pc, [sp], #4
 1067              		.cfi_endproc
 1068              	.LFE281:
 1069              		.size	LSM303AGR_ACC_R_z_data_avail, .-LSM303AGR_ACC_R_z_data_avail
ARM GAS  /tmp/cc1ELVNa.s 			page 20


 1070 0616 00BF     		.align	2
 1071 0618 AFF30080 		.p2align 4,,15
 1071      AFF30080 
 1072              		.global	LSM303AGR_ACC_R_xyz_data_avail
 1073              		.thumb
 1074              		.thumb_func
 1075              		.type	LSM303AGR_ACC_R_xyz_data_avail, %function
 1076              	LSM303AGR_ACC_R_xyz_data_avail:
 1077              	.LFB282:
 1078              		.loc 1 446 0
 1079              		.cfi_startproc
 1080              		@ args = 0, pretend = 0, frame = 8
 1081              		@ frame_needed = 0, uses_anonymous_args = 0
 1082 0620 00B5     		push	{lr}
 1083              		.cfi_def_cfa_offset 4
 1084              		.cfi_offset 14, -4
 1085 0622 83B0     		sub	sp, sp, #12
 1086              		.cfi_def_cfa_offset 16
 1087 0624 0190     		str	r0, [sp, #4]
 1088 0626 0091     		str	r1, [sp]
 1089              		.loc 1 447 0
 1090 0628 0198     		ldr	r0, [sp, #4]
 1091 062a 0721     		movs	r1, #7
 1092 062c 009A     		ldr	r2, [sp]
 1093 062e 0123     		movs	r3, #1
 1094 0630 FFF7FEFF 		bl	LSM303AGR_ACC_ReadReg
 1095 0634 0346     		mov	r3, r0
 1096 0636 002B     		cmp	r3, #0
 1097 0638 01D1     		bne	.L68
 1098              		.loc 1 448 0
 1099 063a 0023     		movs	r3, #0
 1100 063c 07E0     		b	.L69
 1101              	.L68:
 1102              		.loc 1 450 0
 1103 063e 009B     		ldr	r3, [sp]
 1104 0640 1B78     		ldrb	r3, [r3]	@ zero_extendqisi2
 1105 0642 03F00803 		and	r3, r3, #8
 1106 0646 DAB2     		uxtb	r2, r3
 1107 0648 009B     		ldr	r3, [sp]
 1108 064a 1A70     		strb	r2, [r3]
 1109              		.loc 1 452 0
 1110 064c 0123     		movs	r3, #1
 1111              	.L69:
 1112              		.loc 1 453 0
 1113 064e 1846     		mov	r0, r3
 1114 0650 03B0     		add	sp, sp, #12
 1115              		@ sp needed
 1116 0652 5DF804FB 		ldr	pc, [sp], #4
 1117              		.cfi_endproc
 1118              	.LFE282:
 1119              		.size	LSM303AGR_ACC_R_xyz_data_avail, .-LSM303AGR_ACC_R_xyz_data_avail
 1120 0656 00BF     		.align	2
 1121 0658 AFF30080 		.p2align 4,,15
 1121      AFF30080 
 1122              		.global	LSM303AGR_ACC_R_DataXOverrun
 1123              		.thumb
 1124              		.thumb_func
ARM GAS  /tmp/cc1ELVNa.s 			page 21


 1125              		.type	LSM303AGR_ACC_R_DataXOverrun, %function
 1126              	LSM303AGR_ACC_R_DataXOverrun:
 1127              	.LFB283:
 1128              		.loc 1 463 0
 1129              		.cfi_startproc
 1130              		@ args = 0, pretend = 0, frame = 8
 1131              		@ frame_needed = 0, uses_anonymous_args = 0
 1132 0660 00B5     		push	{lr}
 1133              		.cfi_def_cfa_offset 4
 1134              		.cfi_offset 14, -4
 1135 0662 83B0     		sub	sp, sp, #12
 1136              		.cfi_def_cfa_offset 16
 1137 0664 0190     		str	r0, [sp, #4]
 1138 0666 0091     		str	r1, [sp]
 1139              		.loc 1 464 0
 1140 0668 0198     		ldr	r0, [sp, #4]
 1141 066a 0721     		movs	r1, #7
 1142 066c 009A     		ldr	r2, [sp]
 1143 066e 0123     		movs	r3, #1
 1144 0670 FFF7FEFF 		bl	LSM303AGR_ACC_ReadReg
 1145 0674 0346     		mov	r3, r0
 1146 0676 002B     		cmp	r3, #0
 1147 0678 01D1     		bne	.L71
 1148              		.loc 1 465 0
 1149 067a 0023     		movs	r3, #0
 1150 067c 07E0     		b	.L72
 1151              	.L71:
 1152              		.loc 1 467 0
 1153 067e 009B     		ldr	r3, [sp]
 1154 0680 1B78     		ldrb	r3, [r3]	@ zero_extendqisi2
 1155 0682 03F01003 		and	r3, r3, #16
 1156 0686 DAB2     		uxtb	r2, r3
 1157 0688 009B     		ldr	r3, [sp]
 1158 068a 1A70     		strb	r2, [r3]
 1159              		.loc 1 469 0
 1160 068c 0123     		movs	r3, #1
 1161              	.L72:
 1162              		.loc 1 470 0
 1163 068e 1846     		mov	r0, r3
 1164 0690 03B0     		add	sp, sp, #12
 1165              		@ sp needed
 1166 0692 5DF804FB 		ldr	pc, [sp], #4
 1167              		.cfi_endproc
 1168              	.LFE283:
 1169              		.size	LSM303AGR_ACC_R_DataXOverrun, .-LSM303AGR_ACC_R_DataXOverrun
 1170 0696 00BF     		.align	2
 1171 0698 AFF30080 		.p2align 4,,15
 1171      AFF30080 
 1172              		.global	LSM303AGR_ACC_R_DataYOverrun
 1173              		.thumb
 1174              		.thumb_func
 1175              		.type	LSM303AGR_ACC_R_DataYOverrun, %function
 1176              	LSM303AGR_ACC_R_DataYOverrun:
 1177              	.LFB284:
 1178              		.loc 1 480 0
 1179              		.cfi_startproc
 1180              		@ args = 0, pretend = 0, frame = 8
ARM GAS  /tmp/cc1ELVNa.s 			page 22


 1181              		@ frame_needed = 0, uses_anonymous_args = 0
 1182 06a0 00B5     		push	{lr}
 1183              		.cfi_def_cfa_offset 4
 1184              		.cfi_offset 14, -4
 1185 06a2 83B0     		sub	sp, sp, #12
 1186              		.cfi_def_cfa_offset 16
 1187 06a4 0190     		str	r0, [sp, #4]
 1188 06a6 0091     		str	r1, [sp]
 1189              		.loc 1 481 0
 1190 06a8 0198     		ldr	r0, [sp, #4]
 1191 06aa 0721     		movs	r1, #7
 1192 06ac 009A     		ldr	r2, [sp]
 1193 06ae 0123     		movs	r3, #1
 1194 06b0 FFF7FEFF 		bl	LSM303AGR_ACC_ReadReg
 1195 06b4 0346     		mov	r3, r0
 1196 06b6 002B     		cmp	r3, #0
 1197 06b8 01D1     		bne	.L74
 1198              		.loc 1 482 0
 1199 06ba 0023     		movs	r3, #0
 1200 06bc 07E0     		b	.L75
 1201              	.L74:
 1202              		.loc 1 484 0
 1203 06be 009B     		ldr	r3, [sp]
 1204 06c0 1B78     		ldrb	r3, [r3]	@ zero_extendqisi2
 1205 06c2 03F02003 		and	r3, r3, #32
 1206 06c6 DAB2     		uxtb	r2, r3
 1207 06c8 009B     		ldr	r3, [sp]
 1208 06ca 1A70     		strb	r2, [r3]
 1209              		.loc 1 486 0
 1210 06cc 0123     		movs	r3, #1
 1211              	.L75:
 1212              		.loc 1 487 0
 1213 06ce 1846     		mov	r0, r3
 1214 06d0 03B0     		add	sp, sp, #12
 1215              		@ sp needed
 1216 06d2 5DF804FB 		ldr	pc, [sp], #4
 1217              		.cfi_endproc
 1218              	.LFE284:
 1219              		.size	LSM303AGR_ACC_R_DataYOverrun, .-LSM303AGR_ACC_R_DataYOverrun
 1220 06d6 00BF     		.align	2
 1221 06d8 AFF30080 		.p2align 4,,15
 1221      AFF30080 
 1222              		.global	LSM303AGR_ACC_R_DataZOverrun
 1223              		.thumb
 1224              		.thumb_func
 1225              		.type	LSM303AGR_ACC_R_DataZOverrun, %function
 1226              	LSM303AGR_ACC_R_DataZOverrun:
 1227              	.LFB285:
 1228              		.loc 1 497 0
 1229              		.cfi_startproc
 1230              		@ args = 0, pretend = 0, frame = 8
 1231              		@ frame_needed = 0, uses_anonymous_args = 0
 1232 06e0 00B5     		push	{lr}
 1233              		.cfi_def_cfa_offset 4
 1234              		.cfi_offset 14, -4
 1235 06e2 83B0     		sub	sp, sp, #12
 1236              		.cfi_def_cfa_offset 16
ARM GAS  /tmp/cc1ELVNa.s 			page 23


 1237 06e4 0190     		str	r0, [sp, #4]
 1238 06e6 0091     		str	r1, [sp]
 1239              		.loc 1 498 0
 1240 06e8 0198     		ldr	r0, [sp, #4]
 1241 06ea 0721     		movs	r1, #7
 1242 06ec 009A     		ldr	r2, [sp]
 1243 06ee 0123     		movs	r3, #1
 1244 06f0 FFF7FEFF 		bl	LSM303AGR_ACC_ReadReg
 1245 06f4 0346     		mov	r3, r0
 1246 06f6 002B     		cmp	r3, #0
 1247 06f8 01D1     		bne	.L77
 1248              		.loc 1 499 0
 1249 06fa 0023     		movs	r3, #0
 1250 06fc 07E0     		b	.L78
 1251              	.L77:
 1252              		.loc 1 501 0
 1253 06fe 009B     		ldr	r3, [sp]
 1254 0700 1B78     		ldrb	r3, [r3]	@ zero_extendqisi2
 1255 0702 03F04003 		and	r3, r3, #64
 1256 0706 DAB2     		uxtb	r2, r3
 1257 0708 009B     		ldr	r3, [sp]
 1258 070a 1A70     		strb	r2, [r3]
 1259              		.loc 1 503 0
 1260 070c 0123     		movs	r3, #1
 1261              	.L78:
 1262              		.loc 1 504 0
 1263 070e 1846     		mov	r0, r3
 1264 0710 03B0     		add	sp, sp, #12
 1265              		@ sp needed
 1266 0712 5DF804FB 		ldr	pc, [sp], #4
 1267              		.cfi_endproc
 1268              	.LFE285:
 1269              		.size	LSM303AGR_ACC_R_DataZOverrun, .-LSM303AGR_ACC_R_DataZOverrun
 1270 0716 00BF     		.align	2
 1271 0718 AFF30080 		.p2align 4,,15
 1271      AFF30080 
 1272              		.global	LSM303AGR_ACC_R_DataXYZOverrun
 1273              		.thumb
 1274              		.thumb_func
 1275              		.type	LSM303AGR_ACC_R_DataXYZOverrun, %function
 1276              	LSM303AGR_ACC_R_DataXYZOverrun:
 1277              	.LFB286:
 1278              		.loc 1 514 0
 1279              		.cfi_startproc
 1280              		@ args = 0, pretend = 0, frame = 8
 1281              		@ frame_needed = 0, uses_anonymous_args = 0
 1282 0720 00B5     		push	{lr}
 1283              		.cfi_def_cfa_offset 4
 1284              		.cfi_offset 14, -4
 1285 0722 83B0     		sub	sp, sp, #12
 1286              		.cfi_def_cfa_offset 16
 1287 0724 0190     		str	r0, [sp, #4]
 1288 0726 0091     		str	r1, [sp]
 1289              		.loc 1 515 0
 1290 0728 0198     		ldr	r0, [sp, #4]
 1291 072a 0721     		movs	r1, #7
 1292 072c 009A     		ldr	r2, [sp]
ARM GAS  /tmp/cc1ELVNa.s 			page 24


 1293 072e 0123     		movs	r3, #1
 1294 0730 FFF7FEFF 		bl	LSM303AGR_ACC_ReadReg
 1295 0734 0346     		mov	r3, r0
 1296 0736 002B     		cmp	r3, #0
 1297 0738 01D1     		bne	.L80
 1298              		.loc 1 516 0
 1299 073a 0023     		movs	r3, #0
 1300 073c 07E0     		b	.L81
 1301              	.L80:
 1302              		.loc 1 518 0
 1303 073e 009B     		ldr	r3, [sp]
 1304 0740 1B78     		ldrb	r3, [r3]	@ zero_extendqisi2
 1305 0742 23F07F03 		bic	r3, r3, #127
 1306 0746 DAB2     		uxtb	r2, r3
 1307 0748 009B     		ldr	r3, [sp]
 1308 074a 1A70     		strb	r2, [r3]
 1309              		.loc 1 520 0
 1310 074c 0123     		movs	r3, #1
 1311              	.L81:
 1312              		.loc 1 521 0
 1313 074e 1846     		mov	r0, r3
 1314 0750 03B0     		add	sp, sp, #12
 1315              		@ sp needed
 1316 0752 5DF804FB 		ldr	pc, [sp], #4
 1317              		.cfi_endproc
 1318              	.LFE286:
 1319              		.size	LSM303AGR_ACC_R_DataXYZOverrun, .-LSM303AGR_ACC_R_DataXYZOverrun
 1320 0756 00BF     		.align	2
 1321 0758 AFF30080 		.p2align 4,,15
 1321      AFF30080 
 1322              		.global	LSM303AGR_ACC_R_int_counter
 1323              		.thumb
 1324              		.thumb_func
 1325              		.type	LSM303AGR_ACC_R_int_counter, %function
 1326              	LSM303AGR_ACC_R_int_counter:
 1327              	.LFB287:
 1328              		.loc 1 531 0
 1329              		.cfi_startproc
 1330              		@ args = 0, pretend = 0, frame = 8
 1331              		@ frame_needed = 0, uses_anonymous_args = 0
 1332 0760 00B5     		push	{lr}
 1333              		.cfi_def_cfa_offset 4
 1334              		.cfi_offset 14, -4
 1335 0762 83B0     		sub	sp, sp, #12
 1336              		.cfi_def_cfa_offset 16
 1337 0764 0190     		str	r0, [sp, #4]
 1338 0766 0091     		str	r1, [sp]
 1339              		.loc 1 532 0
 1340 0768 0198     		ldr	r0, [sp, #4]
 1341 076a 0E21     		movs	r1, #14
 1342 076c 009A     		ldr	r2, [sp]
 1343 076e 0123     		movs	r3, #1
 1344 0770 FFF7FEFF 		bl	LSM303AGR_ACC_ReadReg
 1345 0774 0346     		mov	r3, r0
 1346 0776 002B     		cmp	r3, #0
 1347 0778 01D1     		bne	.L83
 1348              		.loc 1 533 0
ARM GAS  /tmp/cc1ELVNa.s 			page 25


 1349 077a 0023     		movs	r3, #0
 1350 077c 08E0     		b	.L84
 1351              	.L83:
 1352              		.loc 1 535 0
 1353 077e 009B     		ldr	r3, [sp]
 1354 0780 1A78     		ldrb	r2, [r3]	@ zero_extendqisi2
 1355 0782 009B     		ldr	r3, [sp]
 1356 0784 1A70     		strb	r2, [r3]
 1357              		.loc 1 536 0
 1358 0786 009B     		ldr	r3, [sp]
 1359 0788 1A78     		ldrb	r2, [r3]	@ zero_extendqisi2
 1360 078a 009B     		ldr	r3, [sp]
 1361 078c 1A70     		strb	r2, [r3]
 1362              		.loc 1 538 0
 1363 078e 0123     		movs	r3, #1
 1364              	.L84:
 1365              		.loc 1 539 0
 1366 0790 1846     		mov	r0, r3
 1367 0792 03B0     		add	sp, sp, #12
 1368              		@ sp needed
 1369 0794 5DF804FB 		ldr	pc, [sp], #4
 1370              		.cfi_endproc
 1371              	.LFE287:
 1372              		.size	LSM303AGR_ACC_R_int_counter, .-LSM303AGR_ACC_R_int_counter
 1373              		.align	2
 1374 0798 AFF30080 		.p2align 4,,15
 1374      AFF30080 
 1375              		.global	LSM303AGR_ACC_W_TEMP_EN_bits
 1376              		.thumb
 1377              		.thumb_func
 1378              		.type	LSM303AGR_ACC_W_TEMP_EN_bits, %function
 1379              	LSM303AGR_ACC_W_TEMP_EN_bits:
 1380              	.LFB288:
 1381              		.loc 1 549 0
 1382              		.cfi_startproc
 1383              		@ args = 0, pretend = 0, frame = 16
 1384              		@ frame_needed = 0, uses_anonymous_args = 0
 1385 07a0 00B5     		push	{lr}
 1386              		.cfi_def_cfa_offset 4
 1387              		.cfi_offset 14, -4
 1388 07a2 85B0     		sub	sp, sp, #20
 1389              		.cfi_def_cfa_offset 24
 1390 07a4 0190     		str	r0, [sp, #4]
 1391 07a6 0B46     		mov	r3, r1
 1392 07a8 8DF80330 		strb	r3, [sp, #3]
 1393              		.loc 1 552 0
 1394 07ac 0DF10F03 		add	r3, sp, #15
 1395 07b0 0198     		ldr	r0, [sp, #4]
 1396 07b2 1F21     		movs	r1, #31
 1397 07b4 1A46     		mov	r2, r3
 1398 07b6 0123     		movs	r3, #1
 1399 07b8 FFF7FEFF 		bl	LSM303AGR_ACC_ReadReg
 1400 07bc 0346     		mov	r3, r0
 1401 07be 002B     		cmp	r3, #0
 1402 07c0 01D1     		bne	.L86
 1403              		.loc 1 553 0
 1404 07c2 0023     		movs	r3, #0
ARM GAS  /tmp/cc1ELVNa.s 			page 26


 1405 07c4 1CE0     		b	.L89
 1406              	.L86:
 1407              		.loc 1 555 0
 1408 07c6 9DF80F30 		ldrb	r3, [sp, #15]	@ zero_extendqisi2
 1409 07ca 23F04003 		bic	r3, r3, #64
 1410 07ce DBB2     		uxtb	r3, r3
 1411 07d0 8DF80F30 		strb	r3, [sp, #15]
 1412              		.loc 1 556 0
 1413 07d4 9DF80F20 		ldrb	r2, [sp, #15]	@ zero_extendqisi2
 1414 07d8 9DF80330 		ldrb	r3, [sp, #3]
 1415 07dc 1343     		orrs	r3, r3, r2
 1416 07de DBB2     		uxtb	r3, r3
 1417 07e0 8DF80F30 		strb	r3, [sp, #15]
 1418              		.loc 1 558 0
 1419 07e4 0DF10F03 		add	r3, sp, #15
 1420 07e8 0198     		ldr	r0, [sp, #4]
 1421 07ea 1F21     		movs	r1, #31
 1422 07ec 1A46     		mov	r2, r3
 1423 07ee 0123     		movs	r3, #1
 1424 07f0 FFF7FEFF 		bl	LSM303AGR_ACC_WriteReg
 1425 07f4 0346     		mov	r3, r0
 1426 07f6 002B     		cmp	r3, #0
 1427 07f8 01D1     		bne	.L88
 1428              		.loc 1 559 0
 1429 07fa 0023     		movs	r3, #0
 1430 07fc 00E0     		b	.L89
 1431              	.L88:
 1432              		.loc 1 561 0
 1433 07fe 0123     		movs	r3, #1
 1434              	.L89:
 1435              		.loc 1 562 0
 1436 0800 1846     		mov	r0, r3
 1437 0802 05B0     		add	sp, sp, #20
 1438              		@ sp needed
 1439 0804 5DF804FB 		ldr	pc, [sp], #4
 1440              		.cfi_endproc
 1441              	.LFE288:
 1442              		.size	LSM303AGR_ACC_W_TEMP_EN_bits, .-LSM303AGR_ACC_W_TEMP_EN_bits
 1443              		.align	2
 1444 0808 AFF30080 		.p2align 4,,15
 1444      AFF30080 
 1445              		.global	LSM303AGR_ACC_R_TEMP_EN_bits
 1446              		.thumb
 1447              		.thumb_func
 1448              		.type	LSM303AGR_ACC_R_TEMP_EN_bits, %function
 1449              	LSM303AGR_ACC_R_TEMP_EN_bits:
 1450              	.LFB289:
 1451              		.loc 1 572 0
 1452              		.cfi_startproc
 1453              		@ args = 0, pretend = 0, frame = 8
 1454              		@ frame_needed = 0, uses_anonymous_args = 0
 1455 0810 00B5     		push	{lr}
 1456              		.cfi_def_cfa_offset 4
 1457              		.cfi_offset 14, -4
 1458 0812 83B0     		sub	sp, sp, #12
 1459              		.cfi_def_cfa_offset 16
 1460 0814 0190     		str	r0, [sp, #4]
ARM GAS  /tmp/cc1ELVNa.s 			page 27


 1461 0816 0091     		str	r1, [sp]
 1462              		.loc 1 573 0
 1463 0818 0198     		ldr	r0, [sp, #4]
 1464 081a 1F21     		movs	r1, #31
 1465 081c 009A     		ldr	r2, [sp]
 1466 081e 0123     		movs	r3, #1
 1467 0820 FFF7FEFF 		bl	LSM303AGR_ACC_ReadReg
 1468 0824 0346     		mov	r3, r0
 1469 0826 002B     		cmp	r3, #0
 1470 0828 01D1     		bne	.L91
 1471              		.loc 1 574 0
 1472 082a 0023     		movs	r3, #0
 1473 082c 07E0     		b	.L92
 1474              	.L91:
 1475              		.loc 1 576 0
 1476 082e 009B     		ldr	r3, [sp]
 1477 0830 1B78     		ldrb	r3, [r3]	@ zero_extendqisi2
 1478 0832 03F04003 		and	r3, r3, #64
 1479 0836 DAB2     		uxtb	r2, r3
 1480 0838 009B     		ldr	r3, [sp]
 1481 083a 1A70     		strb	r2, [r3]
 1482              		.loc 1 578 0
 1483 083c 0123     		movs	r3, #1
 1484              	.L92:
 1485              		.loc 1 579 0
 1486 083e 1846     		mov	r0, r3
 1487 0840 03B0     		add	sp, sp, #12
 1488              		@ sp needed
 1489 0842 5DF804FB 		ldr	pc, [sp], #4
 1490              		.cfi_endproc
 1491              	.LFE289:
 1492              		.size	LSM303AGR_ACC_R_TEMP_EN_bits, .-LSM303AGR_ACC_R_TEMP_EN_bits
 1493 0846 00BF     		.align	2
 1494 0848 AFF30080 		.p2align 4,,15
 1494      AFF30080 
 1495              		.global	LSM303AGR_ACC_W_ADC_PD
 1496              		.thumb
 1497              		.thumb_func
 1498              		.type	LSM303AGR_ACC_W_ADC_PD, %function
 1499              	LSM303AGR_ACC_W_ADC_PD:
 1500              	.LFB290:
 1501              		.loc 1 589 0
 1502              		.cfi_startproc
 1503              		@ args = 0, pretend = 0, frame = 16
 1504              		@ frame_needed = 0, uses_anonymous_args = 0
 1505 0850 00B5     		push	{lr}
 1506              		.cfi_def_cfa_offset 4
 1507              		.cfi_offset 14, -4
 1508 0852 85B0     		sub	sp, sp, #20
 1509              		.cfi_def_cfa_offset 24
 1510 0854 0190     		str	r0, [sp, #4]
 1511 0856 0B46     		mov	r3, r1
 1512 0858 8DF80330 		strb	r3, [sp, #3]
 1513              		.loc 1 592 0
 1514 085c 0DF10F03 		add	r3, sp, #15
 1515 0860 0198     		ldr	r0, [sp, #4]
 1516 0862 1F21     		movs	r1, #31
ARM GAS  /tmp/cc1ELVNa.s 			page 28


 1517 0864 1A46     		mov	r2, r3
 1518 0866 0123     		movs	r3, #1
 1519 0868 FFF7FEFF 		bl	LSM303AGR_ACC_ReadReg
 1520 086c 0346     		mov	r3, r0
 1521 086e 002B     		cmp	r3, #0
 1522 0870 01D1     		bne	.L94
 1523              		.loc 1 593 0
 1524 0872 0023     		movs	r3, #0
 1525 0874 1CE0     		b	.L97
 1526              	.L94:
 1527              		.loc 1 595 0
 1528 0876 9DF80F30 		ldrb	r3, [sp, #15]	@ zero_extendqisi2
 1529 087a 03F07F03 		and	r3, r3, #127
 1530 087e DBB2     		uxtb	r3, r3
 1531 0880 8DF80F30 		strb	r3, [sp, #15]
 1532              		.loc 1 596 0
 1533 0884 9DF80F20 		ldrb	r2, [sp, #15]	@ zero_extendqisi2
 1534 0888 9DF80330 		ldrb	r3, [sp, #3]
 1535 088c 1343     		orrs	r3, r3, r2
 1536 088e DBB2     		uxtb	r3, r3
 1537 0890 8DF80F30 		strb	r3, [sp, #15]
 1538              		.loc 1 598 0
 1539 0894 0DF10F03 		add	r3, sp, #15
 1540 0898 0198     		ldr	r0, [sp, #4]
 1541 089a 1F21     		movs	r1, #31
 1542 089c 1A46     		mov	r2, r3
 1543 089e 0123     		movs	r3, #1
 1544 08a0 FFF7FEFF 		bl	LSM303AGR_ACC_WriteReg
 1545 08a4 0346     		mov	r3, r0
 1546 08a6 002B     		cmp	r3, #0
 1547 08a8 01D1     		bne	.L96
 1548              		.loc 1 599 0
 1549 08aa 0023     		movs	r3, #0
 1550 08ac 00E0     		b	.L97
 1551              	.L96:
 1552              		.loc 1 601 0
 1553 08ae 0123     		movs	r3, #1
 1554              	.L97:
 1555              		.loc 1 602 0
 1556 08b0 1846     		mov	r0, r3
 1557 08b2 05B0     		add	sp, sp, #20
 1558              		@ sp needed
 1559 08b4 5DF804FB 		ldr	pc, [sp], #4
 1560              		.cfi_endproc
 1561              	.LFE290:
 1562              		.size	LSM303AGR_ACC_W_ADC_PD, .-LSM303AGR_ACC_W_ADC_PD
 1563              		.align	2
 1564 08b8 AFF30080 		.p2align 4,,15
 1564      AFF30080 
 1565              		.global	LSM303AGR_ACC_R_ADC_PD
 1566              		.thumb
 1567              		.thumb_func
 1568              		.type	LSM303AGR_ACC_R_ADC_PD, %function
 1569              	LSM303AGR_ACC_R_ADC_PD:
 1570              	.LFB291:
 1571              		.loc 1 612 0
 1572              		.cfi_startproc
ARM GAS  /tmp/cc1ELVNa.s 			page 29


 1573              		@ args = 0, pretend = 0, frame = 8
 1574              		@ frame_needed = 0, uses_anonymous_args = 0
 1575 08c0 00B5     		push	{lr}
 1576              		.cfi_def_cfa_offset 4
 1577              		.cfi_offset 14, -4
 1578 08c2 83B0     		sub	sp, sp, #12
 1579              		.cfi_def_cfa_offset 16
 1580 08c4 0190     		str	r0, [sp, #4]
 1581 08c6 0091     		str	r1, [sp]
 1582              		.loc 1 613 0
 1583 08c8 0198     		ldr	r0, [sp, #4]
 1584 08ca 1F21     		movs	r1, #31
 1585 08cc 009A     		ldr	r2, [sp]
 1586 08ce 0123     		movs	r3, #1
 1587 08d0 FFF7FEFF 		bl	LSM303AGR_ACC_ReadReg
 1588 08d4 0346     		mov	r3, r0
 1589 08d6 002B     		cmp	r3, #0
 1590 08d8 01D1     		bne	.L99
 1591              		.loc 1 614 0
 1592 08da 0023     		movs	r3, #0
 1593 08dc 07E0     		b	.L100
 1594              	.L99:
 1595              		.loc 1 616 0
 1596 08de 009B     		ldr	r3, [sp]
 1597 08e0 1B78     		ldrb	r3, [r3]	@ zero_extendqisi2
 1598 08e2 23F07F03 		bic	r3, r3, #127
 1599 08e6 DAB2     		uxtb	r2, r3
 1600 08e8 009B     		ldr	r3, [sp]
 1601 08ea 1A70     		strb	r2, [r3]
 1602              		.loc 1 618 0
 1603 08ec 0123     		movs	r3, #1
 1604              	.L100:
 1605              		.loc 1 619 0
 1606 08ee 1846     		mov	r0, r3
 1607 08f0 03B0     		add	sp, sp, #12
 1608              		@ sp needed
 1609 08f2 5DF804FB 		ldr	pc, [sp], #4
 1610              		.cfi_endproc
 1611              	.LFE291:
 1612              		.size	LSM303AGR_ACC_R_ADC_PD, .-LSM303AGR_ACC_R_ADC_PD
 1613 08f6 00BF     		.align	2
 1614 08f8 AFF30080 		.p2align 4,,15
 1614      AFF30080 
 1615              		.global	LSM303AGR_ACC_W_XEN
 1616              		.thumb
 1617              		.thumb_func
 1618              		.type	LSM303AGR_ACC_W_XEN, %function
 1619              	LSM303AGR_ACC_W_XEN:
 1620              	.LFB292:
 1621              		.loc 1 629 0
 1622              		.cfi_startproc
 1623              		@ args = 0, pretend = 0, frame = 16
 1624              		@ frame_needed = 0, uses_anonymous_args = 0
 1625 0900 00B5     		push	{lr}
 1626              		.cfi_def_cfa_offset 4
 1627              		.cfi_offset 14, -4
 1628 0902 85B0     		sub	sp, sp, #20
ARM GAS  /tmp/cc1ELVNa.s 			page 30


 1629              		.cfi_def_cfa_offset 24
 1630 0904 0190     		str	r0, [sp, #4]
 1631 0906 0B46     		mov	r3, r1
 1632 0908 8DF80330 		strb	r3, [sp, #3]
 1633              		.loc 1 632 0
 1634 090c 0DF10F03 		add	r3, sp, #15
 1635 0910 0198     		ldr	r0, [sp, #4]
 1636 0912 2021     		movs	r1, #32
 1637 0914 1A46     		mov	r2, r3
 1638 0916 0123     		movs	r3, #1
 1639 0918 FFF7FEFF 		bl	LSM303AGR_ACC_ReadReg
 1640 091c 0346     		mov	r3, r0
 1641 091e 002B     		cmp	r3, #0
 1642 0920 01D1     		bne	.L102
 1643              		.loc 1 633 0
 1644 0922 0023     		movs	r3, #0
 1645 0924 1CE0     		b	.L105
 1646              	.L102:
 1647              		.loc 1 635 0
 1648 0926 9DF80F30 		ldrb	r3, [sp, #15]	@ zero_extendqisi2
 1649 092a 23F00103 		bic	r3, r3, #1
 1650 092e DBB2     		uxtb	r3, r3
 1651 0930 8DF80F30 		strb	r3, [sp, #15]
 1652              		.loc 1 636 0
 1653 0934 9DF80F20 		ldrb	r2, [sp, #15]	@ zero_extendqisi2
 1654 0938 9DF80330 		ldrb	r3, [sp, #3]
 1655 093c 1343     		orrs	r3, r3, r2
 1656 093e DBB2     		uxtb	r3, r3
 1657 0940 8DF80F30 		strb	r3, [sp, #15]
 1658              		.loc 1 638 0
 1659 0944 0DF10F03 		add	r3, sp, #15
 1660 0948 0198     		ldr	r0, [sp, #4]
 1661 094a 2021     		movs	r1, #32
 1662 094c 1A46     		mov	r2, r3
 1663 094e 0123     		movs	r3, #1
 1664 0950 FFF7FEFF 		bl	LSM303AGR_ACC_WriteReg
 1665 0954 0346     		mov	r3, r0
 1666 0956 002B     		cmp	r3, #0
 1667 0958 01D1     		bne	.L104
 1668              		.loc 1 639 0
 1669 095a 0023     		movs	r3, #0
 1670 095c 00E0     		b	.L105
 1671              	.L104:
 1672              		.loc 1 641 0
 1673 095e 0123     		movs	r3, #1
 1674              	.L105:
 1675              		.loc 1 642 0
 1676 0960 1846     		mov	r0, r3
 1677 0962 05B0     		add	sp, sp, #20
 1678              		@ sp needed
 1679 0964 5DF804FB 		ldr	pc, [sp], #4
 1680              		.cfi_endproc
 1681              	.LFE292:
 1682              		.size	LSM303AGR_ACC_W_XEN, .-LSM303AGR_ACC_W_XEN
 1683              		.align	2
 1684 0968 AFF30080 		.p2align 4,,15
 1684      AFF30080 
ARM GAS  /tmp/cc1ELVNa.s 			page 31


 1685              		.global	LSM303AGR_ACC_R_XEN
 1686              		.thumb
 1687              		.thumb_func
 1688              		.type	LSM303AGR_ACC_R_XEN, %function
 1689              	LSM303AGR_ACC_R_XEN:
 1690              	.LFB293:
 1691              		.loc 1 652 0
 1692              		.cfi_startproc
 1693              		@ args = 0, pretend = 0, frame = 8
 1694              		@ frame_needed = 0, uses_anonymous_args = 0
 1695 0970 00B5     		push	{lr}
 1696              		.cfi_def_cfa_offset 4
 1697              		.cfi_offset 14, -4
 1698 0972 83B0     		sub	sp, sp, #12
 1699              		.cfi_def_cfa_offset 16
 1700 0974 0190     		str	r0, [sp, #4]
 1701 0976 0091     		str	r1, [sp]
 1702              		.loc 1 653 0
 1703 0978 0198     		ldr	r0, [sp, #4]
 1704 097a 2021     		movs	r1, #32
 1705 097c 009A     		ldr	r2, [sp]
 1706 097e 0123     		movs	r3, #1
 1707 0980 FFF7FEFF 		bl	LSM303AGR_ACC_ReadReg
 1708 0984 0346     		mov	r3, r0
 1709 0986 002B     		cmp	r3, #0
 1710 0988 01D1     		bne	.L107
 1711              		.loc 1 654 0
 1712 098a 0023     		movs	r3, #0
 1713 098c 07E0     		b	.L108
 1714              	.L107:
 1715              		.loc 1 656 0
 1716 098e 009B     		ldr	r3, [sp]
 1717 0990 1B78     		ldrb	r3, [r3]	@ zero_extendqisi2
 1718 0992 03F00103 		and	r3, r3, #1
 1719 0996 DAB2     		uxtb	r2, r3
 1720 0998 009B     		ldr	r3, [sp]
 1721 099a 1A70     		strb	r2, [r3]
 1722              		.loc 1 658 0
 1723 099c 0123     		movs	r3, #1
 1724              	.L108:
 1725              		.loc 1 659 0
 1726 099e 1846     		mov	r0, r3
 1727 09a0 03B0     		add	sp, sp, #12
 1728              		@ sp needed
 1729 09a2 5DF804FB 		ldr	pc, [sp], #4
 1730              		.cfi_endproc
 1731              	.LFE293:
 1732              		.size	LSM303AGR_ACC_R_XEN, .-LSM303AGR_ACC_R_XEN
 1733 09a6 00BF     		.align	2
 1734 09a8 AFF30080 		.p2align 4,,15
 1734      AFF30080 
 1735              		.global	LSM303AGR_ACC_W_YEN
 1736              		.thumb
 1737              		.thumb_func
 1738              		.type	LSM303AGR_ACC_W_YEN, %function
 1739              	LSM303AGR_ACC_W_YEN:
 1740              	.LFB294:
ARM GAS  /tmp/cc1ELVNa.s 			page 32


 1741              		.loc 1 669 0
 1742              		.cfi_startproc
 1743              		@ args = 0, pretend = 0, frame = 16
 1744              		@ frame_needed = 0, uses_anonymous_args = 0
 1745 09b0 00B5     		push	{lr}
 1746              		.cfi_def_cfa_offset 4
 1747              		.cfi_offset 14, -4
 1748 09b2 85B0     		sub	sp, sp, #20
 1749              		.cfi_def_cfa_offset 24
 1750 09b4 0190     		str	r0, [sp, #4]
 1751 09b6 0B46     		mov	r3, r1
 1752 09b8 8DF80330 		strb	r3, [sp, #3]
 1753              		.loc 1 672 0
 1754 09bc 0DF10F03 		add	r3, sp, #15
 1755 09c0 0198     		ldr	r0, [sp, #4]
 1756 09c2 2021     		movs	r1, #32
 1757 09c4 1A46     		mov	r2, r3
 1758 09c6 0123     		movs	r3, #1
 1759 09c8 FFF7FEFF 		bl	LSM303AGR_ACC_ReadReg
 1760 09cc 0346     		mov	r3, r0
 1761 09ce 002B     		cmp	r3, #0
 1762 09d0 01D1     		bne	.L110
 1763              		.loc 1 673 0
 1764 09d2 0023     		movs	r3, #0
 1765 09d4 1CE0     		b	.L113
 1766              	.L110:
 1767              		.loc 1 675 0
 1768 09d6 9DF80F30 		ldrb	r3, [sp, #15]	@ zero_extendqisi2
 1769 09da 23F00203 		bic	r3, r3, #2
 1770 09de DBB2     		uxtb	r3, r3
 1771 09e0 8DF80F30 		strb	r3, [sp, #15]
 1772              		.loc 1 676 0
 1773 09e4 9DF80F20 		ldrb	r2, [sp, #15]	@ zero_extendqisi2
 1774 09e8 9DF80330 		ldrb	r3, [sp, #3]
 1775 09ec 1343     		orrs	r3, r3, r2
 1776 09ee DBB2     		uxtb	r3, r3
 1777 09f0 8DF80F30 		strb	r3, [sp, #15]
 1778              		.loc 1 678 0
 1779 09f4 0DF10F03 		add	r3, sp, #15
 1780 09f8 0198     		ldr	r0, [sp, #4]
 1781 09fa 2021     		movs	r1, #32
 1782 09fc 1A46     		mov	r2, r3
 1783 09fe 0123     		movs	r3, #1
 1784 0a00 FFF7FEFF 		bl	LSM303AGR_ACC_WriteReg
 1785 0a04 0346     		mov	r3, r0
 1786 0a06 002B     		cmp	r3, #0
 1787 0a08 01D1     		bne	.L112
 1788              		.loc 1 679 0
 1789 0a0a 0023     		movs	r3, #0
 1790 0a0c 00E0     		b	.L113
 1791              	.L112:
 1792              		.loc 1 681 0
 1793 0a0e 0123     		movs	r3, #1
 1794              	.L113:
 1795              		.loc 1 682 0
 1796 0a10 1846     		mov	r0, r3
 1797 0a12 05B0     		add	sp, sp, #20
ARM GAS  /tmp/cc1ELVNa.s 			page 33


 1798              		@ sp needed
 1799 0a14 5DF804FB 		ldr	pc, [sp], #4
 1800              		.cfi_endproc
 1801              	.LFE294:
 1802              		.size	LSM303AGR_ACC_W_YEN, .-LSM303AGR_ACC_W_YEN
 1803              		.align	2
 1804 0a18 AFF30080 		.p2align 4,,15
 1804      AFF30080 
 1805              		.global	LSM303AGR_ACC_R_YEN
 1806              		.thumb
 1807              		.thumb_func
 1808              		.type	LSM303AGR_ACC_R_YEN, %function
 1809              	LSM303AGR_ACC_R_YEN:
 1810              	.LFB295:
 1811              		.loc 1 692 0
 1812              		.cfi_startproc
 1813              		@ args = 0, pretend = 0, frame = 8
 1814              		@ frame_needed = 0, uses_anonymous_args = 0
 1815 0a20 00B5     		push	{lr}
 1816              		.cfi_def_cfa_offset 4
 1817              		.cfi_offset 14, -4
 1818 0a22 83B0     		sub	sp, sp, #12
 1819              		.cfi_def_cfa_offset 16
 1820 0a24 0190     		str	r0, [sp, #4]
 1821 0a26 0091     		str	r1, [sp]
 1822              		.loc 1 693 0
 1823 0a28 0198     		ldr	r0, [sp, #4]
 1824 0a2a 2021     		movs	r1, #32
 1825 0a2c 009A     		ldr	r2, [sp]
 1826 0a2e 0123     		movs	r3, #1
 1827 0a30 FFF7FEFF 		bl	LSM303AGR_ACC_ReadReg
 1828 0a34 0346     		mov	r3, r0
 1829 0a36 002B     		cmp	r3, #0
 1830 0a38 01D1     		bne	.L115
 1831              		.loc 1 694 0
 1832 0a3a 0023     		movs	r3, #0
 1833 0a3c 07E0     		b	.L116
 1834              	.L115:
 1835              		.loc 1 696 0
 1836 0a3e 009B     		ldr	r3, [sp]
 1837 0a40 1B78     		ldrb	r3, [r3]	@ zero_extendqisi2
 1838 0a42 03F00203 		and	r3, r3, #2
 1839 0a46 DAB2     		uxtb	r2, r3
 1840 0a48 009B     		ldr	r3, [sp]
 1841 0a4a 1A70     		strb	r2, [r3]
 1842              		.loc 1 698 0
 1843 0a4c 0123     		movs	r3, #1
 1844              	.L116:
 1845              		.loc 1 699 0
 1846 0a4e 1846     		mov	r0, r3
 1847 0a50 03B0     		add	sp, sp, #12
 1848              		@ sp needed
 1849 0a52 5DF804FB 		ldr	pc, [sp], #4
 1850              		.cfi_endproc
 1851              	.LFE295:
 1852              		.size	LSM303AGR_ACC_R_YEN, .-LSM303AGR_ACC_R_YEN
 1853 0a56 00BF     		.align	2
ARM GAS  /tmp/cc1ELVNa.s 			page 34


 1854 0a58 AFF30080 		.p2align 4,,15
 1854      AFF30080 
 1855              		.global	LSM303AGR_ACC_W_ZEN
 1856              		.thumb
 1857              		.thumb_func
 1858              		.type	LSM303AGR_ACC_W_ZEN, %function
 1859              	LSM303AGR_ACC_W_ZEN:
 1860              	.LFB296:
 1861              		.loc 1 709 0
 1862              		.cfi_startproc
 1863              		@ args = 0, pretend = 0, frame = 16
 1864              		@ frame_needed = 0, uses_anonymous_args = 0
 1865 0a60 00B5     		push	{lr}
 1866              		.cfi_def_cfa_offset 4
 1867              		.cfi_offset 14, -4
 1868 0a62 85B0     		sub	sp, sp, #20
 1869              		.cfi_def_cfa_offset 24
 1870 0a64 0190     		str	r0, [sp, #4]
 1871 0a66 0B46     		mov	r3, r1
 1872 0a68 8DF80330 		strb	r3, [sp, #3]
 1873              		.loc 1 712 0
 1874 0a6c 0DF10F03 		add	r3, sp, #15
 1875 0a70 0198     		ldr	r0, [sp, #4]
 1876 0a72 2021     		movs	r1, #32
 1877 0a74 1A46     		mov	r2, r3
 1878 0a76 0123     		movs	r3, #1
 1879 0a78 FFF7FEFF 		bl	LSM303AGR_ACC_ReadReg
 1880 0a7c 0346     		mov	r3, r0
 1881 0a7e 002B     		cmp	r3, #0
 1882 0a80 01D1     		bne	.L118
 1883              		.loc 1 713 0
 1884 0a82 0023     		movs	r3, #0
 1885 0a84 1CE0     		b	.L121
 1886              	.L118:
 1887              		.loc 1 715 0
 1888 0a86 9DF80F30 		ldrb	r3, [sp, #15]	@ zero_extendqisi2
 1889 0a8a 23F00403 		bic	r3, r3, #4
 1890 0a8e DBB2     		uxtb	r3, r3
 1891 0a90 8DF80F30 		strb	r3, [sp, #15]
 1892              		.loc 1 716 0
 1893 0a94 9DF80F20 		ldrb	r2, [sp, #15]	@ zero_extendqisi2
 1894 0a98 9DF80330 		ldrb	r3, [sp, #3]
 1895 0a9c 1343     		orrs	r3, r3, r2
 1896 0a9e DBB2     		uxtb	r3, r3
 1897 0aa0 8DF80F30 		strb	r3, [sp, #15]
 1898              		.loc 1 718 0
 1899 0aa4 0DF10F03 		add	r3, sp, #15
 1900 0aa8 0198     		ldr	r0, [sp, #4]
 1901 0aaa 2021     		movs	r1, #32
 1902 0aac 1A46     		mov	r2, r3
 1903 0aae 0123     		movs	r3, #1
 1904 0ab0 FFF7FEFF 		bl	LSM303AGR_ACC_WriteReg
 1905 0ab4 0346     		mov	r3, r0
 1906 0ab6 002B     		cmp	r3, #0
 1907 0ab8 01D1     		bne	.L120
 1908              		.loc 1 719 0
 1909 0aba 0023     		movs	r3, #0
ARM GAS  /tmp/cc1ELVNa.s 			page 35


 1910 0abc 00E0     		b	.L121
 1911              	.L120:
 1912              		.loc 1 721 0
 1913 0abe 0123     		movs	r3, #1
 1914              	.L121:
 1915              		.loc 1 722 0
 1916 0ac0 1846     		mov	r0, r3
 1917 0ac2 05B0     		add	sp, sp, #20
 1918              		@ sp needed
 1919 0ac4 5DF804FB 		ldr	pc, [sp], #4
 1920              		.cfi_endproc
 1921              	.LFE296:
 1922              		.size	LSM303AGR_ACC_W_ZEN, .-LSM303AGR_ACC_W_ZEN
 1923              		.align	2
 1924 0ac8 AFF30080 		.p2align 4,,15
 1924      AFF30080 
 1925              		.global	LSM303AGR_ACC_R_ZEN
 1926              		.thumb
 1927              		.thumb_func
 1928              		.type	LSM303AGR_ACC_R_ZEN, %function
 1929              	LSM303AGR_ACC_R_ZEN:
 1930              	.LFB297:
 1931              		.loc 1 732 0
 1932              		.cfi_startproc
 1933              		@ args = 0, pretend = 0, frame = 8
 1934              		@ frame_needed = 0, uses_anonymous_args = 0
 1935 0ad0 00B5     		push	{lr}
 1936              		.cfi_def_cfa_offset 4
 1937              		.cfi_offset 14, -4
 1938 0ad2 83B0     		sub	sp, sp, #12
 1939              		.cfi_def_cfa_offset 16
 1940 0ad4 0190     		str	r0, [sp, #4]
 1941 0ad6 0091     		str	r1, [sp]
 1942              		.loc 1 733 0
 1943 0ad8 0198     		ldr	r0, [sp, #4]
 1944 0ada 2021     		movs	r1, #32
 1945 0adc 009A     		ldr	r2, [sp]
 1946 0ade 0123     		movs	r3, #1
 1947 0ae0 FFF7FEFF 		bl	LSM303AGR_ACC_ReadReg
 1948 0ae4 0346     		mov	r3, r0
 1949 0ae6 002B     		cmp	r3, #0
 1950 0ae8 01D1     		bne	.L123
 1951              		.loc 1 734 0
 1952 0aea 0023     		movs	r3, #0
 1953 0aec 07E0     		b	.L124
 1954              	.L123:
 1955              		.loc 1 736 0
 1956 0aee 009B     		ldr	r3, [sp]
 1957 0af0 1B78     		ldrb	r3, [r3]	@ zero_extendqisi2
 1958 0af2 03F00403 		and	r3, r3, #4
 1959 0af6 DAB2     		uxtb	r2, r3
 1960 0af8 009B     		ldr	r3, [sp]
 1961 0afa 1A70     		strb	r2, [r3]
 1962              		.loc 1 738 0
 1963 0afc 0123     		movs	r3, #1
 1964              	.L124:
 1965              		.loc 1 739 0
ARM GAS  /tmp/cc1ELVNa.s 			page 36


 1966 0afe 1846     		mov	r0, r3
 1967 0b00 03B0     		add	sp, sp, #12
 1968              		@ sp needed
 1969 0b02 5DF804FB 		ldr	pc, [sp], #4
 1970              		.cfi_endproc
 1971              	.LFE297:
 1972              		.size	LSM303AGR_ACC_R_ZEN, .-LSM303AGR_ACC_R_ZEN
 1973 0b06 00BF     		.align	2
 1974 0b08 AFF30080 		.p2align 4,,15
 1974      AFF30080 
 1975              		.global	LSM303AGR_ACC_W_LOWPWR_EN
 1976              		.thumb
 1977              		.thumb_func
 1978              		.type	LSM303AGR_ACC_W_LOWPWR_EN, %function
 1979              	LSM303AGR_ACC_W_LOWPWR_EN:
 1980              	.LFB298:
 1981              		.loc 1 749 0
 1982              		.cfi_startproc
 1983              		@ args = 0, pretend = 0, frame = 16
 1984              		@ frame_needed = 0, uses_anonymous_args = 0
 1985 0b10 00B5     		push	{lr}
 1986              		.cfi_def_cfa_offset 4
 1987              		.cfi_offset 14, -4
 1988 0b12 85B0     		sub	sp, sp, #20
 1989              		.cfi_def_cfa_offset 24
 1990 0b14 0190     		str	r0, [sp, #4]
 1991 0b16 0B46     		mov	r3, r1
 1992 0b18 8DF80330 		strb	r3, [sp, #3]
 1993              		.loc 1 752 0
 1994 0b1c 0DF10F03 		add	r3, sp, #15
 1995 0b20 0198     		ldr	r0, [sp, #4]
 1996 0b22 2021     		movs	r1, #32
 1997 0b24 1A46     		mov	r2, r3
 1998 0b26 0123     		movs	r3, #1
 1999 0b28 FFF7FEFF 		bl	LSM303AGR_ACC_ReadReg
 2000 0b2c 0346     		mov	r3, r0
 2001 0b2e 002B     		cmp	r3, #0
 2002 0b30 01D1     		bne	.L126
 2003              		.loc 1 753 0
 2004 0b32 0023     		movs	r3, #0
 2005 0b34 1CE0     		b	.L129
 2006              	.L126:
 2007              		.loc 1 755 0
 2008 0b36 9DF80F30 		ldrb	r3, [sp, #15]	@ zero_extendqisi2
 2009 0b3a 23F00803 		bic	r3, r3, #8
 2010 0b3e DBB2     		uxtb	r3, r3
 2011 0b40 8DF80F30 		strb	r3, [sp, #15]
 2012              		.loc 1 756 0
 2013 0b44 9DF80F20 		ldrb	r2, [sp, #15]	@ zero_extendqisi2
 2014 0b48 9DF80330 		ldrb	r3, [sp, #3]
 2015 0b4c 1343     		orrs	r3, r3, r2
 2016 0b4e DBB2     		uxtb	r3, r3
 2017 0b50 8DF80F30 		strb	r3, [sp, #15]
 2018              		.loc 1 758 0
 2019 0b54 0DF10F03 		add	r3, sp, #15
 2020 0b58 0198     		ldr	r0, [sp, #4]
 2021 0b5a 2021     		movs	r1, #32
ARM GAS  /tmp/cc1ELVNa.s 			page 37


 2022 0b5c 1A46     		mov	r2, r3
 2023 0b5e 0123     		movs	r3, #1
 2024 0b60 FFF7FEFF 		bl	LSM303AGR_ACC_WriteReg
 2025 0b64 0346     		mov	r3, r0
 2026 0b66 002B     		cmp	r3, #0
 2027 0b68 01D1     		bne	.L128
 2028              		.loc 1 759 0
 2029 0b6a 0023     		movs	r3, #0
 2030 0b6c 00E0     		b	.L129
 2031              	.L128:
 2032              		.loc 1 761 0
 2033 0b6e 0123     		movs	r3, #1
 2034              	.L129:
 2035              		.loc 1 762 0
 2036 0b70 1846     		mov	r0, r3
 2037 0b72 05B0     		add	sp, sp, #20
 2038              		@ sp needed
 2039 0b74 5DF804FB 		ldr	pc, [sp], #4
 2040              		.cfi_endproc
 2041              	.LFE298:
 2042              		.size	LSM303AGR_ACC_W_LOWPWR_EN, .-LSM303AGR_ACC_W_LOWPWR_EN
 2043              		.align	2
 2044 0b78 AFF30080 		.p2align 4,,15
 2044      AFF30080 
 2045              		.global	LSM303AGR_ACC_R_LOWPWR_EN
 2046              		.thumb
 2047              		.thumb_func
 2048              		.type	LSM303AGR_ACC_R_LOWPWR_EN, %function
 2049              	LSM303AGR_ACC_R_LOWPWR_EN:
 2050              	.LFB299:
 2051              		.loc 1 772 0
 2052              		.cfi_startproc
 2053              		@ args = 0, pretend = 0, frame = 8
 2054              		@ frame_needed = 0, uses_anonymous_args = 0
 2055 0b80 00B5     		push	{lr}
 2056              		.cfi_def_cfa_offset 4
 2057              		.cfi_offset 14, -4
 2058 0b82 83B0     		sub	sp, sp, #12
 2059              		.cfi_def_cfa_offset 16
 2060 0b84 0190     		str	r0, [sp, #4]
 2061 0b86 0091     		str	r1, [sp]
 2062              		.loc 1 773 0
 2063 0b88 0198     		ldr	r0, [sp, #4]
 2064 0b8a 2021     		movs	r1, #32
 2065 0b8c 009A     		ldr	r2, [sp]
 2066 0b8e 0123     		movs	r3, #1
 2067 0b90 FFF7FEFF 		bl	LSM303AGR_ACC_ReadReg
 2068 0b94 0346     		mov	r3, r0
 2069 0b96 002B     		cmp	r3, #0
 2070 0b98 01D1     		bne	.L131
 2071              		.loc 1 774 0
 2072 0b9a 0023     		movs	r3, #0
 2073 0b9c 07E0     		b	.L132
 2074              	.L131:
 2075              		.loc 1 776 0
 2076 0b9e 009B     		ldr	r3, [sp]
 2077 0ba0 1B78     		ldrb	r3, [r3]	@ zero_extendqisi2
ARM GAS  /tmp/cc1ELVNa.s 			page 38


 2078 0ba2 03F00803 		and	r3, r3, #8
 2079 0ba6 DAB2     		uxtb	r2, r3
 2080 0ba8 009B     		ldr	r3, [sp]
 2081 0baa 1A70     		strb	r2, [r3]
 2082              		.loc 1 778 0
 2083 0bac 0123     		movs	r3, #1
 2084              	.L132:
 2085              		.loc 1 779 0
 2086 0bae 1846     		mov	r0, r3
 2087 0bb0 03B0     		add	sp, sp, #12
 2088              		@ sp needed
 2089 0bb2 5DF804FB 		ldr	pc, [sp], #4
 2090              		.cfi_endproc
 2091              	.LFE299:
 2092              		.size	LSM303AGR_ACC_R_LOWPWR_EN, .-LSM303AGR_ACC_R_LOWPWR_EN
 2093 0bb6 00BF     		.align	2
 2094 0bb8 AFF30080 		.p2align 4,,15
 2094      AFF30080 
 2095              		.global	LSM303AGR_ACC_W_hpf_aoi_en_int1
 2096              		.thumb
 2097              		.thumb_func
 2098              		.type	LSM303AGR_ACC_W_hpf_aoi_en_int1, %function
 2099              	LSM303AGR_ACC_W_hpf_aoi_en_int1:
 2100              	.LFB300:
 2101              		.loc 1 789 0
 2102              		.cfi_startproc
 2103              		@ args = 0, pretend = 0, frame = 16
 2104              		@ frame_needed = 0, uses_anonymous_args = 0
 2105 0bc0 00B5     		push	{lr}
 2106              		.cfi_def_cfa_offset 4
 2107              		.cfi_offset 14, -4
 2108 0bc2 85B0     		sub	sp, sp, #20
 2109              		.cfi_def_cfa_offset 24
 2110 0bc4 0190     		str	r0, [sp, #4]
 2111 0bc6 0B46     		mov	r3, r1
 2112 0bc8 8DF80330 		strb	r3, [sp, #3]
 2113              		.loc 1 792 0
 2114 0bcc 0DF10F03 		add	r3, sp, #15
 2115 0bd0 0198     		ldr	r0, [sp, #4]
 2116 0bd2 2121     		movs	r1, #33
 2117 0bd4 1A46     		mov	r2, r3
 2118 0bd6 0123     		movs	r3, #1
 2119 0bd8 FFF7FEFF 		bl	LSM303AGR_ACC_ReadReg
 2120 0bdc 0346     		mov	r3, r0
 2121 0bde 002B     		cmp	r3, #0
 2122 0be0 01D1     		bne	.L134
 2123              		.loc 1 793 0
 2124 0be2 0023     		movs	r3, #0
 2125 0be4 1CE0     		b	.L137
 2126              	.L134:
 2127              		.loc 1 795 0
 2128 0be6 9DF80F30 		ldrb	r3, [sp, #15]	@ zero_extendqisi2
 2129 0bea 23F00103 		bic	r3, r3, #1
 2130 0bee DBB2     		uxtb	r3, r3
 2131 0bf0 8DF80F30 		strb	r3, [sp, #15]
 2132              		.loc 1 796 0
 2133 0bf4 9DF80F20 		ldrb	r2, [sp, #15]	@ zero_extendqisi2
ARM GAS  /tmp/cc1ELVNa.s 			page 39


 2134 0bf8 9DF80330 		ldrb	r3, [sp, #3]
 2135 0bfc 1343     		orrs	r3, r3, r2
 2136 0bfe DBB2     		uxtb	r3, r3
 2137 0c00 8DF80F30 		strb	r3, [sp, #15]
 2138              		.loc 1 798 0
 2139 0c04 0DF10F03 		add	r3, sp, #15
 2140 0c08 0198     		ldr	r0, [sp, #4]
 2141 0c0a 2121     		movs	r1, #33
 2142 0c0c 1A46     		mov	r2, r3
 2143 0c0e 0123     		movs	r3, #1
 2144 0c10 FFF7FEFF 		bl	LSM303AGR_ACC_WriteReg
 2145 0c14 0346     		mov	r3, r0
 2146 0c16 002B     		cmp	r3, #0
 2147 0c18 01D1     		bne	.L136
 2148              		.loc 1 799 0
 2149 0c1a 0023     		movs	r3, #0
 2150 0c1c 00E0     		b	.L137
 2151              	.L136:
 2152              		.loc 1 801 0
 2153 0c1e 0123     		movs	r3, #1
 2154              	.L137:
 2155              		.loc 1 802 0
 2156 0c20 1846     		mov	r0, r3
 2157 0c22 05B0     		add	sp, sp, #20
 2158              		@ sp needed
 2159 0c24 5DF804FB 		ldr	pc, [sp], #4
 2160              		.cfi_endproc
 2161              	.LFE300:
 2162              		.size	LSM303AGR_ACC_W_hpf_aoi_en_int1, .-LSM303AGR_ACC_W_hpf_aoi_en_int1
 2163              		.align	2
 2164 0c28 AFF30080 		.p2align 4,,15
 2164      AFF30080 
 2165              		.global	LSM303AGR_ACC_R_hpf_aoi_en_int1
 2166              		.thumb
 2167              		.thumb_func
 2168              		.type	LSM303AGR_ACC_R_hpf_aoi_en_int1, %function
 2169              	LSM303AGR_ACC_R_hpf_aoi_en_int1:
 2170              	.LFB301:
 2171              		.loc 1 812 0
 2172              		.cfi_startproc
 2173              		@ args = 0, pretend = 0, frame = 8
 2174              		@ frame_needed = 0, uses_anonymous_args = 0
 2175 0c30 00B5     		push	{lr}
 2176              		.cfi_def_cfa_offset 4
 2177              		.cfi_offset 14, -4
 2178 0c32 83B0     		sub	sp, sp, #12
 2179              		.cfi_def_cfa_offset 16
 2180 0c34 0190     		str	r0, [sp, #4]
 2181 0c36 0091     		str	r1, [sp]
 2182              		.loc 1 813 0
 2183 0c38 0198     		ldr	r0, [sp, #4]
 2184 0c3a 2121     		movs	r1, #33
 2185 0c3c 009A     		ldr	r2, [sp]
 2186 0c3e 0123     		movs	r3, #1
 2187 0c40 FFF7FEFF 		bl	LSM303AGR_ACC_ReadReg
 2188 0c44 0346     		mov	r3, r0
 2189 0c46 002B     		cmp	r3, #0
ARM GAS  /tmp/cc1ELVNa.s 			page 40


 2190 0c48 01D1     		bne	.L139
 2191              		.loc 1 814 0
 2192 0c4a 0023     		movs	r3, #0
 2193 0c4c 07E0     		b	.L140
 2194              	.L139:
 2195              		.loc 1 816 0
 2196 0c4e 009B     		ldr	r3, [sp]
 2197 0c50 1B78     		ldrb	r3, [r3]	@ zero_extendqisi2
 2198 0c52 03F00103 		and	r3, r3, #1
 2199 0c56 DAB2     		uxtb	r2, r3
 2200 0c58 009B     		ldr	r3, [sp]
 2201 0c5a 1A70     		strb	r2, [r3]
 2202              		.loc 1 818 0
 2203 0c5c 0123     		movs	r3, #1
 2204              	.L140:
 2205              		.loc 1 819 0
 2206 0c5e 1846     		mov	r0, r3
 2207 0c60 03B0     		add	sp, sp, #12
 2208              		@ sp needed
 2209 0c62 5DF804FB 		ldr	pc, [sp], #4
 2210              		.cfi_endproc
 2211              	.LFE301:
 2212              		.size	LSM303AGR_ACC_R_hpf_aoi_en_int1, .-LSM303AGR_ACC_R_hpf_aoi_en_int1
 2213 0c66 00BF     		.align	2
 2214 0c68 AFF30080 		.p2align 4,,15
 2214      AFF30080 
 2215              		.global	LSM303AGR_ACC_W_hpf_aoi_en_int2
 2216              		.thumb
 2217              		.thumb_func
 2218              		.type	LSM303AGR_ACC_W_hpf_aoi_en_int2, %function
 2219              	LSM303AGR_ACC_W_hpf_aoi_en_int2:
 2220              	.LFB302:
 2221              		.loc 1 829 0
 2222              		.cfi_startproc
 2223              		@ args = 0, pretend = 0, frame = 16
 2224              		@ frame_needed = 0, uses_anonymous_args = 0
 2225 0c70 00B5     		push	{lr}
 2226              		.cfi_def_cfa_offset 4
 2227              		.cfi_offset 14, -4
 2228 0c72 85B0     		sub	sp, sp, #20
 2229              		.cfi_def_cfa_offset 24
 2230 0c74 0190     		str	r0, [sp, #4]
 2231 0c76 0B46     		mov	r3, r1
 2232 0c78 8DF80330 		strb	r3, [sp, #3]
 2233              		.loc 1 832 0
 2234 0c7c 0DF10F03 		add	r3, sp, #15
 2235 0c80 0198     		ldr	r0, [sp, #4]
 2236 0c82 2121     		movs	r1, #33
 2237 0c84 1A46     		mov	r2, r3
 2238 0c86 0123     		movs	r3, #1
 2239 0c88 FFF7FEFF 		bl	LSM303AGR_ACC_ReadReg
 2240 0c8c 0346     		mov	r3, r0
 2241 0c8e 002B     		cmp	r3, #0
 2242 0c90 01D1     		bne	.L142
 2243              		.loc 1 833 0
 2244 0c92 0023     		movs	r3, #0
 2245 0c94 1CE0     		b	.L145
ARM GAS  /tmp/cc1ELVNa.s 			page 41


 2246              	.L142:
 2247              		.loc 1 835 0
 2248 0c96 9DF80F30 		ldrb	r3, [sp, #15]	@ zero_extendqisi2
 2249 0c9a 23F00203 		bic	r3, r3, #2
 2250 0c9e DBB2     		uxtb	r3, r3
 2251 0ca0 8DF80F30 		strb	r3, [sp, #15]
 2252              		.loc 1 836 0
 2253 0ca4 9DF80F20 		ldrb	r2, [sp, #15]	@ zero_extendqisi2
 2254 0ca8 9DF80330 		ldrb	r3, [sp, #3]
 2255 0cac 1343     		orrs	r3, r3, r2
 2256 0cae DBB2     		uxtb	r3, r3
 2257 0cb0 8DF80F30 		strb	r3, [sp, #15]
 2258              		.loc 1 838 0
 2259 0cb4 0DF10F03 		add	r3, sp, #15
 2260 0cb8 0198     		ldr	r0, [sp, #4]
 2261 0cba 2121     		movs	r1, #33
 2262 0cbc 1A46     		mov	r2, r3
 2263 0cbe 0123     		movs	r3, #1
 2264 0cc0 FFF7FEFF 		bl	LSM303AGR_ACC_WriteReg
 2265 0cc4 0346     		mov	r3, r0
 2266 0cc6 002B     		cmp	r3, #0
 2267 0cc8 01D1     		bne	.L144
 2268              		.loc 1 839 0
 2269 0cca 0023     		movs	r3, #0
 2270 0ccc 00E0     		b	.L145
 2271              	.L144:
 2272              		.loc 1 841 0
 2273 0cce 0123     		movs	r3, #1
 2274              	.L145:
 2275              		.loc 1 842 0
 2276 0cd0 1846     		mov	r0, r3
 2277 0cd2 05B0     		add	sp, sp, #20
 2278              		@ sp needed
 2279 0cd4 5DF804FB 		ldr	pc, [sp], #4
 2280              		.cfi_endproc
 2281              	.LFE302:
 2282              		.size	LSM303AGR_ACC_W_hpf_aoi_en_int2, .-LSM303AGR_ACC_W_hpf_aoi_en_int2
 2283              		.align	2
 2284 0cd8 AFF30080 		.p2align 4,,15
 2284      AFF30080 
 2285              		.global	LSM303AGR_ACC_R_hpf_aoi_en_int2
 2286              		.thumb
 2287              		.thumb_func
 2288              		.type	LSM303AGR_ACC_R_hpf_aoi_en_int2, %function
 2289              	LSM303AGR_ACC_R_hpf_aoi_en_int2:
 2290              	.LFB303:
 2291              		.loc 1 852 0
 2292              		.cfi_startproc
 2293              		@ args = 0, pretend = 0, frame = 8
 2294              		@ frame_needed = 0, uses_anonymous_args = 0
 2295 0ce0 00B5     		push	{lr}
 2296              		.cfi_def_cfa_offset 4
 2297              		.cfi_offset 14, -4
 2298 0ce2 83B0     		sub	sp, sp, #12
 2299              		.cfi_def_cfa_offset 16
 2300 0ce4 0190     		str	r0, [sp, #4]
 2301 0ce6 0091     		str	r1, [sp]
ARM GAS  /tmp/cc1ELVNa.s 			page 42


 2302              		.loc 1 853 0
 2303 0ce8 0198     		ldr	r0, [sp, #4]
 2304 0cea 2121     		movs	r1, #33
 2305 0cec 009A     		ldr	r2, [sp]
 2306 0cee 0123     		movs	r3, #1
 2307 0cf0 FFF7FEFF 		bl	LSM303AGR_ACC_ReadReg
 2308 0cf4 0346     		mov	r3, r0
 2309 0cf6 002B     		cmp	r3, #0
 2310 0cf8 01D1     		bne	.L147
 2311              		.loc 1 854 0
 2312 0cfa 0023     		movs	r3, #0
 2313 0cfc 07E0     		b	.L148
 2314              	.L147:
 2315              		.loc 1 856 0
 2316 0cfe 009B     		ldr	r3, [sp]
 2317 0d00 1B78     		ldrb	r3, [r3]	@ zero_extendqisi2
 2318 0d02 03F00203 		and	r3, r3, #2
 2319 0d06 DAB2     		uxtb	r2, r3
 2320 0d08 009B     		ldr	r3, [sp]
 2321 0d0a 1A70     		strb	r2, [r3]
 2322              		.loc 1 858 0
 2323 0d0c 0123     		movs	r3, #1
 2324              	.L148:
 2325              		.loc 1 859 0
 2326 0d0e 1846     		mov	r0, r3
 2327 0d10 03B0     		add	sp, sp, #12
 2328              		@ sp needed
 2329 0d12 5DF804FB 		ldr	pc, [sp], #4
 2330              		.cfi_endproc
 2331              	.LFE303:
 2332              		.size	LSM303AGR_ACC_R_hpf_aoi_en_int2, .-LSM303AGR_ACC_R_hpf_aoi_en_int2
 2333 0d16 00BF     		.align	2
 2334 0d18 AFF30080 		.p2align 4,,15
 2334      AFF30080 
 2335              		.global	LSM303AGR_ACC_W_hpf_click_en
 2336              		.thumb
 2337              		.thumb_func
 2338              		.type	LSM303AGR_ACC_W_hpf_click_en, %function
 2339              	LSM303AGR_ACC_W_hpf_click_en:
 2340              	.LFB304:
 2341              		.loc 1 869 0
 2342              		.cfi_startproc
 2343              		@ args = 0, pretend = 0, frame = 16
 2344              		@ frame_needed = 0, uses_anonymous_args = 0
 2345 0d20 00B5     		push	{lr}
 2346              		.cfi_def_cfa_offset 4
 2347              		.cfi_offset 14, -4
 2348 0d22 85B0     		sub	sp, sp, #20
 2349              		.cfi_def_cfa_offset 24
 2350 0d24 0190     		str	r0, [sp, #4]
 2351 0d26 0B46     		mov	r3, r1
 2352 0d28 8DF80330 		strb	r3, [sp, #3]
 2353              		.loc 1 872 0
 2354 0d2c 0DF10F03 		add	r3, sp, #15
 2355 0d30 0198     		ldr	r0, [sp, #4]
 2356 0d32 2121     		movs	r1, #33
 2357 0d34 1A46     		mov	r2, r3
ARM GAS  /tmp/cc1ELVNa.s 			page 43


 2358 0d36 0123     		movs	r3, #1
 2359 0d38 FFF7FEFF 		bl	LSM303AGR_ACC_ReadReg
 2360 0d3c 0346     		mov	r3, r0
 2361 0d3e 002B     		cmp	r3, #0
 2362 0d40 01D1     		bne	.L150
 2363              		.loc 1 873 0
 2364 0d42 0023     		movs	r3, #0
 2365 0d44 1CE0     		b	.L153
 2366              	.L150:
 2367              		.loc 1 875 0
 2368 0d46 9DF80F30 		ldrb	r3, [sp, #15]	@ zero_extendqisi2
 2369 0d4a 23F00403 		bic	r3, r3, #4
 2370 0d4e DBB2     		uxtb	r3, r3
 2371 0d50 8DF80F30 		strb	r3, [sp, #15]
 2372              		.loc 1 876 0
 2373 0d54 9DF80F20 		ldrb	r2, [sp, #15]	@ zero_extendqisi2
 2374 0d58 9DF80330 		ldrb	r3, [sp, #3]
 2375 0d5c 1343     		orrs	r3, r3, r2
 2376 0d5e DBB2     		uxtb	r3, r3
 2377 0d60 8DF80F30 		strb	r3, [sp, #15]
 2378              		.loc 1 878 0
 2379 0d64 0DF10F03 		add	r3, sp, #15
 2380 0d68 0198     		ldr	r0, [sp, #4]
 2381 0d6a 2121     		movs	r1, #33
 2382 0d6c 1A46     		mov	r2, r3
 2383 0d6e 0123     		movs	r3, #1
 2384 0d70 FFF7FEFF 		bl	LSM303AGR_ACC_WriteReg
 2385 0d74 0346     		mov	r3, r0
 2386 0d76 002B     		cmp	r3, #0
 2387 0d78 01D1     		bne	.L152
 2388              		.loc 1 879 0
 2389 0d7a 0023     		movs	r3, #0
 2390 0d7c 00E0     		b	.L153
 2391              	.L152:
 2392              		.loc 1 881 0
 2393 0d7e 0123     		movs	r3, #1
 2394              	.L153:
 2395              		.loc 1 882 0
 2396 0d80 1846     		mov	r0, r3
 2397 0d82 05B0     		add	sp, sp, #20
 2398              		@ sp needed
 2399 0d84 5DF804FB 		ldr	pc, [sp], #4
 2400              		.cfi_endproc
 2401              	.LFE304:
 2402              		.size	LSM303AGR_ACC_W_hpf_click_en, .-LSM303AGR_ACC_W_hpf_click_en
 2403              		.align	2
 2404 0d88 AFF30080 		.p2align 4,,15
 2404      AFF30080 
 2405              		.global	LSM303AGR_ACC_R_hpf_click_en
 2406              		.thumb
 2407              		.thumb_func
 2408              		.type	LSM303AGR_ACC_R_hpf_click_en, %function
 2409              	LSM303AGR_ACC_R_hpf_click_en:
 2410              	.LFB305:
 2411              		.loc 1 892 0
 2412              		.cfi_startproc
 2413              		@ args = 0, pretend = 0, frame = 8
ARM GAS  /tmp/cc1ELVNa.s 			page 44


 2414              		@ frame_needed = 0, uses_anonymous_args = 0
 2415 0d90 00B5     		push	{lr}
 2416              		.cfi_def_cfa_offset 4
 2417              		.cfi_offset 14, -4
 2418 0d92 83B0     		sub	sp, sp, #12
 2419              		.cfi_def_cfa_offset 16
 2420 0d94 0190     		str	r0, [sp, #4]
 2421 0d96 0091     		str	r1, [sp]
 2422              		.loc 1 893 0
 2423 0d98 0198     		ldr	r0, [sp, #4]
 2424 0d9a 2121     		movs	r1, #33
 2425 0d9c 009A     		ldr	r2, [sp]
 2426 0d9e 0123     		movs	r3, #1
 2427 0da0 FFF7FEFF 		bl	LSM303AGR_ACC_ReadReg
 2428 0da4 0346     		mov	r3, r0
 2429 0da6 002B     		cmp	r3, #0
 2430 0da8 01D1     		bne	.L155
 2431              		.loc 1 894 0
 2432 0daa 0023     		movs	r3, #0
 2433 0dac 07E0     		b	.L156
 2434              	.L155:
 2435              		.loc 1 896 0
 2436 0dae 009B     		ldr	r3, [sp]
 2437 0db0 1B78     		ldrb	r3, [r3]	@ zero_extendqisi2
 2438 0db2 03F00403 		and	r3, r3, #4
 2439 0db6 DAB2     		uxtb	r2, r3
 2440 0db8 009B     		ldr	r3, [sp]
 2441 0dba 1A70     		strb	r2, [r3]
 2442              		.loc 1 898 0
 2443 0dbc 0123     		movs	r3, #1
 2444              	.L156:
 2445              		.loc 1 899 0
 2446 0dbe 1846     		mov	r0, r3
 2447 0dc0 03B0     		add	sp, sp, #12
 2448              		@ sp needed
 2449 0dc2 5DF804FB 		ldr	pc, [sp], #4
 2450              		.cfi_endproc
 2451              	.LFE305:
 2452              		.size	LSM303AGR_ACC_R_hpf_click_en, .-LSM303AGR_ACC_R_hpf_click_en
 2453 0dc6 00BF     		.align	2
 2454 0dc8 AFF30080 		.p2align 4,,15
 2454      AFF30080 
 2455              		.global	LSM303AGR_ACC_W_Data_Filter
 2456              		.thumb
 2457              		.thumb_func
 2458              		.type	LSM303AGR_ACC_W_Data_Filter, %function
 2459              	LSM303AGR_ACC_W_Data_Filter:
 2460              	.LFB306:
 2461              		.loc 1 909 0
 2462              		.cfi_startproc
 2463              		@ args = 0, pretend = 0, frame = 16
 2464              		@ frame_needed = 0, uses_anonymous_args = 0
 2465 0dd0 00B5     		push	{lr}
 2466              		.cfi_def_cfa_offset 4
 2467              		.cfi_offset 14, -4
 2468 0dd2 85B0     		sub	sp, sp, #20
 2469              		.cfi_def_cfa_offset 24
ARM GAS  /tmp/cc1ELVNa.s 			page 45


 2470 0dd4 0190     		str	r0, [sp, #4]
 2471 0dd6 0B46     		mov	r3, r1
 2472 0dd8 8DF80330 		strb	r3, [sp, #3]
 2473              		.loc 1 912 0
 2474 0ddc 0DF10F03 		add	r3, sp, #15
 2475 0de0 0198     		ldr	r0, [sp, #4]
 2476 0de2 2121     		movs	r1, #33
 2477 0de4 1A46     		mov	r2, r3
 2478 0de6 0123     		movs	r3, #1
 2479 0de8 FFF7FEFF 		bl	LSM303AGR_ACC_ReadReg
 2480 0dec 0346     		mov	r3, r0
 2481 0dee 002B     		cmp	r3, #0
 2482 0df0 01D1     		bne	.L158
 2483              		.loc 1 913 0
 2484 0df2 0023     		movs	r3, #0
 2485 0df4 1CE0     		b	.L161
 2486              	.L158:
 2487              		.loc 1 915 0
 2488 0df6 9DF80F30 		ldrb	r3, [sp, #15]	@ zero_extendqisi2
 2489 0dfa 23F00803 		bic	r3, r3, #8
 2490 0dfe DBB2     		uxtb	r3, r3
 2491 0e00 8DF80F30 		strb	r3, [sp, #15]
 2492              		.loc 1 916 0
 2493 0e04 9DF80F20 		ldrb	r2, [sp, #15]	@ zero_extendqisi2
 2494 0e08 9DF80330 		ldrb	r3, [sp, #3]
 2495 0e0c 1343     		orrs	r3, r3, r2
 2496 0e0e DBB2     		uxtb	r3, r3
 2497 0e10 8DF80F30 		strb	r3, [sp, #15]
 2498              		.loc 1 918 0
 2499 0e14 0DF10F03 		add	r3, sp, #15
 2500 0e18 0198     		ldr	r0, [sp, #4]
 2501 0e1a 2121     		movs	r1, #33
 2502 0e1c 1A46     		mov	r2, r3
 2503 0e1e 0123     		movs	r3, #1
 2504 0e20 FFF7FEFF 		bl	LSM303AGR_ACC_WriteReg
 2505 0e24 0346     		mov	r3, r0
 2506 0e26 002B     		cmp	r3, #0
 2507 0e28 01D1     		bne	.L160
 2508              		.loc 1 919 0
 2509 0e2a 0023     		movs	r3, #0
 2510 0e2c 00E0     		b	.L161
 2511              	.L160:
 2512              		.loc 1 921 0
 2513 0e2e 0123     		movs	r3, #1
 2514              	.L161:
 2515              		.loc 1 922 0
 2516 0e30 1846     		mov	r0, r3
 2517 0e32 05B0     		add	sp, sp, #20
 2518              		@ sp needed
 2519 0e34 5DF804FB 		ldr	pc, [sp], #4
 2520              		.cfi_endproc
 2521              	.LFE306:
 2522              		.size	LSM303AGR_ACC_W_Data_Filter, .-LSM303AGR_ACC_W_Data_Filter
 2523              		.align	2
 2524 0e38 AFF30080 		.p2align 4,,15
 2524      AFF30080 
 2525              		.global	LSM303AGR_ACC_R_Data_Filter
ARM GAS  /tmp/cc1ELVNa.s 			page 46


 2526              		.thumb
 2527              		.thumb_func
 2528              		.type	LSM303AGR_ACC_R_Data_Filter, %function
 2529              	LSM303AGR_ACC_R_Data_Filter:
 2530              	.LFB307:
 2531              		.loc 1 932 0
 2532              		.cfi_startproc
 2533              		@ args = 0, pretend = 0, frame = 8
 2534              		@ frame_needed = 0, uses_anonymous_args = 0
 2535 0e40 00B5     		push	{lr}
 2536              		.cfi_def_cfa_offset 4
 2537              		.cfi_offset 14, -4
 2538 0e42 83B0     		sub	sp, sp, #12
 2539              		.cfi_def_cfa_offset 16
 2540 0e44 0190     		str	r0, [sp, #4]
 2541 0e46 0091     		str	r1, [sp]
 2542              		.loc 1 933 0
 2543 0e48 0198     		ldr	r0, [sp, #4]
 2544 0e4a 2121     		movs	r1, #33
 2545 0e4c 009A     		ldr	r2, [sp]
 2546 0e4e 0123     		movs	r3, #1
 2547 0e50 FFF7FEFF 		bl	LSM303AGR_ACC_ReadReg
 2548 0e54 0346     		mov	r3, r0
 2549 0e56 002B     		cmp	r3, #0
 2550 0e58 01D1     		bne	.L163
 2551              		.loc 1 934 0
 2552 0e5a 0023     		movs	r3, #0
 2553 0e5c 07E0     		b	.L164
 2554              	.L163:
 2555              		.loc 1 936 0
 2556 0e5e 009B     		ldr	r3, [sp]
 2557 0e60 1B78     		ldrb	r3, [r3]	@ zero_extendqisi2
 2558 0e62 03F00803 		and	r3, r3, #8
 2559 0e66 DAB2     		uxtb	r2, r3
 2560 0e68 009B     		ldr	r3, [sp]
 2561 0e6a 1A70     		strb	r2, [r3]
 2562              		.loc 1 938 0
 2563 0e6c 0123     		movs	r3, #1
 2564              	.L164:
 2565              		.loc 1 939 0
 2566 0e6e 1846     		mov	r0, r3
 2567 0e70 03B0     		add	sp, sp, #12
 2568              		@ sp needed
 2569 0e72 5DF804FB 		ldr	pc, [sp], #4
 2570              		.cfi_endproc
 2571              	.LFE307:
 2572              		.size	LSM303AGR_ACC_R_Data_Filter, .-LSM303AGR_ACC_R_Data_Filter
 2573 0e76 00BF     		.align	2
 2574 0e78 AFF30080 		.p2align 4,,15
 2574      AFF30080 
 2575              		.global	LSM303AGR_ACC_W_hpf_cutoff_freq
 2576              		.thumb
 2577              		.thumb_func
 2578              		.type	LSM303AGR_ACC_W_hpf_cutoff_freq, %function
 2579              	LSM303AGR_ACC_W_hpf_cutoff_freq:
 2580              	.LFB308:
 2581              		.loc 1 949 0
ARM GAS  /tmp/cc1ELVNa.s 			page 47


 2582              		.cfi_startproc
 2583              		@ args = 0, pretend = 0, frame = 16
 2584              		@ frame_needed = 0, uses_anonymous_args = 0
 2585 0e80 00B5     		push	{lr}
 2586              		.cfi_def_cfa_offset 4
 2587              		.cfi_offset 14, -4
 2588 0e82 85B0     		sub	sp, sp, #20
 2589              		.cfi_def_cfa_offset 24
 2590 0e84 0190     		str	r0, [sp, #4]
 2591 0e86 0B46     		mov	r3, r1
 2592 0e88 8DF80330 		strb	r3, [sp, #3]
 2593              		.loc 1 952 0
 2594 0e8c 0DF10F03 		add	r3, sp, #15
 2595 0e90 0198     		ldr	r0, [sp, #4]
 2596 0e92 2121     		movs	r1, #33
 2597 0e94 1A46     		mov	r2, r3
 2598 0e96 0123     		movs	r3, #1
 2599 0e98 FFF7FEFF 		bl	LSM303AGR_ACC_ReadReg
 2600 0e9c 0346     		mov	r3, r0
 2601 0e9e 002B     		cmp	r3, #0
 2602 0ea0 01D1     		bne	.L166
 2603              		.loc 1 953 0
 2604 0ea2 0023     		movs	r3, #0
 2605 0ea4 1CE0     		b	.L169
 2606              	.L166:
 2607              		.loc 1 955 0
 2608 0ea6 9DF80F30 		ldrb	r3, [sp, #15]	@ zero_extendqisi2
 2609 0eaa 23F03003 		bic	r3, r3, #48
 2610 0eae DBB2     		uxtb	r3, r3
 2611 0eb0 8DF80F30 		strb	r3, [sp, #15]
 2612              		.loc 1 956 0
 2613 0eb4 9DF80F20 		ldrb	r2, [sp, #15]	@ zero_extendqisi2
 2614 0eb8 9DF80330 		ldrb	r3, [sp, #3]
 2615 0ebc 1343     		orrs	r3, r3, r2
 2616 0ebe DBB2     		uxtb	r3, r3
 2617 0ec0 8DF80F30 		strb	r3, [sp, #15]
 2618              		.loc 1 958 0
 2619 0ec4 0DF10F03 		add	r3, sp, #15
 2620 0ec8 0198     		ldr	r0, [sp, #4]
 2621 0eca 2121     		movs	r1, #33
 2622 0ecc 1A46     		mov	r2, r3
 2623 0ece 0123     		movs	r3, #1
 2624 0ed0 FFF7FEFF 		bl	LSM303AGR_ACC_WriteReg
 2625 0ed4 0346     		mov	r3, r0
 2626 0ed6 002B     		cmp	r3, #0
 2627 0ed8 01D1     		bne	.L168
 2628              		.loc 1 959 0
 2629 0eda 0023     		movs	r3, #0
 2630 0edc 00E0     		b	.L169
 2631              	.L168:
 2632              		.loc 1 961 0
 2633 0ede 0123     		movs	r3, #1
 2634              	.L169:
 2635              		.loc 1 962 0
 2636 0ee0 1846     		mov	r0, r3
 2637 0ee2 05B0     		add	sp, sp, #20
 2638              		@ sp needed
ARM GAS  /tmp/cc1ELVNa.s 			page 48


 2639 0ee4 5DF804FB 		ldr	pc, [sp], #4
 2640              		.cfi_endproc
 2641              	.LFE308:
 2642              		.size	LSM303AGR_ACC_W_hpf_cutoff_freq, .-LSM303AGR_ACC_W_hpf_cutoff_freq
 2643              		.align	2
 2644 0ee8 AFF30080 		.p2align 4,,15
 2644      AFF30080 
 2645              		.global	LSM303AGR_ACC_R_hpf_cutoff_freq
 2646              		.thumb
 2647              		.thumb_func
 2648              		.type	LSM303AGR_ACC_R_hpf_cutoff_freq, %function
 2649              	LSM303AGR_ACC_R_hpf_cutoff_freq:
 2650              	.LFB309:
 2651              		.loc 1 972 0
 2652              		.cfi_startproc
 2653              		@ args = 0, pretend = 0, frame = 8
 2654              		@ frame_needed = 0, uses_anonymous_args = 0
 2655 0ef0 00B5     		push	{lr}
 2656              		.cfi_def_cfa_offset 4
 2657              		.cfi_offset 14, -4
 2658 0ef2 83B0     		sub	sp, sp, #12
 2659              		.cfi_def_cfa_offset 16
 2660 0ef4 0190     		str	r0, [sp, #4]
 2661 0ef6 0091     		str	r1, [sp]
 2662              		.loc 1 973 0
 2663 0ef8 0198     		ldr	r0, [sp, #4]
 2664 0efa 2121     		movs	r1, #33
 2665 0efc 009A     		ldr	r2, [sp]
 2666 0efe 0123     		movs	r3, #1
 2667 0f00 FFF7FEFF 		bl	LSM303AGR_ACC_ReadReg
 2668 0f04 0346     		mov	r3, r0
 2669 0f06 002B     		cmp	r3, #0
 2670 0f08 01D1     		bne	.L171
 2671              		.loc 1 974 0
 2672 0f0a 0023     		movs	r3, #0
 2673 0f0c 07E0     		b	.L172
 2674              	.L171:
 2675              		.loc 1 976 0
 2676 0f0e 009B     		ldr	r3, [sp]
 2677 0f10 1B78     		ldrb	r3, [r3]	@ zero_extendqisi2
 2678 0f12 03F03003 		and	r3, r3, #48
 2679 0f16 DAB2     		uxtb	r2, r3
 2680 0f18 009B     		ldr	r3, [sp]
 2681 0f1a 1A70     		strb	r2, [r3]
 2682              		.loc 1 978 0
 2683 0f1c 0123     		movs	r3, #1
 2684              	.L172:
 2685              		.loc 1 979 0
 2686 0f1e 1846     		mov	r0, r3
 2687 0f20 03B0     		add	sp, sp, #12
 2688              		@ sp needed
 2689 0f22 5DF804FB 		ldr	pc, [sp], #4
 2690              		.cfi_endproc
 2691              	.LFE309:
 2692              		.size	LSM303AGR_ACC_R_hpf_cutoff_freq, .-LSM303AGR_ACC_R_hpf_cutoff_freq
 2693 0f26 00BF     		.align	2
 2694 0f28 AFF30080 		.p2align 4,,15
ARM GAS  /tmp/cc1ELVNa.s 			page 49


 2694      AFF30080 
 2695              		.global	LSM303AGR_ACC_W_hpf_mode
 2696              		.thumb
 2697              		.thumb_func
 2698              		.type	LSM303AGR_ACC_W_hpf_mode, %function
 2699              	LSM303AGR_ACC_W_hpf_mode:
 2700              	.LFB310:
 2701              		.loc 1 989 0
 2702              		.cfi_startproc
 2703              		@ args = 0, pretend = 0, frame = 16
 2704              		@ frame_needed = 0, uses_anonymous_args = 0
 2705 0f30 00B5     		push	{lr}
 2706              		.cfi_def_cfa_offset 4
 2707              		.cfi_offset 14, -4
 2708 0f32 85B0     		sub	sp, sp, #20
 2709              		.cfi_def_cfa_offset 24
 2710 0f34 0190     		str	r0, [sp, #4]
 2711 0f36 0B46     		mov	r3, r1
 2712 0f38 8DF80330 		strb	r3, [sp, #3]
 2713              		.loc 1 992 0
 2714 0f3c 0DF10F03 		add	r3, sp, #15
 2715 0f40 0198     		ldr	r0, [sp, #4]
 2716 0f42 2121     		movs	r1, #33
 2717 0f44 1A46     		mov	r2, r3
 2718 0f46 0123     		movs	r3, #1
 2719 0f48 FFF7FEFF 		bl	LSM303AGR_ACC_ReadReg
 2720 0f4c 0346     		mov	r3, r0
 2721 0f4e 002B     		cmp	r3, #0
 2722 0f50 01D1     		bne	.L174
 2723              		.loc 1 993 0
 2724 0f52 0023     		movs	r3, #0
 2725 0f54 1CE0     		b	.L177
 2726              	.L174:
 2727              		.loc 1 995 0
 2728 0f56 9DF80F30 		ldrb	r3, [sp, #15]	@ zero_extendqisi2
 2729 0f5a 03F03F03 		and	r3, r3, #63
 2730 0f5e DBB2     		uxtb	r3, r3
 2731 0f60 8DF80F30 		strb	r3, [sp, #15]
 2732              		.loc 1 996 0
 2733 0f64 9DF80F20 		ldrb	r2, [sp, #15]	@ zero_extendqisi2
 2734 0f68 9DF80330 		ldrb	r3, [sp, #3]
 2735 0f6c 1343     		orrs	r3, r3, r2
 2736 0f6e DBB2     		uxtb	r3, r3
 2737 0f70 8DF80F30 		strb	r3, [sp, #15]
 2738              		.loc 1 998 0
 2739 0f74 0DF10F03 		add	r3, sp, #15
 2740 0f78 0198     		ldr	r0, [sp, #4]
 2741 0f7a 2121     		movs	r1, #33
 2742 0f7c 1A46     		mov	r2, r3
 2743 0f7e 0123     		movs	r3, #1
 2744 0f80 FFF7FEFF 		bl	LSM303AGR_ACC_WriteReg
 2745 0f84 0346     		mov	r3, r0
 2746 0f86 002B     		cmp	r3, #0
 2747 0f88 01D1     		bne	.L176
 2748              		.loc 1 999 0
 2749 0f8a 0023     		movs	r3, #0
 2750 0f8c 00E0     		b	.L177
ARM GAS  /tmp/cc1ELVNa.s 			page 50


 2751              	.L176:
 2752              		.loc 1 1001 0
 2753 0f8e 0123     		movs	r3, #1
 2754              	.L177:
 2755              		.loc 1 1002 0
 2756 0f90 1846     		mov	r0, r3
 2757 0f92 05B0     		add	sp, sp, #20
 2758              		@ sp needed
 2759 0f94 5DF804FB 		ldr	pc, [sp], #4
 2760              		.cfi_endproc
 2761              	.LFE310:
 2762              		.size	LSM303AGR_ACC_W_hpf_mode, .-LSM303AGR_ACC_W_hpf_mode
 2763              		.align	2
 2764 0f98 AFF30080 		.p2align 4,,15
 2764      AFF30080 
 2765              		.global	LSM303AGR_ACC_R_hpf_mode
 2766              		.thumb
 2767              		.thumb_func
 2768              		.type	LSM303AGR_ACC_R_hpf_mode, %function
 2769              	LSM303AGR_ACC_R_hpf_mode:
 2770              	.LFB311:
 2771              		.loc 1 1012 0
 2772              		.cfi_startproc
 2773              		@ args = 0, pretend = 0, frame = 8
 2774              		@ frame_needed = 0, uses_anonymous_args = 0
 2775 0fa0 00B5     		push	{lr}
 2776              		.cfi_def_cfa_offset 4
 2777              		.cfi_offset 14, -4
 2778 0fa2 83B0     		sub	sp, sp, #12
 2779              		.cfi_def_cfa_offset 16
 2780 0fa4 0190     		str	r0, [sp, #4]
 2781 0fa6 0091     		str	r1, [sp]
 2782              		.loc 1 1013 0
 2783 0fa8 0198     		ldr	r0, [sp, #4]
 2784 0faa 2121     		movs	r1, #33
 2785 0fac 009A     		ldr	r2, [sp]
 2786 0fae 0123     		movs	r3, #1
 2787 0fb0 FFF7FEFF 		bl	LSM303AGR_ACC_ReadReg
 2788 0fb4 0346     		mov	r3, r0
 2789 0fb6 002B     		cmp	r3, #0
 2790 0fb8 01D1     		bne	.L179
 2791              		.loc 1 1014 0
 2792 0fba 0023     		movs	r3, #0
 2793 0fbc 07E0     		b	.L180
 2794              	.L179:
 2795              		.loc 1 1016 0
 2796 0fbe 009B     		ldr	r3, [sp]
 2797 0fc0 1B78     		ldrb	r3, [r3]	@ zero_extendqisi2
 2798 0fc2 23F03F03 		bic	r3, r3, #63
 2799 0fc6 DAB2     		uxtb	r2, r3
 2800 0fc8 009B     		ldr	r3, [sp]
 2801 0fca 1A70     		strb	r2, [r3]
 2802              		.loc 1 1018 0
 2803 0fcc 0123     		movs	r3, #1
 2804              	.L180:
 2805              		.loc 1 1019 0
 2806 0fce 1846     		mov	r0, r3
ARM GAS  /tmp/cc1ELVNa.s 			page 51


 2807 0fd0 03B0     		add	sp, sp, #12
 2808              		@ sp needed
 2809 0fd2 5DF804FB 		ldr	pc, [sp], #4
 2810              		.cfi_endproc
 2811              	.LFE311:
 2812              		.size	LSM303AGR_ACC_R_hpf_mode, .-LSM303AGR_ACC_R_hpf_mode
 2813 0fd6 00BF     		.align	2
 2814 0fd8 AFF30080 		.p2align 4,,15
 2814      AFF30080 
 2815              		.global	LSM303AGR_ACC_W_FIFO_Overrun_on_INT1
 2816              		.thumb
 2817              		.thumb_func
 2818              		.type	LSM303AGR_ACC_W_FIFO_Overrun_on_INT1, %function
 2819              	LSM303AGR_ACC_W_FIFO_Overrun_on_INT1:
 2820              	.LFB312:
 2821              		.loc 1 1029 0
 2822              		.cfi_startproc
 2823              		@ args = 0, pretend = 0, frame = 16
 2824              		@ frame_needed = 0, uses_anonymous_args = 0
 2825 0fe0 00B5     		push	{lr}
 2826              		.cfi_def_cfa_offset 4
 2827              		.cfi_offset 14, -4
 2828 0fe2 85B0     		sub	sp, sp, #20
 2829              		.cfi_def_cfa_offset 24
 2830 0fe4 0190     		str	r0, [sp, #4]
 2831 0fe6 0B46     		mov	r3, r1
 2832 0fe8 8DF80330 		strb	r3, [sp, #3]
 2833              		.loc 1 1032 0
 2834 0fec 0DF10F03 		add	r3, sp, #15
 2835 0ff0 0198     		ldr	r0, [sp, #4]
 2836 0ff2 2221     		movs	r1, #34
 2837 0ff4 1A46     		mov	r2, r3
 2838 0ff6 0123     		movs	r3, #1
 2839 0ff8 FFF7FEFF 		bl	LSM303AGR_ACC_ReadReg
 2840 0ffc 0346     		mov	r3, r0
 2841 0ffe 002B     		cmp	r3, #0
 2842 1000 01D1     		bne	.L182
 2843              		.loc 1 1033 0
 2844 1002 0023     		movs	r3, #0
 2845 1004 1CE0     		b	.L185
 2846              	.L182:
 2847              		.loc 1 1035 0
 2848 1006 9DF80F30 		ldrb	r3, [sp, #15]	@ zero_extendqisi2
 2849 100a 23F00203 		bic	r3, r3, #2
 2850 100e DBB2     		uxtb	r3, r3
 2851 1010 8DF80F30 		strb	r3, [sp, #15]
 2852              		.loc 1 1036 0
 2853 1014 9DF80F20 		ldrb	r2, [sp, #15]	@ zero_extendqisi2
 2854 1018 9DF80330 		ldrb	r3, [sp, #3]
 2855 101c 1343     		orrs	r3, r3, r2
 2856 101e DBB2     		uxtb	r3, r3
 2857 1020 8DF80F30 		strb	r3, [sp, #15]
 2858              		.loc 1 1038 0
 2859 1024 0DF10F03 		add	r3, sp, #15
 2860 1028 0198     		ldr	r0, [sp, #4]
 2861 102a 2221     		movs	r1, #34
 2862 102c 1A46     		mov	r2, r3
ARM GAS  /tmp/cc1ELVNa.s 			page 52


 2863 102e 0123     		movs	r3, #1
 2864 1030 FFF7FEFF 		bl	LSM303AGR_ACC_WriteReg
 2865 1034 0346     		mov	r3, r0
 2866 1036 002B     		cmp	r3, #0
 2867 1038 01D1     		bne	.L184
 2868              		.loc 1 1039 0
 2869 103a 0023     		movs	r3, #0
 2870 103c 00E0     		b	.L185
 2871              	.L184:
 2872              		.loc 1 1041 0
 2873 103e 0123     		movs	r3, #1
 2874              	.L185:
 2875              		.loc 1 1042 0
 2876 1040 1846     		mov	r0, r3
 2877 1042 05B0     		add	sp, sp, #20
 2878              		@ sp needed
 2879 1044 5DF804FB 		ldr	pc, [sp], #4
 2880              		.cfi_endproc
 2881              	.LFE312:
 2882              		.size	LSM303AGR_ACC_W_FIFO_Overrun_on_INT1, .-LSM303AGR_ACC_W_FIFO_Overrun_on_INT1
 2883              		.align	2
 2884 1048 AFF30080 		.p2align 4,,15
 2884      AFF30080 
 2885              		.global	LSM303AGR_ACC_R_FIFO_Overrun_on_INT1
 2886              		.thumb
 2887              		.thumb_func
 2888              		.type	LSM303AGR_ACC_R_FIFO_Overrun_on_INT1, %function
 2889              	LSM303AGR_ACC_R_FIFO_Overrun_on_INT1:
 2890              	.LFB313:
 2891              		.loc 1 1052 0
 2892              		.cfi_startproc
 2893              		@ args = 0, pretend = 0, frame = 8
 2894              		@ frame_needed = 0, uses_anonymous_args = 0
 2895 1050 00B5     		push	{lr}
 2896              		.cfi_def_cfa_offset 4
 2897              		.cfi_offset 14, -4
 2898 1052 83B0     		sub	sp, sp, #12
 2899              		.cfi_def_cfa_offset 16
 2900 1054 0190     		str	r0, [sp, #4]
 2901 1056 0091     		str	r1, [sp]
 2902              		.loc 1 1053 0
 2903 1058 0198     		ldr	r0, [sp, #4]
 2904 105a 2221     		movs	r1, #34
 2905 105c 009A     		ldr	r2, [sp]
 2906 105e 0123     		movs	r3, #1
 2907 1060 FFF7FEFF 		bl	LSM303AGR_ACC_ReadReg
 2908 1064 0346     		mov	r3, r0
 2909 1066 002B     		cmp	r3, #0
 2910 1068 01D1     		bne	.L187
 2911              		.loc 1 1054 0
 2912 106a 0023     		movs	r3, #0
 2913 106c 07E0     		b	.L188
 2914              	.L187:
 2915              		.loc 1 1056 0
 2916 106e 009B     		ldr	r3, [sp]
 2917 1070 1B78     		ldrb	r3, [r3]	@ zero_extendqisi2
 2918 1072 03F00203 		and	r3, r3, #2
ARM GAS  /tmp/cc1ELVNa.s 			page 53


 2919 1076 DAB2     		uxtb	r2, r3
 2920 1078 009B     		ldr	r3, [sp]
 2921 107a 1A70     		strb	r2, [r3]
 2922              		.loc 1 1058 0
 2923 107c 0123     		movs	r3, #1
 2924              	.L188:
 2925              		.loc 1 1059 0
 2926 107e 1846     		mov	r0, r3
 2927 1080 03B0     		add	sp, sp, #12
 2928              		@ sp needed
 2929 1082 5DF804FB 		ldr	pc, [sp], #4
 2930              		.cfi_endproc
 2931              	.LFE313:
 2932              		.size	LSM303AGR_ACC_R_FIFO_Overrun_on_INT1, .-LSM303AGR_ACC_R_FIFO_Overrun_on_INT1
 2933 1086 00BF     		.align	2
 2934 1088 AFF30080 		.p2align 4,,15
 2934      AFF30080 
 2935              		.global	LSM303AGR_ACC_W_FIFO_Watermark_on_INT1
 2936              		.thumb
 2937              		.thumb_func
 2938              		.type	LSM303AGR_ACC_W_FIFO_Watermark_on_INT1, %function
 2939              	LSM303AGR_ACC_W_FIFO_Watermark_on_INT1:
 2940              	.LFB314:
 2941              		.loc 1 1069 0
 2942              		.cfi_startproc
 2943              		@ args = 0, pretend = 0, frame = 16
 2944              		@ frame_needed = 0, uses_anonymous_args = 0
 2945 1090 00B5     		push	{lr}
 2946              		.cfi_def_cfa_offset 4
 2947              		.cfi_offset 14, -4
 2948 1092 85B0     		sub	sp, sp, #20
 2949              		.cfi_def_cfa_offset 24
 2950 1094 0190     		str	r0, [sp, #4]
 2951 1096 0B46     		mov	r3, r1
 2952 1098 8DF80330 		strb	r3, [sp, #3]
 2953              		.loc 1 1072 0
 2954 109c 0DF10F03 		add	r3, sp, #15
 2955 10a0 0198     		ldr	r0, [sp, #4]
 2956 10a2 2221     		movs	r1, #34
 2957 10a4 1A46     		mov	r2, r3
 2958 10a6 0123     		movs	r3, #1
 2959 10a8 FFF7FEFF 		bl	LSM303AGR_ACC_ReadReg
 2960 10ac 0346     		mov	r3, r0
 2961 10ae 002B     		cmp	r3, #0
 2962 10b0 01D1     		bne	.L190
 2963              		.loc 1 1073 0
 2964 10b2 0023     		movs	r3, #0
 2965 10b4 1CE0     		b	.L193
 2966              	.L190:
 2967              		.loc 1 1075 0
 2968 10b6 9DF80F30 		ldrb	r3, [sp, #15]	@ zero_extendqisi2
 2969 10ba 23F00403 		bic	r3, r3, #4
 2970 10be DBB2     		uxtb	r3, r3
 2971 10c0 8DF80F30 		strb	r3, [sp, #15]
 2972              		.loc 1 1076 0
 2973 10c4 9DF80F20 		ldrb	r2, [sp, #15]	@ zero_extendqisi2
 2974 10c8 9DF80330 		ldrb	r3, [sp, #3]
ARM GAS  /tmp/cc1ELVNa.s 			page 54


 2975 10cc 1343     		orrs	r3, r3, r2
 2976 10ce DBB2     		uxtb	r3, r3
 2977 10d0 8DF80F30 		strb	r3, [sp, #15]
 2978              		.loc 1 1078 0
 2979 10d4 0DF10F03 		add	r3, sp, #15
 2980 10d8 0198     		ldr	r0, [sp, #4]
 2981 10da 2221     		movs	r1, #34
 2982 10dc 1A46     		mov	r2, r3
 2983 10de 0123     		movs	r3, #1
 2984 10e0 FFF7FEFF 		bl	LSM303AGR_ACC_WriteReg
 2985 10e4 0346     		mov	r3, r0
 2986 10e6 002B     		cmp	r3, #0
 2987 10e8 01D1     		bne	.L192
 2988              		.loc 1 1079 0
 2989 10ea 0023     		movs	r3, #0
 2990 10ec 00E0     		b	.L193
 2991              	.L192:
 2992              		.loc 1 1081 0
 2993 10ee 0123     		movs	r3, #1
 2994              	.L193:
 2995              		.loc 1 1082 0
 2996 10f0 1846     		mov	r0, r3
 2997 10f2 05B0     		add	sp, sp, #20
 2998              		@ sp needed
 2999 10f4 5DF804FB 		ldr	pc, [sp], #4
 3000              		.cfi_endproc
 3001              	.LFE314:
 3002              		.size	LSM303AGR_ACC_W_FIFO_Watermark_on_INT1, .-LSM303AGR_ACC_W_FIFO_Watermark_on_INT1
 3003              		.align	2
 3004 10f8 AFF30080 		.p2align 4,,15
 3004      AFF30080 
 3005              		.global	LSM303AGR_ACC_R_FIFO_Watermark_on_INT1
 3006              		.thumb
 3007              		.thumb_func
 3008              		.type	LSM303AGR_ACC_R_FIFO_Watermark_on_INT1, %function
 3009              	LSM303AGR_ACC_R_FIFO_Watermark_on_INT1:
 3010              	.LFB315:
 3011              		.loc 1 1092 0
 3012              		.cfi_startproc
 3013              		@ args = 0, pretend = 0, frame = 8
 3014              		@ frame_needed = 0, uses_anonymous_args = 0
 3015 1100 00B5     		push	{lr}
 3016              		.cfi_def_cfa_offset 4
 3017              		.cfi_offset 14, -4
 3018 1102 83B0     		sub	sp, sp, #12
 3019              		.cfi_def_cfa_offset 16
 3020 1104 0190     		str	r0, [sp, #4]
 3021 1106 0091     		str	r1, [sp]
 3022              		.loc 1 1093 0
 3023 1108 0198     		ldr	r0, [sp, #4]
 3024 110a 2221     		movs	r1, #34
 3025 110c 009A     		ldr	r2, [sp]
 3026 110e 0123     		movs	r3, #1
 3027 1110 FFF7FEFF 		bl	LSM303AGR_ACC_ReadReg
 3028 1114 0346     		mov	r3, r0
 3029 1116 002B     		cmp	r3, #0
 3030 1118 01D1     		bne	.L195
ARM GAS  /tmp/cc1ELVNa.s 			page 55


 3031              		.loc 1 1094 0
 3032 111a 0023     		movs	r3, #0
 3033 111c 07E0     		b	.L196
 3034              	.L195:
 3035              		.loc 1 1096 0
 3036 111e 009B     		ldr	r3, [sp]
 3037 1120 1B78     		ldrb	r3, [r3]	@ zero_extendqisi2
 3038 1122 03F00403 		and	r3, r3, #4
 3039 1126 DAB2     		uxtb	r2, r3
 3040 1128 009B     		ldr	r3, [sp]
 3041 112a 1A70     		strb	r2, [r3]
 3042              		.loc 1 1098 0
 3043 112c 0123     		movs	r3, #1
 3044              	.L196:
 3045              		.loc 1 1099 0
 3046 112e 1846     		mov	r0, r3
 3047 1130 03B0     		add	sp, sp, #12
 3048              		@ sp needed
 3049 1132 5DF804FB 		ldr	pc, [sp], #4
 3050              		.cfi_endproc
 3051              	.LFE315:
 3052              		.size	LSM303AGR_ACC_R_FIFO_Watermark_on_INT1, .-LSM303AGR_ACC_R_FIFO_Watermark_on_INT1
 3053 1136 00BF     		.align	2
 3054 1138 AFF30080 		.p2align 4,,15
 3054      AFF30080 
 3055              		.global	LSM303AGR_ACC_W_FIFO_DRDY2_on_INT1
 3056              		.thumb
 3057              		.thumb_func
 3058              		.type	LSM303AGR_ACC_W_FIFO_DRDY2_on_INT1, %function
 3059              	LSM303AGR_ACC_W_FIFO_DRDY2_on_INT1:
 3060              	.LFB316:
 3061              		.loc 1 1109 0
 3062              		.cfi_startproc
 3063              		@ args = 0, pretend = 0, frame = 16
 3064              		@ frame_needed = 0, uses_anonymous_args = 0
 3065 1140 00B5     		push	{lr}
 3066              		.cfi_def_cfa_offset 4
 3067              		.cfi_offset 14, -4
 3068 1142 85B0     		sub	sp, sp, #20
 3069              		.cfi_def_cfa_offset 24
 3070 1144 0190     		str	r0, [sp, #4]
 3071 1146 0B46     		mov	r3, r1
 3072 1148 8DF80330 		strb	r3, [sp, #3]
 3073              		.loc 1 1112 0
 3074 114c 0DF10F03 		add	r3, sp, #15
 3075 1150 0198     		ldr	r0, [sp, #4]
 3076 1152 2221     		movs	r1, #34
 3077 1154 1A46     		mov	r2, r3
 3078 1156 0123     		movs	r3, #1
 3079 1158 FFF7FEFF 		bl	LSM303AGR_ACC_ReadReg
 3080 115c 0346     		mov	r3, r0
 3081 115e 002B     		cmp	r3, #0
 3082 1160 01D1     		bne	.L198
 3083              		.loc 1 1113 0
 3084 1162 0023     		movs	r3, #0
 3085 1164 1CE0     		b	.L201
 3086              	.L198:
ARM GAS  /tmp/cc1ELVNa.s 			page 56


 3087              		.loc 1 1115 0
 3088 1166 9DF80F30 		ldrb	r3, [sp, #15]	@ zero_extendqisi2
 3089 116a 23F00803 		bic	r3, r3, #8
 3090 116e DBB2     		uxtb	r3, r3
 3091 1170 8DF80F30 		strb	r3, [sp, #15]
 3092              		.loc 1 1116 0
 3093 1174 9DF80F20 		ldrb	r2, [sp, #15]	@ zero_extendqisi2
 3094 1178 9DF80330 		ldrb	r3, [sp, #3]
 3095 117c 1343     		orrs	r3, r3, r2
 3096 117e DBB2     		uxtb	r3, r3
 3097 1180 8DF80F30 		strb	r3, [sp, #15]
 3098              		.loc 1 1118 0
 3099 1184 0DF10F03 		add	r3, sp, #15
 3100 1188 0198     		ldr	r0, [sp, #4]
 3101 118a 2221     		movs	r1, #34
 3102 118c 1A46     		mov	r2, r3
 3103 118e 0123     		movs	r3, #1
 3104 1190 FFF7FEFF 		bl	LSM303AGR_ACC_WriteReg
 3105 1194 0346     		mov	r3, r0
 3106 1196 002B     		cmp	r3, #0
 3107 1198 01D1     		bne	.L200
 3108              		.loc 1 1119 0
 3109 119a 0023     		movs	r3, #0
 3110 119c 00E0     		b	.L201
 3111              	.L200:
 3112              		.loc 1 1121 0
 3113 119e 0123     		movs	r3, #1
 3114              	.L201:
 3115              		.loc 1 1122 0
 3116 11a0 1846     		mov	r0, r3
 3117 11a2 05B0     		add	sp, sp, #20
 3118              		@ sp needed
 3119 11a4 5DF804FB 		ldr	pc, [sp], #4
 3120              		.cfi_endproc
 3121              	.LFE316:
 3122              		.size	LSM303AGR_ACC_W_FIFO_DRDY2_on_INT1, .-LSM303AGR_ACC_W_FIFO_DRDY2_on_INT1
 3123              		.align	2
 3124 11a8 AFF30080 		.p2align 4,,15
 3124      AFF30080 
 3125              		.global	LSM303AGR_ACC_R_FIFO_DRDY2_on_INT1
 3126              		.thumb
 3127              		.thumb_func
 3128              		.type	LSM303AGR_ACC_R_FIFO_DRDY2_on_INT1, %function
 3129              	LSM303AGR_ACC_R_FIFO_DRDY2_on_INT1:
 3130              	.LFB317:
 3131              		.loc 1 1132 0
 3132              		.cfi_startproc
 3133              		@ args = 0, pretend = 0, frame = 8
 3134              		@ frame_needed = 0, uses_anonymous_args = 0
 3135 11b0 00B5     		push	{lr}
 3136              		.cfi_def_cfa_offset 4
 3137              		.cfi_offset 14, -4
 3138 11b2 83B0     		sub	sp, sp, #12
 3139              		.cfi_def_cfa_offset 16
 3140 11b4 0190     		str	r0, [sp, #4]
 3141 11b6 0091     		str	r1, [sp]
 3142              		.loc 1 1133 0
ARM GAS  /tmp/cc1ELVNa.s 			page 57


 3143 11b8 0198     		ldr	r0, [sp, #4]
 3144 11ba 2221     		movs	r1, #34
 3145 11bc 009A     		ldr	r2, [sp]
 3146 11be 0123     		movs	r3, #1
 3147 11c0 FFF7FEFF 		bl	LSM303AGR_ACC_ReadReg
 3148 11c4 0346     		mov	r3, r0
 3149 11c6 002B     		cmp	r3, #0
 3150 11c8 01D1     		bne	.L203
 3151              		.loc 1 1134 0
 3152 11ca 0023     		movs	r3, #0
 3153 11cc 07E0     		b	.L204
 3154              	.L203:
 3155              		.loc 1 1136 0
 3156 11ce 009B     		ldr	r3, [sp]
 3157 11d0 1B78     		ldrb	r3, [r3]	@ zero_extendqisi2
 3158 11d2 03F00803 		and	r3, r3, #8
 3159 11d6 DAB2     		uxtb	r2, r3
 3160 11d8 009B     		ldr	r3, [sp]
 3161 11da 1A70     		strb	r2, [r3]
 3162              		.loc 1 1138 0
 3163 11dc 0123     		movs	r3, #1
 3164              	.L204:
 3165              		.loc 1 1139 0
 3166 11de 1846     		mov	r0, r3
 3167 11e0 03B0     		add	sp, sp, #12
 3168              		@ sp needed
 3169 11e2 5DF804FB 		ldr	pc, [sp], #4
 3170              		.cfi_endproc
 3171              	.LFE317:
 3172              		.size	LSM303AGR_ACC_R_FIFO_DRDY2_on_INT1, .-LSM303AGR_ACC_R_FIFO_DRDY2_on_INT1
 3173 11e6 00BF     		.align	2
 3174 11e8 AFF30080 		.p2align 4,,15
 3174      AFF30080 
 3175              		.global	LSM303AGR_ACC_W_FIFO_DRDY1_on_INT1
 3176              		.thumb
 3177              		.thumb_func
 3178              		.type	LSM303AGR_ACC_W_FIFO_DRDY1_on_INT1, %function
 3179              	LSM303AGR_ACC_W_FIFO_DRDY1_on_INT1:
 3180              	.LFB318:
 3181              		.loc 1 1149 0
 3182              		.cfi_startproc
 3183              		@ args = 0, pretend = 0, frame = 16
 3184              		@ frame_needed = 0, uses_anonymous_args = 0
 3185 11f0 00B5     		push	{lr}
 3186              		.cfi_def_cfa_offset 4
 3187              		.cfi_offset 14, -4
 3188 11f2 85B0     		sub	sp, sp, #20
 3189              		.cfi_def_cfa_offset 24
 3190 11f4 0190     		str	r0, [sp, #4]
 3191 11f6 0B46     		mov	r3, r1
 3192 11f8 8DF80330 		strb	r3, [sp, #3]
 3193              		.loc 1 1152 0
 3194 11fc 0DF10F03 		add	r3, sp, #15
 3195 1200 0198     		ldr	r0, [sp, #4]
 3196 1202 2221     		movs	r1, #34
 3197 1204 1A46     		mov	r2, r3
 3198 1206 0123     		movs	r3, #1
ARM GAS  /tmp/cc1ELVNa.s 			page 58


 3199 1208 FFF7FEFF 		bl	LSM303AGR_ACC_ReadReg
 3200 120c 0346     		mov	r3, r0
 3201 120e 002B     		cmp	r3, #0
 3202 1210 01D1     		bne	.L206
 3203              		.loc 1 1153 0
 3204 1212 0023     		movs	r3, #0
 3205 1214 1CE0     		b	.L209
 3206              	.L206:
 3207              		.loc 1 1155 0
 3208 1216 9DF80F30 		ldrb	r3, [sp, #15]	@ zero_extendqisi2
 3209 121a 23F01003 		bic	r3, r3, #16
 3210 121e DBB2     		uxtb	r3, r3
 3211 1220 8DF80F30 		strb	r3, [sp, #15]
 3212              		.loc 1 1156 0
 3213 1224 9DF80F20 		ldrb	r2, [sp, #15]	@ zero_extendqisi2
 3214 1228 9DF80330 		ldrb	r3, [sp, #3]
 3215 122c 1343     		orrs	r3, r3, r2
 3216 122e DBB2     		uxtb	r3, r3
 3217 1230 8DF80F30 		strb	r3, [sp, #15]
 3218              		.loc 1 1158 0
 3219 1234 0DF10F03 		add	r3, sp, #15
 3220 1238 0198     		ldr	r0, [sp, #4]
 3221 123a 2221     		movs	r1, #34
 3222 123c 1A46     		mov	r2, r3
 3223 123e 0123     		movs	r3, #1
 3224 1240 FFF7FEFF 		bl	LSM303AGR_ACC_WriteReg
 3225 1244 0346     		mov	r3, r0
 3226 1246 002B     		cmp	r3, #0
 3227 1248 01D1     		bne	.L208
 3228              		.loc 1 1159 0
 3229 124a 0023     		movs	r3, #0
 3230 124c 00E0     		b	.L209
 3231              	.L208:
 3232              		.loc 1 1161 0
 3233 124e 0123     		movs	r3, #1
 3234              	.L209:
 3235              		.loc 1 1162 0
 3236 1250 1846     		mov	r0, r3
 3237 1252 05B0     		add	sp, sp, #20
 3238              		@ sp needed
 3239 1254 5DF804FB 		ldr	pc, [sp], #4
 3240              		.cfi_endproc
 3241              	.LFE318:
 3242              		.size	LSM303AGR_ACC_W_FIFO_DRDY1_on_INT1, .-LSM303AGR_ACC_W_FIFO_DRDY1_on_INT1
 3243              		.align	2
 3244 1258 AFF30080 		.p2align 4,,15
 3244      AFF30080 
 3245              		.global	LSM303AGR_ACC_R_FIFO_DRDY1_on_INT1
 3246              		.thumb
 3247              		.thumb_func
 3248              		.type	LSM303AGR_ACC_R_FIFO_DRDY1_on_INT1, %function
 3249              	LSM303AGR_ACC_R_FIFO_DRDY1_on_INT1:
 3250              	.LFB319:
 3251              		.loc 1 1172 0
 3252              		.cfi_startproc
 3253              		@ args = 0, pretend = 0, frame = 8
 3254              		@ frame_needed = 0, uses_anonymous_args = 0
ARM GAS  /tmp/cc1ELVNa.s 			page 59


 3255 1260 00B5     		push	{lr}
 3256              		.cfi_def_cfa_offset 4
 3257              		.cfi_offset 14, -4
 3258 1262 83B0     		sub	sp, sp, #12
 3259              		.cfi_def_cfa_offset 16
 3260 1264 0190     		str	r0, [sp, #4]
 3261 1266 0091     		str	r1, [sp]
 3262              		.loc 1 1173 0
 3263 1268 0198     		ldr	r0, [sp, #4]
 3264 126a 2221     		movs	r1, #34
 3265 126c 009A     		ldr	r2, [sp]
 3266 126e 0123     		movs	r3, #1
 3267 1270 FFF7FEFF 		bl	LSM303AGR_ACC_ReadReg
 3268 1274 0346     		mov	r3, r0
 3269 1276 002B     		cmp	r3, #0
 3270 1278 01D1     		bne	.L211
 3271              		.loc 1 1174 0
 3272 127a 0023     		movs	r3, #0
 3273 127c 07E0     		b	.L212
 3274              	.L211:
 3275              		.loc 1 1176 0
 3276 127e 009B     		ldr	r3, [sp]
 3277 1280 1B78     		ldrb	r3, [r3]	@ zero_extendqisi2
 3278 1282 03F01003 		and	r3, r3, #16
 3279 1286 DAB2     		uxtb	r2, r3
 3280 1288 009B     		ldr	r3, [sp]
 3281 128a 1A70     		strb	r2, [r3]
 3282              		.loc 1 1178 0
 3283 128c 0123     		movs	r3, #1
 3284              	.L212:
 3285              		.loc 1 1179 0
 3286 128e 1846     		mov	r0, r3
 3287 1290 03B0     		add	sp, sp, #12
 3288              		@ sp needed
 3289 1292 5DF804FB 		ldr	pc, [sp], #4
 3290              		.cfi_endproc
 3291              	.LFE319:
 3292              		.size	LSM303AGR_ACC_R_FIFO_DRDY1_on_INT1, .-LSM303AGR_ACC_R_FIFO_DRDY1_on_INT1
 3293 1296 00BF     		.align	2
 3294 1298 AFF30080 		.p2align 4,,15
 3294      AFF30080 
 3295              		.global	LSM303AGR_ACC_W_FIFO_AOL2_on_INT1
 3296              		.thumb
 3297              		.thumb_func
 3298              		.type	LSM303AGR_ACC_W_FIFO_AOL2_on_INT1, %function
 3299              	LSM303AGR_ACC_W_FIFO_AOL2_on_INT1:
 3300              	.LFB320:
 3301              		.loc 1 1189 0
 3302              		.cfi_startproc
 3303              		@ args = 0, pretend = 0, frame = 16
 3304              		@ frame_needed = 0, uses_anonymous_args = 0
 3305 12a0 00B5     		push	{lr}
 3306              		.cfi_def_cfa_offset 4
 3307              		.cfi_offset 14, -4
 3308 12a2 85B0     		sub	sp, sp, #20
 3309              		.cfi_def_cfa_offset 24
 3310 12a4 0190     		str	r0, [sp, #4]
ARM GAS  /tmp/cc1ELVNa.s 			page 60


 3311 12a6 0B46     		mov	r3, r1
 3312 12a8 8DF80330 		strb	r3, [sp, #3]
 3313              		.loc 1 1192 0
 3314 12ac 0DF10F03 		add	r3, sp, #15
 3315 12b0 0198     		ldr	r0, [sp, #4]
 3316 12b2 2221     		movs	r1, #34
 3317 12b4 1A46     		mov	r2, r3
 3318 12b6 0123     		movs	r3, #1
 3319 12b8 FFF7FEFF 		bl	LSM303AGR_ACC_ReadReg
 3320 12bc 0346     		mov	r3, r0
 3321 12be 002B     		cmp	r3, #0
 3322 12c0 01D1     		bne	.L214
 3323              		.loc 1 1193 0
 3324 12c2 0023     		movs	r3, #0
 3325 12c4 1CE0     		b	.L217
 3326              	.L214:
 3327              		.loc 1 1195 0
 3328 12c6 9DF80F30 		ldrb	r3, [sp, #15]	@ zero_extendqisi2
 3329 12ca 23F02003 		bic	r3, r3, #32
 3330 12ce DBB2     		uxtb	r3, r3
 3331 12d0 8DF80F30 		strb	r3, [sp, #15]
 3332              		.loc 1 1196 0
 3333 12d4 9DF80F20 		ldrb	r2, [sp, #15]	@ zero_extendqisi2
 3334 12d8 9DF80330 		ldrb	r3, [sp, #3]
 3335 12dc 1343     		orrs	r3, r3, r2
 3336 12de DBB2     		uxtb	r3, r3
 3337 12e0 8DF80F30 		strb	r3, [sp, #15]
 3338              		.loc 1 1198 0
 3339 12e4 0DF10F03 		add	r3, sp, #15
 3340 12e8 0198     		ldr	r0, [sp, #4]
 3341 12ea 2221     		movs	r1, #34
 3342 12ec 1A46     		mov	r2, r3
 3343 12ee 0123     		movs	r3, #1
 3344 12f0 FFF7FEFF 		bl	LSM303AGR_ACC_WriteReg
 3345 12f4 0346     		mov	r3, r0
 3346 12f6 002B     		cmp	r3, #0
 3347 12f8 01D1     		bne	.L216
 3348              		.loc 1 1199 0
 3349 12fa 0023     		movs	r3, #0
 3350 12fc 00E0     		b	.L217
 3351              	.L216:
 3352              		.loc 1 1201 0
 3353 12fe 0123     		movs	r3, #1
 3354              	.L217:
 3355              		.loc 1 1202 0
 3356 1300 1846     		mov	r0, r3
 3357 1302 05B0     		add	sp, sp, #20
 3358              		@ sp needed
 3359 1304 5DF804FB 		ldr	pc, [sp], #4
 3360              		.cfi_endproc
 3361              	.LFE320:
 3362              		.size	LSM303AGR_ACC_W_FIFO_AOL2_on_INT1, .-LSM303AGR_ACC_W_FIFO_AOL2_on_INT1
 3363              		.align	2
 3364 1308 AFF30080 		.p2align 4,,15
 3364      AFF30080 
 3365              		.global	LSM303AGR_ACC_R_FIFO_AOL2_on_INT1
 3366              		.thumb
ARM GAS  /tmp/cc1ELVNa.s 			page 61


 3367              		.thumb_func
 3368              		.type	LSM303AGR_ACC_R_FIFO_AOL2_on_INT1, %function
 3369              	LSM303AGR_ACC_R_FIFO_AOL2_on_INT1:
 3370              	.LFB321:
 3371              		.loc 1 1212 0
 3372              		.cfi_startproc
 3373              		@ args = 0, pretend = 0, frame = 8
 3374              		@ frame_needed = 0, uses_anonymous_args = 0
 3375 1310 00B5     		push	{lr}
 3376              		.cfi_def_cfa_offset 4
 3377              		.cfi_offset 14, -4
 3378 1312 83B0     		sub	sp, sp, #12
 3379              		.cfi_def_cfa_offset 16
 3380 1314 0190     		str	r0, [sp, #4]
 3381 1316 0091     		str	r1, [sp]
 3382              		.loc 1 1213 0
 3383 1318 0198     		ldr	r0, [sp, #4]
 3384 131a 2221     		movs	r1, #34
 3385 131c 009A     		ldr	r2, [sp]
 3386 131e 0123     		movs	r3, #1
 3387 1320 FFF7FEFF 		bl	LSM303AGR_ACC_ReadReg
 3388 1324 0346     		mov	r3, r0
 3389 1326 002B     		cmp	r3, #0
 3390 1328 01D1     		bne	.L219
 3391              		.loc 1 1214 0
 3392 132a 0023     		movs	r3, #0
 3393 132c 07E0     		b	.L220
 3394              	.L219:
 3395              		.loc 1 1216 0
 3396 132e 009B     		ldr	r3, [sp]
 3397 1330 1B78     		ldrb	r3, [r3]	@ zero_extendqisi2
 3398 1332 03F02003 		and	r3, r3, #32
 3399 1336 DAB2     		uxtb	r2, r3
 3400 1338 009B     		ldr	r3, [sp]
 3401 133a 1A70     		strb	r2, [r3]
 3402              		.loc 1 1218 0
 3403 133c 0123     		movs	r3, #1
 3404              	.L220:
 3405              		.loc 1 1219 0
 3406 133e 1846     		mov	r0, r3
 3407 1340 03B0     		add	sp, sp, #12
 3408              		@ sp needed
 3409 1342 5DF804FB 		ldr	pc, [sp], #4
 3410              		.cfi_endproc
 3411              	.LFE321:
 3412              		.size	LSM303AGR_ACC_R_FIFO_AOL2_on_INT1, .-LSM303AGR_ACC_R_FIFO_AOL2_on_INT1
 3413 1346 00BF     		.align	2
 3414 1348 AFF30080 		.p2align 4,,15
 3414      AFF30080 
 3415              		.global	LSM303AGR_ACC_W_FIFO_AOL1_on_INT1
 3416              		.thumb
 3417              		.thumb_func
 3418              		.type	LSM303AGR_ACC_W_FIFO_AOL1_on_INT1, %function
 3419              	LSM303AGR_ACC_W_FIFO_AOL1_on_INT1:
 3420              	.LFB322:
 3421              		.loc 1 1229 0
 3422              		.cfi_startproc
ARM GAS  /tmp/cc1ELVNa.s 			page 62


 3423              		@ args = 0, pretend = 0, frame = 16
 3424              		@ frame_needed = 0, uses_anonymous_args = 0
 3425 1350 00B5     		push	{lr}
 3426              		.cfi_def_cfa_offset 4
 3427              		.cfi_offset 14, -4
 3428 1352 85B0     		sub	sp, sp, #20
 3429              		.cfi_def_cfa_offset 24
 3430 1354 0190     		str	r0, [sp, #4]
 3431 1356 0B46     		mov	r3, r1
 3432 1358 8DF80330 		strb	r3, [sp, #3]
 3433              		.loc 1 1232 0
 3434 135c 0DF10F03 		add	r3, sp, #15
 3435 1360 0198     		ldr	r0, [sp, #4]
 3436 1362 2221     		movs	r1, #34
 3437 1364 1A46     		mov	r2, r3
 3438 1366 0123     		movs	r3, #1
 3439 1368 FFF7FEFF 		bl	LSM303AGR_ACC_ReadReg
 3440 136c 0346     		mov	r3, r0
 3441 136e 002B     		cmp	r3, #0
 3442 1370 01D1     		bne	.L222
 3443              		.loc 1 1233 0
 3444 1372 0023     		movs	r3, #0
 3445 1374 1CE0     		b	.L225
 3446              	.L222:
 3447              		.loc 1 1235 0
 3448 1376 9DF80F30 		ldrb	r3, [sp, #15]	@ zero_extendqisi2
 3449 137a 23F04003 		bic	r3, r3, #64
 3450 137e DBB2     		uxtb	r3, r3
 3451 1380 8DF80F30 		strb	r3, [sp, #15]
 3452              		.loc 1 1236 0
 3453 1384 9DF80F20 		ldrb	r2, [sp, #15]	@ zero_extendqisi2
 3454 1388 9DF80330 		ldrb	r3, [sp, #3]
 3455 138c 1343     		orrs	r3, r3, r2
 3456 138e DBB2     		uxtb	r3, r3
 3457 1390 8DF80F30 		strb	r3, [sp, #15]
 3458              		.loc 1 1238 0
 3459 1394 0DF10F03 		add	r3, sp, #15
 3460 1398 0198     		ldr	r0, [sp, #4]
 3461 139a 2221     		movs	r1, #34
 3462 139c 1A46     		mov	r2, r3
 3463 139e 0123     		movs	r3, #1
 3464 13a0 FFF7FEFF 		bl	LSM303AGR_ACC_WriteReg
 3465 13a4 0346     		mov	r3, r0
 3466 13a6 002B     		cmp	r3, #0
 3467 13a8 01D1     		bne	.L224
 3468              		.loc 1 1239 0
 3469 13aa 0023     		movs	r3, #0
 3470 13ac 00E0     		b	.L225
 3471              	.L224:
 3472              		.loc 1 1241 0
 3473 13ae 0123     		movs	r3, #1
 3474              	.L225:
 3475              		.loc 1 1242 0
 3476 13b0 1846     		mov	r0, r3
 3477 13b2 05B0     		add	sp, sp, #20
 3478              		@ sp needed
 3479 13b4 5DF804FB 		ldr	pc, [sp], #4
ARM GAS  /tmp/cc1ELVNa.s 			page 63


 3480              		.cfi_endproc
 3481              	.LFE322:
 3482              		.size	LSM303AGR_ACC_W_FIFO_AOL1_on_INT1, .-LSM303AGR_ACC_W_FIFO_AOL1_on_INT1
 3483              		.align	2
 3484 13b8 AFF30080 		.p2align 4,,15
 3484      AFF30080 
 3485              		.global	LSM303AGR_ACC_R_FIFO_AOL1_on_INT1
 3486              		.thumb
 3487              		.thumb_func
 3488              		.type	LSM303AGR_ACC_R_FIFO_AOL1_on_INT1, %function
 3489              	LSM303AGR_ACC_R_FIFO_AOL1_on_INT1:
 3490              	.LFB323:
 3491              		.loc 1 1252 0
 3492              		.cfi_startproc
 3493              		@ args = 0, pretend = 0, frame = 8
 3494              		@ frame_needed = 0, uses_anonymous_args = 0
 3495 13c0 00B5     		push	{lr}
 3496              		.cfi_def_cfa_offset 4
 3497              		.cfi_offset 14, -4
 3498 13c2 83B0     		sub	sp, sp, #12
 3499              		.cfi_def_cfa_offset 16
 3500 13c4 0190     		str	r0, [sp, #4]
 3501 13c6 0091     		str	r1, [sp]
 3502              		.loc 1 1253 0
 3503 13c8 0198     		ldr	r0, [sp, #4]
 3504 13ca 2221     		movs	r1, #34
 3505 13cc 009A     		ldr	r2, [sp]
 3506 13ce 0123     		movs	r3, #1
 3507 13d0 FFF7FEFF 		bl	LSM303AGR_ACC_ReadReg
 3508 13d4 0346     		mov	r3, r0
 3509 13d6 002B     		cmp	r3, #0
 3510 13d8 01D1     		bne	.L227
 3511              		.loc 1 1254 0
 3512 13da 0023     		movs	r3, #0
 3513 13dc 07E0     		b	.L228
 3514              	.L227:
 3515              		.loc 1 1256 0
 3516 13de 009B     		ldr	r3, [sp]
 3517 13e0 1B78     		ldrb	r3, [r3]	@ zero_extendqisi2
 3518 13e2 03F04003 		and	r3, r3, #64
 3519 13e6 DAB2     		uxtb	r2, r3
 3520 13e8 009B     		ldr	r3, [sp]
 3521 13ea 1A70     		strb	r2, [r3]
 3522              		.loc 1 1258 0
 3523 13ec 0123     		movs	r3, #1
 3524              	.L228:
 3525              		.loc 1 1259 0
 3526 13ee 1846     		mov	r0, r3
 3527 13f0 03B0     		add	sp, sp, #12
 3528              		@ sp needed
 3529 13f2 5DF804FB 		ldr	pc, [sp], #4
 3530              		.cfi_endproc
 3531              	.LFE323:
 3532              		.size	LSM303AGR_ACC_R_FIFO_AOL1_on_INT1, .-LSM303AGR_ACC_R_FIFO_AOL1_on_INT1
 3533 13f6 00BF     		.align	2
 3534 13f8 AFF30080 		.p2align 4,,15
 3534      AFF30080 
ARM GAS  /tmp/cc1ELVNa.s 			page 64


 3535              		.global	LSM303AGR_ACC_W_FIFO_Click_on_INT1
 3536              		.thumb
 3537              		.thumb_func
 3538              		.type	LSM303AGR_ACC_W_FIFO_Click_on_INT1, %function
 3539              	LSM303AGR_ACC_W_FIFO_Click_on_INT1:
 3540              	.LFB324:
 3541              		.loc 1 1269 0
 3542              		.cfi_startproc
 3543              		@ args = 0, pretend = 0, frame = 16
 3544              		@ frame_needed = 0, uses_anonymous_args = 0
 3545 1400 00B5     		push	{lr}
 3546              		.cfi_def_cfa_offset 4
 3547              		.cfi_offset 14, -4
 3548 1402 85B0     		sub	sp, sp, #20
 3549              		.cfi_def_cfa_offset 24
 3550 1404 0190     		str	r0, [sp, #4]
 3551 1406 0B46     		mov	r3, r1
 3552 1408 8DF80330 		strb	r3, [sp, #3]
 3553              		.loc 1 1272 0
 3554 140c 0DF10F03 		add	r3, sp, #15
 3555 1410 0198     		ldr	r0, [sp, #4]
 3556 1412 2221     		movs	r1, #34
 3557 1414 1A46     		mov	r2, r3
 3558 1416 0123     		movs	r3, #1
 3559 1418 FFF7FEFF 		bl	LSM303AGR_ACC_ReadReg
 3560 141c 0346     		mov	r3, r0
 3561 141e 002B     		cmp	r3, #0
 3562 1420 01D1     		bne	.L230
 3563              		.loc 1 1273 0
 3564 1422 0023     		movs	r3, #0
 3565 1424 1CE0     		b	.L233
 3566              	.L230:
 3567              		.loc 1 1275 0
 3568 1426 9DF80F30 		ldrb	r3, [sp, #15]	@ zero_extendqisi2
 3569 142a 03F07F03 		and	r3, r3, #127
 3570 142e DBB2     		uxtb	r3, r3
 3571 1430 8DF80F30 		strb	r3, [sp, #15]
 3572              		.loc 1 1276 0
 3573 1434 9DF80F20 		ldrb	r2, [sp, #15]	@ zero_extendqisi2
 3574 1438 9DF80330 		ldrb	r3, [sp, #3]
 3575 143c 1343     		orrs	r3, r3, r2
 3576 143e DBB2     		uxtb	r3, r3
 3577 1440 8DF80F30 		strb	r3, [sp, #15]
 3578              		.loc 1 1278 0
 3579 1444 0DF10F03 		add	r3, sp, #15
 3580 1448 0198     		ldr	r0, [sp, #4]
 3581 144a 2221     		movs	r1, #34
 3582 144c 1A46     		mov	r2, r3
 3583 144e 0123     		movs	r3, #1
 3584 1450 FFF7FEFF 		bl	LSM303AGR_ACC_WriteReg
 3585 1454 0346     		mov	r3, r0
 3586 1456 002B     		cmp	r3, #0
 3587 1458 01D1     		bne	.L232
 3588              		.loc 1 1279 0
 3589 145a 0023     		movs	r3, #0
 3590 145c 00E0     		b	.L233
 3591              	.L232:
ARM GAS  /tmp/cc1ELVNa.s 			page 65


 3592              		.loc 1 1281 0
 3593 145e 0123     		movs	r3, #1
 3594              	.L233:
 3595              		.loc 1 1282 0
 3596 1460 1846     		mov	r0, r3
 3597 1462 05B0     		add	sp, sp, #20
 3598              		@ sp needed
 3599 1464 5DF804FB 		ldr	pc, [sp], #4
 3600              		.cfi_endproc
 3601              	.LFE324:
 3602              		.size	LSM303AGR_ACC_W_FIFO_Click_on_INT1, .-LSM303AGR_ACC_W_FIFO_Click_on_INT1
 3603              		.align	2
 3604 1468 AFF30080 		.p2align 4,,15
 3604      AFF30080 
 3605              		.global	LSM303AGR_ACC_R_FIFO_Click_on_INT1
 3606              		.thumb
 3607              		.thumb_func
 3608              		.type	LSM303AGR_ACC_R_FIFO_Click_on_INT1, %function
 3609              	LSM303AGR_ACC_R_FIFO_Click_on_INT1:
 3610              	.LFB325:
 3611              		.loc 1 1292 0
 3612              		.cfi_startproc
 3613              		@ args = 0, pretend = 0, frame = 8
 3614              		@ frame_needed = 0, uses_anonymous_args = 0
 3615 1470 00B5     		push	{lr}
 3616              		.cfi_def_cfa_offset 4
 3617              		.cfi_offset 14, -4
 3618 1472 83B0     		sub	sp, sp, #12
 3619              		.cfi_def_cfa_offset 16
 3620 1474 0190     		str	r0, [sp, #4]
 3621 1476 0091     		str	r1, [sp]
 3622              		.loc 1 1293 0
 3623 1478 0198     		ldr	r0, [sp, #4]
 3624 147a 2221     		movs	r1, #34
 3625 147c 009A     		ldr	r2, [sp]
 3626 147e 0123     		movs	r3, #1
 3627 1480 FFF7FEFF 		bl	LSM303AGR_ACC_ReadReg
 3628 1484 0346     		mov	r3, r0
 3629 1486 002B     		cmp	r3, #0
 3630 1488 01D1     		bne	.L235
 3631              		.loc 1 1294 0
 3632 148a 0023     		movs	r3, #0
 3633 148c 07E0     		b	.L236
 3634              	.L235:
 3635              		.loc 1 1296 0
 3636 148e 009B     		ldr	r3, [sp]
 3637 1490 1B78     		ldrb	r3, [r3]	@ zero_extendqisi2
 3638 1492 23F07F03 		bic	r3, r3, #127
 3639 1496 DAB2     		uxtb	r2, r3
 3640 1498 009B     		ldr	r3, [sp]
 3641 149a 1A70     		strb	r2, [r3]
 3642              		.loc 1 1298 0
 3643 149c 0123     		movs	r3, #1
 3644              	.L236:
 3645              		.loc 1 1299 0
 3646 149e 1846     		mov	r0, r3
 3647 14a0 03B0     		add	sp, sp, #12
ARM GAS  /tmp/cc1ELVNa.s 			page 66


 3648              		@ sp needed
 3649 14a2 5DF804FB 		ldr	pc, [sp], #4
 3650              		.cfi_endproc
 3651              	.LFE325:
 3652              		.size	LSM303AGR_ACC_R_FIFO_Click_on_INT1, .-LSM303AGR_ACC_R_FIFO_Click_on_INT1
 3653 14a6 00BF     		.align	2
 3654 14a8 AFF30080 		.p2align 4,,15
 3654      AFF30080 
 3655              		.global	LSM303AGR_ACC_W_SPI_mode
 3656              		.thumb
 3657              		.thumb_func
 3658              		.type	LSM303AGR_ACC_W_SPI_mode, %function
 3659              	LSM303AGR_ACC_W_SPI_mode:
 3660              	.LFB326:
 3661              		.loc 1 1309 0
 3662              		.cfi_startproc
 3663              		@ args = 0, pretend = 0, frame = 16
 3664              		@ frame_needed = 0, uses_anonymous_args = 0
 3665 14b0 00B5     		push	{lr}
 3666              		.cfi_def_cfa_offset 4
 3667              		.cfi_offset 14, -4
 3668 14b2 85B0     		sub	sp, sp, #20
 3669              		.cfi_def_cfa_offset 24
 3670 14b4 0190     		str	r0, [sp, #4]
 3671 14b6 0B46     		mov	r3, r1
 3672 14b8 8DF80330 		strb	r3, [sp, #3]
 3673              		.loc 1 1312 0
 3674 14bc 0DF10F03 		add	r3, sp, #15
 3675 14c0 0198     		ldr	r0, [sp, #4]
 3676 14c2 2321     		movs	r1, #35
 3677 14c4 1A46     		mov	r2, r3
 3678 14c6 0123     		movs	r3, #1
 3679 14c8 FFF7FEFF 		bl	LSM303AGR_ACC_ReadReg
 3680 14cc 0346     		mov	r3, r0
 3681 14ce 002B     		cmp	r3, #0
 3682 14d0 01D1     		bne	.L238
 3683              		.loc 1 1313 0
 3684 14d2 0023     		movs	r3, #0
 3685 14d4 1CE0     		b	.L241
 3686              	.L238:
 3687              		.loc 1 1315 0
 3688 14d6 9DF80F30 		ldrb	r3, [sp, #15]	@ zero_extendqisi2
 3689 14da 23F00103 		bic	r3, r3, #1
 3690 14de DBB2     		uxtb	r3, r3
 3691 14e0 8DF80F30 		strb	r3, [sp, #15]
 3692              		.loc 1 1316 0
 3693 14e4 9DF80F20 		ldrb	r2, [sp, #15]	@ zero_extendqisi2
 3694 14e8 9DF80330 		ldrb	r3, [sp, #3]
 3695 14ec 1343     		orrs	r3, r3, r2
 3696 14ee DBB2     		uxtb	r3, r3
 3697 14f0 8DF80F30 		strb	r3, [sp, #15]
 3698              		.loc 1 1318 0
 3699 14f4 0DF10F03 		add	r3, sp, #15
 3700 14f8 0198     		ldr	r0, [sp, #4]
 3701 14fa 2321     		movs	r1, #35
 3702 14fc 1A46     		mov	r2, r3
 3703 14fe 0123     		movs	r3, #1
ARM GAS  /tmp/cc1ELVNa.s 			page 67


 3704 1500 FFF7FEFF 		bl	LSM303AGR_ACC_WriteReg
 3705 1504 0346     		mov	r3, r0
 3706 1506 002B     		cmp	r3, #0
 3707 1508 01D1     		bne	.L240
 3708              		.loc 1 1319 0
 3709 150a 0023     		movs	r3, #0
 3710 150c 00E0     		b	.L241
 3711              	.L240:
 3712              		.loc 1 1321 0
 3713 150e 0123     		movs	r3, #1
 3714              	.L241:
 3715              		.loc 1 1322 0
 3716 1510 1846     		mov	r0, r3
 3717 1512 05B0     		add	sp, sp, #20
 3718              		@ sp needed
 3719 1514 5DF804FB 		ldr	pc, [sp], #4
 3720              		.cfi_endproc
 3721              	.LFE326:
 3722              		.size	LSM303AGR_ACC_W_SPI_mode, .-LSM303AGR_ACC_W_SPI_mode
 3723              		.align	2
 3724 1518 AFF30080 		.p2align 4,,15
 3724      AFF30080 
 3725              		.global	LSM303AGR_ACC_R_SPI_mode
 3726              		.thumb
 3727              		.thumb_func
 3728              		.type	LSM303AGR_ACC_R_SPI_mode, %function
 3729              	LSM303AGR_ACC_R_SPI_mode:
 3730              	.LFB327:
 3731              		.loc 1 1332 0
 3732              		.cfi_startproc
 3733              		@ args = 0, pretend = 0, frame = 8
 3734              		@ frame_needed = 0, uses_anonymous_args = 0
 3735 1520 00B5     		push	{lr}
 3736              		.cfi_def_cfa_offset 4
 3737              		.cfi_offset 14, -4
 3738 1522 83B0     		sub	sp, sp, #12
 3739              		.cfi_def_cfa_offset 16
 3740 1524 0190     		str	r0, [sp, #4]
 3741 1526 0091     		str	r1, [sp]
 3742              		.loc 1 1333 0
 3743 1528 0198     		ldr	r0, [sp, #4]
 3744 152a 2321     		movs	r1, #35
 3745 152c 009A     		ldr	r2, [sp]
 3746 152e 0123     		movs	r3, #1
 3747 1530 FFF7FEFF 		bl	LSM303AGR_ACC_ReadReg
 3748 1534 0346     		mov	r3, r0
 3749 1536 002B     		cmp	r3, #0
 3750 1538 01D1     		bne	.L243
 3751              		.loc 1 1334 0
 3752 153a 0023     		movs	r3, #0
 3753 153c 07E0     		b	.L244
 3754              	.L243:
 3755              		.loc 1 1336 0
 3756 153e 009B     		ldr	r3, [sp]
 3757 1540 1B78     		ldrb	r3, [r3]	@ zero_extendqisi2
 3758 1542 03F00103 		and	r3, r3, #1
 3759 1546 DAB2     		uxtb	r2, r3
ARM GAS  /tmp/cc1ELVNa.s 			page 68


 3760 1548 009B     		ldr	r3, [sp]
 3761 154a 1A70     		strb	r2, [r3]
 3762              		.loc 1 1338 0
 3763 154c 0123     		movs	r3, #1
 3764              	.L244:
 3765              		.loc 1 1339 0
 3766 154e 1846     		mov	r0, r3
 3767 1550 03B0     		add	sp, sp, #12
 3768              		@ sp needed
 3769 1552 5DF804FB 		ldr	pc, [sp], #4
 3770              		.cfi_endproc
 3771              	.LFE327:
 3772              		.size	LSM303AGR_ACC_R_SPI_mode, .-LSM303AGR_ACC_R_SPI_mode
 3773 1556 00BF     		.align	2
 3774 1558 AFF30080 		.p2align 4,,15
 3774      AFF30080 
 3775              		.global	LSM303AGR_ACC_W_SelfTest
 3776              		.thumb
 3777              		.thumb_func
 3778              		.type	LSM303AGR_ACC_W_SelfTest, %function
 3779              	LSM303AGR_ACC_W_SelfTest:
 3780              	.LFB328:
 3781              		.loc 1 1349 0
 3782              		.cfi_startproc
 3783              		@ args = 0, pretend = 0, frame = 16
 3784              		@ frame_needed = 0, uses_anonymous_args = 0
 3785 1560 00B5     		push	{lr}
 3786              		.cfi_def_cfa_offset 4
 3787              		.cfi_offset 14, -4
 3788 1562 85B0     		sub	sp, sp, #20
 3789              		.cfi_def_cfa_offset 24
 3790 1564 0190     		str	r0, [sp, #4]
 3791 1566 0B46     		mov	r3, r1
 3792 1568 8DF80330 		strb	r3, [sp, #3]
 3793              		.loc 1 1352 0
 3794 156c 0DF10F03 		add	r3, sp, #15
 3795 1570 0198     		ldr	r0, [sp, #4]
 3796 1572 2321     		movs	r1, #35
 3797 1574 1A46     		mov	r2, r3
 3798 1576 0123     		movs	r3, #1
 3799 1578 FFF7FEFF 		bl	LSM303AGR_ACC_ReadReg
 3800 157c 0346     		mov	r3, r0
 3801 157e 002B     		cmp	r3, #0
 3802 1580 01D1     		bne	.L246
 3803              		.loc 1 1353 0
 3804 1582 0023     		movs	r3, #0
 3805 1584 1CE0     		b	.L249
 3806              	.L246:
 3807              		.loc 1 1355 0
 3808 1586 9DF80F30 		ldrb	r3, [sp, #15]	@ zero_extendqisi2
 3809 158a 23F00603 		bic	r3, r3, #6
 3810 158e DBB2     		uxtb	r3, r3
 3811 1590 8DF80F30 		strb	r3, [sp, #15]
 3812              		.loc 1 1356 0
 3813 1594 9DF80F20 		ldrb	r2, [sp, #15]	@ zero_extendqisi2
 3814 1598 9DF80330 		ldrb	r3, [sp, #3]
 3815 159c 1343     		orrs	r3, r3, r2
ARM GAS  /tmp/cc1ELVNa.s 			page 69


 3816 159e DBB2     		uxtb	r3, r3
 3817 15a0 8DF80F30 		strb	r3, [sp, #15]
 3818              		.loc 1 1358 0
 3819 15a4 0DF10F03 		add	r3, sp, #15
 3820 15a8 0198     		ldr	r0, [sp, #4]
 3821 15aa 2321     		movs	r1, #35
 3822 15ac 1A46     		mov	r2, r3
 3823 15ae 0123     		movs	r3, #1
 3824 15b0 FFF7FEFF 		bl	LSM303AGR_ACC_WriteReg
 3825 15b4 0346     		mov	r3, r0
 3826 15b6 002B     		cmp	r3, #0
 3827 15b8 01D1     		bne	.L248
 3828              		.loc 1 1359 0
 3829 15ba 0023     		movs	r3, #0
 3830 15bc 00E0     		b	.L249
 3831              	.L248:
 3832              		.loc 1 1361 0
 3833 15be 0123     		movs	r3, #1
 3834              	.L249:
 3835              		.loc 1 1362 0
 3836 15c0 1846     		mov	r0, r3
 3837 15c2 05B0     		add	sp, sp, #20
 3838              		@ sp needed
 3839 15c4 5DF804FB 		ldr	pc, [sp], #4
 3840              		.cfi_endproc
 3841              	.LFE328:
 3842              		.size	LSM303AGR_ACC_W_SelfTest, .-LSM303AGR_ACC_W_SelfTest
 3843              		.align	2
 3844 15c8 AFF30080 		.p2align 4,,15
 3844      AFF30080 
 3845              		.global	LSM303AGR_ACC_R_SelfTest
 3846              		.thumb
 3847              		.thumb_func
 3848              		.type	LSM303AGR_ACC_R_SelfTest, %function
 3849              	LSM303AGR_ACC_R_SelfTest:
 3850              	.LFB329:
 3851              		.loc 1 1372 0
 3852              		.cfi_startproc
 3853              		@ args = 0, pretend = 0, frame = 8
 3854              		@ frame_needed = 0, uses_anonymous_args = 0
 3855 15d0 00B5     		push	{lr}
 3856              		.cfi_def_cfa_offset 4
 3857              		.cfi_offset 14, -4
 3858 15d2 83B0     		sub	sp, sp, #12
 3859              		.cfi_def_cfa_offset 16
 3860 15d4 0190     		str	r0, [sp, #4]
 3861 15d6 0091     		str	r1, [sp]
 3862              		.loc 1 1373 0
 3863 15d8 0198     		ldr	r0, [sp, #4]
 3864 15da 2321     		movs	r1, #35
 3865 15dc 009A     		ldr	r2, [sp]
 3866 15de 0123     		movs	r3, #1
 3867 15e0 FFF7FEFF 		bl	LSM303AGR_ACC_ReadReg
 3868 15e4 0346     		mov	r3, r0
 3869 15e6 002B     		cmp	r3, #0
 3870 15e8 01D1     		bne	.L251
 3871              		.loc 1 1374 0
ARM GAS  /tmp/cc1ELVNa.s 			page 70


 3872 15ea 0023     		movs	r3, #0
 3873 15ec 07E0     		b	.L252
 3874              	.L251:
 3875              		.loc 1 1376 0
 3876 15ee 009B     		ldr	r3, [sp]
 3877 15f0 1B78     		ldrb	r3, [r3]	@ zero_extendqisi2
 3878 15f2 03F00603 		and	r3, r3, #6
 3879 15f6 DAB2     		uxtb	r2, r3
 3880 15f8 009B     		ldr	r3, [sp]
 3881 15fa 1A70     		strb	r2, [r3]
 3882              		.loc 1 1378 0
 3883 15fc 0123     		movs	r3, #1
 3884              	.L252:
 3885              		.loc 1 1379 0
 3886 15fe 1846     		mov	r0, r3
 3887 1600 03B0     		add	sp, sp, #12
 3888              		@ sp needed
 3889 1602 5DF804FB 		ldr	pc, [sp], #4
 3890              		.cfi_endproc
 3891              	.LFE329:
 3892              		.size	LSM303AGR_ACC_R_SelfTest, .-LSM303AGR_ACC_R_SelfTest
 3893 1606 00BF     		.align	2
 3894 1608 AFF30080 		.p2align 4,,15
 3894      AFF30080 
 3895              		.global	LSM303AGR_ACC_W_HiRes
 3896              		.thumb
 3897              		.thumb_func
 3898              		.type	LSM303AGR_ACC_W_HiRes, %function
 3899              	LSM303AGR_ACC_W_HiRes:
 3900              	.LFB330:
 3901              		.loc 1 1389 0
 3902              		.cfi_startproc
 3903              		@ args = 0, pretend = 0, frame = 16
 3904              		@ frame_needed = 0, uses_anonymous_args = 0
 3905 1610 00B5     		push	{lr}
 3906              		.cfi_def_cfa_offset 4
 3907              		.cfi_offset 14, -4
 3908 1612 85B0     		sub	sp, sp, #20
 3909              		.cfi_def_cfa_offset 24
 3910 1614 0190     		str	r0, [sp, #4]
 3911 1616 0B46     		mov	r3, r1
 3912 1618 8DF80330 		strb	r3, [sp, #3]
 3913              		.loc 1 1392 0
 3914 161c 0DF10F03 		add	r3, sp, #15
 3915 1620 0198     		ldr	r0, [sp, #4]
 3916 1622 2321     		movs	r1, #35
 3917 1624 1A46     		mov	r2, r3
 3918 1626 0123     		movs	r3, #1
 3919 1628 FFF7FEFF 		bl	LSM303AGR_ACC_ReadReg
 3920 162c 0346     		mov	r3, r0
 3921 162e 002B     		cmp	r3, #0
 3922 1630 01D1     		bne	.L254
 3923              		.loc 1 1393 0
 3924 1632 0023     		movs	r3, #0
 3925 1634 1CE0     		b	.L257
 3926              	.L254:
 3927              		.loc 1 1395 0
ARM GAS  /tmp/cc1ELVNa.s 			page 71


 3928 1636 9DF80F30 		ldrb	r3, [sp, #15]	@ zero_extendqisi2
 3929 163a 23F00803 		bic	r3, r3, #8
 3930 163e DBB2     		uxtb	r3, r3
 3931 1640 8DF80F30 		strb	r3, [sp, #15]
 3932              		.loc 1 1396 0
 3933 1644 9DF80F20 		ldrb	r2, [sp, #15]	@ zero_extendqisi2
 3934 1648 9DF80330 		ldrb	r3, [sp, #3]
 3935 164c 1343     		orrs	r3, r3, r2
 3936 164e DBB2     		uxtb	r3, r3
 3937 1650 8DF80F30 		strb	r3, [sp, #15]
 3938              		.loc 1 1398 0
 3939 1654 0DF10F03 		add	r3, sp, #15
 3940 1658 0198     		ldr	r0, [sp, #4]
 3941 165a 2321     		movs	r1, #35
 3942 165c 1A46     		mov	r2, r3
 3943 165e 0123     		movs	r3, #1
 3944 1660 FFF7FEFF 		bl	LSM303AGR_ACC_WriteReg
 3945 1664 0346     		mov	r3, r0
 3946 1666 002B     		cmp	r3, #0
 3947 1668 01D1     		bne	.L256
 3948              		.loc 1 1399 0
 3949 166a 0023     		movs	r3, #0
 3950 166c 00E0     		b	.L257
 3951              	.L256:
 3952              		.loc 1 1401 0
 3953 166e 0123     		movs	r3, #1
 3954              	.L257:
 3955              		.loc 1 1402 0
 3956 1670 1846     		mov	r0, r3
 3957 1672 05B0     		add	sp, sp, #20
 3958              		@ sp needed
 3959 1674 5DF804FB 		ldr	pc, [sp], #4
 3960              		.cfi_endproc
 3961              	.LFE330:
 3962              		.size	LSM303AGR_ACC_W_HiRes, .-LSM303AGR_ACC_W_HiRes
 3963              		.align	2
 3964 1678 AFF30080 		.p2align 4,,15
 3964      AFF30080 
 3965              		.global	LSM303AGR_ACC_R_HiRes
 3966              		.thumb
 3967              		.thumb_func
 3968              		.type	LSM303AGR_ACC_R_HiRes, %function
 3969              	LSM303AGR_ACC_R_HiRes:
 3970              	.LFB331:
 3971              		.loc 1 1412 0
 3972              		.cfi_startproc
 3973              		@ args = 0, pretend = 0, frame = 8
 3974              		@ frame_needed = 0, uses_anonymous_args = 0
 3975 1680 00B5     		push	{lr}
 3976              		.cfi_def_cfa_offset 4
 3977              		.cfi_offset 14, -4
 3978 1682 83B0     		sub	sp, sp, #12
 3979              		.cfi_def_cfa_offset 16
 3980 1684 0190     		str	r0, [sp, #4]
 3981 1686 0091     		str	r1, [sp]
 3982              		.loc 1 1413 0
 3983 1688 0198     		ldr	r0, [sp, #4]
ARM GAS  /tmp/cc1ELVNa.s 			page 72


 3984 168a 2321     		movs	r1, #35
 3985 168c 009A     		ldr	r2, [sp]
 3986 168e 0123     		movs	r3, #1
 3987 1690 FFF7FEFF 		bl	LSM303AGR_ACC_ReadReg
 3988 1694 0346     		mov	r3, r0
 3989 1696 002B     		cmp	r3, #0
 3990 1698 01D1     		bne	.L259
 3991              		.loc 1 1414 0
 3992 169a 0023     		movs	r3, #0
 3993 169c 07E0     		b	.L260
 3994              	.L259:
 3995              		.loc 1 1416 0
 3996 169e 009B     		ldr	r3, [sp]
 3997 16a0 1B78     		ldrb	r3, [r3]	@ zero_extendqisi2
 3998 16a2 03F00803 		and	r3, r3, #8
 3999 16a6 DAB2     		uxtb	r2, r3
 4000 16a8 009B     		ldr	r3, [sp]
 4001 16aa 1A70     		strb	r2, [r3]
 4002              		.loc 1 1418 0
 4003 16ac 0123     		movs	r3, #1
 4004              	.L260:
 4005              		.loc 1 1419 0
 4006 16ae 1846     		mov	r0, r3
 4007 16b0 03B0     		add	sp, sp, #12
 4008              		@ sp needed
 4009 16b2 5DF804FB 		ldr	pc, [sp], #4
 4010              		.cfi_endproc
 4011              	.LFE331:
 4012              		.size	LSM303AGR_ACC_R_HiRes, .-LSM303AGR_ACC_R_HiRes
 4013 16b6 00BF     		.align	2
 4014 16b8 AFF30080 		.p2align 4,,15
 4014      AFF30080 
 4015              		.global	LSM303AGR_ACC_W_LittleBigEndian
 4016              		.thumb
 4017              		.thumb_func
 4018              		.type	LSM303AGR_ACC_W_LittleBigEndian, %function
 4019              	LSM303AGR_ACC_W_LittleBigEndian:
 4020              	.LFB332:
 4021              		.loc 1 1429 0
 4022              		.cfi_startproc
 4023              		@ args = 0, pretend = 0, frame = 16
 4024              		@ frame_needed = 0, uses_anonymous_args = 0
 4025 16c0 00B5     		push	{lr}
 4026              		.cfi_def_cfa_offset 4
 4027              		.cfi_offset 14, -4
 4028 16c2 85B0     		sub	sp, sp, #20
 4029              		.cfi_def_cfa_offset 24
 4030 16c4 0190     		str	r0, [sp, #4]
 4031 16c6 0B46     		mov	r3, r1
 4032 16c8 8DF80330 		strb	r3, [sp, #3]
 4033              		.loc 1 1432 0
 4034 16cc 0DF10F03 		add	r3, sp, #15
 4035 16d0 0198     		ldr	r0, [sp, #4]
 4036 16d2 2321     		movs	r1, #35
 4037 16d4 1A46     		mov	r2, r3
 4038 16d6 0123     		movs	r3, #1
 4039 16d8 FFF7FEFF 		bl	LSM303AGR_ACC_ReadReg
ARM GAS  /tmp/cc1ELVNa.s 			page 73


 4040 16dc 0346     		mov	r3, r0
 4041 16de 002B     		cmp	r3, #0
 4042 16e0 01D1     		bne	.L262
 4043              		.loc 1 1433 0
 4044 16e2 0023     		movs	r3, #0
 4045 16e4 1CE0     		b	.L265
 4046              	.L262:
 4047              		.loc 1 1435 0
 4048 16e6 9DF80F30 		ldrb	r3, [sp, #15]	@ zero_extendqisi2
 4049 16ea 23F04003 		bic	r3, r3, #64
 4050 16ee DBB2     		uxtb	r3, r3
 4051 16f0 8DF80F30 		strb	r3, [sp, #15]
 4052              		.loc 1 1436 0
 4053 16f4 9DF80F20 		ldrb	r2, [sp, #15]	@ zero_extendqisi2
 4054 16f8 9DF80330 		ldrb	r3, [sp, #3]
 4055 16fc 1343     		orrs	r3, r3, r2
 4056 16fe DBB2     		uxtb	r3, r3
 4057 1700 8DF80F30 		strb	r3, [sp, #15]
 4058              		.loc 1 1438 0
 4059 1704 0DF10F03 		add	r3, sp, #15
 4060 1708 0198     		ldr	r0, [sp, #4]
 4061 170a 2321     		movs	r1, #35
 4062 170c 1A46     		mov	r2, r3
 4063 170e 0123     		movs	r3, #1
 4064 1710 FFF7FEFF 		bl	LSM303AGR_ACC_WriteReg
 4065 1714 0346     		mov	r3, r0
 4066 1716 002B     		cmp	r3, #0
 4067 1718 01D1     		bne	.L264
 4068              		.loc 1 1439 0
 4069 171a 0023     		movs	r3, #0
 4070 171c 00E0     		b	.L265
 4071              	.L264:
 4072              		.loc 1 1441 0
 4073 171e 0123     		movs	r3, #1
 4074              	.L265:
 4075              		.loc 1 1442 0
 4076 1720 1846     		mov	r0, r3
 4077 1722 05B0     		add	sp, sp, #20
 4078              		@ sp needed
 4079 1724 5DF804FB 		ldr	pc, [sp], #4
 4080              		.cfi_endproc
 4081              	.LFE332:
 4082              		.size	LSM303AGR_ACC_W_LittleBigEndian, .-LSM303AGR_ACC_W_LittleBigEndian
 4083              		.align	2
 4084 1728 AFF30080 		.p2align 4,,15
 4084      AFF30080 
 4085              		.global	LSM303AGR_ACC_R_LittleBigEndian
 4086              		.thumb
 4087              		.thumb_func
 4088              		.type	LSM303AGR_ACC_R_LittleBigEndian, %function
 4089              	LSM303AGR_ACC_R_LittleBigEndian:
 4090              	.LFB333:
 4091              		.loc 1 1452 0
 4092              		.cfi_startproc
 4093              		@ args = 0, pretend = 0, frame = 8
 4094              		@ frame_needed = 0, uses_anonymous_args = 0
 4095 1730 00B5     		push	{lr}
ARM GAS  /tmp/cc1ELVNa.s 			page 74


 4096              		.cfi_def_cfa_offset 4
 4097              		.cfi_offset 14, -4
 4098 1732 83B0     		sub	sp, sp, #12
 4099              		.cfi_def_cfa_offset 16
 4100 1734 0190     		str	r0, [sp, #4]
 4101 1736 0091     		str	r1, [sp]
 4102              		.loc 1 1453 0
 4103 1738 0198     		ldr	r0, [sp, #4]
 4104 173a 2321     		movs	r1, #35
 4105 173c 009A     		ldr	r2, [sp]
 4106 173e 0123     		movs	r3, #1
 4107 1740 FFF7FEFF 		bl	LSM303AGR_ACC_ReadReg
 4108 1744 0346     		mov	r3, r0
 4109 1746 002B     		cmp	r3, #0
 4110 1748 01D1     		bne	.L267
 4111              		.loc 1 1454 0
 4112 174a 0023     		movs	r3, #0
 4113 174c 07E0     		b	.L268
 4114              	.L267:
 4115              		.loc 1 1456 0
 4116 174e 009B     		ldr	r3, [sp]
 4117 1750 1B78     		ldrb	r3, [r3]	@ zero_extendqisi2
 4118 1752 03F04003 		and	r3, r3, #64
 4119 1756 DAB2     		uxtb	r2, r3
 4120 1758 009B     		ldr	r3, [sp]
 4121 175a 1A70     		strb	r2, [r3]
 4122              		.loc 1 1458 0
 4123 175c 0123     		movs	r3, #1
 4124              	.L268:
 4125              		.loc 1 1459 0
 4126 175e 1846     		mov	r0, r3
 4127 1760 03B0     		add	sp, sp, #12
 4128              		@ sp needed
 4129 1762 5DF804FB 		ldr	pc, [sp], #4
 4130              		.cfi_endproc
 4131              	.LFE333:
 4132              		.size	LSM303AGR_ACC_R_LittleBigEndian, .-LSM303AGR_ACC_R_LittleBigEndian
 4133 1766 00BF     		.align	2
 4134 1768 AFF30080 		.p2align 4,,15
 4134      AFF30080 
 4135              		.global	LSM303AGR_ACC_W_4D_on_INT2
 4136              		.thumb
 4137              		.thumb_func
 4138              		.type	LSM303AGR_ACC_W_4D_on_INT2, %function
 4139              	LSM303AGR_ACC_W_4D_on_INT2:
 4140              	.LFB334:
 4141              		.loc 1 1469 0
 4142              		.cfi_startproc
 4143              		@ args = 0, pretend = 0, frame = 16
 4144              		@ frame_needed = 0, uses_anonymous_args = 0
 4145 1770 00B5     		push	{lr}
 4146              		.cfi_def_cfa_offset 4
 4147              		.cfi_offset 14, -4
 4148 1772 85B0     		sub	sp, sp, #20
 4149              		.cfi_def_cfa_offset 24
 4150 1774 0190     		str	r0, [sp, #4]
 4151 1776 0B46     		mov	r3, r1
ARM GAS  /tmp/cc1ELVNa.s 			page 75


 4152 1778 8DF80330 		strb	r3, [sp, #3]
 4153              		.loc 1 1472 0
 4154 177c 0DF10F03 		add	r3, sp, #15
 4155 1780 0198     		ldr	r0, [sp, #4]
 4156 1782 2421     		movs	r1, #36
 4157 1784 1A46     		mov	r2, r3
 4158 1786 0123     		movs	r3, #1
 4159 1788 FFF7FEFF 		bl	LSM303AGR_ACC_ReadReg
 4160 178c 0346     		mov	r3, r0
 4161 178e 002B     		cmp	r3, #0
 4162 1790 01D1     		bne	.L270
 4163              		.loc 1 1473 0
 4164 1792 0023     		movs	r3, #0
 4165 1794 1CE0     		b	.L273
 4166              	.L270:
 4167              		.loc 1 1475 0
 4168 1796 9DF80F30 		ldrb	r3, [sp, #15]	@ zero_extendqisi2
 4169 179a 23F00103 		bic	r3, r3, #1
 4170 179e DBB2     		uxtb	r3, r3
 4171 17a0 8DF80F30 		strb	r3, [sp, #15]
 4172              		.loc 1 1476 0
 4173 17a4 9DF80F20 		ldrb	r2, [sp, #15]	@ zero_extendqisi2
 4174 17a8 9DF80330 		ldrb	r3, [sp, #3]
 4175 17ac 1343     		orrs	r3, r3, r2
 4176 17ae DBB2     		uxtb	r3, r3
 4177 17b0 8DF80F30 		strb	r3, [sp, #15]
 4178              		.loc 1 1478 0
 4179 17b4 0DF10F03 		add	r3, sp, #15
 4180 17b8 0198     		ldr	r0, [sp, #4]
 4181 17ba 2421     		movs	r1, #36
 4182 17bc 1A46     		mov	r2, r3
 4183 17be 0123     		movs	r3, #1
 4184 17c0 FFF7FEFF 		bl	LSM303AGR_ACC_WriteReg
 4185 17c4 0346     		mov	r3, r0
 4186 17c6 002B     		cmp	r3, #0
 4187 17c8 01D1     		bne	.L272
 4188              		.loc 1 1479 0
 4189 17ca 0023     		movs	r3, #0
 4190 17cc 00E0     		b	.L273
 4191              	.L272:
 4192              		.loc 1 1481 0
 4193 17ce 0123     		movs	r3, #1
 4194              	.L273:
 4195              		.loc 1 1482 0
 4196 17d0 1846     		mov	r0, r3
 4197 17d2 05B0     		add	sp, sp, #20
 4198              		@ sp needed
 4199 17d4 5DF804FB 		ldr	pc, [sp], #4
 4200              		.cfi_endproc
 4201              	.LFE334:
 4202              		.size	LSM303AGR_ACC_W_4D_on_INT2, .-LSM303AGR_ACC_W_4D_on_INT2
 4203              		.align	2
 4204 17d8 AFF30080 		.p2align 4,,15
 4204      AFF30080 
 4205              		.global	LSM303AGR_ACC_R_4D_on_INT2
 4206              		.thumb
 4207              		.thumb_func
ARM GAS  /tmp/cc1ELVNa.s 			page 76


 4208              		.type	LSM303AGR_ACC_R_4D_on_INT2, %function
 4209              	LSM303AGR_ACC_R_4D_on_INT2:
 4210              	.LFB335:
 4211              		.loc 1 1492 0
 4212              		.cfi_startproc
 4213              		@ args = 0, pretend = 0, frame = 8
 4214              		@ frame_needed = 0, uses_anonymous_args = 0
 4215 17e0 00B5     		push	{lr}
 4216              		.cfi_def_cfa_offset 4
 4217              		.cfi_offset 14, -4
 4218 17e2 83B0     		sub	sp, sp, #12
 4219              		.cfi_def_cfa_offset 16
 4220 17e4 0190     		str	r0, [sp, #4]
 4221 17e6 0091     		str	r1, [sp]
 4222              		.loc 1 1493 0
 4223 17e8 0198     		ldr	r0, [sp, #4]
 4224 17ea 2421     		movs	r1, #36
 4225 17ec 009A     		ldr	r2, [sp]
 4226 17ee 0123     		movs	r3, #1
 4227 17f0 FFF7FEFF 		bl	LSM303AGR_ACC_ReadReg
 4228 17f4 0346     		mov	r3, r0
 4229 17f6 002B     		cmp	r3, #0
 4230 17f8 01D1     		bne	.L275
 4231              		.loc 1 1494 0
 4232 17fa 0023     		movs	r3, #0
 4233 17fc 07E0     		b	.L276
 4234              	.L275:
 4235              		.loc 1 1496 0
 4236 17fe 009B     		ldr	r3, [sp]
 4237 1800 1B78     		ldrb	r3, [r3]	@ zero_extendqisi2
 4238 1802 03F00103 		and	r3, r3, #1
 4239 1806 DAB2     		uxtb	r2, r3
 4240 1808 009B     		ldr	r3, [sp]
 4241 180a 1A70     		strb	r2, [r3]
 4242              		.loc 1 1498 0
 4243 180c 0123     		movs	r3, #1
 4244              	.L276:
 4245              		.loc 1 1499 0
 4246 180e 1846     		mov	r0, r3
 4247 1810 03B0     		add	sp, sp, #12
 4248              		@ sp needed
 4249 1812 5DF804FB 		ldr	pc, [sp], #4
 4250              		.cfi_endproc
 4251              	.LFE335:
 4252              		.size	LSM303AGR_ACC_R_4D_on_INT2, .-LSM303AGR_ACC_R_4D_on_INT2
 4253 1816 00BF     		.align	2
 4254 1818 AFF30080 		.p2align 4,,15
 4254      AFF30080 
 4255              		.global	LSM303AGR_ACC_W_LatchInterrupt_on_INT2
 4256              		.thumb
 4257              		.thumb_func
 4258              		.type	LSM303AGR_ACC_W_LatchInterrupt_on_INT2, %function
 4259              	LSM303AGR_ACC_W_LatchInterrupt_on_INT2:
 4260              	.LFB336:
 4261              		.loc 1 1509 0
 4262              		.cfi_startproc
 4263              		@ args = 0, pretend = 0, frame = 16
ARM GAS  /tmp/cc1ELVNa.s 			page 77


 4264              		@ frame_needed = 0, uses_anonymous_args = 0
 4265 1820 00B5     		push	{lr}
 4266              		.cfi_def_cfa_offset 4
 4267              		.cfi_offset 14, -4
 4268 1822 85B0     		sub	sp, sp, #20
 4269              		.cfi_def_cfa_offset 24
 4270 1824 0190     		str	r0, [sp, #4]
 4271 1826 0B46     		mov	r3, r1
 4272 1828 8DF80330 		strb	r3, [sp, #3]
 4273              		.loc 1 1512 0
 4274 182c 0DF10F03 		add	r3, sp, #15
 4275 1830 0198     		ldr	r0, [sp, #4]
 4276 1832 2421     		movs	r1, #36
 4277 1834 1A46     		mov	r2, r3
 4278 1836 0123     		movs	r3, #1
 4279 1838 FFF7FEFF 		bl	LSM303AGR_ACC_ReadReg
 4280 183c 0346     		mov	r3, r0
 4281 183e 002B     		cmp	r3, #0
 4282 1840 01D1     		bne	.L278
 4283              		.loc 1 1513 0
 4284 1842 0023     		movs	r3, #0
 4285 1844 1CE0     		b	.L281
 4286              	.L278:
 4287              		.loc 1 1515 0
 4288 1846 9DF80F30 		ldrb	r3, [sp, #15]	@ zero_extendqisi2
 4289 184a 23F00203 		bic	r3, r3, #2
 4290 184e DBB2     		uxtb	r3, r3
 4291 1850 8DF80F30 		strb	r3, [sp, #15]
 4292              		.loc 1 1516 0
 4293 1854 9DF80F20 		ldrb	r2, [sp, #15]	@ zero_extendqisi2
 4294 1858 9DF80330 		ldrb	r3, [sp, #3]
 4295 185c 1343     		orrs	r3, r3, r2
 4296 185e DBB2     		uxtb	r3, r3
 4297 1860 8DF80F30 		strb	r3, [sp, #15]
 4298              		.loc 1 1518 0
 4299 1864 0DF10F03 		add	r3, sp, #15
 4300 1868 0198     		ldr	r0, [sp, #4]
 4301 186a 2421     		movs	r1, #36
 4302 186c 1A46     		mov	r2, r3
 4303 186e 0123     		movs	r3, #1
 4304 1870 FFF7FEFF 		bl	LSM303AGR_ACC_WriteReg
 4305 1874 0346     		mov	r3, r0
 4306 1876 002B     		cmp	r3, #0
 4307 1878 01D1     		bne	.L280
 4308              		.loc 1 1519 0
 4309 187a 0023     		movs	r3, #0
 4310 187c 00E0     		b	.L281
 4311              	.L280:
 4312              		.loc 1 1521 0
 4313 187e 0123     		movs	r3, #1
 4314              	.L281:
 4315              		.loc 1 1522 0
 4316 1880 1846     		mov	r0, r3
 4317 1882 05B0     		add	sp, sp, #20
 4318              		@ sp needed
 4319 1884 5DF804FB 		ldr	pc, [sp], #4
 4320              		.cfi_endproc
ARM GAS  /tmp/cc1ELVNa.s 			page 78


 4321              	.LFE336:
 4322              		.size	LSM303AGR_ACC_W_LatchInterrupt_on_INT2, .-LSM303AGR_ACC_W_LatchInterrupt_on_INT2
 4323              		.align	2
 4324 1888 AFF30080 		.p2align 4,,15
 4324      AFF30080 
 4325              		.global	LSM303AGR_ACC_R_LatchInterrupt_on_INT2
 4326              		.thumb
 4327              		.thumb_func
 4328              		.type	LSM303AGR_ACC_R_LatchInterrupt_on_INT2, %function
 4329              	LSM303AGR_ACC_R_LatchInterrupt_on_INT2:
 4330              	.LFB337:
 4331              		.loc 1 1532 0
 4332              		.cfi_startproc
 4333              		@ args = 0, pretend = 0, frame = 8
 4334              		@ frame_needed = 0, uses_anonymous_args = 0
 4335 1890 00B5     		push	{lr}
 4336              		.cfi_def_cfa_offset 4
 4337              		.cfi_offset 14, -4
 4338 1892 83B0     		sub	sp, sp, #12
 4339              		.cfi_def_cfa_offset 16
 4340 1894 0190     		str	r0, [sp, #4]
 4341 1896 0091     		str	r1, [sp]
 4342              		.loc 1 1533 0
 4343 1898 0198     		ldr	r0, [sp, #4]
 4344 189a 2421     		movs	r1, #36
 4345 189c 009A     		ldr	r2, [sp]
 4346 189e 0123     		movs	r3, #1
 4347 18a0 FFF7FEFF 		bl	LSM303AGR_ACC_ReadReg
 4348 18a4 0346     		mov	r3, r0
 4349 18a6 002B     		cmp	r3, #0
 4350 18a8 01D1     		bne	.L283
 4351              		.loc 1 1534 0
 4352 18aa 0023     		movs	r3, #0
 4353 18ac 07E0     		b	.L284
 4354              	.L283:
 4355              		.loc 1 1536 0
 4356 18ae 009B     		ldr	r3, [sp]
 4357 18b0 1B78     		ldrb	r3, [r3]	@ zero_extendqisi2
 4358 18b2 03F00203 		and	r3, r3, #2
 4359 18b6 DAB2     		uxtb	r2, r3
 4360 18b8 009B     		ldr	r3, [sp]
 4361 18ba 1A70     		strb	r2, [r3]
 4362              		.loc 1 1538 0
 4363 18bc 0123     		movs	r3, #1
 4364              	.L284:
 4365              		.loc 1 1539 0
 4366 18be 1846     		mov	r0, r3
 4367 18c0 03B0     		add	sp, sp, #12
 4368              		@ sp needed
 4369 18c2 5DF804FB 		ldr	pc, [sp], #4
 4370              		.cfi_endproc
 4371              	.LFE337:
 4372              		.size	LSM303AGR_ACC_R_LatchInterrupt_on_INT2, .-LSM303AGR_ACC_R_LatchInterrupt_on_INT2
 4373 18c6 00BF     		.align	2
 4374 18c8 AFF30080 		.p2align 4,,15
 4374      AFF30080 
 4375              		.global	LSM303AGR_ACC_W_4D_on_INT1
ARM GAS  /tmp/cc1ELVNa.s 			page 79


 4376              		.thumb
 4377              		.thumb_func
 4378              		.type	LSM303AGR_ACC_W_4D_on_INT1, %function
 4379              	LSM303AGR_ACC_W_4D_on_INT1:
 4380              	.LFB338:
 4381              		.loc 1 1549 0
 4382              		.cfi_startproc
 4383              		@ args = 0, pretend = 0, frame = 16
 4384              		@ frame_needed = 0, uses_anonymous_args = 0
 4385 18d0 00B5     		push	{lr}
 4386              		.cfi_def_cfa_offset 4
 4387              		.cfi_offset 14, -4
 4388 18d2 85B0     		sub	sp, sp, #20
 4389              		.cfi_def_cfa_offset 24
 4390 18d4 0190     		str	r0, [sp, #4]
 4391 18d6 0B46     		mov	r3, r1
 4392 18d8 8DF80330 		strb	r3, [sp, #3]
 4393              		.loc 1 1552 0
 4394 18dc 0DF10F03 		add	r3, sp, #15
 4395 18e0 0198     		ldr	r0, [sp, #4]
 4396 18e2 2421     		movs	r1, #36
 4397 18e4 1A46     		mov	r2, r3
 4398 18e6 0123     		movs	r3, #1
 4399 18e8 FFF7FEFF 		bl	LSM303AGR_ACC_ReadReg
 4400 18ec 0346     		mov	r3, r0
 4401 18ee 002B     		cmp	r3, #0
 4402 18f0 01D1     		bne	.L286
 4403              		.loc 1 1553 0
 4404 18f2 0023     		movs	r3, #0
 4405 18f4 1CE0     		b	.L289
 4406              	.L286:
 4407              		.loc 1 1555 0
 4408 18f6 9DF80F30 		ldrb	r3, [sp, #15]	@ zero_extendqisi2
 4409 18fa 23F00403 		bic	r3, r3, #4
 4410 18fe DBB2     		uxtb	r3, r3
 4411 1900 8DF80F30 		strb	r3, [sp, #15]
 4412              		.loc 1 1556 0
 4413 1904 9DF80F20 		ldrb	r2, [sp, #15]	@ zero_extendqisi2
 4414 1908 9DF80330 		ldrb	r3, [sp, #3]
 4415 190c 1343     		orrs	r3, r3, r2
 4416 190e DBB2     		uxtb	r3, r3
 4417 1910 8DF80F30 		strb	r3, [sp, #15]
 4418              		.loc 1 1558 0
 4419 1914 0DF10F03 		add	r3, sp, #15
 4420 1918 0198     		ldr	r0, [sp, #4]
 4421 191a 2421     		movs	r1, #36
 4422 191c 1A46     		mov	r2, r3
 4423 191e 0123     		movs	r3, #1
 4424 1920 FFF7FEFF 		bl	LSM303AGR_ACC_WriteReg
 4425 1924 0346     		mov	r3, r0
 4426 1926 002B     		cmp	r3, #0
 4427 1928 01D1     		bne	.L288
 4428              		.loc 1 1559 0
 4429 192a 0023     		movs	r3, #0
 4430 192c 00E0     		b	.L289
 4431              	.L288:
 4432              		.loc 1 1561 0
ARM GAS  /tmp/cc1ELVNa.s 			page 80


 4433 192e 0123     		movs	r3, #1
 4434              	.L289:
 4435              		.loc 1 1562 0
 4436 1930 1846     		mov	r0, r3
 4437 1932 05B0     		add	sp, sp, #20
 4438              		@ sp needed
 4439 1934 5DF804FB 		ldr	pc, [sp], #4
 4440              		.cfi_endproc
 4441              	.LFE338:
 4442              		.size	LSM303AGR_ACC_W_4D_on_INT1, .-LSM303AGR_ACC_W_4D_on_INT1
 4443              		.align	2
 4444 1938 AFF30080 		.p2align 4,,15
 4444      AFF30080 
 4445              		.global	LSM303AGR_ACC_R_4D_on_INT1
 4446              		.thumb
 4447              		.thumb_func
 4448              		.type	LSM303AGR_ACC_R_4D_on_INT1, %function
 4449              	LSM303AGR_ACC_R_4D_on_INT1:
 4450              	.LFB339:
 4451              		.loc 1 1572 0
 4452              		.cfi_startproc
 4453              		@ args = 0, pretend = 0, frame = 8
 4454              		@ frame_needed = 0, uses_anonymous_args = 0
 4455 1940 00B5     		push	{lr}
 4456              		.cfi_def_cfa_offset 4
 4457              		.cfi_offset 14, -4
 4458 1942 83B0     		sub	sp, sp, #12
 4459              		.cfi_def_cfa_offset 16
 4460 1944 0190     		str	r0, [sp, #4]
 4461 1946 0091     		str	r1, [sp]
 4462              		.loc 1 1573 0
 4463 1948 0198     		ldr	r0, [sp, #4]
 4464 194a 2421     		movs	r1, #36
 4465 194c 009A     		ldr	r2, [sp]
 4466 194e 0123     		movs	r3, #1
 4467 1950 FFF7FEFF 		bl	LSM303AGR_ACC_ReadReg
 4468 1954 0346     		mov	r3, r0
 4469 1956 002B     		cmp	r3, #0
 4470 1958 01D1     		bne	.L291
 4471              		.loc 1 1574 0
 4472 195a 0023     		movs	r3, #0
 4473 195c 07E0     		b	.L292
 4474              	.L291:
 4475              		.loc 1 1576 0
 4476 195e 009B     		ldr	r3, [sp]
 4477 1960 1B78     		ldrb	r3, [r3]	@ zero_extendqisi2
 4478 1962 03F00403 		and	r3, r3, #4
 4479 1966 DAB2     		uxtb	r2, r3
 4480 1968 009B     		ldr	r3, [sp]
 4481 196a 1A70     		strb	r2, [r3]
 4482              		.loc 1 1578 0
 4483 196c 0123     		movs	r3, #1
 4484              	.L292:
 4485              		.loc 1 1579 0
 4486 196e 1846     		mov	r0, r3
 4487 1970 03B0     		add	sp, sp, #12
 4488              		@ sp needed
ARM GAS  /tmp/cc1ELVNa.s 			page 81


 4489 1972 5DF804FB 		ldr	pc, [sp], #4
 4490              		.cfi_endproc
 4491              	.LFE339:
 4492              		.size	LSM303AGR_ACC_R_4D_on_INT1, .-LSM303AGR_ACC_R_4D_on_INT1
 4493 1976 00BF     		.align	2
 4494 1978 AFF30080 		.p2align 4,,15
 4494      AFF30080 
 4495              		.global	LSM303AGR_ACC_W_LatchInterrupt_on_INT1
 4496              		.thumb
 4497              		.thumb_func
 4498              		.type	LSM303AGR_ACC_W_LatchInterrupt_on_INT1, %function
 4499              	LSM303AGR_ACC_W_LatchInterrupt_on_INT1:
 4500              	.LFB340:
 4501              		.loc 1 1589 0
 4502              		.cfi_startproc
 4503              		@ args = 0, pretend = 0, frame = 16
 4504              		@ frame_needed = 0, uses_anonymous_args = 0
 4505 1980 00B5     		push	{lr}
 4506              		.cfi_def_cfa_offset 4
 4507              		.cfi_offset 14, -4
 4508 1982 85B0     		sub	sp, sp, #20
 4509              		.cfi_def_cfa_offset 24
 4510 1984 0190     		str	r0, [sp, #4]
 4511 1986 0B46     		mov	r3, r1
 4512 1988 8DF80330 		strb	r3, [sp, #3]
 4513              		.loc 1 1592 0
 4514 198c 0DF10F03 		add	r3, sp, #15
 4515 1990 0198     		ldr	r0, [sp, #4]
 4516 1992 2421     		movs	r1, #36
 4517 1994 1A46     		mov	r2, r3
 4518 1996 0123     		movs	r3, #1
 4519 1998 FFF7FEFF 		bl	LSM303AGR_ACC_ReadReg
 4520 199c 0346     		mov	r3, r0
 4521 199e 002B     		cmp	r3, #0
 4522 19a0 01D1     		bne	.L294
 4523              		.loc 1 1593 0
 4524 19a2 0023     		movs	r3, #0
 4525 19a4 1CE0     		b	.L297
 4526              	.L294:
 4527              		.loc 1 1595 0
 4528 19a6 9DF80F30 		ldrb	r3, [sp, #15]	@ zero_extendqisi2
 4529 19aa 23F00803 		bic	r3, r3, #8
 4530 19ae DBB2     		uxtb	r3, r3
 4531 19b0 8DF80F30 		strb	r3, [sp, #15]
 4532              		.loc 1 1596 0
 4533 19b4 9DF80F20 		ldrb	r2, [sp, #15]	@ zero_extendqisi2
 4534 19b8 9DF80330 		ldrb	r3, [sp, #3]
 4535 19bc 1343     		orrs	r3, r3, r2
 4536 19be DBB2     		uxtb	r3, r3
 4537 19c0 8DF80F30 		strb	r3, [sp, #15]
 4538              		.loc 1 1598 0
 4539 19c4 0DF10F03 		add	r3, sp, #15
 4540 19c8 0198     		ldr	r0, [sp, #4]
 4541 19ca 2421     		movs	r1, #36
 4542 19cc 1A46     		mov	r2, r3
 4543 19ce 0123     		movs	r3, #1
 4544 19d0 FFF7FEFF 		bl	LSM303AGR_ACC_WriteReg
ARM GAS  /tmp/cc1ELVNa.s 			page 82


 4545 19d4 0346     		mov	r3, r0
 4546 19d6 002B     		cmp	r3, #0
 4547 19d8 01D1     		bne	.L296
 4548              		.loc 1 1599 0
 4549 19da 0023     		movs	r3, #0
 4550 19dc 00E0     		b	.L297
 4551              	.L296:
 4552              		.loc 1 1601 0
 4553 19de 0123     		movs	r3, #1
 4554              	.L297:
 4555              		.loc 1 1602 0
 4556 19e0 1846     		mov	r0, r3
 4557 19e2 05B0     		add	sp, sp, #20
 4558              		@ sp needed
 4559 19e4 5DF804FB 		ldr	pc, [sp], #4
 4560              		.cfi_endproc
 4561              	.LFE340:
 4562              		.size	LSM303AGR_ACC_W_LatchInterrupt_on_INT1, .-LSM303AGR_ACC_W_LatchInterrupt_on_INT1
 4563              		.align	2
 4564 19e8 AFF30080 		.p2align 4,,15
 4564      AFF30080 
 4565              		.global	LSM303AGR_ACC_R_LatchInterrupt_on_INT1
 4566              		.thumb
 4567              		.thumb_func
 4568              		.type	LSM303AGR_ACC_R_LatchInterrupt_on_INT1, %function
 4569              	LSM303AGR_ACC_R_LatchInterrupt_on_INT1:
 4570              	.LFB341:
 4571              		.loc 1 1612 0
 4572              		.cfi_startproc
 4573              		@ args = 0, pretend = 0, frame = 8
 4574              		@ frame_needed = 0, uses_anonymous_args = 0
 4575 19f0 00B5     		push	{lr}
 4576              		.cfi_def_cfa_offset 4
 4577              		.cfi_offset 14, -4
 4578 19f2 83B0     		sub	sp, sp, #12
 4579              		.cfi_def_cfa_offset 16
 4580 19f4 0190     		str	r0, [sp, #4]
 4581 19f6 0091     		str	r1, [sp]
 4582              		.loc 1 1613 0
 4583 19f8 0198     		ldr	r0, [sp, #4]
 4584 19fa 2421     		movs	r1, #36
 4585 19fc 009A     		ldr	r2, [sp]
 4586 19fe 0123     		movs	r3, #1
 4587 1a00 FFF7FEFF 		bl	LSM303AGR_ACC_ReadReg
 4588 1a04 0346     		mov	r3, r0
 4589 1a06 002B     		cmp	r3, #0
 4590 1a08 01D1     		bne	.L299
 4591              		.loc 1 1614 0
 4592 1a0a 0023     		movs	r3, #0
 4593 1a0c 07E0     		b	.L300
 4594              	.L299:
 4595              		.loc 1 1616 0
 4596 1a0e 009B     		ldr	r3, [sp]
 4597 1a10 1B78     		ldrb	r3, [r3]	@ zero_extendqisi2
 4598 1a12 03F00803 		and	r3, r3, #8
 4599 1a16 DAB2     		uxtb	r2, r3
 4600 1a18 009B     		ldr	r3, [sp]
ARM GAS  /tmp/cc1ELVNa.s 			page 83


 4601 1a1a 1A70     		strb	r2, [r3]
 4602              		.loc 1 1618 0
 4603 1a1c 0123     		movs	r3, #1
 4604              	.L300:
 4605              		.loc 1 1619 0
 4606 1a1e 1846     		mov	r0, r3
 4607 1a20 03B0     		add	sp, sp, #12
 4608              		@ sp needed
 4609 1a22 5DF804FB 		ldr	pc, [sp], #4
 4610              		.cfi_endproc
 4611              	.LFE341:
 4612              		.size	LSM303AGR_ACC_R_LatchInterrupt_on_INT1, .-LSM303AGR_ACC_R_LatchInterrupt_on_INT1
 4613 1a26 00BF     		.align	2
 4614 1a28 AFF30080 		.p2align 4,,15
 4614      AFF30080 
 4615              		.global	LSM303AGR_ACC_W_FIFO_EN
 4616              		.thumb
 4617              		.thumb_func
 4618              		.type	LSM303AGR_ACC_W_FIFO_EN, %function
 4619              	LSM303AGR_ACC_W_FIFO_EN:
 4620              	.LFB342:
 4621              		.loc 1 1629 0
 4622              		.cfi_startproc
 4623              		@ args = 0, pretend = 0, frame = 16
 4624              		@ frame_needed = 0, uses_anonymous_args = 0
 4625 1a30 00B5     		push	{lr}
 4626              		.cfi_def_cfa_offset 4
 4627              		.cfi_offset 14, -4
 4628 1a32 85B0     		sub	sp, sp, #20
 4629              		.cfi_def_cfa_offset 24
 4630 1a34 0190     		str	r0, [sp, #4]
 4631 1a36 0B46     		mov	r3, r1
 4632 1a38 8DF80330 		strb	r3, [sp, #3]
 4633              		.loc 1 1632 0
 4634 1a3c 0DF10F03 		add	r3, sp, #15
 4635 1a40 0198     		ldr	r0, [sp, #4]
 4636 1a42 2421     		movs	r1, #36
 4637 1a44 1A46     		mov	r2, r3
 4638 1a46 0123     		movs	r3, #1
 4639 1a48 FFF7FEFF 		bl	LSM303AGR_ACC_ReadReg
 4640 1a4c 0346     		mov	r3, r0
 4641 1a4e 002B     		cmp	r3, #0
 4642 1a50 01D1     		bne	.L302
 4643              		.loc 1 1633 0
 4644 1a52 0023     		movs	r3, #0
 4645 1a54 1CE0     		b	.L305
 4646              	.L302:
 4647              		.loc 1 1635 0
 4648 1a56 9DF80F30 		ldrb	r3, [sp, #15]	@ zero_extendqisi2
 4649 1a5a 23F04003 		bic	r3, r3, #64
 4650 1a5e DBB2     		uxtb	r3, r3
 4651 1a60 8DF80F30 		strb	r3, [sp, #15]
 4652              		.loc 1 1636 0
 4653 1a64 9DF80F20 		ldrb	r2, [sp, #15]	@ zero_extendqisi2
 4654 1a68 9DF80330 		ldrb	r3, [sp, #3]
 4655 1a6c 1343     		orrs	r3, r3, r2
 4656 1a6e DBB2     		uxtb	r3, r3
ARM GAS  /tmp/cc1ELVNa.s 			page 84


 4657 1a70 8DF80F30 		strb	r3, [sp, #15]
 4658              		.loc 1 1638 0
 4659 1a74 0DF10F03 		add	r3, sp, #15
 4660 1a78 0198     		ldr	r0, [sp, #4]
 4661 1a7a 2421     		movs	r1, #36
 4662 1a7c 1A46     		mov	r2, r3
 4663 1a7e 0123     		movs	r3, #1
 4664 1a80 FFF7FEFF 		bl	LSM303AGR_ACC_WriteReg
 4665 1a84 0346     		mov	r3, r0
 4666 1a86 002B     		cmp	r3, #0
 4667 1a88 01D1     		bne	.L304
 4668              		.loc 1 1639 0
 4669 1a8a 0023     		movs	r3, #0
 4670 1a8c 00E0     		b	.L305
 4671              	.L304:
 4672              		.loc 1 1641 0
 4673 1a8e 0123     		movs	r3, #1
 4674              	.L305:
 4675              		.loc 1 1642 0
 4676 1a90 1846     		mov	r0, r3
 4677 1a92 05B0     		add	sp, sp, #20
 4678              		@ sp needed
 4679 1a94 5DF804FB 		ldr	pc, [sp], #4
 4680              		.cfi_endproc
 4681              	.LFE342:
 4682              		.size	LSM303AGR_ACC_W_FIFO_EN, .-LSM303AGR_ACC_W_FIFO_EN
 4683              		.align	2
 4684 1a98 AFF30080 		.p2align 4,,15
 4684      AFF30080 
 4685              		.global	LSM303AGR_ACC_R_FIFO_EN
 4686              		.thumb
 4687              		.thumb_func
 4688              		.type	LSM303AGR_ACC_R_FIFO_EN, %function
 4689              	LSM303AGR_ACC_R_FIFO_EN:
 4690              	.LFB343:
 4691              		.loc 1 1652 0
 4692              		.cfi_startproc
 4693              		@ args = 0, pretend = 0, frame = 8
 4694              		@ frame_needed = 0, uses_anonymous_args = 0
 4695 1aa0 00B5     		push	{lr}
 4696              		.cfi_def_cfa_offset 4
 4697              		.cfi_offset 14, -4
 4698 1aa2 83B0     		sub	sp, sp, #12
 4699              		.cfi_def_cfa_offset 16
 4700 1aa4 0190     		str	r0, [sp, #4]
 4701 1aa6 0091     		str	r1, [sp]
 4702              		.loc 1 1653 0
 4703 1aa8 0198     		ldr	r0, [sp, #4]
 4704 1aaa 2421     		movs	r1, #36
 4705 1aac 009A     		ldr	r2, [sp]
 4706 1aae 0123     		movs	r3, #1
 4707 1ab0 FFF7FEFF 		bl	LSM303AGR_ACC_ReadReg
 4708 1ab4 0346     		mov	r3, r0
 4709 1ab6 002B     		cmp	r3, #0
 4710 1ab8 01D1     		bne	.L307
 4711              		.loc 1 1654 0
 4712 1aba 0023     		movs	r3, #0
ARM GAS  /tmp/cc1ELVNa.s 			page 85


 4713 1abc 07E0     		b	.L308
 4714              	.L307:
 4715              		.loc 1 1656 0
 4716 1abe 009B     		ldr	r3, [sp]
 4717 1ac0 1B78     		ldrb	r3, [r3]	@ zero_extendqisi2
 4718 1ac2 03F04003 		and	r3, r3, #64
 4719 1ac6 DAB2     		uxtb	r2, r3
 4720 1ac8 009B     		ldr	r3, [sp]
 4721 1aca 1A70     		strb	r2, [r3]
 4722              		.loc 1 1658 0
 4723 1acc 0123     		movs	r3, #1
 4724              	.L308:
 4725              		.loc 1 1659 0
 4726 1ace 1846     		mov	r0, r3
 4727 1ad0 03B0     		add	sp, sp, #12
 4728              		@ sp needed
 4729 1ad2 5DF804FB 		ldr	pc, [sp], #4
 4730              		.cfi_endproc
 4731              	.LFE343:
 4732              		.size	LSM303AGR_ACC_R_FIFO_EN, .-LSM303AGR_ACC_R_FIFO_EN
 4733 1ad6 00BF     		.align	2
 4734 1ad8 AFF30080 		.p2align 4,,15
 4734      AFF30080 
 4735              		.global	LSM303AGR_ACC_W_RebootMemory
 4736              		.thumb
 4737              		.thumb_func
 4738              		.type	LSM303AGR_ACC_W_RebootMemory, %function
 4739              	LSM303AGR_ACC_W_RebootMemory:
 4740              	.LFB344:
 4741              		.loc 1 1669 0
 4742              		.cfi_startproc
 4743              		@ args = 0, pretend = 0, frame = 16
 4744              		@ frame_needed = 0, uses_anonymous_args = 0
 4745 1ae0 00B5     		push	{lr}
 4746              		.cfi_def_cfa_offset 4
 4747              		.cfi_offset 14, -4
 4748 1ae2 85B0     		sub	sp, sp, #20
 4749              		.cfi_def_cfa_offset 24
 4750 1ae4 0190     		str	r0, [sp, #4]
 4751 1ae6 0B46     		mov	r3, r1
 4752 1ae8 8DF80330 		strb	r3, [sp, #3]
 4753              		.loc 1 1672 0
 4754 1aec 0DF10F03 		add	r3, sp, #15
 4755 1af0 0198     		ldr	r0, [sp, #4]
 4756 1af2 2421     		movs	r1, #36
 4757 1af4 1A46     		mov	r2, r3
 4758 1af6 0123     		movs	r3, #1
 4759 1af8 FFF7FEFF 		bl	LSM303AGR_ACC_ReadReg
 4760 1afc 0346     		mov	r3, r0
 4761 1afe 002B     		cmp	r3, #0
 4762 1b00 01D1     		bne	.L310
 4763              		.loc 1 1673 0
 4764 1b02 0023     		movs	r3, #0
 4765 1b04 1CE0     		b	.L313
 4766              	.L310:
 4767              		.loc 1 1675 0
 4768 1b06 9DF80F30 		ldrb	r3, [sp, #15]	@ zero_extendqisi2
ARM GAS  /tmp/cc1ELVNa.s 			page 86


 4769 1b0a 03F07F03 		and	r3, r3, #127
 4770 1b0e DBB2     		uxtb	r3, r3
 4771 1b10 8DF80F30 		strb	r3, [sp, #15]
 4772              		.loc 1 1676 0
 4773 1b14 9DF80F20 		ldrb	r2, [sp, #15]	@ zero_extendqisi2
 4774 1b18 9DF80330 		ldrb	r3, [sp, #3]
 4775 1b1c 1343     		orrs	r3, r3, r2
 4776 1b1e DBB2     		uxtb	r3, r3
 4777 1b20 8DF80F30 		strb	r3, [sp, #15]
 4778              		.loc 1 1678 0
 4779 1b24 0DF10F03 		add	r3, sp, #15
 4780 1b28 0198     		ldr	r0, [sp, #4]
 4781 1b2a 2421     		movs	r1, #36
 4782 1b2c 1A46     		mov	r2, r3
 4783 1b2e 0123     		movs	r3, #1
 4784 1b30 FFF7FEFF 		bl	LSM303AGR_ACC_WriteReg
 4785 1b34 0346     		mov	r3, r0
 4786 1b36 002B     		cmp	r3, #0
 4787 1b38 01D1     		bne	.L312
 4788              		.loc 1 1679 0
 4789 1b3a 0023     		movs	r3, #0
 4790 1b3c 00E0     		b	.L313
 4791              	.L312:
 4792              		.loc 1 1681 0
 4793 1b3e 0123     		movs	r3, #1
 4794              	.L313:
 4795              		.loc 1 1682 0
 4796 1b40 1846     		mov	r0, r3
 4797 1b42 05B0     		add	sp, sp, #20
 4798              		@ sp needed
 4799 1b44 5DF804FB 		ldr	pc, [sp], #4
 4800              		.cfi_endproc
 4801              	.LFE344:
 4802              		.size	LSM303AGR_ACC_W_RebootMemory, .-LSM303AGR_ACC_W_RebootMemory
 4803              		.align	2
 4804 1b48 AFF30080 		.p2align 4,,15
 4804      AFF30080 
 4805              		.global	LSM303AGR_ACC_R_RebootMemory
 4806              		.thumb
 4807              		.thumb_func
 4808              		.type	LSM303AGR_ACC_R_RebootMemory, %function
 4809              	LSM303AGR_ACC_R_RebootMemory:
 4810              	.LFB345:
 4811              		.loc 1 1692 0
 4812              		.cfi_startproc
 4813              		@ args = 0, pretend = 0, frame = 8
 4814              		@ frame_needed = 0, uses_anonymous_args = 0
 4815 1b50 00B5     		push	{lr}
 4816              		.cfi_def_cfa_offset 4
 4817              		.cfi_offset 14, -4
 4818 1b52 83B0     		sub	sp, sp, #12
 4819              		.cfi_def_cfa_offset 16
 4820 1b54 0190     		str	r0, [sp, #4]
 4821 1b56 0091     		str	r1, [sp]
 4822              		.loc 1 1693 0
 4823 1b58 0198     		ldr	r0, [sp, #4]
 4824 1b5a 2421     		movs	r1, #36
ARM GAS  /tmp/cc1ELVNa.s 			page 87


 4825 1b5c 009A     		ldr	r2, [sp]
 4826 1b5e 0123     		movs	r3, #1
 4827 1b60 FFF7FEFF 		bl	LSM303AGR_ACC_ReadReg
 4828 1b64 0346     		mov	r3, r0
 4829 1b66 002B     		cmp	r3, #0
 4830 1b68 01D1     		bne	.L315
 4831              		.loc 1 1694 0
 4832 1b6a 0023     		movs	r3, #0
 4833 1b6c 07E0     		b	.L316
 4834              	.L315:
 4835              		.loc 1 1696 0
 4836 1b6e 009B     		ldr	r3, [sp]
 4837 1b70 1B78     		ldrb	r3, [r3]	@ zero_extendqisi2
 4838 1b72 23F07F03 		bic	r3, r3, #127
 4839 1b76 DAB2     		uxtb	r2, r3
 4840 1b78 009B     		ldr	r3, [sp]
 4841 1b7a 1A70     		strb	r2, [r3]
 4842              		.loc 1 1698 0
 4843 1b7c 0123     		movs	r3, #1
 4844              	.L316:
 4845              		.loc 1 1699 0
 4846 1b7e 1846     		mov	r0, r3
 4847 1b80 03B0     		add	sp, sp, #12
 4848              		@ sp needed
 4849 1b82 5DF804FB 		ldr	pc, [sp], #4
 4850              		.cfi_endproc
 4851              	.LFE345:
 4852              		.size	LSM303AGR_ACC_R_RebootMemory, .-LSM303AGR_ACC_R_RebootMemory
 4853 1b86 00BF     		.align	2
 4854 1b88 AFF30080 		.p2align 4,,15
 4854      AFF30080 
 4855              		.global	LSM303AGR_ACC_W_IntActive
 4856              		.thumb
 4857              		.thumb_func
 4858              		.type	LSM303AGR_ACC_W_IntActive, %function
 4859              	LSM303AGR_ACC_W_IntActive:
 4860              	.LFB346:
 4861              		.loc 1 1709 0
 4862              		.cfi_startproc
 4863              		@ args = 0, pretend = 0, frame = 16
 4864              		@ frame_needed = 0, uses_anonymous_args = 0
 4865 1b90 00B5     		push	{lr}
 4866              		.cfi_def_cfa_offset 4
 4867              		.cfi_offset 14, -4
 4868 1b92 85B0     		sub	sp, sp, #20
 4869              		.cfi_def_cfa_offset 24
 4870 1b94 0190     		str	r0, [sp, #4]
 4871 1b96 0B46     		mov	r3, r1
 4872 1b98 8DF80330 		strb	r3, [sp, #3]
 4873              		.loc 1 1712 0
 4874 1b9c 0DF10F03 		add	r3, sp, #15
 4875 1ba0 0198     		ldr	r0, [sp, #4]
 4876 1ba2 2521     		movs	r1, #37
 4877 1ba4 1A46     		mov	r2, r3
 4878 1ba6 0123     		movs	r3, #1
 4879 1ba8 FFF7FEFF 		bl	LSM303AGR_ACC_ReadReg
 4880 1bac 0346     		mov	r3, r0
ARM GAS  /tmp/cc1ELVNa.s 			page 88


 4881 1bae 002B     		cmp	r3, #0
 4882 1bb0 01D1     		bne	.L318
 4883              		.loc 1 1713 0
 4884 1bb2 0023     		movs	r3, #0
 4885 1bb4 1CE0     		b	.L321
 4886              	.L318:
 4887              		.loc 1 1715 0
 4888 1bb6 9DF80F30 		ldrb	r3, [sp, #15]	@ zero_extendqisi2
 4889 1bba 23F00203 		bic	r3, r3, #2
 4890 1bbe DBB2     		uxtb	r3, r3
 4891 1bc0 8DF80F30 		strb	r3, [sp, #15]
 4892              		.loc 1 1716 0
 4893 1bc4 9DF80F20 		ldrb	r2, [sp, #15]	@ zero_extendqisi2
 4894 1bc8 9DF80330 		ldrb	r3, [sp, #3]
 4895 1bcc 1343     		orrs	r3, r3, r2
 4896 1bce DBB2     		uxtb	r3, r3
 4897 1bd0 8DF80F30 		strb	r3, [sp, #15]
 4898              		.loc 1 1718 0
 4899 1bd4 0DF10F03 		add	r3, sp, #15
 4900 1bd8 0198     		ldr	r0, [sp, #4]
 4901 1bda 2521     		movs	r1, #37
 4902 1bdc 1A46     		mov	r2, r3
 4903 1bde 0123     		movs	r3, #1
 4904 1be0 FFF7FEFF 		bl	LSM303AGR_ACC_WriteReg
 4905 1be4 0346     		mov	r3, r0
 4906 1be6 002B     		cmp	r3, #0
 4907 1be8 01D1     		bne	.L320
 4908              		.loc 1 1719 0
 4909 1bea 0023     		movs	r3, #0
 4910 1bec 00E0     		b	.L321
 4911              	.L320:
 4912              		.loc 1 1721 0
 4913 1bee 0123     		movs	r3, #1
 4914              	.L321:
 4915              		.loc 1 1722 0
 4916 1bf0 1846     		mov	r0, r3
 4917 1bf2 05B0     		add	sp, sp, #20
 4918              		@ sp needed
 4919 1bf4 5DF804FB 		ldr	pc, [sp], #4
 4920              		.cfi_endproc
 4921              	.LFE346:
 4922              		.size	LSM303AGR_ACC_W_IntActive, .-LSM303AGR_ACC_W_IntActive
 4923              		.align	2
 4924 1bf8 AFF30080 		.p2align 4,,15
 4924      AFF30080 
 4925              		.global	LSM303AGR_ACC_R_IntActive
 4926              		.thumb
 4927              		.thumb_func
 4928              		.type	LSM303AGR_ACC_R_IntActive, %function
 4929              	LSM303AGR_ACC_R_IntActive:
 4930              	.LFB347:
 4931              		.loc 1 1732 0
 4932              		.cfi_startproc
 4933              		@ args = 0, pretend = 0, frame = 8
 4934              		@ frame_needed = 0, uses_anonymous_args = 0
 4935 1c00 00B5     		push	{lr}
 4936              		.cfi_def_cfa_offset 4
ARM GAS  /tmp/cc1ELVNa.s 			page 89


 4937              		.cfi_offset 14, -4
 4938 1c02 83B0     		sub	sp, sp, #12
 4939              		.cfi_def_cfa_offset 16
 4940 1c04 0190     		str	r0, [sp, #4]
 4941 1c06 0091     		str	r1, [sp]
 4942              		.loc 1 1733 0
 4943 1c08 0198     		ldr	r0, [sp, #4]
 4944 1c0a 2521     		movs	r1, #37
 4945 1c0c 009A     		ldr	r2, [sp]
 4946 1c0e 0123     		movs	r3, #1
 4947 1c10 FFF7FEFF 		bl	LSM303AGR_ACC_ReadReg
 4948 1c14 0346     		mov	r3, r0
 4949 1c16 002B     		cmp	r3, #0
 4950 1c18 01D1     		bne	.L323
 4951              		.loc 1 1734 0
 4952 1c1a 0023     		movs	r3, #0
 4953 1c1c 07E0     		b	.L324
 4954              	.L323:
 4955              		.loc 1 1736 0
 4956 1c1e 009B     		ldr	r3, [sp]
 4957 1c20 1B78     		ldrb	r3, [r3]	@ zero_extendqisi2
 4958 1c22 03F00203 		and	r3, r3, #2
 4959 1c26 DAB2     		uxtb	r2, r3
 4960 1c28 009B     		ldr	r3, [sp]
 4961 1c2a 1A70     		strb	r2, [r3]
 4962              		.loc 1 1738 0
 4963 1c2c 0123     		movs	r3, #1
 4964              	.L324:
 4965              		.loc 1 1739 0
 4966 1c2e 1846     		mov	r0, r3
 4967 1c30 03B0     		add	sp, sp, #12
 4968              		@ sp needed
 4969 1c32 5DF804FB 		ldr	pc, [sp], #4
 4970              		.cfi_endproc
 4971              	.LFE347:
 4972              		.size	LSM303AGR_ACC_R_IntActive, .-LSM303AGR_ACC_R_IntActive
 4973 1c36 00BF     		.align	2
 4974 1c38 AFF30080 		.p2align 4,,15
 4974      AFF30080 
 4975              		.global	LSM303AGR_ACC_W_P2_ACT
 4976              		.thumb
 4977              		.thumb_func
 4978              		.type	LSM303AGR_ACC_W_P2_ACT, %function
 4979              	LSM303AGR_ACC_W_P2_ACT:
 4980              	.LFB348:
 4981              		.loc 1 1749 0
 4982              		.cfi_startproc
 4983              		@ args = 0, pretend = 0, frame = 16
 4984              		@ frame_needed = 0, uses_anonymous_args = 0
 4985 1c40 00B5     		push	{lr}
 4986              		.cfi_def_cfa_offset 4
 4987              		.cfi_offset 14, -4
 4988 1c42 85B0     		sub	sp, sp, #20
 4989              		.cfi_def_cfa_offset 24
 4990 1c44 0190     		str	r0, [sp, #4]
 4991 1c46 0B46     		mov	r3, r1
 4992 1c48 8DF80330 		strb	r3, [sp, #3]
ARM GAS  /tmp/cc1ELVNa.s 			page 90


 4993              		.loc 1 1752 0
 4994 1c4c 0DF10F03 		add	r3, sp, #15
 4995 1c50 0198     		ldr	r0, [sp, #4]
 4996 1c52 2521     		movs	r1, #37
 4997 1c54 1A46     		mov	r2, r3
 4998 1c56 0123     		movs	r3, #1
 4999 1c58 FFF7FEFF 		bl	LSM303AGR_ACC_ReadReg
 5000 1c5c 0346     		mov	r3, r0
 5001 1c5e 002B     		cmp	r3, #0
 5002 1c60 01D1     		bne	.L326
 5003              		.loc 1 1753 0
 5004 1c62 0023     		movs	r3, #0
 5005 1c64 1CE0     		b	.L329
 5006              	.L326:
 5007              		.loc 1 1755 0
 5008 1c66 9DF80F30 		ldrb	r3, [sp, #15]	@ zero_extendqisi2
 5009 1c6a 23F00803 		bic	r3, r3, #8
 5010 1c6e DBB2     		uxtb	r3, r3
 5011 1c70 8DF80F30 		strb	r3, [sp, #15]
 5012              		.loc 1 1756 0
 5013 1c74 9DF80F20 		ldrb	r2, [sp, #15]	@ zero_extendqisi2
 5014 1c78 9DF80330 		ldrb	r3, [sp, #3]
 5015 1c7c 1343     		orrs	r3, r3, r2
 5016 1c7e DBB2     		uxtb	r3, r3
 5017 1c80 8DF80F30 		strb	r3, [sp, #15]
 5018              		.loc 1 1758 0
 5019 1c84 0DF10F03 		add	r3, sp, #15
 5020 1c88 0198     		ldr	r0, [sp, #4]
 5021 1c8a 2521     		movs	r1, #37
 5022 1c8c 1A46     		mov	r2, r3
 5023 1c8e 0123     		movs	r3, #1
 5024 1c90 FFF7FEFF 		bl	LSM303AGR_ACC_WriteReg
 5025 1c94 0346     		mov	r3, r0
 5026 1c96 002B     		cmp	r3, #0
 5027 1c98 01D1     		bne	.L328
 5028              		.loc 1 1759 0
 5029 1c9a 0023     		movs	r3, #0
 5030 1c9c 00E0     		b	.L329
 5031              	.L328:
 5032              		.loc 1 1761 0
 5033 1c9e 0123     		movs	r3, #1
 5034              	.L329:
 5035              		.loc 1 1762 0
 5036 1ca0 1846     		mov	r0, r3
 5037 1ca2 05B0     		add	sp, sp, #20
 5038              		@ sp needed
 5039 1ca4 5DF804FB 		ldr	pc, [sp], #4
 5040              		.cfi_endproc
 5041              	.LFE348:
 5042              		.size	LSM303AGR_ACC_W_P2_ACT, .-LSM303AGR_ACC_W_P2_ACT
 5043              		.align	2
 5044 1ca8 AFF30080 		.p2align 4,,15
 5044      AFF30080 
 5045              		.global	LSM303AGR_ACC_R_P2_ACT
 5046              		.thumb
 5047              		.thumb_func
 5048              		.type	LSM303AGR_ACC_R_P2_ACT, %function
ARM GAS  /tmp/cc1ELVNa.s 			page 91


 5049              	LSM303AGR_ACC_R_P2_ACT:
 5050              	.LFB349:
 5051              		.loc 1 1772 0
 5052              		.cfi_startproc
 5053              		@ args = 0, pretend = 0, frame = 8
 5054              		@ frame_needed = 0, uses_anonymous_args = 0
 5055 1cb0 00B5     		push	{lr}
 5056              		.cfi_def_cfa_offset 4
 5057              		.cfi_offset 14, -4
 5058 1cb2 83B0     		sub	sp, sp, #12
 5059              		.cfi_def_cfa_offset 16
 5060 1cb4 0190     		str	r0, [sp, #4]
 5061 1cb6 0091     		str	r1, [sp]
 5062              		.loc 1 1773 0
 5063 1cb8 0198     		ldr	r0, [sp, #4]
 5064 1cba 2521     		movs	r1, #37
 5065 1cbc 009A     		ldr	r2, [sp]
 5066 1cbe 0123     		movs	r3, #1
 5067 1cc0 FFF7FEFF 		bl	LSM303AGR_ACC_ReadReg
 5068 1cc4 0346     		mov	r3, r0
 5069 1cc6 002B     		cmp	r3, #0
 5070 1cc8 01D1     		bne	.L331
 5071              		.loc 1 1774 0
 5072 1cca 0023     		movs	r3, #0
 5073 1ccc 07E0     		b	.L332
 5074              	.L331:
 5075              		.loc 1 1776 0
 5076 1cce 009B     		ldr	r3, [sp]
 5077 1cd0 1B78     		ldrb	r3, [r3]	@ zero_extendqisi2
 5078 1cd2 03F00803 		and	r3, r3, #8
 5079 1cd6 DAB2     		uxtb	r2, r3
 5080 1cd8 009B     		ldr	r3, [sp]
 5081 1cda 1A70     		strb	r2, [r3]
 5082              		.loc 1 1778 0
 5083 1cdc 0123     		movs	r3, #1
 5084              	.L332:
 5085              		.loc 1 1779 0
 5086 1cde 1846     		mov	r0, r3
 5087 1ce0 03B0     		add	sp, sp, #12
 5088              		@ sp needed
 5089 1ce2 5DF804FB 		ldr	pc, [sp], #4
 5090              		.cfi_endproc
 5091              	.LFE349:
 5092              		.size	LSM303AGR_ACC_R_P2_ACT, .-LSM303AGR_ACC_R_P2_ACT
 5093 1ce6 00BF     		.align	2
 5094 1ce8 AFF30080 		.p2align 4,,15
 5094      AFF30080 
 5095              		.global	LSM303AGR_ACC_W_Boot_on_INT2
 5096              		.thumb
 5097              		.thumb_func
 5098              		.type	LSM303AGR_ACC_W_Boot_on_INT2, %function
 5099              	LSM303AGR_ACC_W_Boot_on_INT2:
 5100              	.LFB350:
 5101              		.loc 1 1789 0
 5102              		.cfi_startproc
 5103              		@ args = 0, pretend = 0, frame = 16
 5104              		@ frame_needed = 0, uses_anonymous_args = 0
ARM GAS  /tmp/cc1ELVNa.s 			page 92


 5105 1cf0 00B5     		push	{lr}
 5106              		.cfi_def_cfa_offset 4
 5107              		.cfi_offset 14, -4
 5108 1cf2 85B0     		sub	sp, sp, #20
 5109              		.cfi_def_cfa_offset 24
 5110 1cf4 0190     		str	r0, [sp, #4]
 5111 1cf6 0B46     		mov	r3, r1
 5112 1cf8 8DF80330 		strb	r3, [sp, #3]
 5113              		.loc 1 1792 0
 5114 1cfc 0DF10F03 		add	r3, sp, #15
 5115 1d00 0198     		ldr	r0, [sp, #4]
 5116 1d02 2521     		movs	r1, #37
 5117 1d04 1A46     		mov	r2, r3
 5118 1d06 0123     		movs	r3, #1
 5119 1d08 FFF7FEFF 		bl	LSM303AGR_ACC_ReadReg
 5120 1d0c 0346     		mov	r3, r0
 5121 1d0e 002B     		cmp	r3, #0
 5122 1d10 01D1     		bne	.L334
 5123              		.loc 1 1793 0
 5124 1d12 0023     		movs	r3, #0
 5125 1d14 1CE0     		b	.L337
 5126              	.L334:
 5127              		.loc 1 1795 0
 5128 1d16 9DF80F30 		ldrb	r3, [sp, #15]	@ zero_extendqisi2
 5129 1d1a 23F01003 		bic	r3, r3, #16
 5130 1d1e DBB2     		uxtb	r3, r3
 5131 1d20 8DF80F30 		strb	r3, [sp, #15]
 5132              		.loc 1 1796 0
 5133 1d24 9DF80F20 		ldrb	r2, [sp, #15]	@ zero_extendqisi2
 5134 1d28 9DF80330 		ldrb	r3, [sp, #3]
 5135 1d2c 1343     		orrs	r3, r3, r2
 5136 1d2e DBB2     		uxtb	r3, r3
 5137 1d30 8DF80F30 		strb	r3, [sp, #15]
 5138              		.loc 1 1798 0
 5139 1d34 0DF10F03 		add	r3, sp, #15
 5140 1d38 0198     		ldr	r0, [sp, #4]
 5141 1d3a 2521     		movs	r1, #37
 5142 1d3c 1A46     		mov	r2, r3
 5143 1d3e 0123     		movs	r3, #1
 5144 1d40 FFF7FEFF 		bl	LSM303AGR_ACC_WriteReg
 5145 1d44 0346     		mov	r3, r0
 5146 1d46 002B     		cmp	r3, #0
 5147 1d48 01D1     		bne	.L336
 5148              		.loc 1 1799 0
 5149 1d4a 0023     		movs	r3, #0
 5150 1d4c 00E0     		b	.L337
 5151              	.L336:
 5152              		.loc 1 1801 0
 5153 1d4e 0123     		movs	r3, #1
 5154              	.L337:
 5155              		.loc 1 1802 0
 5156 1d50 1846     		mov	r0, r3
 5157 1d52 05B0     		add	sp, sp, #20
 5158              		@ sp needed
 5159 1d54 5DF804FB 		ldr	pc, [sp], #4
 5160              		.cfi_endproc
 5161              	.LFE350:
ARM GAS  /tmp/cc1ELVNa.s 			page 93


 5162              		.size	LSM303AGR_ACC_W_Boot_on_INT2, .-LSM303AGR_ACC_W_Boot_on_INT2
 5163              		.align	2
 5164 1d58 AFF30080 		.p2align 4,,15
 5164      AFF30080 
 5165              		.global	LSM303AGR_ACC_R_Boot_on_INT2
 5166              		.thumb
 5167              		.thumb_func
 5168              		.type	LSM303AGR_ACC_R_Boot_on_INT2, %function
 5169              	LSM303AGR_ACC_R_Boot_on_INT2:
 5170              	.LFB351:
 5171              		.loc 1 1812 0
 5172              		.cfi_startproc
 5173              		@ args = 0, pretend = 0, frame = 8
 5174              		@ frame_needed = 0, uses_anonymous_args = 0
 5175 1d60 00B5     		push	{lr}
 5176              		.cfi_def_cfa_offset 4
 5177              		.cfi_offset 14, -4
 5178 1d62 83B0     		sub	sp, sp, #12
 5179              		.cfi_def_cfa_offset 16
 5180 1d64 0190     		str	r0, [sp, #4]
 5181 1d66 0091     		str	r1, [sp]
 5182              		.loc 1 1813 0
 5183 1d68 0198     		ldr	r0, [sp, #4]
 5184 1d6a 2521     		movs	r1, #37
 5185 1d6c 009A     		ldr	r2, [sp]
 5186 1d6e 0123     		movs	r3, #1
 5187 1d70 FFF7FEFF 		bl	LSM303AGR_ACC_ReadReg
 5188 1d74 0346     		mov	r3, r0
 5189 1d76 002B     		cmp	r3, #0
 5190 1d78 01D1     		bne	.L339
 5191              		.loc 1 1814 0
 5192 1d7a 0023     		movs	r3, #0
 5193 1d7c 07E0     		b	.L340
 5194              	.L339:
 5195              		.loc 1 1816 0
 5196 1d7e 009B     		ldr	r3, [sp]
 5197 1d80 1B78     		ldrb	r3, [r3]	@ zero_extendqisi2
 5198 1d82 03F01003 		and	r3, r3, #16
 5199 1d86 DAB2     		uxtb	r2, r3
 5200 1d88 009B     		ldr	r3, [sp]
 5201 1d8a 1A70     		strb	r2, [r3]
 5202              		.loc 1 1818 0
 5203 1d8c 0123     		movs	r3, #1
 5204              	.L340:
 5205              		.loc 1 1819 0
 5206 1d8e 1846     		mov	r0, r3
 5207 1d90 03B0     		add	sp, sp, #12
 5208              		@ sp needed
 5209 1d92 5DF804FB 		ldr	pc, [sp], #4
 5210              		.cfi_endproc
 5211              	.LFE351:
 5212              		.size	LSM303AGR_ACC_R_Boot_on_INT2, .-LSM303AGR_ACC_R_Boot_on_INT2
 5213 1d96 00BF     		.align	2
 5214 1d98 AFF30080 		.p2align 4,,15
 5214      AFF30080 
 5215              		.global	LSM303AGR_ACC_W_I2_on_INT2
 5216              		.thumb
ARM GAS  /tmp/cc1ELVNa.s 			page 94


 5217              		.thumb_func
 5218              		.type	LSM303AGR_ACC_W_I2_on_INT2, %function
 5219              	LSM303AGR_ACC_W_I2_on_INT2:
 5220              	.LFB352:
 5221              		.loc 1 1829 0
 5222              		.cfi_startproc
 5223              		@ args = 0, pretend = 0, frame = 16
 5224              		@ frame_needed = 0, uses_anonymous_args = 0
 5225 1da0 00B5     		push	{lr}
 5226              		.cfi_def_cfa_offset 4
 5227              		.cfi_offset 14, -4
 5228 1da2 85B0     		sub	sp, sp, #20
 5229              		.cfi_def_cfa_offset 24
 5230 1da4 0190     		str	r0, [sp, #4]
 5231 1da6 0B46     		mov	r3, r1
 5232 1da8 8DF80330 		strb	r3, [sp, #3]
 5233              		.loc 1 1832 0
 5234 1dac 0DF10F03 		add	r3, sp, #15
 5235 1db0 0198     		ldr	r0, [sp, #4]
 5236 1db2 2521     		movs	r1, #37
 5237 1db4 1A46     		mov	r2, r3
 5238 1db6 0123     		movs	r3, #1
 5239 1db8 FFF7FEFF 		bl	LSM303AGR_ACC_ReadReg
 5240 1dbc 0346     		mov	r3, r0
 5241 1dbe 002B     		cmp	r3, #0
 5242 1dc0 01D1     		bne	.L342
 5243              		.loc 1 1833 0
 5244 1dc2 0023     		movs	r3, #0
 5245 1dc4 1CE0     		b	.L345
 5246              	.L342:
 5247              		.loc 1 1835 0
 5248 1dc6 9DF80F30 		ldrb	r3, [sp, #15]	@ zero_extendqisi2
 5249 1dca 23F02003 		bic	r3, r3, #32
 5250 1dce DBB2     		uxtb	r3, r3
 5251 1dd0 8DF80F30 		strb	r3, [sp, #15]
 5252              		.loc 1 1836 0
 5253 1dd4 9DF80F20 		ldrb	r2, [sp, #15]	@ zero_extendqisi2
 5254 1dd8 9DF80330 		ldrb	r3, [sp, #3]
 5255 1ddc 1343     		orrs	r3, r3, r2
 5256 1dde DBB2     		uxtb	r3, r3
 5257 1de0 8DF80F30 		strb	r3, [sp, #15]
 5258              		.loc 1 1838 0
 5259 1de4 0DF10F03 		add	r3, sp, #15
 5260 1de8 0198     		ldr	r0, [sp, #4]
 5261 1dea 2521     		movs	r1, #37
 5262 1dec 1A46     		mov	r2, r3
 5263 1dee 0123     		movs	r3, #1
 5264 1df0 FFF7FEFF 		bl	LSM303AGR_ACC_WriteReg
 5265 1df4 0346     		mov	r3, r0
 5266 1df6 002B     		cmp	r3, #0
 5267 1df8 01D1     		bne	.L344
 5268              		.loc 1 1839 0
 5269 1dfa 0023     		movs	r3, #0
 5270 1dfc 00E0     		b	.L345
 5271              	.L344:
 5272              		.loc 1 1841 0
 5273 1dfe 0123     		movs	r3, #1
ARM GAS  /tmp/cc1ELVNa.s 			page 95


 5274              	.L345:
 5275              		.loc 1 1842 0
 5276 1e00 1846     		mov	r0, r3
 5277 1e02 05B0     		add	sp, sp, #20
 5278              		@ sp needed
 5279 1e04 5DF804FB 		ldr	pc, [sp], #4
 5280              		.cfi_endproc
 5281              	.LFE352:
 5282              		.size	LSM303AGR_ACC_W_I2_on_INT2, .-LSM303AGR_ACC_W_I2_on_INT2
 5283              		.align	2
 5284 1e08 AFF30080 		.p2align 4,,15
 5284      AFF30080 
 5285              		.global	LSM303AGR_ACC_R_I2_on_INT2
 5286              		.thumb
 5287              		.thumb_func
 5288              		.type	LSM303AGR_ACC_R_I2_on_INT2, %function
 5289              	LSM303AGR_ACC_R_I2_on_INT2:
 5290              	.LFB353:
 5291              		.loc 1 1852 0
 5292              		.cfi_startproc
 5293              		@ args = 0, pretend = 0, frame = 8
 5294              		@ frame_needed = 0, uses_anonymous_args = 0
 5295 1e10 00B5     		push	{lr}
 5296              		.cfi_def_cfa_offset 4
 5297              		.cfi_offset 14, -4
 5298 1e12 83B0     		sub	sp, sp, #12
 5299              		.cfi_def_cfa_offset 16
 5300 1e14 0190     		str	r0, [sp, #4]
 5301 1e16 0091     		str	r1, [sp]
 5302              		.loc 1 1853 0
 5303 1e18 0198     		ldr	r0, [sp, #4]
 5304 1e1a 2521     		movs	r1, #37
 5305 1e1c 009A     		ldr	r2, [sp]
 5306 1e1e 0123     		movs	r3, #1
 5307 1e20 FFF7FEFF 		bl	LSM303AGR_ACC_ReadReg
 5308 1e24 0346     		mov	r3, r0
 5309 1e26 002B     		cmp	r3, #0
 5310 1e28 01D1     		bne	.L347
 5311              		.loc 1 1854 0
 5312 1e2a 0023     		movs	r3, #0
 5313 1e2c 07E0     		b	.L348
 5314              	.L347:
 5315              		.loc 1 1856 0
 5316 1e2e 009B     		ldr	r3, [sp]
 5317 1e30 1B78     		ldrb	r3, [r3]	@ zero_extendqisi2
 5318 1e32 03F02003 		and	r3, r3, #32
 5319 1e36 DAB2     		uxtb	r2, r3
 5320 1e38 009B     		ldr	r3, [sp]
 5321 1e3a 1A70     		strb	r2, [r3]
 5322              		.loc 1 1858 0
 5323 1e3c 0123     		movs	r3, #1
 5324              	.L348:
 5325              		.loc 1 1859 0
 5326 1e3e 1846     		mov	r0, r3
 5327 1e40 03B0     		add	sp, sp, #12
 5328              		@ sp needed
 5329 1e42 5DF804FB 		ldr	pc, [sp], #4
ARM GAS  /tmp/cc1ELVNa.s 			page 96


 5330              		.cfi_endproc
 5331              	.LFE353:
 5332              		.size	LSM303AGR_ACC_R_I2_on_INT2, .-LSM303AGR_ACC_R_I2_on_INT2
 5333 1e46 00BF     		.align	2
 5334 1e48 AFF30080 		.p2align 4,,15
 5334      AFF30080 
 5335              		.global	LSM303AGR_ACC_W_I2_on_INT1
 5336              		.thumb
 5337              		.thumb_func
 5338              		.type	LSM303AGR_ACC_W_I2_on_INT1, %function
 5339              	LSM303AGR_ACC_W_I2_on_INT1:
 5340              	.LFB354:
 5341              		.loc 1 1869 0
 5342              		.cfi_startproc
 5343              		@ args = 0, pretend = 0, frame = 16
 5344              		@ frame_needed = 0, uses_anonymous_args = 0
 5345 1e50 00B5     		push	{lr}
 5346              		.cfi_def_cfa_offset 4
 5347              		.cfi_offset 14, -4
 5348 1e52 85B0     		sub	sp, sp, #20
 5349              		.cfi_def_cfa_offset 24
 5350 1e54 0190     		str	r0, [sp, #4]
 5351 1e56 0B46     		mov	r3, r1
 5352 1e58 8DF80330 		strb	r3, [sp, #3]
 5353              		.loc 1 1872 0
 5354 1e5c 0DF10F03 		add	r3, sp, #15
 5355 1e60 0198     		ldr	r0, [sp, #4]
 5356 1e62 2521     		movs	r1, #37
 5357 1e64 1A46     		mov	r2, r3
 5358 1e66 0123     		movs	r3, #1
 5359 1e68 FFF7FEFF 		bl	LSM303AGR_ACC_ReadReg
 5360 1e6c 0346     		mov	r3, r0
 5361 1e6e 002B     		cmp	r3, #0
 5362 1e70 01D1     		bne	.L350
 5363              		.loc 1 1873 0
 5364 1e72 0023     		movs	r3, #0
 5365 1e74 1CE0     		b	.L353
 5366              	.L350:
 5367              		.loc 1 1875 0
 5368 1e76 9DF80F30 		ldrb	r3, [sp, #15]	@ zero_extendqisi2
 5369 1e7a 23F04003 		bic	r3, r3, #64
 5370 1e7e DBB2     		uxtb	r3, r3
 5371 1e80 8DF80F30 		strb	r3, [sp, #15]
 5372              		.loc 1 1876 0
 5373 1e84 9DF80F20 		ldrb	r2, [sp, #15]	@ zero_extendqisi2
 5374 1e88 9DF80330 		ldrb	r3, [sp, #3]
 5375 1e8c 1343     		orrs	r3, r3, r2
 5376 1e8e DBB2     		uxtb	r3, r3
 5377 1e90 8DF80F30 		strb	r3, [sp, #15]
 5378              		.loc 1 1878 0
 5379 1e94 0DF10F03 		add	r3, sp, #15
 5380 1e98 0198     		ldr	r0, [sp, #4]
 5381 1e9a 2521     		movs	r1, #37
 5382 1e9c 1A46     		mov	r2, r3
 5383 1e9e 0123     		movs	r3, #1
 5384 1ea0 FFF7FEFF 		bl	LSM303AGR_ACC_WriteReg
 5385 1ea4 0346     		mov	r3, r0
ARM GAS  /tmp/cc1ELVNa.s 			page 97


 5386 1ea6 002B     		cmp	r3, #0
 5387 1ea8 01D1     		bne	.L352
 5388              		.loc 1 1879 0
 5389 1eaa 0023     		movs	r3, #0
 5390 1eac 00E0     		b	.L353
 5391              	.L352:
 5392              		.loc 1 1881 0
 5393 1eae 0123     		movs	r3, #1
 5394              	.L353:
 5395              		.loc 1 1882 0
 5396 1eb0 1846     		mov	r0, r3
 5397 1eb2 05B0     		add	sp, sp, #20
 5398              		@ sp needed
 5399 1eb4 5DF804FB 		ldr	pc, [sp], #4
 5400              		.cfi_endproc
 5401              	.LFE354:
 5402              		.size	LSM303AGR_ACC_W_I2_on_INT1, .-LSM303AGR_ACC_W_I2_on_INT1
 5403              		.align	2
 5404 1eb8 AFF30080 		.p2align 4,,15
 5404      AFF30080 
 5405              		.global	LSM303AGR_ACC_R_I2_on_INT1
 5406              		.thumb
 5407              		.thumb_func
 5408              		.type	LSM303AGR_ACC_R_I2_on_INT1, %function
 5409              	LSM303AGR_ACC_R_I2_on_INT1:
 5410              	.LFB355:
 5411              		.loc 1 1892 0
 5412              		.cfi_startproc
 5413              		@ args = 0, pretend = 0, frame = 8
 5414              		@ frame_needed = 0, uses_anonymous_args = 0
 5415 1ec0 00B5     		push	{lr}
 5416              		.cfi_def_cfa_offset 4
 5417              		.cfi_offset 14, -4
 5418 1ec2 83B0     		sub	sp, sp, #12
 5419              		.cfi_def_cfa_offset 16
 5420 1ec4 0190     		str	r0, [sp, #4]
 5421 1ec6 0091     		str	r1, [sp]
 5422              		.loc 1 1893 0
 5423 1ec8 0198     		ldr	r0, [sp, #4]
 5424 1eca 2521     		movs	r1, #37
 5425 1ecc 009A     		ldr	r2, [sp]
 5426 1ece 0123     		movs	r3, #1
 5427 1ed0 FFF7FEFF 		bl	LSM303AGR_ACC_ReadReg
 5428 1ed4 0346     		mov	r3, r0
 5429 1ed6 002B     		cmp	r3, #0
 5430 1ed8 01D1     		bne	.L355
 5431              		.loc 1 1894 0
 5432 1eda 0023     		movs	r3, #0
 5433 1edc 07E0     		b	.L356
 5434              	.L355:
 5435              		.loc 1 1896 0
 5436 1ede 009B     		ldr	r3, [sp]
 5437 1ee0 1B78     		ldrb	r3, [r3]	@ zero_extendqisi2
 5438 1ee2 03F04003 		and	r3, r3, #64
 5439 1ee6 DAB2     		uxtb	r2, r3
 5440 1ee8 009B     		ldr	r3, [sp]
 5441 1eea 1A70     		strb	r2, [r3]
ARM GAS  /tmp/cc1ELVNa.s 			page 98


 5442              		.loc 1 1898 0
 5443 1eec 0123     		movs	r3, #1
 5444              	.L356:
 5445              		.loc 1 1899 0
 5446 1eee 1846     		mov	r0, r3
 5447 1ef0 03B0     		add	sp, sp, #12
 5448              		@ sp needed
 5449 1ef2 5DF804FB 		ldr	pc, [sp], #4
 5450              		.cfi_endproc
 5451              	.LFE355:
 5452              		.size	LSM303AGR_ACC_R_I2_on_INT1, .-LSM303AGR_ACC_R_I2_on_INT1
 5453 1ef6 00BF     		.align	2
 5454 1ef8 AFF30080 		.p2align 4,,15
 5454      AFF30080 
 5455              		.global	LSM303AGR_ACC_W_Click_on_INT2
 5456              		.thumb
 5457              		.thumb_func
 5458              		.type	LSM303AGR_ACC_W_Click_on_INT2, %function
 5459              	LSM303AGR_ACC_W_Click_on_INT2:
 5460              	.LFB356:
 5461              		.loc 1 1909 0
 5462              		.cfi_startproc
 5463              		@ args = 0, pretend = 0, frame = 16
 5464              		@ frame_needed = 0, uses_anonymous_args = 0
 5465 1f00 00B5     		push	{lr}
 5466              		.cfi_def_cfa_offset 4
 5467              		.cfi_offset 14, -4
 5468 1f02 85B0     		sub	sp, sp, #20
 5469              		.cfi_def_cfa_offset 24
 5470 1f04 0190     		str	r0, [sp, #4]
 5471 1f06 0B46     		mov	r3, r1
 5472 1f08 8DF80330 		strb	r3, [sp, #3]
 5473              		.loc 1 1912 0
 5474 1f0c 0DF10F03 		add	r3, sp, #15
 5475 1f10 0198     		ldr	r0, [sp, #4]
 5476 1f12 2521     		movs	r1, #37
 5477 1f14 1A46     		mov	r2, r3
 5478 1f16 0123     		movs	r3, #1
 5479 1f18 FFF7FEFF 		bl	LSM303AGR_ACC_ReadReg
 5480 1f1c 0346     		mov	r3, r0
 5481 1f1e 002B     		cmp	r3, #0
 5482 1f20 01D1     		bne	.L358
 5483              		.loc 1 1913 0
 5484 1f22 0023     		movs	r3, #0
 5485 1f24 1CE0     		b	.L361
 5486              	.L358:
 5487              		.loc 1 1915 0
 5488 1f26 9DF80F30 		ldrb	r3, [sp, #15]	@ zero_extendqisi2
 5489 1f2a 03F07F03 		and	r3, r3, #127
 5490 1f2e DBB2     		uxtb	r3, r3
 5491 1f30 8DF80F30 		strb	r3, [sp, #15]
 5492              		.loc 1 1916 0
 5493 1f34 9DF80F20 		ldrb	r2, [sp, #15]	@ zero_extendqisi2
 5494 1f38 9DF80330 		ldrb	r3, [sp, #3]
 5495 1f3c 1343     		orrs	r3, r3, r2
 5496 1f3e DBB2     		uxtb	r3, r3
 5497 1f40 8DF80F30 		strb	r3, [sp, #15]
ARM GAS  /tmp/cc1ELVNa.s 			page 99


 5498              		.loc 1 1918 0
 5499 1f44 0DF10F03 		add	r3, sp, #15
 5500 1f48 0198     		ldr	r0, [sp, #4]
 5501 1f4a 2521     		movs	r1, #37
 5502 1f4c 1A46     		mov	r2, r3
 5503 1f4e 0123     		movs	r3, #1
 5504 1f50 FFF7FEFF 		bl	LSM303AGR_ACC_WriteReg
 5505 1f54 0346     		mov	r3, r0
 5506 1f56 002B     		cmp	r3, #0
 5507 1f58 01D1     		bne	.L360
 5508              		.loc 1 1919 0
 5509 1f5a 0023     		movs	r3, #0
 5510 1f5c 00E0     		b	.L361
 5511              	.L360:
 5512              		.loc 1 1921 0
 5513 1f5e 0123     		movs	r3, #1
 5514              	.L361:
 5515              		.loc 1 1922 0
 5516 1f60 1846     		mov	r0, r3
 5517 1f62 05B0     		add	sp, sp, #20
 5518              		@ sp needed
 5519 1f64 5DF804FB 		ldr	pc, [sp], #4
 5520              		.cfi_endproc
 5521              	.LFE356:
 5522              		.size	LSM303AGR_ACC_W_Click_on_INT2, .-LSM303AGR_ACC_W_Click_on_INT2
 5523              		.align	2
 5524 1f68 AFF30080 		.p2align 4,,15
 5524      AFF30080 
 5525              		.global	LSM303AGR_ACC_R_Click_on_INT2
 5526              		.thumb
 5527              		.thumb_func
 5528              		.type	LSM303AGR_ACC_R_Click_on_INT2, %function
 5529              	LSM303AGR_ACC_R_Click_on_INT2:
 5530              	.LFB357:
 5531              		.loc 1 1932 0
 5532              		.cfi_startproc
 5533              		@ args = 0, pretend = 0, frame = 8
 5534              		@ frame_needed = 0, uses_anonymous_args = 0
 5535 1f70 00B5     		push	{lr}
 5536              		.cfi_def_cfa_offset 4
 5537              		.cfi_offset 14, -4
 5538 1f72 83B0     		sub	sp, sp, #12
 5539              		.cfi_def_cfa_offset 16
 5540 1f74 0190     		str	r0, [sp, #4]
 5541 1f76 0091     		str	r1, [sp]
 5542              		.loc 1 1933 0
 5543 1f78 0198     		ldr	r0, [sp, #4]
 5544 1f7a 2521     		movs	r1, #37
 5545 1f7c 009A     		ldr	r2, [sp]
 5546 1f7e 0123     		movs	r3, #1
 5547 1f80 FFF7FEFF 		bl	LSM303AGR_ACC_ReadReg
 5548 1f84 0346     		mov	r3, r0
 5549 1f86 002B     		cmp	r3, #0
 5550 1f88 01D1     		bne	.L363
 5551              		.loc 1 1934 0
 5552 1f8a 0023     		movs	r3, #0
 5553 1f8c 07E0     		b	.L364
ARM GAS  /tmp/cc1ELVNa.s 			page 100


 5554              	.L363:
 5555              		.loc 1 1936 0
 5556 1f8e 009B     		ldr	r3, [sp]
 5557 1f90 1B78     		ldrb	r3, [r3]	@ zero_extendqisi2
 5558 1f92 23F07F03 		bic	r3, r3, #127
 5559 1f96 DAB2     		uxtb	r2, r3
 5560 1f98 009B     		ldr	r3, [sp]
 5561 1f9a 1A70     		strb	r2, [r3]
 5562              		.loc 1 1938 0
 5563 1f9c 0123     		movs	r3, #1
 5564              	.L364:
 5565              		.loc 1 1939 0
 5566 1f9e 1846     		mov	r0, r3
 5567 1fa0 03B0     		add	sp, sp, #12
 5568              		@ sp needed
 5569 1fa2 5DF804FB 		ldr	pc, [sp], #4
 5570              		.cfi_endproc
 5571              	.LFE357:
 5572              		.size	LSM303AGR_ACC_R_Click_on_INT2, .-LSM303AGR_ACC_R_Click_on_INT2
 5573 1fa6 00BF     		.align	2
 5574 1fa8 AFF30080 		.p2align 4,,15
 5574      AFF30080 
 5575              		.global	LSM303AGR_ACC_W_ReferenceVal
 5576              		.thumb
 5577              		.thumb_func
 5578              		.type	LSM303AGR_ACC_W_ReferenceVal, %function
 5579              	LSM303AGR_ACC_W_ReferenceVal:
 5580              	.LFB358:
 5581              		.loc 1 1949 0
 5582              		.cfi_startproc
 5583              		@ args = 0, pretend = 0, frame = 16
 5584              		@ frame_needed = 0, uses_anonymous_args = 0
 5585 1fb0 00B5     		push	{lr}
 5586              		.cfi_def_cfa_offset 4
 5587              		.cfi_offset 14, -4
 5588 1fb2 85B0     		sub	sp, sp, #20
 5589              		.cfi_def_cfa_offset 24
 5590 1fb4 0190     		str	r0, [sp, #4]
 5591 1fb6 0B46     		mov	r3, r1
 5592 1fb8 8DF80330 		strb	r3, [sp, #3]
 5593              		.loc 1 1955 0
 5594 1fbc 0DF10F03 		add	r3, sp, #15
 5595 1fc0 0198     		ldr	r0, [sp, #4]
 5596 1fc2 2621     		movs	r1, #38
 5597 1fc4 1A46     		mov	r2, r3
 5598 1fc6 0123     		movs	r3, #1
 5599 1fc8 FFF7FEFF 		bl	LSM303AGR_ACC_ReadReg
 5600 1fcc 0346     		mov	r3, r0
 5601 1fce 002B     		cmp	r3, #0
 5602 1fd0 01D1     		bne	.L366
 5603              		.loc 1 1956 0
 5604 1fd2 0023     		movs	r3, #0
 5605 1fd4 18E0     		b	.L369
 5606              	.L366:
 5607              		.loc 1 1958 0
 5608 1fd6 0023     		movs	r3, #0
 5609 1fd8 8DF80F30 		strb	r3, [sp, #15]
ARM GAS  /tmp/cc1ELVNa.s 			page 101


 5610              		.loc 1 1959 0
 5611 1fdc 9DF80F20 		ldrb	r2, [sp, #15]	@ zero_extendqisi2
 5612 1fe0 9DF80330 		ldrb	r3, [sp, #3]
 5613 1fe4 1343     		orrs	r3, r3, r2
 5614 1fe6 DBB2     		uxtb	r3, r3
 5615 1fe8 8DF80F30 		strb	r3, [sp, #15]
 5616              		.loc 1 1961 0
 5617 1fec 0DF10F03 		add	r3, sp, #15
 5618 1ff0 0198     		ldr	r0, [sp, #4]
 5619 1ff2 2621     		movs	r1, #38
 5620 1ff4 1A46     		mov	r2, r3
 5621 1ff6 0123     		movs	r3, #1
 5622 1ff8 FFF7FEFF 		bl	LSM303AGR_ACC_WriteReg
 5623 1ffc 0346     		mov	r3, r0
 5624 1ffe 002B     		cmp	r3, #0
 5625 2000 01D1     		bne	.L368
 5626              		.loc 1 1962 0
 5627 2002 0023     		movs	r3, #0
 5628 2004 00E0     		b	.L369
 5629              	.L368:
 5630              		.loc 1 1964 0
 5631 2006 0123     		movs	r3, #1
 5632              	.L369:
 5633              		.loc 1 1965 0
 5634 2008 1846     		mov	r0, r3
 5635 200a 05B0     		add	sp, sp, #20
 5636              		@ sp needed
 5637 200c 5DF804FB 		ldr	pc, [sp], #4
 5638              		.cfi_endproc
 5639              	.LFE358:
 5640              		.size	LSM303AGR_ACC_W_ReferenceVal, .-LSM303AGR_ACC_W_ReferenceVal
 5641              		.align	2
 5642              		.p2align 4,,15
 5643              		.global	LSM303AGR_ACC_R_ReferenceVal
 5644              		.thumb
 5645              		.thumb_func
 5646              		.type	LSM303AGR_ACC_R_ReferenceVal, %function
 5647              	LSM303AGR_ACC_R_ReferenceVal:
 5648              	.LFB359:
 5649              		.loc 1 1975 0
 5650              		.cfi_startproc
 5651              		@ args = 0, pretend = 0, frame = 8
 5652              		@ frame_needed = 0, uses_anonymous_args = 0
 5653 2010 00B5     		push	{lr}
 5654              		.cfi_def_cfa_offset 4
 5655              		.cfi_offset 14, -4
 5656 2012 83B0     		sub	sp, sp, #12
 5657              		.cfi_def_cfa_offset 16
 5658 2014 0190     		str	r0, [sp, #4]
 5659 2016 0091     		str	r1, [sp]
 5660              		.loc 1 1976 0
 5661 2018 0198     		ldr	r0, [sp, #4]
 5662 201a 2621     		movs	r1, #38
 5663 201c 009A     		ldr	r2, [sp]
 5664 201e 0123     		movs	r3, #1
 5665 2020 FFF7FEFF 		bl	LSM303AGR_ACC_ReadReg
 5666 2024 0346     		mov	r3, r0
ARM GAS  /tmp/cc1ELVNa.s 			page 102


 5667 2026 002B     		cmp	r3, #0
 5668 2028 01D1     		bne	.L371
 5669              		.loc 1 1977 0
 5670 202a 0023     		movs	r3, #0
 5671 202c 08E0     		b	.L372
 5672              	.L371:
 5673              		.loc 1 1979 0
 5674 202e 009B     		ldr	r3, [sp]
 5675 2030 1A78     		ldrb	r2, [r3]	@ zero_extendqisi2
 5676 2032 009B     		ldr	r3, [sp]
 5677 2034 1A70     		strb	r2, [r3]
 5678              		.loc 1 1980 0
 5679 2036 009B     		ldr	r3, [sp]
 5680 2038 1A78     		ldrb	r2, [r3]	@ zero_extendqisi2
 5681 203a 009B     		ldr	r3, [sp]
 5682 203c 1A70     		strb	r2, [r3]
 5683              		.loc 1 1982 0
 5684 203e 0123     		movs	r3, #1
 5685              	.L372:
 5686              		.loc 1 1983 0
 5687 2040 1846     		mov	r0, r3
 5688 2042 03B0     		add	sp, sp, #12
 5689              		@ sp needed
 5690 2044 5DF804FB 		ldr	pc, [sp], #4
 5691              		.cfi_endproc
 5692              	.LFE359:
 5693              		.size	LSM303AGR_ACC_R_ReferenceVal, .-LSM303AGR_ACC_R_ReferenceVal
 5694              		.align	2
 5695 2048 AFF30080 		.p2align 4,,15
 5695      AFF30080 
 5696              		.global	LSM303AGR_ACC_R_XDataAvail
 5697              		.thumb
 5698              		.thumb_func
 5699              		.type	LSM303AGR_ACC_R_XDataAvail, %function
 5700              	LSM303AGR_ACC_R_XDataAvail:
 5701              	.LFB360:
 5702              		.loc 1 1993 0
 5703              		.cfi_startproc
 5704              		@ args = 0, pretend = 0, frame = 8
 5705              		@ frame_needed = 0, uses_anonymous_args = 0
 5706 2050 00B5     		push	{lr}
 5707              		.cfi_def_cfa_offset 4
 5708              		.cfi_offset 14, -4
 5709 2052 83B0     		sub	sp, sp, #12
 5710              		.cfi_def_cfa_offset 16
 5711 2054 0190     		str	r0, [sp, #4]
 5712 2056 0091     		str	r1, [sp]
 5713              		.loc 1 1994 0
 5714 2058 0198     		ldr	r0, [sp, #4]
 5715 205a 2721     		movs	r1, #39
 5716 205c 009A     		ldr	r2, [sp]
 5717 205e 0123     		movs	r3, #1
 5718 2060 FFF7FEFF 		bl	LSM303AGR_ACC_ReadReg
 5719 2064 0346     		mov	r3, r0
 5720 2066 002B     		cmp	r3, #0
 5721 2068 01D1     		bne	.L374
 5722              		.loc 1 1995 0
ARM GAS  /tmp/cc1ELVNa.s 			page 103


 5723 206a 0023     		movs	r3, #0
 5724 206c 07E0     		b	.L375
 5725              	.L374:
 5726              		.loc 1 1997 0
 5727 206e 009B     		ldr	r3, [sp]
 5728 2070 1B78     		ldrb	r3, [r3]	@ zero_extendqisi2
 5729 2072 03F00103 		and	r3, r3, #1
 5730 2076 DAB2     		uxtb	r2, r3
 5731 2078 009B     		ldr	r3, [sp]
 5732 207a 1A70     		strb	r2, [r3]
 5733              		.loc 1 1999 0
 5734 207c 0123     		movs	r3, #1
 5735              	.L375:
 5736              		.loc 1 2000 0
 5737 207e 1846     		mov	r0, r3
 5738 2080 03B0     		add	sp, sp, #12
 5739              		@ sp needed
 5740 2082 5DF804FB 		ldr	pc, [sp], #4
 5741              		.cfi_endproc
 5742              	.LFE360:
 5743              		.size	LSM303AGR_ACC_R_XDataAvail, .-LSM303AGR_ACC_R_XDataAvail
 5744 2086 00BF     		.align	2
 5745 2088 AFF30080 		.p2align 4,,15
 5745      AFF30080 
 5746              		.global	LSM303AGR_ACC_R_YDataAvail
 5747              		.thumb
 5748              		.thumb_func
 5749              		.type	LSM303AGR_ACC_R_YDataAvail, %function
 5750              	LSM303AGR_ACC_R_YDataAvail:
 5751              	.LFB361:
 5752              		.loc 1 2010 0
 5753              		.cfi_startproc
 5754              		@ args = 0, pretend = 0, frame = 8
 5755              		@ frame_needed = 0, uses_anonymous_args = 0
 5756 2090 00B5     		push	{lr}
 5757              		.cfi_def_cfa_offset 4
 5758              		.cfi_offset 14, -4
 5759 2092 83B0     		sub	sp, sp, #12
 5760              		.cfi_def_cfa_offset 16
 5761 2094 0190     		str	r0, [sp, #4]
 5762 2096 0091     		str	r1, [sp]
 5763              		.loc 1 2011 0
 5764 2098 0198     		ldr	r0, [sp, #4]
 5765 209a 2721     		movs	r1, #39
 5766 209c 009A     		ldr	r2, [sp]
 5767 209e 0123     		movs	r3, #1
 5768 20a0 FFF7FEFF 		bl	LSM303AGR_ACC_ReadReg
 5769 20a4 0346     		mov	r3, r0
 5770 20a6 002B     		cmp	r3, #0
 5771 20a8 01D1     		bne	.L377
 5772              		.loc 1 2012 0
 5773 20aa 0023     		movs	r3, #0
 5774 20ac 07E0     		b	.L378
 5775              	.L377:
 5776              		.loc 1 2014 0
 5777 20ae 009B     		ldr	r3, [sp]
 5778 20b0 1B78     		ldrb	r3, [r3]	@ zero_extendqisi2
ARM GAS  /tmp/cc1ELVNa.s 			page 104


 5779 20b2 03F00203 		and	r3, r3, #2
 5780 20b6 DAB2     		uxtb	r2, r3
 5781 20b8 009B     		ldr	r3, [sp]
 5782 20ba 1A70     		strb	r2, [r3]
 5783              		.loc 1 2016 0
 5784 20bc 0123     		movs	r3, #1
 5785              	.L378:
 5786              		.loc 1 2017 0
 5787 20be 1846     		mov	r0, r3
 5788 20c0 03B0     		add	sp, sp, #12
 5789              		@ sp needed
 5790 20c2 5DF804FB 		ldr	pc, [sp], #4
 5791              		.cfi_endproc
 5792              	.LFE361:
 5793              		.size	LSM303AGR_ACC_R_YDataAvail, .-LSM303AGR_ACC_R_YDataAvail
 5794 20c6 00BF     		.align	2
 5795 20c8 AFF30080 		.p2align 4,,15
 5795      AFF30080 
 5796              		.global	LSM303AGR_ACC_R_ZDataAvail
 5797              		.thumb
 5798              		.thumb_func
 5799              		.type	LSM303AGR_ACC_R_ZDataAvail, %function
 5800              	LSM303AGR_ACC_R_ZDataAvail:
 5801              	.LFB362:
 5802              		.loc 1 2027 0
 5803              		.cfi_startproc
 5804              		@ args = 0, pretend = 0, frame = 8
 5805              		@ frame_needed = 0, uses_anonymous_args = 0
 5806 20d0 00B5     		push	{lr}
 5807              		.cfi_def_cfa_offset 4
 5808              		.cfi_offset 14, -4
 5809 20d2 83B0     		sub	sp, sp, #12
 5810              		.cfi_def_cfa_offset 16
 5811 20d4 0190     		str	r0, [sp, #4]
 5812 20d6 0091     		str	r1, [sp]
 5813              		.loc 1 2028 0
 5814 20d8 0198     		ldr	r0, [sp, #4]
 5815 20da 2721     		movs	r1, #39
 5816 20dc 009A     		ldr	r2, [sp]
 5817 20de 0123     		movs	r3, #1
 5818 20e0 FFF7FEFF 		bl	LSM303AGR_ACC_ReadReg
 5819 20e4 0346     		mov	r3, r0
 5820 20e6 002B     		cmp	r3, #0
 5821 20e8 01D1     		bne	.L380
 5822              		.loc 1 2029 0
 5823 20ea 0023     		movs	r3, #0
 5824 20ec 07E0     		b	.L381
 5825              	.L380:
 5826              		.loc 1 2031 0
 5827 20ee 009B     		ldr	r3, [sp]
 5828 20f0 1B78     		ldrb	r3, [r3]	@ zero_extendqisi2
 5829 20f2 03F00403 		and	r3, r3, #4
 5830 20f6 DAB2     		uxtb	r2, r3
 5831 20f8 009B     		ldr	r3, [sp]
 5832 20fa 1A70     		strb	r2, [r3]
 5833              		.loc 1 2033 0
 5834 20fc 0123     		movs	r3, #1
ARM GAS  /tmp/cc1ELVNa.s 			page 105


 5835              	.L381:
 5836              		.loc 1 2034 0
 5837 20fe 1846     		mov	r0, r3
 5838 2100 03B0     		add	sp, sp, #12
 5839              		@ sp needed
 5840 2102 5DF804FB 		ldr	pc, [sp], #4
 5841              		.cfi_endproc
 5842              	.LFE362:
 5843              		.size	LSM303AGR_ACC_R_ZDataAvail, .-LSM303AGR_ACC_R_ZDataAvail
 5844 2106 00BF     		.align	2
 5845 2108 AFF30080 		.p2align 4,,15
 5845      AFF30080 
 5846              		.global	LSM303AGR_ACC_R_XYZDataAvail
 5847              		.thumb
 5848              		.thumb_func
 5849              		.type	LSM303AGR_ACC_R_XYZDataAvail, %function
 5850              	LSM303AGR_ACC_R_XYZDataAvail:
 5851              	.LFB363:
 5852              		.loc 1 2044 0
 5853              		.cfi_startproc
 5854              		@ args = 0, pretend = 0, frame = 8
 5855              		@ frame_needed = 0, uses_anonymous_args = 0
 5856 2110 00B5     		push	{lr}
 5857              		.cfi_def_cfa_offset 4
 5858              		.cfi_offset 14, -4
 5859 2112 83B0     		sub	sp, sp, #12
 5860              		.cfi_def_cfa_offset 16
 5861 2114 0190     		str	r0, [sp, #4]
 5862 2116 0091     		str	r1, [sp]
 5863              		.loc 1 2045 0
 5864 2118 0198     		ldr	r0, [sp, #4]
 5865 211a 2721     		movs	r1, #39
 5866 211c 009A     		ldr	r2, [sp]
 5867 211e 0123     		movs	r3, #1
 5868 2120 FFF7FEFF 		bl	LSM303AGR_ACC_ReadReg
 5869 2124 0346     		mov	r3, r0
 5870 2126 002B     		cmp	r3, #0
 5871 2128 01D1     		bne	.L383
 5872              		.loc 1 2046 0
 5873 212a 0023     		movs	r3, #0
 5874 212c 07E0     		b	.L384
 5875              	.L383:
 5876              		.loc 1 2048 0
 5877 212e 009B     		ldr	r3, [sp]
 5878 2130 1B78     		ldrb	r3, [r3]	@ zero_extendqisi2
 5879 2132 03F00803 		and	r3, r3, #8
 5880 2136 DAB2     		uxtb	r2, r3
 5881 2138 009B     		ldr	r3, [sp]
 5882 213a 1A70     		strb	r2, [r3]
 5883              		.loc 1 2050 0
 5884 213c 0123     		movs	r3, #1
 5885              	.L384:
 5886              		.loc 1 2051 0
 5887 213e 1846     		mov	r0, r3
 5888 2140 03B0     		add	sp, sp, #12
 5889              		@ sp needed
 5890 2142 5DF804FB 		ldr	pc, [sp], #4
ARM GAS  /tmp/cc1ELVNa.s 			page 106


 5891              		.cfi_endproc
 5892              	.LFE363:
 5893              		.size	LSM303AGR_ACC_R_XYZDataAvail, .-LSM303AGR_ACC_R_XYZDataAvail
 5894 2146 00BF     		.align	2
 5895 2148 AFF30080 		.p2align 4,,15
 5895      AFF30080 
 5896              		.global	LSM303AGR_ACC_R_XDataOverrun
 5897              		.thumb
 5898              		.thumb_func
 5899              		.type	LSM303AGR_ACC_R_XDataOverrun, %function
 5900              	LSM303AGR_ACC_R_XDataOverrun:
 5901              	.LFB364:
 5902              		.loc 1 2061 0
 5903              		.cfi_startproc
 5904              		@ args = 0, pretend = 0, frame = 8
 5905              		@ frame_needed = 0, uses_anonymous_args = 0
 5906 2150 00B5     		push	{lr}
 5907              		.cfi_def_cfa_offset 4
 5908              		.cfi_offset 14, -4
 5909 2152 83B0     		sub	sp, sp, #12
 5910              		.cfi_def_cfa_offset 16
 5911 2154 0190     		str	r0, [sp, #4]
 5912 2156 0091     		str	r1, [sp]
 5913              		.loc 1 2062 0
 5914 2158 0198     		ldr	r0, [sp, #4]
 5915 215a 2721     		movs	r1, #39
 5916 215c 009A     		ldr	r2, [sp]
 5917 215e 0123     		movs	r3, #1
 5918 2160 FFF7FEFF 		bl	LSM303AGR_ACC_ReadReg
 5919 2164 0346     		mov	r3, r0
 5920 2166 002B     		cmp	r3, #0
 5921 2168 01D1     		bne	.L386
 5922              		.loc 1 2063 0
 5923 216a 0023     		movs	r3, #0
 5924 216c 07E0     		b	.L387
 5925              	.L386:
 5926              		.loc 1 2065 0
 5927 216e 009B     		ldr	r3, [sp]
 5928 2170 1B78     		ldrb	r3, [r3]	@ zero_extendqisi2
 5929 2172 03F01003 		and	r3, r3, #16
 5930 2176 DAB2     		uxtb	r2, r3
 5931 2178 009B     		ldr	r3, [sp]
 5932 217a 1A70     		strb	r2, [r3]
 5933              		.loc 1 2067 0
 5934 217c 0123     		movs	r3, #1
 5935              	.L387:
 5936              		.loc 1 2068 0
 5937 217e 1846     		mov	r0, r3
 5938 2180 03B0     		add	sp, sp, #12
 5939              		@ sp needed
 5940 2182 5DF804FB 		ldr	pc, [sp], #4
 5941              		.cfi_endproc
 5942              	.LFE364:
 5943              		.size	LSM303AGR_ACC_R_XDataOverrun, .-LSM303AGR_ACC_R_XDataOverrun
 5944 2186 00BF     		.align	2
 5945 2188 AFF30080 		.p2align 4,,15
 5945      AFF30080 
ARM GAS  /tmp/cc1ELVNa.s 			page 107


 5946              		.global	LSM303AGR_ACC_R_YDataOverrun
 5947              		.thumb
 5948              		.thumb_func
 5949              		.type	LSM303AGR_ACC_R_YDataOverrun, %function
 5950              	LSM303AGR_ACC_R_YDataOverrun:
 5951              	.LFB365:
 5952              		.loc 1 2078 0
 5953              		.cfi_startproc
 5954              		@ args = 0, pretend = 0, frame = 8
 5955              		@ frame_needed = 0, uses_anonymous_args = 0
 5956 2190 00B5     		push	{lr}
 5957              		.cfi_def_cfa_offset 4
 5958              		.cfi_offset 14, -4
 5959 2192 83B0     		sub	sp, sp, #12
 5960              		.cfi_def_cfa_offset 16
 5961 2194 0190     		str	r0, [sp, #4]
 5962 2196 0091     		str	r1, [sp]
 5963              		.loc 1 2079 0
 5964 2198 0198     		ldr	r0, [sp, #4]
 5965 219a 2721     		movs	r1, #39
 5966 219c 009A     		ldr	r2, [sp]
 5967 219e 0123     		movs	r3, #1
 5968 21a0 FFF7FEFF 		bl	LSM303AGR_ACC_ReadReg
 5969 21a4 0346     		mov	r3, r0
 5970 21a6 002B     		cmp	r3, #0
 5971 21a8 01D1     		bne	.L389
 5972              		.loc 1 2080 0
 5973 21aa 0023     		movs	r3, #0
 5974 21ac 07E0     		b	.L390
 5975              	.L389:
 5976              		.loc 1 2082 0
 5977 21ae 009B     		ldr	r3, [sp]
 5978 21b0 1B78     		ldrb	r3, [r3]	@ zero_extendqisi2
 5979 21b2 03F02003 		and	r3, r3, #32
 5980 21b6 DAB2     		uxtb	r2, r3
 5981 21b8 009B     		ldr	r3, [sp]
 5982 21ba 1A70     		strb	r2, [r3]
 5983              		.loc 1 2084 0
 5984 21bc 0123     		movs	r3, #1
 5985              	.L390:
 5986              		.loc 1 2085 0
 5987 21be 1846     		mov	r0, r3
 5988 21c0 03B0     		add	sp, sp, #12
 5989              		@ sp needed
 5990 21c2 5DF804FB 		ldr	pc, [sp], #4
 5991              		.cfi_endproc
 5992              	.LFE365:
 5993              		.size	LSM303AGR_ACC_R_YDataOverrun, .-LSM303AGR_ACC_R_YDataOverrun
 5994 21c6 00BF     		.align	2
 5995 21c8 AFF30080 		.p2align 4,,15
 5995      AFF30080 
 5996              		.global	LSM303AGR_ACC_R_ZDataOverrun
 5997              		.thumb
 5998              		.thumb_func
 5999              		.type	LSM303AGR_ACC_R_ZDataOverrun, %function
 6000              	LSM303AGR_ACC_R_ZDataOverrun:
 6001              	.LFB366:
ARM GAS  /tmp/cc1ELVNa.s 			page 108


 6002              		.loc 1 2095 0
 6003              		.cfi_startproc
 6004              		@ args = 0, pretend = 0, frame = 8
 6005              		@ frame_needed = 0, uses_anonymous_args = 0
 6006 21d0 00B5     		push	{lr}
 6007              		.cfi_def_cfa_offset 4
 6008              		.cfi_offset 14, -4
 6009 21d2 83B0     		sub	sp, sp, #12
 6010              		.cfi_def_cfa_offset 16
 6011 21d4 0190     		str	r0, [sp, #4]
 6012 21d6 0091     		str	r1, [sp]
 6013              		.loc 1 2096 0
 6014 21d8 0198     		ldr	r0, [sp, #4]
 6015 21da 2721     		movs	r1, #39
 6016 21dc 009A     		ldr	r2, [sp]
 6017 21de 0123     		movs	r3, #1
 6018 21e0 FFF7FEFF 		bl	LSM303AGR_ACC_ReadReg
 6019 21e4 0346     		mov	r3, r0
 6020 21e6 002B     		cmp	r3, #0
 6021 21e8 01D1     		bne	.L392
 6022              		.loc 1 2097 0
 6023 21ea 0023     		movs	r3, #0
 6024 21ec 07E0     		b	.L393
 6025              	.L392:
 6026              		.loc 1 2099 0
 6027 21ee 009B     		ldr	r3, [sp]
 6028 21f0 1B78     		ldrb	r3, [r3]	@ zero_extendqisi2
 6029 21f2 03F04003 		and	r3, r3, #64
 6030 21f6 DAB2     		uxtb	r2, r3
 6031 21f8 009B     		ldr	r3, [sp]
 6032 21fa 1A70     		strb	r2, [r3]
 6033              		.loc 1 2101 0
 6034 21fc 0123     		movs	r3, #1
 6035              	.L393:
 6036              		.loc 1 2102 0
 6037 21fe 1846     		mov	r0, r3
 6038 2200 03B0     		add	sp, sp, #12
 6039              		@ sp needed
 6040 2202 5DF804FB 		ldr	pc, [sp], #4
 6041              		.cfi_endproc
 6042              	.LFE366:
 6043              		.size	LSM303AGR_ACC_R_ZDataOverrun, .-LSM303AGR_ACC_R_ZDataOverrun
 6044 2206 00BF     		.align	2
 6045 2208 AFF30080 		.p2align 4,,15
 6045      AFF30080 
 6046              		.global	LSM303AGR_ACC_R_XYZDataOverrun
 6047              		.thumb
 6048              		.thumb_func
 6049              		.type	LSM303AGR_ACC_R_XYZDataOverrun, %function
 6050              	LSM303AGR_ACC_R_XYZDataOverrun:
 6051              	.LFB367:
 6052              		.loc 1 2112 0
 6053              		.cfi_startproc
 6054              		@ args = 0, pretend = 0, frame = 8
 6055              		@ frame_needed = 0, uses_anonymous_args = 0
 6056 2210 00B5     		push	{lr}
 6057              		.cfi_def_cfa_offset 4
ARM GAS  /tmp/cc1ELVNa.s 			page 109


 6058              		.cfi_offset 14, -4
 6059 2212 83B0     		sub	sp, sp, #12
 6060              		.cfi_def_cfa_offset 16
 6061 2214 0190     		str	r0, [sp, #4]
 6062 2216 0091     		str	r1, [sp]
 6063              		.loc 1 2113 0
 6064 2218 0198     		ldr	r0, [sp, #4]
 6065 221a 2721     		movs	r1, #39
 6066 221c 009A     		ldr	r2, [sp]
 6067 221e 0123     		movs	r3, #1
 6068 2220 FFF7FEFF 		bl	LSM303AGR_ACC_ReadReg
 6069 2224 0346     		mov	r3, r0
 6070 2226 002B     		cmp	r3, #0
 6071 2228 01D1     		bne	.L395
 6072              		.loc 1 2114 0
 6073 222a 0023     		movs	r3, #0
 6074 222c 07E0     		b	.L396
 6075              	.L395:
 6076              		.loc 1 2116 0
 6077 222e 009B     		ldr	r3, [sp]
 6078 2230 1B78     		ldrb	r3, [r3]	@ zero_extendqisi2
 6079 2232 23F07F03 		bic	r3, r3, #127
 6080 2236 DAB2     		uxtb	r2, r3
 6081 2238 009B     		ldr	r3, [sp]
 6082 223a 1A70     		strb	r2, [r3]
 6083              		.loc 1 2118 0
 6084 223c 0123     		movs	r3, #1
 6085              	.L396:
 6086              		.loc 1 2119 0
 6087 223e 1846     		mov	r0, r3
 6088 2240 03B0     		add	sp, sp, #12
 6089              		@ sp needed
 6090 2242 5DF804FB 		ldr	pc, [sp], #4
 6091              		.cfi_endproc
 6092              	.LFE367:
 6093              		.size	LSM303AGR_ACC_R_XYZDataOverrun, .-LSM303AGR_ACC_R_XYZDataOverrun
 6094 2246 00BF     		.align	2
 6095 2248 AFF30080 		.p2align 4,,15
 6095      AFF30080 
 6096              		.global	LSM303AGR_ACC_W_FifoThreshold
 6097              		.thumb
 6098              		.thumb_func
 6099              		.type	LSM303AGR_ACC_W_FifoThreshold, %function
 6100              	LSM303AGR_ACC_W_FifoThreshold:
 6101              	.LFB368:
 6102              		.loc 1 2129 0
 6103              		.cfi_startproc
 6104              		@ args = 0, pretend = 0, frame = 16
 6105              		@ frame_needed = 0, uses_anonymous_args = 0
 6106 2250 00B5     		push	{lr}
 6107              		.cfi_def_cfa_offset 4
 6108              		.cfi_offset 14, -4
 6109 2252 85B0     		sub	sp, sp, #20
 6110              		.cfi_def_cfa_offset 24
 6111 2254 0190     		str	r0, [sp, #4]
 6112 2256 0B46     		mov	r3, r1
 6113 2258 8DF80330 		strb	r3, [sp, #3]
ARM GAS  /tmp/cc1ELVNa.s 			page 110


 6114              		.loc 1 2133 0
 6115 225c 9DF80330 		ldrb	r3, [sp, #3]
 6116 2260 03F01F03 		and	r3, r3, #31
 6117 2264 8DF80330 		strb	r3, [sp, #3]
 6118              		.loc 1 2135 0
 6119 2268 0DF10F03 		add	r3, sp, #15
 6120 226c 0198     		ldr	r0, [sp, #4]
 6121 226e 2E21     		movs	r1, #46
 6122 2270 1A46     		mov	r2, r3
 6123 2272 0123     		movs	r3, #1
 6124 2274 FFF7FEFF 		bl	LSM303AGR_ACC_ReadReg
 6125 2278 0346     		mov	r3, r0
 6126 227a 002B     		cmp	r3, #0
 6127 227c 01D1     		bne	.L398
 6128              		.loc 1 2136 0
 6129 227e 0023     		movs	r3, #0
 6130 2280 1CE0     		b	.L401
 6131              	.L398:
 6132              		.loc 1 2138 0
 6133 2282 9DF80F30 		ldrb	r3, [sp, #15]	@ zero_extendqisi2
 6134 2286 23F01F03 		bic	r3, r3, #31
 6135 228a DBB2     		uxtb	r3, r3
 6136 228c 8DF80F30 		strb	r3, [sp, #15]
 6137              		.loc 1 2139 0
 6138 2290 9DF80F20 		ldrb	r2, [sp, #15]	@ zero_extendqisi2
 6139 2294 9DF80330 		ldrb	r3, [sp, #3]
 6140 2298 1343     		orrs	r3, r3, r2
 6141 229a DBB2     		uxtb	r3, r3
 6142 229c 8DF80F30 		strb	r3, [sp, #15]
 6143              		.loc 1 2141 0
 6144 22a0 0DF10F03 		add	r3, sp, #15
 6145 22a4 0198     		ldr	r0, [sp, #4]
 6146 22a6 2E21     		movs	r1, #46
 6147 22a8 1A46     		mov	r2, r3
 6148 22aa 0123     		movs	r3, #1
 6149 22ac FFF7FEFF 		bl	LSM303AGR_ACC_WriteReg
 6150 22b0 0346     		mov	r3, r0
 6151 22b2 002B     		cmp	r3, #0
 6152 22b4 01D1     		bne	.L400
 6153              		.loc 1 2142 0
 6154 22b6 0023     		movs	r3, #0
 6155 22b8 00E0     		b	.L401
 6156              	.L400:
 6157              		.loc 1 2144 0
 6158 22ba 0123     		movs	r3, #1
 6159              	.L401:
 6160              		.loc 1 2145 0
 6161 22bc 1846     		mov	r0, r3
 6162 22be 05B0     		add	sp, sp, #20
 6163              		@ sp needed
 6164 22c0 5DF804FB 		ldr	pc, [sp], #4
 6165              		.cfi_endproc
 6166              	.LFE368:
 6167              		.size	LSM303AGR_ACC_W_FifoThreshold, .-LSM303AGR_ACC_W_FifoThreshold
 6168              		.align	2
 6169 22c4 AFF30080 		.p2align 4,,15
 6169      AFF30080 
ARM GAS  /tmp/cc1ELVNa.s 			page 111


 6169      AFF30080 
 6170              		.global	LSM303AGR_ACC_R_FifoThreshold
 6171              		.thumb
 6172              		.thumb_func
 6173              		.type	LSM303AGR_ACC_R_FifoThreshold, %function
 6174              	LSM303AGR_ACC_R_FifoThreshold:
 6175              	.LFB369:
 6176              		.loc 1 2155 0
 6177              		.cfi_startproc
 6178              		@ args = 0, pretend = 0, frame = 8
 6179              		@ frame_needed = 0, uses_anonymous_args = 0
 6180 22d0 00B5     		push	{lr}
 6181              		.cfi_def_cfa_offset 4
 6182              		.cfi_offset 14, -4
 6183 22d2 83B0     		sub	sp, sp, #12
 6184              		.cfi_def_cfa_offset 16
 6185 22d4 0190     		str	r0, [sp, #4]
 6186 22d6 0091     		str	r1, [sp]
 6187              		.loc 1 2156 0
 6188 22d8 0198     		ldr	r0, [sp, #4]
 6189 22da 2E21     		movs	r1, #46
 6190 22dc 009A     		ldr	r2, [sp]
 6191 22de 0123     		movs	r3, #1
 6192 22e0 FFF7FEFF 		bl	LSM303AGR_ACC_ReadReg
 6193 22e4 0346     		mov	r3, r0
 6194 22e6 002B     		cmp	r3, #0
 6195 22e8 01D1     		bne	.L403
 6196              		.loc 1 2157 0
 6197 22ea 0023     		movs	r3, #0
 6198 22ec 0BE0     		b	.L404
 6199              	.L403:
 6200              		.loc 1 2159 0
 6201 22ee 009B     		ldr	r3, [sp]
 6202 22f0 1B78     		ldrb	r3, [r3]	@ zero_extendqisi2
 6203 22f2 03F01F03 		and	r3, r3, #31
 6204 22f6 DAB2     		uxtb	r2, r3
 6205 22f8 009B     		ldr	r3, [sp]
 6206 22fa 1A70     		strb	r2, [r3]
 6207              		.loc 1 2160 0
 6208 22fc 009B     		ldr	r3, [sp]
 6209 22fe 1A78     		ldrb	r2, [r3]	@ zero_extendqisi2
 6210 2300 009B     		ldr	r3, [sp]
 6211 2302 1A70     		strb	r2, [r3]
 6212              		.loc 1 2162 0
 6213 2304 0123     		movs	r3, #1
 6214              	.L404:
 6215              		.loc 1 2163 0
 6216 2306 1846     		mov	r0, r3
 6217 2308 03B0     		add	sp, sp, #12
 6218              		@ sp needed
 6219 230a 5DF804FB 		ldr	pc, [sp], #4
 6220              		.cfi_endproc
 6221              	.LFE369:
 6222              		.size	LSM303AGR_ACC_R_FifoThreshold, .-LSM303AGR_ACC_R_FifoThreshold
 6223 230e 00BF     		.align	2
 6224              		.p2align 4,,15
 6225              		.global	LSM303AGR_ACC_W_TriggerSel
ARM GAS  /tmp/cc1ELVNa.s 			page 112


 6226              		.thumb
 6227              		.thumb_func
 6228              		.type	LSM303AGR_ACC_W_TriggerSel, %function
 6229              	LSM303AGR_ACC_W_TriggerSel:
 6230              	.LFB370:
 6231              		.loc 1 2173 0
 6232              		.cfi_startproc
 6233              		@ args = 0, pretend = 0, frame = 16
 6234              		@ frame_needed = 0, uses_anonymous_args = 0
 6235 2310 00B5     		push	{lr}
 6236              		.cfi_def_cfa_offset 4
 6237              		.cfi_offset 14, -4
 6238 2312 85B0     		sub	sp, sp, #20
 6239              		.cfi_def_cfa_offset 24
 6240 2314 0190     		str	r0, [sp, #4]
 6241 2316 0B46     		mov	r3, r1
 6242 2318 8DF80330 		strb	r3, [sp, #3]
 6243              		.loc 1 2176 0
 6244 231c 0DF10F03 		add	r3, sp, #15
 6245 2320 0198     		ldr	r0, [sp, #4]
 6246 2322 2E21     		movs	r1, #46
 6247 2324 1A46     		mov	r2, r3
 6248 2326 0123     		movs	r3, #1
 6249 2328 FFF7FEFF 		bl	LSM303AGR_ACC_ReadReg
 6250 232c 0346     		mov	r3, r0
 6251 232e 002B     		cmp	r3, #0
 6252 2330 01D1     		bne	.L406
 6253              		.loc 1 2177 0
 6254 2332 0023     		movs	r3, #0
 6255 2334 1CE0     		b	.L409
 6256              	.L406:
 6257              		.loc 1 2179 0
 6258 2336 9DF80F30 		ldrb	r3, [sp, #15]	@ zero_extendqisi2
 6259 233a 23F02003 		bic	r3, r3, #32
 6260 233e DBB2     		uxtb	r3, r3
 6261 2340 8DF80F30 		strb	r3, [sp, #15]
 6262              		.loc 1 2180 0
 6263 2344 9DF80F20 		ldrb	r2, [sp, #15]	@ zero_extendqisi2
 6264 2348 9DF80330 		ldrb	r3, [sp, #3]
 6265 234c 1343     		orrs	r3, r3, r2
 6266 234e DBB2     		uxtb	r3, r3
 6267 2350 8DF80F30 		strb	r3, [sp, #15]
 6268              		.loc 1 2182 0
 6269 2354 0DF10F03 		add	r3, sp, #15
 6270 2358 0198     		ldr	r0, [sp, #4]
 6271 235a 2E21     		movs	r1, #46
 6272 235c 1A46     		mov	r2, r3
 6273 235e 0123     		movs	r3, #1
 6274 2360 FFF7FEFF 		bl	LSM303AGR_ACC_WriteReg
 6275 2364 0346     		mov	r3, r0
 6276 2366 002B     		cmp	r3, #0
 6277 2368 01D1     		bne	.L408
 6278              		.loc 1 2183 0
 6279 236a 0023     		movs	r3, #0
 6280 236c 00E0     		b	.L409
 6281              	.L408:
 6282              		.loc 1 2185 0
ARM GAS  /tmp/cc1ELVNa.s 			page 113


 6283 236e 0123     		movs	r3, #1
 6284              	.L409:
 6285              		.loc 1 2186 0
 6286 2370 1846     		mov	r0, r3
 6287 2372 05B0     		add	sp, sp, #20
 6288              		@ sp needed
 6289 2374 5DF804FB 		ldr	pc, [sp], #4
 6290              		.cfi_endproc
 6291              	.LFE370:
 6292              		.size	LSM303AGR_ACC_W_TriggerSel, .-LSM303AGR_ACC_W_TriggerSel
 6293              		.align	2
 6294 2378 AFF30080 		.p2align 4,,15
 6294      AFF30080 
 6295              		.global	LSM303AGR_ACC_R_TriggerSel
 6296              		.thumb
 6297              		.thumb_func
 6298              		.type	LSM303AGR_ACC_R_TriggerSel, %function
 6299              	LSM303AGR_ACC_R_TriggerSel:
 6300              	.LFB371:
 6301              		.loc 1 2196 0
 6302              		.cfi_startproc
 6303              		@ args = 0, pretend = 0, frame = 8
 6304              		@ frame_needed = 0, uses_anonymous_args = 0
 6305 2380 00B5     		push	{lr}
 6306              		.cfi_def_cfa_offset 4
 6307              		.cfi_offset 14, -4
 6308 2382 83B0     		sub	sp, sp, #12
 6309              		.cfi_def_cfa_offset 16
 6310 2384 0190     		str	r0, [sp, #4]
 6311 2386 0091     		str	r1, [sp]
 6312              		.loc 1 2197 0
 6313 2388 0198     		ldr	r0, [sp, #4]
 6314 238a 2E21     		movs	r1, #46
 6315 238c 009A     		ldr	r2, [sp]
 6316 238e 0123     		movs	r3, #1
 6317 2390 FFF7FEFF 		bl	LSM303AGR_ACC_ReadReg
 6318 2394 0346     		mov	r3, r0
 6319 2396 002B     		cmp	r3, #0
 6320 2398 01D1     		bne	.L411
 6321              		.loc 1 2198 0
 6322 239a 0023     		movs	r3, #0
 6323 239c 07E0     		b	.L412
 6324              	.L411:
 6325              		.loc 1 2200 0
 6326 239e 009B     		ldr	r3, [sp]
 6327 23a0 1B78     		ldrb	r3, [r3]	@ zero_extendqisi2
 6328 23a2 03F02003 		and	r3, r3, #32
 6329 23a6 DAB2     		uxtb	r2, r3
 6330 23a8 009B     		ldr	r3, [sp]
 6331 23aa 1A70     		strb	r2, [r3]
 6332              		.loc 1 2202 0
 6333 23ac 0123     		movs	r3, #1
 6334              	.L412:
 6335              		.loc 1 2203 0
 6336 23ae 1846     		mov	r0, r3
 6337 23b0 03B0     		add	sp, sp, #12
 6338              		@ sp needed
ARM GAS  /tmp/cc1ELVNa.s 			page 114


 6339 23b2 5DF804FB 		ldr	pc, [sp], #4
 6340              		.cfi_endproc
 6341              	.LFE371:
 6342              		.size	LSM303AGR_ACC_R_TriggerSel, .-LSM303AGR_ACC_R_TriggerSel
 6343 23b6 00BF     		.align	2
 6344 23b8 AFF30080 		.p2align 4,,15
 6344      AFF30080 
 6345              		.global	LSM303AGR_ACC_W_FifoMode
 6346              		.thumb
 6347              		.thumb_func
 6348              		.type	LSM303AGR_ACC_W_FifoMode, %function
 6349              	LSM303AGR_ACC_W_FifoMode:
 6350              	.LFB372:
 6351              		.loc 1 2213 0
 6352              		.cfi_startproc
 6353              		@ args = 0, pretend = 0, frame = 16
 6354              		@ frame_needed = 0, uses_anonymous_args = 0
 6355 23c0 00B5     		push	{lr}
 6356              		.cfi_def_cfa_offset 4
