ARM GAS  /tmp/ccrik0hm.s 			page 1


   1              		.syntax unified
   2              		.cpu cortex-m4
   3              		.fpu softvfp
   4              		.eabi_attribute 20, 1
   5              		.eabi_attribute 21, 1
   6              		.eabi_attribute 23, 3
   7              		.eabi_attribute 24, 1
   8              		.eabi_attribute 25, 1
   9              		.eabi_attribute 26, 1
  10              		.eabi_attribute 30, 6
  11              		.eabi_attribute 34, 1
  12              		.eabi_attribute 18, 4
  13              		.thumb
  14              		.file	"main.c"
  15              		.text
  16              	.Ltext0:
  17              		.cfi_sections	.debug_frame
  18              		.align	2
  19              		.p2align 4,,15
  20              		.thumb
  21              		.thumb_func
  22              		.type	chThdTerminatedX, %function
  23              	chThdTerminatedX:
  24              	.LFB180:
  25              		.file 1 "../../ChibiOS/os/rt/include/chthreads.h"
  26              		.loc 1 218 0
  27              		.cfi_startproc
  28              		@ args = 0, pretend = 0, frame = 8
  29              		@ frame_needed = 0, uses_anonymous_args = 0
  30              		@ link register save eliminated.
  31 0000 82B0     		sub	sp, sp, #8
  32              		.cfi_def_cfa_offset 8
  33 0002 0190     		str	r0, [sp, #4]
  34              		.loc 1 220 0
  35 0004 019B     		ldr	r3, [sp, #4]
  36 0006 1B7F     		ldrb	r3, [r3, #28]	@ zero_extendqisi2
  37 0008 0F2B     		cmp	r3, #15
  38 000a 14BF     		ite	ne
  39 000c 0023     		movne	r3, #0
  40 000e 0123     		moveq	r3, #1
  41 0010 DBB2     		uxtb	r3, r3
  42              		.loc 1 221 0
  43 0012 1846     		mov	r0, r3
  44 0014 02B0     		add	sp, sp, #8
  45              		@ sp needed
  46 0016 7047     		bx	lr
  47              		.cfi_endproc
  48              	.LFE180:
  49              		.size	chThdTerminatedX, .-chThdTerminatedX
  50              		.align	2
  51 0018 AFF30080 		.p2align 4,,15
  51      AFF30080 
  52              		.thumb
  53              		.thumb_func
  54              		.type	chRegSetThreadName, %function
  55              	chRegSetThreadName:
  56              	.LFB187:
ARM GAS  /tmp/ccrik0hm.s 			page 2


  57              		.file 2 "../../ChibiOS/os/rt/include/chregistry.h"
  58              		.loc 2 132 0
  59              		.cfi_startproc
  60              		@ args = 0, pretend = 0, frame = 8
  61              		@ frame_needed = 0, uses_anonymous_args = 0
  62              		@ link register save eliminated.
  63 0020 82B0     		sub	sp, sp, #8
  64              		.cfi_def_cfa_offset 8
  65 0022 0190     		str	r0, [sp, #4]
  66              		.loc 2 135 0
  67 0024 024B     		ldr	r3, .L4
  68 0026 9B69     		ldr	r3, [r3, #24]
  69 0028 019A     		ldr	r2, [sp, #4]
  70 002a 9A61     		str	r2, [r3, #24]
  71              		.loc 2 139 0
  72 002c 02B0     		add	sp, sp, #8
  73              		@ sp needed
  74 002e 7047     		bx	lr
  75              	.L5:
  76              		.align	2
  77              	.L4:
  78 0030 00000000 		.word	ch
  79              		.cfi_endproc
  80              	.LFE187:
  81              		.size	chRegSetThreadName, .-chRegSetThreadName
  82              		.global	people_count
  83              		.bss
  84              		.align	2
  85              		.type	people_count, %object
  86              		.size	people_count, 4
  87              	people_count:
  88 0000 00000000 		.space	4
  89              		.global	people_counts_in_a_row
  90              		.align	2
  91              		.type	people_counts_in_a_row, %object
  92              		.size	people_counts_in_a_row, 4
  93              	people_counts_in_a_row:
  94 0004 00000000 		.space	4
  95              		.global	zero_counts_in_a_row
  96              		.align	2
  97              		.type	zero_counts_in_a_row, %object
  98              		.size	zero_counts_in_a_row, 4
  99              	zero_counts_in_a_row:
 100 0008 00000000 		.space	4
 101              		.global	calibrated_axes
 102              		.data
 103              		.align	2
 104              		.type	calibrated_axes, %object
 105              		.size	calibrated_axes, 12
 106              	calibrated_axes:
 107 0000 00000000 		.word	0
 108 0004 00000000 		.word	0
 109 0008 E8030000 		.word	1000
 110              		.global	start_tcp
 111              		.align	2
 112              		.type	start_tcp, %object
 113              		.size	start_tcp, 4
ARM GAS  /tmp/ccrik0hm.s 			page 3


 114              	start_tcp:
 115 000c 01000000 		.word	1
 116              		.comm	i,4,4
 117              		.comm	timestamp_data,6000,4
 118              		.global	num_timestamps
 119              		.bss
 120              		.align	2
 121              		.type	num_timestamps, %object
 122              		.size	num_timestamps, 4
 123              	num_timestamps:
 124 000c 00000000 		.space	4
 125              		.comm	start_time,8,4
 126              		.comm	EUARTH,24,4
 127              		.text
 128              		.align	2
 129 0034 AFF30080 		.p2align 4,,15
 129      AFF30080 
 129      AFF30080 
 130              		.thumb
 131              		.thumb_func
 132              		.type	long_to_string_with_divisor, %function
 133              	long_to_string_with_divisor:
 134              	.LFB267:
 135              		.file 3 "main.c"
 136              		.loc 3 60 0
 137              		.cfi_startproc
 138              		@ args = 0, pretend = 0, frame = 32
 139              		@ frame_needed = 0, uses_anonymous_args = 0
 140              		@ link register save eliminated.
 141 0040 88B0     		sub	sp, sp, #32
 142              		.cfi_def_cfa_offset 32
 143 0042 0390     		str	r0, [sp, #12]
 144 0044 0291     		str	r1, [sp, #8]
 145 0046 0192     		str	r2, [sp, #4]
 146 0048 0093     		str	r3, [sp]
 147              		.loc 3 65 0
 148 004a 029B     		ldr	r3, [sp, #8]
 149 004c 0593     		str	r3, [sp, #20]
 150              		.loc 3 66 0
 151 004e 009B     		ldr	r3, [sp]
 152 0050 002B     		cmp	r3, #0
 153 0052 02D1     		bne	.L7
 154              		.loc 3 67 0
 155 0054 029B     		ldr	r3, [sp, #8]
 156 0056 0493     		str	r3, [sp, #16]
 157 0058 01E0     		b	.L8
 158              	.L7:
 159              		.loc 3 69 0
 160 005a 009B     		ldr	r3, [sp]
 161 005c 0493     		str	r3, [sp, #16]
 162              	.L8:
 163              		.loc 3 72 0
 164 005e 039B     		ldr	r3, [sp, #12]
 165 0060 0B33     		adds	r3, r3, #11
 166 0062 0693     		str	r3, [sp, #24]
 167              	.L10:
 168              		.loc 3 74 0
ARM GAS  /tmp/ccrik0hm.s 			page 4


 169 0064 059B     		ldr	r3, [sp, #20]
 170 0066 019A     		ldr	r2, [sp, #4]
 171 0068 B3FBF2F2 		udiv	r2, r3, r2
 172 006c 0199     		ldr	r1, [sp, #4]
 173 006e 01FB02F2 		mul	r2, r1, r2
 174 0072 9B1A     		subs	r3, r3, r2
 175 0074 0793     		str	r3, [sp, #28]
 176              		.loc 3 75 0
 177 0076 079B     		ldr	r3, [sp, #28]
 178 0078 3033     		adds	r3, r3, #48
 179 007a 0793     		str	r3, [sp, #28]
 180              		.loc 3 76 0
 181 007c 079B     		ldr	r3, [sp, #28]
 182 007e 392B     		cmp	r3, #57
 183 0080 02DD     		ble	.L9
 184              		.loc 3 77 0
 185 0082 079B     		ldr	r3, [sp, #28]
 186 0084 0733     		adds	r3, r3, #7
 187 0086 0793     		str	r3, [sp, #28]
 188              	.L9:
 189              		.loc 3 78 0
 190 0088 069B     		ldr	r3, [sp, #24]
 191 008a 013B     		subs	r3, r3, #1
 192 008c 0693     		str	r3, [sp, #24]
 193 008e 079B     		ldr	r3, [sp, #28]
 194 0090 DAB2     		uxtb	r2, r3
 195 0092 069B     		ldr	r3, [sp, #24]
 196 0094 1A70     		strb	r2, [r3]
 197              		.loc 3 79 0
 198 0096 059A     		ldr	r2, [sp, #20]
 199 0098 019B     		ldr	r3, [sp, #4]
 200 009a B2FBF3F3 		udiv	r3, r2, r3
 201 009e 0593     		str	r3, [sp, #20]
 202              		.loc 3 80 0
 203 00a0 049A     		ldr	r2, [sp, #16]
 204 00a2 019B     		ldr	r3, [sp, #4]
 205 00a4 B2FBF3F3 		udiv	r3, r2, r3
 206 00a8 0493     		str	r3, [sp, #16]
 207 00aa 049B     		ldr	r3, [sp, #16]
 208 00ac 002B     		cmp	r3, #0
 209 00ae D9D1     		bne	.L10
 210              		.loc 3 82 0
 211 00b0 039B     		ldr	r3, [sp, #12]
 212 00b2 0B33     		adds	r3, r3, #11
 213 00b4 1A46     		mov	r2, r3
 214 00b6 069B     		ldr	r3, [sp, #24]
 215 00b8 D31A     		subs	r3, r2, r3
 216 00ba 0793     		str	r3, [sp, #28]
 217              	.L11:
 218              		.loc 3 84 0 discriminator 1
 219 00bc 039B     		ldr	r3, [sp, #12]
 220 00be 5A1C     		adds	r2, r3, #1
 221 00c0 0392     		str	r2, [sp, #12]
 222 00c2 069A     		ldr	r2, [sp, #24]
 223 00c4 511C     		adds	r1, r2, #1
 224 00c6 0691     		str	r1, [sp, #24]
 225 00c8 1278     		ldrb	r2, [r2]	@ zero_extendqisi2
ARM GAS  /tmp/ccrik0hm.s 			page 5


 226 00ca 1A70     		strb	r2, [r3]
 227              		.loc 3 85 0 discriminator 1
 228 00cc 079B     		ldr	r3, [sp, #28]
 229 00ce 013B     		subs	r3, r3, #1
 230 00d0 0793     		str	r3, [sp, #28]
 231 00d2 079B     		ldr	r3, [sp, #28]
 232 00d4 002B     		cmp	r3, #0
 233 00d6 F1D1     		bne	.L11
 234              		.loc 3 87 0
 235 00d8 039B     		ldr	r3, [sp, #12]
 236              		.loc 3 88 0
 237 00da 1846     		mov	r0, r3
 238 00dc 08B0     		add	sp, sp, #32
 239              		@ sp needed
 240 00de 7047     		bx	lr
 241              		.cfi_endproc
 242              	.LFE267:
 243              		.size	long_to_string_with_divisor, .-long_to_string_with_divisor
 244              		.align	2
 245              		.p2align 4,,15
 246              		.thumb
 247              		.thumb_func
 248              		.type	ch_ltoa, %function
 249              	ch_ltoa:
 250              	.LFB268:
 251              		.loc 3 90 0
 252              		.cfi_startproc
 253              		@ args = 0, pretend = 0, frame = 16
 254              		@ frame_needed = 0, uses_anonymous_args = 0
 255 00e0 00B5     		push	{lr}
 256              		.cfi_def_cfa_offset 4
 257              		.cfi_offset 14, -4
 258 00e2 85B0     		sub	sp, sp, #20
 259              		.cfi_def_cfa_offset 24
 260 00e4 0390     		str	r0, [sp, #12]
 261 00e6 0291     		str	r1, [sp, #8]
 262 00e8 0192     		str	r2, [sp, #4]
 263              		.loc 3 92 0
 264 00ea 0398     		ldr	r0, [sp, #12]
 265 00ec 0299     		ldr	r1, [sp, #8]
 266 00ee 019A     		ldr	r2, [sp, #4]
 267 00f0 0023     		movs	r3, #0
 268 00f2 FFF7A5FF 		bl	long_to_string_with_divisor
 269 00f6 0346     		mov	r3, r0
 270              		.loc 3 93 0
 271 00f8 1846     		mov	r0, r3
 272 00fa 05B0     		add	sp, sp, #20
 273              		@ sp needed
 274 00fc 5DF804FB 		ldr	pc, [sp], #4
 275              		.cfi_endproc
 276              	.LFE268:
 277              		.size	ch_ltoa, .-ch_ltoa
 278              		.bss
 279              		.align	3
 280              	waCounterThread:
 281 0010 00000000 		.space	328
 281      00000000 
ARM GAS  /tmp/ccrik0hm.s 			page 6


 281      00000000 
 281      00000000 
 281      00000000 
 282              		.section	.rodata
 283              		.align	2
 284              	.LC0:
 285 0000 626C696E 		.ascii	"blinker\000"
 285      6B657200 
 286              		.text
 287              		.align	2
 288              		.p2align 4,,15
 289              		.thumb
 290              		.thumb_func
 291              		.type	counterThread, %function
 292              	counterThread:
 293              	.LFB269:
 294              		.loc 3 122 0
 295              		.cfi_startproc
 296              		@ args = 0, pretend = 0, frame = 8
 297              		@ frame_needed = 0, uses_anonymous_args = 0
 298 0100 00B5     		push	{lr}
 299              		.cfi_def_cfa_offset 4
 300              		.cfi_offset 14, -4
 301 0102 83B0     		sub	sp, sp, #12
 302              		.cfi_def_cfa_offset 16
 303 0104 0190     		str	r0, [sp, #4]
 304              		.loc 3 124 0
 305 0106 0A48     		ldr	r0, .L17
 306 0108 FFF78AFF 		bl	chRegSetThreadName
 307              	.L16:
 308              		.loc 3 126 0 discriminator 1
 309 010c 094B     		ldr	r3, .L17+4
 310 010e 4FF48052 		mov	r2, #4096
 311 0112 1A83     		strh	r2, [r3, #24]	@ movhi
 312              		.loc 3 127 0 discriminator 1
 313 0114 4CF25030 		movw	r0, #50000
 314 0118 FFF7FEFF 		bl	chThdSleep
 315              		.loc 3 128 0 discriminator 1
 316 011c 054B     		ldr	r3, .L17+4
 317 011e 4FF48052 		mov	r2, #4096
 318 0122 5A83     		strh	r2, [r3, #26]	@ movhi
 319              		.loc 3 129 0 discriminator 1
 320 0124 4CF25030 		movw	r0, #50000
 321 0128 FFF7FEFF 		bl	chThdSleep
 322              		.loc 3 130 0 discriminator 1
 323 012c EEE7     		b	.L16
 324              	.L18:
 325 012e 00BF     		.align	2
 326              	.L17:
 327 0130 00000000 		.word	.LC0
 328 0134 00180048 		.word	1207965696
 329              		.cfi_endproc
 330              	.LFE269:
 331              		.size	counterThread, .-counterThread
 332              		.bss
 333              		.align	3
 334              	waTCPThread:
ARM GAS  /tmp/ccrik0hm.s 			page 7


 335 0158 00000000 		.space	4296
 335      00000000 
 335      00000000 
 335      00000000 
 335      00000000 
 336              		.section	.rodata
 337              		.align	2
 338              	.LC1:
 339 0008 736F636B 		.ascii	"socket\000"
 339      657400
 340 000f 00       		.align	2
 341              	.LC2:
 342 0010 0A0D5354 		.ascii	"\012\015STARTING TCP\012\015\000"
 342      41525449 
 342      4E472054 
 342      43500A0D 
 342      00
 343 0021 000000   		.align	2
 344              	.LC3:
 345 0024 415400   		.ascii	"AT\000"
 346 0027 00       		.align	2
 347              	.LC4:
 348 0028 41542B43 		.ascii	"AT+CGATT?\000"
 348      47415454 
 348      3F00
 349 0032 0000     		.align	2
 350              	.LC5:
 351 0034 41542B43 		.ascii	"AT+CIPSHUT\000"
 351      49505348 
 351      555400
 352 003f 00       		.align	2
 353              	.LC6:
 354 0040 41542B43 		.ascii	"AT+CIPSTATUS\000"
 354      49505354 
 354      41545553 
 354      00
 355 004d 000000   		.align	2
 356              	.LC7:
 357 0050 41542B43 		.ascii	"AT+CIPMUX=0\000"
 357      49504D55 
 357      583D3000 
 358              		.align	2
 359              	.LC8:
 360 005c 41542B43 		.ascii	"AT+CSTT=\"wholesale\"\000"
 360      5354543D 
 360      2277686F 
 360      6C657361 
 360      6C652200 
 361              		.align	2
 362              	.LC9:
 363 0070 41542B43 		.ascii	"AT+CIICR\000"
 363      49494352 
 363      00
 364 0079 000000   		.align	2
 365              	.LC10:
 366 007c 41542B43 		.ascii	"AT+CIFSR\000"
 366      49465352 
ARM GAS  /tmp/ccrik0hm.s 			page 8


 366      00
 367 0085 000000   		.align	2
 368              	.LC11:
 369 0088 41542B43 		.ascii	"AT+CIPSTART=\"TCP\",\"silo.cs.indiana.edu\",\"50106"
 369      49505354 
 369      4152543D 
 369      22544350 
 369      222C2273 
 370 00b6 2200     		.ascii	"\"\000"
 371              		.align	2
 372              	.LC12:
 373 00b8 41542B43 		.ascii	"AT+CIPSEND=\000"
 373      49505345 
 373      4E443D00 
 374              		.align	2
 375              	.LC13:
 376 00c4 256300   		.ascii	"%c\000"
 377 00c7 00       		.align	2
 378              	.LC14:
 379 00c8 2C00     		.ascii	",\000"
 380 00ca 0000     		.align	2
 381              	.LC15:
 382 00cc 0A00     		.ascii	"\012\000"
 383 00ce 0000     		.align	2
 384              	.LC16:
 385 00d0 2000     		.ascii	" \000"
 386              		.text
 387              		.align	2
 388 0138 AFF30080 		.p2align 4,,15
 388      AFF30080 
 389              		.thumb
 390              		.thumb_func
 391              		.type	tcpThread, %function
 392              	tcpThread:
 393              	.LFB270:
 394              		.loc 3 135 0
 395              		.cfi_startproc
 396              		@ args = 0, pretend = 0, frame = 176
 397              		@ frame_needed = 0, uses_anonymous_args = 0
 398 0140 10B5     		push	{r4, lr}
 399              		.cfi_def_cfa_offset 8
 400              		.cfi_offset 4, -8
 401              		.cfi_offset 14, -4
 402 0142 ACB0     		sub	sp, sp, #176
 403              		.cfi_def_cfa_offset 184
 404 0144 0190     		str	r0, [sp, #4]
 405              		.loc 3 137 0
 406 0146 7B48     		ldr	r0, .L26
 407 0148 FFF76AFF 		bl	chRegSetThreadName
 408              		.loc 3 138 0
 409 014c 7A48     		ldr	r0, .L26+4
 410 014e FFF7FEFF 		bl	chThdSleep
 411              	.L25:
 412              		.loc 3 140 0
 413 0152 7A4B     		ldr	r3, .L26+8
 414 0154 1B68     		ldr	r3, [r3]
 415 0156 002B     		cmp	r3, #0
ARM GAS  /tmp/ccrik0hm.s 			page 9


 416 0158 00F0E780 		beq	.L20
 417              	.LBB2:
 418              		.loc 3 143 0
 419 015c 7848     		ldr	r0, .L26+12
 420 015e 7949     		ldr	r1, .L26+16
 421 0160 FFF7FEFF 		bl	chprintf
 422              		.loc 3 145 0
 423 0164 7848     		ldr	r0, .L26+20
 424 0166 7949     		ldr	r1, .L26+24
 425 0168 0222     		movs	r2, #2
 426 016a FFF7FEFF 		bl	EUARTSendCommand
 427              		.loc 3 146 0
 428 016e 7848     		ldr	r0, .L26+28
 429 0170 FFF7FEFF 		bl	chThdSleep
 430              		.loc 3 149 0
 431 0174 7448     		ldr	r0, .L26+20
 432 0176 7749     		ldr	r1, .L26+32
 433 0178 0922     		movs	r2, #9
 434 017a FFF7FEFF 		bl	EUARTSendCommand
 435              		.loc 3 150 0
 436 017e 7648     		ldr	r0, .L26+36
 437 0180 FFF7FEFF 		bl	chThdSleep
 438              		.loc 3 153 0
 439 0184 7048     		ldr	r0, .L26+20
 440 0186 7549     		ldr	r1, .L26+40
 441 0188 0A22     		movs	r2, #10
 442 018a FFF7FEFF 		bl	EUARTSendCommand
 443              		.loc 3 154 0
 444 018e 7248     		ldr	r0, .L26+36
 445 0190 FFF7FEFF 		bl	chThdSleep
 446              		.loc 3 157 0
 447 0194 6C48     		ldr	r0, .L26+20
 448 0196 7249     		ldr	r1, .L26+44
 449 0198 0C22     		movs	r2, #12
 450 019a FFF7FEFF 		bl	EUARTSendCommand
 451              		.loc 3 158 0
 452 019e 6E48     		ldr	r0, .L26+36
 453 01a0 FFF7FEFF 		bl	chThdSleep
 454              		.loc 3 161 0
 455 01a4 6848     		ldr	r0, .L26+20
 456 01a6 6F49     		ldr	r1, .L26+48
 457 01a8 0B22     		movs	r2, #11
 458 01aa FFF7FEFF 		bl	EUARTSendCommand
 459              		.loc 3 162 0
 460 01ae 6848     		ldr	r0, .L26+28
 461 01b0 FFF7FEFF 		bl	chThdSleep
 462              		.loc 3 168 0
 463 01b4 6448     		ldr	r0, .L26+20
 464 01b6 6C49     		ldr	r1, .L26+52
 465 01b8 1322     		movs	r2, #19
 466 01ba FFF7FEFF 		bl	EUARTSendCommand
 467              		.loc 3 169 0
 468 01be 6648     		ldr	r0, .L26+36
 469 01c0 FFF7FEFF 		bl	chThdSleep
 470              		.loc 3 172 0
 471 01c4 6048     		ldr	r0, .L26+20
 472 01c6 6949     		ldr	r1, .L26+56
ARM GAS  /tmp/ccrik0hm.s 			page 10


 473 01c8 0822     		movs	r2, #8
 474 01ca FFF7FEFF 		bl	EUARTSendCommand
 475              		.loc 3 173 0
 476 01ce 6848     		ldr	r0, .L26+60
 477 01d0 FFF7FEFF 		bl	chThdSleep
 478              		.loc 3 176 0
 479 01d4 5C48     		ldr	r0, .L26+20
 480 01d6 6749     		ldr	r1, .L26+64
 481 01d8 0822     		movs	r2, #8
 482 01da FFF7FEFF 		bl	EUARTSendCommand
 483              		.loc 3 177 0
 484 01de 5C48     		ldr	r0, .L26+28
 485 01e0 FFF7FEFF 		bl	chThdSleep
 486              		.loc 3 179 0
 487 01e4 5848     		ldr	r0, .L26+20
 488 01e6 6449     		ldr	r1, .L26+68
 489 01e8 2F22     		movs	r2, #47
 490 01ea FFF7FEFF 		bl	EUARTSendCommand
 491              		.loc 3 180 0
 492 01ee 5248     		ldr	r0, .L26+4
 493 01f0 FFF7FEFF 		bl	chThdSleep
 494              		.loc 3 184 0
 495 01f4 03AB     		add	r3, sp, #12
 496 01f6 614A     		ldr	r2, .L26+72
 497 01f8 07CA     		ldmia	r2, {r0, r1, r2}
 498 01fa 83E80700 		stmia	r3, {r0, r1, r2}
 499              		.loc 3 185 0
 500 01fe 604B     		ldr	r3, .L26+76
 501 0200 1A68     		ldr	r2, [r3]
 502 0202 1346     		mov	r3, r2
 503 0204 1B01     		lsls	r3, r3, #4
 504 0206 1344     		add	r3, r3, r2
 505 0208 5B00     		lsls	r3, r3, #1
 506 020a 2993     		str	r3, [sp, #164]
 507              		.loc 3 187 0
 508 020c 0BAB     		add	r3, sp, #44
 509 020e 1846     		mov	r0, r3
 510 0210 2999     		ldr	r1, [sp, #164]
 511 0212 0A22     		movs	r2, #10
 512 0214 FFF764FF 		bl	ch_ltoa
 513              		.loc 3 188 0
 514 0218 03AA     		add	r2, sp, #12
 515 021a 0BAB     		add	r3, sp, #44
 516 021c 1046     		mov	r0, r2
 517 021e 1946     		mov	r1, r3
 518 0220 FFF7FEFF 		bl	strcat
 519              		.loc 3 189 0
 520 0224 03AB     		add	r3, sp, #12
 521 0226 1846     		mov	r0, r3
 522 0228 FFF7FEFF 		bl	strlen
 523 022c 0346     		mov	r3, r0
 524 022e 03AA     		add	r2, sp, #12
 525 0230 4548     		ldr	r0, .L26+20
 526 0232 1146     		mov	r1, r2
 527 0234 1A46     		mov	r2, r3
 528 0236 FFF7FEFF 		bl	EUARTSendCommand
 529              		.loc 3 190 0
ARM GAS  /tmp/ccrik0hm.s 			page 11


 530 023a 4548     		ldr	r0, .L26+28
 531 023c FFF7FEFF 		bl	chThdSleep
 532              		.loc 3 196 0
 533 0240 0023     		movs	r3, #0
 534 0242 2A93     		str	r3, [sp, #168]
 535              		.loc 3 197 0
 536 0244 0023     		movs	r3, #0
 537 0246 2B93     		str	r3, [sp, #172]
 538 0248 55E0     		b	.L21
 539              	.L22:
 540              		.loc 3 198 0 discriminator 2
 541 024a 2B9A     		ldr	r2, [sp, #172]
 542 024c 1346     		mov	r3, r2
 543 024e 5B00     		lsls	r3, r3, #1
 544 0250 1344     		add	r3, r3, r2
 545 0252 9B00     		lsls	r3, r3, #2
 546 0254 4B4A     		ldr	r2, .L26+80
 547 0256 9918     		adds	r1, r3, r2
 548 0258 1BAA     		add	r2, sp, #108
 549 025a 28AB     		add	r3, sp, #160
 550 025c 0846     		mov	r0, r1
 551 025e 1146     		mov	r1, r2
 552 0260 1A46     		mov	r2, r3
 553 0262 FFF7FEFF 		bl	rtcConvertDateTimeToStructTm
 554              		.loc 3 199 0 discriminator 2
 555 0266 13AA     		add	r2, sp, #76
 556 0268 1BAB     		add	r3, sp, #108
 557 026a 1046     		mov	r0, r2
 558 026c 1F21     		movs	r1, #31
 559 026e 464A     		ldr	r2, .L26+84
 560 0270 FFF7FEFF 		bl	strftime
 561              		.loc 3 200 0 discriminator 2
 562 0274 13AB     		add	r3, sp, #76
 563 0276 1846     		mov	r0, r3
 564 0278 FFF7FEFF 		bl	strlen
 565 027c 0346     		mov	r3, r0
 566 027e 13AA     		add	r2, sp, #76
 567 0280 3148     		ldr	r0, .L26+20
 568 0282 1146     		mov	r1, r2
 569 0284 1A46     		mov	r2, r3
 570 0286 FFF7FEFF 		bl	EUARTSendCommand
 571              		.loc 3 201 0 discriminator 2
 572 028a 2F48     		ldr	r0, .L26+20
 573 028c 3F49     		ldr	r1, .L26+88
 574 028e 0122     		movs	r2, #1
 575 0290 FFF7FEFF 		bl	EUARTSendCommand
 576              		.loc 3 202 0 discriminator 2
 577 0294 3B49     		ldr	r1, .L26+80
 578 0296 2B9A     		ldr	r2, [sp, #172]
 579 0298 1346     		mov	r3, r2
 580 029a 5B00     		lsls	r3, r3, #1
 581 029c 1344     		add	r3, r3, r2
 582 029e 9B00     		lsls	r3, r3, #2
 583 02a0 0B44     		add	r3, r3, r1
 584 02a2 0833     		adds	r3, r3, #8
 585 02a4 1B68     		ldr	r3, [r3]
 586 02a6 24AA     		add	r2, sp, #144
ARM GAS  /tmp/ccrik0hm.s 			page 12


 587 02a8 1046     		mov	r0, r2
 588 02aa 1946     		mov	r1, r3
 589 02ac 0A22     		movs	r2, #10
 590 02ae FFF717FF 		bl	ch_ltoa
 591              		.loc 3 203 0 discriminator 2
 592 02b2 24AB     		add	r3, sp, #144
 593 02b4 1846     		mov	r0, r3
 594 02b6 FFF7FEFF 		bl	strlen
 595 02ba 0346     		mov	r3, r0
 596 02bc 24AA     		add	r2, sp, #144
 597 02be 2248     		ldr	r0, .L26+20
 598 02c0 1146     		mov	r1, r2
 599 02c2 1A46     		mov	r2, r3
 600 02c4 FFF7FEFF 		bl	EUARTSendCommand
 601              		.loc 3 204 0 discriminator 2
 602 02c8 1F48     		ldr	r0, .L26+20
 603 02ca 3149     		ldr	r1, .L26+92
 604 02cc 0122     		movs	r2, #1
 605 02ce FFF7FEFF 		bl	EUARTSendCommand
 606              		.loc 3 205 0 discriminator 2
 607 02d2 13AB     		add	r3, sp, #76
 608 02d4 1846     		mov	r0, r3
 609 02d6 FFF7FEFF 		bl	strlen
 610 02da 0446     		mov	r4, r0
 611 02dc 24AB     		add	r3, sp, #144
 612 02de 1846     		mov	r0, r3
 613 02e0 FFF7FEFF 		bl	strlen
 614 02e4 0346     		mov	r3, r0
 615 02e6 E218     		adds	r2, r4, r3
 616 02e8 2A9B     		ldr	r3, [sp, #168]
 617 02ea 1344     		add	r3, r3, r2
 618 02ec 0633     		adds	r3, r3, #6
 619 02ee 2A93     		str	r3, [sp, #168]
 620              		.loc 3 197 0 discriminator 2
 621 02f0 2B9B     		ldr	r3, [sp, #172]
 622 02f2 0133     		adds	r3, r3, #1
 623 02f4 2B93     		str	r3, [sp, #172]
 624              	.L21:
 625              		.loc 3 197 0 is_stmt 0 discriminator 1
 626 02f6 224B     		ldr	r3, .L26+76
 627 02f8 1B68     		ldr	r3, [r3]
 628 02fa 2B9A     		ldr	r2, [sp, #172]
 629 02fc 9A42     		cmp	r2, r3
 630 02fe A4DB     		blt	.L22
 631              		.loc 3 207 0 is_stmt 1
 632 0300 0023     		movs	r3, #0
 633 0302 2B93     		str	r3, [sp, #172]
 634 0304 06E0     		b	.L23
 635              	.L24:
 636              		.loc 3 208 0 discriminator 2
 637 0306 1048     		ldr	r0, .L26+20
 638 0308 2249     		ldr	r1, .L26+96
 639 030a FFF7FEFF 		bl	EUARTSendCommand
 640              		.loc 3 207 0 discriminator 2
 641 030e 2B9B     		ldr	r3, [sp, #172]
 642 0310 0233     		adds	r3, r3, #2
 643 0312 2B93     		str	r3, [sp, #172]
ARM GAS  /tmp/ccrik0hm.s 			page 13


 644              	.L23:
 645              		.loc 3 207 0 is_stmt 0 discriminator 1
 646 0314 299A     		ldr	r2, [sp, #164]
 647 0316 2A9B     		ldr	r3, [sp, #168]
 648 0318 D21A     		subs	r2, r2, r3
 649 031a 2B9B     		ldr	r3, [sp, #172]
 650 031c 9A42     		cmp	r2, r3
 651 031e F2DC     		bgt	.L24
 652              		.loc 3 211 0 is_stmt 1
 653 0320 0948     		ldr	r0, .L26+20
 654 0322 0E49     		ldr	r1, .L26+40
 655 0324 0A22     		movs	r2, #10
 656 0326 FFF7FEFF 		bl	EUARTSendCommand
 657              	.L20:
 658              	.LBE2:
 659              		.loc 3 216 0
 660 032a 1B48     		ldr	r0, .L26+100
 661 032c FFF7FEFF 		bl	chThdSleep
 662              		.loc 3 217 0
 663 0330 0FE7     		b	.L25
 664              	.L27:
 665 0332 00BF     		.align	2
 666              	.L26:
 667 0334 08000000 		.word	.LC1
 668 0338 20A10700 		.word	500000
 669 033c 00000000 		.word	start_tcp
 670 0340 00000000 		.word	SD5
 671 0344 10000000 		.word	.LC2
 672 0348 00000000 		.word	EUARTH
 673 034c 24000000 		.word	.LC3
 674 0350 A0860100 		.word	100000
 675 0354 28000000 		.word	.LC4
 676 0358 400D0300 		.word	200000
 677 035c 34000000 		.word	.LC5
 678 0360 40000000 		.word	.LC6
 679 0364 50000000 		.word	.LC7
 680 0368 5C000000 		.word	.LC8
 681 036c 70000000 		.word	.LC9
 682 0370 60E31600 		.word	1500000
 683 0374 7C000000 		.word	.LC10
 684 0378 88000000 		.word	.LC11
 685 037c B8000000 		.word	.LC12
 686 0380 00000000 		.word	num_timestamps
 687 0384 00000000 		.word	timestamp_data
 688 0388 C4000000 		.word	.LC13
 689 038c C8000000 		.word	.LC14
 690 0390 CC000000 		.word	.LC15
 691 0394 D0000000 		.word	.LC16
 692 0398 808D5B00 		.word	6000000
 693              		.cfi_endproc
 694              	.LFE270:
 695              		.size	tcpThread, .-tcpThread
 696              		.bss
 697              		.align	3
 698              	waTimeStamp:
 699 1220 00000000 		.space	4296
 699      00000000 
ARM GAS  /tmp/ccrik0hm.s 			page 14


 699      00000000 
 699      00000000 
 699      00000000 
 700              		.section	.rodata
 701 00d2 0000     		.align	2
 702              	.LC17:
 703 00d4 74696D65 		.ascii	"timestamp\000"
 703      7374616D 
 703      7000
 704 00de 0000     		.align	2
 705              	.LC18:
 706 00e0 0D576172 		.ascii	"\015Warning: Accelerometer Re-calibrated\015\012Pre"
 706      6E696E67 
 706      3A204163 
 706      63656C65 
 706      726F6D65 
 707 010a 76696F75 		.ascii	"vious data may not be accurate.\015\012\000"
 707      73206461 
 707      7461206D 
 707      6179206E 
 707      6F742062 
 708              		.text
 709              		.align	2
 710 039c AFF30080 		.p2align 4,,15
 711              		.thumb
 712              		.thumb_func
 713              		.type	timeStamp, %function
 714              	timeStamp:
 715              	.LFB271:
 716              		.loc 3 222 0
 717              		.cfi_startproc
 718              		@ args = 0, pretend = 0, frame = 8
 719              		@ frame_needed = 0, uses_anonymous_args = 0
 720 03a0 00B5     		push	{lr}
 721              		.cfi_def_cfa_offset 4
 722              		.cfi_offset 14, -4
 723 03a2 83B0     		sub	sp, sp, #12
 724              		.cfi_def_cfa_offset 16
 725 03a4 0190     		str	r0, [sp, #4]
 726              		.loc 3 224 0
 727 03a6 4C48     		ldr	r0, .L37
 728 03a8 FFF73AFE 		bl	chRegSetThreadName
 729              	.L35:
 730              		.loc 3 226 0
 731 03ac 4B4B     		ldr	r3, .L37+4
 732 03ae 1A68     		ldr	r2, [r3]
 733 03b0 1346     		mov	r3, r2
 734 03b2 5B00     		lsls	r3, r3, #1
 735 03b4 1344     		add	r3, r3, r2
 736 03b6 9B00     		lsls	r3, r3, #2
 737 03b8 494A     		ldr	r2, .L37+8
 738 03ba 1344     		add	r3, r3, r2
 739 03bc 4948     		ldr	r0, .L37+12
 740 03be 1946     		mov	r1, r3
 741 03c0 FFF7FEFF 		bl	rtcGetTime
 742              		.loc 3 227 0
 743 03c4 454B     		ldr	r3, .L37+4
ARM GAS  /tmp/ccrik0hm.s 			page 15


 744 03c6 1A68     		ldr	r2, [r3]
 745 03c8 1346     		mov	r3, r2
 746 03ca 5B00     		lsls	r3, r3, #1
 747 03cc 1344     		add	r3, r3, r2
 748 03ce 9B00     		lsls	r3, r3, #2
 749 03d0 434A     		ldr	r2, .L37+8
 750 03d2 1344     		add	r3, r3, r2
 751 03d4 4348     		ldr	r0, .L37+12
 752 03d6 1946     		mov	r1, r3
 753 03d8 FFF7FEFF 		bl	rtcSetTime
 754              		.loc 3 228 0
 755 03dc 3F4B     		ldr	r3, .L37+4
 756 03de 1B68     		ldr	r3, [r3]
 757 03e0 B3F5F97F 		cmp	r3, #498
 758 03e4 74DC     		bgt	.L29
 759              		.loc 3 229 0
 760 03e6 404B     		ldr	r3, .L37+16
 761 03e8 1B68     		ldr	r3, [r3]
 762 03ea 002B     		cmp	r3, #0
 763 03ec 08D1     		bne	.L30
 764              		.loc 3 230 0
 765 03ee 3F4B     		ldr	r3, .L37+20
 766 03f0 1B68     		ldr	r3, [r3]
 767 03f2 5A1C     		adds	r2, r3, #1
 768 03f4 3D4B     		ldr	r3, .L37+20
 769 03f6 1A60     		str	r2, [r3]
 770              		.loc 3 231 0
 771 03f8 3D4B     		ldr	r3, .L37+24
 772 03fa 0022     		movs	r2, #0
 773 03fc 1A60     		str	r2, [r3]
 774 03fe 07E0     		b	.L36
 775              	.L30:
 776              		.loc 3 234 0
 777 0400 3A4B     		ldr	r3, .L37+20
 778 0402 0022     		movs	r2, #0
 779 0404 1A60     		str	r2, [r3]
 780              		.loc 3 235 0
 781 0406 3A4B     		ldr	r3, .L37+24
 782 0408 1B68     		ldr	r3, [r3]
 783 040a 5A1C     		adds	r2, r3, #1
 784 040c 384B     		ldr	r3, .L37+24
 785 040e 1A60     		str	r2, [r3]
 786              	.L36:
 787              		.loc 3 238 0
 788 0410 324B     		ldr	r3, .L37+4
 789 0412 1A68     		ldr	r2, [r3]
 790 0414 344B     		ldr	r3, .L37+16
 791 0416 1968     		ldr	r1, [r3]
 792 0418 3148     		ldr	r0, .L37+8
 793 041a 1346     		mov	r3, r2
 794 041c 5B00     		lsls	r3, r3, #1
 795 041e 1344     		add	r3, r3, r2
 796 0420 9B00     		lsls	r3, r3, #2
 797 0422 0344     		add	r3, r3, r0
 798 0424 0833     		adds	r3, r3, #8
 799 0426 1960     		str	r1, [r3]
 800              		.loc 3 239 0
ARM GAS  /tmp/ccrik0hm.s 			page 16


 801 0428 2F4B     		ldr	r3, .L37+16
 802 042a 0022     		movs	r2, #0
 803 042c 1A60     		str	r2, [r3]
 804              		.loc 3 240 0
 805 042e 2B4B     		ldr	r3, .L37+4
 806 0430 1B68     		ldr	r3, [r3]
 807 0432 5A1C     		adds	r2, r3, #1
 808 0434 294B     		ldr	r3, .L37+4
 809 0436 1A60     		str	r2, [r3]
 810              		.loc 3 243 0
 811 0438 2C4B     		ldr	r3, .L37+20
 812 043a 1A68     		ldr	r2, [r3]
 813 043c 1346     		mov	r3, r2
 814 043e 1B01     		lsls	r3, r3, #4
 815 0440 9B1A     		subs	r3, r3, r2
 816 0442 B3F5167F 		cmp	r3, #600
 817 0446 07DC     		bgt	.L32
 818              		.loc 3 244 0 discriminator 1
 819 0448 294B     		ldr	r3, .L37+24
 820 044a 1A68     		ldr	r2, [r3]
 821 044c 1346     		mov	r3, r2
 822 044e 1B01     		lsls	r3, r3, #4
 823 0450 9B1A     		subs	r3, r3, r2
 824              		.loc 3 243 0 discriminator 1
 825 0452 B3F5167F 		cmp	r3, #600
 826 0456 3BDD     		ble	.L29
 827              	.L32:
 828              		.loc 3 246 0
 829 0458 0020     		movs	r0, #0
 830 045a 2649     		ldr	r1, .L37+28
 831 045c FFF7FEFF 		bl	LSM303AGR_ACC_Get_Acceleration
 832              		.loc 3 247 0
 833 0460 2548     		ldr	r0, .L37+32
 834 0462 2649     		ldr	r1, .L37+36
 835 0464 FFF7FEFF 		bl	chprintf
 836              		.loc 3 248 0
 837 0468 1C4B     		ldr	r3, .L37+4
 838 046a 1A68     		ldr	r2, [r3]
 839 046c 1346     		mov	r3, r2
 840 046e 5B00     		lsls	r3, r3, #1
 841 0470 1344     		add	r3, r3, r2
 842 0472 9B00     		lsls	r3, r3, #2
 843 0474 1A4A     		ldr	r2, .L37+8
 844 0476 1344     		add	r3, r3, r2
 845 0478 1A48     		ldr	r0, .L37+12
 846 047a 1946     		mov	r1, r3
 847 047c FFF7FEFF 		bl	rtcGetTime
 848              		.loc 3 249 0
 849 0480 1A4B     		ldr	r3, .L37+20
 850 0482 1B68     		ldr	r3, [r3]
 851 0484 002B     		cmp	r3, #0
 852 0486 0CDD     		ble	.L33
 853              		.loc 3 250 0
 854 0488 144B     		ldr	r3, .L37+4
 855 048a 1A68     		ldr	r2, [r3]
 856 048c 1449     		ldr	r1, .L37+8
 857 048e 1346     		mov	r3, r2
ARM GAS  /tmp/ccrik0hm.s 			page 17


 858 0490 5B00     		lsls	r3, r3, #1
 859 0492 1344     		add	r3, r3, r2
 860 0494 9B00     		lsls	r3, r3, #2
 861 0496 0B44     		add	r3, r3, r1
 862 0498 0833     		adds	r3, r3, #8
 863 049a 4FF0FF32 		mov	r2, #-1
 864 049e 1A60     		str	r2, [r3]
 865 04a0 0BE0     		b	.L34
 866              	.L33:
 867              		.loc 3 251 0
 868 04a2 0E4B     		ldr	r3, .L37+4
 869 04a4 1A68     		ldr	r2, [r3]
 870 04a6 0E49     		ldr	r1, .L37+8
 871 04a8 1346     		mov	r3, r2
 872 04aa 5B00     		lsls	r3, r3, #1
 873 04ac 1344     		add	r3, r3, r2
 874 04ae 9B00     		lsls	r3, r3, #2
 875 04b0 0B44     		add	r3, r3, r1
 876 04b2 0833     		adds	r3, r3, #8
 877 04b4 6FF00102 		mvn	r2, #1
 878 04b8 1A60     		str	r2, [r3]
 879              	.L34:
 880              		.loc 3 252 0
 881 04ba 084B     		ldr	r3, .L37+4
 882 04bc 1B68     		ldr	r3, [r3]
 883 04be 5A1C     		adds	r2, r3, #1
 884 04c0 064B     		ldr	r3, .L37+4
 885 04c2 1A60     		str	r2, [r3]
 886              		.loc 3 253 0
 887 04c4 094B     		ldr	r3, .L37+20
 888 04c6 0022     		movs	r2, #0
 889 04c8 1A60     		str	r2, [r3]
 890              		.loc 3 254 0
 891 04ca 094B     		ldr	r3, .L37+24
 892 04cc 0022     		movs	r2, #0
 893 04ce 1A60     		str	r2, [r3]
 894              	.L29:
 895              		.loc 3 260 0
 896 04d0 0B48     		ldr	r0, .L37+40
 897 04d2 FFF7FEFF 		bl	chThdSleep
 898              		.loc 3 261 0
 899 04d6 69E7     		b	.L35
 900              	.L38:
 901              		.align	2
 902              	.L37:
 903 04d8 D4000000 		.word	.LC17
 904 04dc 00000000 		.word	num_timestamps
 905 04e0 00000000 		.word	timestamp_data
 906 04e4 00000000 		.word	RTCD1
 907 04e8 00000000 		.word	people_count
 908 04ec 00000000 		.word	zero_counts_in_a_row
 909 04f0 00000000 		.word	people_counts_in_a_row
 910 04f4 00000000 		.word	calibrated_axes
 911 04f8 00000000 		.word	SD5
 912 04fc E0000000 		.word	.LC18
 913 0500 60E31600 		.word	1500000
 914              		.cfi_endproc
ARM GAS  /tmp/ccrik0hm.s 			page 18


 915              	.LFE271:
 916              		.size	timeStamp, .-timeStamp
 917              		.comm	waCheckThreshold,4296,8
 918              		.section	.rodata
 919              		.align	2
 920              	.LC19:
 921 012c 63686563 		.ascii	"checkthreshold\000"
 921      6B746872 
 921      6573686F 
 921      6C6400
 922              		.text
 923              		.align	2
 924 0504 AFF30080 		.p2align 4,,15
 924      AFF30080 
 924      AFF30080 
 925              		.global	checkThreshold
 926              		.thumb
 927              		.thumb_func
 928              		.type	checkThreshold, %function
 929              	checkThreshold:
 930              	.LFB272:
 931              		.loc 3 268 0
 932              		.cfi_startproc
 933              		@ args = 0, pretend = 0, frame = 24
 934              		@ frame_needed = 0, uses_anonymous_args = 0
 935 0510 00B5     		push	{lr}
 936              		.cfi_def_cfa_offset 4
 937              		.cfi_offset 14, -4
 938 0512 87B0     		sub	sp, sp, #28
 939              		.cfi_def_cfa_offset 32
 940 0514 0190     		str	r0, [sp, #4]
 941              		.loc 3 271 0
 942 0516 1748     		ldr	r0, .L42
 943 0518 FFF782FD 		bl	chRegSetThreadName
 944              	.L41:
 945              		.loc 3 275 0
 946 051c 02AB     		add	r3, sp, #8
 947 051e 0020     		movs	r0, #0
 948 0520 1946     		mov	r1, r3
 949 0522 FFF7FEFF 		bl	LSM303AGR_ACC_Get_Acceleration
 950              		.loc 3 276 0
 951 0526 029A     		ldr	r2, [sp, #8]
 952 0528 134B     		ldr	r3, .L42+4
 953 052a 1B68     		ldr	r3, [r3]
 954 052c D31A     		subs	r3, r2, r3
 955 052e 83EAE372 		eor	r2, r3, r3, asr #31
 956 0532 A2EBE372 		sub	r2, r2, r3, asr #31
 957              		.loc 3 277 0
 958 0536 0399     		ldr	r1, [sp, #12]
 959 0538 0F4B     		ldr	r3, .L42+4
 960 053a 5B68     		ldr	r3, [r3, #4]
 961 053c CB1A     		subs	r3, r1, r3
 962 053e 002B     		cmp	r3, #0
 963 0540 B8BF     		it	lt
 964 0542 5B42     		rsblt	r3, r3, #0
 965 0544 1A44     		add	r2, r2, r3
 966              		.loc 3 278 0
ARM GAS  /tmp/ccrik0hm.s 			page 19


 967 0546 0499     		ldr	r1, [sp, #16]
 968 0548 0B4B     		ldr	r3, .L42+4
 969 054a 9B68     		ldr	r3, [r3, #8]
 970 054c CB1A     		subs	r3, r1, r3
 971 054e 002B     		cmp	r3, #0
 972 0550 B8BF     		it	lt
 973 0552 5B42     		rsblt	r3, r3, #0
 974              		.loc 3 276 0
 975 0554 1344     		add	r3, r3, r2
 976 0556 0593     		str	r3, [sp, #20]
 977              		.loc 3 280 0
 978 0558 059B     		ldr	r3, [sp, #20]
 979 055a B3F5FA7F 		cmp	r3, #500
 980 055e 04DD     		ble	.L40
 981              		.loc 3 281 0
 982 0560 064B     		ldr	r3, .L42+8
 983 0562 1B68     		ldr	r3, [r3]
 984 0564 5A1C     		adds	r2, r3, #1
 985 0566 054B     		ldr	r3, .L42+8
 986 0568 1A60     		str	r2, [r3]
 987              	.L40:
 988              		.loc 3 295 0
 989 056a 0548     		ldr	r0, .L42+12
 990 056c FFF7FEFF 		bl	chThdSleep
 991              		.loc 3 296 0
 992 0570 D4E7     		b	.L41
 993              	.L43:
 994 0572 00BF     		.align	2
 995              	.L42:
 996 0574 2C010000 		.word	.LC19
 997 0578 00000000 		.word	calibrated_axes
 998 057c 00000000 		.word	people_count
 999 0580 A0860100 		.word	100000
 1000              		.cfi_endproc
 1001              	.LFE272:
 1002              		.size	checkThreshold, .-checkThreshold
 1003              		.section	.rodata
 1004 013b 00       		.align	2
 1005              	.LC20:
 1006 013c 25730A0D 		.ascii	"%s\012\015\000"
 1006      00
 1007              		.text
 1008              		.align	2
 1009 0584 AFF30080 		.p2align 4,,15
 1009      AFF30080 
 1009      AFF30080 
 1010              		.thumb
 1011              		.thumb_func
 1012              		.type	cmd_myecho, %function
 1013              	cmd_myecho:
 1014              	.LFB273:
 1015              		.loc 3 303 0
 1016              		.cfi_startproc
 1017              		@ args = 0, pretend = 0, frame = 24
 1018              		@ frame_needed = 0, uses_anonymous_args = 0
 1019 0590 00B5     		push	{lr}
 1020              		.cfi_def_cfa_offset 4
ARM GAS  /tmp/ccrik0hm.s 			page 20


 1021              		.cfi_offset 14, -4
 1022 0592 87B0     		sub	sp, sp, #28
 1023              		.cfi_def_cfa_offset 32
 1024 0594 0390     		str	r0, [sp, #12]
 1025 0596 0291     		str	r1, [sp, #8]
 1026 0598 0192     		str	r2, [sp, #4]
 1027              		.loc 3 306 0
 1028 059a 0023     		movs	r3, #0
 1029 059c 0593     		str	r3, [sp, #20]
 1030 059e 0CE0     		b	.L45
 1031              	.L46:
 1032              		.loc 3 307 0 discriminator 2
 1033 05a0 059B     		ldr	r3, [sp, #20]
 1034 05a2 9B00     		lsls	r3, r3, #2
 1035 05a4 019A     		ldr	r2, [sp, #4]
 1036 05a6 1344     		add	r3, r3, r2
 1037 05a8 1B68     		ldr	r3, [r3]
 1038 05aa 0398     		ldr	r0, [sp, #12]
 1039 05ac 0649     		ldr	r1, .L47
 1040 05ae 1A46     		mov	r2, r3
 1041 05b0 FFF7FEFF 		bl	chprintf
 1042              		.loc 3 306 0 discriminator 2
 1043 05b4 059B     		ldr	r3, [sp, #20]
 1044 05b6 0133     		adds	r3, r3, #1
 1045 05b8 0593     		str	r3, [sp, #20]
 1046              	.L45:
 1047              		.loc 3 306 0 is_stmt 0 discriminator 1
 1048 05ba 059A     		ldr	r2, [sp, #20]
 1049 05bc 029B     		ldr	r3, [sp, #8]
 1050 05be 9A42     		cmp	r2, r3
 1051 05c0 EEDB     		blt	.L46
 1052              		.loc 3 309 0 is_stmt 1
 1053 05c2 07B0     		add	sp, sp, #28
 1054              		@ sp needed
 1055 05c4 5DF804FB 		ldr	pc, [sp], #4
 1056              	.L48:
 1057              		.align	2
 1058              	.L47:
 1059 05c8 3C010000 		.word	.LC20
 1060              		.cfi_endproc
 1061              	.LFE273:
 1062              		.size	cmd_myecho, .-cmd_myecho
 1063              		.section	.rodata
 1064 0141 000000   		.align	2
 1065              	.LC21:
 1066 0144 41544431 		.ascii	"ATD17654041973;\000"
 1066      37363534 
 1066      30343139 
 1066      37333B00 
 1067              		.align	2
 1068              	.LC22:
 1069 0154 53656E74 		.ascii	"Sent call.\012\015\000"
 1069      2063616C 
 1069      6C2E0A0D 
 1069      00
 1070              		.text
 1071              		.align	2
ARM GAS  /tmp/ccrik0hm.s 			page 21


 1072 05cc AFF30080 		.p2align 4,,15
 1073              		.thumb
 1074              		.thumb_func
 1075              		.type	cmd_call_maggie, %function
 1076              	cmd_call_maggie:
 1077              	.LFB274:
 1078              		.loc 3 312 0
 1079              		.cfi_startproc
 1080              		@ args = 0, pretend = 0, frame = 24
 1081              		@ frame_needed = 0, uses_anonymous_args = 0
 1082 05d0 00B5     		push	{lr}
 1083              		.cfi_def_cfa_offset 4
 1084              		.cfi_offset 14, -4
 1085 05d2 87B0     		sub	sp, sp, #28
 1086              		.cfi_def_cfa_offset 32
 1087 05d4 0390     		str	r0, [sp, #12]
 1088 05d6 0291     		str	r1, [sp, #8]
 1089 05d8 0192     		str	r2, [sp, #4]
 1090              		.loc 3 316 0
 1091 05da 074B     		ldr	r3, .L50
 1092 05dc 0593     		str	r3, [sp, #20]
 1093              		.loc 3 317 0
 1094 05de 0748     		ldr	r0, .L50+4
 1095 05e0 0599     		ldr	r1, [sp, #20]
 1096 05e2 0F22     		movs	r2, #15
 1097 05e4 FFF7FEFF 		bl	EUARTSendCommand
 1098              		.loc 3 319 0
 1099 05e8 0398     		ldr	r0, [sp, #12]
 1100 05ea 0549     		ldr	r1, .L50+8
 1101 05ec FFF7FEFF 		bl	chprintf
 1102              		.loc 3 320 0
 1103 05f0 07B0     		add	sp, sp, #28
 1104              		@ sp needed
 1105 05f2 5DF804FB 		ldr	pc, [sp], #4
 1106              	.L51:
 1107 05f6 00BF     		.align	2
 1108              	.L50:
 1109 05f8 44010000 		.word	.LC21
 1110 05fc 00000000 		.word	EUARTH
 1111 0600 54010000 		.word	.LC22
 1112              		.cfi_endproc
 1113              	.LFE274:
 1114              		.size	cmd_call_maggie, .-cmd_call_maggie
 1115              		.section	.rodata
 1116 0161 000000   		.align	2
 1117              	.LC23:
 1118 0164 42616420 		.ascii	"Bad args.\012\015\000"
 1118      61726773 
 1118      2E0A0D00 
 1119              		.text
 1120              		.align	2
 1121 0604 AFF30080 		.p2align 4,,15
 1121      AFF30080 
 1121      AFF30080 
 1122              		.thumb
 1123              		.thumb_func
 1124              		.type	cmd_modem_cmd, %function
ARM GAS  /tmp/ccrik0hm.s 			page 22


 1125              	cmd_modem_cmd:
 1126              	.LFB275:
 1127              		.loc 3 322 0
 1128              		.cfi_startproc
 1129              		@ args = 0, pretend = 0, frame = 24
 1130              		@ frame_needed = 0, uses_anonymous_args = 0
 1131 0610 00B5     		push	{lr}
 1132              		.cfi_def_cfa_offset 4
 1133              		.cfi_offset 14, -4
 1134 0612 87B0     		sub	sp, sp, #28
 1135              		.cfi_def_cfa_offset 32
 1136 0614 0390     		str	r0, [sp, #12]
 1137 0616 0291     		str	r1, [sp, #8]
 1138 0618 0192     		str	r2, [sp, #4]
 1139              		.loc 3 326 0
 1140 061a 029B     		ldr	r3, [sp, #8]
 1141 061c 012B     		cmp	r3, #1
 1142 061e 04D0     		beq	.L53
 1143              		.loc 3 326 0 is_stmt 0 discriminator 1
 1144 0620 0398     		ldr	r0, [sp, #12]
 1145 0622 0B49     		ldr	r1, .L55
 1146 0624 FFF7FEFF 		bl	chprintf
 1147 0628 0FE0     		b	.L52
 1148              	.L53:
 1149              	.LBB3:
 1150              		.loc 3 328 0 is_stmt 1
 1151 062a 019B     		ldr	r3, [sp, #4]
 1152 062c 1B68     		ldr	r3, [r3]
 1153 062e 0593     		str	r3, [sp, #20]
 1154              		.loc 3 330 0
 1155 0630 0598     		ldr	r0, [sp, #20]
 1156 0632 FFF7FEFF 		bl	strlen
 1157 0636 0346     		mov	r3, r0
 1158 0638 0648     		ldr	r0, .L55+4
 1159 063a 0599     		ldr	r1, [sp, #20]
 1160 063c 1A46     		mov	r2, r3
 1161 063e FFF7FEFF 		bl	EUARTSendCommand
 1162              		.loc 3 332 0
 1163 0642 0398     		ldr	r0, [sp, #12]
 1164 0644 0449     		ldr	r1, .L55+8
 1165 0646 FFF7FEFF 		bl	chprintf
 1166              	.L52:
 1167              	.LBE3:
 1168              		.loc 3 334 0
 1169 064a 07B0     		add	sp, sp, #28
 1170              		@ sp needed
 1171 064c 5DF804FB 		ldr	pc, [sp], #4
 1172              	.L56:
 1173              		.align	2
 1174              	.L55:
 1175 0650 64010000 		.word	.LC23
 1176 0654 00000000 		.word	EUARTH
 1177 0658 54010000 		.word	.LC22
 1178              		.cfi_endproc
 1179              	.LFE275:
 1180              		.size	cmd_modem_cmd, .-cmd_modem_cmd
 1181              		.section	.rodata
ARM GAS  /tmp/ccrik0hm.s 			page 23


 1182              		.align	2
 1183              	.LC24:
 1184 0170 0A25640A 		.ascii	"\012%d\012\015\000"
 1184      0D00
 1185 0176 0000     		.align	2
 1186              	.LC25:
 1187 0178 496E636F 		.ascii	"Incorrect args.\012\015\000"
 1187      72726563 
 1187      74206172 
 1187      67732E0A 
 1187      0D00
 1188              		.text
 1189              		.align	2
 1190 065c AFF30080 		.p2align 4,,15
 1191              		.thumb
 1192              		.thumb_func
 1193              		.type	cmd_put_char, %function
 1194              	cmd_put_char:
 1195              	.LFB276:
 1196              		.loc 3 336 0
 1197              		.cfi_startproc
 1198              		@ args = 0, pretend = 0, frame = 24
 1199              		@ frame_needed = 0, uses_anonymous_args = 0
 1200 0660 00B5     		push	{lr}
 1201              		.cfi_def_cfa_offset 4
 1202              		.cfi_offset 14, -4
 1203 0662 87B0     		sub	sp, sp, #28
 1204              		.cfi_def_cfa_offset 32
 1205 0664 0390     		str	r0, [sp, #12]
 1206 0666 0291     		str	r1, [sp, #8]
 1207 0668 0192     		str	r2, [sp, #4]
 1208              		.loc 3 341 0
 1209 066a 029B     		ldr	r3, [sp, #8]
 1210 066c 012B     		cmp	r3, #1
 1211 066e 11D1     		bne	.L58
 1212              	.LBB4:
 1213              		.loc 3 342 0
 1214 0670 019B     		ldr	r3, [sp, #4]
 1215 0672 1B68     		ldr	r3, [r3]
 1216 0674 1B78     		ldrb	r3, [r3]
 1217 0676 8DF81730 		strb	r3, [sp, #23]
 1218              		.loc 3 343 0
 1219 067a 9DF81730 		ldrb	r3, [sp, #23]	@ zero_extendqisi2
 1220 067e 0948     		ldr	r0, .L60
 1221 0680 1946     		mov	r1, r3
 1222 0682 FFF7FEFF 		bl	EUARTPutChar
 1223 0686 0490     		str	r0, [sp, #16]
 1224              		.loc 3 345 0
 1225 0688 0398     		ldr	r0, [sp, #12]
 1226 068a 0749     		ldr	r1, .L60+4
 1227 068c 049A     		ldr	r2, [sp, #16]
 1228 068e FFF7FEFF 		bl	chprintf
 1229              	.LBE4:
 1230 0692 03E0     		b	.L57
 1231              	.L58:
 1232              		.loc 3 348 0
 1233 0694 0398     		ldr	r0, [sp, #12]
ARM GAS  /tmp/ccrik0hm.s 			page 24


 1234 0696 0549     		ldr	r1, .L60+8
 1235 0698 FFF7FEFF 		bl	chprintf
 1236              	.L57:
 1237              		.loc 3 350 0
 1238 069c 07B0     		add	sp, sp, #28
 1239              		@ sp needed
 1240 069e 5DF804FB 		ldr	pc, [sp], #4
 1241              	.L61:
 1242 06a2 00BF     		.align	2
 1243              	.L60:
 1244 06a4 00000000 		.word	EUARTH
 1245 06a8 70010000 		.word	.LC24
 1246 06ac 78010000 		.word	.LC25
 1247              		.cfi_endproc
 1248              	.LFE276:
 1249              		.size	cmd_put_char, .-cmd_put_char
 1250              		.section	.rodata
 1251 018a 0000     		.align	2
 1252              	.LC26:
 1253 018c 45554152 		.ascii	"EUART Timed out\012\015\000"
 1253      54205469 
 1253      6D656420 
 1253      6F75740A 
 1253      0D00
 1254 019e 0000     		.align	2
 1255              	.LC27:
 1256 01a0 45554152 		.ascii	"EUART Error\012\015\000"
 1256      54204572 
 1256      726F720A 
 1256      0D00
 1257 01ae 0000     		.align	2
 1258              	.LC28:
 1259 01b0 0A676F74 		.ascii	"\012got char: %c aka 0x%x\012\015\000"
 1259      20636861 
 1259      723A2025 
 1259      6320616B 
 1259      61203078 
 1260              		.text
 1261              		.align	2
 1262              		.p2align 4,,15
 1263              		.thumb
 1264              		.thumb_func
 1265              		.type	cmd_get_char, %function
 1266              	cmd_get_char:
 1267              	.LFB277:
 1268              		.loc 3 353 0
 1269              		.cfi_startproc
 1270              		@ args = 0, pretend = 0, frame = 24
 1271              		@ frame_needed = 0, uses_anonymous_args = 0
 1272 06b0 00B5     		push	{lr}
 1273              		.cfi_def_cfa_offset 4
 1274              		.cfi_offset 14, -4
 1275 06b2 87B0     		sub	sp, sp, #28
 1276              		.cfi_def_cfa_offset 32
 1277 06b4 0390     		str	r0, [sp, #12]
 1278 06b6 0291     		str	r1, [sp, #8]
 1279 06b8 0192     		str	r2, [sp, #4]
ARM GAS  /tmp/ccrik0hm.s 			page 25


 1280              		.loc 3 361 0
 1281 06ba 0DF11603 		add	r3, sp, #22
 1282 06be 1148     		ldr	r0, .L65
 1283 06c0 1946     		mov	r1, r3
 1284 06c2 FFF7FEFF 		bl	EUARTGetChar
 1285 06c6 0346     		mov	r3, r0
 1286 06c8 8DF81730 		strb	r3, [sp, #23]
 1287              		.loc 3 362 0
 1288 06cc 9DF81730 		ldrb	r3, [sp, #23]	@ zero_extendqisi2
 1289 06d0 062B     		cmp	r3, #6
 1290 06d2 04D1     		bne	.L63
 1291              		.loc 3 363 0
 1292 06d4 0398     		ldr	r0, [sp, #12]
 1293 06d6 0C49     		ldr	r1, .L65+4
 1294 06d8 FFF7FEFF 		bl	chprintf
 1295 06dc 07E0     		b	.L64
 1296              	.L63:
 1297              		.loc 3 365 0
 1298 06de 9DF81730 		ldrb	r3, [sp, #23]	@ zero_extendqisi2
 1299 06e2 072B     		cmp	r3, #7
 1300 06e4 03D1     		bne	.L64
 1301              		.loc 3 366 0
 1302 06e6 0398     		ldr	r0, [sp, #12]
 1303 06e8 0849     		ldr	r1, .L65+8
 1304 06ea FFF7FEFF 		bl	chprintf
 1305              	.L64:
 1306              		.loc 3 368 0
 1307 06ee 9DF81630 		ldrb	r3, [sp, #22]	@ zero_extendqisi2
 1308 06f2 0398     		ldr	r0, [sp, #12]
 1309 06f4 0649     		ldr	r1, .L65+12
 1310 06f6 1A46     		mov	r2, r3
 1311 06f8 FFF7FEFF 		bl	chprintf
 1312              		.loc 3 370 0
 1313 06fc 07B0     		add	sp, sp, #28
 1314              		@ sp needed
 1315 06fe 5DF804FB 		ldr	pc, [sp], #4
 1316              	.L66:
 1317 0702 00BF     		.align	2
 1318              	.L65:
 1319 0704 00000000 		.word	EUARTH
 1320 0708 8C010000 		.word	.LC26
 1321 070c A0010000 		.word	.LC27
 1322 0710 B0010000 		.word	.LC28
 1323              		.cfi_endproc
 1324              	.LFE277:
 1325              		.size	cmd_get_char, .-cmd_get_char
 1326              		.section	.rodata
 1327 01c9 000000   		.align	2
 1328              	.LC29:
 1329 01cc 0A676F74 		.ascii	"\012got char: %c aka 0x%x, compare to %c\012\015\000"
 1329      20636861 
 1329      723A2025 
 1329      6320616B 
 1329      61203078 
 1330              		.text
 1331              		.align	2
 1332 0714 AFF30080 		.p2align 4,,15
ARM GAS  /tmp/ccrik0hm.s 			page 26


 1332      AFF30080 
 1332      AFF30080 
 1333              		.thumb
 1334              		.thumb_func
 1335              		.type	cmd_test_char, %function
 1336              	cmd_test_char:
 1337              	.LFB278:
 1338              		.loc 3 372 0
 1339              		.cfi_startproc
 1340              		@ args = 0, pretend = 0, frame = 32
 1341              		@ frame_needed = 0, uses_anonymous_args = 0
 1342 0720 00B5     		push	{lr}
 1343              		.cfi_def_cfa_offset 4
 1344              		.cfi_offset 14, -4
 1345 0722 8BB0     		sub	sp, sp, #44
 1346              		.cfi_def_cfa_offset 48
 1347 0724 0590     		str	r0, [sp, #20]
 1348 0726 0491     		str	r1, [sp, #16]
 1349 0728 0392     		str	r2, [sp, #12]
 1350              		.loc 3 375 0
 1351 072a 0023     		movs	r3, #0
 1352 072c 8DF82730 		strb	r3, [sp, #39]
 1353              		.loc 3 377 0
 1354 0730 049B     		ldr	r3, [sp, #16]
 1355 0732 012B     		cmp	r3, #1
 1356 0734 05D1     		bne	.L68
 1357              		.loc 3 378 0
 1358 0736 039B     		ldr	r3, [sp, #12]
 1359 0738 1B68     		ldr	r3, [r3]
 1360 073a 1B78     		ldrb	r3, [r3]
 1361 073c 8DF82730 		strb	r3, [sp, #39]
 1362 0740 03E0     		b	.L69
 1363              	.L68:
 1364              		.loc 3 380 0
 1365 0742 0598     		ldr	r0, [sp, #20]
 1366 0744 1D49     		ldr	r1, .L74
 1367 0746 FFF7FEFF 		bl	chprintf
 1368              	.L69:
 1369              		.loc 3 385 0
 1370 074a 0023     		movs	r3, #0
 1371 074c 0893     		str	r3, [sp, #32]
 1372 074e 2FE0     		b	.L70
 1373              	.L73:
 1374              	.LBB5:
 1375              		.loc 3 387 0
 1376 0750 9DF82730 		ldrb	r3, [sp, #39]	@ zero_extendqisi2
 1377 0754 1A48     		ldr	r0, .L74+4
 1378 0756 1946     		mov	r1, r3
 1379 0758 FFF7FEFF 		bl	EUARTPutChar
 1380 075c 0790     		str	r0, [sp, #28]
 1381              		.loc 3 388 0
 1382 075e 0DF11A03 		add	r3, sp, #26
 1383 0762 1748     		ldr	r0, .L74+4
 1384 0764 1946     		mov	r1, r3
 1385 0766 FFF7FEFF 		bl	EUARTGetChar
 1386 076a 0346     		mov	r3, r0
 1387 076c 8DF81B30 		strb	r3, [sp, #27]
ARM GAS  /tmp/ccrik0hm.s 			page 27


 1388              		.loc 3 389 0
 1389 0770 9DF81B30 		ldrb	r3, [sp, #27]	@ zero_extendqisi2
 1390 0774 062B     		cmp	r3, #6
 1391 0776 04D1     		bne	.L71
 1392              		.loc 3 390 0
 1393 0778 0598     		ldr	r0, [sp, #20]
 1394 077a 1249     		ldr	r1, .L74+8
 1395 077c FFF7FEFF 		bl	chprintf
 1396 0780 07E0     		b	.L72
 1397              	.L71:
 1398              		.loc 3 392 0
 1399 0782 9DF81B30 		ldrb	r3, [sp, #27]	@ zero_extendqisi2
 1400 0786 072B     		cmp	r3, #7
 1401 0788 03D1     		bne	.L72
 1402              		.loc 3 393 0
 1403 078a 0598     		ldr	r0, [sp, #20]
 1404 078c 0E49     		ldr	r1, .L74+12
 1405 078e FFF7FEFF 		bl	chprintf
 1406              	.L72:
 1407              		.loc 3 395 0
 1408 0792 9DF81A30 		ldrb	r3, [sp, #26]	@ zero_extendqisi2
 1409 0796 1A46     		mov	r2, r3
 1410 0798 9DF81A30 		ldrb	r3, [sp, #26]	@ zero_extendqisi2
 1411 079c 9DF82710 		ldrb	r1, [sp, #39]	@ zero_extendqisi2
 1412 07a0 0091     		str	r1, [sp]
 1413 07a2 0598     		ldr	r0, [sp, #20]
 1414 07a4 0949     		ldr	r1, .L74+16
 1415 07a6 FFF7FEFF 		bl	chprintf
 1416              	.LBE5:
 1417              		.loc 3 385 0
 1418 07aa 089B     		ldr	r3, [sp, #32]
 1419 07ac 0133     		adds	r3, r3, #1
 1420 07ae 0893     		str	r3, [sp, #32]
 1421              	.L70:
 1422              		.loc 3 385 0 is_stmt 0 discriminator 1
 1423 07b0 089B     		ldr	r3, [sp, #32]
 1424 07b2 042B     		cmp	r3, #4
 1425 07b4 CCDD     		ble	.L73
 1426              		.loc 3 397 0 is_stmt 1
 1427 07b6 0BB0     		add	sp, sp, #44
 1428              		@ sp needed
 1429 07b8 5DF804FB 		ldr	pc, [sp], #4
 1430              	.L75:
 1431              		.align	2
 1432              	.L74:
 1433 07bc 78010000 		.word	.LC25
 1434 07c0 00000000 		.word	EUARTH
 1435 07c4 8C010000 		.word	.LC26
 1436 07c8 A0010000 		.word	.LC27
 1437 07cc CC010000 		.word	.LC29
 1438              		.cfi_endproc
 1439              	.LFE278:
 1440              		.size	cmd_test_char, .-cmd_test_char
 1441              		.section	.rodata
 1442              		.align	2
 1443              	.LC30:
 1444 01f4 6C736D33 		.ascii	"lsm303 Who Am I data = 0x%02x\012\015\000"
ARM GAS  /tmp/ccrik0hm.s 			page 28


 1444      30332057 
 1444      686F2041 
 1444      6D204920 
 1444      64617461 
 1445              		.text
 1446              		.align	2
 1447              		.p2align 4,,15
 1448              		.thumb
 1449              		.thumb_func
 1450              		.type	cmd_accel_wai, %function
 1451              	cmd_accel_wai:
 1452              	.LFB279:
 1453              		.loc 3 400 0
 1454              		.cfi_startproc
 1455              		@ args = 0, pretend = 0, frame = 24
 1456              		@ frame_needed = 0, uses_anonymous_args = 0
 1457 07d0 00B5     		push	{lr}
 1458              		.cfi_def_cfa_offset 4
 1459              		.cfi_offset 14, -4
 1460 07d2 87B0     		sub	sp, sp, #28
 1461              		.cfi_def_cfa_offset 32
 1462 07d4 0390     		str	r0, [sp, #12]
 1463 07d6 0291     		str	r1, [sp, #8]
 1464 07d8 0192     		str	r2, [sp, #4]
 1465              		.loc 3 405 0
 1466 07da 0DF11703 		add	r3, sp, #23
 1467 07de 0020     		movs	r0, #0
 1468 07e0 1946     		mov	r1, r3
 1469 07e2 FFF7FEFF 		bl	LSM303AGR_ACC_R_WHO_AM_I
 1470              		.loc 3 406 0
 1471 07e6 9DF81730 		ldrb	r3, [sp, #23]	@ zero_extendqisi2
 1472 07ea 0398     		ldr	r0, [sp, #12]
 1473 07ec 0349     		ldr	r1, .L77
 1474 07ee 1A46     		mov	r2, r3
 1475 07f0 FFF7FEFF 		bl	chprintf
 1476              		.loc 3 407 0
 1477 07f4 07B0     		add	sp, sp, #28
 1478              		@ sp needed
 1479 07f6 5DF804FB 		ldr	pc, [sp], #4
 1480              	.L78:
 1481 07fa 00BF     		.align	2
 1482              	.L77:
 1483 07fc F4010000 		.word	.LC30
 1484              		.cfi_endproc
 1485              	.LFE279:
 1486              		.size	cmd_accel_wai, .-cmd_accel_wai
 1487              		.section	.rodata
 1488              		.align	2
 1489              	.LC31:
 1490 0214 0D526177 		.ascii	"\015Raw: %d, %d, %d\015\012\000"
 1490      3A202564 
 1490      2C202564 
 1490      2C202564 
 1490      0D0A00
 1491 0227 00       		.align	2
 1492              	.LC32:
 1493 0228 0D43616C 		.ascii	"\015Calibrated: %d, %d, %d\015\012\000"
ARM GAS  /tmp/ccrik0hm.s 			page 29


 1493      69627261 
 1493      7465643A 
 1493      2025642C 
 1493      2025642C 
 1494              		.text
 1495              		.align	2
 1496              		.p2align 4,,15
 1497              		.thumb
 1498              		.thumb_func
 1499              		.type	cmd_accel_print, %function
 1500              	cmd_accel_print:
 1501              	.LFB280:
 1502              		.loc 3 410 0
 1503              		.cfi_startproc
 1504              		@ args = 0, pretend = 0, frame = 32
 1505              		@ frame_needed = 0, uses_anonymous_args = 0
 1506 0800 00B5     		push	{lr}
 1507              		.cfi_def_cfa_offset 4
 1508              		.cfi_offset 14, -4
 1509 0802 8BB0     		sub	sp, sp, #44
 1510              		.cfi_def_cfa_offset 48
 1511 0804 0590     		str	r0, [sp, #20]
 1512 0806 0491     		str	r1, [sp, #16]
 1513 0808 0392     		str	r2, [sp, #12]
 1514              		.loc 3 415 0
 1515 080a 07AB     		add	r3, sp, #28
 1516 080c 0020     		movs	r0, #0
 1517 080e 1946     		mov	r1, r3
 1518 0810 FFF7FEFF 		bl	LSM303AGR_ACC_Get_Acceleration
 1519              		.loc 3 416 0
 1520 0814 079A     		ldr	r2, [sp, #28]
 1521 0816 089B     		ldr	r3, [sp, #32]
 1522 0818 0999     		ldr	r1, [sp, #36]
 1523 081a 0091     		str	r1, [sp]
 1524 081c 0598     		ldr	r0, [sp, #20]
 1525 081e 1749     		ldr	r1, .L82
 1526 0820 FFF7FEFF 		bl	chprintf
 1527              		.loc 3 417 0
 1528 0824 164B     		ldr	r3, .L82+4
 1529 0826 0022     		movs	r2, #0
 1530 0828 1A60     		str	r2, [r3]
 1531 082a 18E0     		b	.L80
 1532              	.L81:
 1533              		.loc 3 418 0 discriminator 2
 1534 082c 144B     		ldr	r3, .L82+4
 1535 082e 1968     		ldr	r1, [r3]
 1536 0830 134B     		ldr	r3, .L82+4
 1537 0832 1B68     		ldr	r3, [r3]
 1538 0834 9B00     		lsls	r3, r3, #2
 1539 0836 0AAA     		add	r2, sp, #40
 1540 0838 1344     		add	r3, r3, r2
 1541 083a 53F80C2C 		ldr	r2, [r3, #-12]
 1542 083e 104B     		ldr	r3, .L82+4
 1543 0840 1868     		ldr	r0, [r3]
 1544 0842 104B     		ldr	r3, .L82+8
 1545 0844 53F82030 		ldr	r3, [r3, r0, lsl #2]
 1546 0848 1A44     		add	r2, r2, r3
ARM GAS  /tmp/ccrik0hm.s 			page 30


 1547 084a 8B00     		lsls	r3, r1, #2
 1548 084c 0AA9     		add	r1, sp, #40
 1549 084e 0B44     		add	r3, r3, r1
 1550 0850 43F80C2C 		str	r2, [r3, #-12]
 1551              		.loc 3 417 0 discriminator 2
 1552 0854 0A4B     		ldr	r3, .L82+4
 1553 0856 1B68     		ldr	r3, [r3]
 1554 0858 5A1C     		adds	r2, r3, #1
 1555 085a 094B     		ldr	r3, .L82+4
 1556 085c 1A60     		str	r2, [r3]
 1557              	.L80:
 1558              		.loc 3 417 0 is_stmt 0 discriminator 1
 1559 085e 084B     		ldr	r3, .L82+4
 1560 0860 1B68     		ldr	r3, [r3]
 1561 0862 022B     		cmp	r3, #2
 1562 0864 E2DD     		ble	.L81
 1563              		.loc 3 420 0 is_stmt 1
 1564 0866 079A     		ldr	r2, [sp, #28]
 1565 0868 089B     		ldr	r3, [sp, #32]
 1566 086a 0999     		ldr	r1, [sp, #36]
 1567 086c 0091     		str	r1, [sp]
 1568 086e 0598     		ldr	r0, [sp, #20]
 1569 0870 0549     		ldr	r1, .L82+12
 1570 0872 FFF7FEFF 		bl	chprintf
 1571              		.loc 3 421 0
 1572 0876 0BB0     		add	sp, sp, #44
 1573              		@ sp needed
 1574 0878 5DF804FB 		ldr	pc, [sp], #4
 1575              	.L83:
 1576              		.align	2
 1577              	.L82:
 1578 087c 14020000 		.word	.LC31
 1579 0880 00000000 		.word	i
 1580 0884 00000000 		.word	calibrated_axes
 1581 0888 28020000 		.word	.LC32
 1582              		.cfi_endproc
 1583              	.LFE280:
 1584              		.size	cmd_accel_print, .-cmd_accel_print
 1585              		.section	.rodata
 1586 0242 0000     		.align	2
 1587              	.LC33:
 1588 0244 0D253032 		.ascii	"\015%02d/%02d/%04d %02d:%02d -  %d\015\012\000"
 1588      642F2530 
 1588      32642F25 
 1588      30346420 
 1588      25303264 
 1589 0266 0000     		.align	2
 1590              	.LC34:
 1591 0268 0D256420 		.ascii	"\015%d records, approx. %d seconds of recording\015"
 1591      7265636F 
 1591      7264732C 
 1591      20617070 
 1591      726F782E 
 1592 0295 0A00     		.ascii	"\012\000"
 1593              		.text
 1594              		.align	2
 1595 088c AFF30080 		.p2align 4,,15
ARM GAS  /tmp/ccrik0hm.s 			page 31


 1596              		.thumb
 1597              		.thumb_func
 1598              		.type	cmd_display_counts, %function
 1599              	cmd_display_counts:
 1600              	.LFB281:
 1601              		.loc 3 423 0
 1602              		.cfi_startproc
 1603              		@ args = 0, pretend = 0, frame = 40
 1604              		@ frame_needed = 0, uses_anonymous_args = 0
 1605 0890 30B5     		push	{r4, r5, lr}
 1606              		.cfi_def_cfa_offset 12
 1607              		.cfi_offset 4, -12
 1608              		.cfi_offset 5, -8
 1609              		.cfi_offset 14, -4
 1610 0892 8FB0     		sub	sp, sp, #60
 1611              		.cfi_def_cfa_offset 72
 1612 0894 0790     		str	r0, [sp, #28]
 1613 0896 0691     		str	r1, [sp, #24]
 1614 0898 0592     		str	r2, [sp, #20]
 1615              		.loc 3 429 0
 1616 089a 0023     		movs	r3, #0
 1617 089c 0D93     		str	r3, [sp, #52]
 1618 089e 52E0     		b	.L85
 1619              	.L86:
 1620              	.LBB6:
 1621              		.loc 3 430 0 discriminator 2
 1622 08a0 3249     		ldr	r1, .L87
 1623 08a2 0D9A     		ldr	r2, [sp, #52]
 1624 08a4 1346     		mov	r3, r2
 1625 08a6 5B00     		lsls	r3, r3, #1
 1626 08a8 1344     		add	r3, r3, r2
 1627 08aa 9B00     		lsls	r3, r3, #2
 1628 08ac CA18     		adds	r2, r1, r3
 1629 08ae 09AB     		add	r3, sp, #36
 1630 08b0 92E80300 		ldmia	r2, {r0, r1}
 1631 08b4 83E80300 		stmia	r3, {r0, r1}
 1632              		.loc 3 431 0 discriminator 2
 1633 08b8 0A9B     		ldr	r3, [sp, #40]
 1634 08ba C3F31A03 		ubfx	r3, r3, #0, #27
 1635 08be 2C4A     		ldr	r2, .L87+4
 1636 08c0 82FB0312 		smull	r1, r2, r2, r3
 1637 08c4 1215     		asrs	r2, r2, #20
 1638 08c6 DB17     		asrs	r3, r3, #31
 1639 08c8 D31A     		subs	r3, r2, r3
 1640 08ca 0C93     		str	r3, [sp, #48]
 1641              		.loc 3 432 0 discriminator 2
 1642 08cc 0A9B     		ldr	r3, [sp, #40]
 1643 08ce C3F31A03 		ubfx	r3, r3, #0, #27
 1644 08d2 1A46     		mov	r2, r3
 1645 08d4 264B     		ldr	r3, .L87+4
 1646 08d6 83FB0213 		smull	r1, r3, r3, r2
 1647 08da 1915     		asrs	r1, r3, #20
 1648 08dc D317     		asrs	r3, r2, #31
 1649 08de CB1A     		subs	r3, r1, r3
 1650 08e0 2449     		ldr	r1, .L87+8
 1651 08e2 01FB03F3 		mul	r3, r1, r3
 1652 08e6 D31A     		subs	r3, r2, r3
ARM GAS  /tmp/ccrik0hm.s 			page 32


 1653 08e8 234A     		ldr	r2, .L87+12
 1654 08ea 82FB0312 		smull	r1, r2, r2, r3
 1655 08ee 9213     		asrs	r2, r2, #14
 1656 08f0 DB17     		asrs	r3, r3, #31
 1657 08f2 D31A     		subs	r3, r2, r3
 1658 08f4 0B93     		str	r3, [sp, #44]
 1659              		.loc 3 433 0 discriminator 2
 1660 08f6 9DF82530 		ldrb	r3, [sp, #37]
 1661 08fa C3F30303 		ubfx	r3, r3, #0, #4
 1662 08fe DBB2     		uxtb	r3, r3
 1663 0900 1D46     		mov	r5, r3
 1664 0902 9DF82630 		ldrb	r3, [sp, #38]
 1665 0906 C3F30403 		ubfx	r3, r3, #0, #5
 1666 090a DBB2     		uxtb	r3, r3
 1667 090c 1C46     		mov	r4, r3
 1668 090e 9DF82430 		ldrb	r3, [sp, #36]	@ zero_extendqisi2
 1669 0912 03F2BC71 		addw	r1, r3, #1980
 1670 0916 1548     		ldr	r0, .L87
 1671 0918 0D9A     		ldr	r2, [sp, #52]
 1672 091a 1346     		mov	r3, r2
 1673 091c 5B00     		lsls	r3, r3, #1
 1674 091e 1344     		add	r3, r3, r2
 1675 0920 9B00     		lsls	r3, r3, #2
 1676 0922 0344     		add	r3, r3, r0
 1677 0924 0833     		adds	r3, r3, #8
 1678 0926 1B68     		ldr	r3, [r3]
 1679 0928 0091     		str	r1, [sp]
 1680 092a 0C9A     		ldr	r2, [sp, #48]
 1681 092c 0192     		str	r2, [sp, #4]
 1682 092e 0B9A     		ldr	r2, [sp, #44]
 1683 0930 0292     		str	r2, [sp, #8]
 1684 0932 0393     		str	r3, [sp, #12]
 1685 0934 0798     		ldr	r0, [sp, #28]
 1686 0936 1149     		ldr	r1, .L87+16
 1687 0938 2A46     		mov	r2, r5
 1688 093a 2346     		mov	r3, r4
 1689 093c FFF7FEFF 		bl	chprintf
 1690              	.LBE6:
 1691              		.loc 3 429 0 discriminator 2
 1692 0940 0D9B     		ldr	r3, [sp, #52]
 1693 0942 0133     		adds	r3, r3, #1
 1694 0944 0D93     		str	r3, [sp, #52]
 1695              	.L85:
 1696              		.loc 3 429 0 is_stmt 0 discriminator 1
 1697 0946 0E4B     		ldr	r3, .L87+20
 1698 0948 1B68     		ldr	r3, [r3]
 1699 094a 0D9A     		ldr	r2, [sp, #52]
 1700 094c 9A42     		cmp	r2, r3
 1701 094e A7DB     		blt	.L86
 1702              		.loc 3 435 0 is_stmt 1
 1703 0950 0B4B     		ldr	r3, .L87+20
 1704 0952 1C68     		ldr	r4, [r3]
 1705 0954 0A4B     		ldr	r3, .L87+20
 1706 0956 1A68     		ldr	r2, [r3]
 1707 0958 1346     		mov	r3, r2
 1708 095a 1B01     		lsls	r3, r3, #4
 1709 095c 9B1A     		subs	r3, r3, r2
ARM GAS  /tmp/ccrik0hm.s 			page 33


 1710 095e 0798     		ldr	r0, [sp, #28]
 1711 0960 0849     		ldr	r1, .L87+24
 1712 0962 2246     		mov	r2, r4
 1713 0964 FFF7FEFF 		bl	chprintf
 1714              		.loc 3 436 0
 1715 0968 0FB0     		add	sp, sp, #60
 1716              		@ sp needed
 1717 096a 30BD     		pop	{r4, r5, pc}
 1718              	.L88:
 1719              		.align	2
 1720              	.L87:
 1721 096c 00000000 		.word	timestamp_data
 1722 0970 59BE904A 		.word	1250999897
 1723 0974 80EE3600 		.word	3600000
 1724 0978 73B2E745 		.word	1172812403
 1725 097c 44020000 		.word	.LC33
 1726 0980 00000000 		.word	num_timestamps
 1727 0984 68020000 		.word	.LC34
 1728              		.cfi_endproc
 1729              	.LFE281:
 1730              		.size	cmd_display_counts, .-cmd_display_counts
 1731              		.section	.rodata
 1732 0297 00       		.align	2
 1733              	.LC35:
 1734 0298 0D446576 		.ascii	"\015Device should be held in a fixed position in it"
 1734      69636520 
 1734      73686F75 
 1734      6C642062 
 1734      65206865 
 1735 02c8 7320696E 		.ascii	"s intended orientation with no vibration\015\012\000"
 1735      74656E64 
 1735      6564206F 
 1735      7269656E 
 1735      74617469 
 1736 02f3 00       		.align	2
 1737              	.LC36:
 1738 02f4 0D43616C 		.ascii	"\015Calibrating...\015\012\000"
 1738      69627261 
 1738      74696E67 
 1738      2E2E2E0D 
 1738      0A00
 1739 0306 0000     		.align	2
 1740              	.LC37:
 1741 0308 0D43616C 		.ascii	"\015Calibrated with X: %d, Y: %d, Z:%d\015\012\000"
 1741      69627261 
 1741      74656420 
 1741      77697468 
 1741      20583A20 
 1742              		.text
 1743              		.align	2
 1744 0988 AFF30080 		.p2align 4,,15
 1744      AFF30080 
 1745              		.thumb
 1746              		.thumb_func
 1747              		.type	cmd_accel_calibrate, %function
 1748              	cmd_accel_calibrate:
 1749              	.LFB282:
ARM GAS  /tmp/ccrik0hm.s 			page 34


 1750              		.loc 3 438 0
 1751              		.cfi_startproc
 1752              		@ args = 0, pretend = 0, frame = 16
 1753              		@ frame_needed = 0, uses_anonymous_args = 0
 1754 0990 00B5     		push	{lr}
 1755              		.cfi_def_cfa_offset 4
 1756              		.cfi_offset 14, -4
 1757 0992 87B0     		sub	sp, sp, #28
 1758              		.cfi_def_cfa_offset 32
 1759 0994 0590     		str	r0, [sp, #20]
 1760 0996 0491     		str	r1, [sp, #16]
 1761 0998 0392     		str	r2, [sp, #12]
 1762              		.loc 3 442 0
 1763 099a 0598     		ldr	r0, [sp, #20]
 1764 099c 0C49     		ldr	r1, .L90
 1765 099e FFF7FEFF 		bl	chprintf
 1766              		.loc 3 443 0
 1767 09a2 0598     		ldr	r0, [sp, #20]
 1768 09a4 0B49     		ldr	r1, .L90+4
 1769 09a6 FFF7FEFF 		bl	chprintf
 1770              		.loc 3 445 0
 1771 09aa 0020     		movs	r0, #0
 1772 09ac 0A49     		ldr	r1, .L90+8
 1773 09ae FFF7FEFF 		bl	LSM303AGR_ACC_Get_Acceleration
 1774              		.loc 3 446 0
 1775 09b2 094B     		ldr	r3, .L90+8
 1776 09b4 1A68     		ldr	r2, [r3]
 1777 09b6 084B     		ldr	r3, .L90+8
 1778 09b8 5B68     		ldr	r3, [r3, #4]
 1779 09ba 0749     		ldr	r1, .L90+8
 1780 09bc 8968     		ldr	r1, [r1, #8]
 1781 09be 0091     		str	r1, [sp]
 1782 09c0 0598     		ldr	r0, [sp, #20]
 1783 09c2 0649     		ldr	r1, .L90+12
 1784 09c4 FFF7FEFF 		bl	chprintf
 1785              		.loc 3 447 0
 1786 09c8 07B0     		add	sp, sp, #28
 1787              		@ sp needed
 1788 09ca 5DF804FB 		ldr	pc, [sp], #4
 1789              	.L91:
 1790 09ce 00BF     		.align	2
 1791              	.L90:
 1792 09d0 98020000 		.word	.LC35
 1793 09d4 F4020000 		.word	.LC36
 1794 09d8 00000000 		.word	calibrated_axes
 1795 09dc 08030000 		.word	.LC37
 1796              		.cfi_endproc
 1797              	.LFE282:
 1798              		.size	cmd_accel_calibrate, .-cmd_accel_calibrate
 1799              		.section	.rodata
 1800 032e 0000     		.align	2
 1801              	.LC38:
 1802 0330 0D536574 		.ascii	"\015Set TCP flag\015\012\000"
 1802      20544350 
 1802      20666C61 
 1802      670D0A00 
 1803              		.text
ARM GAS  /tmp/ccrik0hm.s 			page 35


 1804              		.align	2
 1805              		.p2align 4,,15
 1806              		.thumb
 1807              		.thumb_func
 1808              		.type	cmd_start_tcp, %function
 1809              	cmd_start_tcp:
 1810              	.LFB283:
 1811              		.loc 3 450 0
 1812              		.cfi_startproc
 1813              		@ args = 0, pretend = 0, frame = 16
 1814              		@ frame_needed = 0, uses_anonymous_args = 0
 1815 09e0 00B5     		push	{lr}
 1816              		.cfi_def_cfa_offset 4
 1817              		.cfi_offset 14, -4
 1818 09e2 85B0     		sub	sp, sp, #20
 1819              		.cfi_def_cfa_offset 24
 1820 09e4 0390     		str	r0, [sp, #12]
 1821 09e6 0291     		str	r1, [sp, #8]
 1822 09e8 0192     		str	r2, [sp, #4]
 1823              		.loc 3 454 0
 1824 09ea 054B     		ldr	r3, .L93
 1825 09ec 0122     		movs	r2, #1
 1826 09ee 1A60     		str	r2, [r3]
 1827              		.loc 3 455 0
 1828 09f0 0398     		ldr	r0, [sp, #12]
 1829 09f2 0449     		ldr	r1, .L93+4
 1830 09f4 FFF7FEFF 		bl	chprintf
 1831              		.loc 3 458 0
 1832 09f8 05B0     		add	sp, sp, #20
 1833              		@ sp needed
 1834 09fa 5DF804FB 		ldr	pc, [sp], #4
 1835              	.L94:
 1836 09fe 00BF     		.align	2
 1837              	.L93:
 1838 0a00 00000000 		.word	start_tcp
 1839 0a04 30030000 		.word	.LC38
 1840              		.cfi_endproc
 1841              	.LFE283:
 1842              		.size	cmd_start_tcp, .-cmd_start_tcp
 1843              		.section	.rodata
 1844              		.align	2
 1845              	.LC39:
 1846 0340 0D496E63 		.ascii	"\015Incorrect arguments. Example input:\015\012\000"
 1846      6F727265 
 1846      63742061 
 1846      7267756D 
 1846      656E7473 
 1847 0367 00       		.align	2
 1848              	.LC40:
 1849 0368 0D736574 		.ascii	"\015set_time DD/MM/YYYY HH:MM (military time)\015\012"
 1849      5F74696D 
 1849      65204444 
 1849      2F4D4D2F 
 1849      59595959 
 1850 0394 00       		.ascii	"\000"
 1851              		.text
 1852              		.align	2
ARM GAS  /tmp/ccrik0hm.s 			page 36


 1853 0a08 AFF30080 		.p2align 4,,15
 1853      AFF30080 
 1854              		.thumb
 1855              		.thumb_func
 1856              		.type	cmd_set_time, %function
 1857              	cmd_set_time:
 1858              	.LFB284:
 1859              		.loc 3 462 0
 1860              		.cfi_startproc
 1861              		@ args = 0, pretend = 0, frame = 40
 1862              		@ frame_needed = 0, uses_anonymous_args = 0
 1863 0a10 00B5     		push	{lr}
 1864              		.cfi_def_cfa_offset 4
 1865              		.cfi_offset 14, -4
 1866 0a12 8BB0     		sub	sp, sp, #44
 1867              		.cfi_def_cfa_offset 48
 1868 0a14 0390     		str	r0, [sp, #12]
 1869 0a16 0291     		str	r1, [sp, #8]
 1870 0a18 0192     		str	r2, [sp, #4]
 1871              		.loc 3 463 0
 1872 0a1a 029B     		ldr	r3, [sp, #8]
 1873 0a1c 022B     		cmp	r3, #2
 1874 0a1e 08D0     		beq	.L96
 1875              		.loc 3 464 0
 1876 0a20 0398     		ldr	r0, [sp, #12]
 1877 0a22 4949     		ldr	r1, .L98
 1878 0a24 FFF7FEFF 		bl	chprintf
 1879              		.loc 3 465 0
 1880 0a28 0398     		ldr	r0, [sp, #12]
 1881 0a2a 4849     		ldr	r1, .L98+4
 1882 0a2c FFF7FEFF 		bl	chprintf
 1883 0a30 87E0     		b	.L95
 1884              	.L96:
 1885              		.loc 3 471 0
 1886 0a32 2F23     		movs	r3, #47
 1887 0a34 ADF81430 		strh	r3, [sp, #20]	@ movhi
 1888              		.loc 3 472 0
 1889 0a38 3A23     		movs	r3, #58
 1890 0a3a ADF81030 		strh	r3, [sp, #16]	@ movhi
 1891              		.loc 3 475 0
 1892 0a3e 019B     		ldr	r3, [sp, #4]
 1893 0a40 1A68     		ldr	r2, [r3]
 1894 0a42 05AB     		add	r3, sp, #20
 1895 0a44 1046     		mov	r0, r2
 1896 0a46 1946     		mov	r1, r3
 1897 0a48 FFF7FEFF 		bl	strtok
 1898 0a4c 0990     		str	r0, [sp, #36]
 1899              		.loc 3 476 0
 1900 0a4e 0998     		ldr	r0, [sp, #36]
 1901 0a50 FFF7FEFF 		bl	atoi
 1902 0a54 0346     		mov	r3, r0
 1903 0a56 DBB2     		uxtb	r3, r3
 1904 0a58 03F01F03 		and	r3, r3, #31
 1905 0a5c DAB2     		uxtb	r2, r3
 1906 0a5e 9DF81A30 		ldrb	r3, [sp, #26]
 1907 0a62 62F30403 		bfi	r3, r2, #0, #5
 1908 0a66 8DF81A30 		strb	r3, [sp, #26]
ARM GAS  /tmp/ccrik0hm.s 			page 37


 1909              		.loc 3 477 0
 1910 0a6a 05AB     		add	r3, sp, #20
 1911 0a6c 0020     		movs	r0, #0
 1912 0a6e 1946     		mov	r1, r3
 1913 0a70 FFF7FEFF 		bl	strtok
 1914 0a74 0990     		str	r0, [sp, #36]
 1915              		.loc 3 478 0
 1916 0a76 0998     		ldr	r0, [sp, #36]
 1917 0a78 FFF7FEFF 		bl	atoi
 1918 0a7c 0346     		mov	r3, r0
 1919 0a7e DBB2     		uxtb	r3, r3
 1920 0a80 03F00F03 		and	r3, r3, #15
 1921 0a84 DAB2     		uxtb	r2, r3
 1922 0a86 9DF81930 		ldrb	r3, [sp, #25]
 1923 0a8a 62F30303 		bfi	r3, r2, #0, #4
 1924 0a8e 8DF81930 		strb	r3, [sp, #25]
 1925              		.loc 3 479 0
 1926 0a92 05AB     		add	r3, sp, #20
 1927 0a94 0020     		movs	r0, #0
 1928 0a96 1946     		mov	r1, r3
 1929 0a98 FFF7FEFF 		bl	strtok
 1930 0a9c 0990     		str	r0, [sp, #36]
 1931              		.loc 3 480 0
 1932 0a9e 0998     		ldr	r0, [sp, #36]
 1933 0aa0 FFF7FEFF 		bl	atoi
 1934 0aa4 0346     		mov	r3, r0
 1935 0aa6 DBB2     		uxtb	r3, r3
 1936 0aa8 4433     		adds	r3, r3, #68
 1937 0aaa DAB2     		uxtb	r2, r3
 1938 0aac 9DF81830 		ldrb	r3, [sp, #24]
 1939 0ab0 62F30703 		bfi	r3, r2, #0, #8
 1940 0ab4 8DF81830 		strb	r3, [sp, #24]
 1941              		.loc 3 483 0
 1942 0ab8 019B     		ldr	r3, [sp, #4]
 1943 0aba 0433     		adds	r3, r3, #4
 1944 0abc 1A68     		ldr	r2, [r3]
 1945 0abe 04AB     		add	r3, sp, #16
 1946 0ac0 1046     		mov	r0, r2
 1947 0ac2 1946     		mov	r1, r3
 1948 0ac4 FFF7FEFF 		bl	strtok
 1949 0ac8 0990     		str	r0, [sp, #36]
 1950              		.loc 3 484 0
 1951 0aca 0998     		ldr	r0, [sp, #36]
 1952 0acc FFF7FEFF 		bl	atoi
 1953 0ad0 0346     		mov	r3, r0
 1954 0ad2 1F4A     		ldr	r2, .L98+8
 1955 0ad4 02FB03F3 		mul	r3, r2, r3
 1956 0ad8 0893     		str	r3, [sp, #32]
 1957              		.loc 3 485 0
 1958 0ada 04AB     		add	r3, sp, #16
 1959 0adc 0020     		movs	r0, #0
 1960 0ade 1946     		mov	r1, r3
 1961 0ae0 FFF7FEFF 		bl	strtok
 1962 0ae4 0990     		str	r0, [sp, #36]
 1963              		.loc 3 486 0
 1964 0ae6 0998     		ldr	r0, [sp, #36]
 1965 0ae8 FFF7FEFF 		bl	atoi
ARM GAS  /tmp/ccrik0hm.s 			page 38


 1966 0aec 0346     		mov	r3, r0
 1967 0aee 4EF66022 		movw	r2, #60000
 1968 0af2 02FB03F2 		mul	r2, r2, r3
 1969 0af6 089B     		ldr	r3, [sp, #32]
 1970 0af8 1344     		add	r3, r3, r2
 1971 0afa 23F07842 		bic	r2, r3, #-134217728
 1972 0afe 079B     		ldr	r3, [sp, #28]
 1973 0b00 62F31A03 		bfi	r3, r2, #0, #27
 1974 0b04 0793     		str	r3, [sp, #28]
 1975              		.loc 3 489 0
 1976 0b06 9DF81930 		ldrb	r3, [sp, #25]
 1977 0b0a 43F01003 		orr	r3, r3, #16
 1978 0b0e 8DF81930 		strb	r3, [sp, #25]
 1979              		.loc 3 490 0
 1980 0b12 9DF81930 		ldrb	r3, [sp, #25]
 1981 0b16 0122     		movs	r2, #1
 1982 0b18 62F34713 		bfi	r3, r2, #5, #3
 1983 0b1c 8DF81930 		strb	r3, [sp, #25]
 1984              		.loc 3 492 0
 1985 0b20 06AB     		add	r3, sp, #24
 1986 0b22 0C48     		ldr	r0, .L98+12
 1987 0b24 1946     		mov	r1, r3
 1988 0b26 FFF7FEFF 		bl	rtcSetTime
 1989              		.loc 3 494 0
 1990 0b2a 0B4B     		ldr	r3, .L98+16
 1991 0b2c 0022     		movs	r2, #0
 1992 0b2e 1A60     		str	r2, [r3]
 1993              		.loc 3 495 0
 1994 0b30 0A4B     		ldr	r3, .L98+20
 1995 0b32 0022     		movs	r2, #0
 1996 0b34 1A60     		str	r2, [r3]
 1997              		.loc 3 496 0
 1998 0b36 0A4B     		ldr	r3, .L98+24
 1999 0b38 06AA     		add	r2, sp, #24
 2000 0b3a 92E80300 		ldmia	r2, {r0, r1}
 2001 0b3e 83E80300 		stmia	r3, {r0, r1}
 2002              	.L95:
 2003              		.loc 3 498 0
 2004 0b42 0BB0     		add	sp, sp, #44
 2005              		@ sp needed
 2006 0b44 5DF804FB 		ldr	pc, [sp], #4
 2007              	.L99:
 2008              		.align	2
 2009              	.L98:
 2010 0b48 40030000 		.word	.LC39
 2011 0b4c 68030000 		.word	.LC40
 2012 0b50 80EE3600 		.word	3600000
 2013 0b54 00000000 		.word	RTCD1
 2014 0b58 00000000 		.word	num_timestamps
 2015 0b5c 00000000 		.word	people_count
 2016 0b60 00000000 		.word	start_time
 2017              		.cfi_endproc
 2018              	.LFE284:
 2019              		.size	cmd_set_time, .-cmd_set_time
 2020              		.section	.rodata
 2021 0395 000000   		.align	2
 2022              	.LC41:
ARM GAS  /tmp/ccrik0hm.s 			page 39


 2023 0398 6D796563 		.ascii	"myecho\000"
 2023      686F00
 2024 039f 00       		.align	2
 2025              	.LC42:
 2026 03a0 61636365 		.ascii	"accel_print\000"
 2026      6C5F7072 
 2026      696E7400 
 2027              		.align	2
 2028              	.LC43:
 2029 03ac 61636365 		.ascii	"accel_wai\000"
 2029      6C5F7761 
 2029      6900
 2030 03b6 0000     		.align	2
 2031              	.LC44:
 2032 03b8 61636365 		.ascii	"accel_calibrate\000"
 2032      6C5F6361 
 2032      6C696272 
 2032      61746500 
 2033              		.align	2
 2034              	.LC45:
 2035 03c8 64697370 		.ascii	"display_counts\000"
 2035      6C61795F 
 2035      636F756E 
 2035      747300
 2036 03d7 00       		.align	2
 2037              	.LC46:
 2038 03d8 6400     		.ascii	"d\000"
 2039 03da 0000     		.align	2
 2040              	.LC47:
 2041 03dc 7365745F 		.ascii	"set_time\000"
 2041      74696D65 
 2041      00
 2042 03e5 000000   		.align	2
 2043              	.LC48:
 2044 03e8 7075745F 		.ascii	"put_char\000"
 2044      63686172 
 2044      00
 2045 03f1 000000   		.align	2
 2046              	.LC49:
 2047 03f4 6765745F 		.ascii	"get_char\000"
 2047      63686172 
 2047      00
 2048 03fd 000000   		.align	2
 2049              	.LC50:
 2050 0400 74657374 		.ascii	"test_char\000"
 2050      5F636861 
 2050      7200
 2051 040a 0000     		.align	2
 2052              	.LC51:
 2053 040c 63616C6C 		.ascii	"call_maggie\000"
 2053      5F6D6167 
 2053      67696500 
 2054              		.align	2
 2055              	.LC52:
 2056 0418 6D6F6465 		.ascii	"modem_cmd\000"
 2056      6D5F636D 
 2056      6400
ARM GAS  /tmp/ccrik0hm.s 			page 40


 2057 0422 0000     		.align	2
 2058              	.LC53:
 2059 0424 73746172 		.ascii	"start_tcp\000"
 2059      745F7463 
 2059      7000
 2060 042e 0000     		.align	2
 2061              		.type	commands, %object
 2062              		.size	commands, 112
 2063              	commands:
 2064 0430 98030000 		.word	.LC41
 2065 0434 00000000 		.word	cmd_myecho
 2066 0438 A0030000 		.word	.LC42
 2067 043c 00000000 		.word	cmd_accel_print
 2068 0440 AC030000 		.word	.LC43
 2069 0444 00000000 		.word	cmd_accel_wai
 2070 0448 B8030000 		.word	.LC44
 2071 044c 00000000 		.word	cmd_accel_calibrate
 2072 0450 C8030000 		.word	.LC45
 2073 0454 00000000 		.word	cmd_display_counts
 2074 0458 D8030000 		.word	.LC46
 2075 045c 00000000 		.word	cmd_display_counts
 2076 0460 DC030000 		.word	.LC47
 2077 0464 00000000 		.word	cmd_set_time
 2078 0468 E8030000 		.word	.LC48
 2079 046c 00000000 		.word	cmd_put_char
 2080 0470 F4030000 		.word	.LC49
 2081 0474 00000000 		.word	cmd_get_char
 2082 0478 00040000 		.word	.LC50
 2083 047c 00000000 		.word	cmd_test_char
 2084 0480 0C040000 		.word	.LC51
 2085 0484 00000000 		.word	cmd_call_maggie
 2086 0488 18040000 		.word	.LC52
 2087 048c 00000000 		.word	cmd_modem_cmd
 2088 0490 24040000 		.word	.LC53
 2089 0494 00000000 		.word	cmd_start_tcp
 2090 0498 00000000 		.word	0
 2091 049c 00000000 		.word	0
 2092              		.align	2
 2093              		.type	shell_cfg1, %object
 2094              		.size	shell_cfg1, 8
 2095              	shell_cfg1:
 2096 04a0 00000000 		.word	SD5
 2097 04a4 30040000 		.word	commands
 2098              		.align	2
 2099              	.LC54:
 2100 04a8 0A0D5570 		.ascii	"\012\015Up and Running\012\015\000"
 2100      20616E64 
 2100      2052756E 
 2100      6E696E67 
 2100      0A0D00
 2101 04bb 00       		.align	2
 2102              	.LC55:
 2103 04bc 0D48696E 		.ascii	"\015Hint: run set_time DD/MM/YYYY HH:MM (military t"
 2103      743A2072 
 2103      756E2073 
 2103      65745F74 
 2103      696D6520 
ARM GAS  /tmp/ccrik0hm.s 			page 41


 2104 04ec 696D6529 		.ascii	"ime) to initialize time.\015\012\000"
 2104      20746F20 
 2104      696E6974 
 2104      69616C69 
 2104      7A652074 
 2105 0507 00       		.align	2
 2106              	.LC56:
 2107 0508 0D416363 		.ascii	"\015Accelerometer Calibrated\015\012\000"
 2107      656C6572 
 2107      6F6D6574 
 2107      65722043 
 2107      616C6962 
 2108              		.text
 2109              		.align	2
 2110 0b64 AFF30080 		.p2align 4,,15
 2110      AFF30080 
 2110      AFF30080 
 2111              		.global	main
 2112              		.thumb
 2113              		.thumb_func
 2114              		.type	main, %function
 2115              	main:
 2116              	.LFB285:
 2117              		.loc 3 529 0
 2118              		.cfi_startproc
 2119              		@ args = 0, pretend = 0, frame = 0
 2120              		@ frame_needed = 0, uses_anonymous_args = 0
 2121 0b70 00B5     		push	{lr}
 2122              		.cfi_def_cfa_offset 4
 2123              		.cfi_offset 14, -4
 2124 0b72 83B0     		sub	sp, sp, #12
 2125              		.cfi_def_cfa_offset 16
 2126              		.loc 3 540 0
 2127 0b74 FFF7FEFF 		bl	halInit
 2128              		.loc 3 541 0
 2129 0b78 FFF7FEFF 		bl	chSysInit
 2130              		.loc 3 548 0
 2131 0b7c 3048     		ldr	r0, .L104
 2132 0b7e 0021     		movs	r1, #0
 2133 0b80 FFF7FEFF 		bl	sdStart
 2134              		.loc 3 549 0
 2135 0b84 2E48     		ldr	r0, .L104
 2136 0b86 2F49     		ldr	r1, .L104+4
 2137 0b88 FFF7FEFF 		bl	chprintf
 2138              		.loc 3 550 0
 2139 0b8c 2C48     		ldr	r0, .L104
 2140 0b8e 2E49     		ldr	r1, .L104+8
 2141 0b90 FFF7FEFF 		bl	chprintf
 2142              		.loc 3 554 0
 2143 0b94 FFF7FEFF 		bl	shellInit
 2144              		.loc 3 557 0
 2145 0b98 2C48     		ldr	r0, .L104+12
 2146 0b9a FFF7FEFF 		bl	EUARTInit
 2147              		.loc 3 560 0
 2148 0b9e FFF7FEFF 		bl	LSM303AGR_ACC_Init
 2149              		.loc 3 562 0
 2150 0ba2 0020     		movs	r0, #0
ARM GAS  /tmp/ccrik0hm.s 			page 42


 2151 0ba4 2A49     		ldr	r1, .L104+16
 2152 0ba6 FFF7FEFF 		bl	LSM303AGR_ACC_Get_Acceleration
 2153              		.loc 3 563 0
 2154 0baa 2548     		ldr	r0, .L104
 2155 0bac 2949     		ldr	r1, .L104+20
 2156 0bae FFF7FEFF 		bl	chprintf
 2157              		.loc 3 567 0
 2158 0bb2 0023     		movs	r3, #0
 2159 0bb4 0093     		str	r3, [sp]
 2160 0bb6 2848     		ldr	r0, .L104+24
 2161 0bb8 4FF4A471 		mov	r1, #328
 2162 0bbc 4122     		movs	r2, #65
 2163 0bbe 274B     		ldr	r3, .L104+28
 2164 0bc0 FFF7FEFF 		bl	chThdCreateStatic
 2165              		.loc 3 568 0
 2166 0bc4 0023     		movs	r3, #0
 2167 0bc6 0093     		str	r3, [sp]
 2168 0bc8 2548     		ldr	r0, .L104+32
 2169 0bca 41F2C801 		movw	r1, #4296
 2170 0bce 4122     		movs	r2, #65
 2171 0bd0 244B     		ldr	r3, .L104+36
 2172 0bd2 FFF7FEFF 		bl	chThdCreateStatic
 2173              		.loc 3 569 0
 2174 0bd6 0023     		movs	r3, #0
 2175 0bd8 0093     		str	r3, [sp]
 2176 0bda 2348     		ldr	r0, .L104+40
 2177 0bdc 41F2C801 		movw	r1, #4296
 2178 0be0 4122     		movs	r2, #65
 2179 0be2 224B     		ldr	r3, .L104+44
 2180 0be4 FFF7FEFF 		bl	chThdCreateStatic
 2181              		.loc 3 570 0
 2182 0be8 0023     		movs	r3, #0
 2183 0bea 0093     		str	r3, [sp]
 2184 0bec 2048     		ldr	r0, .L104+48
 2185 0bee 41F2C801 		movw	r1, #4296
 2186 0bf2 4122     		movs	r2, #65
 2187 0bf4 1F4B     		ldr	r3, .L104+52
 2188 0bf6 FFF7FEFF 		bl	chThdCreateStatic
 2189              	.L103:
 2190              		.loc 3 573 0
 2191 0bfa 1F4B     		ldr	r3, .L104+56
 2192 0bfc 1B68     		ldr	r3, [r3]
 2193 0bfe 002B     		cmp	r3, #0
 2194 0c00 09D1     		bne	.L101
 2195              		.loc 3 574 0
 2196 0c02 1E48     		ldr	r0, .L104+60
 2197 0c04 40F6C801 		movw	r1, #2248
 2198 0c08 4022     		movs	r2, #64
 2199 0c0a FFF7FEFF 		bl	shellCreate
 2200 0c0e 0246     		mov	r2, r0
 2201 0c10 194B     		ldr	r3, .L104+56
 2202 0c12 1A60     		str	r2, [r3]
 2203 0c14 0FE0     		b	.L102
 2204              	.L101:
 2205              		.loc 3 576 0
 2206 0c16 184B     		ldr	r3, .L104+56
 2207 0c18 1B68     		ldr	r3, [r3]
ARM GAS  /tmp/ccrik0hm.s 			page 43


 2208 0c1a 1846     		mov	r0, r3
 2209 0c1c FFF7F0F9 		bl	chThdTerminatedX
 2210 0c20 0346     		mov	r3, r0
 2211 0c22 002B     		cmp	r3, #0
 2212 0c24 07D0     		beq	.L102
 2213              		.loc 3 577 0
 2214 0c26 144B     		ldr	r3, .L104+56
 2215 0c28 1B68     		ldr	r3, [r3]
 2216 0c2a 1846     		mov	r0, r3
 2217 0c2c FFF7FEFF 		bl	chThdRelease
 2218              		.loc 3 578 0
 2219 0c30 114B     		ldr	r3, .L104+56
 2220 0c32 0022     		movs	r2, #0
 2221 0c34 1A60     		str	r2, [r3]
 2222              	.L102:
 2223              		.loc 3 581 0
 2224 0c36 1248     		ldr	r0, .L104+64
 2225 0c38 FFF7FEFF 		bl	chThdSleep
 2226              		.loc 3 584 0
 2227 0c3c DDE7     		b	.L103
 2228              	.L105:
 2229 0c3e 00BF     		.align	2
 2230              	.L104:
 2231 0c40 00000000 		.word	SD5
 2232 0c44 A8040000 		.word	.LC54
 2233 0c48 BC040000 		.word	.LC55
 2234 0c4c 00000000 		.word	EUARTH
 2235 0c50 00000000 		.word	calibrated_axes
 2236 0c54 08050000 		.word	.LC56
 2237 0c58 10000000 		.word	waCounterThread
 2238 0c5c 00000000 		.word	counterThread
 2239 0c60 20120000 		.word	waTimeStamp
 2240 0c64 00000000 		.word	timeStamp
 2241 0c68 00000000 		.word	waCheckThreshold
 2242 0c6c 00000000 		.word	checkThreshold
 2243 0c70 58010000 		.word	waTCPThread
 2244 0c74 00000000 		.word	tcpThread
 2245 0c78 E8220000 		.word	shelltp.10788
 2246 0c7c A0040000 		.word	shell_cfg1
 2247 0c80 A0860100 		.word	100000
 2248              		.cfi_endproc
 2249              	.LFE285:
 2250              		.size	main, .-main
 2251              		.bss
 2252              		.align	2
 2253              	shelltp.10788:
 2254 22e8 00000000 		.space	4
 2255 22ec 00000000 		.text
 2256              	.Letext0:
 2257              		.file 4 "/nfs/nfs5/home/research/hardware/arm2/gcc-arm-embedded/gcc-arm-none-eabi-4_8-2014q2/lib/g
 2258              		.file 5 "/nfs/nfs5/home/research/hardware/arm2/gcc-arm-embedded/gcc-arm-none-eabi-4_8-2014q2/arm-n
 2259              		.file 6 "/nfs/nfs5/home/research/hardware/arm2/gcc-arm-embedded/gcc-arm-none-eabi-4_8-2014q2/arm-n
 2260              		.file 7 "../../ChibiOS/os/rt/ports/ARMCMx/compilers/GCC/chtypes.h"
 2261              		.file 8 "../../ChibiOS/os/rt/include/chsystypes.h"
 2262              		.file 9 "../../ChibiOS/os/rt/include/chschd.h"
 2263              		.file 10 "../../ChibiOS/os/ext/CMSIS/ST/STM32L4xx/stm32l476xx.h"
 2264              		.file 11 "../../ChibiOS/os/rt/ports/ARMCMx/chcore.h"
ARM GAS  /tmp/ccrik0hm.s 			page 44


 2265              		.file 12 "../../ChibiOS/os/rt/ports/ARMCMx/chcore_v7m.h"
 2266              		.file 13 "../../ChibiOS/os/rt/include/chtm.h"
 2267              		.file 14 "../../ChibiOS/os/rt/include/chsem.h"
 2268              		.file 15 "../../ChibiOS/os/rt/include/chmtx.h"
 2269              		.file 16 "../../ChibiOS/os/rt/include/chevents.h"
 2270              		.file 17 "../../ChibiOS/os/rt/include/chqueues.h"
 2271              		.file 18 "../../ChibiOS/os/rt/include/chstreams.h"
 2272              		.file 19 "../../ChibiOS/os/hal/ports/STM32/LLD/GPIOv3/pal_lld.h"
 2273              		.file 20 "/nfs/nfs5/home/research/hardware/arm2/gcc-arm-embedded/gcc-arm-none-eabi-4_8-2014q2/arm-
 2274              		.file 21 "../../ChibiOS/os/hal/include/rtc.h"
 2275              		.file 22 "../../ChibiOS/os/hal/ports/STM32/LLD/RTCv2/rtc_lld.h"
 2276              		.file 23 "../../ChibiOS/os/hal/include/serial.h"
 2277              		.file 24 "../../ChibiOS/os/various/shell.h"
 2278              		.file 25 "counter_config.h"
 2279              		.file 26 "emu_uart.h"
 2280              		.file 27 "../../ChibiOS/os/ext/CMSIS/include/core_cm4.h"
 2281              		.file 28 "../../ChibiOS/os/hal/ports/STM32/LLD/USARTv2/serial_lld.h"