ARM GAS  /tmp/ccRnFw0a.s 			page 1


   1              		.syntax unified
   2              		.cpu cortex-m4
   3              		.fpu softvfp
   4              		.eabi_attribute 20, 1
   5              		.eabi_attribute 21, 1
   6              		.eabi_attribute 23, 3
   7              		.eabi_attribute 24, 1
   8              		.eabi_attribute 25, 1
   9              		.eabi_attribute 26, 1
  10              		.eabi_attribute 30, 6
  11              		.eabi_attribute 34, 1
  12              		.eabi_attribute 18, 4
  13              		.thumb
  14              		.file	"memstreams.c"
  15              		.text
  16              	.Ltext0:
  17              		.cfi_sections	.debug_frame
  18              		.align	2
  19              		.p2align 4,,15
  20              		.thumb
  21              		.thumb_func
  22              		.type	writes, %function
  23              	writes:
  24              	.LFB267:
  25              		.file 1 "../../ChibiOS/os/hal/lib/streams/memstreams.c"
  26              		.loc 1 46 0
  27              		.cfi_startproc
  28              		@ args = 0, pretend = 0, frame = 24
  29              		@ frame_needed = 0, uses_anonymous_args = 0
  30 0000 00B5     		push	{lr}
  31              		.cfi_def_cfa_offset 4
  32              		.cfi_offset 14, -4
  33 0002 87B0     		sub	sp, sp, #28
  34              		.cfi_def_cfa_offset 32
  35 0004 0390     		str	r0, [sp, #12]
  36 0006 0291     		str	r1, [sp, #8]
  37 0008 0192     		str	r2, [sp, #4]
  38              		.loc 1 47 0
  39 000a 039B     		ldr	r3, [sp, #12]
  40 000c 0593     		str	r3, [sp, #20]
  41              		.loc 1 49 0
  42 000e 059B     		ldr	r3, [sp, #20]
  43 0010 9A68     		ldr	r2, [r3, #8]
  44 0012 059B     		ldr	r3, [sp, #20]
  45 0014 DB68     		ldr	r3, [r3, #12]
  46 0016 D21A     		subs	r2, r2, r3
  47 0018 019B     		ldr	r3, [sp, #4]
  48 001a 9A42     		cmp	r2, r3
  49 001c 05D2     		bcs	.L2
  50              		.loc 1 50 0
  51 001e 059B     		ldr	r3, [sp, #20]
  52 0020 9A68     		ldr	r2, [r3, #8]
  53 0022 059B     		ldr	r3, [sp, #20]
  54 0024 DB68     		ldr	r3, [r3, #12]
  55 0026 D31A     		subs	r3, r2, r3
  56 0028 0193     		str	r3, [sp, #4]
  57              	.L2:
ARM GAS  /tmp/ccRnFw0a.s 			page 2


  58              		.loc 1 51 0
  59 002a 059B     		ldr	r3, [sp, #20]
  60 002c 5A68     		ldr	r2, [r3, #4]
  61 002e 059B     		ldr	r3, [sp, #20]
  62 0030 DB68     		ldr	r3, [r3, #12]
  63 0032 1344     		add	r3, r3, r2
  64 0034 1846     		mov	r0, r3
  65 0036 0299     		ldr	r1, [sp, #8]
  66 0038 019A     		ldr	r2, [sp, #4]
  67 003a FFF7FEFF 		bl	memcpy
  68              		.loc 1 52 0
  69 003e 059B     		ldr	r3, [sp, #20]
  70 0040 DA68     		ldr	r2, [r3, #12]
  71 0042 019B     		ldr	r3, [sp, #4]
  72 0044 1A44     		add	r2, r2, r3
  73 0046 059B     		ldr	r3, [sp, #20]
  74 0048 DA60     		str	r2, [r3, #12]
  75              		.loc 1 53 0
  76 004a 019B     		ldr	r3, [sp, #4]
  77              		.loc 1 54 0
  78 004c 1846     		mov	r0, r3
  79 004e 07B0     		add	sp, sp, #28
  80              		@ sp needed
  81 0050 5DF804FB 		ldr	pc, [sp], #4
  82              		.cfi_endproc
  83              	.LFE267:
  84              		.size	writes, .-writes
  85              		.align	2
  86 0054 AFF30080 		.p2align 4,,15
  86      AFF30080 
  86      AFF30080 
  87              		.thumb
  88              		.thumb_func
  89              		.type	reads, %function
  90              	reads:
  91              	.LFB268:
  92              		.loc 1 56 0
  93              		.cfi_startproc
  94              		@ args = 0, pretend = 0, frame = 24
  95              		@ frame_needed = 0, uses_anonymous_args = 0
  96 0060 00B5     		push	{lr}
  97              		.cfi_def_cfa_offset 4
  98              		.cfi_offset 14, -4
  99 0062 87B0     		sub	sp, sp, #28
 100              		.cfi_def_cfa_offset 32
 101 0064 0390     		str	r0, [sp, #12]
 102 0066 0291     		str	r1, [sp, #8]
 103 0068 0192     		str	r2, [sp, #4]
 104              		.loc 1 57 0
 105 006a 039B     		ldr	r3, [sp, #12]
 106 006c 0593     		str	r3, [sp, #20]
 107              		.loc 1 59 0
 108 006e 059B     		ldr	r3, [sp, #20]
 109 0070 DA68     		ldr	r2, [r3, #12]
 110 0072 059B     		ldr	r3, [sp, #20]
 111 0074 1B69     		ldr	r3, [r3, #16]
 112 0076 D21A     		subs	r2, r2, r3
ARM GAS  /tmp/ccRnFw0a.s 			page 3


 113 0078 019B     		ldr	r3, [sp, #4]
 114 007a 9A42     		cmp	r2, r3
 115 007c 05D2     		bcs	.L5
 116              		.loc 1 60 0
 117 007e 059B     		ldr	r3, [sp, #20]
 118 0080 DA68     		ldr	r2, [r3, #12]
 119 0082 059B     		ldr	r3, [sp, #20]
 120 0084 1B69     		ldr	r3, [r3, #16]
 121 0086 D31A     		subs	r3, r2, r3
 122 0088 0193     		str	r3, [sp, #4]
 123              	.L5:
 124              		.loc 1 61 0
 125 008a 059B     		ldr	r3, [sp, #20]
 126 008c 5A68     		ldr	r2, [r3, #4]
 127 008e 059B     		ldr	r3, [sp, #20]
 128 0090 1B69     		ldr	r3, [r3, #16]
 129 0092 1344     		add	r3, r3, r2
 130 0094 0298     		ldr	r0, [sp, #8]
 131 0096 1946     		mov	r1, r3
 132 0098 019A     		ldr	r2, [sp, #4]
 133 009a FFF7FEFF 		bl	memcpy
 134              		.loc 1 62 0
 135 009e 059B     		ldr	r3, [sp, #20]
 136 00a0 1A69     		ldr	r2, [r3, #16]
 137 00a2 019B     		ldr	r3, [sp, #4]
 138 00a4 1A44     		add	r2, r2, r3
 139 00a6 059B     		ldr	r3, [sp, #20]
 140 00a8 1A61     		str	r2, [r3, #16]
 141              		.loc 1 63 0
 142 00aa 019B     		ldr	r3, [sp, #4]
 143              		.loc 1 64 0
 144 00ac 1846     		mov	r0, r3
 145 00ae 07B0     		add	sp, sp, #28
 146              		@ sp needed
 147 00b0 5DF804FB 		ldr	pc, [sp], #4
 148              		.cfi_endproc
 149              	.LFE268:
 150              		.size	reads, .-reads
 151              		.align	2
 152 00b4 AFF30080 		.p2align 4,,15
 152      AFF30080 
 152      AFF30080 
 153              		.thumb
 154              		.thumb_func
 155              		.type	put, %function
 156              	put:
 157              	.LFB269:
 158              		.loc 1 66 0
 159              		.cfi_startproc
 160              		@ args = 0, pretend = 0, frame = 16
 161              		@ frame_needed = 0, uses_anonymous_args = 0
 162              		@ link register save eliminated.
 163 00c0 84B0     		sub	sp, sp, #16
 164              		.cfi_def_cfa_offset 16
 165 00c2 0190     		str	r0, [sp, #4]
 166 00c4 0B46     		mov	r3, r1
 167 00c6 8DF80330 		strb	r3, [sp, #3]
ARM GAS  /tmp/ccRnFw0a.s 			page 4


 168              		.loc 1 67 0
 169 00ca 019B     		ldr	r3, [sp, #4]
 170 00cc 0393     		str	r3, [sp, #12]
 171              		.loc 1 69 0
 172 00ce 039B     		ldr	r3, [sp, #12]
 173 00d0 9A68     		ldr	r2, [r3, #8]
 174 00d2 039B     		ldr	r3, [sp, #12]
 175 00d4 DB68     		ldr	r3, [r3, #12]
 176 00d6 9A42     		cmp	r2, r3
 177 00d8 02D1     		bne	.L8
 178              		.loc 1 70 0
 179 00da 6FF00103 		mvn	r3, #1
 180 00de 0DE0     		b	.L9
 181              	.L8:
 182              		.loc 1 71 0
 183 00e0 039B     		ldr	r3, [sp, #12]
 184 00e2 5A68     		ldr	r2, [r3, #4]
 185 00e4 039B     		ldr	r3, [sp, #12]
 186 00e6 DB68     		ldr	r3, [r3, #12]
 187 00e8 1344     		add	r3, r3, r2
 188 00ea 9DF80320 		ldrb	r2, [sp, #3]
 189 00ee 1A70     		strb	r2, [r3]
 190              		.loc 1 72 0
 191 00f0 039B     		ldr	r3, [sp, #12]
 192 00f2 DB68     		ldr	r3, [r3, #12]
 193 00f4 5A1C     		adds	r2, r3, #1
 194 00f6 039B     		ldr	r3, [sp, #12]
 195 00f8 DA60     		str	r2, [r3, #12]
 196              		.loc 1 73 0
 197 00fa 0023     		movs	r3, #0
 198              	.L9:
 199              		.loc 1 74 0
 200 00fc 1846     		mov	r0, r3
 201 00fe 04B0     		add	sp, sp, #16
 202              		@ sp needed
 203 0100 7047     		bx	lr
 204              		.cfi_endproc
 205              	.LFE269:
 206              		.size	put, .-put
 207 0102 00BF     		.align	2
 208 0104 AFF30080 		.p2align 4,,15
 208      AFF30080 
 208      AFF30080 
 209              		.thumb
 210              		.thumb_func
 211              		.type	get, %function
 212              	get:
 213              	.LFB270:
 214              		.loc 1 76 0
 215              		.cfi_startproc
 216              		@ args = 0, pretend = 0, frame = 16
 217              		@ frame_needed = 0, uses_anonymous_args = 0
 218              		@ link register save eliminated.
 219 0110 84B0     		sub	sp, sp, #16
 220              		.cfi_def_cfa_offset 16
 221 0112 0190     		str	r0, [sp, #4]
 222              		.loc 1 78 0
ARM GAS  /tmp/ccRnFw0a.s 			page 5


 223 0114 019B     		ldr	r3, [sp, #4]
 224 0116 0393     		str	r3, [sp, #12]
 225              		.loc 1 80 0
 226 0118 039B     		ldr	r3, [sp, #12]
 227 011a DA68     		ldr	r2, [r3, #12]
 228 011c 039B     		ldr	r3, [sp, #12]
 229 011e 1B69     		ldr	r3, [r3, #16]
 230 0120 9A42     		cmp	r2, r3
 231 0122 02D1     		bne	.L11
 232              		.loc 1 81 0
 233 0124 6FF00103 		mvn	r3, #1
 234 0128 0EE0     		b	.L12
 235              	.L11:
 236              		.loc 1 82 0
 237 012a 039B     		ldr	r3, [sp, #12]
 238 012c 5A68     		ldr	r2, [r3, #4]
 239 012e 039B     		ldr	r3, [sp, #12]
 240 0130 1B69     		ldr	r3, [r3, #16]
 241 0132 1344     		add	r3, r3, r2
 242 0134 1B78     		ldrb	r3, [r3]
 243 0136 8DF80B30 		strb	r3, [sp, #11]
 244              		.loc 1 83 0
 245 013a 039B     		ldr	r3, [sp, #12]
 246 013c 1B69     		ldr	r3, [r3, #16]
 247 013e 5A1C     		adds	r2, r3, #1
 248 0140 039B     		ldr	r3, [sp, #12]
 249 0142 1A61     		str	r2, [r3, #16]
 250              		.loc 1 84 0
 251 0144 9DF80B30 		ldrb	r3, [sp, #11]	@ zero_extendqisi2
 252              	.L12:
 253              		.loc 1 85 0
 254 0148 1846     		mov	r0, r3
 255 014a 04B0     		add	sp, sp, #16
 256              		@ sp needed
 257 014c 7047     		bx	lr
 258              		.cfi_endproc
 259              	.LFE270:
 260              		.size	get, .-get
 261              		.section	.rodata
 262              		.align	2
 263              		.type	vmt, %object
 264              		.size	vmt, 16
 265              	vmt:
 266 0000 00000000 		.word	writes
 267 0004 00000000 		.word	reads
 268 0008 00000000 		.word	put
 269 000c 00000000 		.word	get
 270              		.text
 271 014e 00BF     		.align	2
 272              		.p2align 4,,15
 273              		.global	msObjectInit
 274              		.thumb
 275              		.thumb_func
 276              		.type	msObjectInit, %function
 277              	msObjectInit:
 278              	.LFB271:
 279              		.loc 1 104 0
ARM GAS  /tmp/ccRnFw0a.s 			page 6


 280              		.cfi_startproc
 281              		@ args = 0, pretend = 0, frame = 16
 282              		@ frame_needed = 0, uses_anonymous_args = 0
 283              		@ link register save eliminated.
 284 0150 84B0     		sub	sp, sp, #16
 285              		.cfi_def_cfa_offset 16
 286 0152 0390     		str	r0, [sp, #12]
 287 0154 0291     		str	r1, [sp, #8]
 288 0156 0192     		str	r2, [sp, #4]
 289 0158 0093     		str	r3, [sp]
 290              		.loc 1 106 0
 291 015a 039B     		ldr	r3, [sp, #12]
 292 015c 074A     		ldr	r2, .L14
 293 015e 1A60     		str	r2, [r3]
 294              		.loc 1 107 0
 295 0160 039B     		ldr	r3, [sp, #12]
 296 0162 029A     		ldr	r2, [sp, #8]
 297 0164 5A60     		str	r2, [r3, #4]
 298              		.loc 1 108 0
 299 0166 039B     		ldr	r3, [sp, #12]
 300 0168 019A     		ldr	r2, [sp, #4]
 301 016a 9A60     		str	r2, [r3, #8]
 302              		.loc 1 109 0
 303 016c 039B     		ldr	r3, [sp, #12]
 304 016e 009A     		ldr	r2, [sp]
 305 0170 DA60     		str	r2, [r3, #12]
 306              		.loc 1 110 0
 307 0172 039B     		ldr	r3, [sp, #12]
 308 0174 0022     		movs	r2, #0
 309 0176 1A61     		str	r2, [r3, #16]
 310              		.loc 1 111 0
 311 0178 04B0     		add	sp, sp, #16
 312              		@ sp needed
 313 017a 7047     		bx	lr
 314              	.L15:
 315              		.align	2
 316              	.L14:
 317 017c 00000000 		.word	vmt
 318              		.cfi_endproc
 319              	.LFE271:
 320              		.size	msObjectInit, .-msObjectInit
 321              	.Letext0:
 322              		.file 2 "/nfs/nfs5/home/research/hardware/arm2/gcc-arm-embedded/gcc-arm-none-eabi-4_8-2014q2/lib/g
 323              		.file 3 "/nfs/nfs5/home/research/hardware/arm2/gcc-arm-embedded/gcc-arm-none-eabi-4_8-2014q2/arm-n
 324              		.file 4 "/nfs/nfs5/home/research/hardware/arm2/gcc-arm-embedded/gcc-arm-none-eabi-4_8-2014q2/arm-n
 325              		.file 5 "../../ChibiOS/os/rt/ports/ARMCMx/compilers/GCC/chtypes.h"
 326              		.file 6 "../../ChibiOS/os/rt/include/chsystypes.h"
 327              		.file 7 "../../ChibiOS/os/rt/include/chschd.h"
 328              		.file 8 "../../ChibiOS/os/rt/ports/ARMCMx/chcore.h"
 329              		.file 9 "../../ChibiOS/os/rt/ports/ARMCMx/chcore_v7m.h"
 330              		.file 10 "../../ChibiOS/os/rt/include/chtm.h"
 331              		.file 11 "../../ChibiOS/os/rt/include/chsem.h"
 332              		.file 12 "../../ChibiOS/os/rt/include/chmtx.h"
 333              		.file 13 "../../ChibiOS/os/hal/lib/streams/memstreams.h"
 334              		.file 14 "../../ChibiOS/os/ext/CMSIS/include/core_cm4.h"