ARM GAS  /tmp/ccRnFw0a.s 			page 1


   1              		.syntax unified
   2              		.cpu cortex-m4
   3              		.fpu softvfp
   4              		.eabi_attribute 20, 1
   5              		.eabi_attribute 21, 1
   6              		.eabi_attribute 23, 3
   7              		.eabi_attribute 24, 1
   8              		.eabi_attribute 25, 1
   9              		.eabi_attribute 26, 1
  10              		.eabi_attribute 30, 6
  11              		.eabi_attribute 34, 1
  12              		.eabi_attribute 18, 4
  13              		.thumb
  14              		.file	"memstreams.c"
  15              		.text
  16              	.Ltext0:
  17              		.cfi_sections	.debug_frame
  18              		.align	2
  19              		.p2align 4,,15
  20              		.thumb
  21              		.thumb_func
  22              		.type	writes, %function
  23              	writes:
  24              	.LFB267:
  25              		.file 1 "../../ChibiOS/os/hal/lib/streams/memstreams.c"
  26              		.loc 1 46 0
  27              		.cfi_startproc
  28              		@ args = 0, pretend = 0, frame = 24
  29              		@ frame_needed = 0, uses_anonymous_args = 0
  30 0000 00B5     		push	{lr}
  31              		.cfi_def_cfa_offset 4
  32              		.cfi_offset 14, -4
  33 0002 87B0     		sub	sp, sp, #28
  34              		.cfi_def_cfa_offset 32
  35 0004 0390     		str	r0, [sp, #12]
  36 0006 0291     		str	r1, [sp, #8]
  37 0008 0192     		str	r2, [sp, #4]
  38              		.loc 1 47 0
  39 000a 039B     		ldr	r3, [sp, #12]
  40 000c 0593     		str	r3, [sp, #20]
  41              		.loc 1 49 0
  42 000e 059B     		ldr	r3, [sp, #20]
  43 0010 9A68     		ldr	r2, [r3, #8]
  44 0012 059B     		ldr	r3, [sp, #20]
  45 0014 DB68     		ldr	r3, [r3, #12]
  46 0016 D21A     		subs	r2, r2, r3
  47 0018 019B     		ldr	r3, [sp, #4]
  48 001a 9A42     		cmp	r2, r3
  49 001c 05D2     		bcs	.L2
  50              		.loc 1 50 0
  51 001e 059B     		ldr	r3, [sp, #20]
  52 0020 9A68     		ldr	r2, [r3, #8]
  53 0022 059B     		ldr	r3, [sp, #20]
  54 0024 DB68     		ldr	r3, [r3, #12]
  55 0026 D31A     		subs	r3, r2, r3
  56 0028 0193     		str	r3, [sp, #4]
  57              	.L2:
ARM GAS  /tmp/ccRnFw0a.s 			page 2


  58              		.loc 1 51 0
  59 002a 059B     		ldr	r3, [sp, #20]
  60 002c 5A68     		ldr	r2, [r3, #4]
  61 002e 059B     		ldr	r3, [sp, #20]
  62 0030 DB68     		ldr	r3, [r3, #12]
  63 0032 1344     		add	r3, r3, r2
  64 0034 1846     		mov	r0, r3
  65 0036 0299     		ldr	r1, [sp, #8]
  66 0038 019A     		ldr	r2, [sp, #4]
  67 003a FFF7FEFF 		bl	memcpy
  68              		.loc 1 52 0
  69 003e 059B     		ldr	r3, [sp, #20]
  70 0040 DA68     		ldr	r2, [r3, #12]
  71 0042 019B     		ldr	r3, [sp, #4]
  72 0044 1A44     		add	r2, r2, r3
  73 0046 059B     		ldr	r3, [sp, #20]
  74 0048 DA60     		str	r2, [r3, #12]
  75              		.loc 1 53 0
  76 004a 019B     		ldr	r3, [sp, #4]
  77              		.loc 1 54 0
  78 004c 1846     		mov	r0, r3
  79 004e 07B0     		add	sp, sp, #28
  80              		@ sp needed
  81 0050 5DF804FB 		ldr	pc, [sp], #4
  82              		.cfi_endproc
  83              	.LFE267:
  84              		.size	writes, .-writes
  85              		.align	2
  86 0054 AFF30080 		.p2align 4,,15
  86      AFF30080 
  86      AFF30080 
  87              		.thumb
  88              		.thumb_func
  89              		.type	reads, %function
  90              	reads:
  91              	.LFB268:
  92              		.loc 1 56 0
  93              		.cfi_startproc
  94              		@ args = 0, pretend = 0, frame = 24
  95              		@ frame_needed = 0, uses_anonymous_args = 0
  96 0060 00B5     		push	{lr}
  97              		.cfi_def_cfa_offset 4
  98              		.cfi_offset 14, -4
  99 0062 87B0     		sub	sp, sp, #28
 100              		.cfi_def_cfa_offset 32
 101 0064 0390     		str	r0, [sp, #12]
 102 0066 0291     		str	r1, [sp, #8]
 103 0068 0192     		str	r2, [sp, #4]
 104              		.loc 1 57 0
 105 006a 039B     		ldr	r3, [sp, #12]
 106 006c 0593     		str	r3, [sp, #20]
 107              		.loc 1 59 0
 108 006e 059B     		ldr	r3, [sp, #20]
 109 0070 DA68     		ldr	r2, [r3, #12]
 110 0072 059B     		ldr	r3, [sp, #20]
 111 0074 1B69     		ldr	r3, [r3, #16]
 112 0076 D21A     		subs	r2, r2, r3
ARM GAS  /tmp/ccRnFw0a.s 			page 3


 113 0078 019B     		ldr	r3, [sp, #4]
 114 007a 9A42     		cmp	r2, r3
 115 007c 05D2     		bcs	.L5
 116              		.loc 1 60 0
 117 007e 059B     		ldr	r3, [sp, #20]
 118 0080 DA68     		ldr	r2, [r3, #12]
 119 0082 059B     		ldr	r3, [sp, #20]
 120 0084 1B69     		ldr	r3, [r3, #16]
 121 0086 D31A     		subs	r3, r2, r3
 122 0088 0193     		str	r3, [sp, #4]
 123              	.L5:
 124              		.loc 1 61 0
 125 008a 059B     		ldr	r3, [sp, #20]
 126 008c 5A68     		ldr	r2, [r3, #4]
 127 008e 059B     		ldr	r3, [sp, #20]
 128 0090 1B69     		ldr	r3, [r3, #16]
 129 0092 1344     		add	r3, r3, r2
 130 0094 0298     		ldr	r0, [sp, #8]
 131 0096 1946     		mov	r1, r3
 132 0098 019A     		ldr	r2, [sp, #4]
 133 009a FFF7FEFF 		bl	memcpy
 134              		.loc 1 62 0
 135 009e 059B     		ldr	r3, [sp, #20]
 136 00a0 1A69     		ldr	r2, [r3, #16]
 137 00a2 019B     		ldr	r3, [sp, #4]
 138 00a4 1A44     		add	r2, r2, r3
 139 00a6 059B     		ldr	r3, [sp, #20]
 140 00a8 1A61     		str	r2, [r3, #16]
 141              		.loc 1 63 0
 142 00aa 019B     		ldr	r3, [sp, #4]
 143              		.loc 1 64 0
 144 00ac 1846     		mov	r0, r3
 145 00ae 07B0     		add	sp, sp, #28
 146              		@ sp needed
 147 00b0 5DF804FB 		ldr	pc, [sp], #4
 148              		.cfi_endproc
 149              	.LFE268:
 150              		.size	reads, .-reads
 151              		.align	2
 152 00b4 AFF30080 		.p2align 4,,15
 152      AFF30080 
 152      AFF30080 
 153              		.thumb
 154              		.thumb_func
 155              		.type	put, %function
 156              	put:
 157              	.LFB269:
 158              		.loc 1 66 0
 159              		.cfi_startproc
 160              		@ args = 0, pretend = 0, frame = 16
 161              		@ frame_needed = 0, uses_anonymous_args = 0
 162              		@ link register save eliminated.
 163 00c0 84B0     		sub	sp, sp, #16
 164              		.cfi_def_cfa_offset 16
 165 00c2 0190     		str	r0, [sp, #4]
 166 00c4 0B46     		mov	r3, r1
 167 00c6 8DF80330 		strb	r3, [sp, #3]
ARM GAS  /tmp/ccRnFw0a.s 			page 4


 168              		.loc 1 67 0
 169 00ca 019B     		ldr	r3, [sp, #4]
 170 00cc 0393     		str	r3, [sp, #12]
 171              		.loc 1 69 0
 172 00ce 039B     		ldr	r3, [sp, #12]
 173 00d0 9A68     		ldr	r2, [r3, #8]
 174 00d2 039B     		ldr	r3, [sp, #12]
 175 00d4 DB68     		ldr	r3, [r3, #12]
 176 00d6 9A42     		cmp	r2, r3
 177 00d8 02D1     		bne	.L8
 178              		.loc 1 70 0
 179 00da 6FF00103 		mvn	r3, #1
 180 00de 0DE0     		b	.L9
 181              	.L8:
 182              		.loc 1 71 0
 183 00e0 039B     		ldr	r3, [sp, #12]
 184 00e2 5A68     		ldr	r2, [r3, #4]
 185 00e4 039B     		ldr	r3, [sp, #12]
 186 00e6 DB68     		ldr	r3, [r3, #12]
 187 00e8 1344     		add	r3, r3, r2
 188 00ea 9DF80320 		ldrb	r2, [sp, #3]
 189 00ee 1A70     		strb	r2, [r3]
 190              		.loc 1 72 0
 191 00f0 039B     		ldr	r3, [sp, #12]
 192 00f2 DB68     		ldr	r3, [r3, #12]
 193 00f4 5A1C     		adds	r2, r3, #1
 194 00f6 039B     		ldr	r3, [sp, #12]
 195 00f8 DA60     		str	r2, [r3, #12]
 196              		.loc 1 73 0
 197 00fa 0023     		movs	r3, #0
 198              	.L9:
 199              		.loc 1 74 0
 200 00fc 1846     		mov	r0, r3
 201 00fe 04B0     		add	sp, sp, #16
 202              		@ sp needed
 203 0100 7047     		bx	lr
 204              		.cfi_endproc
 205              	.LFE269:
 206              		.size	put, .-put
 207 0102 00BF     		.align	2
 208 0104 AFF30080 		.p2align 4,,15
 208      AFF30080 
 208      AFF30080 
 209              		.thumb
 210              		.thumb_func
 211              		.type	get, %function
 212              	get:
 213              	.LFB270:
 214              		.loc 1 76 0
 215              		.cfi_startproc
 216              		@ args = 0, pretend = 0, frame = 16
 217              		@ frame_needed = 0, uses_anonymous_args = 0
 218              		@ link register save eliminated.
 219 0110 84B0     		sub	sp, sp, #16
 220              		.cfi_def_cfa_offset 16
 221 0112 0190     		str	r0, [sp, #4]
 222              		.loc 1 78 0
ARM GAS  /tmp/ccRnFw0a.s 			page 5


 223 0114 019B     		ldr	r3, [sp, #4]
 224 0116 0393     		str	r3, [sp, #12]
 225              		.loc 1 80 0
 226 0118 039B     		ldr	r3, [sp, #12]
 227 011a DA68     		ldr	r2, [r3, #12]
 228 011c 039B     		ldr	r3, [sp, #12]
 229 011e 1B69     		ldr	r3, [r3, #16]
 230 0120 9A42     		cmp	r2, r3
 231 0122 02D1     		bne	.L11
 232              		.loc 1 81 0
 233 0124 6FF00103 		mvn	r3, #1
 234 0128 0EE0     		b	.L12
 235              	.L11:
 236              		.loc 1 82 0
 237 012a 039B     		ldr	r3, [sp, #12]
 238 012c 5A68     		ldr	r2, [r3, #4]
 239 012e 039B     		ldr	r3, [sp, #12]
 240 0130 1B69     		ldr	r3, [r3, #16]
 241 0132 1344     		add	r3, r3, r2
 242 0134 1B78     		ldrb	r3, [r3]
 243 0136 8DF80B30 		strb	r3, [sp, #11]
 244              		.loc 1 83 0
 245 013a 039B     		ldr	r3, [sp, #12]
 246 013c 1B69     		ldr	r3, [r3, #16]
 247 013e 5A1C     		adds	r2, r3, #1
 248 0140 039B     		ldr	r3, [sp, #12]
 249 0142 1A61     		str	r2, [r3, #16]
 250              		.loc 1 84 0
 251 0144 9DF80B30 		ldrb	r3, [sp, #11]	@ zero_extendqisi2
 252              	.L12:
 253              		.loc 1 85 0
 254 0148 1846     		mov	r0, r3
 255 014a 04B0     		add	sp, sp, #16
 256              		@ sp needed
 257 014c 7047     		bx	lr
 258              		.cfi_endproc
 259              	.LFE270:
 260              		.size	get, .-get
 261              		.section	.rodata
 262              		.align	2
 263              		.type	vmt, %object
 264              		.size	vmt, 16
 265              	vmt:
 266 0000 00000000 		.word	writes
 267 0004 00000000 		.word	reads
 268 0008 00000000 		.word	put
 269 000c 00000000 		.word	get
 270              		.text
 271 014e 00BF     		.align	2
 272              		.p2align 4,,15
 273              		.global	msObjectInit
 274              		.thumb
 275              		.thumb_func
 276              		.type	msObjectInit, %function
 277              	msObjectInit:
 278              	.LFB271:
 279              		.loc 1 104 0
ARM GAS  /tmp/ccRnFw0a.s 			page 6


 280              		.cfi_startproc
 281              		@ args = 0, pretend = 0, frame = 16
 282              		@ frame_needed = 0, uses_anonymous_args = 0
 283              		@ link register save eliminated.
 284 0150 84B0     		sub	sp, sp, #16
 285              		.cfi_def_cfa_offset 16
 286 0152 0390     		str	r0, [sp, #12]
 287 0154 0291     		str	r1, [sp, #8]
 288 0156 0192     		str	r2, [sp, #4]
 289 0158 0093     		str	r3, [sp]
 290              		.loc 1 106 0
 291 015a 039B     		ldr	r3, [sp, #12]
 292 015c 074A     		ldr	r2, .L14
 293 015e 1A60     		str	r2, [r3]
 294              		.loc 1 107 0
 295 0160 039B     		ldr	r3, [sp, #12]
 296 0162 029A     		ldr	r2, [sp, #8]
 297 0164 5A60     		str	r2, [r3, #4]
 298              		.loc 1 108 0
 299 0166 039B     		ldr	r3, [sp, #12]
 300 0168 019A     		ldr	r2, [sp, #4]
 301 016a 9A60     		str	r2, [r3, #8]
 302              		.loc 1 109 0
 303 016c 039B     		ldr	r3, [sp, #12]
 304 016e 009A     		ldr	r2, [sp]
 305 0170 DA60     		str	r2, [r3, #12]
 306              		.loc 1 110 0
 307 0172 039B     		ldr	r3, [sp, #12]
 308 0174 0022     		movs	r2, #0
 309 0176 1A61     		str	r2, [r3, #16]
 310              		.loc 1 111 0
 311 0178 04B0     		add	sp, sp, #16
 312              		@ sp needed
 313 017a 7047     		bx	lr
 314              	.L15:
 315              		.align	2
 316              	.L14:
 317 017c 00000000 		.word	vmt
 318              		.cfi_endproc
 319              	.LFE271:
 320              		.size	msObjectInit, .-msObjectInit
 321              	.Letext0:
 322              		.file 2 "/nfs/nfs5/home/research/hardware/arm2/gcc-arm-embedded/gcc-arm-none-eabi-4_8-2014q2/lib/g
 323              		.file 3 "/nfs/nfs5/home/research/hardware/arm2/gcc-arm-embedded/gcc-arm-none-eabi-4_8-2014q2/arm-n
 324              		.file 4 "/nfs/nfs5/home/research/hardware/arm2/gcc-arm-embedded/gcc-arm-none-eabi-4_8-2014q2/arm-n
 325              		.file 5 "../../ChibiOS/os/rt/ports/ARMCMx/compilers/GCC/chtypes.h"
 326              		.file 6 "../../ChibiOS/os/rt/include/chsystypes.h"
 327              		.file 7 "../../ChibiOS/os/rt/include/chschd.h"
 328              		.file 8 "../../ChibiOS/os/rt/ports/ARMCMx/chcore.h"
 329              		.file 9 "../../ChibiOS/os/rt/ports/ARMCMx/chcore_v7m.h"
 330              		.file 10 "../../ChibiOS/os/rt/include/chtm.h"
 331              		.file 11 "../../ChibiOS/os/rt/include/chsem.h"
 332              		.file 12 "../../ChibiOS/os/rt/include/chmtx.h"
 333              		.file 13 "../../ChibiOS/os/hal/lib/streams/memstreams.h"
 334              		.file 14 "../../ChibiOS/os/ext/CMSIS/include/core_cm4.h"
 335              		.section	.debug_info,"",%progbits
 336              	.Ldebug_info0:
ARM GAS  /tmp/ccRnFw0a.s 			page 7


 337 0000 F6080000 		.4byte	0x8f6
 338 0004 0400     		.2byte	0x4
 339 0006 00000000 		.4byte	.Ldebug_abbrev0
 340 000a 04       		.byte	0x4
 341 000b 01       		.uleb128 0x1
 342 000c 28020000 		.4byte	.LASF114
 343 0010 01       		.byte	0x1
 344 0011 70030000 		.4byte	.LASF115
 345 0015 60000000 		.4byte	.LASF116
 346 0019 00000000 		.4byte	.Ltext0
 347 001d 80010000 		.4byte	.Letext0-.Ltext0
 348 0021 00000000 		.4byte	.Ldebug_line0
 349 0025 02       		.uleb128 0x2
 350 0026 04       		.byte	0x4
 351 0027 05       		.byte	0x5
 352 0028 696E7400 		.ascii	"int\000"
 353 002c 03       		.uleb128 0x3
 354 002d 24000000 		.4byte	.LASF2
 355 0031 02       		.byte	0x2
 356 0032 D4       		.byte	0xd4
 357 0033 37000000 		.4byte	0x37
 358 0037 04       		.uleb128 0x4
 359 0038 04       		.byte	0x4
 360 0039 07       		.byte	0x7
 361 003a BD010000 		.4byte	.LASF0
 362 003e 04       		.uleb128 0x4
 363 003f 01       		.byte	0x1
 364 0040 06       		.byte	0x6
 365 0041 21010000 		.4byte	.LASF1
 366 0045 03       		.uleb128 0x3
 367 0046 3B000000 		.4byte	.LASF3
 368 004a 03       		.byte	0x3
 369 004b 1C       		.byte	0x1c
 370 004c 50000000 		.4byte	0x50
 371 0050 04       		.uleb128 0x4
 372 0051 01       		.byte	0x1
 373 0052 08       		.byte	0x8
 374 0053 12040000 		.4byte	.LASF4
 375 0057 04       		.uleb128 0x4
 376 0058 02       		.byte	0x2
 377 0059 05       		.byte	0x5
 378 005a 32040000 		.4byte	.LASF5
 379 005e 04       		.uleb128 0x4
 380 005f 02       		.byte	0x2
 381 0060 07       		.byte	0x7
 382 0061 EA010000 		.4byte	.LASF6
 383 0065 03       		.uleb128 0x3
 384 0066 EC020000 		.4byte	.LASF7
 385 006a 03       		.byte	0x3
 386 006b 37       		.byte	0x37
 387 006c 70000000 		.4byte	0x70
 388 0070 04       		.uleb128 0x4
 389 0071 04       		.byte	0x4
 390 0072 05       		.byte	0x5
 391 0073 5E010000 		.4byte	.LASF8
 392 0077 03       		.uleb128 0x3
 393 0078 0E050000 		.4byte	.LASF9
ARM GAS  /tmp/ccRnFw0a.s 			page 8


 394 007c 03       		.byte	0x3
 395 007d 38       		.byte	0x38
 396 007e 82000000 		.4byte	0x82
 397 0082 04       		.uleb128 0x4
 398 0083 04       		.byte	0x4
 399 0084 07       		.byte	0x7
 400 0085 C4040000 		.4byte	.LASF10
 401 0089 04       		.uleb128 0x4
 402 008a 08       		.byte	0x8
 403 008b 05       		.byte	0x5
 404 008c 13010000 		.4byte	.LASF11
 405 0090 03       		.uleb128 0x3
 406 0091 BD030000 		.4byte	.LASF12
 407 0095 03       		.byte	0x3
 408 0096 4E       		.byte	0x4e
 409 0097 9B000000 		.4byte	0x9b
 410 009b 04       		.uleb128 0x4
 411 009c 08       		.byte	0x8
 412 009d 07       		.byte	0x7
 413 009e A7000000 		.4byte	.LASF13
 414 00a2 04       		.uleb128 0x4
 415 00a3 04       		.byte	0x4
 416 00a4 07       		.byte	0x7
 417 00a5 1E030000 		.4byte	.LASF14
 418 00a9 05       		.uleb128 0x5
 419 00aa 04       		.byte	0x4
 420 00ab 04       		.uleb128 0x4
 421 00ac 01       		.byte	0x1
 422 00ad 08       		.byte	0x8
 423 00ae DB040000 		.4byte	.LASF15
 424 00b2 06       		.uleb128 0x6
 425 00b3 04       		.byte	0x4
 426 00b4 B8000000 		.4byte	0xb8
 427 00b8 07       		.uleb128 0x7
 428 00b9 AB000000 		.4byte	0xab
 429 00bd 03       		.uleb128 0x3
 430 00be 67050000 		.4byte	.LASF16
 431 00c2 04       		.byte	0x4
 432 00c3 2A       		.byte	0x2a
 433 00c4 45000000 		.4byte	0x45
 434 00c8 03       		.uleb128 0x3
 435 00c9 0A040000 		.4byte	.LASF17
 436 00cd 04       		.byte	0x4
 437 00ce 41       		.byte	0x41
 438 00cf 65000000 		.4byte	0x65
 439 00d3 03       		.uleb128 0x3
 440 00d4 93040000 		.4byte	.LASF18
 441 00d8 04       		.byte	0x4
 442 00d9 42       		.byte	0x42
 443 00da 77000000 		.4byte	0x77
 444 00de 03       		.uleb128 0x3
 445 00df 32000000 		.4byte	.LASF19
 446 00e3 04       		.byte	0x4
 447 00e4 4E       		.byte	0x4e
 448 00e5 90000000 		.4byte	0x90
 449 00e9 03       		.uleb128 0x3
 450 00ea 32050000 		.4byte	.LASF20
ARM GAS  /tmp/ccRnFw0a.s 			page 9


 451 00ee 05       		.byte	0x5
 452 00ef 39       		.byte	0x39
 453 00f0 D3000000 		.4byte	0xd3
 454 00f4 03       		.uleb128 0x3
 455 00f5 20020000 		.4byte	.LASF21
 456 00f9 05       		.byte	0x5
 457 00fa 3C       		.byte	0x3c
 458 00fb BD000000 		.4byte	0xbd
 459 00ff 03       		.uleb128 0x3
 460 0100 67010000 		.4byte	.LASF22
 461 0104 05       		.byte	0x5
 462 0105 3D       		.byte	0x3d
 463 0106 BD000000 		.4byte	0xbd
 464 010a 03       		.uleb128 0x3
 465 010b 0F000000 		.4byte	.LASF23
 466 010f 05       		.byte	0x5
 467 0110 3E       		.byte	0x3e
 468 0111 BD000000 		.4byte	0xbd
 469 0115 03       		.uleb128 0x3
 470 0116 44010000 		.4byte	.LASF24
 471 011a 05       		.byte	0x5
 472 011b 3F       		.byte	0x3f
 473 011c BD000000 		.4byte	0xbd
 474 0120 03       		.uleb128 0x3
 475 0121 DF030000 		.4byte	.LASF25
 476 0125 05       		.byte	0x5
 477 0126 40       		.byte	0x40
 478 0127 D3000000 		.4byte	0xd3
 479 012b 03       		.uleb128 0x3
 480 012c 07020000 		.4byte	.LASF26
 481 0130 05       		.byte	0x5
 482 0131 41       		.byte	0x41
 483 0132 C8000000 		.4byte	0xc8
 484 0136 03       		.uleb128 0x3
 485 0137 E0020000 		.4byte	.LASF27
 486 013b 05       		.byte	0x5
 487 013c 43       		.byte	0x43
 488 013d D3000000 		.4byte	0xd3
 489 0141 03       		.uleb128 0x3
 490 0142 B7010000 		.4byte	.LASF28
 491 0146 05       		.byte	0x5
 492 0147 45       		.byte	0x45
 493 0148 C8000000 		.4byte	0xc8
 494 014c 03       		.uleb128 0x3
 495 014d F0040000 		.4byte	.LASF29
 496 0151 06       		.byte	0x6
 497 0152 33       		.byte	0x33
 498 0153 D3000000 		.4byte	0xd3
 499 0157 03       		.uleb128 0x3
 500 0158 E0040000 		.4byte	.LASF30
 501 015c 06       		.byte	0x6
 502 015d 3F       		.byte	0x3f
 503 015e 62010000 		.4byte	0x162
 504 0162 08       		.uleb128 0x8
 505 0163 FD010000 		.4byte	.LASF51
 506 0167 44       		.byte	0x44
 507 0168 07       		.byte	0x7
ARM GAS  /tmp/ccRnFw0a.s 			page 10


 508 0169 C2       		.byte	0xc2
 509 016a 5B020000 		.4byte	0x25b
 510 016e 09       		.uleb128 0x9
 511 016f 54040000 		.4byte	.LASF31
 512 0173 07       		.byte	0x7
 513 0174 C3       		.byte	0xc3
 514 0175 66020000 		.4byte	0x266
 515 0179 00       		.byte	0
 516 017a 09       		.uleb128 0x9
 517 017b D8030000 		.4byte	.LASF32
 518 017f 07       		.byte	0x7
 519 0180 C5       		.byte	0xc5
 520 0181 66020000 		.4byte	0x266
 521 0185 04       		.byte	0x4
 522 0186 09       		.uleb128 0x9
 523 0187 06010000 		.4byte	.LASF33
 524 018b 07       		.byte	0x7
 525 018c C7       		.byte	0xc7
 526 018d 20010000 		.4byte	0x120
 527 0191 08       		.byte	0x8
 528 0192 09       		.uleb128 0x9
 529 0193 94050000 		.4byte	.LASF34
 530 0197 07       		.byte	0x7
 531 0198 C8       		.byte	0xc8
 532 0199 8D040000 		.4byte	0x48d
 533 019d 0C       		.byte	0xc
 534 019e 09       		.uleb128 0x9
 535 019f 77010000 		.4byte	.LASF35
 536 01a3 07       		.byte	0x7
 537 01a4 CA       		.byte	0xca
 538 01a5 66020000 		.4byte	0x266
 539 01a9 10       		.byte	0x10
 540 01aa 09       		.uleb128 0x9
 541 01ab 51030000 		.4byte	.LASF36
 542 01af 07       		.byte	0x7
 543 01b0 CB       		.byte	0xcb
 544 01b1 66020000 		.4byte	0x266
 545 01b5 14       		.byte	0x14
 546 01b6 09       		.uleb128 0x9
 547 01b7 63040000 		.4byte	.LASF37
 548 01bb 07       		.byte	0x7
 549 01bc D2       		.byte	0xd2
 550 01bd B2000000 		.4byte	0xb2
 551 01c1 18       		.byte	0x18
 552 01c2 09       		.uleb128 0x9
 553 01c3 20040000 		.4byte	.LASF38
 554 01c7 07       		.byte	0x7
 555 01c8 DD       		.byte	0xdd
 556 01c9 FF000000 		.4byte	0xff
 557 01cd 1C       		.byte	0x1c
 558 01ce 09       		.uleb128 0x9
 559 01cf 5B040000 		.4byte	.LASF39
 560 01d3 07       		.byte	0x7
 561 01d4 E1       		.byte	0xe1
 562 01d5 F4000000 		.4byte	0xf4
 563 01d9 1D       		.byte	0x1d
 564 01da 09       		.uleb128 0x9
ARM GAS  /tmp/ccRnFw0a.s 			page 11


 565 01db 5A050000 		.4byte	.LASF40
 566 01df 07       		.byte	0x7
 567 01e0 E6       		.byte	0xe6
 568 01e1 0A010000 		.4byte	0x10a
 569 01e5 1E       		.byte	0x1e
 570 01e6 09       		.uleb128 0x9
 571 01e7 3C040000 		.4byte	.LASF41
 572 01eb 07       		.byte	0x7
 573 01ec EC       		.byte	0xec
 574 01ed 15010000 		.4byte	0x115
 575 01f1 1F       		.byte	0x1f
 576 01f2 0A       		.uleb128 0xa
 577 01f3 705F7500 		.ascii	"p_u\000"
 578 01f7 07       		.byte	0x7
 579 01f8 3101     		.2byte	0x131
 580 01fa 47050000 		.4byte	0x547
 581 01fe 20       		.byte	0x20
 582 01ff 0B       		.uleb128 0xb
 583 0200 14030000 		.4byte	.LASF42
 584 0204 07       		.byte	0x7
 585 0205 3601     		.2byte	0x136
 586 0207 6C020000 		.4byte	0x26c
 587 020b 24       		.byte	0x24
 588 020c 0B       		.uleb128 0xb
 589 020d D9010000 		.4byte	.LASF43
 590 0211 07       		.byte	0x7
 591 0212 3C01     		.2byte	0x13c
 592 0214 90020000 		.4byte	0x290
 593 0218 28       		.byte	0x28
 594 0219 0B       		.uleb128 0xb
 595 021a 86050000 		.4byte	.LASF44
 596 021e 07       		.byte	0x7
 597 021f 4001     		.2byte	0x140
 598 0221 2B010000 		.4byte	0x12b
 599 0225 30       		.byte	0x30
 600 0226 0B       		.uleb128 0xb
 601 0227 88040000 		.4byte	.LASF45
 602 022b 07       		.byte	0x7
 603 022c 4601     		.2byte	0x146
 604 022e 36010000 		.4byte	0x136
 605 0232 34       		.byte	0x34
 606 0233 0B       		.uleb128 0xb
 607 0234 28040000 		.4byte	.LASF46
 608 0238 07       		.byte	0x7
 609 0239 4D01     		.2byte	0x14d
 610 023b 06060000 		.4byte	0x606
 611 023f 38       		.byte	0x38
 612 0240 0B       		.uleb128 0xb
 613 0241 FA040000 		.4byte	.LASF47
 614 0245 07       		.byte	0x7
 615 0246 5101     		.2byte	0x151
 616 0248 20010000 		.4byte	0x120
 617 024c 3C       		.byte	0x3c
 618 024d 0B       		.uleb128 0xb
 619 024e 2D010000 		.4byte	.LASF48
 620 0252 07       		.byte	0x7
 621 0253 5801     		.2byte	0x158
ARM GAS  /tmp/ccRnFw0a.s 			page 12


 622 0255 A9000000 		.4byte	0xa9
 623 0259 40       		.byte	0x40
 624 025a 00       		.byte	0
 625 025b 03       		.uleb128 0x3
 626 025c 27030000 		.4byte	.LASF49
 627 0260 06       		.byte	0x6
 628 0261 44       		.byte	0x44
 629 0262 66020000 		.4byte	0x266
 630 0266 06       		.uleb128 0x6
 631 0267 04       		.byte	0x4
 632 0268 57010000 		.4byte	0x157
 633 026c 03       		.uleb128 0x3
 634 026d 00000000 		.4byte	.LASF50
 635 0271 06       		.byte	0x6
 636 0272 49       		.byte	0x49
 637 0273 77020000 		.4byte	0x277
 638 0277 08       		.uleb128 0x8
 639 0278 B4040000 		.4byte	.LASF52
 640 027c 04       		.byte	0x4
 641 027d 07       		.byte	0x7
 642 027e B0       		.byte	0xb0
 643 027f 90020000 		.4byte	0x290
 644 0283 09       		.uleb128 0x9
 645 0284 54040000 		.4byte	.LASF31
 646 0288 07       		.byte	0x7
 647 0289 B1       		.byte	0xb1
 648 028a 66020000 		.4byte	0x266
 649 028e 00       		.byte	0
 650 028f 00       		.byte	0
 651 0290 03       		.uleb128 0x3
 652 0291 41050000 		.4byte	.LASF53
 653 0295 06       		.byte	0x6
 654 0296 50       		.byte	0x50
 655 0297 9B020000 		.4byte	0x29b
 656 029b 08       		.uleb128 0x8
 657 029c F5000000 		.4byte	.LASF54
 658 02a0 08       		.byte	0x8
 659 02a1 07       		.byte	0x7
 660 02a2 B7       		.byte	0xb7
 661 02a3 C0020000 		.4byte	0x2c0
 662 02a7 09       		.uleb128 0x9
 663 02a8 54040000 		.4byte	.LASF31
 664 02ac 07       		.byte	0x7
 665 02ad B8       		.byte	0xb8
 666 02ae 66020000 		.4byte	0x266
 667 02b2 00       		.byte	0
 668 02b3 09       		.uleb128 0x9
 669 02b4 D8030000 		.4byte	.LASF32
 670 02b8 07       		.byte	0x7
 671 02b9 B9       		.byte	0xb9
 672 02ba 66020000 		.4byte	0x266
 673 02be 04       		.byte	0x4
 674 02bf 00       		.byte	0
 675 02c0 03       		.uleb128 0x3
 676 02c1 17000000 		.4byte	.LASF55
 677 02c5 06       		.byte	0x6
 678 02c6 57       		.byte	0x57
ARM GAS  /tmp/ccRnFw0a.s 			page 13


 679 02c7 CB020000 		.4byte	0x2cb
 680 02cb 0C       		.uleb128 0xc
 681 02cc D2020000 		.4byte	.LASF56
 682 02d0 1C       		.byte	0x1c
 683 02d1 07       		.byte	0x7
 684 02d2 9001     		.2byte	0x190
 685 02d4 27030000 		.4byte	0x327
 686 02d8 0B       		.uleb128 0xb
 687 02d9 A3040000 		.4byte	.LASF57
 688 02dd 07       		.byte	0x7
 689 02de 9101     		.2byte	0x191
 690 02e0 90020000 		.4byte	0x290
 691 02e4 00       		.byte	0
 692 02e5 0B       		.uleb128 0xb
 693 02e6 46040000 		.4byte	.LASF58
 694 02ea 07       		.byte	0x7
 695 02eb 9201     		.2byte	0x192
 696 02ed 20010000 		.4byte	0x120
 697 02f1 08       		.byte	0x8
 698 02f2 0B       		.uleb128 0xb
 699 02f3 59030000 		.4byte	.LASF59
 700 02f7 07       		.byte	0x7
 701 02f8 9401     		.2byte	0x194
 702 02fa 8D040000 		.4byte	0x48d
 703 02fe 0C       		.byte	0xc
 704 02ff 0B       		.uleb128 0xb
 705 0300 87010000 		.4byte	.LASF60
 706 0304 07       		.byte	0x7
 707 0305 9701     		.2byte	0x197
 708 0307 66020000 		.4byte	0x266
 709 030b 10       		.byte	0x10
 710 030c 0B       		.uleb128 0xb
 711 030d A8030000 		.4byte	.LASF61
 712 0311 07       		.byte	0x7
 713 0312 9801     		.2byte	0x198
 714 0314 66020000 		.4byte	0x266
 715 0318 14       		.byte	0x14
 716 0319 0B       		.uleb128 0xb
 717 031a 9E030000 		.4byte	.LASF62
 718 031e 07       		.byte	0x7
 719 031f 9B01     		.2byte	0x19b
 720 0321 66020000 		.4byte	0x266
 721 0325 18       		.byte	0x18
 722 0326 00       		.byte	0
 723 0327 03       		.uleb128 0x3
 724 0328 05050000 		.4byte	.LASF63
 725 032c 06       		.byte	0x6
 726 032d 5C       		.byte	0x5c
 727 032e 32030000 		.4byte	0x332
 728 0332 06       		.uleb128 0x6
 729 0333 04       		.byte	0x4
 730 0334 38030000 		.4byte	0x338
 731 0338 0D       		.uleb128 0xd
 732 0339 43030000 		.4byte	0x343
 733 033d 0E       		.uleb128 0xe
 734 033e A9000000 		.4byte	0xa9
 735 0342 00       		.byte	0
ARM GAS  /tmp/ccRnFw0a.s 			page 14


 736 0343 03       		.uleb128 0x3
 737 0344 C8030000 		.4byte	.LASF64
 738 0348 06       		.byte	0x6
 739 0349 61       		.byte	0x61
 740 034a 4E030000 		.4byte	0x34e
 741 034e 0C       		.uleb128 0xc
 742 034f 6A040000 		.4byte	.LASF65
 743 0353 14       		.byte	0x14
 744 0354 07       		.byte	0x7
 745 0355 6B01     		.2byte	0x16b
 746 0357 9D030000 		.4byte	0x39d
 747 035b 0B       		.uleb128 0xb
 748 035c CA010000 		.4byte	.LASF66
 749 0360 07       		.byte	0x7
 750 0361 6C01     		.2byte	0x16c
 751 0363 0C060000 		.4byte	0x60c
 752 0367 00       		.byte	0
 753 0368 0B       		.uleb128 0xb
 754 0369 98010000 		.4byte	.LASF67
 755 036d 07       		.byte	0x7
 756 036e 6D01     		.2byte	0x16d
 757 0370 0C060000 		.4byte	0x60c
 758 0374 04       		.byte	0x4
 759 0375 0B       		.uleb128 0xb
 760 0376 AB040000 		.4byte	.LASF68
 761 037a 07       		.byte	0x7
 762 037b 6E01     		.2byte	0x16e
 763 037d 4C010000 		.4byte	0x14c
 764 0381 08       		.byte	0x8
 765 0382 0B       		.uleb128 0xb
 766 0383 9A050000 		.4byte	.LASF69
 767 0387 07       		.byte	0x7
 768 0388 6F01     		.2byte	0x16f
 769 038a 27030000 		.4byte	0x327
 770 038e 0C       		.byte	0xc
 771 038f 0B       		.uleb128 0xb
 772 0390 3A050000 		.4byte	.LASF70
 773 0394 07       		.byte	0x7
 774 0395 7101     		.2byte	0x171
 775 0397 A9000000 		.4byte	0xa9
 776 039b 10       		.byte	0x10
 777 039c 00       		.byte	0
 778 039d 03       		.uleb128 0x3
 779 039e D2000000 		.4byte	.LASF71
 780 03a2 06       		.byte	0x6
 781 03a3 66       		.byte	0x66
 782 03a4 A8030000 		.4byte	0x3a8
 783 03a8 0C       		.uleb128 0xc
 784 03a9 3A030000 		.4byte	.LASF72
 785 03ad 10       		.byte	0x10
 786 03ae 07       		.byte	0x7
 787 03af 7B01     		.2byte	0x17b
 788 03b1 EA030000 		.4byte	0x3ea
 789 03b5 0B       		.uleb128 0xb
 790 03b6 CA010000 		.4byte	.LASF66
 791 03ba 07       		.byte	0x7
 792 03bb 7C01     		.2byte	0x17c
ARM GAS  /tmp/ccRnFw0a.s 			page 15


 793 03bd 0C060000 		.4byte	0x60c
 794 03c1 00       		.byte	0
 795 03c2 0B       		.uleb128 0xb
 796 03c3 98010000 		.4byte	.LASF67
 797 03c7 07       		.byte	0x7
 798 03c8 7E01     		.2byte	0x17e
 799 03ca 0C060000 		.4byte	0x60c
 800 03ce 04       		.byte	0x4
 801 03cf 0B       		.uleb128 0xb
 802 03d0 AB040000 		.4byte	.LASF68
 803 03d4 07       		.byte	0x7
 804 03d5 8001     		.2byte	0x180
 805 03d7 4C010000 		.4byte	0x14c
 806 03db 08       		.byte	0x8
 807 03dc 0B       		.uleb128 0xb
 808 03dd 7B050000 		.4byte	.LASF73
 809 03e1 07       		.byte	0x7
 810 03e2 8201     		.2byte	0x182
 811 03e4 12060000 		.4byte	0x612
 812 03e8 0C       		.byte	0xc
 813 03e9 00       		.byte	0
 814 03ea 03       		.uleb128 0x3
 815 03eb 51000000 		.4byte	.LASF74
 816 03ef 06       		.byte	0x6
 817 03f0 6B       		.byte	0x6b
 818 03f1 F5030000 		.4byte	0x3f5
 819 03f5 0C       		.uleb128 0xc
 820 03f6 F4030000 		.4byte	.LASF75
 821 03fa 04       		.byte	0x4
 822 03fb 07       		.byte	0x7
 823 03fc A201     		.2byte	0x1a2
 824 03fe 10040000 		.4byte	0x410
 825 0402 0B       		.uleb128 0xb
 826 0403 19050000 		.4byte	.LASF76
 827 0407 07       		.byte	0x7
 828 0408 AA01     		.2byte	0x1aa
 829 040a 17060000 		.4byte	0x617
 830 040e 00       		.byte	0
 831 040f 00       		.byte	0
 832 0410 03       		.uleb128 0x3
 833 0411 0D020000 		.4byte	.LASF77
 834 0415 06       		.byte	0x6
 835 0416 70       		.byte	0x70
 836 0417 1B040000 		.4byte	0x41b
 837 041b 0F       		.uleb128 0xf
 838 041c 54010000 		.4byte	.LASF78
 839 0420 5001     		.2byte	0x150
 840 0422 07       		.byte	0x7
 841 0423 C201     		.2byte	0x1c2
 842 0425 77040000 		.4byte	0x477
 843 0429 0B       		.uleb128 0xb
 844 042a 61050000 		.4byte	.LASF79
 845 042e 07       		.byte	0x7
 846 042f C601     		.2byte	0x1c6
 847 0431 C0020000 		.4byte	0x2c0
 848 0435 00       		.byte	0
 849 0436 0B       		.uleb128 0xb
ARM GAS  /tmp/ccRnFw0a.s 			page 16


 850 0437 3D010000 		.4byte	.LASF80
 851 043b 07       		.byte	0x7
 852 043c CA01     		.2byte	0x1ca
 853 043e 9D030000 		.4byte	0x39d
 854 0442 1C       		.byte	0x1c
 855 0443 0A       		.uleb128 0xa
 856 0444 64626700 		.ascii	"dbg\000"
 857 0448 07       		.byte	0x7
 858 0449 CE01     		.2byte	0x1ce
 859 044b EA030000 		.4byte	0x3ea
 860 044f 2C       		.byte	0x2c
 861 0450 0B       		.uleb128 0xb
 862 0451 C7000000 		.4byte	.LASF81
 863 0455 07       		.byte	0x7
 864 0456 D201     		.2byte	0x1d2
 865 0458 57010000 		.4byte	0x157
 866 045c 30       		.byte	0x30
 867 045d 0A       		.uleb128 0xa
 868 045e 746D00   		.ascii	"tm\000"
 869 0461 07       		.byte	0x7
 870 0462 D701     		.2byte	0x1d7
 871 0464 3C050000 		.4byte	0x53c
 872 0468 74       		.byte	0x74
 873 0469 0B       		.uleb128 0xb
 874 046a A8010000 		.4byte	.LASF82
 875 046e 07       		.byte	0x7
 876 046f E301     		.2byte	0x1e3
 877 0471 1C060000 		.4byte	0x61c
 878 0475 78       		.byte	0x78
 879 0476 00       		.byte	0
 880 0477 03       		.uleb128 0x3
 881 0478 8F010000 		.4byte	.LASF83
 882 047c 08       		.byte	0x8
 883 047d 65       		.byte	0x65
 884 047e A9000000 		.4byte	0xa9
 885 0482 03       		.uleb128 0x3
 886 0483 F6020000 		.4byte	.LASF84
 887 0487 08       		.byte	0x8
 888 0488 6D       		.byte	0x6d
 889 0489 DE000000 		.4byte	0xde
 890 048d 08       		.uleb128 0x8
 891 048e 2A050000 		.4byte	.LASF85
 892 0492 04       		.byte	0x4
 893 0493 08       		.byte	0x8
 894 0494 89       		.byte	0x89
 895 0495 A6040000 		.4byte	0x4a6
 896 0499 10       		.uleb128 0x10
 897 049a 72313300 		.ascii	"r13\000"
 898 049e 08       		.byte	0x8
 899 049f 8A       		.byte	0x8a
 900 04a0 21050000 		.4byte	0x521
 901 04a4 00       		.byte	0
 902 04a5 00       		.byte	0
 903 04a6 08       		.uleb128 0x8
 904 04a7 45000000 		.4byte	.LASF86
 905 04ab 24       		.byte	0x24
 906 04ac 09       		.byte	0x9
ARM GAS  /tmp/ccRnFw0a.s 			page 17


 907 04ad FD       		.byte	0xfd
 908 04ae 21050000 		.4byte	0x521
 909 04b2 0A       		.uleb128 0xa
 910 04b3 723400   		.ascii	"r4\000"
 911 04b6 09       		.byte	0x9
 912 04b7 1001     		.2byte	0x110
 913 04b9 77040000 		.4byte	0x477
 914 04bd 00       		.byte	0
 915 04be 0A       		.uleb128 0xa
 916 04bf 723500   		.ascii	"r5\000"
 917 04c2 09       		.byte	0x9
 918 04c3 1101     		.2byte	0x111
 919 04c5 77040000 		.4byte	0x477
 920 04c9 04       		.byte	0x4
 921 04ca 0A       		.uleb128 0xa
 922 04cb 723600   		.ascii	"r6\000"
 923 04ce 09       		.byte	0x9
 924 04cf 1201     		.2byte	0x112
 925 04d1 77040000 		.4byte	0x477
 926 04d5 08       		.byte	0x8
 927 04d6 0A       		.uleb128 0xa
 928 04d7 723700   		.ascii	"r7\000"
 929 04da 09       		.byte	0x9
 930 04db 1301     		.2byte	0x113
 931 04dd 77040000 		.4byte	0x477
 932 04e1 0C       		.byte	0xc
 933 04e2 0A       		.uleb128 0xa
 934 04e3 723800   		.ascii	"r8\000"
 935 04e6 09       		.byte	0x9
 936 04e7 1401     		.2byte	0x114
 937 04e9 77040000 		.4byte	0x477
 938 04ed 10       		.byte	0x10
 939 04ee 0A       		.uleb128 0xa
 940 04ef 723900   		.ascii	"r9\000"
 941 04f2 09       		.byte	0x9
 942 04f3 1501     		.2byte	0x115
 943 04f5 77040000 		.4byte	0x477
 944 04f9 14       		.byte	0x14
 945 04fa 0A       		.uleb128 0xa
 946 04fb 72313000 		.ascii	"r10\000"
 947 04ff 09       		.byte	0x9
 948 0500 1601     		.2byte	0x116
 949 0502 77040000 		.4byte	0x477
 950 0506 18       		.byte	0x18
 951 0507 0A       		.uleb128 0xa
 952 0508 72313100 		.ascii	"r11\000"
 953 050c 09       		.byte	0x9
 954 050d 1701     		.2byte	0x117
 955 050f 77040000 		.4byte	0x477
 956 0513 1C       		.byte	0x1c
 957 0514 0A       		.uleb128 0xa
 958 0515 6C7200   		.ascii	"lr\000"
 959 0518 09       		.byte	0x9
 960 0519 1801     		.2byte	0x118
 961 051b 77040000 		.4byte	0x477
 962 051f 20       		.byte	0x20
 963 0520 00       		.byte	0
ARM GAS  /tmp/ccRnFw0a.s 			page 18


 964 0521 06       		.uleb128 0x6
 965 0522 04       		.byte	0x4
 966 0523 A6040000 		.4byte	0x4a6
 967 0527 11       		.uleb128 0x11
 968 0528 04       		.byte	0x4
 969 0529 0A       		.byte	0xa
 970 052a 38       		.byte	0x38
 971 052b 3C050000 		.4byte	0x53c
 972 052f 09       		.uleb128 0x9
 973 0530 23050000 		.4byte	.LASF87
 974 0534 0A       		.byte	0xa
 975 0535 3C       		.byte	0x3c
 976 0536 E9000000 		.4byte	0xe9
 977 053a 00       		.byte	0
 978 053b 00       		.byte	0
 979 053c 03       		.uleb128 0x3
 980 053d 5F030000 		.4byte	.LASF88
 981 0541 0A       		.byte	0xa
 982 0542 3D       		.byte	0x3d
 983 0543 27050000 		.4byte	0x527
 984 0547 12       		.uleb128 0x12
 985 0548 04       		.byte	0x4
 986 0549 07       		.byte	0x7
 987 054a FA       		.byte	0xfa
 988 054b A4050000 		.4byte	0x5a4
 989 054f 13       		.uleb128 0x13
 990 0550 2B000000 		.4byte	.LASF89
 991 0554 07       		.byte	0x7
 992 0555 0101     		.2byte	0x101
 993 0557 2B010000 		.4byte	0x12b
 994 055b 13       		.uleb128 0x13
 995 055c BE000000 		.4byte	.LASF90
 996 0560 07       		.byte	0x7
 997 0561 0801     		.2byte	0x108
 998 0563 2B010000 		.4byte	0x12b
 999 0567 13       		.uleb128 0x13
 1000 0568 6F050000 		.4byte	.LASF91
 1001 056c 07       		.byte	0x7
 1002 056d 0F01     		.2byte	0x10f
 1003 056f A9000000 		.4byte	0xa9
 1004 0573 13       		.uleb128 0x13
 1005 0574 4E010000 		.4byte	.LASF92
 1006 0578 07       		.byte	0x7
 1007 0579 1601     		.2byte	0x116
 1008 057b A4050000 		.4byte	0x5a4
 1009 057f 13       		.uleb128 0x13
 1010 0580 D2010000 		.4byte	.LASF93
 1011 0584 07       		.byte	0x7
 1012 0585 1E01     		.2byte	0x11e
 1013 0587 CF050000 		.4byte	0x5cf
 1014 058b 13       		.uleb128 0x13
 1015 058c 9C040000 		.4byte	.LASF94
 1016 0590 07       		.byte	0x7
 1017 0591 2701     		.2byte	0x127
 1018 0593 06060000 		.4byte	0x606
 1019 0597 13       		.uleb128 0x13
 1020 0598 4D040000 		.4byte	.LASF95
ARM GAS  /tmp/ccRnFw0a.s 			page 19


 1021 059c 07       		.byte	0x7
 1022 059d 2F01     		.2byte	0x12f
 1023 059f 36010000 		.4byte	0x136
 1024 05a3 00       		.byte	0
 1025 05a4 06       		.uleb128 0x6
 1026 05a5 04       		.byte	0x4
 1027 05a6 5B020000 		.4byte	0x25b
 1028 05aa 08       		.uleb128 0x8
 1029 05ab 7B040000 		.4byte	.LASF96
 1030 05af 0C       		.byte	0xc
 1031 05b0 0B       		.byte	0xb
 1032 05b1 34       		.byte	0x34
 1033 05b2 CF050000 		.4byte	0x5cf
 1034 05b6 09       		.uleb128 0x9
 1035 05b7 7F010000 		.4byte	.LASF97
 1036 05bb 0B       		.byte	0xb
 1037 05bc 35       		.byte	0x35
 1038 05bd 90020000 		.4byte	0x290
 1039 05c1 00       		.byte	0
 1040 05c2 09       		.uleb128 0x9
 1041 05c3 E4010000 		.4byte	.LASF98
 1042 05c7 0B       		.byte	0xb
 1043 05c8 37       		.byte	0x37
 1044 05c9 41010000 		.4byte	0x141
 1045 05cd 08       		.byte	0x8
 1046 05ce 00       		.byte	0
 1047 05cf 06       		.uleb128 0x6
 1048 05d0 04       		.byte	0x4
 1049 05d1 AA050000 		.4byte	0x5aa
 1050 05d5 08       		.uleb128 0x8
 1051 05d6 51050000 		.4byte	.LASF99
 1052 05da 10       		.byte	0x10
 1053 05db 0C       		.byte	0xc
 1054 05dc 39       		.byte	0x39
 1055 05dd 06060000 		.4byte	0x606
 1056 05e1 09       		.uleb128 0x9
 1057 05e2 35010000 		.4byte	.LASF100
 1058 05e6 0C       		.byte	0xc
 1059 05e7 3A       		.byte	0x3a
 1060 05e8 90020000 		.4byte	0x290
 1061 05ec 00       		.byte	0
 1062 05ed 09       		.uleb128 0x9
 1063 05ee 8C050000 		.4byte	.LASF101
 1064 05f2 0C       		.byte	0xc
 1065 05f3 3C       		.byte	0x3c
 1066 05f4 66020000 		.4byte	0x266
 1067 05f8 08       		.byte	0x8
 1068 05f9 09       		.uleb128 0x9
 1069 05fa E9040000 		.4byte	.LASF102
 1070 05fe 0C       		.byte	0xc
 1071 05ff 3E       		.byte	0x3e
 1072 0600 37060000 		.4byte	0x637
 1073 0604 0C       		.byte	0xc
 1074 0605 00       		.byte	0
 1075 0606 06       		.uleb128 0x6
 1076 0607 04       		.byte	0x4
 1077 0608 D5050000 		.4byte	0x5d5
ARM GAS  /tmp/ccRnFw0a.s 			page 20


 1078 060c 06       		.uleb128 0x6
 1079 060d 04       		.byte	0x4
 1080 060e 43030000 		.4byte	0x343
 1081 0612 14       		.uleb128 0x14
 1082 0613 4C010000 		.4byte	0x14c
 1083 0617 14       		.uleb128 0x14
 1084 0618 B2000000 		.4byte	0xb2
 1085 061c 15       		.uleb128 0x15
 1086 061d 82040000 		.4byte	0x482
 1087 0621 2C060000 		.4byte	0x62c
 1088 0625 16       		.uleb128 0x16
 1089 0626 A2000000 		.4byte	0xa2
 1090 062a 1A       		.byte	0x1a
 1091 062b 00       		.byte	0
 1092 062c 03       		.uleb128 0x3
 1093 062d A0010000 		.4byte	.LASF103
 1094 0631 0C       		.byte	0xc
 1095 0632 34       		.byte	0x34
 1096 0633 D5050000 		.4byte	0x5d5
 1097 0637 06       		.uleb128 0x6
 1098 0638 04       		.byte	0x4
 1099 0639 2C060000 		.4byte	0x62c
 1100 063d 06       		.uleb128 0x6
 1101 063e 04       		.byte	0x4
 1102 063f BD000000 		.4byte	0xbd
 1103 0643 17       		.uleb128 0x17
 1104 0644 2C000000 		.4byte	0x2c
 1105 0648 5C060000 		.4byte	0x65c
 1106 064c 0E       		.uleb128 0xe
 1107 064d A9000000 		.4byte	0xa9
 1108 0651 0E       		.uleb128 0xe
 1109 0652 5C060000 		.4byte	0x65c
 1110 0656 0E       		.uleb128 0xe
 1111 0657 2C000000 		.4byte	0x2c
 1112 065b 00       		.byte	0
 1113 065c 06       		.uleb128 0x6
 1114 065d 04       		.byte	0x4
 1115 065e 62060000 		.4byte	0x662
 1116 0662 07       		.uleb128 0x7
 1117 0663 BD000000 		.4byte	0xbd
 1118 0667 06       		.uleb128 0x6
 1119 0668 04       		.byte	0x4
 1120 0669 43060000 		.4byte	0x643
 1121 066d 17       		.uleb128 0x17
 1122 066e 2C000000 		.4byte	0x2c
 1123 0672 86060000 		.4byte	0x686
 1124 0676 0E       		.uleb128 0xe
 1125 0677 A9000000 		.4byte	0xa9
 1126 067b 0E       		.uleb128 0xe
 1127 067c 3D060000 		.4byte	0x63d
 1128 0680 0E       		.uleb128 0xe
 1129 0681 2C000000 		.4byte	0x2c
 1130 0685 00       		.byte	0
 1131 0686 06       		.uleb128 0x6
 1132 0687 04       		.byte	0x4
 1133 0688 6D060000 		.4byte	0x66d
 1134 068c 17       		.uleb128 0x17
ARM GAS  /tmp/ccRnFw0a.s 			page 21


 1135 068d 2B010000 		.4byte	0x12b
 1136 0691 A0060000 		.4byte	0x6a0
 1137 0695 0E       		.uleb128 0xe
 1138 0696 A9000000 		.4byte	0xa9
 1139 069a 0E       		.uleb128 0xe
 1140 069b BD000000 		.4byte	0xbd
 1141 069f 00       		.byte	0
 1142 06a0 06       		.uleb128 0x6
 1143 06a1 04       		.byte	0x4
 1144 06a2 8C060000 		.4byte	0x68c
 1145 06a6 17       		.uleb128 0x17
 1146 06a7 2B010000 		.4byte	0x12b
 1147 06ab B5060000 		.4byte	0x6b5
 1148 06af 0E       		.uleb128 0xe
 1149 06b0 A9000000 		.4byte	0xa9
 1150 06b4 00       		.byte	0
 1151 06b5 06       		.uleb128 0x6
 1152 06b6 04       		.byte	0x4
 1153 06b7 A6060000 		.4byte	0x6a6
 1154 06bb 04       		.uleb128 0x4
 1155 06bc 01       		.byte	0x1
 1156 06bd 02       		.byte	0x2
 1157 06be 04040000 		.4byte	.LASF104
 1158 06c2 08       		.uleb128 0x8
 1159 06c3 B0030000 		.4byte	.LASF105
 1160 06c7 10       		.byte	0x10
 1161 06c8 0D       		.byte	0xd
 1162 06c9 3D       		.byte	0x3d
 1163 06ca FF060000 		.4byte	0x6ff
 1164 06ce 09       		.uleb128 0x9
 1165 06cf 0E030000 		.4byte	.LASF106
 1166 06d3 0D       		.byte	0xd
 1167 06d4 3E       		.byte	0x3e
 1168 06d5 67060000 		.4byte	0x667
 1169 06d9 00       		.byte	0
 1170 06da 09       		.uleb128 0x9
 1171 06db D6040000 		.4byte	.LASF107
 1172 06df 0D       		.byte	0xd
 1173 06e0 3E       		.byte	0x3e
 1174 06e1 86060000 		.4byte	0x686
 1175 06e5 04       		.byte	0x4
 1176 06e6 10       		.uleb128 0x10
 1177 06e7 70757400 		.ascii	"put\000"
 1178 06eb 0D       		.byte	0xd
 1179 06ec 3E       		.byte	0x3e
 1180 06ed A0060000 		.4byte	0x6a0
 1181 06f1 08       		.byte	0x8
 1182 06f2 10       		.uleb128 0x10
 1183 06f3 67657400 		.ascii	"get\000"
 1184 06f7 0D       		.byte	0xd
 1185 06f8 3E       		.byte	0x3e
 1186 06f9 B5060000 		.4byte	0x6b5
 1187 06fd 0C       		.byte	0xc
 1188 06fe 00       		.byte	0
 1189 06ff 11       		.uleb128 0x11
 1190 0700 14       		.byte	0x14
 1191 0701 0D       		.byte	0xd
ARM GAS  /tmp/ccRnFw0a.s 			page 22


 1192 0702 46       		.byte	0x46
 1193 0703 44070000 		.4byte	0x744
 1194 0707 10       		.uleb128 0x10
 1195 0708 766D7400 		.ascii	"vmt\000"
 1196 070c 0D       		.byte	0xd
 1197 070d 48       		.byte	0x48
 1198 070e 44070000 		.4byte	0x744
 1199 0712 00       		.byte	0
 1200 0713 09       		.uleb128 0x9
 1201 0714 70010000 		.4byte	.LASF108
 1202 0718 0D       		.byte	0xd
 1203 0719 49       		.byte	0x49
 1204 071a 3D060000 		.4byte	0x63d
 1205 071e 04       		.byte	0x4
 1206 071f 09       		.uleb128 0x9
 1207 0720 76050000 		.4byte	.LASF109
 1208 0724 0D       		.byte	0xd
 1209 0725 49       		.byte	0x49
 1210 0726 2C000000 		.4byte	0x2c
 1211 072a 08       		.byte	0x8
 1212 072b 10       		.uleb128 0x10
 1213 072c 656F7300 		.ascii	"eos\000"
 1214 0730 0D       		.byte	0xd
 1215 0731 49       		.byte	0x49
 1216 0732 2C000000 		.4byte	0x2c
 1217 0736 0C       		.byte	0xc
 1218 0737 09       		.uleb128 0x9
 1219 0738 23050000 		.4byte	.LASF87
 1220 073c 0D       		.byte	0xd
 1221 073d 49       		.byte	0x49
 1222 073e 2C000000 		.4byte	0x2c
 1223 0742 10       		.byte	0x10
 1224 0743 00       		.byte	0
 1225 0744 06       		.uleb128 0x6
 1226 0745 04       		.byte	0x4
 1227 0746 4A070000 		.4byte	0x74a
 1228 074a 07       		.uleb128 0x7
 1229 074b C2060000 		.4byte	0x6c2
 1230 074f 03       		.uleb128 0x3
 1231 0750 E7030000 		.4byte	.LASF110
 1232 0754 0D       		.byte	0xd
 1233 0755 4A       		.byte	0x4a
 1234 0756 FF060000 		.4byte	0x6ff
 1235 075a 18       		.uleb128 0x18
 1236 075b 19020000 		.4byte	.LASF111
 1237 075f 01       		.byte	0x1
 1238 0760 2E       		.byte	0x2e
 1239 0761 2C000000 		.4byte	0x2c
 1240 0765 00000000 		.4byte	.LFB267
 1241 0769 54000000 		.4byte	.LFE267-.LFB267
 1242 076d 01       		.uleb128 0x1
 1243 076e 9C       		.byte	0x9c
 1244 076f A8070000 		.4byte	0x7a8
 1245 0773 19       		.uleb128 0x19
 1246 0774 697000   		.ascii	"ip\000"
 1247 0777 01       		.byte	0x1
 1248 0778 2E       		.byte	0x2e
ARM GAS  /tmp/ccRnFw0a.s 			page 23


 1249 0779 A9000000 		.4byte	0xa9
 1250 077d 02       		.uleb128 0x2
 1251 077e 91       		.byte	0x91
 1252 077f 6C       		.sleb128 -20
 1253 0780 19       		.uleb128 0x19
 1254 0781 627000   		.ascii	"bp\000"
 1255 0784 01       		.byte	0x1
 1256 0785 2E       		.byte	0x2e
 1257 0786 5C060000 		.4byte	0x65c
 1258 078a 02       		.uleb128 0x2
 1259 078b 91       		.byte	0x91
 1260 078c 68       		.sleb128 -24
 1261 078d 19       		.uleb128 0x19
 1262 078e 6E00     		.ascii	"n\000"
 1263 0790 01       		.byte	0x1
 1264 0791 2E       		.byte	0x2e
 1265 0792 2C000000 		.4byte	0x2c
 1266 0796 02       		.uleb128 0x2
 1267 0797 91       		.byte	0x91
 1268 0798 64       		.sleb128 -28
 1269 0799 1A       		.uleb128 0x1a
 1270 079a 6D737000 		.ascii	"msp\000"
 1271 079e 01       		.byte	0x1
 1272 079f 2F       		.byte	0x2f
 1273 07a0 A8070000 		.4byte	0x7a8
 1274 07a4 02       		.uleb128 0x2
 1275 07a5 91       		.byte	0x91
 1276 07a6 74       		.sleb128 -12
 1277 07a7 00       		.byte	0
 1278 07a8 06       		.uleb128 0x6
 1279 07a9 04       		.byte	0x4
 1280 07aa 4F070000 		.4byte	0x74f
 1281 07ae 18       		.uleb128 0x18
 1282 07af 0D010000 		.4byte	.LASF112
 1283 07b3 01       		.byte	0x1
 1284 07b4 38       		.byte	0x38
 1285 07b5 2C000000 		.4byte	0x2c
 1286 07b9 60000000 		.4byte	.LFB268
 1287 07bd 54000000 		.4byte	.LFE268-.LFB268
 1288 07c1 01       		.uleb128 0x1
 1289 07c2 9C       		.byte	0x9c
 1290 07c3 FC070000 		.4byte	0x7fc
 1291 07c7 19       		.uleb128 0x19
 1292 07c8 697000   		.ascii	"ip\000"
 1293 07cb 01       		.byte	0x1
 1294 07cc 38       		.byte	0x38
 1295 07cd A9000000 		.4byte	0xa9
 1296 07d1 02       		.uleb128 0x2
 1297 07d2 91       		.byte	0x91
 1298 07d3 6C       		.sleb128 -20
 1299 07d4 19       		.uleb128 0x19
 1300 07d5 627000   		.ascii	"bp\000"
 1301 07d8 01       		.byte	0x1
 1302 07d9 38       		.byte	0x38
 1303 07da 3D060000 		.4byte	0x63d
 1304 07de 02       		.uleb128 0x2
 1305 07df 91       		.byte	0x91
ARM GAS  /tmp/ccRnFw0a.s 			page 24


 1306 07e0 68       		.sleb128 -24
 1307 07e1 19       		.uleb128 0x19
 1308 07e2 6E00     		.ascii	"n\000"
 1309 07e4 01       		.byte	0x1
 1310 07e5 38       		.byte	0x38
 1311 07e6 2C000000 		.4byte	0x2c
 1312 07ea 02       		.uleb128 0x2
 1313 07eb 91       		.byte	0x91
 1314 07ec 64       		.sleb128 -28
 1315 07ed 1A       		.uleb128 0x1a
 1316 07ee 6D737000 		.ascii	"msp\000"
 1317 07f2 01       		.byte	0x1
 1318 07f3 39       		.byte	0x39
 1319 07f4 A8070000 		.4byte	0x7a8
 1320 07f8 02       		.uleb128 0x2
 1321 07f9 91       		.byte	0x91
 1322 07fa 74       		.sleb128 -12
 1323 07fb 00       		.byte	0
 1324 07fc 1B       		.uleb128 0x1b
 1325 07fd 70757400 		.ascii	"put\000"
 1326 0801 01       		.byte	0x1
 1327 0802 42       		.byte	0x42
 1328 0803 2B010000 		.4byte	0x12b
 1329 0807 C0000000 		.4byte	.LFB269
 1330 080b 42000000 		.4byte	.LFE269-.LFB269
 1331 080f 01       		.uleb128 0x1
 1332 0810 9C       		.byte	0x9c
 1333 0811 3D080000 		.4byte	0x83d
 1334 0815 19       		.uleb128 0x19
 1335 0816 697000   		.ascii	"ip\000"
 1336 0819 01       		.byte	0x1
 1337 081a 42       		.byte	0x42
 1338 081b A9000000 		.4byte	0xa9
 1339 081f 02       		.uleb128 0x2
 1340 0820 91       		.byte	0x91
 1341 0821 74       		.sleb128 -12
 1342 0822 19       		.uleb128 0x19
 1343 0823 6200     		.ascii	"b\000"
 1344 0825 01       		.byte	0x1
 1345 0826 42       		.byte	0x42
 1346 0827 BD000000 		.4byte	0xbd
 1347 082b 02       		.uleb128 0x2
 1348 082c 91       		.byte	0x91
 1349 082d 73       		.sleb128 -13
 1350 082e 1A       		.uleb128 0x1a
 1351 082f 6D737000 		.ascii	"msp\000"
 1352 0833 01       		.byte	0x1
 1353 0834 43       		.byte	0x43
 1354 0835 A8070000 		.4byte	0x7a8
 1355 0839 02       		.uleb128 0x2
 1356 083a 91       		.byte	0x91
 1357 083b 7C       		.sleb128 -4
 1358 083c 00       		.byte	0
 1359 083d 1B       		.uleb128 0x1b
 1360 083e 67657400 		.ascii	"get\000"
 1361 0842 01       		.byte	0x1
 1362 0843 4C       		.byte	0x4c
ARM GAS  /tmp/ccRnFw0a.s 			page 25


 1363 0844 2B010000 		.4byte	0x12b
 1364 0848 10010000 		.4byte	.LFB270
 1365 084c 3E000000 		.4byte	.LFE270-.LFB270
 1366 0850 01       		.uleb128 0x1
 1367 0851 9C       		.byte	0x9c
 1368 0852 7E080000 		.4byte	0x87e
 1369 0856 19       		.uleb128 0x19
 1370 0857 697000   		.ascii	"ip\000"
 1371 085a 01       		.byte	0x1
 1372 085b 4C       		.byte	0x4c
 1373 085c A9000000 		.4byte	0xa9
 1374 0860 02       		.uleb128 0x2
 1375 0861 91       		.byte	0x91
 1376 0862 74       		.sleb128 -12
 1377 0863 1A       		.uleb128 0x1a
 1378 0864 6200     		.ascii	"b\000"
 1379 0866 01       		.byte	0x1
 1380 0867 4D       		.byte	0x4d
 1381 0868 BD000000 		.4byte	0xbd
 1382 086c 02       		.uleb128 0x2
 1383 086d 91       		.byte	0x91
 1384 086e 7B       		.sleb128 -5
 1385 086f 1A       		.uleb128 0x1a
 1386 0870 6D737000 		.ascii	"msp\000"
 1387 0874 01       		.byte	0x1
 1388 0875 4E       		.byte	0x4e
 1389 0876 A8070000 		.4byte	0x7a8
 1390 087a 02       		.uleb128 0x2
 1391 087b 91       		.byte	0x91
 1392 087c 7C       		.sleb128 -4
 1393 087d 00       		.byte	0
 1394 087e 1C       		.uleb128 0x1c
 1395 087f 01030000 		.4byte	.LASF117
 1396 0883 01       		.byte	0x1
 1397 0884 67       		.byte	0x67
 1398 0885 50010000 		.4byte	.LFB271
 1399 0889 30000000 		.4byte	.LFE271-.LFB271
 1400 088d 01       		.uleb128 0x1
 1401 088e 9C       		.byte	0x9c
 1402 088f CC080000 		.4byte	0x8cc
 1403 0893 19       		.uleb128 0x19
 1404 0894 6D737000 		.ascii	"msp\000"
 1405 0898 01       		.byte	0x1
 1406 0899 67       		.byte	0x67
 1407 089a A8070000 		.4byte	0x7a8
 1408 089e 02       		.uleb128 0x2
 1409 089f 91       		.byte	0x91
 1410 08a0 7C       		.sleb128 -4
 1411 08a1 1D       		.uleb128 0x1d
 1412 08a2 70010000 		.4byte	.LASF108
 1413 08a6 01       		.byte	0x1
 1414 08a7 67       		.byte	0x67
 1415 08a8 3D060000 		.4byte	0x63d
 1416 08ac 02       		.uleb128 0x2
 1417 08ad 91       		.byte	0x91
 1418 08ae 78       		.sleb128 -8
 1419 08af 1D       		.uleb128 0x1d
ARM GAS  /tmp/ccRnFw0a.s 			page 26


 1420 08b0 76050000 		.4byte	.LASF109
 1421 08b4 01       		.byte	0x1
 1422 08b5 68       		.byte	0x68
 1423 08b6 2C000000 		.4byte	0x2c
 1424 08ba 02       		.uleb128 0x2
 1425 08bb 91       		.byte	0x91
 1426 08bc 74       		.sleb128 -12
 1427 08bd 19       		.uleb128 0x19
 1428 08be 656F7300 		.ascii	"eos\000"
 1429 08c2 01       		.byte	0x1
 1430 08c3 68       		.byte	0x68
 1431 08c4 2C000000 		.4byte	0x2c
 1432 08c8 02       		.uleb128 0x2
 1433 08c9 91       		.byte	0x91
 1434 08ca 70       		.sleb128 -16
 1435 08cb 00       		.byte	0
 1436 08cc 1A       		.uleb128 0x1a
 1437 08cd 766D7400 		.ascii	"vmt\000"
 1438 08d1 01       		.byte	0x1
 1439 08d2 57       		.byte	0x57
 1440 08d3 4A070000 		.4byte	0x74a
 1441 08d7 05       		.uleb128 0x5
 1442 08d8 03       		.byte	0x3
 1443 08d9 00000000 		.4byte	vmt
 1444 08dd 1E       		.uleb128 0x1e
 1445 08de E8000000 		.4byte	.LASF113
 1446 08e2 0E       		.byte	0xe
 1447 08e3 FA06     		.2byte	0x6fa
 1448 08e5 E9080000 		.4byte	0x8e9
 1449 08e9 14       		.uleb128 0x14
 1450 08ea C8000000 		.4byte	0xc8
 1451 08ee 1F       		.uleb128 0x1f
 1452 08ef 636800   		.ascii	"ch\000"
 1453 08f2 07       		.byte	0x7
 1454 08f3 0902     		.2byte	0x209
 1455 08f5 10040000 		.4byte	0x410
 1456 08f9 00       		.byte	0
 1457              		.section	.debug_abbrev,"",%progbits
 1458              	.Ldebug_abbrev0:
 1459 0000 01       		.uleb128 0x1
 1460 0001 11       		.uleb128 0x11
 1461 0002 01       		.byte	0x1
 1462 0003 25       		.uleb128 0x25
 1463 0004 0E       		.uleb128 0xe
 1464 0005 13       		.uleb128 0x13
 1465 0006 0B       		.uleb128 0xb
 1466 0007 03       		.uleb128 0x3
 1467 0008 0E       		.uleb128 0xe
 1468 0009 1B       		.uleb128 0x1b
 1469 000a 0E       		.uleb128 0xe
 1470 000b 11       		.uleb128 0x11
 1471 000c 01       		.uleb128 0x1
 1472 000d 12       		.uleb128 0x12
 1473 000e 06       		.uleb128 0x6
 1474 000f 10       		.uleb128 0x10
 1475 0010 17       		.uleb128 0x17
 1476 0011 00       		.byte	0
ARM GAS  /tmp/ccRnFw0a.s 			page 27


 1477 0012 00       		.byte	0
 1478 0013 02       		.uleb128 0x2
 1479 0014 24       		.uleb128 0x24
 1480 0015 00       		.byte	0
 1481 0016 0B       		.uleb128 0xb
 1482 0017 0B       		.uleb128 0xb
 1483 0018 3E       		.uleb128 0x3e
 1484 0019 0B       		.uleb128 0xb
 1485 001a 03       		.uleb128 0x3
 1486 001b 08       		.uleb128 0x8
 1487 001c 00       		.byte	0
 1488 001d 00       		.byte	0
 1489 001e 03       		.uleb128 0x3
 1490 001f 16       		.uleb128 0x16
 1491 0020 00       		.byte	0
 1492 0021 03       		.uleb128 0x3
 1493 0022 0E       		.uleb128 0xe
 1494 0023 3A       		.uleb128 0x3a
 1495 0024 0B       		.uleb128 0xb
 1496 0025 3B       		.uleb128 0x3b
 1497 0026 0B       		.uleb128 0xb
 1498 0027 49       		.uleb128 0x49
 1499 0028 13       		.uleb128 0x13
 1500 0029 00       		.byte	0
 1501 002a 00       		.byte	0
 1502 002b 04       		.uleb128 0x4
 1503 002c 24       		.uleb128 0x24
 1504 002d 00       		.byte	0
 1505 002e 0B       		.uleb128 0xb
 1506 002f 0B       		.uleb128 0xb
 1507 0030 3E       		.uleb128 0x3e
 1508 0031 0B       		.uleb128 0xb
 1509 0032 03       		.uleb128 0x3
 1510 0033 0E       		.uleb128 0xe
 1511 0034 00       		.byte	0
 1512 0035 00       		.byte	0
 1513 0036 05       		.uleb128 0x5
 1514 0037 0F       		.uleb128 0xf
 1515 0038 00       		.byte	0
 1516 0039 0B       		.uleb128 0xb
 1517 003a 0B       		.uleb128 0xb
 1518 003b 00       		.byte	0
 1519 003c 00       		.byte	0
 1520 003d 06       		.uleb128 0x6
 1521 003e 0F       		.uleb128 0xf
 1522 003f 00       		.byte	0
 1523 0040 0B       		.uleb128 0xb
 1524 0041 0B       		.uleb128 0xb
 1525 0042 49       		.uleb128 0x49
 1526 0043 13       		.uleb128 0x13
 1527 0044 00       		.byte	0
 1528 0045 00       		.byte	0
 1529 0046 07       		.uleb128 0x7
 1530 0047 26       		.uleb128 0x26
 1531 0048 00       		.byte	0
 1532 0049 49       		.uleb128 0x49
 1533 004a 13       		.uleb128 0x13
ARM GAS  /tmp/ccRnFw0a.s 			page 28


 1534 004b 00       		.byte	0
 1535 004c 00       		.byte	0
 1536 004d 08       		.uleb128 0x8
 1537 004e 13       		.uleb128 0x13
 1538 004f 01       		.byte	0x1
 1539 0050 03       		.uleb128 0x3
 1540 0051 0E       		.uleb128 0xe
 1541 0052 0B       		.uleb128 0xb
 1542 0053 0B       		.uleb128 0xb
 1543 0054 3A       		.uleb128 0x3a
 1544 0055 0B       		.uleb128 0xb
 1545 0056 3B       		.uleb128 0x3b
 1546 0057 0B       		.uleb128 0xb
 1547 0058 01       		.uleb128 0x1
 1548 0059 13       		.uleb128 0x13
 1549 005a 00       		.byte	0
 1550 005b 00       		.byte	0
 1551 005c 09       		.uleb128 0x9
 1552 005d 0D       		.uleb128 0xd
 1553 005e 00       		.byte	0
 1554 005f 03       		.uleb128 0x3
 1555 0060 0E       		.uleb128 0xe
 1556 0061 3A       		.uleb128 0x3a
 1557 0062 0B       		.uleb128 0xb
 1558 0063 3B       		.uleb128 0x3b
 1559 0064 0B       		.uleb128 0xb
 1560 0065 49       		.uleb128 0x49
 1561 0066 13       		.uleb128 0x13
 1562 0067 38       		.uleb128 0x38
 1563 0068 0B       		.uleb128 0xb
 1564 0069 00       		.byte	0
 1565 006a 00       		.byte	0
 1566 006b 0A       		.uleb128 0xa
 1567 006c 0D       		.uleb128 0xd
 1568 006d 00       		.byte	0
 1569 006e 03       		.uleb128 0x3
 1570 006f 08       		.uleb128 0x8
 1571 0070 3A       		.uleb128 0x3a
 1572 0071 0B       		.uleb128 0xb
 1573 0072 3B       		.uleb128 0x3b
 1574 0073 05       		.uleb128 0x5
 1575 0074 49       		.uleb128 0x49
 1576 0075 13       		.uleb128 0x13
 1577 0076 38       		.uleb128 0x38
 1578 0077 0B       		.uleb128 0xb
 1579 0078 00       		.byte	0
 1580 0079 00       		.byte	0
 1581 007a 0B       		.uleb128 0xb
 1582 007b 0D       		.uleb128 0xd
 1583 007c 00       		.byte	0
 1584 007d 03       		.uleb128 0x3
 1585 007e 0E       		.uleb128 0xe
 1586 007f 3A       		.uleb128 0x3a
 1587 0080 0B       		.uleb128 0xb
 1588 0081 3B       		.uleb128 0x3b
 1589 0082 05       		.uleb128 0x5
 1590 0083 49       		.uleb128 0x49
ARM GAS  /tmp/ccRnFw0a.s 			page 29


 1591 0084 13       		.uleb128 0x13
 1592 0085 38       		.uleb128 0x38
 1593 0086 0B       		.uleb128 0xb
 1594 0087 00       		.byte	0
 1595 0088 00       		.byte	0
 1596 0089 0C       		.uleb128 0xc
 1597 008a 13       		.uleb128 0x13
 1598 008b 01       		.byte	0x1
 1599 008c 03       		.uleb128 0x3
 1600 008d 0E       		.uleb128 0xe
 1601 008e 0B       		.uleb128 0xb
 1602 008f 0B       		.uleb128 0xb
 1603 0090 3A       		.uleb128 0x3a
 1604 0091 0B       		.uleb128 0xb
 1605 0092 3B       		.uleb128 0x3b
 1606 0093 05       		.uleb128 0x5
 1607 0094 01       		.uleb128 0x1
 1608 0095 13       		.uleb128 0x13
 1609 0096 00       		.byte	0
 1610 0097 00       		.byte	0
 1611 0098 0D       		.uleb128 0xd
 1612 0099 15       		.uleb128 0x15
 1613 009a 01       		.byte	0x1
 1614 009b 27       		.uleb128 0x27
 1615 009c 19       		.uleb128 0x19
 1616 009d 01       		.uleb128 0x1
 1617 009e 13       		.uleb128 0x13
 1618 009f 00       		.byte	0
 1619 00a0 00       		.byte	0
 1620 00a1 0E       		.uleb128 0xe
 1621 00a2 05       		.uleb128 0x5
 1622 00a3 00       		.byte	0
 1623 00a4 49       		.uleb128 0x49
 1624 00a5 13       		.uleb128 0x13
 1625 00a6 00       		.byte	0
 1626 00a7 00       		.byte	0
 1627 00a8 0F       		.uleb128 0xf
 1628 00a9 13       		.uleb128 0x13
 1629 00aa 01       		.byte	0x1
 1630 00ab 03       		.uleb128 0x3
 1631 00ac 0E       		.uleb128 0xe
 1632 00ad 0B       		.uleb128 0xb
 1633 00ae 05       		.uleb128 0x5
 1634 00af 3A       		.uleb128 0x3a
 1635 00b0 0B       		.uleb128 0xb
 1636 00b1 3B       		.uleb128 0x3b
 1637 00b2 05       		.uleb128 0x5
 1638 00b3 01       		.uleb128 0x1
 1639 00b4 13       		.uleb128 0x13
 1640 00b5 00       		.byte	0
 1641 00b6 00       		.byte	0
 1642 00b7 10       		.uleb128 0x10
 1643 00b8 0D       		.uleb128 0xd
 1644 00b9 00       		.byte	0
 1645 00ba 03       		.uleb128 0x3
 1646 00bb 08       		.uleb128 0x8
 1647 00bc 3A       		.uleb128 0x3a
ARM GAS  /tmp/ccRnFw0a.s 			page 30


 1648 00bd 0B       		.uleb128 0xb
 1649 00be 3B       		.uleb128 0x3b
 1650 00bf 0B       		.uleb128 0xb
 1651 00c0 49       		.uleb128 0x49
 1652 00c1 13       		.uleb128 0x13
 1653 00c2 38       		.uleb128 0x38
 1654 00c3 0B       		.uleb128 0xb
 1655 00c4 00       		.byte	0
 1656 00c5 00       		.byte	0
 1657 00c6 11       		.uleb128 0x11
 1658 00c7 13       		.uleb128 0x13
 1659 00c8 01       		.byte	0x1
 1660 00c9 0B       		.uleb128 0xb
 1661 00ca 0B       		.uleb128 0xb
 1662 00cb 3A       		.uleb128 0x3a
 1663 00cc 0B       		.uleb128 0xb
 1664 00cd 3B       		.uleb128 0x3b
 1665 00ce 0B       		.uleb128 0xb
 1666 00cf 01       		.uleb128 0x1
 1667 00d0 13       		.uleb128 0x13
 1668 00d1 00       		.byte	0
 1669 00d2 00       		.byte	0
 1670 00d3 12       		.uleb128 0x12
 1671 00d4 17       		.uleb128 0x17
 1672 00d5 01       		.byte	0x1
 1673 00d6 0B       		.uleb128 0xb
 1674 00d7 0B       		.uleb128 0xb
 1675 00d8 3A       		.uleb128 0x3a
 1676 00d9 0B       		.uleb128 0xb
 1677 00da 3B       		.uleb128 0x3b
 1678 00db 0B       		.uleb128 0xb
 1679 00dc 01       		.uleb128 0x1
 1680 00dd 13       		.uleb128 0x13
 1681 00de 00       		.byte	0
 1682 00df 00       		.byte	0
 1683 00e0 13       		.uleb128 0x13
 1684 00e1 0D       		.uleb128 0xd
 1685 00e2 00       		.byte	0
 1686 00e3 03       		.uleb128 0x3
 1687 00e4 0E       		.uleb128 0xe
 1688 00e5 3A       		.uleb128 0x3a
 1689 00e6 0B       		.uleb128 0xb
 1690 00e7 3B       		.uleb128 0x3b
 1691 00e8 05       		.uleb128 0x5
 1692 00e9 49       		.uleb128 0x49
 1693 00ea 13       		.uleb128 0x13
 1694 00eb 00       		.byte	0
 1695 00ec 00       		.byte	0
 1696 00ed 14       		.uleb128 0x14
 1697 00ee 35       		.uleb128 0x35
 1698 00ef 00       		.byte	0
 1699 00f0 49       		.uleb128 0x49
 1700 00f1 13       		.uleb128 0x13
 1701 00f2 00       		.byte	0
 1702 00f3 00       		.byte	0
 1703 00f4 15       		.uleb128 0x15
 1704 00f5 01       		.uleb128 0x1
ARM GAS  /tmp/ccRnFw0a.s 			page 31


 1705 00f6 01       		.byte	0x1
 1706 00f7 49       		.uleb128 0x49
 1707 00f8 13       		.uleb128 0x13
 1708 00f9 01       		.uleb128 0x1
 1709 00fa 13       		.uleb128 0x13
 1710 00fb 00       		.byte	0
 1711 00fc 00       		.byte	0
 1712 00fd 16       		.uleb128 0x16
 1713 00fe 21       		.uleb128 0x21
 1714 00ff 00       		.byte	0
 1715 0100 49       		.uleb128 0x49
 1716 0101 13       		.uleb128 0x13
 1717 0102 2F       		.uleb128 0x2f
 1718 0103 0B       		.uleb128 0xb
 1719 0104 00       		.byte	0
 1720 0105 00       		.byte	0
 1721 0106 17       		.uleb128 0x17
 1722 0107 15       		.uleb128 0x15
 1723 0108 01       		.byte	0x1
 1724 0109 27       		.uleb128 0x27
 1725 010a 19       		.uleb128 0x19
 1726 010b 49       		.uleb128 0x49
 1727 010c 13       		.uleb128 0x13
 1728 010d 01       		.uleb128 0x1
 1729 010e 13       		.uleb128 0x13
 1730 010f 00       		.byte	0
 1731 0110 00       		.byte	0
 1732 0111 18       		.uleb128 0x18
 1733 0112 2E       		.uleb128 0x2e
 1734 0113 01       		.byte	0x1
 1735 0114 03       		.uleb128 0x3
 1736 0115 0E       		.uleb128 0xe
 1737 0116 3A       		.uleb128 0x3a
 1738 0117 0B       		.uleb128 0xb
 1739 0118 3B       		.uleb128 0x3b
 1740 0119 0B       		.uleb128 0xb
 1741 011a 27       		.uleb128 0x27
 1742 011b 19       		.uleb128 0x19
 1743 011c 49       		.uleb128 0x49
 1744 011d 13       		.uleb128 0x13
 1745 011e 11       		.uleb128 0x11
 1746 011f 01       		.uleb128 0x1
 1747 0120 12       		.uleb128 0x12
 1748 0121 06       		.uleb128 0x6
 1749 0122 40       		.uleb128 0x40
 1750 0123 18       		.uleb128 0x18
 1751 0124 9642     		.uleb128 0x2116
 1752 0126 19       		.uleb128 0x19
 1753 0127 01       		.uleb128 0x1
 1754 0128 13       		.uleb128 0x13
 1755 0129 00       		.byte	0
 1756 012a 00       		.byte	0
 1757 012b 19       		.uleb128 0x19
 1758 012c 05       		.uleb128 0x5
 1759 012d 00       		.byte	0
 1760 012e 03       		.uleb128 0x3
 1761 012f 08       		.uleb128 0x8
ARM GAS  /tmp/ccRnFw0a.s 			page 32


 1762 0130 3A       		.uleb128 0x3a
 1763 0131 0B       		.uleb128 0xb
 1764 0132 3B       		.uleb128 0x3b
 1765 0133 0B       		.uleb128 0xb
 1766 0134 49       		.uleb128 0x49
 1767 0135 13       		.uleb128 0x13
 1768 0136 02       		.uleb128 0x2
 1769 0137 18       		.uleb128 0x18
 1770 0138 00       		.byte	0
 1771 0139 00       		.byte	0
 1772 013a 1A       		.uleb128 0x1a
 1773 013b 34       		.uleb128 0x34
 1774 013c 00       		.byte	0
 1775 013d 03       		.uleb128 0x3
 1776 013e 08       		.uleb128 0x8
 1777 013f 3A       		.uleb128 0x3a
 1778 0140 0B       		.uleb128 0xb
 1779 0141 3B       		.uleb128 0x3b
 1780 0142 0B       		.uleb128 0xb
 1781 0143 49       		.uleb128 0x49
 1782 0144 13       		.uleb128 0x13
 1783 0145 02       		.uleb128 0x2
 1784 0146 18       		.uleb128 0x18
 1785 0147 00       		.byte	0
 1786 0148 00       		.byte	0
 1787 0149 1B       		.uleb128 0x1b
 1788 014a 2E       		.uleb128 0x2e
 1789 014b 01       		.byte	0x1
 1790 014c 03       		.uleb128 0x3
 1791 014d 08       		.uleb128 0x8
 1792 014e 3A       		.uleb128 0x3a
 1793 014f 0B       		.uleb128 0xb
 1794 0150 3B       		.uleb128 0x3b
 1795 0151 0B       		.uleb128 0xb
 1796 0152 27       		.uleb128 0x27
 1797 0153 19       		.uleb128 0x19
 1798 0154 49       		.uleb128 0x49
 1799 0155 13       		.uleb128 0x13
 1800 0156 11       		.uleb128 0x11
 1801 0157 01       		.uleb128 0x1
 1802 0158 12       		.uleb128 0x12
 1803 0159 06       		.uleb128 0x6
 1804 015a 40       		.uleb128 0x40
 1805 015b 18       		.uleb128 0x18
 1806 015c 9742     		.uleb128 0x2117
 1807 015e 19       		.uleb128 0x19
 1808 015f 01       		.uleb128 0x1
 1809 0160 13       		.uleb128 0x13
 1810 0161 00       		.byte	0
 1811 0162 00       		.byte	0
 1812 0163 1C       		.uleb128 0x1c
 1813 0164 2E       		.uleb128 0x2e
 1814 0165 01       		.byte	0x1
 1815 0166 3F       		.uleb128 0x3f
 1816 0167 19       		.uleb128 0x19
 1817 0168 03       		.uleb128 0x3
 1818 0169 0E       		.uleb128 0xe
ARM GAS  /tmp/ccRnFw0a.s 			page 33


 1819 016a 3A       		.uleb128 0x3a
 1820 016b 0B       		.uleb128 0xb
 1821 016c 3B       		.uleb128 0x3b
 1822 016d 0B       		.uleb128 0xb
 1823 016e 27       		.uleb128 0x27
 1824 016f 19       		.uleb128 0x19
 1825 0170 11       		.uleb128 0x11
 1826 0171 01       		.uleb128 0x1
 1827 0172 12       		.uleb128 0x12
 1828 0173 06       		.uleb128 0x6
 1829 0174 40       		.uleb128 0x40
 1830 0175 18       		.uleb128 0x18
 1831 0176 9742     		.uleb128 0x2117
 1832 0178 19       		.uleb128 0x19
 1833 0179 01       		.uleb128 0x1
 1834 017a 13       		.uleb128 0x13
 1835 017b 00       		.byte	0
 1836 017c 00       		.byte	0
 1837 017d 1D       		.uleb128 0x1d
 1838 017e 05       		.uleb128 0x5
 1839 017f 00       		.byte	0
 1840 0180 03       		.uleb128 0x3
 1841 0181 0E       		.uleb128 0xe
 1842 0182 3A       		.uleb128 0x3a
 1843 0183 0B       		.uleb128 0xb
 1844 0184 3B       		.uleb128 0x3b
 1845 0185 0B       		.uleb128 0xb
 1846 0186 49       		.uleb128 0x49
 1847 0187 13       		.uleb128 0x13
 1848 0188 02       		.uleb128 0x2
 1849 0189 18       		.uleb128 0x18
 1850 018a 00       		.byte	0
 1851 018b 00       		.byte	0
 1852 018c 1E       		.uleb128 0x1e
 1853 018d 34       		.uleb128 0x34
 1854 018e 00       		.byte	0
 1855 018f 03       		.uleb128 0x3
 1856 0190 0E       		.uleb128 0xe
 1857 0191 3A       		.uleb128 0x3a
 1858 0192 0B       		.uleb128 0xb
 1859 0193 3B       		.uleb128 0x3b
 1860 0194 05       		.uleb128 0x5
 1861 0195 49       		.uleb128 0x49
 1862 0196 13       		.uleb128 0x13
 1863 0197 3F       		.uleb128 0x3f
 1864 0198 19       		.uleb128 0x19
 1865 0199 3C       		.uleb128 0x3c
 1866 019a 19       		.uleb128 0x19
 1867 019b 00       		.byte	0
 1868 019c 00       		.byte	0
 1869 019d 1F       		.uleb128 0x1f
 1870 019e 34       		.uleb128 0x34
 1871 019f 00       		.byte	0
 1872 01a0 03       		.uleb128 0x3
 1873 01a1 08       		.uleb128 0x8
 1874 01a2 3A       		.uleb128 0x3a
 1875 01a3 0B       		.uleb128 0xb
ARM GAS  /tmp/ccRnFw0a.s 			page 34


 1876 01a4 3B       		.uleb128 0x3b
 1877 01a5 05       		.uleb128 0x5
 1878 01a6 49       		.uleb128 0x49
 1879 01a7 13       		.uleb128 0x13
 1880 01a8 3F       		.uleb128 0x3f
 1881 01a9 19       		.uleb128 0x19
 1882 01aa 3C       		.uleb128 0x3c
 1883 01ab 19       		.uleb128 0x19
 1884 01ac 00       		.byte	0
 1885 01ad 00       		.byte	0
 1886 01ae 00       		.byte	0
 1887              		.section	.debug_aranges,"",%progbits
 1888 0000 1C000000 		.4byte	0x1c
 1889 0004 0200     		.2byte	0x2
 1890 0006 00000000 		.4byte	.Ldebug_info0
 1891 000a 04       		.byte	0x4
 1892 000b 00       		.byte	0
 1893 000c 0000     		.2byte	0
 1894 000e 0000     		.2byte	0
 1895 0010 00000000 		.4byte	.Ltext0
 1896 0014 80010000 		.4byte	.Letext0-.Ltext0
 1897 0018 00000000 		.4byte	0
 1898 001c 00000000 		.4byte	0
 1899              		.section	.debug_line,"",%progbits
 1900              	.Ldebug_line0:
 1901 0000 13030000 		.section	.debug_str,"MS",%progbits,1
 1901      0200D602 
 1901      00000201 
 1901      FB0E0D00 
 1901      01010101 
 1902              	.LASF50:
 1903 0000 74687265 		.ascii	"threads_list_t\000"
 1903      6164735F 
 1903      6C697374 
 1903      5F7400
 1904              	.LASF23:
 1905 000f 74726566 		.ascii	"trefs_t\000"
 1905      735F7400 
 1906              	.LASF55:
 1907 0017 72656164 		.ascii	"ready_list_t\000"
 1907      795F6C69 
 1907      73745F74 
 1907      00
 1908              	.LASF2:
 1909 0024 73697A65 		.ascii	"size_t\000"
 1909      5F7400
 1910              	.LASF89:
 1911 002b 7264796D 		.ascii	"rdymsg\000"
 1911      736700
 1912              	.LASF19:
 1913 0032 75696E74 		.ascii	"uint64_t\000"
 1913      36345F74 
 1913      00
 1914              	.LASF3:
 1915 003b 5F5F7569 		.ascii	"__uint8_t\000"
 1915      6E74385F 
 1915      7400
ARM GAS  /tmp/ccRnFw0a.s 			page 35


 1916              	.LASF86:
 1917 0045 706F7274 		.ascii	"port_intctx\000"
 1917      5F696E74 
 1917      63747800 
 1918              	.LASF74:
 1919 0051 73797374 		.ascii	"system_debug_t\000"
 1919      656D5F64 
 1919      65627567 
 1919      5F7400
 1920              	.LASF116:
 1921 0060 2F6E6673 		.ascii	"/nfs/nfs7/home/vvedanta/P442/p442-submissions/senso"
 1921      2F6E6673 
 1921      372F686F 
 1921      6D652F76 
 1921      76656461 
 1922 0093 7274696C 		.ascii	"rtile/final_project\000"
 1922      652F6669 
 1922      6E616C5F 
 1922      70726F6A 
 1922      65637400 
 1923              	.LASF13:
 1924 00a7 6C6F6E67 		.ascii	"long long unsigned int\000"
 1924      206C6F6E 
 1924      6720756E 
 1924      7369676E 
 1924      65642069 
 1925              	.LASF90:
 1926 00be 65786974 		.ascii	"exitcode\000"
 1926      636F6465 
 1926      00
 1927              	.LASF81:
 1928 00c7 6D61696E 		.ascii	"mainthread\000"
 1928      74687265 
 1928      616400
 1929              	.LASF71:
 1930 00d2 76697274 		.ascii	"virtual_timers_list_t\000"
 1930      75616C5F 
 1930      74696D65 
 1930      72735F6C 
 1930      6973745F 
 1931              	.LASF113:
 1932 00e8 49544D5F 		.ascii	"ITM_RxBuffer\000"
 1932      52784275 
 1932      66666572 
 1932      00
 1933              	.LASF54:
 1934 00f5 63685F74 		.ascii	"ch_threads_queue\000"
 1934      68726561 
 1934      64735F71 
 1934      75657565 
 1934      00
 1935              	.LASF33:
 1936 0106 705F7072 		.ascii	"p_prio\000"
 1936      696F00
 1937              	.LASF112:
 1938 010d 72656164 		.ascii	"reads\000"
 1938      7300
ARM GAS  /tmp/ccRnFw0a.s 			page 36


 1939              	.LASF11:
 1940 0113 6C6F6E67 		.ascii	"long long int\000"
 1940      206C6F6E 
 1940      6720696E 
 1940      7400
 1941              	.LASF1:
 1942 0121 7369676E 		.ascii	"signed char\000"
 1942      65642063 
 1942      68617200 
 1943              	.LASF48:
 1944 012d 705F6D70 		.ascii	"p_mpool\000"
 1944      6F6F6C00 
 1945              	.LASF100:
 1946 0135 6D5F7175 		.ascii	"m_queue\000"
 1946      65756500 
 1947              	.LASF80:
 1948 013d 76746C69 		.ascii	"vtlist\000"
 1948      737400
 1949              	.LASF24:
 1950 0144 74736C69 		.ascii	"tslices_t\000"
 1950      6365735F 
 1950      7400
 1951              	.LASF92:
 1952 014e 77747472 		.ascii	"wttrp\000"
 1952      7000
 1953              	.LASF78:
 1954 0154 63685F73 		.ascii	"ch_system\000"
 1954      79737465 
 1954      6D00
 1955              	.LASF8:
 1956 015e 6C6F6E67 		.ascii	"long int\000"
 1956      20696E74 
 1956      00
 1957              	.LASF22:
 1958 0167 74737461 		.ascii	"tstate_t\000"
 1958      74655F74 
 1958      00
 1959              	.LASF108:
 1960 0170 62756666 		.ascii	"buffer\000"
 1960      657200
 1961              	.LASF35:
 1962 0177 705F6E65 		.ascii	"p_newer\000"
 1962      77657200 
 1963              	.LASF97:
 1964 017f 735F7175 		.ascii	"s_queue\000"
 1964      65756500 
 1965              	.LASF60:
 1966 0187 725F6E65 		.ascii	"r_newer\000"
 1966      77657200 
 1967              	.LASF83:
 1968 018f 72656761 		.ascii	"regarm_t\000"
 1968      726D5F74 
 1968      00
 1969              	.LASF67:
 1970 0198 76745F70 		.ascii	"vt_prev\000"
 1970      72657600 
 1971              	.LASF103:
ARM GAS  /tmp/ccRnFw0a.s 			page 37


 1972 01a0 6D757465 		.ascii	"mutex_t\000"
 1972      785F7400 
 1973              	.LASF82:
 1974 01a8 69646C65 		.ascii	"idle_thread_wa\000"
 1974      5F746872 
 1974      6561645F 
 1974      776100
 1975              	.LASF28:
 1976 01b7 636E745F 		.ascii	"cnt_t\000"
 1976      7400
 1977              	.LASF0:
 1978 01bd 756E7369 		.ascii	"unsigned int\000"
 1978      676E6564 
 1978      20696E74 
 1978      00
 1979              	.LASF66:
 1980 01ca 76745F6E 		.ascii	"vt_next\000"
 1980      65787400 
 1981              	.LASF93:
 1982 01d2 77747365 		.ascii	"wtsemp\000"
 1982      6D7000
 1983              	.LASF43:
 1984 01d9 705F6D73 		.ascii	"p_msgqueue\000"
 1984      67717565 
 1984      756500
 1985              	.LASF98:
 1986 01e4 735F636E 		.ascii	"s_cnt\000"
 1986      7400
 1987              	.LASF6:
 1988 01ea 73686F72 		.ascii	"short unsigned int\000"
 1988      7420756E 
 1988      7369676E 
 1988      65642069 
 1988      6E7400
 1989              	.LASF51:
 1990 01fd 63685F74 		.ascii	"ch_thread\000"
 1990      68726561 
 1990      6400
 1991              	.LASF26:
 1992 0207 6D73675F 		.ascii	"msg_t\000"
 1992      7400
 1993              	.LASF77:
 1994 020d 63685F73 		.ascii	"ch_system_t\000"
 1994      79737465 
 1994      6D5F7400 
 1995              	.LASF111:
 1996 0219 77726974 		.ascii	"writes\000"
 1996      657300
 1997              	.LASF21:
 1998 0220 746D6F64 		.ascii	"tmode_t\000"
 1998      655F7400 
 1999              	.LASF114:
 2000 0228 474E5520 		.ascii	"GNU C 4.8.4 20140526 (release) [ARM/embedded-4_8-br"
 2000      4320342E 
 2000      382E3420 
 2000      32303134 
 2000      30353236 
ARM GAS  /tmp/ccRnFw0a.s 			page 38


 2001 025b 616E6368 		.ascii	"anch revision 211358] -mcpu=cortex-m4 -mno-thumb-in"
 2001      20726576 
 2001      6973696F 
 2001      6E203231 
 2001      31333538 
 2002 028e 74657277 		.ascii	"terwork -mthumb -ggdb -O0 -fomit-frame-pointer -fal"
 2002      6F726B20 
 2002      2D6D7468 
 2002      756D6220 
 2002      2D676764 
 2003 02c1 69676E2D 		.ascii	"ign-functions=16\000"
 2003      66756E63 
 2003      74696F6E 
 2003      733D3136 
 2003      00
 2004              	.LASF56:
 2005 02d2 63685F72 		.ascii	"ch_ready_list\000"
 2005      65616479 
 2005      5F6C6973 
 2005      7400
 2006              	.LASF27:
 2007 02e0 6576656E 		.ascii	"eventmask_t\000"
 2007      746D6173 
 2007      6B5F7400 
 2008              	.LASF7:
 2009 02ec 5F5F696E 		.ascii	"__int32_t\000"
 2009      7433325F 
 2009      7400
 2010              	.LASF84:
 2011 02f6 73746B61 		.ascii	"stkalign_t\000"
 2011      6C69676E 
 2011      5F7400
 2012              	.LASF117:
 2013 0301 6D734F62 		.ascii	"msObjectInit\000"
 2013      6A656374 
 2013      496E6974 
 2013      00
 2014              	.LASF106:
 2015 030e 77726974 		.ascii	"write\000"
 2015      6500
 2016              	.LASF42:
 2017 0314 705F7761 		.ascii	"p_waiting\000"
 2017      6974696E 
 2017      6700
 2018              	.LASF14:
 2019 031e 73697A65 		.ascii	"sizetype\000"
 2019      74797065 
 2019      00
 2020              	.LASF49:
 2021 0327 74687265 		.ascii	"thread_reference_t\000"
 2021      61645F72 
 2021      65666572 
 2021      656E6365 
 2021      5F7400
 2022              	.LASF72:
 2023 033a 63685F76 		.ascii	"ch_virtual_timers_list\000"
 2023      69727475 
ARM GAS  /tmp/ccRnFw0a.s 			page 39


 2023      616C5F74 
 2023      696D6572 
 2023      735F6C69 
 2024              	.LASF36:
 2025 0351 705F6F6C 		.ascii	"p_older\000"
 2025      64657200 
 2026              	.LASF59:
 2027 0359 725F6374 		.ascii	"r_ctx\000"
 2027      7800
 2028              	.LASF88:
 2029 035f 746D5F63 		.ascii	"tm_calibration_t\000"
 2029      616C6962 
 2029      72617469 
 2029      6F6E5F74 
 2029      00
 2030              	.LASF115:
 2031 0370 2E2E2F2E 		.ascii	"../../ChibiOS/os/hal/lib/streams/memstreams.c\000"
 2031      2E2F4368 
 2031      6962694F 
 2031      532F6F73 
 2031      2F68616C 
 2032              	.LASF62:
 2033 039e 725F6375 		.ascii	"r_current\000"
 2033      7272656E 
 2033      7400
 2034              	.LASF61:
 2035 03a8 725F6F6C 		.ascii	"r_older\000"
 2035      64657200 
 2036              	.LASF105:
 2037 03b0 4D656D53 		.ascii	"MemStreamVMT\000"
 2037      74726561 
 2037      6D564D54 
 2037      00
 2038              	.LASF12:
 2039 03bd 5F5F7569 		.ascii	"__uint64_t\000"
 2039      6E743634 
 2039      5F7400
 2040              	.LASF64:
 2041 03c8 76697274 		.ascii	"virtual_timer_t\000"
 2041      75616C5F 
 2041      74696D65 
 2041      725F7400 
 2042              	.LASF32:
 2043 03d8 705F7072 		.ascii	"p_prev\000"
 2043      657600
 2044              	.LASF25:
 2045 03df 74707269 		.ascii	"tprio_t\000"
 2045      6F5F7400 
 2046              	.LASF110:
 2047 03e7 4D656D6F 		.ascii	"MemoryStream\000"
 2047      72795374 
 2047      7265616D 
 2047      00
 2048              	.LASF75:
 2049 03f4 63685F73 		.ascii	"ch_system_debug\000"
 2049      79737465 
 2049      6D5F6465 
ARM GAS  /tmp/ccRnFw0a.s 			page 40


 2049      62756700 
 2050              	.LASF104:
 2051 0404 5F426F6F 		.ascii	"_Bool\000"
 2051      6C00
 2052              	.LASF17:
 2053 040a 696E7433 		.ascii	"int32_t\000"
 2053      325F7400 
 2054              	.LASF4:
 2055 0412 756E7369 		.ascii	"unsigned char\000"
 2055      676E6564 
 2055      20636861 
 2055      7200
 2056              	.LASF38:
 2057 0420 705F7374 		.ascii	"p_state\000"
 2057      61746500 
 2058              	.LASF46:
 2059 0428 705F6D74 		.ascii	"p_mtxlist\000"
 2059      786C6973 
 2059      7400
 2060              	.LASF5:
 2061 0432 73686F72 		.ascii	"short int\000"
 2061      7420696E 
 2061      7400
 2062              	.LASF41:
 2063 043c 705F7072 		.ascii	"p_preempt\000"
 2063      65656D70 
 2063      7400
 2064              	.LASF58:
 2065 0446 725F7072 		.ascii	"r_prio\000"
 2065      696F00
 2066              	.LASF95:
 2067 044d 65776D61 		.ascii	"ewmask\000"
 2067      736B00
 2068              	.LASF31:
 2069 0454 705F6E65 		.ascii	"p_next\000"
 2069      787400
 2070              	.LASF39:
 2071 045b 705F666C 		.ascii	"p_flags\000"
 2071      61677300 
 2072              	.LASF37:
 2073 0463 705F6E61 		.ascii	"p_name\000"
 2073      6D6500
 2074              	.LASF65:
 2075 046a 63685F76 		.ascii	"ch_virtual_timer\000"
 2075      69727475 
 2075      616C5F74 
 2075      696D6572 
 2075      00
 2076              	.LASF96:
 2077 047b 63685F73 		.ascii	"ch_semaphore\000"
 2077      656D6170 
 2077      686F7265 
 2077      00
 2078              	.LASF45:
 2079 0488 705F6570 		.ascii	"p_epending\000"
 2079      656E6469 
 2079      6E6700
ARM GAS  /tmp/ccRnFw0a.s 			page 41


 2080              	.LASF18:
 2081 0493 75696E74 		.ascii	"uint32_t\000"
 2081      33325F74 
 2081      00
 2082              	.LASF94:
 2083 049c 77746D74 		.ascii	"wtmtxp\000"
 2083      787000
 2084              	.LASF57:
 2085 04a3 725F7175 		.ascii	"r_queue\000"
 2085      65756500 
 2086              	.LASF68:
 2087 04ab 76745F64 		.ascii	"vt_delta\000"
 2087      656C7461 
 2087      00
 2088              	.LASF52:
 2089 04b4 63685F74 		.ascii	"ch_threads_list\000"
 2089      68726561 
 2089      64735F6C 
 2089      69737400 
 2090              	.LASF10:
 2091 04c4 6C6F6E67 		.ascii	"long unsigned int\000"
 2091      20756E73 
 2091      69676E65 
 2091      6420696E 
 2091      7400
 2092              	.LASF107:
 2093 04d6 72656164 		.ascii	"read\000"
 2093      00
 2094              	.LASF15:
 2095 04db 63686172 		.ascii	"char\000"
 2095      00
 2096              	.LASF30:
 2097 04e0 74687265 		.ascii	"thread_t\000"
 2097      61645F74 
 2097      00
 2098              	.LASF102:
 2099 04e9 6D5F6E65 		.ascii	"m_next\000"
 2099      787400
 2100              	.LASF29:
 2101 04f0 73797374 		.ascii	"systime_t\000"
 2101      696D655F 
 2101      7400
 2102              	.LASF47:
 2103 04fa 705F7265 		.ascii	"p_realprio\000"
 2103      616C7072 
 2103      696F00
 2104              	.LASF63:
 2105 0505 76746675 		.ascii	"vtfunc_t\000"
 2105      6E635F74 
 2105      00
 2106              	.LASF9:
 2107 050e 5F5F7569 		.ascii	"__uint32_t\000"
 2107      6E743332 
 2107      5F7400
 2108              	.LASF76:
 2109 0519 70616E69 		.ascii	"panic_msg\000"
 2109      635F6D73 
ARM GAS  /tmp/ccRnFw0a.s 			page 42


 2109      6700
 2110              	.LASF87:
 2111 0523 6F666673 		.ascii	"offset\000"
 2111      657400
 2112              	.LASF85:
 2113 052a 636F6E74 		.ascii	"context\000"
 2113      65787400 
 2114              	.LASF20:
 2115 0532 7274636E 		.ascii	"rtcnt_t\000"
 2115      745F7400 
 2116              	.LASF70:
 2117 053a 76745F70 		.ascii	"vt_par\000"
 2117      617200
 2118              	.LASF53:
 2119 0541 74687265 		.ascii	"threads_queue_t\000"
 2119      6164735F 
 2119      71756575 
 2119      655F7400 
 2120              	.LASF99:
 2121 0551 63685F6D 		.ascii	"ch_mutex\000"
 2121      75746578 
 2121      00
 2122              	.LASF40:
 2123 055a 705F7265 		.ascii	"p_refs\000"
 2123      667300
 2124              	.LASF79:
 2125 0561 726C6973 		.ascii	"rlist\000"
 2125      7400
 2126              	.LASF16:
 2127 0567 75696E74 		.ascii	"uint8_t\000"
 2127      385F7400 
 2128              	.LASF91:
 2129 056f 77746F62 		.ascii	"wtobjp\000"
 2129      6A7000
 2130              	.LASF109:
 2131 0576 73697A65 		.ascii	"size\000"
 2131      00
 2132              	.LASF73:
 2133 057b 76745F73 		.ascii	"vt_systime\000"
 2133      79737469 
 2133      6D6500
 2134              	.LASF44:
 2135 0586 705F6D73 		.ascii	"p_msg\000"
 2135      6700
 2136              	.LASF101:
 2137 058c 6D5F6F77 		.ascii	"m_owner\000"
 2137      6E657200 
 2138              	.LASF34:
 2139 0594 705F6374 		.ascii	"p_ctx\000"
 2139      7800
 2140              	.LASF69:
 2141 059a 76745F66 		.ascii	"vt_func\000"
 2141      756E6300 
 2142              		.ident	"GCC: (GNU Tools for ARM Embedded Processors) 4.8.4 20140526 (release) [ARM/embedded-4_8-br
ARM GAS  /tmp/ccRnFw0a.s 			page 43


DEFINED SYMBOLS
                            *ABS*:00000000 memstreams.c
     /tmp/ccRnFw0a.s:18     .text:00000000 $t
     /tmp/ccRnFw0a.s:23     .text:00000000 writes
     /tmp/ccRnFw0a.s:90     .text:00000060 reads
     /tmp/ccRnFw0a.s:156    .text:000000c0 put
     /tmp/ccRnFw0a.s:212    .text:00000110 get
     /tmp/ccRnFw0a.s:262    .rodata:00000000 $d
     /tmp/ccRnFw0a.s:265    .rodata:00000000 vmt
     /tmp/ccRnFw0a.s:277    .text:00000150 msObjectInit
     /tmp/ccRnFw0a.s:317    .text:0000017c $d
                     .debug_frame:00000010 $d

UNDEFINED SYMBOLS
memcpy
