ARM GAS  /tmp/ccYeS0f2.s 			page 1


   1              		.syntax unified
   2              		.cpu cortex-m4
   3              		.fpu softvfp
   4              		.eabi_attribute 20, 1
   5              		.eabi_attribute 21, 1
   6              		.eabi_attribute 23, 3
   7              		.eabi_attribute 24, 1
   8              		.eabi_attribute 25, 1
   9              		.eabi_attribute 26, 1
  10              		.eabi_attribute 30, 6
  11              		.eabi_attribute 34, 1
  12              		.eabi_attribute 18, 4
  13              		.thumb
  14              		.file	"nvic.c"
  15              		.text
  16              	.Ltext0:
  17              		.cfi_sections	.debug_frame
  18              		.align	2
  19              		.p2align 4,,15
  20              		.global	nvicEnableVector
  21              		.thumb
  22              		.thumb_func
  23              		.type	nvicEnableVector, %function
  24              	nvicEnableVector:
  25              	.LFB267:
  26              		.file 1 "../../ChibiOS/os/hal/ports/common/ARMCMx/nvic.c"
  27              		.loc 1 57 0
  28              		.cfi_startproc
  29              		@ args = 0, pretend = 0, frame = 8
  30              		@ frame_needed = 0, uses_anonymous_args = 0
  31              		@ link register save eliminated.
  32 0000 82B0     		sub	sp, sp, #8
  33              		.cfi_def_cfa_offset 8
  34 0002 0190     		str	r0, [sp, #4]
  35 0004 0091     		str	r1, [sp]
  36              		.loc 1 63 0
  37 0006 1149     		ldr	r1, .L2
  38 0008 009B     		ldr	r3, [sp]
  39 000a DBB2     		uxtb	r3, r3
  40 000c 1B01     		lsls	r3, r3, #4
  41 000e DAB2     		uxtb	r2, r3
  42 0010 019B     		ldr	r3, [sp, #4]
  43 0012 0B44     		add	r3, r3, r1
  44 0014 03F54073 		add	r3, r3, #768
  45 0018 1A70     		strb	r2, [r3]
  46              		.loc 1 65 0
  47 001a 0C4B     		ldr	r3, .L2
  48 001c 019A     		ldr	r2, [sp, #4]
  49 001e 5209     		lsrs	r2, r2, #5
  50 0020 0199     		ldr	r1, [sp, #4]
  51 0022 01F01F01 		and	r1, r1, #31
  52 0026 0120     		movs	r0, #1
  53 0028 00FA01F1 		lsl	r1, r0, r1
  54 002c 6032     		adds	r2, r2, #96
  55 002e 43F82210 		str	r1, [r3, r2, lsl #2]
  56              		.loc 1 66 0
  57 0032 064B     		ldr	r3, .L2
ARM GAS  /tmp/ccYeS0f2.s 			page 2


  58 0034 019A     		ldr	r2, [sp, #4]
  59 0036 5209     		lsrs	r2, r2, #5
  60 0038 0199     		ldr	r1, [sp, #4]
  61 003a 01F01F01 		and	r1, r1, #31
  62 003e 0120     		movs	r0, #1
  63 0040 00FA01F1 		lsl	r1, r0, r1
  64 0044 43F82210 		str	r1, [r3, r2, lsl #2]
  65              		.loc 1 67 0
  66 0048 02B0     		add	sp, sp, #8
  67              		@ sp needed
  68 004a 7047     		bx	lr
  69              	.L3:
  70              		.align	2
  71              	.L2:
  72 004c 00E100E0 		.word	-536813312
  73              		.cfi_endproc
  74              	.LFE267:
  75              		.size	nvicEnableVector, .-nvicEnableVector
  76              		.align	2
  77              		.p2align 4,,15
  78              		.global	nvicDisableVector
  79              		.thumb
  80              		.thumb_func
  81              		.type	nvicDisableVector, %function
  82              	nvicDisableVector:
  83              	.LFB268:
  84              		.loc 1 74 0
  85              		.cfi_startproc
  86              		@ args = 0, pretend = 0, frame = 8
  87              		@ frame_needed = 0, uses_anonymous_args = 0
  88              		@ link register save eliminated.
  89 0050 82B0     		sub	sp, sp, #8
  90              		.cfi_def_cfa_offset 8
  91 0052 0190     		str	r0, [sp, #4]
  92              		.loc 1 76 0
  93 0054 0A4B     		ldr	r3, .L5
  94 0056 019A     		ldr	r2, [sp, #4]
  95 0058 5209     		lsrs	r2, r2, #5
  96 005a 0199     		ldr	r1, [sp, #4]
  97 005c 01F01F01 		and	r1, r1, #31
  98 0060 0120     		movs	r0, #1
  99 0062 00FA01F1 		lsl	r1, r0, r1
 100 0066 2032     		adds	r2, r2, #32
 101 0068 43F82210 		str	r1, [r3, r2, lsl #2]
 102              		.loc 1 80 0
 103 006c 044A     		ldr	r2, .L5
 104 006e 019B     		ldr	r3, [sp, #4]
 105 0070 1344     		add	r3, r3, r2
 106 0072 03F54073 		add	r3, r3, #768
 107 0076 0022     		movs	r2, #0
 108 0078 1A70     		strb	r2, [r3]
 109              		.loc 1 82 0
 110 007a 02B0     		add	sp, sp, #8
 111              		@ sp needed
 112 007c 7047     		bx	lr
 113              	.L6:
 114 007e 00BF     		.align	2
ARM GAS  /tmp/ccYeS0f2.s 			page 3


 115              	.L5:
 116 0080 00E100E0 		.word	-536813312
 117              		.cfi_endproc
 118              	.LFE268:
 119              		.size	nvicDisableVector, .-nvicDisableVector
 120              		.align	2
 121 0084 AFF30080 		.p2align 4,,15
 121      AFF30080 
 121      AFF30080 
 122              		.global	nvicSetSystemHandlerPriority
 123              		.thumb
 124              		.thumb_func
 125              		.type	nvicSetSystemHandlerPriority, %function
 126              	nvicSetSystemHandlerPriority:
 127              	.LFB269:
 128              		.loc 1 90 0
 129              		.cfi_startproc
 130              		@ args = 0, pretend = 0, frame = 8
 131              		@ frame_needed = 0, uses_anonymous_args = 0
 132              		@ link register save eliminated.
 133 0090 82B0     		sub	sp, sp, #8
 134              		.cfi_def_cfa_offset 8
 135 0092 0190     		str	r0, [sp, #4]
 136 0094 0091     		str	r1, [sp]
 137              		.loc 1 100 0
 138 0096 0549     		ldr	r1, .L8
 139 0098 009B     		ldr	r3, [sp]
 140 009a DBB2     		uxtb	r3, r3
 141 009c 1B01     		lsls	r3, r3, #4
 142 009e DAB2     		uxtb	r2, r3
 143 00a0 019B     		ldr	r3, [sp, #4]
 144 00a2 0B44     		add	r3, r3, r1
 145 00a4 1833     		adds	r3, r3, #24
 146 00a6 1A70     		strb	r2, [r3]
 147              		.loc 1 102 0
 148 00a8 02B0     		add	sp, sp, #8
 149              		@ sp needed
 150 00aa 7047     		bx	lr
 151              	.L9:
 152              		.align	2
 153              	.L8:
 154 00ac 00ED00E0 		.word	-536810240
 155              		.cfi_endproc
 156              	.LFE269:
 157              		.size	nvicSetSystemHandlerPriority, .-nvicSetSystemHandlerPriority
 158              		.align	2
 159              		.p2align 4,,15
 160              		.global	nvicClearPending
 161              		.thumb
 162              		.thumb_func
 163              		.type	nvicClearPending, %function
 164              	nvicClearPending:
 165              	.LFB270:
 166              		.loc 1 109 0
 167              		.cfi_startproc
 168              		@ args = 0, pretend = 0, frame = 8
 169              		@ frame_needed = 0, uses_anonymous_args = 0
ARM GAS  /tmp/ccYeS0f2.s 			page 4


 170              		@ link register save eliminated.
 171 00b0 82B0     		sub	sp, sp, #8
 172              		.cfi_def_cfa_offset 8
 173 00b2 0190     		str	r0, [sp, #4]
 174              		.loc 1 111 0
 175 00b4 064B     		ldr	r3, .L11
 176 00b6 019A     		ldr	r2, [sp, #4]
 177 00b8 5209     		lsrs	r2, r2, #5
 178 00ba 0199     		ldr	r1, [sp, #4]
 179 00bc 01F01F01 		and	r1, r1, #31
 180 00c0 0120     		movs	r0, #1
 181 00c2 00FA01F1 		lsl	r1, r0, r1
 182 00c6 6032     		adds	r2, r2, #96
 183 00c8 43F82210 		str	r1, [r3, r2, lsl #2]
 184              		.loc 1 112 0
 185 00cc 02B0     		add	sp, sp, #8
 186              		@ sp needed
 187 00ce 7047     		bx	lr
 188              	.L12:
 189              		.align	2
 190              	.L11:
 191 00d0 00E100E0 		.word	-536813312
 192              		.cfi_endproc
 193              	.LFE270:
 194              		.size	nvicClearPending, .-nvicClearPending
 195              	.Letext0:
 196              		.file 2 "/nfs/nfs5/home/research/hardware/arm2/gcc-arm-embedded/gcc-arm-none-eabi-4_8-2014q2/arm-n
 197              		.file 3 "/nfs/nfs5/home/research/hardware/arm2/gcc-arm-embedded/gcc-arm-none-eabi-4_8-2014q2/arm-n
 198              		.file 4 "../../ChibiOS/os/rt/ports/ARMCMx/compilers/GCC/chtypes.h"
 199              		.file 5 "../../ChibiOS/os/rt/include/chsystypes.h"
 200              		.file 6 "../../ChibiOS/os/rt/include/chschd.h"
 201              		.file 7 "../../ChibiOS/os/ext/CMSIS/include/core_cm4.h"
 202              		.file 8 "../../ChibiOS/os/rt/ports/ARMCMx/chcore.h"
 203              		.file 9 "../../ChibiOS/os/rt/ports/ARMCMx/chcore_v7m.h"
 204              		.file 10 "../../ChibiOS/os/rt/include/chtm.h"
 205              		.file 11 "../../ChibiOS/os/rt/include/chsem.h"
 206              		.file 12 "../../ChibiOS/os/rt/include/chmtx.h"