ARM GAS  /tmp/cc8LUYoB.s 			page 1


   1              		.syntax unified
   2              		.cpu cortex-m4
   3              		.fpu softvfp
   4              		.eabi_attribute 20, 1
   5              		.eabi_attribute 21, 1
   6              		.eabi_attribute 23, 3
   7              		.eabi_attribute 24, 1
   8              		.eabi_attribute 25, 1
   9              		.eabi_attribute 26, 1
  10              		.eabi_attribute 30, 6
  11              		.eabi_attribute 34, 1
  12              		.eabi_attribute 18, 4
  13              		.thumb
  14              		.file	"sdc.c"
  15              		.text
  16              	.Ltext0:
  17              		.cfi_sections	.debug_frame
  18              		.align	2
  19              		.p2align 4,,15
  20              		.thumb
  21              		.thumb_func
  22              		.type	port_lock, %function
  23              	port_lock:
  24              	.LFB127:
  25              		.file 1 "../../ChibiOS/os/rt/ports/ARMCMx/chcore_v7m.h"
  26              		.loc 1 456 0
  27              		.cfi_startproc
  28              		@ args = 0, pretend = 0, frame = 8
  29              		@ frame_needed = 0, uses_anonymous_args = 0
  30              		@ link register save eliminated.
  31 0000 82B0     		sub	sp, sp, #8
  32              		.cfi_def_cfa_offset 8
  33 0002 2023     		movs	r3, #32
  34 0004 0193     		str	r3, [sp, #4]
  35              	.LBB6:
  36              	.LBB7:
  37              		.file 2 "../../ChibiOS/os/ext/CMSIS/include/core_cmFunc.h"
  38              		.loc 2 548 0
  39 0006 019B     		ldr	r3, [sp, #4]
  40              	@ 548 "../../ChibiOS/os/ext/CMSIS/include/core_cmFunc.h" 1
  41 0008 83F31188 		MSR basepri, r3
  42              	@ 0 "" 2
  43              		.thumb
  44              	.LBE7:
  45              	.LBE6:
  46              		.loc 1 473 0
  47 000c 02B0     		add	sp, sp, #8
  48              		@ sp needed
  49 000e 7047     		bx	lr
  50              		.cfi_endproc
  51              	.LFE127:
  52              		.size	port_lock, .-port_lock
  53              		.align	2
  54              		.p2align 4,,15
  55              		.thumb
  56              		.thumb_func
  57              		.type	port_unlock, %function
ARM GAS  /tmp/cc8LUYoB.s 			page 2


  58              	port_unlock:
  59              	.LFB128:
  60              		.loc 1 480 0
  61              		.cfi_startproc
  62              		@ args = 0, pretend = 0, frame = 8
  63              		@ frame_needed = 0, uses_anonymous_args = 0
  64              		@ link register save eliminated.
  65 0010 82B0     		sub	sp, sp, #8
  66              		.cfi_def_cfa_offset 8
  67 0012 0023     		movs	r3, #0
  68 0014 0193     		str	r3, [sp, #4]
  69              	.LBB8:
  70              	.LBB9:
  71              		.loc 2 548 0
  72 0016 019B     		ldr	r3, [sp, #4]
  73              	@ 548 "../../ChibiOS/os/ext/CMSIS/include/core_cmFunc.h" 1
  74 0018 83F31188 		MSR basepri, r3
  75              	@ 0 "" 2
  76              		.thumb
  77              	.LBE9:
  78              	.LBE8:
  79              		.loc 1 487 0
  80 001c 02B0     		add	sp, sp, #8
  81              		@ sp needed
  82 001e 7047     		bx	lr
  83              		.cfi_endproc
  84              	.LFE128:
  85              		.size	port_unlock, .-port_unlock
  86              		.align	2
  87              		.p2align 4,,15
  88              		.thumb
  89              		.thumb_func
  90              		.type	chSysLock, %function
  91              	chSysLock:
  92              	.LFB156:
  93              		.file 3 "../../ChibiOS/os/rt/include/chsys.h"
  94              		.loc 3 346 0
  95              		.cfi_startproc
  96              		@ args = 0, pretend = 0, frame = 0
  97              		@ frame_needed = 0, uses_anonymous_args = 0
  98 0020 08B5     		push	{r3, lr}
  99              		.cfi_def_cfa_offset 8
 100              		.cfi_offset 3, -8
 101              		.cfi_offset 14, -4
 102              		.loc 3 348 0
 103 0022 FFF7EDFF 		bl	port_lock
 104              		.loc 3 351 0
 105 0026 08BD     		pop	{r3, pc}
 106              		.cfi_endproc
 107              	.LFE156:
 108              		.size	chSysLock, .-chSysLock
 109              		.align	2
 110 0028 AFF30080 		.p2align 4,,15
 110      AFF30080 
 111              		.thumb
 112              		.thumb_func
 113              		.type	chSysUnlock, %function
ARM GAS  /tmp/cc8LUYoB.s 			page 3


 114              	chSysUnlock:
 115              	.LFB157:
 116              		.loc 3 358 0
 117              		.cfi_startproc
 118              		@ args = 0, pretend = 0, frame = 0
 119              		@ frame_needed = 0, uses_anonymous_args = 0
 120 0030 08B5     		push	{r3, lr}
 121              		.cfi_def_cfa_offset 8
 122              		.cfi_offset 3, -8
 123              		.cfi_offset 14, -4
 124              		.loc 3 371 0
 125 0032 FFF7EDFF 		bl	port_unlock
 126              		.loc 3 372 0
 127 0036 08BD     		pop	{r3, pc}
 128              		.cfi_endproc
 129              	.LFE157:
 130              		.size	chSysUnlock, .-chSysUnlock
 131              		.align	2
 132 0038 AFF30080 		.p2align 4,,15
 132      AFF30080 
 133              		.thumb
 134              		.thumb_func
 135              		.type	osalSysLock, %function
 136              	osalSysLock:
 137              	.LFB234:
 138              		.file 4 "../../ChibiOS/os/hal/osal/rt/osal.h"
 139              		.loc 4 491 0
 140              		.cfi_startproc
 141              		@ args = 0, pretend = 0, frame = 0
 142              		@ frame_needed = 0, uses_anonymous_args = 0
 143 0040 08B5     		push	{r3, lr}
 144              		.cfi_def_cfa_offset 8
 145              		.cfi_offset 3, -8
 146              		.cfi_offset 14, -4
 147              		.loc 4 493 0
 148 0042 FFF7EDFF 		bl	chSysLock
 149              		.loc 4 494 0
 150 0046 08BD     		pop	{r3, pc}
 151              		.cfi_endproc
 152              	.LFE234:
 153              		.size	osalSysLock, .-osalSysLock
 154              		.align	2
 155 0048 AFF30080 		.p2align 4,,15
 155      AFF30080 
 156              		.thumb
 157              		.thumb_func
 158              		.type	osalSysUnlock, %function
 159              	osalSysUnlock:
 160              	.LFB235:
 161              		.loc 4 502 0
 162              		.cfi_startproc
 163              		@ args = 0, pretend = 0, frame = 0
 164              		@ frame_needed = 0, uses_anonymous_args = 0
 165 0050 08B5     		push	{r3, lr}
 166              		.cfi_def_cfa_offset 8
 167              		.cfi_offset 3, -8
 168              		.cfi_offset 14, -4
ARM GAS  /tmp/cc8LUYoB.s 			page 4


 169              		.loc 4 504 0
 170 0052 FFF7EDFF 		bl	chSysUnlock
 171              		.loc 4 505 0
 172 0056 08BD     		pop	{r3, pc}
 173              		.cfi_endproc
 174              	.LFE235:
 175              		.size	osalSysUnlock, .-osalSysUnlock
 176              		.align	2
 177 0058 AFF30080 		.p2align 4,,15
 177      AFF30080 
 178              		.thumb
 179              		.thumb_func
 180              		.type	osalThreadSleep, %function
 181              	osalThreadSleep:
 182              	.LFB246:
 183              		.loc 4 671 0
 184              		.cfi_startproc
 185              		@ args = 0, pretend = 0, frame = 8
 186              		@ frame_needed = 0, uses_anonymous_args = 0
 187 0060 00B5     		push	{lr}
 188              		.cfi_def_cfa_offset 4
 189              		.cfi_offset 14, -4
 190 0062 83B0     		sub	sp, sp, #12
 191              		.cfi_def_cfa_offset 16
 192 0064 0190     		str	r0, [sp, #4]
 193              		.loc 4 673 0
 194 0066 0198     		ldr	r0, [sp, #4]
 195 0068 FFF7FEFF 		bl	chThdSleep
 196              		.loc 4 674 0
 197 006c 03B0     		add	sp, sp, #12
 198              		@ sp needed
 199 006e 5DF804FB 		ldr	pc, [sp], #4
 200              		.cfi_endproc
 201              	.LFE246:
 202              		.size	osalThreadSleep, .-osalThreadSleep
 203              		.section	.rodata
 204              		.align	2
 205              		.type	sdc_vmt, %object
 206              		.size	sdc_vmt, 32
 207              	sdc_vmt:
 208 0000 00000000 		.word	sdc_lld_is_card_inserted
 209 0004 00000000 		.word	sdc_lld_is_write_protected
 210 0008 00000000 		.word	sdcConnect
 211 000c 00000000 		.word	sdcDisconnect
 212 0010 00000000 		.word	sdcRead
 213 0014 00000000 		.word	sdcWrite
 214 0018 00000000 		.word	sdcSync
 215 001c 00000000 		.word	sdcGetInfo
 216              		.text
 217 0072 00BF     		.align	2
 218 0074 AFF30080 		.p2align 4,,15
 218      AFF30080 
 218      AFF30080 
 219              		.thumb
 220              		.thumb_func
 221              		.type	mode_detect, %function
 222              	mode_detect:
ARM GAS  /tmp/cc8LUYoB.s 			page 5


 223              	.LFB267:
 224              		.file 5 "../../ChibiOS/os/hal/src/sdc.c"
 225              		.loc 5 99 0
 226              		.cfi_startproc
 227              		@ args = 0, pretend = 0, frame = 16
 228              		@ frame_needed = 0, uses_anonymous_args = 0
 229 0080 00B5     		push	{lr}
 230              		.cfi_def_cfa_offset 4
 231              		.cfi_offset 14, -4
 232 0082 85B0     		sub	sp, sp, #20
 233              		.cfi_def_cfa_offset 24
 234 0084 0190     		str	r0, [sp, #4]
 235              		.loc 5 103 0
 236 0086 03AB     		add	r3, sp, #12
 237 0088 0198     		ldr	r0, [sp, #4]
 238 008a 0821     		movs	r1, #8
 239 008c 4FF4D572 		mov	r2, #426
 240 0090 FFF7FEFF 		bl	sdc_lld_send_cmd_short_crc
 241 0094 0346     		mov	r3, r0
 242 0096 83F00103 		eor	r3, r3, #1
 243 009a DBB2     		uxtb	r3, r3
 244 009c 002B     		cmp	r3, #0
 245 009e 1AD0     		beq	.L9
 246              		.loc 5 105 0
 247 00a0 019B     		ldr	r3, [sp, #4]
 248 00a2 0122     		movs	r2, #1
 249 00a4 1A63     		str	r2, [r3, #48]
 250              		.loc 5 107 0
 251 00a6 039B     		ldr	r3, [sp, #12]
 252 00a8 1B0A     		lsrs	r3, r3, #8
 253 00aa 03F00F03 		and	r3, r3, #15
 254 00ae 012B     		cmp	r3, #1
 255 00b0 01D0     		beq	.L10
 256              		.loc 5 108 0
 257 00b2 0123     		movs	r3, #1
 258 00b4 2AE0     		b	.L16
 259              	.L10:
 260              		.loc 5 110 0
 261 00b6 03AB     		add	r3, sp, #12
 262 00b8 0198     		ldr	r0, [sp, #4]
 263 00ba 3721     		movs	r1, #55
 264 00bc 0022     		movs	r2, #0
 265 00be FFF7FEFF 		bl	sdc_lld_send_cmd_short_crc
 266 00c2 0346     		mov	r3, r0
 267 00c4 002B     		cmp	r3, #0
 268 00c6 04D1     		bne	.L12
 269              		.loc 5 111 0 discriminator 1
 270 00c8 039A     		ldr	r2, [sp, #12]
 271 00ca 124B     		ldr	r3, .L17
 272 00cc 1340     		ands	r3, r3, r2
 273              		.loc 5 110 0 discriminator 1
 274 00ce 002B     		cmp	r3, #0
 275 00d0 1BD0     		beq	.L13
 276              	.L12:
 277              		.loc 5 112 0
 278 00d2 0123     		movs	r3, #1
 279 00d4 1AE0     		b	.L16
ARM GAS  /tmp/cc8LUYoB.s 			page 6


 280              	.L9:
 281              		.loc 5 117 0
 282 00d6 03AB     		add	r3, sp, #12
 283 00d8 0198     		ldr	r0, [sp, #4]
 284 00da 3721     		movs	r1, #55
 285 00dc 0022     		movs	r2, #0
 286 00de FFF7FEFF 		bl	sdc_lld_send_cmd_short_crc
 287 00e2 0346     		mov	r3, r0
 288 00e4 002B     		cmp	r3, #0
 289 00e6 04D1     		bne	.L14
 290              		.loc 5 118 0 discriminator 1
 291 00e8 039A     		ldr	r2, [sp, #12]
 292 00ea 0A4B     		ldr	r3, .L17
 293 00ec 1340     		ands	r3, r3, r2
 294              		.loc 5 117 0 discriminator 1
 295 00ee 002B     		cmp	r3, #0
 296 00f0 03D0     		beq	.L15
 297              	.L14:
 298              		.loc 5 119 0
 299 00f2 019B     		ldr	r3, [sp, #4]
 300 00f4 0222     		movs	r2, #2
 301 00f6 1A63     		str	r2, [r3, #48]
 302 00f8 07E0     		b	.L13
 303              	.L15:
 304              		.loc 5 122 0
 305 00fa 019B     		ldr	r3, [sp, #4]
 306 00fc 0022     		movs	r2, #0
 307 00fe 1A63     		str	r2, [r3, #48]
 308              		.loc 5 125 0
 309 0100 0198     		ldr	r0, [sp, #4]
 310 0102 0021     		movs	r1, #0
 311 0104 0022     		movs	r2, #0
 312 0106 FFF7FEFF 		bl	sdc_lld_send_cmd_none
 313              	.L13:
 314              		.loc 5 129 0
 315 010a 0023     		movs	r3, #0
 316              	.L16:
 317              		.loc 5 130 0
 318 010c 1846     		mov	r0, r3
 319 010e 05B0     		add	sp, sp, #20
 320              		@ sp needed
 321 0110 5DF804FB 		ldr	pc, [sp], #4
 322              	.L18:
 323              		.align	2
 324              	.L17:
 325 0114 08E0FFFD 		.word	-33562616
 326              		.cfi_endproc
 327              	.LFE267:
 328              		.size	mode_detect, .-mode_detect
 329              		.align	2
 330 0118 AFF30080 		.p2align 4,,15
 330      AFF30080 
 331              		.thumb
 332              		.thumb_func
 333              		.type	mmc_init, %function
 334              	mmc_init:
 335              	.LFB268:
ARM GAS  /tmp/cc8LUYoB.s 			page 7


 336              		.loc 5 143 0
 337              		.cfi_startproc
 338              		@ args = 0, pretend = 0, frame = 24
 339              		@ frame_needed = 0, uses_anonymous_args = 0
 340 0120 00B5     		push	{lr}
 341              		.cfi_def_cfa_offset 4
 342              		.cfi_offset 14, -4
 343 0122 87B0     		sub	sp, sp, #28
 344              		.cfi_def_cfa_offset 32
 345 0124 0190     		str	r0, [sp, #4]
 346              		.loc 5 148 0
 347 0126 184B     		ldr	r3, .L28
 348 0128 0493     		str	r3, [sp, #16]
 349              		.loc 5 149 0
 350 012a 0023     		movs	r3, #0
 351 012c 0593     		str	r3, [sp, #20]
 352              	.L26:
 353              		.loc 5 151 0
 354 012e 03AB     		add	r3, sp, #12
 355 0130 0198     		ldr	r0, [sp, #4]
 356 0132 0121     		movs	r1, #1
 357 0134 049A     		ldr	r2, [sp, #16]
 358 0136 FFF7FEFF 		bl	sdc_lld_send_cmd_short
 359 013a 0346     		mov	r3, r0
 360 013c 002B     		cmp	r3, #0
 361 013e 01D0     		beq	.L20
 362              		.loc 5 152 0
 363 0140 0123     		movs	r3, #1
 364 0142 1DE0     		b	.L27
 365              	.L20:
 366              		.loc 5 154 0
 367 0144 039B     		ldr	r3, [sp, #12]
 368 0146 002B     		cmp	r3, #0
 369 0148 0CDA     		bge	.L22
 370              		.loc 5 155 0
 371 014a 039B     		ldr	r3, [sp, #12]
 372 014c 03F08043 		and	r3, r3, #1073741824
 373 0150 002B     		cmp	r3, #0
 374 0152 06D0     		beq	.L23
 375              		.loc 5 156 0
 376 0154 019B     		ldr	r3, [sp, #4]
 377 0156 1B6B     		ldr	r3, [r3, #48]
 378 0158 43F01002 		orr	r2, r3, #16
 379 015c 019B     		ldr	r3, [sp, #4]
 380 015e 1A63     		str	r2, [r3, #48]
 381              		.loc 5 158 0
 382 0160 0DE0     		b	.L24
 383              	.L23:
 384 0162 0CE0     		b	.L24
 385              	.L22:
 386              		.loc 5 160 0
 387 0164 059B     		ldr	r3, [sp, #20]
 388 0166 0133     		adds	r3, r3, #1
 389 0168 0593     		str	r3, [sp, #20]
 390 016a 059B     		ldr	r3, [sp, #20]
 391 016c 632B     		cmp	r3, #99
 392 016e 01D9     		bls	.L25
ARM GAS  /tmp/cc8LUYoB.s 			page 8


 393              		.loc 5 161 0
 394 0170 0123     		movs	r3, #1
 395 0172 05E0     		b	.L27
 396              	.L25:
 397              		.loc 5 163 0
 398 0174 4FF47A70 		mov	r0, #1000
 399 0178 FFF772FF 		bl	osalThreadSleep
 400              		.loc 5 164 0
 401 017c D7E7     		b	.L26
 402              	.L24:
 403              		.loc 5 166 0
 404 017e 0023     		movs	r3, #0
 405              	.L27:
 406              		.loc 5 167 0
 407 0180 1846     		mov	r0, r3
 408 0182 07B0     		add	sp, sp, #28
 409              		@ sp needed
 410 0184 5DF804FB 		ldr	pc, [sp], #4
 411              	.L29:
 412              		.align	2
 413              	.L28:
 414 0188 0080FFC0 		.word	-1056997376
 415              		.cfi_endproc
 416              	.LFE268:
 417              		.size	mmc_init, .-mmc_init
 418              		.align	2
 419 018c AFF30080 		.p2align 4,,15
 420              		.thumb
 421              		.thumb_func
 422              		.type	sdc_init, %function
 423              	sdc_init:
 424              	.LFB269:
 425              		.loc 5 180 0
 426              		.cfi_startproc
 427              		@ args = 0, pretend = 0, frame = 24
 428              		@ frame_needed = 0, uses_anonymous_args = 0
 429 0190 00B5     		push	{lr}
 430              		.cfi_def_cfa_offset 4
 431              		.cfi_offset 14, -4
 432 0192 87B0     		sub	sp, sp, #28
 433              		.cfi_def_cfa_offset 32
 434 0194 0190     		str	r0, [sp, #4]
 435              		.loc 5 185 0
 436 0196 019B     		ldr	r3, [sp, #4]
 437 0198 1B6B     		ldr	r3, [r3, #48]
 438 019a 03F00F03 		and	r3, r3, #15
 439 019e 012B     		cmp	r3, #1
 440 01a0 02D1     		bne	.L31
 441              		.loc 5 186 0
 442 01a2 224B     		ldr	r3, .L43
 443 01a4 0493     		str	r3, [sp, #16]
 444 01a6 01E0     		b	.L32
 445              	.L31:
 446              		.loc 5 189 0
 447 01a8 214B     		ldr	r3, .L43+4
 448 01aa 0493     		str	r3, [sp, #16]
 449              	.L32:
ARM GAS  /tmp/cc8LUYoB.s 			page 9


 450              		.loc 5 192 0
 451 01ac 0023     		movs	r3, #0
 452 01ae 0593     		str	r3, [sp, #20]
 453              	.L41:
 454              		.loc 5 194 0
 455 01b0 03AB     		add	r3, sp, #12
 456 01b2 0198     		ldr	r0, [sp, #4]
 457 01b4 3721     		movs	r1, #55
 458 01b6 0022     		movs	r2, #0
 459 01b8 FFF7FEFF 		bl	sdc_lld_send_cmd_short_crc
 460 01bc 0346     		mov	r3, r0
 461 01be 002B     		cmp	r3, #0
 462 01c0 04D1     		bne	.L33
 463              		.loc 5 195 0 discriminator 1
 464 01c2 039A     		ldr	r2, [sp, #12]
 465 01c4 1B4B     		ldr	r3, .L43+8
 466 01c6 1340     		ands	r3, r3, r2
 467              		.loc 5 194 0 discriminator 1
 468 01c8 002B     		cmp	r3, #0
 469 01ca 01D0     		beq	.L34
 470              	.L33:
 471              		.loc 5 196 0
 472 01cc 0123     		movs	r3, #1
 473 01ce 28E0     		b	.L42
 474              	.L34:
 475              		.loc 5 198 0
 476 01d0 03AB     		add	r3, sp, #12
 477 01d2 0198     		ldr	r0, [sp, #4]
 478 01d4 2921     		movs	r1, #41
 479 01d6 049A     		ldr	r2, [sp, #16]
 480 01d8 FFF7FEFF 		bl	sdc_lld_send_cmd_short
 481 01dc 0346     		mov	r3, r0
 482 01de 002B     		cmp	r3, #0
 483 01e0 01D0     		beq	.L36
 484              		.loc 5 199 0
 485 01e2 0123     		movs	r3, #1
 486 01e4 1DE0     		b	.L42
 487              	.L36:
 488              		.loc 5 201 0
 489 01e6 039B     		ldr	r3, [sp, #12]
 490 01e8 002B     		cmp	r3, #0
 491 01ea 0CDA     		bge	.L37
 492              		.loc 5 202 0
 493 01ec 039B     		ldr	r3, [sp, #12]
 494 01ee 03F08043 		and	r3, r3, #1073741824
 495 01f2 002B     		cmp	r3, #0
 496 01f4 06D0     		beq	.L38
 497              		.loc 5 203 0
 498 01f6 019B     		ldr	r3, [sp, #4]
 499 01f8 1B6B     		ldr	r3, [r3, #48]
 500 01fa 43F01002 		orr	r2, r3, #16
 501 01fe 019B     		ldr	r3, [sp, #4]
 502 0200 1A63     		str	r2, [r3, #48]
 503              		.loc 5 205 0
 504 0202 0DE0     		b	.L39
 505              	.L38:
 506 0204 0CE0     		b	.L39
ARM GAS  /tmp/cc8LUYoB.s 			page 10


 507              	.L37:
 508              		.loc 5 207 0
 509 0206 059B     		ldr	r3, [sp, #20]
 510 0208 0133     		adds	r3, r3, #1
 511 020a 0593     		str	r3, [sp, #20]
 512 020c 059B     		ldr	r3, [sp, #20]
 513 020e 632B     		cmp	r3, #99
 514 0210 01D9     		bls	.L40
 515              		.loc 5 208 0
 516 0212 0123     		movs	r3, #1
 517 0214 05E0     		b	.L42
 518              	.L40:
 519              		.loc 5 210 0
 520 0216 4FF47A70 		mov	r0, #1000
 521 021a FFF721FF 		bl	osalThreadSleep
 522              		.loc 5 211 0
 523 021e C7E7     		b	.L41
 524              	.L39:
 525              		.loc 5 213 0
 526 0220 0023     		movs	r3, #0
 527              	.L42:
 528              		.loc 5 214 0
 529 0222 1846     		mov	r0, r3
 530 0224 07B0     		add	sp, sp, #28
 531              		@ sp needed
 532 0226 5DF804FB 		ldr	pc, [sp], #4
 533              	.L44:
 534 022a 00BF     		.align	2
 535              	.L43:
 536 022c 000010C0 		.word	-1072693248
 537 0230 00001080 		.word	-2146435072
 538 0234 08E0FFFD 		.word	-33562616
 539              		.cfi_endproc
 540              	.LFE269:
 541              		.size	sdc_init, .-sdc_init
 542              		.align	2
 543 0238 AFF30080 		.p2align 4,,15
 543      AFF30080 
 544              		.thumb
 545              		.thumb_func
 546              		.type	mmc_cmd6_construct, %function
 547              	mmc_cmd6_construct:
 548              	.LFB270:
 549              		.loc 5 229 0
 550              		.cfi_startproc
 551              		@ args = 0, pretend = 0, frame = 16
 552              		@ frame_needed = 0, uses_anonymous_args = 0
 553              		@ link register save eliminated.
 554 0240 84B0     		sub	sp, sp, #16
 555              		.cfi_def_cfa_offset 16
 556 0242 0291     		str	r1, [sp, #8]
 557 0244 0192     		str	r2, [sp, #4]
 558 0246 0093     		str	r3, [sp]
 559 0248 0346     		mov	r3, r0
 560 024a 8DF80F30 		strb	r3, [sp, #15]
 561              		.loc 5 234 0
 562 024e 9DF80F30 		ldrb	r3, [sp, #15]	@ zero_extendqisi2
ARM GAS  /tmp/cc8LUYoB.s 			page 11


 563 0252 1A06     		lsls	r2, r3, #24
 564 0254 029B     		ldr	r3, [sp, #8]
 565 0256 1B04     		lsls	r3, r3, #16
 566 0258 1A43     		orrs	r2, r2, r3
 567 025a 019B     		ldr	r3, [sp, #4]
 568 025c 1B02     		lsls	r3, r3, #8
 569 025e 1A43     		orrs	r2, r2, r3
 570 0260 009B     		ldr	r3, [sp]
 571 0262 1343     		orrs	r3, r3, r2
 572              		.loc 5 235 0
 573 0264 1846     		mov	r0, r3
 574 0266 04B0     		add	sp, sp, #16
 575              		@ sp needed
 576 0268 7047     		bx	lr
 577              		.cfi_endproc
 578              	.LFE270:
 579              		.size	mmc_cmd6_construct, .-mmc_cmd6_construct
 580 026a 00BF     		.align	2
 581 026c AFF30080 		.p2align 4,,15
 582              		.thumb
 583              		.thumb_func
 584              		.type	sdc_cmd6_construct, %function
 585              	sdc_cmd6_construct:
 586              	.LFB271:
 587              		.loc 5 250 0
 588              		.cfi_startproc
 589              		@ args = 0, pretend = 0, frame = 16
 590              		@ frame_needed = 0, uses_anonymous_args = 0
 591              		@ link register save eliminated.
 592 0270 84B0     		sub	sp, sp, #16
 593              		.cfi_def_cfa_offset 16
 594 0272 0B46     		mov	r3, r1
 595 0274 0092     		str	r2, [sp]
 596 0276 0246     		mov	r2, r0
 597 0278 8DF80720 		strb	r2, [sp, #7]
 598 027c 8DF80630 		strb	r3, [sp, #6]
 599              		.loc 5 251 0
 600 0280 6FF07F43 		mvn	r3, #-16777216
 601 0284 0393     		str	r3, [sp, #12]
 602              		.loc 5 255 0
 603 0286 9DF80630 		ldrb	r3, [sp, #6]	@ zero_extendqisi2
 604 028a 9B00     		lsls	r3, r3, #2
 605 028c 0F22     		movs	r2, #15
 606 028e 02FA03F3 		lsl	r3, r2, r3
 607 0292 DB43     		mvns	r3, r3
 608 0294 039A     		ldr	r2, [sp, #12]
 609 0296 1340     		ands	r3, r3, r2
 610 0298 0393     		str	r3, [sp, #12]
 611              		.loc 5 256 0
 612 029a 9DF80630 		ldrb	r3, [sp, #6]	@ zero_extendqisi2
 613 029e 9B00     		lsls	r3, r3, #2
 614 02a0 009A     		ldr	r2, [sp]
 615 02a2 02FA03F3 		lsl	r3, r2, r3
 616 02a6 039A     		ldr	r2, [sp, #12]
 617 02a8 1343     		orrs	r3, r3, r2
 618 02aa 0393     		str	r3, [sp, #12]
 619              		.loc 5 257 0
ARM GAS  /tmp/cc8LUYoB.s 			page 12


 620 02ac 9DF80730 		ldrb	r3, [sp, #7]	@ zero_extendqisi2
 621 02b0 DA07     		lsls	r2, r3, #31
 622 02b2 039B     		ldr	r3, [sp, #12]
 623 02b4 1343     		orrs	r3, r3, r2
 624              		.loc 5 258 0
 625 02b6 1846     		mov	r0, r3
 626 02b8 04B0     		add	sp, sp, #16
 627              		@ sp needed
 628 02ba 7047     		bx	lr
 629              		.cfi_endproc
 630              	.LFE271:
 631              		.size	sdc_cmd6_construct, .-sdc_cmd6_construct
 632              		.align	2
 633 02bc AFF30080 		.p2align 4,,15
 634              		.thumb
 635              		.thumb_func
 636              		.type	sdc_cmd6_extract_info, %function
 637              	sdc_cmd6_extract_info:
 638              	.LFB272:
 639              		.loc 5 271 0
 640              		.cfi_startproc
 641              		@ args = 0, pretend = 0, frame = 16
 642              		@ frame_needed = 0, uses_anonymous_args = 0
 643              		@ link register save eliminated.
 644 02c0 84B0     		sub	sp, sp, #16
 645              		.cfi_def_cfa_offset 16
 646 02c2 0346     		mov	r3, r0
 647 02c4 0091     		str	r1, [sp]
 648 02c6 8DF80730 		strb	r3, [sp, #7]
 649              		.loc 5 273 0
 650 02ca 9DF80720 		ldrb	r2, [sp, #7]	@ zero_extendqisi2
 651 02ce 1346     		mov	r3, r2
 652 02d0 DB07     		lsls	r3, r3, #31
 653 02d2 9B1A     		subs	r3, r3, r2
 654 02d4 5B00     		lsls	r3, r3, #1
 655 02d6 0C33     		adds	r3, r3, #12
 656 02d8 0393     		str	r3, [sp, #12]
 657              		.loc 5 275 0
 658 02da 009A     		ldr	r2, [sp]
 659 02dc 039B     		ldr	r3, [sp, #12]
 660 02de 1344     		add	r3, r3, r2
 661 02e0 1B78     		ldrb	r3, [r3]	@ zero_extendqisi2
 662 02e2 1B02     		lsls	r3, r3, #8
 663 02e4 9AB2     		uxth	r2, r3
 664 02e6 039B     		ldr	r3, [sp, #12]
 665 02e8 0133     		adds	r3, r3, #1
 666 02ea 0099     		ldr	r1, [sp]
 667 02ec 0B44     		add	r3, r3, r1
 668 02ee 1B78     		ldrb	r3, [r3]	@ zero_extendqisi2
 669 02f0 1343     		orrs	r3, r3, r2
 670 02f2 9BB2     		uxth	r3, r3
 671 02f4 9BB2     		uxth	r3, r3
 672              		.loc 5 276 0
 673 02f6 1846     		mov	r0, r3
 674 02f8 04B0     		add	sp, sp, #16
 675              		@ sp needed
 676 02fa 7047     		bx	lr
ARM GAS  /tmp/cc8LUYoB.s 			page 13


 677              		.cfi_endproc
 678              	.LFE272:
 679              		.size	sdc_cmd6_extract_info, .-sdc_cmd6_extract_info
 680              		.align	2
 681 02fc AFF30080 		.p2align 4,,15
 682              		.thumb
 683              		.thumb_func
 684              		.type	sdc_cmd6_check_status, %function
 685              	sdc_cmd6_check_status:
 686              	.LFB273:
 687              		.loc 5 291 0
 688              		.cfi_startproc
 689              		@ args = 0, pretend = 0, frame = 16
 690              		@ frame_needed = 0, uses_anonymous_args = 0
 691              		@ link register save eliminated.
 692 0300 84B0     		sub	sp, sp, #16
 693              		.cfi_def_cfa_offset 16
 694 0302 0346     		mov	r3, r0
 695 0304 0091     		str	r1, [sp]
 696 0306 8DF80730 		strb	r3, [sp, #7]
 697              		.loc 5 296 0
 698 030a 009B     		ldr	r3, [sp]
 699 030c 0E33     		adds	r3, r3, #14
 700 030e 1B78     		ldrb	r3, [r3]	@ zero_extendqisi2
 701 0310 1A04     		lsls	r2, r3, #16
 702              		.loc 5 297 0
 703 0312 009B     		ldr	r3, [sp]
 704 0314 0F33     		adds	r3, r3, #15
 705 0316 1B78     		ldrb	r3, [r3]	@ zero_extendqisi2
 706 0318 1B02     		lsls	r3, r3, #8
 707              		.loc 5 296 0
 708 031a 1A43     		orrs	r2, r2, r3
 709              		.loc 5 298 0
 710 031c 009B     		ldr	r3, [sp]
 711 031e 1033     		adds	r3, r3, #16
 712 0320 1B78     		ldrb	r3, [r3]	@ zero_extendqisi2
 713              		.loc 5 296 0
 714 0322 1343     		orrs	r3, r3, r2
 715 0324 0393     		str	r3, [sp, #12]
 716              		.loc 5 299 0
 717 0326 9DF80730 		ldrb	r3, [sp, #7]	@ zero_extendqisi2
 718 032a 9B00     		lsls	r3, r3, #2
 719 032c 039A     		ldr	r2, [sp, #12]
 720 032e 22FA03F3 		lsr	r3, r2, r3
 721 0332 03F00F03 		and	r3, r3, #15
 722 0336 0293     		str	r3, [sp, #8]
 723              		.loc 5 300 0
 724 0338 029B     		ldr	r3, [sp, #8]
 725 033a 0F2B     		cmp	r3, #15
 726 033c 01D0     		beq	.L52
 727              		.loc 5 301 0
 728 033e 0023     		movs	r3, #0
 729 0340 00E0     		b	.L53
 730              	.L52:
 731              		.loc 5 303 0
 732 0342 0123     		movs	r3, #1
 733              	.L53:
ARM GAS  /tmp/cc8LUYoB.s 			page 14


 734              		.loc 5 304 0
 735 0344 1846     		mov	r0, r3
 736 0346 04B0     		add	sp, sp, #16
 737              		@ sp needed
 738 0348 7047     		bx	lr
 739              		.cfi_endproc
 740              	.LFE273:
 741              		.size	sdc_cmd6_check_status, .-sdc_cmd6_check_status
 742 034a 00BF     		.align	2
 743 034c AFF30080 		.p2align 4,,15
 744              		.thumb
 745              		.thumb_func
 746              		.type	sdc_detect_bus_clk, %function
 747              	sdc_detect_bus_clk:
 748              	.LFB274:
 749              		.loc 5 318 0
 750              		.cfi_startproc
 751              		@ args = 0, pretend = 0, frame = 24
 752              		@ frame_needed = 1, uses_anonymous_args = 0
 753 0350 F0B5     		push	{r4, r5, r6, r7, lr}
 754              		.cfi_def_cfa_offset 20
 755              		.cfi_offset 4, -20
 756              		.cfi_offset 5, -16
 757              		.cfi_offset 6, -12
 758              		.cfi_offset 7, -8
 759              		.cfi_offset 14, -4
 760 0352 89B0     		sub	sp, sp, #36
 761              		.cfi_def_cfa_offset 56
 762 0354 02AF     		add	r7, sp, #8
 763              		.cfi_def_cfa 7, 48
 764 0356 7860     		str	r0, [r7, #4]
 765 0358 3960     		str	r1, [r7]
 766 035a 6946     		mov	r1, sp
 767 035c 0E46     		mov	r6, r1
 768              		.loc 5 320 0
 769 035e 4021     		movs	r1, #64
 770 0360 7961     		str	r1, [r7, #20]
 771              		.loc 5 321 0
 772 0362 7969     		ldr	r1, [r7, #20]
 773 0364 0139     		subs	r1, r1, #1
 774 0366 3961     		str	r1, [r7, #16]
 775 0368 7969     		ldr	r1, [r7, #20]
 776 036a 0846     		mov	r0, r1
 777 036c 4FF00001 		mov	r1, #0
 778 0370 CD00     		lsls	r5, r1, #3
 779 0372 45EA5075 		orr	r5, r5, r0, lsr #29
 780 0376 C400     		lsls	r4, r0, #3
 781 0378 7969     		ldr	r1, [r7, #20]
 782 037a 0846     		mov	r0, r1
 783 037c 4FF00001 		mov	r1, #0
 784 0380 CB00     		lsls	r3, r1, #3
 785 0382 43EA5073 		orr	r3, r3, r0, lsr #29
 786 0386 C200     		lsls	r2, r0, #3
 787 0388 7B69     		ldr	r3, [r7, #20]
 788 038a 0733     		adds	r3, r3, #7
 789 038c DB08     		lsrs	r3, r3, #3
 790 038e DB00     		lsls	r3, r3, #3
ARM GAS  /tmp/cc8LUYoB.s 			page 15


 791 0390 ADEB030D 		sub	sp, sp, r3
 792 0394 02AB     		add	r3, sp, #8
 793 0396 0033     		adds	r3, r3, #0
 794 0398 FB60     		str	r3, [r7, #12]
 795              		.loc 5 324 0
 796 039a 3B68     		ldr	r3, [r7]
 797 039c 0022     		movs	r2, #0
 798 039e 1A70     		strb	r2, [r3]
 799              		.loc 5 328 0
 800 03a0 7B68     		ldr	r3, [r7, #4]
 801 03a2 1833     		adds	r3, r3, #24
 802 03a4 1846     		mov	r0, r3
 803 03a6 7F21     		movs	r1, #127
 804 03a8 7E22     		movs	r2, #126
 805 03aa FFF7FEFF 		bl	_mmcsd_get_slice
 806 03ae 0346     		mov	r3, r0
 807 03b0 002B     		cmp	r3, #0
 808 03b2 04D1     		bne	.L55
 809              		.loc 5 329 0
 810 03b4 3B68     		ldr	r3, [r7]
 811 03b6 0022     		movs	r2, #0
 812 03b8 1A70     		strb	r2, [r3]
 813              		.loc 5 330 0
 814 03ba 0023     		movs	r3, #0
 815 03bc 3EE0     		b	.L56
 816              	.L55:
 817              		.loc 5 334 0
 818 03be FB68     		ldr	r3, [r7, #12]
 819 03c0 0022     		movs	r2, #0
 820 03c2 0092     		str	r2, [sp]
 821 03c4 7868     		ldr	r0, [r7, #4]
 822 03c6 1946     		mov	r1, r3
 823 03c8 7A69     		ldr	r2, [r7, #20]
 824 03ca 0623     		movs	r3, #6
 825 03cc FFF7FEFF 		bl	sdc_lld_read_special
 826 03d0 0346     		mov	r3, r0
 827 03d2 002B     		cmp	r3, #0
 828 03d4 01D0     		beq	.L57
 829              		.loc 5 335 0
 830 03d6 0123     		movs	r3, #1
 831 03d8 30E0     		b	.L56
 832              	.L57:
 833              		.loc 5 339 0
 834 03da FB68     		ldr	r3, [r7, #12]
 835 03dc 0020     		movs	r0, #0
 836 03de 1946     		mov	r1, r3
 837 03e0 FFF76EFF 		bl	sdc_cmd6_extract_info
 838 03e4 0346     		mov	r3, r0
 839 03e6 03F00203 		and	r3, r3, #2
 840 03ea 002B     		cmp	r3, #0
 841 03ec 25D0     		beq	.L58
 842              		.loc 5 341 0
 843 03ee 0120     		movs	r0, #1
 844 03f0 0021     		movs	r1, #0
 845 03f2 0122     		movs	r2, #1
 846 03f4 FFF73CFF 		bl	sdc_cmd6_construct
 847 03f8 B860     		str	r0, [r7, #8]
ARM GAS  /tmp/cc8LUYoB.s 			page 16


 848              		.loc 5 344 0
 849 03fa FB68     		ldr	r3, [r7, #12]
 850 03fc BA68     		ldr	r2, [r7, #8]
 851 03fe 0092     		str	r2, [sp]
 852 0400 7868     		ldr	r0, [r7, #4]
 853 0402 1946     		mov	r1, r3
 854 0404 7A69     		ldr	r2, [r7, #20]
 855 0406 0623     		movs	r3, #6
 856 0408 FFF7FEFF 		bl	sdc_lld_read_special
 857 040c 0346     		mov	r3, r0
 858 040e 002B     		cmp	r3, #0
 859 0410 01D0     		beq	.L59
 860              		.loc 5 345 0
 861 0412 0123     		movs	r3, #1
 862 0414 12E0     		b	.L56
 863              	.L59:
 864              		.loc 5 349 0
 865 0416 FB68     		ldr	r3, [r7, #12]
 866 0418 0020     		movs	r0, #0
 867 041a 1946     		mov	r1, r3
 868 041c FFF770FF 		bl	sdc_cmd6_check_status
 869 0420 0346     		mov	r3, r0
 870 0422 83F00103 		eor	r3, r3, #1
 871 0426 DBB2     		uxtb	r3, r3
 872 0428 002B     		cmp	r3, #0
 873 042a 03D0     		beq	.L60
 874              		.loc 5 350 0
 875 042c 3B68     		ldr	r3, [r7]
 876 042e 0122     		movs	r2, #1
 877 0430 1A70     		strb	r2, [r3]
 878 0432 02E0     		b	.L58
 879              	.L60:
 880              		.loc 5 353 0
 881 0434 3B68     		ldr	r3, [r7]
 882 0436 0022     		movs	r2, #0
 883 0438 1A70     		strb	r2, [r3]
 884              	.L58:
 885              		.loc 5 357 0
 886 043a 0023     		movs	r3, #0
 887              	.L56:
 888 043c B546     		mov	sp, r6
 889              		.loc 5 358 0
 890 043e 1846     		mov	r0, r3
 891 0440 1C37     		adds	r7, r7, #28
 892 0442 BD46     		mov	sp, r7
 893              		@ sp needed
 894 0444 F0BD     		pop	{r4, r5, r6, r7, pc}
 895              		.cfi_endproc
 896              	.LFE274:
 897              		.size	sdc_detect_bus_clk, .-sdc_detect_bus_clk
 898 0446 00BF     		.align	2
 899 0448 AFF30080 		.p2align 4,,15
 899      AFF30080 
 900              		.thumb
 901              		.thumb_func
 902              		.type	mmc_detect_bus_clk, %function
 903              	mmc_detect_bus_clk:
ARM GAS  /tmp/cc8LUYoB.s 			page 17


 904              	.LFB275:
 905              		.loc 5 372 0
 906              		.cfi_startproc
 907              		@ args = 0, pretend = 0, frame = 24
 908              		@ frame_needed = 0, uses_anonymous_args = 0
 909 0450 00B5     		push	{lr}
 910              		.cfi_def_cfa_offset 4
 911              		.cfi_offset 14, -4
 912 0452 87B0     		sub	sp, sp, #28
 913              		.cfi_def_cfa_offset 32
 914 0454 0190     		str	r0, [sp, #4]
 915 0456 0091     		str	r1, [sp]
 916              		.loc 5 375 0
 917 0458 019B     		ldr	r3, [sp, #4]
 918 045a DB6A     		ldr	r3, [r3, #44]
 919 045c 1B68     		ldr	r3, [r3]
 920 045e 0593     		str	r3, [sp, #20]
 921              		.loc 5 378 0
 922 0460 009B     		ldr	r3, [sp]
 923 0462 0022     		movs	r2, #0
 924 0464 1A70     		strb	r2, [r3]
 925              		.loc 5 381 0
 926 0466 059B     		ldr	r3, [sp, #20]
 927 0468 002B     		cmp	r3, #0
 928 046a 01D1     		bne	.L63
 929              		.loc 5 382 0
 930 046c 0023     		movs	r3, #0
 931 046e 1BE0     		b	.L66
 932              	.L63:
 933              		.loc 5 385 0
 934 0470 0320     		movs	r0, #3
 935 0472 B921     		movs	r1, #185
 936 0474 0122     		movs	r2, #1
 937 0476 0023     		movs	r3, #0
 938 0478 FFF7E2FE 		bl	mmc_cmd6_construct
 939 047c 0490     		str	r0, [sp, #16]
 940              		.loc 5 386 0
 941 047e 03AB     		add	r3, sp, #12
 942 0480 0198     		ldr	r0, [sp, #4]
 943 0482 0621     		movs	r1, #6
 944 0484 049A     		ldr	r2, [sp, #16]
 945 0486 FFF7FEFF 		bl	sdc_lld_send_cmd_short_crc
 946 048a 0346     		mov	r3, r0
 947 048c 83F00103 		eor	r3, r3, #1
 948 0490 DBB2     		uxtb	r3, r3
 949 0492 002B     		cmp	r3, #0
 950 0494 07D0     		beq	.L65
 951              		.loc 5 387 0 discriminator 1
 952 0496 039A     		ldr	r2, [sp, #12]
 953 0498 054B     		ldr	r3, .L67
 954 049a 1340     		ands	r3, r3, r2
 955              		.loc 5 386 0 discriminator 1
 956 049c 002B     		cmp	r3, #0
 957 049e 02D1     		bne	.L65
 958              		.loc 5 388 0
 959 04a0 009B     		ldr	r3, [sp]
 960 04a2 0122     		movs	r2, #1
ARM GAS  /tmp/cc8LUYoB.s 			page 18


 961 04a4 1A70     		strb	r2, [r3]
 962              	.L65:
 963              		.loc 5 391 0
 964 04a6 0023     		movs	r3, #0
 965              	.L66:
 966              		.loc 5 392 0
 967 04a8 1846     		mov	r0, r3
 968 04aa 07B0     		add	sp, sp, #28
 969              		@ sp needed
 970 04ac 5DF804FB 		ldr	pc, [sp], #4
 971              	.L68:
 972              		.align	2
 973              	.L67:
 974 04b0 08E0FFFD 		.word	-33562616
 975              		.cfi_endproc
 976              	.LFE275:
 977              		.size	mmc_detect_bus_clk, .-mmc_detect_bus_clk
 978              		.align	2
 979 04b4 AFF30080 		.p2align 4,,15
 979      AFF30080 
 979      AFF30080 
 980              		.thumb
 981              		.thumb_func
 982              		.type	detect_bus_clk, %function
 983              	detect_bus_clk:
 984              	.LFB276:
 985              		.loc 5 406 0
 986              		.cfi_startproc
 987              		@ args = 0, pretend = 0, frame = 8
 988              		@ frame_needed = 0, uses_anonymous_args = 0
 989 04c0 00B5     		push	{lr}
 990              		.cfi_def_cfa_offset 4
 991              		.cfi_offset 14, -4
 992 04c2 83B0     		sub	sp, sp, #12
 993              		.cfi_def_cfa_offset 16
 994 04c4 0190     		str	r0, [sp, #4]
 995 04c6 0091     		str	r1, [sp]
 996              		.loc 5 408 0
 997 04c8 019B     		ldr	r3, [sp, #4]
 998 04ca 1B6B     		ldr	r3, [r3, #48]
 999 04cc 03F00F03 		and	r3, r3, #15
 1000 04d0 022B     		cmp	r3, #2
 1001 04d2 05D1     		bne	.L70
 1002              		.loc 5 409 0
 1003 04d4 0198     		ldr	r0, [sp, #4]
 1004 04d6 0099     		ldr	r1, [sp]
 1005 04d8 FFF7BAFF 		bl	mmc_detect_bus_clk
 1006 04dc 0346     		mov	r3, r0
 1007 04de 04E0     		b	.L71
 1008              	.L70:
 1009              		.loc 5 411 0
 1010 04e0 0198     		ldr	r0, [sp, #4]
 1011 04e2 0099     		ldr	r1, [sp]
 1012 04e4 FFF734FF 		bl	sdc_detect_bus_clk
 1013 04e8 0346     		mov	r3, r0
 1014              	.L71:
 1015              		.loc 5 412 0
ARM GAS  /tmp/cc8LUYoB.s 			page 19


 1016 04ea 1846     		mov	r0, r3
 1017 04ec 03B0     		add	sp, sp, #12
 1018              		@ sp needed
 1019 04ee 5DF804FB 		ldr	pc, [sp], #4
 1020              		.cfi_endproc
 1021              	.LFE276:
 1022              		.size	detect_bus_clk, .-detect_bus_clk
 1023 04f2 00BF     		.align	2
 1024 04f4 AFF30080 		.p2align 4,,15
 1024      AFF30080 
 1024      AFF30080 
 1025              		.thumb
 1026              		.thumb_func
 1027              		.type	sdc_set_bus_width, %function
 1028              	sdc_set_bus_width:
 1029              	.LFB277:
 1030              		.loc 5 425 0
 1031              		.cfi_startproc
 1032              		@ args = 0, pretend = 0, frame = 16
 1033              		@ frame_needed = 0, uses_anonymous_args = 0
 1034 0500 00B5     		push	{lr}
 1035              		.cfi_def_cfa_offset 4
 1036              		.cfi_offset 14, -4
 1037 0502 85B0     		sub	sp, sp, #20
 1038              		.cfi_def_cfa_offset 24
 1039 0504 0190     		str	r0, [sp, #4]
 1040              		.loc 5 428 0
 1041 0506 019B     		ldr	r3, [sp, #4]
 1042 0508 DB6A     		ldr	r3, [r3, #44]
 1043 050a 1B79     		ldrb	r3, [r3, #4]	@ zero_extendqisi2
 1044 050c 002B     		cmp	r3, #0
 1045 050e 01D1     		bne	.L73
 1046              		.loc 5 430 0
 1047 0510 0023     		movs	r3, #0
 1048 0512 2CE0     		b	.L80
 1049              	.L73:
 1050              		.loc 5 432 0
 1051 0514 019B     		ldr	r3, [sp, #4]
 1052 0516 DB6A     		ldr	r3, [r3, #44]
 1053 0518 1B79     		ldrb	r3, [r3, #4]	@ zero_extendqisi2
 1054 051a 012B     		cmp	r3, #1
 1055 051c 24D1     		bne	.L75
 1056              		.loc 5 433 0
 1057 051e 0198     		ldr	r0, [sp, #4]
 1058 0520 0121     		movs	r1, #1
 1059 0522 FFF7FEFF 		bl	sdc_lld_set_bus_mode
 1060              		.loc 5 434 0
 1061 0526 019B     		ldr	r3, [sp, #4]
 1062 0528 9A6B     		ldr	r2, [r3, #56]
 1063 052a 03AB     		add	r3, sp, #12
 1064 052c 0198     		ldr	r0, [sp, #4]
 1065 052e 3721     		movs	r1, #55
 1066 0530 FFF7FEFF 		bl	sdc_lld_send_cmd_short_crc
 1067 0534 0346     		mov	r3, r0
 1068 0536 002B     		cmp	r3, #0
 1069 0538 04D1     		bne	.L76
 1070              		.loc 5 435 0 discriminator 1
ARM GAS  /tmp/cc8LUYoB.s 			page 20


 1071 053a 039A     		ldr	r2, [sp, #12]
 1072 053c 0E4B     		ldr	r3, .L81
 1073 053e 1340     		ands	r3, r3, r2
 1074              		.loc 5 434 0 discriminator 1
 1075 0540 002B     		cmp	r3, #0
 1076 0542 01D0     		beq	.L77
 1077              	.L76:
 1078              		.loc 5 436 0
 1079 0544 0123     		movs	r3, #1
 1080 0546 12E0     		b	.L80
 1081              	.L77:
 1082              		.loc 5 439 0
 1083 0548 03AB     		add	r3, sp, #12
 1084 054a 0198     		ldr	r0, [sp, #4]
 1085 054c 0621     		movs	r1, #6
 1086 054e 0222     		movs	r2, #2
 1087 0550 FFF7FEFF 		bl	sdc_lld_send_cmd_short_crc
 1088 0554 0346     		mov	r3, r0
 1089 0556 002B     		cmp	r3, #0
 1090 0558 04D1     		bne	.L78
 1091              		.loc 5 440 0 discriminator 1
 1092 055a 039A     		ldr	r2, [sp, #12]
 1093 055c 064B     		ldr	r3, .L81
 1094 055e 1340     		ands	r3, r3, r2
 1095              		.loc 5 439 0 discriminator 1
 1096 0560 002B     		cmp	r3, #0
 1097 0562 03D0     		beq	.L79
 1098              	.L78:
 1099              		.loc 5 441 0
 1100 0564 0123     		movs	r3, #1
 1101 0566 02E0     		b	.L80
 1102              	.L75:
 1103              		.loc 5 446 0
 1104 0568 0123     		movs	r3, #1
 1105 056a 00E0     		b	.L80
 1106              	.L79:
 1107              		.loc 5 449 0
 1108 056c 0023     		movs	r3, #0
 1109              	.L80:
 1110              		.loc 5 450 0
 1111 056e 1846     		mov	r0, r3
 1112 0570 05B0     		add	sp, sp, #20
 1113              		@ sp needed
 1114 0572 5DF804FB 		ldr	pc, [sp], #4
 1115              	.L82:
 1116 0576 00BF     		.align	2
 1117              	.L81:
 1118 0578 08E0FFFD 		.word	-33562616
 1119              		.cfi_endproc
 1120              	.LFE277:
 1121              		.size	sdc_set_bus_width, .-sdc_set_bus_width
 1122              		.align	2
 1123 057c AFF30080 		.p2align 4,,15
 1124              		.thumb
 1125              		.thumb_func
 1126              		.type	mmc_set_bus_width, %function
 1127              	mmc_set_bus_width:
ARM GAS  /tmp/cc8LUYoB.s 			page 21


 1128              	.LFB278:
 1129              		.loc 5 463 0
 1130              		.cfi_startproc
 1131              		@ args = 0, pretend = 0, frame = 16
 1132              		@ frame_needed = 0, uses_anonymous_args = 0
 1133 0580 00B5     		push	{lr}
 1134              		.cfi_def_cfa_offset 4
 1135              		.cfi_offset 14, -4
 1136 0582 85B0     		sub	sp, sp, #20
 1137              		.cfi_def_cfa_offset 24
 1138 0584 0190     		str	r0, [sp, #4]
 1139              		.loc 5 465 0
 1140 0586 0320     		movs	r0, #3
 1141 0588 B721     		movs	r1, #183
 1142 058a 0022     		movs	r2, #0
 1143 058c 0023     		movs	r3, #0
 1144 058e FFF757FE 		bl	mmc_cmd6_construct
 1145 0592 0390     		str	r0, [sp, #12]
 1146              		.loc 5 467 0
 1147 0594 019B     		ldr	r3, [sp, #4]
 1148 0596 DB6A     		ldr	r3, [r3, #44]
 1149 0598 1B79     		ldrb	r3, [r3, #4]	@ zero_extendqisi2
 1150 059a 012B     		cmp	r3, #1
 1151 059c 06D0     		beq	.L85
 1152 059e 022B     		cmp	r3, #2
 1153 05a0 0CD0     		beq	.L86
 1154 05a2 002B     		cmp	r3, #0
 1155 05a4 00D0     		beq	.L87
 1156              		.loc 5 479 0
 1157 05a6 11E0     		b	.L89
 1158              	.L87:
 1159              		.loc 5 470 0
 1160 05a8 0023     		movs	r3, #0
 1161 05aa 27E0     		b	.L92
 1162              	.L85:
 1163              		.loc 5 472 0
 1164 05ac 0320     		movs	r0, #3
 1165 05ae B721     		movs	r1, #183
 1166 05b0 0122     		movs	r2, #1
 1167 05b2 0023     		movs	r3, #0
 1168 05b4 FFF744FE 		bl	mmc_cmd6_construct
 1169 05b8 0390     		str	r0, [sp, #12]
 1170              		.loc 5 473 0
 1171 05ba 07E0     		b	.L89
 1172              	.L86:
 1173              		.loc 5 475 0
 1174 05bc 0320     		movs	r0, #3
 1175 05be B721     		movs	r1, #183
 1176 05c0 0222     		movs	r2, #2
 1177 05c2 0023     		movs	r3, #0
 1178 05c4 FFF73CFE 		bl	mmc_cmd6_construct
 1179 05c8 0390     		str	r0, [sp, #12]
 1180              		.loc 5 476 0
 1181 05ca 00BF     		nop
 1182              	.L89:
 1183              		.loc 5 482 0
 1184 05cc 019B     		ldr	r3, [sp, #4]
ARM GAS  /tmp/cc8LUYoB.s 			page 22


 1185 05ce DB6A     		ldr	r3, [r3, #44]
 1186 05d0 1B79     		ldrb	r3, [r3, #4]	@ zero_extendqisi2
 1187 05d2 0198     		ldr	r0, [sp, #4]
 1188 05d4 1946     		mov	r1, r3
 1189 05d6 FFF7FEFF 		bl	sdc_lld_set_bus_mode
 1190              		.loc 5 483 0
 1191 05da 02AB     		add	r3, sp, #8
 1192 05dc 0198     		ldr	r0, [sp, #4]
 1193 05de 0621     		movs	r1, #6
 1194 05e0 039A     		ldr	r2, [sp, #12]
 1195 05e2 FFF7FEFF 		bl	sdc_lld_send_cmd_short_crc
 1196 05e6 0346     		mov	r3, r0
 1197 05e8 002B     		cmp	r3, #0
 1198 05ea 04D1     		bne	.L90
 1199              		.loc 5 484 0 discriminator 1
 1200 05ec 029A     		ldr	r2, [sp, #8]
 1201 05ee 054B     		ldr	r3, .L93
 1202 05f0 1340     		ands	r3, r3, r2
 1203              		.loc 5 483 0 discriminator 1
 1204 05f2 002B     		cmp	r3, #0
 1205 05f4 01D0     		beq	.L91
 1206              	.L90:
 1207              		.loc 5 485 0
 1208 05f6 0123     		movs	r3, #1
 1209 05f8 00E0     		b	.L92
 1210              	.L91:
 1211              		.loc 5 488 0
 1212 05fa 0023     		movs	r3, #0
 1213              	.L92:
 1214              		.loc 5 489 0
 1215 05fc 1846     		mov	r0, r3
 1216 05fe 05B0     		add	sp, sp, #20
 1217              		@ sp needed
 1218 0600 5DF804FB 		ldr	pc, [sp], #4
 1219              	.L94:
 1220              		.align	2
 1221              	.L93:
 1222 0604 08E0FFFD 		.word	-33562616
 1223              		.cfi_endproc
 1224              	.LFE278:
 1225              		.size	mmc_set_bus_width, .-mmc_set_bus_width
 1226              		.align	2
 1227 0608 AFF30080 		.p2align 4,,15
 1227      AFF30080 
 1228              		.global	_sdc_wait_for_transfer_state
 1229              		.thumb
 1230              		.thumb_func
 1231              		.type	_sdc_wait_for_transfer_state, %function
 1232              	_sdc_wait_for_transfer_state:
 1233              	.LFB279:
 1234              		.loc 5 502 0
 1235              		.cfi_startproc
 1236              		@ args = 0, pretend = 0, frame = 16
 1237              		@ frame_needed = 0, uses_anonymous_args = 0
 1238 0610 00B5     		push	{lr}
 1239              		.cfi_def_cfa_offset 4
 1240              		.cfi_offset 14, -4
ARM GAS  /tmp/cc8LUYoB.s 			page 23


 1241 0612 85B0     		sub	sp, sp, #20
 1242              		.cfi_def_cfa_offset 24
 1243 0614 0190     		str	r0, [sp, #4]
 1244              	.L102:
 1245              		.loc 5 506 0
 1246 0616 019B     		ldr	r3, [sp, #4]
 1247 0618 9A6B     		ldr	r2, [r3, #56]
 1248 061a 03AB     		add	r3, sp, #12
 1249 061c 0198     		ldr	r0, [sp, #4]
 1250 061e 0D21     		movs	r1, #13
 1251 0620 FFF7FEFF 		bl	sdc_lld_send_cmd_short_crc
 1252 0624 0346     		mov	r3, r0
 1253 0626 002B     		cmp	r3, #0
 1254 0628 04D1     		bne	.L96
 1255              		.loc 5 508 0
 1256 062a 039A     		ldr	r2, [sp, #12]
 1257 062c 0D4B     		ldr	r3, .L105
 1258 062e 1340     		ands	r3, r3, r2
 1259              		.loc 5 507 0
 1260 0630 002B     		cmp	r3, #0
 1261 0632 01D0     		beq	.L97
 1262              	.L96:
 1263              		.loc 5 509 0
 1264 0634 0123     		movs	r3, #1
 1265 0636 11E0     		b	.L103
 1266              	.L97:
 1267              		.loc 5 512 0
 1268 0638 039B     		ldr	r3, [sp, #12]
 1269 063a 5B0A     		lsrs	r3, r3, #9
 1270 063c 03F00F03 		and	r3, r3, #15
 1271 0640 042B     		cmp	r3, #4
 1272 0642 04D0     		beq	.L100
 1273 0644 042B     		cmp	r3, #4
 1274 0646 08D3     		bcc	.L99
 1275 0648 072B     		cmp	r3, #7
 1276 064a 06D8     		bhi	.L99
 1277 064c 01E0     		b	.L104
 1278              	.L100:
 1279              		.loc 5 514 0
 1280 064e 0023     		movs	r3, #0
 1281 0650 04E0     		b	.L103
 1282              	.L104:
 1283              		.loc 5 519 0
 1284 0652 6420     		movs	r0, #100
 1285 0654 FFF704FD 		bl	osalThreadSleep
 1286              		.loc 5 527 0
 1287 0658 DDE7     		b	.L102
 1288              	.L99:
 1289              		.loc 5 525 0
 1290 065a 0123     		movs	r3, #1
 1291              	.L103:
 1292              		.loc 5 528 0
 1293 065c 1846     		mov	r0, r3
 1294 065e 05B0     		add	sp, sp, #20
 1295              		@ sp needed
 1296 0660 5DF804FB 		ldr	pc, [sp], #4
 1297              	.L106:
ARM GAS  /tmp/cc8LUYoB.s 			page 24


 1298              		.align	2
 1299              	.L105:
 1300 0664 08E0FFFD 		.word	-33562616
 1301              		.cfi_endproc
 1302              	.LFE279:
 1303              		.size	_sdc_wait_for_transfer_state, .-_sdc_wait_for_transfer_state
 1304              		.align	2
 1305 0668 AFF30080 		.p2align 4,,15
 1305      AFF30080 
 1306              		.global	sdcInit
 1307              		.thumb
 1308              		.thumb_func
 1309              		.type	sdcInit, %function
 1310              	sdcInit:
 1311              	.LFB280:
 1312              		.loc 5 541 0
 1313              		.cfi_startproc
 1314              		@ args = 0, pretend = 0, frame = 0
 1315              		@ frame_needed = 0, uses_anonymous_args = 0
 1316 0670 08B5     		push	{r3, lr}
 1317              		.cfi_def_cfa_offset 8
 1318              		.cfi_offset 3, -8
 1319              		.cfi_offset 14, -4
 1320              		.loc 5 543 0
 1321 0672 FFF7FEFF 		bl	sdc_lld_init
 1322              		.loc 5 544 0
 1323 0676 08BD     		pop	{r3, pc}
 1324              		.cfi_endproc
 1325              	.LFE280:
 1326              		.size	sdcInit, .-sdcInit
 1327              		.align	2
 1328 0678 AFF30080 		.p2align 4,,15
 1328      AFF30080 
 1329              		.global	sdcObjectInit
 1330              		.thumb
 1331              		.thumb_func
 1332              		.type	sdcObjectInit, %function
 1333              	sdcObjectInit:
 1334              	.LFB281:
 1335              		.loc 5 553 0
 1336              		.cfi_startproc
 1337              		@ args = 0, pretend = 0, frame = 8
 1338              		@ frame_needed = 0, uses_anonymous_args = 0
 1339              		@ link register save eliminated.
 1340 0680 82B0     		sub	sp, sp, #8
 1341              		.cfi_def_cfa_offset 8
 1342 0682 0190     		str	r0, [sp, #4]
 1343              		.loc 5 555 0
 1344 0684 019B     		ldr	r3, [sp, #4]
 1345 0686 084A     		ldr	r2, .L109
 1346 0688 1A60     		str	r2, [r3]
 1347              		.loc 5 556 0
 1348 068a 019B     		ldr	r3, [sp, #4]
 1349 068c 0122     		movs	r2, #1
 1350 068e 1A71     		strb	r2, [r3, #4]
 1351              		.loc 5 557 0
 1352 0690 019B     		ldr	r3, [sp, #4]
ARM GAS  /tmp/cc8LUYoB.s 			page 25


 1353 0692 0022     		movs	r2, #0
 1354 0694 5A63     		str	r2, [r3, #52]
 1355              		.loc 5 558 0
 1356 0696 019B     		ldr	r3, [sp, #4]
 1357 0698 0022     		movs	r2, #0
 1358 069a DA62     		str	r2, [r3, #44]
 1359              		.loc 5 559 0
 1360 069c 019B     		ldr	r3, [sp, #4]
 1361 069e 0022     		movs	r2, #0
 1362 06a0 9A62     		str	r2, [r3, #40]
 1363              		.loc 5 560 0
 1364 06a2 02B0     		add	sp, sp, #8
 1365              		@ sp needed
 1366 06a4 7047     		bx	lr
 1367              	.L110:
 1368 06a6 00BF     		.align	2
 1369              	.L109:
 1370 06a8 00000000 		.word	sdc_vmt
 1371              		.cfi_endproc
 1372              	.LFE281:
 1373              		.size	sdcObjectInit, .-sdcObjectInit
 1374              		.align	2
 1375 06ac AFF30080 		.p2align 4,,15
 1376              		.global	sdcStart
 1377              		.thumb
 1378              		.thumb_func
 1379              		.type	sdcStart, %function
 1380              	sdcStart:
 1381              	.LFB282:
 1382              		.loc 5 572 0
 1383              		.cfi_startproc
 1384              		@ args = 0, pretend = 0, frame = 8
 1385              		@ frame_needed = 0, uses_anonymous_args = 0
 1386 06b0 00B5     		push	{lr}
 1387              		.cfi_def_cfa_offset 4
 1388              		.cfi_offset 14, -4
 1389 06b2 83B0     		sub	sp, sp, #12
 1390              		.cfi_def_cfa_offset 16
 1391 06b4 0190     		str	r0, [sp, #4]
 1392 06b6 0091     		str	r1, [sp]
 1393              		.loc 5 576 0
 1394 06b8 FFF7C2FC 		bl	osalSysLock
 1395              		.loc 5 579 0
 1396 06bc 019B     		ldr	r3, [sp, #4]
 1397 06be 009A     		ldr	r2, [sp]
 1398 06c0 DA62     		str	r2, [r3, #44]
 1399              		.loc 5 580 0
 1400 06c2 0198     		ldr	r0, [sp, #4]
 1401 06c4 FFF7FEFF 		bl	sdc_lld_start
 1402              		.loc 5 581 0
 1403 06c8 019B     		ldr	r3, [sp, #4]
 1404 06ca 0222     		movs	r2, #2
 1405 06cc 1A71     		strb	r2, [r3, #4]
 1406              		.loc 5 582 0
 1407 06ce FFF7BFFC 		bl	osalSysUnlock
 1408              		.loc 5 583 0
 1409 06d2 03B0     		add	sp, sp, #12
ARM GAS  /tmp/cc8LUYoB.s 			page 26


 1410              		@ sp needed
 1411 06d4 5DF804FB 		ldr	pc, [sp], #4
 1412              		.cfi_endproc
 1413              	.LFE282:
 1414              		.size	sdcStart, .-sdcStart
 1415              		.align	2
 1416 06d8 AFF30080 		.p2align 4,,15
 1416      AFF30080 
 1417              		.global	sdcStop
 1418              		.thumb
 1419              		.thumb_func
 1420              		.type	sdcStop, %function
 1421              	sdcStop:
 1422              	.LFB283:
 1423              		.loc 5 592 0
 1424              		.cfi_startproc
 1425              		@ args = 0, pretend = 0, frame = 8
 1426              		@ frame_needed = 0, uses_anonymous_args = 0
 1427 06e0 00B5     		push	{lr}
 1428              		.cfi_def_cfa_offset 4
 1429              		.cfi_offset 14, -4
 1430 06e2 83B0     		sub	sp, sp, #12
 1431              		.cfi_def_cfa_offset 16
 1432 06e4 0190     		str	r0, [sp, #4]
 1433              		.loc 5 596 0
 1434 06e6 FFF7ABFC 		bl	osalSysLock
 1435              		.loc 5 599 0
 1436 06ea 0198     		ldr	r0, [sp, #4]
 1437 06ec FFF7FEFF 		bl	sdc_lld_stop
 1438              		.loc 5 600 0
 1439 06f0 019B     		ldr	r3, [sp, #4]
 1440 06f2 0122     		movs	r2, #1
 1441 06f4 1A71     		strb	r2, [r3, #4]
 1442              		.loc 5 601 0
 1443 06f6 FFF7ABFC 		bl	osalSysUnlock
 1444              		.loc 5 602 0
 1445 06fa 03B0     		add	sp, sp, #12
 1446              		@ sp needed
 1447 06fc 5DF804FB 		ldr	pc, [sp], #4
 1448              		.cfi_endproc
 1449              	.LFE283:
 1450              		.size	sdcStop, .-sdcStop
 1451              		.align	2
 1452              		.p2align 4,,15
 1453              		.global	sdcConnect
 1454              		.thumb
 1455              		.thumb_func
 1456              		.type	sdcConnect, %function
 1457              	sdcConnect:
 1458              	.LFB284:
 1459              		.loc 5 618 0
 1460              		.cfi_startproc
 1461              		@ args = 0, pretend = 0, frame = 24
 1462              		@ frame_needed = 0, uses_anonymous_args = 0
 1463 0700 00B5     		push	{lr}
 1464              		.cfi_def_cfa_offset 4
 1465              		.cfi_offset 14, -4
ARM GAS  /tmp/cc8LUYoB.s 			page 27


 1466 0702 89B0     		sub	sp, sp, #36
 1467              		.cfi_def_cfa_offset 40
 1468 0704 0390     		str	r0, [sp, #12]
 1469              		.loc 5 620 0
 1470 0706 0023     		movs	r3, #0
 1471 0708 8DF81730 		strb	r3, [sp, #23]
 1472              		.loc 5 627 0
 1473 070c 039B     		ldr	r3, [sp, #12]
 1474 070e 0322     		movs	r2, #3
 1475 0710 1A71     		strb	r2, [r3, #4]
 1476              		.loc 5 630 0
 1477 0712 0398     		ldr	r0, [sp, #12]
 1478 0714 FFF7FEFF 		bl	sdc_lld_start_clk
 1479              		.loc 5 633 0
 1480 0718 0398     		ldr	r0, [sp, #12]
 1481 071a 0021     		movs	r1, #0
 1482 071c 0022     		movs	r2, #0
 1483 071e FFF7FEFF 		bl	sdc_lld_send_cmd_none
 1484              		.loc 5 636 0
 1485 0722 0398     		ldr	r0, [sp, #12]
 1486 0724 FFF7ACFC 		bl	mode_detect
 1487 0728 0346     		mov	r3, r0
 1488 072a 002B     		cmp	r3, #0
 1489 072c 00D0     		beq	.L114
 1490              		.loc 5 637 0
 1491 072e BAE0     		b	.L115
 1492              	.L114:
 1493              		.loc 5 641 0
 1494 0730 039B     		ldr	r3, [sp, #12]
 1495 0732 1B6B     		ldr	r3, [r3, #48]
 1496 0734 03F00F03 		and	r3, r3, #15
 1497 0738 022B     		cmp	r3, #2
 1498 073a 06D1     		bne	.L116
 1499              		.loc 5 642 0
 1500 073c 0398     		ldr	r0, [sp, #12]
 1501 073e FFF7EFFC 		bl	mmc_init
 1502 0742 0346     		mov	r3, r0
 1503 0744 002B     		cmp	r3, #0
 1504 0746 07D0     		beq	.L117
 1505              		.loc 5 643 0
 1506 0748 ADE0     		b	.L115
 1507              	.L116:
 1508              		.loc 5 647 0
 1509 074a 0398     		ldr	r0, [sp, #12]
 1510 074c FFF720FD 		bl	sdc_init
 1511 0750 0346     		mov	r3, r0
 1512 0752 002B     		cmp	r3, #0
 1513 0754 00D0     		beq	.L117
 1514              		.loc 5 648 0
 1515 0756 A6E0     		b	.L115
 1516              	.L117:
 1517              		.loc 5 653 0
 1518 0758 039B     		ldr	r3, [sp, #12]
 1519 075a 0833     		adds	r3, r3, #8
 1520 075c 0398     		ldr	r0, [sp, #12]
 1521 075e 0221     		movs	r1, #2
 1522 0760 0022     		movs	r2, #0
ARM GAS  /tmp/cc8LUYoB.s 			page 28


 1523 0762 FFF7FEFF 		bl	sdc_lld_send_cmd_long_crc
 1524 0766 0346     		mov	r3, r0
 1525 0768 002B     		cmp	r3, #0
 1526 076a 00D0     		beq	.L118
 1527              		.loc 5 654 0
 1528 076c 9BE0     		b	.L115
 1529              	.L118:
 1530              		.loc 5 658 0
 1531 076e 039B     		ldr	r3, [sp, #12]
 1532 0770 3833     		adds	r3, r3, #56
 1533 0772 0398     		ldr	r0, [sp, #12]
 1534 0774 0321     		movs	r1, #3
 1535 0776 0022     		movs	r2, #0
 1536 0778 FFF7FEFF 		bl	sdc_lld_send_cmd_short_crc
 1537 077c 0346     		mov	r3, r0
 1538 077e 002B     		cmp	r3, #0
 1539 0780 00D0     		beq	.L119
 1540              		.loc 5 660 0
 1541 0782 90E0     		b	.L115
 1542              	.L119:
 1543              		.loc 5 664 0
 1544 0784 039B     		ldr	r3, [sp, #12]
 1545 0786 9A6B     		ldr	r2, [r3, #56]
 1546              		.loc 5 665 0
 1547 0788 039B     		ldr	r3, [sp, #12]
 1548 078a 1833     		adds	r3, r3, #24
 1549              		.loc 5 664 0
 1550 078c 0398     		ldr	r0, [sp, #12]
 1551 078e 0921     		movs	r1, #9
 1552 0790 FFF7FEFF 		bl	sdc_lld_send_cmd_long_crc
 1553 0794 0346     		mov	r3, r0
 1554 0796 002B     		cmp	r3, #0
 1555 0798 00D0     		beq	.L120
 1556              		.loc 5 666 0
 1557 079a 84E0     		b	.L115
 1558              	.L120:
 1559              		.loc 5 670 0
 1560 079c 039B     		ldr	r3, [sp, #12]
 1561 079e 9A6B     		ldr	r2, [r3, #56]
 1562 07a0 06AB     		add	r3, sp, #24
 1563 07a2 0398     		ldr	r0, [sp, #12]
 1564 07a4 0721     		movs	r1, #7
 1565 07a6 FFF7FEFF 		bl	sdc_lld_send_cmd_short_crc
 1566 07aa 0346     		mov	r3, r0
 1567 07ac 002B     		cmp	r3, #0
 1568 07ae 00D0     		beq	.L121
 1569              		.loc 5 672 0
 1570 07b0 79E0     		b	.L115
 1571              	.L121:
 1572              		.loc 5 676 0
 1573 07b2 0DF11703 		add	r3, sp, #23
 1574 07b6 0398     		ldr	r0, [sp, #12]
 1575 07b8 1946     		mov	r1, r3
 1576 07ba FFF781FE 		bl	detect_bus_clk
 1577 07be 0346     		mov	r3, r0
 1578 07c0 002B     		cmp	r3, #0
 1579 07c2 00D0     		beq	.L122
ARM GAS  /tmp/cc8LUYoB.s 			page 29


 1580              		.loc 5 677 0
 1581 07c4 6FE0     		b	.L115
 1582              	.L122:
 1583              		.loc 5 679 0
 1584 07c6 9DF81730 		ldrb	r3, [sp, #23]	@ zero_extendqisi2
 1585 07ca 0398     		ldr	r0, [sp, #12]
 1586 07cc 1946     		mov	r1, r3
 1587 07ce FFF7FEFF 		bl	sdc_lld_set_data_clk
 1588              		.loc 5 682 0
 1589 07d2 039B     		ldr	r3, [sp, #12]
 1590 07d4 1B6B     		ldr	r3, [r3, #48]
 1591 07d6 03F00F03 		and	r3, r3, #15
 1592 07da 022B     		cmp	r3, #2
 1593 07dc 2ED1     		bne	.L123
 1594              		.loc 5 685 0
 1595 07de 039B     		ldr	r3, [sp, #12]
 1596 07e0 1833     		adds	r3, r3, #24
 1597 07e2 1846     		mov	r0, r3
 1598 07e4 7F21     		movs	r1, #127
 1599 07e6 7E22     		movs	r2, #126
 1600 07e8 FFF7FEFF 		bl	_mmcsd_get_slice
 1601 07ec 0346     		mov	r3, r0
 1602 07ee 012B     		cmp	r3, #1
 1603 07f0 1BD9     		bls	.L124
 1604              	.LBB10:
 1605              		.loc 5 686 0
 1606 07f2 039B     		ldr	r3, [sp, #12]
 1607 07f4 DB6A     		ldr	r3, [r3, #44]
 1608 07f6 1B68     		ldr	r3, [r3]
 1609 07f8 0793     		str	r3, [sp, #28]
 1610              		.loc 5 689 0
 1611 07fa 079B     		ldr	r3, [sp, #28]
 1612 07fc 002B     		cmp	r3, #0
 1613 07fe 00D1     		bne	.L125
 1614              		.loc 5 690 0
 1615 0800 51E0     		b	.L115
 1616              	.L125:
 1617              		.loc 5 693 0
 1618 0802 0023     		movs	r3, #0
 1619 0804 0093     		str	r3, [sp]
 1620 0806 0398     		ldr	r0, [sp, #12]
 1621 0808 0799     		ldr	r1, [sp, #28]
 1622 080a 4FF40072 		mov	r2, #512
 1623 080e 0823     		movs	r3, #8
 1624 0810 FFF7FEFF 		bl	sdc_lld_read_special
 1625 0814 0346     		mov	r3, r0
 1626 0816 002B     		cmp	r3, #0
 1627 0818 00D0     		beq	.L126
 1628              		.loc 5 694 0
 1629 081a 44E0     		b	.L115
 1630              	.L126:
 1631              		.loc 5 698 0
 1632 081c 0798     		ldr	r0, [sp, #28]
 1633 081e FFF7FEFF 		bl	_mmcsd_get_capacity_ext
 1634 0822 0246     		mov	r2, r0
 1635 0824 039B     		ldr	r3, [sp, #12]
 1636 0826 9A62     		str	r2, [r3, #40]
ARM GAS  /tmp/cc8LUYoB.s 			page 30


 1637              	.LBE10:
 1638 0828 10E0     		b	.L128
 1639              	.L124:
 1640              		.loc 5 702 0
 1641 082a 039B     		ldr	r3, [sp, #12]
 1642 082c 1833     		adds	r3, r3, #24
 1643 082e 1846     		mov	r0, r3
 1644 0830 FFF7FEFF 		bl	_mmcsd_get_capacity
 1645 0834 0246     		mov	r2, r0
 1646 0836 039B     		ldr	r3, [sp, #12]
 1647 0838 9A62     		str	r2, [r3, #40]
 1648 083a 07E0     		b	.L128
 1649              	.L123:
 1650              		.loc 5 707 0
 1651 083c 039B     		ldr	r3, [sp, #12]
 1652 083e 1833     		adds	r3, r3, #24
 1653 0840 1846     		mov	r0, r3
 1654 0842 FFF7FEFF 		bl	_mmcsd_get_capacity
 1655 0846 0246     		mov	r2, r0
 1656 0848 039B     		ldr	r3, [sp, #12]
 1657 084a 9A62     		str	r2, [r3, #40]
 1658              	.L128:
 1659              		.loc 5 711 0
 1660 084c 06AB     		add	r3, sp, #24
 1661 084e 0398     		ldr	r0, [sp, #12]
 1662 0850 1021     		movs	r1, #16
 1663 0852 4FF40072 		mov	r2, #512
 1664 0856 FFF7FEFF 		bl	sdc_lld_send_cmd_short_crc
 1665 085a 0346     		mov	r3, r0
 1666 085c 002B     		cmp	r3, #0
 1667 085e 22D1     		bne	.L115
 1668              		.loc 5 713 0
 1669 0860 069A     		ldr	r2, [sp, #24]
 1670 0862 164B     		ldr	r3, .L137
 1671 0864 1340     		ands	r3, r3, r2
 1672              		.loc 5 712 0
 1673 0866 002B     		cmp	r3, #0
 1674 0868 1DD1     		bne	.L115
 1675              		.loc 5 718 0
 1676 086a 039B     		ldr	r3, [sp, #12]
 1677 086c 1B6B     		ldr	r3, [r3, #48]
 1678 086e 03F00F03 		and	r3, r3, #15
 1679 0872 012B     		cmp	r3, #1
 1680 0874 02D9     		bls	.L130
 1681 0876 022B     		cmp	r3, #2
 1682 0878 08D0     		beq	.L131
 1683              		.loc 5 732 0
 1684 087a 14E0     		b	.L115
 1685              	.L130:
 1686              		.loc 5 721 0
 1687 087c 0398     		ldr	r0, [sp, #12]
 1688 087e FFF73FFE 		bl	sdc_set_bus_width
 1689 0882 0346     		mov	r3, r0
 1690 0884 002B     		cmp	r3, #0
 1691 0886 00D0     		beq	.L132
 1692              		.loc 5 722 0
 1693 0888 0DE0     		b	.L115
ARM GAS  /tmp/cc8LUYoB.s 			page 31


 1694              	.L132:
 1695              		.loc 5 724 0
 1696 088a 07E0     		b	.L133
 1697              	.L131:
 1698              		.loc 5 726 0
 1699 088c 0398     		ldr	r0, [sp, #12]
 1700 088e FFF777FE 		bl	mmc_set_bus_width
 1701 0892 0346     		mov	r3, r0
 1702 0894 002B     		cmp	r3, #0
 1703 0896 00D0     		beq	.L134
 1704              		.loc 5 727 0
 1705 0898 05E0     		b	.L115
 1706              	.L134:
 1707              		.loc 5 729 0
 1708 089a 00BF     		nop
 1709              	.L133:
 1710              		.loc 5 736 0
 1711 089c 039B     		ldr	r3, [sp, #12]
 1712 089e 0522     		movs	r2, #5
 1713 08a0 1A71     		strb	r2, [r3, #4]
 1714              		.loc 5 737 0
 1715 08a2 0023     		movs	r3, #0
 1716 08a4 06E0     		b	.L136
 1717              	.L115:
 1718              		.loc 5 741 0
 1719 08a6 0398     		ldr	r0, [sp, #12]
 1720 08a8 FFF7FEFF 		bl	sdc_lld_stop_clk
 1721              		.loc 5 742 0
 1722 08ac 039B     		ldr	r3, [sp, #12]
 1723 08ae 0222     		movs	r2, #2
 1724 08b0 1A71     		strb	r2, [r3, #4]
 1725              		.loc 5 743 0
 1726 08b2 0123     		movs	r3, #1
 1727              	.L136:
 1728              		.loc 5 744 0
 1729 08b4 1846     		mov	r0, r3
 1730 08b6 09B0     		add	sp, sp, #36
 1731              		@ sp needed
 1732 08b8 5DF804FB 		ldr	pc, [sp], #4
 1733              	.L138:
 1734              		.align	2
 1735              	.L137:
 1736 08bc 08E0FFFD 		.word	-33562616
 1737              		.cfi_endproc
 1738              	.LFE284:
 1739              		.size	sdcConnect, .-sdcConnect
 1740              		.align	2
 1741              		.p2align 4,,15
 1742              		.global	sdcDisconnect
 1743              		.thumb
 1744              		.thumb_func
 1745              		.type	sdcDisconnect, %function
 1746              	sdcDisconnect:
 1747              	.LFB285:
 1748              		.loc 5 757 0
 1749              		.cfi_startproc
 1750              		@ args = 0, pretend = 0, frame = 8
ARM GAS  /tmp/cc8LUYoB.s 			page 32


 1751              		@ frame_needed = 0, uses_anonymous_args = 0
 1752 08c0 00B5     		push	{lr}
 1753              		.cfi_def_cfa_offset 4
 1754              		.cfi_offset 14, -4
 1755 08c2 83B0     		sub	sp, sp, #12
 1756              		.cfi_def_cfa_offset 16
 1757 08c4 0190     		str	r0, [sp, #4]
 1758              		.loc 5 761 0
 1759 08c6 FFF7BBFB 		bl	osalSysLock
 1760              		.loc 5 764 0
 1761 08ca 019B     		ldr	r3, [sp, #4]
 1762 08cc 1B79     		ldrb	r3, [r3, #4]	@ zero_extendqisi2
 1763 08ce 022B     		cmp	r3, #2
 1764 08d0 03D1     		bne	.L140
 1765              		.loc 5 765 0
 1766 08d2 FFF7BDFB 		bl	osalSysUnlock
 1767              		.loc 5 766 0
 1768 08d6 0023     		movs	r3, #0
 1769 08d8 19E0     		b	.L141
 1770              	.L140:
 1771              		.loc 5 768 0
 1772 08da 019B     		ldr	r3, [sp, #4]
 1773 08dc 0422     		movs	r2, #4
 1774 08de 1A71     		strb	r2, [r3, #4]
 1775              		.loc 5 769 0
 1776 08e0 FFF7B6FB 		bl	osalSysUnlock
 1777              		.loc 5 772 0
 1778 08e4 0198     		ldr	r0, [sp, #4]
 1779 08e6 FFF7FEFF 		bl	_sdc_wait_for_transfer_state
 1780 08ea 0346     		mov	r3, r0
 1781 08ec 002B     		cmp	r3, #0
 1782 08ee 07D0     		beq	.L142
 1783              		.loc 5 773 0
 1784 08f0 0198     		ldr	r0, [sp, #4]
 1785 08f2 FFF7FEFF 		bl	sdc_lld_stop_clk
 1786              		.loc 5 774 0
 1787 08f6 019B     		ldr	r3, [sp, #4]
 1788 08f8 0222     		movs	r2, #2
 1789 08fa 1A71     		strb	r2, [r3, #4]
 1790              		.loc 5 775 0
 1791 08fc 0123     		movs	r3, #1
 1792 08fe 06E0     		b	.L141
 1793              	.L142:
 1794              		.loc 5 779 0
 1795 0900 0198     		ldr	r0, [sp, #4]
 1796 0902 FFF7FEFF 		bl	sdc_lld_stop_clk
 1797              		.loc 5 780 0
 1798 0906 019B     		ldr	r3, [sp, #4]
 1799 0908 0222     		movs	r2, #2
 1800 090a 1A71     		strb	r2, [r3, #4]
 1801              		.loc 5 781 0
 1802 090c 0023     		movs	r3, #0
 1803              	.L141:
 1804              		.loc 5 782 0
 1805 090e 1846     		mov	r0, r3
 1806 0910 03B0     		add	sp, sp, #12
 1807              		@ sp needed
ARM GAS  /tmp/cc8LUYoB.s 			page 33


 1808 0912 5DF804FB 		ldr	pc, [sp], #4
 1809              		.cfi_endproc
 1810              	.LFE285:
 1811              		.size	sdcDisconnect, .-sdcDisconnect
 1812 0916 00BF     		.align	2
 1813 0918 AFF30080 		.p2align 4,,15
 1813      AFF30080 
 1814              		.global	sdcRead
 1815              		.thumb
 1816              		.thumb_func
 1817              		.type	sdcRead, %function
 1818              	sdcRead:
 1819              	.LFB286:
 1820              		.loc 5 800 0
 1821              		.cfi_startproc
 1822              		@ args = 0, pretend = 0, frame = 24
 1823              		@ frame_needed = 0, uses_anonymous_args = 0
 1824 0920 00B5     		push	{lr}
 1825              		.cfi_def_cfa_offset 4
 1826              		.cfi_offset 14, -4
 1827 0922 87B0     		sub	sp, sp, #28
 1828              		.cfi_def_cfa_offset 32
 1829 0924 0390     		str	r0, [sp, #12]
 1830 0926 0291     		str	r1, [sp, #8]
 1831 0928 0192     		str	r2, [sp, #4]
 1832 092a 0093     		str	r3, [sp]
 1833              		.loc 5 806 0
 1834 092c 029A     		ldr	r2, [sp, #8]
 1835 092e 009B     		ldr	r3, [sp]
 1836 0930 1344     		add	r3, r3, r2
 1837 0932 5A1E     		subs	r2, r3, #1
 1838 0934 039B     		ldr	r3, [sp, #12]
 1839 0936 9B6A     		ldr	r3, [r3, #40]
 1840 0938 9A42     		cmp	r2, r3
 1841 093a 07D9     		bls	.L144
 1842              		.loc 5 807 0
 1843 093c 039B     		ldr	r3, [sp, #12]
 1844 093e 5B6B     		ldr	r3, [r3, #52]
 1845 0940 43F08002 		orr	r2, r3, #128
 1846 0944 039B     		ldr	r3, [sp, #12]
 1847 0946 5A63     		str	r2, [r3, #52]
 1848              		.loc 5 808 0
 1849 0948 0123     		movs	r3, #1
 1850 094a 10E0     		b	.L145
 1851              	.L144:
 1852              		.loc 5 812 0
 1853 094c 039B     		ldr	r3, [sp, #12]
 1854 094e 0622     		movs	r2, #6
 1855 0950 1A71     		strb	r2, [r3, #4]
 1856              		.loc 5 814 0
 1857 0952 0398     		ldr	r0, [sp, #12]
 1858 0954 0299     		ldr	r1, [sp, #8]
 1859 0956 019A     		ldr	r2, [sp, #4]
 1860 0958 009B     		ldr	r3, [sp]
 1861 095a FFF7FEFF 		bl	sdc_lld_read
 1862 095e 0346     		mov	r3, r0
 1863 0960 8DF81730 		strb	r3, [sp, #23]
ARM GAS  /tmp/cc8LUYoB.s 			page 34


 1864              		.loc 5 817 0
 1865 0964 039B     		ldr	r3, [sp, #12]
 1866 0966 0522     		movs	r2, #5
 1867 0968 1A71     		strb	r2, [r3, #4]
 1868              		.loc 5 818 0
 1869 096a 9DF81730 		ldrb	r3, [sp, #23]	@ zero_extendqisi2
 1870              	.L145:
 1871              		.loc 5 819 0
 1872 096e 1846     		mov	r0, r3
 1873 0970 07B0     		add	sp, sp, #28
 1874              		@ sp needed
 1875 0972 5DF804FB 		ldr	pc, [sp], #4
 1876              		.cfi_endproc
 1877              	.LFE286:
 1878              		.size	sdcRead, .-sdcRead
 1879 0976 00BF     		.align	2
 1880 0978 AFF30080 		.p2align 4,,15
 1880      AFF30080 
 1881              		.global	sdcWrite
 1882              		.thumb
 1883              		.thumb_func
 1884              		.type	sdcWrite, %function
 1885              	sdcWrite:
 1886              	.LFB287:
 1887              		.loc 5 838 0
 1888              		.cfi_startproc
 1889              		@ args = 0, pretend = 0, frame = 24
 1890              		@ frame_needed = 0, uses_anonymous_args = 0
 1891 0980 00B5     		push	{lr}
 1892              		.cfi_def_cfa_offset 4
 1893              		.cfi_offset 14, -4
 1894 0982 87B0     		sub	sp, sp, #28
 1895              		.cfi_def_cfa_offset 32
 1896 0984 0390     		str	r0, [sp, #12]
 1897 0986 0291     		str	r1, [sp, #8]
 1898 0988 0192     		str	r2, [sp, #4]
 1899 098a 0093     		str	r3, [sp]
 1900              		.loc 5 844 0
 1901 098c 029A     		ldr	r2, [sp, #8]
 1902 098e 009B     		ldr	r3, [sp]
 1903 0990 1344     		add	r3, r3, r2
 1904 0992 5A1E     		subs	r2, r3, #1
 1905 0994 039B     		ldr	r3, [sp, #12]
 1906 0996 9B6A     		ldr	r3, [r3, #40]
 1907 0998 9A42     		cmp	r2, r3
 1908 099a 07D9     		bls	.L147
 1909              		.loc 5 845 0
 1910 099c 039B     		ldr	r3, [sp, #12]
 1911 099e 5B6B     		ldr	r3, [r3, #52]
 1912 09a0 43F08002 		orr	r2, r3, #128
 1913 09a4 039B     		ldr	r3, [sp, #12]
 1914 09a6 5A63     		str	r2, [r3, #52]
 1915              		.loc 5 846 0
 1916 09a8 0123     		movs	r3, #1
 1917 09aa 10E0     		b	.L148
 1918              	.L147:
 1919              		.loc 5 850 0
ARM GAS  /tmp/cc8LUYoB.s 			page 35


 1920 09ac 039B     		ldr	r3, [sp, #12]
 1921 09ae 0722     		movs	r2, #7
 1922 09b0 1A71     		strb	r2, [r3, #4]
 1923              		.loc 5 852 0
 1924 09b2 0398     		ldr	r0, [sp, #12]
 1925 09b4 0299     		ldr	r1, [sp, #8]
 1926 09b6 019A     		ldr	r2, [sp, #4]
 1927 09b8 009B     		ldr	r3, [sp]
 1928 09ba FFF7FEFF 		bl	sdc_lld_write
 1929 09be 0346     		mov	r3, r0
 1930 09c0 8DF81730 		strb	r3, [sp, #23]
 1931              		.loc 5 855 0
 1932 09c4 039B     		ldr	r3, [sp, #12]
 1933 09c6 0522     		movs	r2, #5
 1934 09c8 1A71     		strb	r2, [r3, #4]
 1935              		.loc 5 856 0
 1936 09ca 9DF81730 		ldrb	r3, [sp, #23]	@ zero_extendqisi2
 1937              	.L148:
 1938              		.loc 5 857 0
 1939 09ce 1846     		mov	r0, r3
 1940 09d0 07B0     		add	sp, sp, #28
 1941              		@ sp needed
 1942 09d2 5DF804FB 		ldr	pc, [sp], #4
 1943              		.cfi_endproc
 1944              	.LFE287:
 1945              		.size	sdcWrite, .-sdcWrite
 1946 09d6 00BF     		.align	2
 1947 09d8 AFF30080 		.p2align 4,,15
 1947      AFF30080 
 1948              		.global	sdcGetAndClearErrors
 1949              		.thumb
 1950              		.thumb_func
 1951              		.type	sdcGetAndClearErrors, %function
 1952              	sdcGetAndClearErrors:
 1953              	.LFB288:
 1954              		.loc 5 867 0
 1955              		.cfi_startproc
 1956              		@ args = 0, pretend = 0, frame = 16
 1957              		@ frame_needed = 0, uses_anonymous_args = 0
 1958 09e0 00B5     		push	{lr}
 1959              		.cfi_def_cfa_offset 4
 1960              		.cfi_offset 14, -4
 1961 09e2 85B0     		sub	sp, sp, #20
 1962              		.cfi_def_cfa_offset 24
 1963 09e4 0190     		str	r0, [sp, #4]
 1964              		.loc 5 873 0
 1965 09e6 FFF72BFB 		bl	osalSysLock
 1966              		.loc 5 874 0
 1967 09ea 019B     		ldr	r3, [sp, #4]
 1968 09ec 5B6B     		ldr	r3, [r3, #52]
 1969 09ee 0393     		str	r3, [sp, #12]
 1970              		.loc 5 875 0
 1971 09f0 019B     		ldr	r3, [sp, #4]
 1972 09f2 0022     		movs	r2, #0
 1973 09f4 5A63     		str	r2, [r3, #52]
 1974              		.loc 5 876 0
 1975 09f6 FFF72BFB 		bl	osalSysUnlock
ARM GAS  /tmp/cc8LUYoB.s 			page 36


 1976              		.loc 5 877 0
 1977 09fa 039B     		ldr	r3, [sp, #12]
 1978              		.loc 5 878 0
 1979 09fc 1846     		mov	r0, r3
 1980 09fe 05B0     		add	sp, sp, #20
 1981              		@ sp needed
 1982 0a00 5DF804FB 		ldr	pc, [sp], #4
 1983              		.cfi_endproc
 1984              	.LFE288:
 1985              		.size	sdcGetAndClearErrors, .-sdcGetAndClearErrors
 1986              		.align	2
 1987 0a04 AFF30080 		.p2align 4,,15
 1987      AFF30080 
 1987      AFF30080 
 1988              		.global	sdcSync
 1989              		.thumb
 1990              		.thumb_func
 1991              		.type	sdcSync, %function
 1992              	sdcSync:
 1993              	.LFB289:
 1994              		.loc 5 891 0
 1995              		.cfi_startproc
 1996              		@ args = 0, pretend = 0, frame = 16
 1997              		@ frame_needed = 0, uses_anonymous_args = 0
 1998 0a10 00B5     		push	{lr}
 1999              		.cfi_def_cfa_offset 4
 2000              		.cfi_offset 14, -4
 2001 0a12 85B0     		sub	sp, sp, #20
 2002              		.cfi_def_cfa_offset 24
 2003 0a14 0190     		str	r0, [sp, #4]
 2004              		.loc 5 896 0
 2005 0a16 019B     		ldr	r3, [sp, #4]
 2006 0a18 1B79     		ldrb	r3, [r3, #4]	@ zero_extendqisi2
 2007 0a1a 052B     		cmp	r3, #5
 2008 0a1c 01D0     		beq	.L152
 2009              		.loc 5 897 0
 2010 0a1e 0123     		movs	r3, #1
 2011 0a20 0DE0     		b	.L153
 2012              	.L152:
 2013              		.loc 5 901 0
 2014 0a22 019B     		ldr	r3, [sp, #4]
 2015 0a24 0822     		movs	r2, #8
 2016 0a26 1A71     		strb	r2, [r3, #4]
 2017              		.loc 5 903 0
 2018 0a28 0198     		ldr	r0, [sp, #4]
 2019 0a2a FFF7FEFF 		bl	sdc_lld_sync
 2020 0a2e 0346     		mov	r3, r0
 2021 0a30 8DF80F30 		strb	r3, [sp, #15]
 2022              		.loc 5 906 0
 2023 0a34 019B     		ldr	r3, [sp, #4]
 2024 0a36 0522     		movs	r2, #5
 2025 0a38 1A71     		strb	r2, [r3, #4]
 2026              		.loc 5 907 0
 2027 0a3a 9DF80F30 		ldrb	r3, [sp, #15]	@ zero_extendqisi2
 2028              	.L153:
 2029              		.loc 5 908 0
 2030 0a3e 1846     		mov	r0, r3
ARM GAS  /tmp/cc8LUYoB.s 			page 37


 2031 0a40 05B0     		add	sp, sp, #20
 2032              		@ sp needed
 2033 0a42 5DF804FB 		ldr	pc, [sp], #4
 2034              		.cfi_endproc
 2035              	.LFE289:
 2036              		.size	sdcSync, .-sdcSync
 2037 0a46 00BF     		.align	2
 2038 0a48 AFF30080 		.p2align 4,,15
 2038      AFF30080 
 2039              		.global	sdcGetInfo
 2040              		.thumb
 2041              		.thumb_func
 2042              		.type	sdcGetInfo, %function
 2043              	sdcGetInfo:
 2044              	.LFB290:
 2045              		.loc 5 922 0
 2046              		.cfi_startproc
 2047              		@ args = 0, pretend = 0, frame = 8
 2048              		@ frame_needed = 0, uses_anonymous_args = 0
 2049              		@ link register save eliminated.
 2050 0a50 82B0     		sub	sp, sp, #8
 2051              		.cfi_def_cfa_offset 8
 2052 0a52 0190     		str	r0, [sp, #4]
 2053 0a54 0091     		str	r1, [sp]
 2054              		.loc 5 926 0
 2055 0a56 019B     		ldr	r3, [sp, #4]
 2056 0a58 1B79     		ldrb	r3, [r3, #4]	@ zero_extendqisi2
 2057 0a5a 052B     		cmp	r3, #5
 2058 0a5c 01D0     		beq	.L155
 2059              		.loc 5 927 0
 2060 0a5e 0123     		movs	r3, #1
 2061 0a60 08E0     		b	.L156
 2062              	.L155:
 2063              		.loc 5 930 0
 2064 0a62 019B     		ldr	r3, [sp, #4]
 2065 0a64 9A6A     		ldr	r2, [r3, #40]
 2066 0a66 009B     		ldr	r3, [sp]
 2067 0a68 5A60     		str	r2, [r3, #4]
 2068              		.loc 5 931 0
 2069 0a6a 009B     		ldr	r3, [sp]
 2070 0a6c 4FF40072 		mov	r2, #512
 2071 0a70 1A60     		str	r2, [r3]
 2072              		.loc 5 933 0
 2073 0a72 0023     		movs	r3, #0
 2074              	.L156:
 2075              		.loc 5 934 0
 2076 0a74 1846     		mov	r0, r3
 2077 0a76 02B0     		add	sp, sp, #8
 2078              		@ sp needed
 2079 0a78 7047     		bx	lr
 2080              		.cfi_endproc
 2081              	.LFE290:
 2082              		.size	sdcGetInfo, .-sdcGetInfo
 2083 0a7a 00BF     		.align	2
 2084 0a7c AFF30080 		.p2align 4,,15
 2085              		.global	sdcErase
 2086              		.thumb
ARM GAS  /tmp/cc8LUYoB.s 			page 38


 2087              		.thumb_func
 2088              		.type	sdcErase, %function
 2089              	sdcErase:
 2090              	.LFB291:
 2091              		.loc 5 949 0
 2092              		.cfi_startproc
 2093              		@ args = 0, pretend = 0, frame = 24
 2094              		@ frame_needed = 0, uses_anonymous_args = 0
 2095 0a80 00B5     		push	{lr}
 2096              		.cfi_def_cfa_offset 4
 2097              		.cfi_offset 14, -4
 2098 0a82 87B0     		sub	sp, sp, #28
 2099              		.cfi_def_cfa_offset 32
 2100 0a84 0390     		str	r0, [sp, #12]
 2101 0a86 0291     		str	r1, [sp, #8]
 2102 0a88 0192     		str	r2, [sp, #4]
 2103              		.loc 5 956 0
 2104 0a8a 039B     		ldr	r3, [sp, #12]
 2105 0a8c 0722     		movs	r2, #7
 2106 0a8e 1A71     		strb	r2, [r3, #4]
 2107              		.loc 5 959 0
 2108 0a90 039B     		ldr	r3, [sp, #12]
 2109 0a92 1B6B     		ldr	r3, [r3, #48]
 2110 0a94 03F01003 		and	r3, r3, #16
 2111 0a98 002B     		cmp	r3, #0
 2112 0a9a 05D0     		beq	.L158
 2113              		.loc 5 960 0
 2114 0a9c 029B     		ldr	r3, [sp, #8]
 2115 0a9e 5B02     		lsls	r3, r3, #9
 2116 0aa0 0293     		str	r3, [sp, #8]
 2117              		.loc 5 961 0
 2118 0aa2 019B     		ldr	r3, [sp, #4]
 2119 0aa4 5B02     		lsls	r3, r3, #9
 2120 0aa6 0193     		str	r3, [sp, #4]
 2121              	.L158:
 2122              		.loc 5 964 0
 2123 0aa8 0398     		ldr	r0, [sp, #12]
 2124 0aaa FFF7FEFF 		bl	_sdc_wait_for_transfer_state
 2125 0aae 0346     		mov	r3, r0
 2126 0ab0 002B     		cmp	r3, #0
 2127 0ab2 00D0     		beq	.L159
 2128              		.loc 5 965 0
 2129 0ab4 35E0     		b	.L160
 2130              	.L159:
 2131              		.loc 5 968 0
 2132 0ab6 05AB     		add	r3, sp, #20
 2133 0ab8 0398     		ldr	r0, [sp, #12]
 2134 0aba 2021     		movs	r1, #32
 2135 0abc 029A     		ldr	r2, [sp, #8]
 2136 0abe FFF7FEFF 		bl	sdc_lld_send_cmd_short_crc
 2137 0ac2 0346     		mov	r3, r0
 2138 0ac4 002B     		cmp	r3, #0
 2139 0ac6 2CD1     		bne	.L160
 2140              		.loc 5 970 0
 2141 0ac8 059A     		ldr	r2, [sp, #20]
 2142 0aca 1A4B     		ldr	r3, .L164
 2143 0acc 1340     		ands	r3, r3, r2
ARM GAS  /tmp/cc8LUYoB.s 			page 39


 2144              		.loc 5 969 0
 2145 0ace 002B     		cmp	r3, #0
 2146 0ad0 27D1     		bne	.L160
 2147              		.loc 5 974 0
 2148 0ad2 05AB     		add	r3, sp, #20
 2149 0ad4 0398     		ldr	r0, [sp, #12]
 2150 0ad6 2121     		movs	r1, #33
 2151 0ad8 019A     		ldr	r2, [sp, #4]
 2152 0ada FFF7FEFF 		bl	sdc_lld_send_cmd_short_crc
 2153 0ade 0346     		mov	r3, r0
 2154 0ae0 002B     		cmp	r3, #0
 2155 0ae2 1ED1     		bne	.L160
 2156              		.loc 5 976 0
 2157 0ae4 059A     		ldr	r2, [sp, #20]
 2158 0ae6 134B     		ldr	r3, .L164
 2159 0ae8 1340     		ands	r3, r3, r2
 2160              		.loc 5 975 0
 2161 0aea 002B     		cmp	r3, #0
 2162 0aec 19D1     		bne	.L160
 2163              		.loc 5 980 0
 2164 0aee 05AB     		add	r3, sp, #20
 2165 0af0 0398     		ldr	r0, [sp, #12]
 2166 0af2 2621     		movs	r1, #38
 2167 0af4 0022     		movs	r2, #0
 2168 0af6 FFF7FEFF 		bl	sdc_lld_send_cmd_short_crc
 2169 0afa 0346     		mov	r3, r0
 2170 0afc 002B     		cmp	r3, #0
 2171 0afe 10D1     		bne	.L160
 2172              		.loc 5 982 0
 2173 0b00 059A     		ldr	r2, [sp, #20]
 2174 0b02 0C4B     		ldr	r3, .L164
 2175 0b04 1340     		ands	r3, r3, r2
 2176              		.loc 5 981 0
 2177 0b06 002B     		cmp	r3, #0
 2178 0b08 0BD1     		bne	.L160
 2179              		.loc 5 990 0
 2180 0b0a 0398     		ldr	r0, [sp, #12]
 2181 0b0c FFF7FEFF 		bl	_sdc_wait_for_transfer_state
 2182 0b10 0346     		mov	r3, r0
 2183 0b12 002B     		cmp	r3, #0
 2184 0b14 00D0     		beq	.L161
 2185              		.loc 5 991 0
 2186 0b16 04E0     		b	.L160
 2187              	.L161:
 2188              		.loc 5 994 0
 2189 0b18 039B     		ldr	r3, [sp, #12]
 2190 0b1a 0522     		movs	r2, #5
 2191 0b1c 1A71     		strb	r2, [r3, #4]
 2192              		.loc 5 995 0
 2193 0b1e 0023     		movs	r3, #0
 2194 0b20 03E0     		b	.L163
 2195              	.L160:
 2196              		.loc 5 998 0
 2197 0b22 039B     		ldr	r3, [sp, #12]
 2198 0b24 0522     		movs	r2, #5
 2199 0b26 1A71     		strb	r2, [r3, #4]
 2200              		.loc 5 999 0
ARM GAS  /tmp/cc8LUYoB.s 			page 40


 2201 0b28 0123     		movs	r3, #1
 2202              	.L163:
 2203              		.loc 5 1000 0
 2204 0b2a 1846     		mov	r0, r3
 2205 0b2c 07B0     		add	sp, sp, #28
 2206              		@ sp needed
 2207 0b2e 5DF804FB 		ldr	pc, [sp], #4
 2208              	.L165:
 2209 0b32 00BF     		.align	2
 2210              	.L164:
 2211 0b34 08E0FFFD 		.word	-33562616
 2212              		.cfi_endproc
 2213              	.LFE291:
 2214              		.size	sdcErase, .-sdcErase
 2215              	.Letext0:
 2216              		.file 6 "/nfs/nfs5/home/research/hardware/arm2/gcc-arm-embedded/gcc-arm-none-eabi-4_8-2014q2/lib/g
 2217              		.file 7 "/nfs/nfs5/home/research/hardware/arm2/gcc-arm-embedded/gcc-arm-none-eabi-4_8-2014q2/arm-n
 2218              		.file 8 "/nfs/nfs5/home/research/hardware/arm2/gcc-arm-embedded/gcc-arm-none-eabi-4_8-2014q2/arm-n
 2219              		.file 9 "../../ChibiOS/os/rt/ports/ARMCMx/compilers/GCC/chtypes.h"
 2220              		.file 10 "../../ChibiOS/os/rt/include/chsystypes.h"
 2221              		.file 11 "../../ChibiOS/os/rt/include/chschd.h"
 2222              		.file 12 "../../ChibiOS/os/ext/CMSIS/ST/STM32L4xx/stm32l476xx.h"
 2223              		.file 13 "../../ChibiOS/os/rt/ports/ARMCMx/chcore.h"
 2224              		.file 14 "../../ChibiOS/os/rt/include/chtm.h"
 2225              		.file 15 "../../ChibiOS/os/rt/include/chsem.h"
 2226              		.file 16 "../../ChibiOS/os/rt/include/chmtx.h"
 2227              		.file 17 "../../ChibiOS/os/hal/ports/STM32/LLD/DMAv1/stm32_dma.h"
 2228              		.file 18 "../../ChibiOS/os/hal/include/hal_ioblock.h"
 2229              		.file 19 "../../ChibiOS/os/hal/include/sdc.h"
 2230              		.file 20 "../../ChibiOS/os/hal/ports/STM32/LLD/SDMMCv1/sdc_lld.h"
 2231              		.file 21 "../../ChibiOS/os/ext/CMSIS/include/core_cm4.h"