ARM GAS  /tmp/ccopSXgi.s 			page 1


   1              		.syntax unified
   2              		.cpu cortex-m4
   3              		.fpu softvfp
   4              		.eabi_attribute 20, 1
   5              		.eabi_attribute 21, 1
   6              		.eabi_attribute 23, 3
   7              		.eabi_attribute 24, 1
   8              		.eabi_attribute 25, 1
   9              		.eabi_attribute 26, 1
  10              		.eabi_attribute 30, 6
  11              		.eabi_attribute 34, 1
  12              		.eabi_attribute 18, 4
  13              		.thumb
  14              		.file	"SensorTile.c"
  15              		.text
  16              	.Ltext0:
  17              		.cfi_sections	.debug_frame
  18              		.align	2
  19              		.p2align 4,,15
  20              		.global	Sensor_IO_SPI_Write
  21              		.thumb
  22              		.thumb_func
  23              		.type	Sensor_IO_SPI_Write, %function
  24              	Sensor_IO_SPI_Write:
  25              	.LFB267:
  26              		.file 1 "BSP/SensorTile/SensorTile.c"
  27              		.loc 1 14 0
  28              		.cfi_startproc
  29              		@ args = 4, pretend = 0, frame = 24
  30              		@ frame_needed = 0, uses_anonymous_args = 0
  31 0000 00B5     		push	{lr}
  32              		.cfi_def_cfa_offset 4
  33              		.cfi_offset 14, -4
  34 0002 87B0     		sub	sp, sp, #28
  35              		.cfi_def_cfa_offset 32
  36 0004 0390     		str	r0, [sp, #12]
  37 0006 0291     		str	r1, [sp, #8]
  38 0008 0093     		str	r3, [sp]
  39 000a 1346     		mov	r3, r2
  40 000c 8DF80730 		strb	r3, [sp, #7]
  41              		.loc 1 17 0
  42 0010 BDF82030 		ldrh	r3, [sp, #32]
  43 0014 012B     		cmp	r3, #1
  44 0016 05D9     		bls	.L2
  45              		.loc 1 18 0
  46 0018 9DF80730 		ldrb	r3, [sp, #7]
  47 001c 43F04003 		orr	r3, r3, #64
  48 0020 8DF80730 		strb	r3, [sp, #7]
  49              	.L2:
  50              		.loc 1 20 0
  51 0024 9DF80730 		ldrb	r3, [sp, #7]
  52 0028 03F07F03 		and	r3, r3, #127
  53 002c 8DF80730 		strb	r3, [sp, #7]
  54              		.loc 1 21 0
  55 0030 0398     		ldr	r0, [sp, #12]
  56 0032 FFF7FEFF 		bl	spiAcquireBus
  57              		.loc 1 22 0
ARM GAS  /tmp/ccopSXgi.s 			page 2


  58 0036 0398     		ldr	r0, [sp, #12]
  59 0038 0299     		ldr	r1, [sp, #8]
  60 003a FFF7FEFF 		bl	spiStart
  61              		.loc 1 23 0
  62 003e 039B     		ldr	r3, [sp, #12]
  63 0040 DB69     		ldr	r3, [r3, #28]
  64 0042 039A     		ldr	r2, [sp, #12]
  65 0044 D269     		ldr	r2, [r2, #28]
  66 0046 5268     		ldr	r2, [r2, #4]
  67 0048 22F00302 		bic	r2, r2, #3
  68 004c 5A60     		str	r2, [r3, #4]
  69              		.loc 1 24 0
  70 004e 039B     		ldr	r3, [sp, #12]
  71 0050 DB69     		ldr	r3, [r3, #28]
  72 0052 039A     		ldr	r2, [sp, #12]
  73 0054 D269     		ldr	r2, [r2, #28]
  74 0056 1268     		ldr	r2, [r2]
  75 0058 42F04002 		orr	r2, r2, #64
  76 005c 1A60     		str	r2, [r3]
  77              		.loc 1 25 0
  78 005e 039B     		ldr	r3, [sp, #12]
  79 0060 DB69     		ldr	r3, [r3, #28]
  80 0062 039A     		ldr	r2, [sp, #12]
  81 0064 D269     		ldr	r2, [r2, #28]
  82 0066 1268     		ldr	r2, [r2]
  83 0068 42F48042 		orr	r2, r2, #16384
  84 006c 1A60     		str	r2, [r3]
  85              		.loc 1 26 0
  86 006e 0398     		ldr	r0, [sp, #12]
  87 0070 FFF7FEFF 		bl	spiSelect
  88              		.loc 1 27 0
  89 0074 9DF80730 		ldrb	r3, [sp, #7]	@ zero_extendqisi2
  90 0078 0398     		ldr	r0, [sp, #12]
  91 007a 1946     		mov	r1, r3
  92 007c FFF7FEFF 		bl	spi_lld_polled_tx
  93              		.loc 1 28 0
  94 0080 0023     		movs	r3, #0
  95 0082 0593     		str	r3, [sp, #20]
  96 0084 0AE0     		b	.L3
  97              	.L4:
  98              		.loc 1 29 0 discriminator 2
  99 0086 009B     		ldr	r3, [sp]
 100 0088 5A1C     		adds	r2, r3, #1
 101 008a 0092     		str	r2, [sp]
 102 008c 1B78     		ldrb	r3, [r3]	@ zero_extendqisi2
 103 008e 0398     		ldr	r0, [sp, #12]
 104 0090 1946     		mov	r1, r3
 105 0092 FFF7FEFF 		bl	spi_lld_polled_tx
 106              		.loc 1 28 0 discriminator 2
 107 0096 059B     		ldr	r3, [sp, #20]
 108 0098 0133     		adds	r3, r3, #1
 109 009a 0593     		str	r3, [sp, #20]
 110              	.L3:
 111              		.loc 1 28 0 is_stmt 0 discriminator 1
 112 009c BDF82020 		ldrh	r2, [sp, #32]
 113 00a0 059B     		ldr	r3, [sp, #20]
 114 00a2 9A42     		cmp	r2, r3
ARM GAS  /tmp/ccopSXgi.s 			page 3


 115 00a4 EFDC     		bgt	.L4
 116              		.loc 1 31 0 is_stmt 1
 117 00a6 0398     		ldr	r0, [sp, #12]
 118 00a8 FFF7FEFF 		bl	spiUnselect
 119              		.loc 1 32 0
 120 00ac 0398     		ldr	r0, [sp, #12]
 121 00ae FFF7FEFF 		bl	spiReleaseBus
 122              		.loc 1 33 0
 123 00b2 0023     		movs	r3, #0
 124              		.loc 1 34 0
 125 00b4 1846     		mov	r0, r3
 126 00b6 07B0     		add	sp, sp, #28
 127              		@ sp needed
 128 00b8 5DF804FB 		ldr	pc, [sp], #4
 129              		.cfi_endproc
 130              	.LFE267:
 131              		.size	Sensor_IO_SPI_Write, .-Sensor_IO_SPI_Write
 132              		.align	2
 133 00bc AFF30080 		.p2align 4,,15
 134              		.global	Sensor_IO_SPI_Read
 135              		.thumb
 136              		.thumb_func
 137              		.type	Sensor_IO_SPI_Read, %function
 138              	Sensor_IO_SPI_Read:
 139              	.LFB268:
 140              		.loc 1 36 0
 141              		.cfi_startproc
 142              		@ args = 4, pretend = 0, frame = 24
 143              		@ frame_needed = 0, uses_anonymous_args = 0
 144 00c0 10B5     		push	{r4, lr}
 145              		.cfi_def_cfa_offset 8
 146              		.cfi_offset 4, -8
 147              		.cfi_offset 14, -4
 148 00c2 86B0     		sub	sp, sp, #24
 149              		.cfi_def_cfa_offset 32
 150 00c4 0390     		str	r0, [sp, #12]
 151 00c6 0291     		str	r1, [sp, #8]
 152 00c8 0093     		str	r3, [sp]
 153 00ca 1346     		mov	r3, r2
 154 00cc 8DF80730 		strb	r3, [sp, #7]
 155              		.loc 1 38 0
 156 00d0 BDF82030 		ldrh	r3, [sp, #32]
 157 00d4 012B     		cmp	r3, #1
 158 00d6 05D9     		bls	.L7
 159              		.loc 1 39 0
 160 00d8 9DF80730 		ldrb	r3, [sp, #7]
 161 00dc 43F04003 		orr	r3, r3, #64
 162 00e0 8DF80730 		strb	r3, [sp, #7]
 163              	.L7:
 164              		.loc 1 41 0
 165 00e4 9DF80730 		ldrb	r3, [sp, #7]
 166 00e8 63F07F03 		orn	r3, r3, #127
 167 00ec 8DF80730 		strb	r3, [sp, #7]
 168              		.loc 1 42 0
 169 00f0 0398     		ldr	r0, [sp, #12]
 170 00f2 FFF7FEFF 		bl	spiAcquireBus
 171              		.loc 1 43 0
ARM GAS  /tmp/ccopSXgi.s 			page 4


 172 00f6 0398     		ldr	r0, [sp, #12]
 173 00f8 0299     		ldr	r1, [sp, #8]
 174 00fa FFF7FEFF 		bl	spiStart
 175              		.loc 1 44 0
 176 00fe 039B     		ldr	r3, [sp, #12]
 177 0100 DB69     		ldr	r3, [r3, #28]
 178 0102 039A     		ldr	r2, [sp, #12]
 179 0104 D269     		ldr	r2, [r2, #28]
 180 0106 5268     		ldr	r2, [r2, #4]
 181 0108 22F00302 		bic	r2, r2, #3
 182 010c 5A60     		str	r2, [r3, #4]
 183              		.loc 1 45 0
 184 010e 039B     		ldr	r3, [sp, #12]
 185 0110 DB69     		ldr	r3, [r3, #28]
 186 0112 039A     		ldr	r2, [sp, #12]
 187 0114 D269     		ldr	r2, [r2, #28]
 188 0116 1268     		ldr	r2, [r2]
 189 0118 42F04002 		orr	r2, r2, #64
 190 011c 1A60     		str	r2, [r3]
 191              		.loc 1 46 0
 192 011e 0398     		ldr	r0, [sp, #12]
 193 0120 FFF7FEFF 		bl	spiSelect
 194              		.loc 1 47 0
 195 0124 9DF80730 		ldrb	r3, [sp, #7]	@ zero_extendqisi2
 196 0128 0398     		ldr	r0, [sp, #12]
 197 012a 1946     		mov	r1, r3
 198 012c FFF7FEFF 		bl	spi_lld_polled_tx
 199              		.loc 1 48 0
 200 0130 039B     		ldr	r3, [sp, #12]
 201 0132 DB69     		ldr	r3, [r3, #28]
 202 0134 039A     		ldr	r2, [sp, #12]
 203 0136 D269     		ldr	r2, [r2, #28]
 204 0138 1268     		ldr	r2, [r2]
 205 013a 22F04002 		bic	r2, r2, #64
 206 013e 1A60     		str	r2, [r3]
 207              		.loc 1 49 0
 208 0140 039B     		ldr	r3, [sp, #12]
 209 0142 DB69     		ldr	r3, [r3, #28]
 210 0144 039A     		ldr	r2, [sp, #12]
 211 0146 D269     		ldr	r2, [r2, #28]
 212 0148 1268     		ldr	r2, [r2]
 213 014a 22F48042 		bic	r2, r2, #16384
 214 014e 1A60     		str	r2, [r3]
 215              		.loc 1 50 0
 216 0150 0023     		movs	r3, #0
 217 0152 0593     		str	r3, [sp, #20]
 218 0154 0BE0     		b	.L8
 219              	.L9:
 220              		.loc 1 51 0 discriminator 2
 221 0156 009C     		ldr	r4, [sp]
 222 0158 631C     		adds	r3, r4, #1
 223 015a 0093     		str	r3, [sp]
 224 015c 0398     		ldr	r0, [sp, #12]
 225 015e FFF7FEFF 		bl	spi_lld_polled_rx
 226 0162 0346     		mov	r3, r0
 227 0164 DBB2     		uxtb	r3, r3
 228 0166 2370     		strb	r3, [r4]
ARM GAS  /tmp/ccopSXgi.s 			page 5


 229              		.loc 1 50 0 discriminator 2
 230 0168 059B     		ldr	r3, [sp, #20]
 231 016a 0133     		adds	r3, r3, #1
 232 016c 0593     		str	r3, [sp, #20]
 233              	.L8:
 234              		.loc 1 50 0 is_stmt 0 discriminator 1
 235 016e BDF82020 		ldrh	r2, [sp, #32]
 236 0172 059B     		ldr	r3, [sp, #20]
 237 0174 9A42     		cmp	r2, r3
 238 0176 EEDC     		bgt	.L9
 239              		.loc 1 53 0 is_stmt 1
 240 0178 0398     		ldr	r0, [sp, #12]
 241 017a FFF7FEFF 		bl	spiUnselect
 242              		.loc 1 54 0
 243 017e 039B     		ldr	r3, [sp, #12]
 244 0180 DB69     		ldr	r3, [r3, #28]
 245 0182 039A     		ldr	r2, [sp, #12]
 246 0184 D269     		ldr	r2, [r2, #28]
 247 0186 1268     		ldr	r2, [r2]
 248 0188 42F48042 		orr	r2, r2, #16384
 249 018c 1A60     		str	r2, [r3]
 250              		.loc 1 55 0
 251 018e 0398     		ldr	r0, [sp, #12]
 252 0190 FFF7FEFF 		bl	spiReleaseBus
 253              		.loc 1 56 0
 254 0194 0023     		movs	r3, #0
 255              		.loc 1 57 0
 256 0196 1846     		mov	r0, r3
 257 0198 06B0     		add	sp, sp, #24
 258              		@ sp needed
 259 019a 10BD     		pop	{r4, pc}
 260              		.cfi_endproc
 261              	.LFE268:
 262              		.size	Sensor_IO_SPI_Read, .-Sensor_IO_SPI_Read
 263              	.Letext0:
 264              		.file 2 "/nfs/nfs5/home/research/hardware/arm2/gcc-arm-embedded/gcc-arm-none-eabi-4_8-2014q2/arm-n
 265              		.file 3 "/nfs/nfs5/home/research/hardware/arm2/gcc-arm-embedded/gcc-arm-none-eabi-4_8-2014q2/arm-n
 266              		.file 4 "../../ChibiOS/os/rt/ports/ARMCMx/compilers/GCC/chtypes.h"
 267              		.file 5 "../../ChibiOS/os/rt/include/chsystypes.h"
 268              		.file 6 "../../ChibiOS/os/rt/include/chschd.h"
 269              		.file 7 "../../ChibiOS/os/ext/CMSIS/ST/STM32L4xx/stm32l476xx.h"
 270              		.file 8 "../../ChibiOS/os/rt/ports/ARMCMx/chcore.h"
 271              		.file 9 "../../ChibiOS/os/rt/ports/ARMCMx/chcore_v7m.h"
 272              		.file 10 "../../ChibiOS/os/rt/include/chtm.h"
 273              		.file 11 "../../ChibiOS/os/rt/include/chsem.h"
 274              		.file 12 "../../ChibiOS/os/rt/include/chmtx.h"
 275              		.file 13 "../../ChibiOS/os/hal/ports/STM32/LLD/DMAv1/stm32_dma.h"
 276              		.file 14 "../../ChibiOS/os/hal/ports/STM32/LLD/GPIOv3/pal_lld.h"
 277              		.file 15 "../../ChibiOS/os/hal/include/spi.h"
 278              		.file 16 "../../ChibiOS/os/hal/ports/STM32/LLD/SPIv2/spi_lld.h"
 279              		.file 17 "../../ChibiOS/os/ext/CMSIS/include/core_cm4.h"