ARM GAS  /tmp/ccOBP60G.s 			page 1


   1              		.syntax unified
   2              		.cpu cortex-m4
   3              		.fpu softvfp
   4              		.eabi_attribute 20, 1
   5              		.eabi_attribute 21, 1
   6              		.eabi_attribute 23, 3
   7              		.eabi_attribute 24, 1
   8              		.eabi_attribute 25, 1
   9              		.eabi_attribute 26, 1
  10              		.eabi_attribute 30, 6
  11              		.eabi_attribute 34, 1
  12              		.eabi_attribute 18, 4
  13              		.thumb
  14              		.file	"serial.c"
  15              		.text
  16              	.Ltext0:
  17              		.cfi_sections	.debug_frame
  18              		.align	2
  19              		.p2align 4,,15
  20              		.thumb
  21              		.thumb_func
  22              		.type	port_lock, %function
  23              	port_lock:
  24              	.LFB127:
  25              		.file 1 "../../ChibiOS/os/rt/ports/ARMCMx/chcore_v7m.h"
  26              		.loc 1 456 0
  27              		.cfi_startproc
  28              		@ args = 0, pretend = 0, frame = 8
  29              		@ frame_needed = 0, uses_anonymous_args = 0
  30              		@ link register save eliminated.
  31 0000 82B0     		sub	sp, sp, #8
  32              		.cfi_def_cfa_offset 8
  33 0002 2023     		movs	r3, #32
  34 0004 0193     		str	r3, [sp, #4]
  35              	.LBB6:
  36              	.LBB7:
  37              		.file 2 "../../ChibiOS/os/ext/CMSIS/include/core_cmFunc.h"
  38              		.loc 2 548 0
  39 0006 019B     		ldr	r3, [sp, #4]
  40              	@ 548 "../../ChibiOS/os/ext/CMSIS/include/core_cmFunc.h" 1
  41 0008 83F31188 		MSR basepri, r3
  42              	@ 0 "" 2
  43              		.thumb
  44              	.LBE7:
  45              	.LBE6:
  46              		.loc 1 473 0
  47 000c 02B0     		add	sp, sp, #8
  48              		@ sp needed
  49 000e 7047     		bx	lr
  50              		.cfi_endproc
  51              	.LFE127:
  52              		.size	port_lock, .-port_lock
  53              		.align	2
  54              		.p2align 4,,15
  55              		.thumb
  56              		.thumb_func
  57              		.type	port_unlock, %function
ARM GAS  /tmp/ccOBP60G.s 			page 2


  58              	port_unlock:
  59              	.LFB128:
  60              		.loc 1 480 0
  61              		.cfi_startproc
  62              		@ args = 0, pretend = 0, frame = 8
  63              		@ frame_needed = 0, uses_anonymous_args = 0
  64              		@ link register save eliminated.
  65 0010 82B0     		sub	sp, sp, #8
  66              		.cfi_def_cfa_offset 8
  67 0012 0023     		movs	r3, #0
  68 0014 0193     		str	r3, [sp, #4]
  69              	.LBB8:
  70              	.LBB9:
  71              		.loc 2 548 0
  72 0016 019B     		ldr	r3, [sp, #4]
  73              	@ 548 "../../ChibiOS/os/ext/CMSIS/include/core_cmFunc.h" 1
  74 0018 83F31188 		MSR basepri, r3
  75              	@ 0 "" 2
  76              		.thumb
  77              	.LBE9:
  78              	.LBE8:
  79              		.loc 1 487 0
  80 001c 02B0     		add	sp, sp, #8
  81              		@ sp needed
  82 001e 7047     		bx	lr
  83              		.cfi_endproc
  84              	.LFE128:
  85              		.size	port_unlock, .-port_unlock
  86              		.align	2
  87              		.p2align 4,,15
  88              		.thumb
  89              		.thumb_func
  90              		.type	chSysLock, %function
  91              	chSysLock:
  92              	.LFB156:
  93              		.file 3 "../../ChibiOS/os/rt/include/chsys.h"
  94              		.loc 3 346 0
  95              		.cfi_startproc
  96              		@ args = 0, pretend = 0, frame = 0
  97              		@ frame_needed = 0, uses_anonymous_args = 0
  98 0020 08B5     		push	{r3, lr}
  99              		.cfi_def_cfa_offset 8
 100              		.cfi_offset 3, -8
 101              		.cfi_offset 14, -4
 102              		.loc 3 348 0
 103 0022 FFF7EDFF 		bl	port_lock
 104              		.loc 3 351 0
 105 0026 08BD     		pop	{r3, pc}
 106              		.cfi_endproc
 107              	.LFE156:
 108              		.size	chSysLock, .-chSysLock
 109              		.align	2
 110 0028 AFF30080 		.p2align 4,,15
 110      AFF30080 
 111              		.thumb
 112              		.thumb_func
 113              		.type	chSysUnlock, %function
ARM GAS  /tmp/ccOBP60G.s 			page 3


 114              	chSysUnlock:
 115              	.LFB157:
 116              		.loc 3 358 0
 117              		.cfi_startproc
 118              		@ args = 0, pretend = 0, frame = 0
 119              		@ frame_needed = 0, uses_anonymous_args = 0
 120 0030 08B5     		push	{r3, lr}
 121              		.cfi_def_cfa_offset 8
 122              		.cfi_offset 3, -8
 123              		.cfi_offset 14, -4
 124              		.loc 3 371 0
 125 0032 FFF7EDFF 		bl	port_unlock
 126              		.loc 3 372 0
 127 0036 08BD     		pop	{r3, pc}
 128              		.cfi_endproc
 129              	.LFE157:
 130              		.size	chSysUnlock, .-chSysUnlock
 131              		.align	2
 132 0038 AFF30080 		.p2align 4,,15
 132      AFF30080 
 133              		.thumb
 134              		.thumb_func
 135              		.type	chEvtObjectInit, %function
 136              	chEvtObjectInit:
 137              	.LFB205:
 138              		.file 4 "../../ChibiOS/os/rt/include/chevents.h"
 139              		.loc 4 170 0
 140              		.cfi_startproc
 141              		@ args = 0, pretend = 0, frame = 8
 142              		@ frame_needed = 0, uses_anonymous_args = 0
 143              		@ link register save eliminated.
 144 0040 82B0     		sub	sp, sp, #8
 145              		.cfi_def_cfa_offset 8
 146 0042 0190     		str	r0, [sp, #4]
 147              		.loc 4 172 0
 148 0044 019B     		ldr	r3, [sp, #4]
 149 0046 019A     		ldr	r2, [sp, #4]
 150 0048 1A60     		str	r2, [r3]
 151              		.loc 4 173 0
 152 004a 02B0     		add	sp, sp, #8
 153              		@ sp needed
 154 004c 7047     		bx	lr
 155              		.cfi_endproc
 156              	.LFE205:
 157              		.size	chEvtObjectInit, .-chEvtObjectInit
 158 004e 00BF     		.align	2
 159              		.p2align 4,,15
 160              		.thumb
 161              		.thumb_func
 162              		.type	chIQIsEmptyI, %function
 163              	chIQIsEmptyI:
 164              	.LFB222:
 165              		.file 5 "../../ChibiOS/os/rt/include/chqueues.h"
 166              		.loc 5 303 0
 167              		.cfi_startproc
 168              		@ args = 0, pretend = 0, frame = 8
 169              		@ frame_needed = 0, uses_anonymous_args = 0
ARM GAS  /tmp/ccOBP60G.s 			page 4


 170              		@ link register save eliminated.
 171 0050 82B0     		sub	sp, sp, #8
 172              		.cfi_def_cfa_offset 8
 173 0052 0190     		str	r0, [sp, #4]
 174              		.loc 5 307 0
 175 0054 019B     		ldr	r3, [sp, #4]
 176 0056 9B68     		ldr	r3, [r3, #8]
 177 0058 002B     		cmp	r3, #0
 178 005a 14BF     		ite	ne
 179 005c 0023     		movne	r3, #0
 180 005e 0123     		moveq	r3, #1
 181 0060 DBB2     		uxtb	r3, r3
 182              		.loc 5 308 0
 183 0062 1846     		mov	r0, r3
 184 0064 02B0     		add	sp, sp, #8
 185              		@ sp needed
 186 0066 7047     		bx	lr
 187              		.cfi_endproc
 188              	.LFE222:
 189              		.size	chIQIsEmptyI, .-chIQIsEmptyI
 190              		.align	2
 191 0068 AFF30080 		.p2align 4,,15
 191      AFF30080 
 192              		.thumb
 193              		.thumb_func
 194              		.type	chOQIsFullI, %function
 195              	chOQIsFullI:
 196              	.LFB228:
 197              		.loc 5 407 0
 198              		.cfi_startproc
 199              		@ args = 0, pretend = 0, frame = 8
 200              		@ frame_needed = 0, uses_anonymous_args = 0
 201              		@ link register save eliminated.
 202 0070 82B0     		sub	sp, sp, #8
 203              		.cfi_def_cfa_offset 8
 204 0072 0190     		str	r0, [sp, #4]
 205              		.loc 5 411 0
 206 0074 019B     		ldr	r3, [sp, #4]
 207 0076 9B68     		ldr	r3, [r3, #8]
 208 0078 002B     		cmp	r3, #0
 209 007a 14BF     		ite	ne
 210 007c 0023     		movne	r3, #0
 211 007e 0123     		moveq	r3, #1
 212 0080 DBB2     		uxtb	r3, r3
 213              		.loc 5 412 0
 214 0082 1846     		mov	r0, r3
 215 0084 02B0     		add	sp, sp, #8
 216              		@ sp needed
 217 0086 7047     		bx	lr
 218              		.cfi_endproc
 219              	.LFE228:
 220              		.size	chOQIsFullI, .-chOQIsFullI
 221              		.align	2
 222 0088 AFF30080 		.p2align 4,,15
 222      AFF30080 
 223              		.thumb
 224              		.thumb_func
ARM GAS  /tmp/ccOBP60G.s 			page 5


 225              		.type	osalSysLock, %function
 226              	osalSysLock:
 227              	.LFB234:
 228              		.file 6 "../../ChibiOS/os/hal/osal/rt/osal.h"
 229              		.loc 6 491 0
 230              		.cfi_startproc
 231              		@ args = 0, pretend = 0, frame = 0
 232              		@ frame_needed = 0, uses_anonymous_args = 0
 233 0090 08B5     		push	{r3, lr}
 234              		.cfi_def_cfa_offset 8
 235              		.cfi_offset 3, -8
 236              		.cfi_offset 14, -4
 237              		.loc 6 493 0
 238 0092 FFF7C5FF 		bl	chSysLock
 239              		.loc 6 494 0
 240 0096 08BD     		pop	{r3, pc}
 241              		.cfi_endproc
 242              	.LFE234:
 243              		.size	osalSysLock, .-osalSysLock
 244              		.align	2
 245 0098 AFF30080 		.p2align 4,,15
 245      AFF30080 
 246              		.thumb
 247              		.thumb_func
 248              		.type	osalSysUnlock, %function
 249              	osalSysUnlock:
 250              	.LFB235:
 251              		.loc 6 502 0
 252              		.cfi_startproc
 253              		@ args = 0, pretend = 0, frame = 0
 254              		@ frame_needed = 0, uses_anonymous_args = 0
 255 00a0 08B5     		push	{r3, lr}
 256              		.cfi_def_cfa_offset 8
 257              		.cfi_offset 3, -8
 258              		.cfi_offset 14, -4
 259              		.loc 6 504 0
 260 00a2 FFF7C5FF 		bl	chSysUnlock
 261              		.loc 6 505 0
 262 00a6 08BD     		pop	{r3, pc}
 263              		.cfi_endproc
 264              	.LFE235:
 265              		.size	osalSysUnlock, .-osalSysUnlock
 266              		.align	2
 267 00a8 AFF30080 		.p2align 4,,15
 267      AFF30080 
 268              		.thumb
 269              		.thumb_func
 270              		.type	osalOsRescheduleS, %function
 271              	osalOsRescheduleS:
 272              	.LFB242:
 273              		.loc 6 598 0
 274              		.cfi_startproc
 275              		@ args = 0, pretend = 0, frame = 0
 276              		@ frame_needed = 0, uses_anonymous_args = 0
 277 00b0 08B5     		push	{r3, lr}
 278              		.cfi_def_cfa_offset 8
 279              		.cfi_offset 3, -8
ARM GAS  /tmp/ccOBP60G.s 			page 6


 280              		.cfi_offset 14, -4
 281              		.loc 6 600 0
 282 00b2 FFF7FEFF 		bl	chSchRescheduleS
 283              		.loc 6 601 0
 284 00b6 08BD     		pop	{r3, pc}
 285              		.cfi_endproc
 286              	.LFE242:
 287              		.size	osalOsRescheduleS, .-osalOsRescheduleS
 288              		.align	2
 289 00b8 AFF30080 		.p2align 4,,15
 289      AFF30080 
 290              		.thumb
 291              		.thumb_func
 292              		.type	osalEventObjectInit, %function
 293              	osalEventObjectInit:
 294              	.LFB255:
 295              		.loc 6 821 0
 296              		.cfi_startproc
 297              		@ args = 0, pretend = 0, frame = 8
 298              		@ frame_needed = 0, uses_anonymous_args = 0
 299 00c0 00B5     		push	{lr}
 300              		.cfi_def_cfa_offset 4
 301              		.cfi_offset 14, -4
 302 00c2 83B0     		sub	sp, sp, #12
 303              		.cfi_def_cfa_offset 16
 304 00c4 0190     		str	r0, [sp, #4]
 305              		.loc 6 823 0
 306 00c6 0198     		ldr	r0, [sp, #4]
 307 00c8 FFF7BAFF 		bl	chEvtObjectInit
 308              		.loc 6 824 0
 309 00cc 03B0     		add	sp, sp, #12
 310              		@ sp needed
 311 00ce 5DF804FB 		ldr	pc, [sp], #4
 312              		.cfi_endproc
 313              	.LFE255:
 314              		.size	osalEventObjectInit, .-osalEventObjectInit
 315 00d2 00BF     		.align	2
 316 00d4 AFF30080 		.p2align 4,,15
 316      AFF30080 
 316      AFF30080 
 317              		.thumb
 318              		.thumb_func
 319              		.type	osalEventBroadcastFlagsI, %function
 320              	osalEventBroadcastFlagsI:
 321              	.LFB256:
 322              		.loc 6 842 0
 323              		.cfi_startproc
 324              		@ args = 0, pretend = 0, frame = 8
 325              		@ frame_needed = 0, uses_anonymous_args = 0
 326 00e0 00B5     		push	{lr}
 327              		.cfi_def_cfa_offset 4
 328              		.cfi_offset 14, -4
 329 00e2 83B0     		sub	sp, sp, #12
 330              		.cfi_def_cfa_offset 16
 331 00e4 0190     		str	r0, [sp, #4]
 332 00e6 0091     		str	r1, [sp]
 333              		.loc 6 844 0
ARM GAS  /tmp/ccOBP60G.s 			page 7


 334 00e8 0198     		ldr	r0, [sp, #4]
 335 00ea 0099     		ldr	r1, [sp]
 336 00ec FFF7FEFF 		bl	chEvtBroadcastFlagsI
 337              		.loc 6 845 0
 338 00f0 03B0     		add	sp, sp, #12
 339              		@ sp needed
 340 00f2 5DF804FB 		ldr	pc, [sp], #4
 341              		.cfi_endproc
 342              	.LFE256:
 343              		.size	osalEventBroadcastFlagsI, .-osalEventBroadcastFlagsI
 344 00f6 00BF     		.align	2
 345 00f8 AFF30080 		.p2align 4,,15
 345      AFF30080 
 346              		.thumb
 347              		.thumb_func
 348              		.type	write, %function
 349              	write:
 350              	.LFB267:
 351              		.file 7 "../../ChibiOS/os/hal/src/serial.c"
 352              		.loc 7 50 0
 353              		.cfi_startproc
 354              		@ args = 0, pretend = 0, frame = 16
 355              		@ frame_needed = 0, uses_anonymous_args = 0
 356 0100 00B5     		push	{lr}
 357              		.cfi_def_cfa_offset 4
 358              		.cfi_offset 14, -4
 359 0102 85B0     		sub	sp, sp, #20
 360              		.cfi_def_cfa_offset 24
 361 0104 0390     		str	r0, [sp, #12]
 362 0106 0291     		str	r1, [sp, #8]
 363 0108 0192     		str	r2, [sp, #4]
 364              		.loc 7 52 0
 365 010a 039B     		ldr	r3, [sp, #12]
 366 010c 3033     		adds	r3, r3, #48
 367 010e 1846     		mov	r0, r3
 368 0110 0299     		ldr	r1, [sp, #8]
 369 0112 019A     		ldr	r2, [sp, #4]
 370 0114 4FF0FF33 		mov	r3, #-1
 371 0118 FFF7FEFF 		bl	chOQWriteTimeout
 372 011c 0346     		mov	r3, r0
 373              		.loc 7 54 0
 374 011e 1846     		mov	r0, r3
 375 0120 05B0     		add	sp, sp, #20
 376              		@ sp needed
 377 0122 5DF804FB 		ldr	pc, [sp], #4
 378              		.cfi_endproc
 379              	.LFE267:
 380              		.size	write, .-write
 381 0126 00BF     		.align	2
 382 0128 AFF30080 		.p2align 4,,15
 382      AFF30080 
 383              		.thumb
 384              		.thumb_func
 385              		.type	read, %function
 386              	read:
 387              	.LFB268:
 388              		.loc 7 56 0
ARM GAS  /tmp/ccOBP60G.s 			page 8


 389              		.cfi_startproc
 390              		@ args = 0, pretend = 0, frame = 16
 391              		@ frame_needed = 0, uses_anonymous_args = 0
 392 0130 00B5     		push	{lr}
 393              		.cfi_def_cfa_offset 4
 394              		.cfi_offset 14, -4
 395 0132 85B0     		sub	sp, sp, #20
 396              		.cfi_def_cfa_offset 24
 397 0134 0390     		str	r0, [sp, #12]
 398 0136 0291     		str	r1, [sp, #8]
 399 0138 0192     		str	r2, [sp, #4]
 400              		.loc 7 58 0
 401 013a 039B     		ldr	r3, [sp, #12]
 402 013c 0C33     		adds	r3, r3, #12
 403 013e 1846     		mov	r0, r3
 404 0140 0299     		ldr	r1, [sp, #8]
 405 0142 019A     		ldr	r2, [sp, #4]
 406 0144 4FF0FF33 		mov	r3, #-1
 407 0148 FFF7FEFF 		bl	chIQReadTimeout
 408 014c 0346     		mov	r3, r0
 409              		.loc 7 60 0
 410 014e 1846     		mov	r0, r3
 411 0150 05B0     		add	sp, sp, #20
 412              		@ sp needed
 413 0152 5DF804FB 		ldr	pc, [sp], #4
 414              		.cfi_endproc
 415              	.LFE268:
 416              		.size	read, .-read
 417 0156 00BF     		.align	2
 418 0158 AFF30080 		.p2align 4,,15
 418      AFF30080 
 419              		.thumb
 420              		.thumb_func
 421              		.type	put, %function
 422              	put:
 423              	.LFB269:
 424              		.loc 7 62 0
 425              		.cfi_startproc
 426              		@ args = 0, pretend = 0, frame = 8
 427              		@ frame_needed = 0, uses_anonymous_args = 0
 428 0160 00B5     		push	{lr}
 429              		.cfi_def_cfa_offset 4
 430              		.cfi_offset 14, -4
 431 0162 83B0     		sub	sp, sp, #12
 432              		.cfi_def_cfa_offset 16
 433 0164 0190     		str	r0, [sp, #4]
 434 0166 0B46     		mov	r3, r1
 435 0168 8DF80330 		strb	r3, [sp, #3]
 436              		.loc 7 64 0
 437 016c 019B     		ldr	r3, [sp, #4]
 438 016e 03F13002 		add	r2, r3, #48
 439 0172 9DF80330 		ldrb	r3, [sp, #3]	@ zero_extendqisi2
 440 0176 1046     		mov	r0, r2
 441 0178 1946     		mov	r1, r3
 442 017a 4FF0FF32 		mov	r2, #-1
 443 017e FFF7FEFF 		bl	chOQPutTimeout
 444 0182 0346     		mov	r3, r0
ARM GAS  /tmp/ccOBP60G.s 			page 9


 445              		.loc 7 65 0
 446 0184 1846     		mov	r0, r3
 447 0186 03B0     		add	sp, sp, #12
 448              		@ sp needed
 449 0188 5DF804FB 		ldr	pc, [sp], #4
 450              		.cfi_endproc
 451              	.LFE269:
 452              		.size	put, .-put
 453              		.align	2
 454 018c AFF30080 		.p2align 4,,15
 455              		.thumb
 456              		.thumb_func
 457              		.type	get, %function
 458              	get:
 459              	.LFB270:
 460              		.loc 7 67 0
 461              		.cfi_startproc
 462              		@ args = 0, pretend = 0, frame = 8
 463              		@ frame_needed = 0, uses_anonymous_args = 0
 464 0190 00B5     		push	{lr}
 465              		.cfi_def_cfa_offset 4
 466              		.cfi_offset 14, -4
 467 0192 83B0     		sub	sp, sp, #12
 468              		.cfi_def_cfa_offset 16
 469 0194 0190     		str	r0, [sp, #4]
 470              		.loc 7 69 0
 471 0196 019B     		ldr	r3, [sp, #4]
 472 0198 0C33     		adds	r3, r3, #12
 473 019a 1846     		mov	r0, r3
 474 019c 4FF0FF31 		mov	r1, #-1
 475 01a0 FFF7FEFF 		bl	chIQGetTimeout
 476 01a4 0346     		mov	r3, r0
 477              		.loc 7 70 0
 478 01a6 1846     		mov	r0, r3
 479 01a8 03B0     		add	sp, sp, #12
 480              		@ sp needed
 481 01aa 5DF804FB 		ldr	pc, [sp], #4
 482              		.cfi_endproc
 483              	.LFE270:
 484              		.size	get, .-get
 485 01ae 00BF     		.align	2
 486              		.p2align 4,,15
 487              		.thumb
 488              		.thumb_func
 489              		.type	putt, %function
 490              	putt:
 491              	.LFB271:
 492              		.loc 7 72 0
 493              		.cfi_startproc
 494              		@ args = 0, pretend = 0, frame = 16
 495              		@ frame_needed = 0, uses_anonymous_args = 0
 496 01b0 00B5     		push	{lr}
 497              		.cfi_def_cfa_offset 4
 498              		.cfi_offset 14, -4
 499 01b2 85B0     		sub	sp, sp, #20
 500              		.cfi_def_cfa_offset 24
 501 01b4 0390     		str	r0, [sp, #12]
ARM GAS  /tmp/ccOBP60G.s 			page 10


 502 01b6 0B46     		mov	r3, r1
 503 01b8 0192     		str	r2, [sp, #4]
 504 01ba 8DF80B30 		strb	r3, [sp, #11]
 505              		.loc 7 74 0
 506 01be 039B     		ldr	r3, [sp, #12]
 507 01c0 03F13002 		add	r2, r3, #48
 508 01c4 9DF80B30 		ldrb	r3, [sp, #11]	@ zero_extendqisi2
 509 01c8 1046     		mov	r0, r2
 510 01ca 1946     		mov	r1, r3
 511 01cc 019A     		ldr	r2, [sp, #4]
 512 01ce FFF7FEFF 		bl	chOQPutTimeout
 513 01d2 0346     		mov	r3, r0
 514              		.loc 7 75 0
 515 01d4 1846     		mov	r0, r3
 516 01d6 05B0     		add	sp, sp, #20
 517              		@ sp needed
 518 01d8 5DF804FB 		ldr	pc, [sp], #4
 519              		.cfi_endproc
 520              	.LFE271:
 521              		.size	putt, .-putt
 522              		.align	2
 523 01dc AFF30080 		.p2align 4,,15
 524              		.thumb
 525              		.thumb_func
 526              		.type	gett, %function
 527              	gett:
 528              	.LFB272:
 529              		.loc 7 77 0
 530              		.cfi_startproc
 531              		@ args = 0, pretend = 0, frame = 8
 532              		@ frame_needed = 0, uses_anonymous_args = 0
 533 01e0 00B5     		push	{lr}
 534              		.cfi_def_cfa_offset 4
 535              		.cfi_offset 14, -4
 536 01e2 83B0     		sub	sp, sp, #12
 537              		.cfi_def_cfa_offset 16
 538 01e4 0190     		str	r0, [sp, #4]
 539 01e6 0091     		str	r1, [sp]
 540              		.loc 7 79 0
 541 01e8 019B     		ldr	r3, [sp, #4]
 542 01ea 0C33     		adds	r3, r3, #12
 543 01ec 1846     		mov	r0, r3
 544 01ee 0099     		ldr	r1, [sp]
 545 01f0 FFF7FEFF 		bl	chIQGetTimeout
 546 01f4 0346     		mov	r3, r0
 547              		.loc 7 80 0
 548 01f6 1846     		mov	r0, r3
 549 01f8 03B0     		add	sp, sp, #12
 550              		@ sp needed
 551 01fa 5DF804FB 		ldr	pc, [sp], #4
 552              		.cfi_endproc
 553              	.LFE272:
 554              		.size	gett, .-gett
 555 01fe 00BF     		.align	2
 556              		.p2align 4,,15
 557              		.thumb
 558              		.thumb_func
ARM GAS  /tmp/ccOBP60G.s 			page 11


 559              		.type	writet, %function
 560              	writet:
 561              	.LFB273:
 562              		.loc 7 82 0
 563              		.cfi_startproc
 564              		@ args = 0, pretend = 0, frame = 16
 565              		@ frame_needed = 0, uses_anonymous_args = 0
 566 0200 00B5     		push	{lr}
 567              		.cfi_def_cfa_offset 4
 568              		.cfi_offset 14, -4
 569 0202 85B0     		sub	sp, sp, #20
 570              		.cfi_def_cfa_offset 24
 571 0204 0390     		str	r0, [sp, #12]
 572 0206 0291     		str	r1, [sp, #8]
 573 0208 0192     		str	r2, [sp, #4]
 574 020a 0093     		str	r3, [sp]
 575              		.loc 7 84 0
 576 020c 039B     		ldr	r3, [sp, #12]
 577 020e 3033     		adds	r3, r3, #48
 578 0210 1846     		mov	r0, r3
 579 0212 0299     		ldr	r1, [sp, #8]
 580 0214 019A     		ldr	r2, [sp, #4]
 581 0216 009B     		ldr	r3, [sp]
 582 0218 FFF7FEFF 		bl	chOQWriteTimeout
 583 021c 0346     		mov	r3, r0
 584              		.loc 7 85 0
 585 021e 1846     		mov	r0, r3
 586 0220 05B0     		add	sp, sp, #20
 587              		@ sp needed
 588 0222 5DF804FB 		ldr	pc, [sp], #4
 589              		.cfi_endproc
 590              	.LFE273:
 591              		.size	writet, .-writet
 592 0226 00BF     		.align	2
 593 0228 AFF30080 		.p2align 4,,15
 593      AFF30080 
 594              		.thumb
 595              		.thumb_func
 596              		.type	readt, %function
 597              	readt:
 598              	.LFB274:
 599              		.loc 7 87 0
 600              		.cfi_startproc
 601              		@ args = 0, pretend = 0, frame = 16
 602              		@ frame_needed = 0, uses_anonymous_args = 0
 603 0230 00B5     		push	{lr}
 604              		.cfi_def_cfa_offset 4
 605              		.cfi_offset 14, -4
 606 0232 85B0     		sub	sp, sp, #20
 607              		.cfi_def_cfa_offset 24
 608 0234 0390     		str	r0, [sp, #12]
 609 0236 0291     		str	r1, [sp, #8]
 610 0238 0192     		str	r2, [sp, #4]
 611 023a 0093     		str	r3, [sp]
 612              		.loc 7 89 0
 613 023c 039B     		ldr	r3, [sp, #12]
 614 023e 0C33     		adds	r3, r3, #12
ARM GAS  /tmp/ccOBP60G.s 			page 12


 615 0240 1846     		mov	r0, r3
 616 0242 0299     		ldr	r1, [sp, #8]
 617 0244 019A     		ldr	r2, [sp, #4]
 618 0246 009B     		ldr	r3, [sp]
 619 0248 FFF7FEFF 		bl	chIQReadTimeout
 620 024c 0346     		mov	r3, r0
 621              		.loc 7 90 0
 622 024e 1846     		mov	r0, r3
 623 0250 05B0     		add	sp, sp, #20
 624              		@ sp needed
 625 0252 5DF804FB 		ldr	pc, [sp], #4
 626              		.cfi_endproc
 627              	.LFE274:
 628              		.size	readt, .-readt
 629              		.section	.rodata
 630              		.align	2
 631              		.type	vmt, %object
 632              		.size	vmt, 32
 633              	vmt:
 634 0000 00000000 		.word	write
 635 0004 00000000 		.word	read
 636 0008 00000000 		.word	put
 637 000c 00000000 		.word	get
 638 0010 00000000 		.word	putt
 639 0014 00000000 		.word	gett
 640 0018 00000000 		.word	writet
 641 001c 00000000 		.word	readt
 642              		.text
 643 0256 00BF     		.align	2
 644 0258 AFF30080 		.p2align 4,,15
 644      AFF30080 
 645              		.global	sdInit
 646              		.thumb
 647              		.thumb_func
 648              		.type	sdInit, %function
 649              	sdInit:
 650              	.LFB275:
 651              		.loc 7 108 0
 652              		.cfi_startproc
 653              		@ args = 0, pretend = 0, frame = 0
 654              		@ frame_needed = 0, uses_anonymous_args = 0
 655 0260 08B5     		push	{r3, lr}
 656              		.cfi_def_cfa_offset 8
 657              		.cfi_offset 3, -8
 658              		.cfi_offset 14, -4
 659              		.loc 7 110 0
 660 0262 FFF7FEFF 		bl	sd_lld_init
 661              		.loc 7 111 0
 662 0266 08BD     		pop	{r3, pc}
 663              		.cfi_endproc
 664              	.LFE275:
 665              		.size	sdInit, .-sdInit
 666              		.align	2
 667 0268 AFF30080 		.p2align 4,,15
 667      AFF30080 
 668              		.global	sdObjectInit
 669              		.thumb
ARM GAS  /tmp/ccOBP60G.s 			page 13


 670              		.thumb_func
 671              		.type	sdObjectInit, %function
 672              	sdObjectInit:
 673              	.LFB276:
 674              		.loc 7 128 0
 675              		.cfi_startproc
 676              		@ args = 0, pretend = 0, frame = 16
 677              		@ frame_needed = 0, uses_anonymous_args = 0
 678 0270 00B5     		push	{lr}
 679              		.cfi_def_cfa_offset 4
 680              		.cfi_offset 14, -4
 681 0272 87B0     		sub	sp, sp, #28
 682              		.cfi_def_cfa_offset 32
 683 0274 0590     		str	r0, [sp, #20]
 684 0276 0491     		str	r1, [sp, #16]
 685 0278 0392     		str	r2, [sp, #12]
 686              		.loc 7 130 0
 687 027a 059B     		ldr	r3, [sp, #20]
 688 027c 134A     		ldr	r2, .L33
 689 027e 1A60     		str	r2, [r3]
 690              		.loc 7 131 0
 691 0280 059B     		ldr	r3, [sp, #20]
 692 0282 0433     		adds	r3, r3, #4
 693 0284 1846     		mov	r0, r3
 694 0286 FFF71BFF 		bl	osalEventObjectInit
 695              		.loc 7 132 0
 696 028a 059B     		ldr	r3, [sp, #20]
 697 028c 0122     		movs	r2, #1
 698 028e 1A72     		strb	r2, [r3, #8]
 699              		.loc 7 133 0
 700 0290 059B     		ldr	r3, [sp, #20]
 701 0292 03F10C02 		add	r2, r3, #12
 702 0296 059B     		ldr	r3, [sp, #20]
 703 0298 5433     		adds	r3, r3, #84
 704 029a 0599     		ldr	r1, [sp, #20]
 705 029c 0091     		str	r1, [sp]
 706 029e 1046     		mov	r0, r2
 707 02a0 1946     		mov	r1, r3
 708 02a2 1022     		movs	r2, #16
 709 02a4 049B     		ldr	r3, [sp, #16]
 710 02a6 FFF7FEFF 		bl	chIQObjectInit
 711              		.loc 7 134 0
 712 02aa 059B     		ldr	r3, [sp, #20]
 713 02ac 03F13002 		add	r2, r3, #48
 714 02b0 059B     		ldr	r3, [sp, #20]
 715 02b2 6433     		adds	r3, r3, #100
 716 02b4 0599     		ldr	r1, [sp, #20]
 717 02b6 0091     		str	r1, [sp]
 718 02b8 1046     		mov	r0, r2
 719 02ba 1946     		mov	r1, r3
 720 02bc 1022     		movs	r2, #16
 721 02be 039B     		ldr	r3, [sp, #12]
 722 02c0 FFF7FEFF 		bl	chOQObjectInit
 723              		.loc 7 135 0
 724 02c4 07B0     		add	sp, sp, #28
 725              		@ sp needed
 726 02c6 5DF804FB 		ldr	pc, [sp], #4
ARM GAS  /tmp/ccOBP60G.s 			page 14


 727              	.L34:
 728 02ca 00BF     		.align	2
 729              	.L33:
 730 02cc 00000000 		.word	vmt
 731              		.cfi_endproc
 732              	.LFE276:
 733              		.size	sdObjectInit, .-sdObjectInit
 734              		.align	2
 735              		.p2align 4,,15
 736              		.global	sdStart
 737              		.thumb
 738              		.thumb_func
 739              		.type	sdStart, %function
 740              	sdStart:
 741              	.LFB277:
 742              		.loc 7 147 0
 743              		.cfi_startproc
 744              		@ args = 0, pretend = 0, frame = 8
 745              		@ frame_needed = 0, uses_anonymous_args = 0
 746 02d0 00B5     		push	{lr}
 747              		.cfi_def_cfa_offset 4
 748              		.cfi_offset 14, -4
 749 02d2 83B0     		sub	sp, sp, #12
 750              		.cfi_def_cfa_offset 16
 751 02d4 0190     		str	r0, [sp, #4]
 752 02d6 0091     		str	r1, [sp]
 753              		.loc 7 151 0
 754 02d8 FFF7DAFE 		bl	osalSysLock
 755              		.loc 7 154 0
 756 02dc 0198     		ldr	r0, [sp, #4]
 757 02de 0099     		ldr	r1, [sp]
 758 02e0 FFF7FEFF 		bl	sd_lld_start
 759              		.loc 7 155 0
 760 02e4 019B     		ldr	r3, [sp, #4]
 761 02e6 0222     		movs	r2, #2
 762 02e8 1A72     		strb	r2, [r3, #8]
 763              		.loc 7 156 0
 764 02ea FFF7D9FE 		bl	osalSysUnlock
 765              		.loc 7 157 0
 766 02ee 03B0     		add	sp, sp, #12
 767              		@ sp needed
 768 02f0 5DF804FB 		ldr	pc, [sp], #4
 769              		.cfi_endproc
 770              	.LFE277:
 771              		.size	sdStart, .-sdStart
 772              		.align	2
 773 02f4 AFF30080 		.p2align 4,,15
 773      AFF30080 
 773      AFF30080 
 774              		.global	sdStop
 775              		.thumb
 776              		.thumb_func
 777              		.type	sdStop, %function
 778              	sdStop:
 779              	.LFB278:
 780              		.loc 7 168 0
 781              		.cfi_startproc
ARM GAS  /tmp/ccOBP60G.s 			page 15


 782              		@ args = 0, pretend = 0, frame = 8
 783              		@ frame_needed = 0, uses_anonymous_args = 0
 784 0300 00B5     		push	{lr}
 785              		.cfi_def_cfa_offset 4
 786              		.cfi_offset 14, -4
 787 0302 83B0     		sub	sp, sp, #12
 788              		.cfi_def_cfa_offset 16
 789 0304 0190     		str	r0, [sp, #4]
 790              		.loc 7 172 0
 791 0306 FFF7C3FE 		bl	osalSysLock
 792              		.loc 7 175 0
 793 030a 0198     		ldr	r0, [sp, #4]
 794 030c FFF7FEFF 		bl	sd_lld_stop
 795              		.loc 7 176 0
 796 0310 019B     		ldr	r3, [sp, #4]
 797 0312 0122     		movs	r2, #1
 798 0314 1A72     		strb	r2, [r3, #8]
 799              		.loc 7 177 0
 800 0316 019B     		ldr	r3, [sp, #4]
 801 0318 3033     		adds	r3, r3, #48
 802 031a 1846     		mov	r0, r3
 803 031c FFF7FEFF 		bl	chOQResetI
 804              		.loc 7 178 0
 805 0320 019B     		ldr	r3, [sp, #4]
 806 0322 0C33     		adds	r3, r3, #12
 807 0324 1846     		mov	r0, r3
 808 0326 FFF7FEFF 		bl	chIQResetI
 809              		.loc 7 179 0
 810 032a FFF7C1FE 		bl	osalOsRescheduleS
 811              		.loc 7 180 0
 812 032e FFF7B7FE 		bl	osalSysUnlock
 813              		.loc 7 181 0
 814 0332 03B0     		add	sp, sp, #12
 815              		@ sp needed
 816 0334 5DF804FB 		ldr	pc, [sp], #4
 817              		.cfi_endproc
 818              	.LFE278:
 819              		.size	sdStop, .-sdStop
 820              		.align	2
 821 0338 AFF30080 		.p2align 4,,15
 821      AFF30080 
 822              		.global	sdIncomingDataI
 823              		.thumb
 824              		.thumb_func
 825              		.type	sdIncomingDataI, %function
 826              	sdIncomingDataI:
 827              	.LFB279:
 828              		.loc 7 199 0
 829              		.cfi_startproc
 830              		@ args = 0, pretend = 0, frame = 8
 831              		@ frame_needed = 0, uses_anonymous_args = 0
 832 0340 00B5     		push	{lr}
 833              		.cfi_def_cfa_offset 4
 834              		.cfi_offset 14, -4
 835 0342 83B0     		sub	sp, sp, #12
 836              		.cfi_def_cfa_offset 16
 837 0344 0190     		str	r0, [sp, #4]
ARM GAS  /tmp/ccOBP60G.s 			page 16


 838 0346 0B46     		mov	r3, r1
 839 0348 8DF80330 		strb	r3, [sp, #3]
 840              		.loc 7 204 0
 841 034c 019B     		ldr	r3, [sp, #4]
 842 034e 0C33     		adds	r3, r3, #12
 843 0350 1846     		mov	r0, r3
 844 0352 FFF77DFE 		bl	chIQIsEmptyI
 845 0356 0346     		mov	r3, r0
 846 0358 002B     		cmp	r3, #0
 847 035a 05D0     		beq	.L38
 848              		.loc 7 205 0
 849 035c 019B     		ldr	r3, [sp, #4]
 850 035e 0433     		adds	r3, r3, #4
 851 0360 1846     		mov	r0, r3
 852 0362 0421     		movs	r1, #4
 853 0364 FFF7BCFE 		bl	osalEventBroadcastFlagsI
 854              	.L38:
 855              		.loc 7 206 0
 856 0368 019B     		ldr	r3, [sp, #4]
 857 036a 03F10C02 		add	r2, r3, #12
 858 036e 9DF80330 		ldrb	r3, [sp, #3]	@ zero_extendqisi2
 859 0372 1046     		mov	r0, r2
 860 0374 1946     		mov	r1, r3
 861 0376 FFF7FEFF 		bl	chIQPutI
 862 037a 0346     		mov	r3, r0
 863 037c 002B     		cmp	r3, #0
 864 037e 05DA     		bge	.L37
 865              		.loc 7 207 0
 866 0380 019B     		ldr	r3, [sp, #4]
 867 0382 0433     		adds	r3, r3, #4
 868 0384 1846     		mov	r0, r3
 869 0386 8021     		movs	r1, #128
 870 0388 FFF7AAFE 		bl	osalEventBroadcastFlagsI
 871              	.L37:
 872              		.loc 7 208 0
 873 038c 03B0     		add	sp, sp, #12
 874              		@ sp needed
 875 038e 5DF804FB 		ldr	pc, [sp], #4
 876              		.cfi_endproc
 877              	.LFE279:
 878              		.size	sdIncomingDataI, .-sdIncomingDataI
 879 0392 00BF     		.align	2
 880 0394 AFF30080 		.p2align 4,,15
 880      AFF30080 
 880      AFF30080 
 881              		.global	sdRequestDataI
 882              		.thumb
 883              		.thumb_func
 884              		.type	sdRequestDataI, %function
 885              	sdRequestDataI:
 886              	.LFB280:
 887              		.loc 7 225 0
 888              		.cfi_startproc
 889              		@ args = 0, pretend = 0, frame = 16
 890              		@ frame_needed = 0, uses_anonymous_args = 0
 891 03a0 00B5     		push	{lr}
 892              		.cfi_def_cfa_offset 4
ARM GAS  /tmp/ccOBP60G.s 			page 17


 893              		.cfi_offset 14, -4
 894 03a2 85B0     		sub	sp, sp, #20
 895              		.cfi_def_cfa_offset 24
 896 03a4 0190     		str	r0, [sp, #4]
 897              		.loc 7 231 0
 898 03a6 019B     		ldr	r3, [sp, #4]
 899 03a8 3033     		adds	r3, r3, #48
 900 03aa 1846     		mov	r0, r3
 901 03ac FFF7FEFF 		bl	chOQGetI
 902 03b0 0390     		str	r0, [sp, #12]
 903              		.loc 7 232 0
 904 03b2 039B     		ldr	r3, [sp, #12]
 905 03b4 002B     		cmp	r3, #0
 906 03b6 05DA     		bge	.L41
 907              		.loc 7 233 0
 908 03b8 019B     		ldr	r3, [sp, #4]
 909 03ba 0433     		adds	r3, r3, #4
 910 03bc 1846     		mov	r0, r3
 911 03be 0821     		movs	r1, #8
 912 03c0 FFF78EFE 		bl	osalEventBroadcastFlagsI
 913              	.L41:
 914              		.loc 7 234 0
 915 03c4 039B     		ldr	r3, [sp, #12]
 916              		.loc 7 235 0
 917 03c6 1846     		mov	r0, r3
 918 03c8 05B0     		add	sp, sp, #20
 919              		@ sp needed
 920 03ca 5DF804FB 		ldr	pc, [sp], #4
 921              		.cfi_endproc
 922              	.LFE280:
 923              		.size	sdRequestDataI, .-sdRequestDataI
 924 03ce 00BF     		.align	2
 925              		.p2align 4,,15
 926              		.global	sdPutWouldBlock
 927              		.thumb
 928              		.thumb_func
 929              		.type	sdPutWouldBlock, %function
 930              	sdPutWouldBlock:
 931              	.LFB281:
 932              		.loc 7 252 0
 933              		.cfi_startproc
 934              		@ args = 0, pretend = 0, frame = 16
 935              		@ frame_needed = 0, uses_anonymous_args = 0
 936 03d0 00B5     		push	{lr}
 937              		.cfi_def_cfa_offset 4
 938              		.cfi_offset 14, -4
 939 03d2 85B0     		sub	sp, sp, #20
 940              		.cfi_def_cfa_offset 24
 941 03d4 0190     		str	r0, [sp, #4]
 942              		.loc 7 255 0
 943 03d6 FFF75BFE 		bl	osalSysLock
 944              		.loc 7 256 0
 945 03da 019B     		ldr	r3, [sp, #4]
 946 03dc 3033     		adds	r3, r3, #48
 947 03de 1846     		mov	r0, r3
 948 03e0 FFF746FE 		bl	chOQIsFullI
 949 03e4 0346     		mov	r3, r0
ARM GAS  /tmp/ccOBP60G.s 			page 18


 950 03e6 8DF80F30 		strb	r3, [sp, #15]
 951              		.loc 7 257 0
 952 03ea FFF759FE 		bl	osalSysUnlock
 953              		.loc 7 259 0
 954 03ee 9DF80F30 		ldrb	r3, [sp, #15]	@ zero_extendqisi2
 955              		.loc 7 260 0
 956 03f2 1846     		mov	r0, r3
 957 03f4 05B0     		add	sp, sp, #20
 958              		@ sp needed
 959 03f6 5DF804FB 		ldr	pc, [sp], #4
 960              		.cfi_endproc
 961              	.LFE281:
 962              		.size	sdPutWouldBlock, .-sdPutWouldBlock
 963 03fa 00BF     		.align	2
 964 03fc AFF30080 		.p2align 4,,15
 965              		.global	sdGetWouldBlock
 966              		.thumb
 967              		.thumb_func
 968              		.type	sdGetWouldBlock, %function
 969              	sdGetWouldBlock:
 970              	.LFB282:
 971              		.loc 7 277 0
 972              		.cfi_startproc
 973              		@ args = 0, pretend = 0, frame = 16
 974              		@ frame_needed = 0, uses_anonymous_args = 0
 975 0400 00B5     		push	{lr}
 976              		.cfi_def_cfa_offset 4
 977              		.cfi_offset 14, -4
 978 0402 85B0     		sub	sp, sp, #20
 979              		.cfi_def_cfa_offset 24
 980 0404 0190     		str	r0, [sp, #4]
 981              		.loc 7 280 0
 982 0406 FFF743FE 		bl	osalSysLock
 983              		.loc 7 281 0
 984 040a 019B     		ldr	r3, [sp, #4]
 985 040c 0C33     		adds	r3, r3, #12
 986 040e 1846     		mov	r0, r3
 987 0410 FFF71EFE 		bl	chIQIsEmptyI
 988 0414 0346     		mov	r3, r0
 989 0416 8DF80F30 		strb	r3, [sp, #15]
 990              		.loc 7 282 0
 991 041a FFF741FE 		bl	osalSysUnlock
 992              		.loc 7 284 0
 993 041e 9DF80F30 		ldrb	r3, [sp, #15]	@ zero_extendqisi2
 994              		.loc 7 285 0
 995 0422 1846     		mov	r0, r3
 996 0424 05B0     		add	sp, sp, #20
 997              		@ sp needed
 998 0426 5DF804FB 		ldr	pc, [sp], #4
 999              		.cfi_endproc
 1000              	.LFE282:
 1001              		.size	sdGetWouldBlock, .-sdGetWouldBlock
 1002              	.Letext0:
 1003              		.file 8 "/nfs/nfs5/home/research/hardware/arm2/gcc-arm-embedded/gcc-arm-none-eabi-4_8-2014q2/lib/g
 1004              		.file 9 "/nfs/nfs5/home/research/hardware/arm2/gcc-arm-embedded/gcc-arm-none-eabi-4_8-2014q2/arm-n
 1005              		.file 10 "/nfs/nfs5/home/research/hardware/arm2/gcc-arm-embedded/gcc-arm-none-eabi-4_8-2014q2/arm-
 1006              		.file 11 "../../ChibiOS/os/rt/ports/ARMCMx/compilers/GCC/chtypes.h"
ARM GAS  /tmp/ccOBP60G.s 			page 19


 1007              		.file 12 "../../ChibiOS/os/rt/include/chsystypes.h"
 1008              		.file 13 "../../ChibiOS/os/rt/include/chschd.h"
 1009              		.file 14 "../../ChibiOS/os/ext/CMSIS/ST/STM32L4xx/stm32l476xx.h"
 1010              		.file 15 "../../ChibiOS/os/rt/ports/ARMCMx/chcore.h"
 1011              		.file 16 "../../ChibiOS/os/rt/include/chtm.h"
 1012              		.file 17 "../../ChibiOS/os/rt/include/chsem.h"
 1013              		.file 18 "../../ChibiOS/os/rt/include/chmtx.h"
 1014              		.file 19 "../../ChibiOS/os/hal/include/serial.h"
 1015              		.file 20 "../../ChibiOS/os/hal/ports/STM32/LLD/USARTv2/serial_lld.h"
 1016              		.file 21 "../../ChibiOS/os/ext/CMSIS/include/core_cm4.h"