ARM GAS  /tmp/ccuPkBPP.s 			page 1


   1              		.syntax unified
   2              		.cpu cortex-m4
   3              		.fpu softvfp
   4              		.eabi_attribute 20, 1
   5              		.eabi_attribute 21, 1
   6              		.eabi_attribute 23, 3
   7              		.eabi_attribute 24, 1
   8              		.eabi_attribute 25, 1
   9              		.eabi_attribute 26, 1
  10              		.eabi_attribute 30, 6
  11              		.eabi_attribute 34, 1
  12              		.eabi_attribute 18, 4
  13              		.thumb
  14              		.file	"spi.c"
  15              		.text
  16              	.Ltext0:
  17              		.cfi_sections	.debug_frame
  18              		.align	2
  19              		.p2align 4,,15
  20              		.thumb
  21              		.thumb_func
  22              		.type	port_lock, %function
  23              	port_lock:
  24              	.LFB127:
  25              		.file 1 "../../ChibiOS/os/rt/ports/ARMCMx/chcore_v7m.h"
  26              		.loc 1 456 0
  27              		.cfi_startproc
  28              		@ args = 0, pretend = 0, frame = 8
  29              		@ frame_needed = 0, uses_anonymous_args = 0
  30              		@ link register save eliminated.
  31 0000 82B0     		sub	sp, sp, #8
  32              		.cfi_def_cfa_offset 8
  33 0002 2023     		movs	r3, #32
  34 0004 0193     		str	r3, [sp, #4]
  35              	.LBB6:
  36              	.LBB7:
  37              		.file 2 "../../ChibiOS/os/ext/CMSIS/include/core_cmFunc.h"
  38              		.loc 2 548 0
  39 0006 019B     		ldr	r3, [sp, #4]
  40              	@ 548 "../../ChibiOS/os/ext/CMSIS/include/core_cmFunc.h" 1
  41 0008 83F31188 		MSR basepri, r3
  42              	@ 0 "" 2
  43              		.thumb
  44              	.LBE7:
  45              	.LBE6:
  46              		.loc 1 473 0
  47 000c 02B0     		add	sp, sp, #8
  48              		@ sp needed
  49 000e 7047     		bx	lr
  50              		.cfi_endproc
  51              	.LFE127:
  52              		.size	port_lock, .-port_lock
  53              		.align	2
  54              		.p2align 4,,15
  55              		.thumb
  56              		.thumb_func
  57              		.type	port_unlock, %function
ARM GAS  /tmp/ccuPkBPP.s 			page 2


  58              	port_unlock:
  59              	.LFB128:
  60              		.loc 1 480 0
  61              		.cfi_startproc
  62              		@ args = 0, pretend = 0, frame = 8
  63              		@ frame_needed = 0, uses_anonymous_args = 0
  64              		@ link register save eliminated.
  65 0010 82B0     		sub	sp, sp, #8
  66              		.cfi_def_cfa_offset 8
  67 0012 0023     		movs	r3, #0
  68 0014 0193     		str	r3, [sp, #4]
  69              	.LBB8:
  70              	.LBB9:
  71              		.loc 2 548 0
  72 0016 019B     		ldr	r3, [sp, #4]
  73              	@ 548 "../../ChibiOS/os/ext/CMSIS/include/core_cmFunc.h" 1
  74 0018 83F31188 		MSR basepri, r3
  75              	@ 0 "" 2
  76              		.thumb
  77              	.LBE9:
  78              	.LBE8:
  79              		.loc 1 487 0
  80 001c 02B0     		add	sp, sp, #8
  81              		@ sp needed
  82 001e 7047     		bx	lr
  83              		.cfi_endproc
  84              	.LFE128:
  85              		.size	port_unlock, .-port_unlock
  86              		.align	2
  87              		.p2align 4,,15
  88              		.thumb
  89              		.thumb_func
  90              		.type	chSysLock, %function
  91              	chSysLock:
  92              	.LFB156:
  93              		.file 3 "../../ChibiOS/os/rt/include/chsys.h"
  94              		.loc 3 346 0
  95              		.cfi_startproc
  96              		@ args = 0, pretend = 0, frame = 0
  97              		@ frame_needed = 0, uses_anonymous_args = 0
  98 0020 08B5     		push	{r3, lr}
  99              		.cfi_def_cfa_offset 8
 100              		.cfi_offset 3, -8
 101              		.cfi_offset 14, -4
 102              		.loc 3 348 0
 103 0022 FFF7EDFF 		bl	port_lock
 104              		.loc 3 351 0
 105 0026 08BD     		pop	{r3, pc}
 106              		.cfi_endproc
 107              	.LFE156:
 108              		.size	chSysLock, .-chSysLock
 109              		.align	2
 110 0028 AFF30080 		.p2align 4,,15
 110      AFF30080 
 111              		.thumb
 112              		.thumb_func
 113              		.type	chSysUnlock, %function
ARM GAS  /tmp/ccuPkBPP.s 			page 3


 114              	chSysUnlock:
 115              	.LFB157:
 116              		.loc 3 358 0
 117              		.cfi_startproc
 118              		@ args = 0, pretend = 0, frame = 0
 119              		@ frame_needed = 0, uses_anonymous_args = 0
 120 0030 08B5     		push	{r3, lr}
 121              		.cfi_def_cfa_offset 8
 122              		.cfi_offset 3, -8
 123              		.cfi_offset 14, -4
 124              		.loc 3 371 0
 125 0032 FFF7EDFF 		bl	port_unlock
 126              		.loc 3 372 0
 127 0036 08BD     		pop	{r3, pc}
 128              		.cfi_endproc
 129              	.LFE157:
 130              		.size	chSysUnlock, .-chSysUnlock
 131              		.align	2
 132 0038 AFF30080 		.p2align 4,,15
 132      AFF30080 
 133              		.thumb
 134              		.thumb_func
 135              		.type	osalSysLock, %function
 136              	osalSysLock:
 137              	.LFB234:
 138              		.file 4 "../../ChibiOS/os/hal/osal/rt/osal.h"
 139              		.loc 4 491 0
 140              		.cfi_startproc
 141              		@ args = 0, pretend = 0, frame = 0
 142              		@ frame_needed = 0, uses_anonymous_args = 0
 143 0040 08B5     		push	{r3, lr}
 144              		.cfi_def_cfa_offset 8
 145              		.cfi_offset 3, -8
 146              		.cfi_offset 14, -4
 147              		.loc 4 493 0
 148 0042 FFF7EDFF 		bl	chSysLock
 149              		.loc 4 494 0
 150 0046 08BD     		pop	{r3, pc}
 151              		.cfi_endproc
 152              	.LFE234:
 153              		.size	osalSysLock, .-osalSysLock
 154              		.align	2
 155 0048 AFF30080 		.p2align 4,,15
 155      AFF30080 
 156              		.thumb
 157              		.thumb_func
 158              		.type	osalSysUnlock, %function
 159              	osalSysUnlock:
 160              	.LFB235:
 161              		.loc 4 502 0
 162              		.cfi_startproc
 163              		@ args = 0, pretend = 0, frame = 0
 164              		@ frame_needed = 0, uses_anonymous_args = 0
 165 0050 08B5     		push	{r3, lr}
 166              		.cfi_def_cfa_offset 8
 167              		.cfi_offset 3, -8
 168              		.cfi_offset 14, -4
ARM GAS  /tmp/ccuPkBPP.s 			page 4


 169              		.loc 4 504 0
 170 0052 FFF7EDFF 		bl	chSysUnlock
 171              		.loc 4 505 0
 172 0056 08BD     		pop	{r3, pc}
 173              		.cfi_endproc
 174              	.LFE235:
 175              		.size	osalSysUnlock, .-osalSysUnlock
 176              		.align	2
 177 0058 AFF30080 		.p2align 4,,15
 177      AFF30080 
 178              		.thumb
 179              		.thumb_func
 180              		.type	osalThreadSuspendS, %function
 181              	osalThreadSuspendS:
 182              	.LFB247:
 183              		.loc 4 686 0
 184              		.cfi_startproc
 185              		@ args = 0, pretend = 0, frame = 8
 186              		@ frame_needed = 0, uses_anonymous_args = 0
 187 0060 00B5     		push	{lr}
 188              		.cfi_def_cfa_offset 4
 189              		.cfi_offset 14, -4
 190 0062 83B0     		sub	sp, sp, #12
 191              		.cfi_def_cfa_offset 16
 192 0064 0190     		str	r0, [sp, #4]
 193              		.loc 4 688 0
 194 0066 0198     		ldr	r0, [sp, #4]
 195 0068 FFF7FEFF 		bl	chThdSuspendS
 196 006c 0346     		mov	r3, r0
 197              		.loc 4 689 0
 198 006e 1846     		mov	r0, r3
 199 0070 03B0     		add	sp, sp, #12
 200              		@ sp needed
 201 0072 5DF804FB 		ldr	pc, [sp], #4
 202              		.cfi_endproc
 203              	.LFE247:
 204              		.size	osalThreadSuspendS, .-osalThreadSuspendS
 205 0076 00BF     		.align	2
 206 0078 AFF30080 		.p2align 4,,15
 206      AFF30080 
 207              		.thumb
 208              		.thumb_func
 209              		.type	osalMutexObjectInit, %function
 210              	osalMutexObjectInit:
 211              	.LFB258:
 212              		.loc 4 884 0
 213              		.cfi_startproc
 214              		@ args = 0, pretend = 0, frame = 8
 215              		@ frame_needed = 0, uses_anonymous_args = 0
 216 0080 00B5     		push	{lr}
 217              		.cfi_def_cfa_offset 4
 218              		.cfi_offset 14, -4
 219 0082 83B0     		sub	sp, sp, #12
 220              		.cfi_def_cfa_offset 16
 221 0084 0190     		str	r0, [sp, #4]
 222              		.loc 4 887 0
 223 0086 0198     		ldr	r0, [sp, #4]
ARM GAS  /tmp/ccuPkBPP.s 			page 5


 224 0088 FFF7FEFF 		bl	chMtxObjectInit
 225              		.loc 4 893 0
 226 008c 03B0     		add	sp, sp, #12
 227              		@ sp needed
 228 008e 5DF804FB 		ldr	pc, [sp], #4
 229              		.cfi_endproc
 230              	.LFE258:
 231              		.size	osalMutexObjectInit, .-osalMutexObjectInit
 232 0092 00BF     		.align	2
 233 0094 AFF30080 		.p2align 4,,15
 233      AFF30080 
 233      AFF30080 
 234              		.thumb
 235              		.thumb_func
 236              		.type	osalMutexLock, %function
 237              	osalMutexLock:
 238              	.LFB259:
 239              		.loc 4 904 0
 240              		.cfi_startproc
 241              		@ args = 0, pretend = 0, frame = 8
 242              		@ frame_needed = 0, uses_anonymous_args = 0
 243 00a0 00B5     		push	{lr}
 244              		.cfi_def_cfa_offset 4
 245              		.cfi_offset 14, -4
 246 00a2 83B0     		sub	sp, sp, #12
 247              		.cfi_def_cfa_offset 16
 248 00a4 0190     		str	r0, [sp, #4]
 249              		.loc 4 907 0
 250 00a6 0198     		ldr	r0, [sp, #4]
 251 00a8 FFF7FEFF 		bl	chMtxLock
 252              		.loc 4 913 0
 253 00ac 03B0     		add	sp, sp, #12
 254              		@ sp needed
 255 00ae 5DF804FB 		ldr	pc, [sp], #4
 256              		.cfi_endproc
 257              	.LFE259:
 258              		.size	osalMutexLock, .-osalMutexLock
 259 00b2 00BF     		.align	2
 260 00b4 AFF30080 		.p2align 4,,15
 260      AFF30080 
 260      AFF30080 
 261              		.thumb
 262              		.thumb_func
 263              		.type	osalMutexUnlock, %function
 264              	osalMutexUnlock:
 265              	.LFB260:
 266              		.loc 4 928 0
 267              		.cfi_startproc
 268              		@ args = 0, pretend = 0, frame = 8
 269              		@ frame_needed = 0, uses_anonymous_args = 0
 270 00c0 00B5     		push	{lr}
 271              		.cfi_def_cfa_offset 4
 272              		.cfi_offset 14, -4
 273 00c2 83B0     		sub	sp, sp, #12
 274              		.cfi_def_cfa_offset 16
 275 00c4 0190     		str	r0, [sp, #4]
 276              		.loc 4 931 0
ARM GAS  /tmp/ccuPkBPP.s 			page 6


 277 00c6 0198     		ldr	r0, [sp, #4]
 278 00c8 FFF7FEFF 		bl	chMtxUnlock
 279              		.loc 4 937 0
 280 00cc 03B0     		add	sp, sp, #12
 281              		@ sp needed
 282 00ce 5DF804FB 		ldr	pc, [sp], #4
 283              		.cfi_endproc
 284              	.LFE260:
 285              		.size	osalMutexUnlock, .-osalMutexUnlock
 286 00d2 00BF     		.align	2
 287 00d4 AFF30080 		.p2align 4,,15
 287      AFF30080 
 287      AFF30080 
 288              		.global	spiInit
 289              		.thumb
 290              		.thumb_func
 291              		.type	spiInit, %function
 292              	spiInit:
 293              	.LFB267:
 294              		.file 5 "../../ChibiOS/os/hal/src/spi.c"
 295              		.loc 5 56 0
 296              		.cfi_startproc
 297              		@ args = 0, pretend = 0, frame = 0
 298              		@ frame_needed = 0, uses_anonymous_args = 0
 299 00e0 08B5     		push	{r3, lr}
 300              		.cfi_def_cfa_offset 8
 301              		.cfi_offset 3, -8
 302              		.cfi_offset 14, -4
 303              		.loc 5 58 0
 304 00e2 FFF7FEFF 		bl	spi_lld_init
 305              		.loc 5 59 0
 306 00e6 08BD     		pop	{r3, pc}
 307              		.cfi_endproc
 308              	.LFE267:
 309              		.size	spiInit, .-spiInit
 310              		.align	2
 311 00e8 AFF30080 		.p2align 4,,15
 311      AFF30080 
 312              		.global	spiObjectInit
 313              		.thumb
 314              		.thumb_func
 315              		.type	spiObjectInit, %function
 316              	spiObjectInit:
 317              	.LFB268:
 318              		.loc 5 68 0
 319              		.cfi_startproc
 320              		@ args = 0, pretend = 0, frame = 8
 321              		@ frame_needed = 0, uses_anonymous_args = 0
 322 00f0 00B5     		push	{lr}
 323              		.cfi_def_cfa_offset 4
 324              		.cfi_offset 14, -4
 325 00f2 83B0     		sub	sp, sp, #12
 326              		.cfi_def_cfa_offset 16
 327 00f4 0190     		str	r0, [sp, #4]
 328              		.loc 5 70 0
 329 00f6 019B     		ldr	r3, [sp, #4]
 330 00f8 0122     		movs	r2, #1
ARM GAS  /tmp/ccuPkBPP.s 			page 7


 331 00fa 1A70     		strb	r2, [r3]
 332              		.loc 5 71 0
 333 00fc 019B     		ldr	r3, [sp, #4]
 334 00fe 0022     		movs	r2, #0
 335 0100 5A60     		str	r2, [r3, #4]
 336              		.loc 5 73 0
 337 0102 019B     		ldr	r3, [sp, #4]
 338 0104 0022     		movs	r2, #0
 339 0106 9A60     		str	r2, [r3, #8]
 340              		.loc 5 76 0
 341 0108 019B     		ldr	r3, [sp, #4]
 342 010a 0C33     		adds	r3, r3, #12
 343 010c 1846     		mov	r0, r3
 344 010e FFF7B7FF 		bl	osalMutexObjectInit
 345              		.loc 5 81 0
 346 0112 03B0     		add	sp, sp, #12
 347              		@ sp needed
 348 0114 5DF804FB 		ldr	pc, [sp], #4
 349              		.cfi_endproc
 350              	.LFE268:
 351              		.size	spiObjectInit, .-spiObjectInit
 352              		.align	2
 353 0118 AFF30080 		.p2align 4,,15
 353      AFF30080 
 354              		.global	spiStart
 355              		.thumb
 356              		.thumb_func
 357              		.type	spiStart, %function
 358              	spiStart:
 359              	.LFB269:
 360              		.loc 5 91 0
 361              		.cfi_startproc
 362              		@ args = 0, pretend = 0, frame = 8
 363              		@ frame_needed = 0, uses_anonymous_args = 0
 364 0120 00B5     		push	{lr}
 365              		.cfi_def_cfa_offset 4
 366              		.cfi_offset 14, -4
 367 0122 83B0     		sub	sp, sp, #12
 368              		.cfi_def_cfa_offset 16
 369 0124 0190     		str	r0, [sp, #4]
 370 0126 0091     		str	r1, [sp]
 371              		.loc 5 95 0
 372 0128 FFF78AFF 		bl	osalSysLock
 373              		.loc 5 98 0
 374 012c 019B     		ldr	r3, [sp, #4]
 375 012e 009A     		ldr	r2, [sp]
 376 0130 5A60     		str	r2, [r3, #4]
 377              		.loc 5 99 0
 378 0132 0198     		ldr	r0, [sp, #4]
 379 0134 FFF7FEFF 		bl	spi_lld_start
 380              		.loc 5 100 0
 381 0138 019B     		ldr	r3, [sp, #4]
 382 013a 0222     		movs	r2, #2
 383 013c 1A70     		strb	r2, [r3]
 384              		.loc 5 101 0
 385 013e FFF787FF 		bl	osalSysUnlock
 386              		.loc 5 102 0
ARM GAS  /tmp/ccuPkBPP.s 			page 8


 387 0142 03B0     		add	sp, sp, #12
 388              		@ sp needed
 389 0144 5DF804FB 		ldr	pc, [sp], #4
 390              		.cfi_endproc
 391              	.LFE269:
 392              		.size	spiStart, .-spiStart
 393              		.align	2
 394 0148 AFF30080 		.p2align 4,,15
 394      AFF30080 
 395              		.global	spiStop
 396              		.thumb
 397              		.thumb_func
 398              		.type	spiStop, %function
 399              	spiStop:
 400              	.LFB270:
 401              		.loc 5 113 0
 402              		.cfi_startproc
 403              		@ args = 0, pretend = 0, frame = 8
 404              		@ frame_needed = 0, uses_anonymous_args = 0
 405 0150 00B5     		push	{lr}
 406              		.cfi_def_cfa_offset 4
 407              		.cfi_offset 14, -4
 408 0152 83B0     		sub	sp, sp, #12
 409              		.cfi_def_cfa_offset 16
 410 0154 0190     		str	r0, [sp, #4]
 411              		.loc 5 117 0
 412 0156 FFF773FF 		bl	osalSysLock
 413              		.loc 5 120 0
 414 015a 0198     		ldr	r0, [sp, #4]
 415 015c FFF7FEFF 		bl	spi_lld_stop
 416              		.loc 5 121 0
 417 0160 019B     		ldr	r3, [sp, #4]
 418 0162 0122     		movs	r2, #1
 419 0164 1A70     		strb	r2, [r3]
 420              		.loc 5 122 0
 421 0166 FFF773FF 		bl	osalSysUnlock
 422              		.loc 5 123 0
 423 016a 03B0     		add	sp, sp, #12
 424              		@ sp needed
 425 016c 5DF804FB 		ldr	pc, [sp], #4
 426              		.cfi_endproc
 427              	.LFE270:
 428              		.size	spiStop, .-spiStop
 429              		.align	2
 430              		.p2align 4,,15
 431              		.global	spiSelect
 432              		.thumb
 433              		.thumb_func
 434              		.type	spiSelect, %function
 435              	spiSelect:
 436              	.LFB271:
 437              		.loc 5 132 0
 438              		.cfi_startproc
 439              		@ args = 0, pretend = 0, frame = 8
 440              		@ frame_needed = 0, uses_anonymous_args = 0
 441 0170 00B5     		push	{lr}
 442              		.cfi_def_cfa_offset 4
ARM GAS  /tmp/ccuPkBPP.s 			page 9


 443              		.cfi_offset 14, -4
 444 0172 83B0     		sub	sp, sp, #12
 445              		.cfi_def_cfa_offset 16
 446 0174 0190     		str	r0, [sp, #4]
 447              		.loc 5 136 0
 448 0176 FFF763FF 		bl	osalSysLock
 449              		.loc 5 138 0
 450 017a 0198     		ldr	r0, [sp, #4]
 451 017c FFF7FEFF 		bl	spi_lld_select
 452              		.loc 5 139 0
 453 0180 FFF766FF 		bl	osalSysUnlock
 454              		.loc 5 140 0
 455 0184 03B0     		add	sp, sp, #12
 456              		@ sp needed
 457 0186 5DF804FB 		ldr	pc, [sp], #4
 458              		.cfi_endproc
 459              	.LFE271:
 460              		.size	spiSelect, .-spiSelect
 461 018a 00BF     		.align	2
 462 018c AFF30080 		.p2align 4,,15
 463              		.global	spiUnselect
 464              		.thumb
 465              		.thumb_func
 466              		.type	spiUnselect, %function
 467              	spiUnselect:
 468              	.LFB272:
 469              		.loc 5 150 0
 470              		.cfi_startproc
 471              		@ args = 0, pretend = 0, frame = 8
 472              		@ frame_needed = 0, uses_anonymous_args = 0
 473 0190 00B5     		push	{lr}
 474              		.cfi_def_cfa_offset 4
 475              		.cfi_offset 14, -4
 476 0192 83B0     		sub	sp, sp, #12
 477              		.cfi_def_cfa_offset 16
 478 0194 0190     		str	r0, [sp, #4]
 479              		.loc 5 154 0
 480 0196 FFF753FF 		bl	osalSysLock
 481              		.loc 5 156 0
 482 019a 0198     		ldr	r0, [sp, #4]
 483 019c FFF7FEFF 		bl	spi_lld_unselect
 484              		.loc 5 157 0
 485 01a0 FFF756FF 		bl	osalSysUnlock
 486              		.loc 5 158 0
 487 01a4 03B0     		add	sp, sp, #12
 488              		@ sp needed
 489 01a6 5DF804FB 		ldr	pc, [sp], #4
 490              		.cfi_endproc
 491              	.LFE272:
 492              		.size	spiUnselect, .-spiUnselect
 493 01aa 00BF     		.align	2
 494 01ac AFF30080 		.p2align 4,,15
 495              		.global	spiStartIgnore
 496              		.thumb
 497              		.thumb_func
 498              		.type	spiStartIgnore, %function
 499              	spiStartIgnore:
ARM GAS  /tmp/ccuPkBPP.s 			page 10


 500              	.LFB273:
 501              		.loc 5 173 0
 502              		.cfi_startproc
 503              		@ args = 0, pretend = 0, frame = 8
 504              		@ frame_needed = 0, uses_anonymous_args = 0
 505 01b0 00B5     		push	{lr}
 506              		.cfi_def_cfa_offset 4
 507              		.cfi_offset 14, -4
 508 01b2 83B0     		sub	sp, sp, #12
 509              		.cfi_def_cfa_offset 16
 510 01b4 0190     		str	r0, [sp, #4]
 511 01b6 0091     		str	r1, [sp]
 512              		.loc 5 177 0
 513 01b8 FFF742FF 		bl	osalSysLock
 514              		.loc 5 179 0
 515 01bc 019B     		ldr	r3, [sp, #4]
 516 01be 0322     		movs	r2, #3
 517 01c0 1A70     		strb	r2, [r3]
 518 01c2 0198     		ldr	r0, [sp, #4]
 519 01c4 0099     		ldr	r1, [sp]
 520 01c6 FFF7FEFF 		bl	spi_lld_ignore
 521              		.loc 5 180 0
 522 01ca FFF741FF 		bl	osalSysUnlock
 523              		.loc 5 181 0
 524 01ce 03B0     		add	sp, sp, #12
 525              		@ sp needed
 526 01d0 5DF804FB 		ldr	pc, [sp], #4
 527              		.cfi_endproc
 528              	.LFE273:
 529              		.size	spiStartIgnore, .-spiStartIgnore
 530              		.align	2
 531 01d4 AFF30080 		.p2align 4,,15
 531      AFF30080 
 531      AFF30080 
 532              		.global	spiStartExchange
 533              		.thumb
 534              		.thumb_func
 535              		.type	spiStartExchange, %function
 536              	spiStartExchange:
 537              	.LFB274:
 538              		.loc 5 201 0
 539              		.cfi_startproc
 540              		@ args = 0, pretend = 0, frame = 16
 541              		@ frame_needed = 0, uses_anonymous_args = 0
 542 01e0 00B5     		push	{lr}
 543              		.cfi_def_cfa_offset 4
 544              		.cfi_offset 14, -4
 545 01e2 85B0     		sub	sp, sp, #20
 546              		.cfi_def_cfa_offset 24
 547 01e4 0390     		str	r0, [sp, #12]
 548 01e6 0291     		str	r1, [sp, #8]
 549 01e8 0192     		str	r2, [sp, #4]
 550 01ea 0093     		str	r3, [sp]
 551              		.loc 5 206 0
 552 01ec FFF728FF 		bl	osalSysLock
 553              		.loc 5 208 0
 554 01f0 039B     		ldr	r3, [sp, #12]
ARM GAS  /tmp/ccuPkBPP.s 			page 11


 555 01f2 0322     		movs	r2, #3
 556 01f4 1A70     		strb	r2, [r3]
 557 01f6 0398     		ldr	r0, [sp, #12]
 558 01f8 0299     		ldr	r1, [sp, #8]
 559 01fa 019A     		ldr	r2, [sp, #4]
 560 01fc 009B     		ldr	r3, [sp]
 561 01fe FFF7FEFF 		bl	spi_lld_exchange
 562              		.loc 5 209 0
 563 0202 FFF725FF 		bl	osalSysUnlock
 564              		.loc 5 210 0
 565 0206 05B0     		add	sp, sp, #20
 566              		@ sp needed
 567 0208 5DF804FB 		ldr	pc, [sp], #4
 568              		.cfi_endproc
 569              	.LFE274:
 570              		.size	spiStartExchange, .-spiStartExchange
 571              		.align	2
 572 020c AFF30080 		.p2align 4,,15
 573              		.global	spiStartSend
 574              		.thumb
 575              		.thumb_func
 576              		.type	spiStartSend, %function
 577              	spiStartSend:
 578              	.LFB275:
 579              		.loc 5 227 0
 580              		.cfi_startproc
 581              		@ args = 0, pretend = 0, frame = 16
 582              		@ frame_needed = 0, uses_anonymous_args = 0
 583 0210 00B5     		push	{lr}
 584              		.cfi_def_cfa_offset 4
 585              		.cfi_offset 14, -4
 586 0212 85B0     		sub	sp, sp, #20
 587              		.cfi_def_cfa_offset 24
 588 0214 0390     		str	r0, [sp, #12]
 589 0216 0291     		str	r1, [sp, #8]
 590 0218 0192     		str	r2, [sp, #4]
 591              		.loc 5 231 0
 592 021a FFF711FF 		bl	osalSysLock
 593              		.loc 5 233 0
 594 021e 039B     		ldr	r3, [sp, #12]
 595 0220 0322     		movs	r2, #3
 596 0222 1A70     		strb	r2, [r3]
 597 0224 0398     		ldr	r0, [sp, #12]
 598 0226 0299     		ldr	r1, [sp, #8]
 599 0228 019A     		ldr	r2, [sp, #4]
 600 022a FFF7FEFF 		bl	spi_lld_send
 601              		.loc 5 234 0
 602 022e FFF70FFF 		bl	osalSysUnlock
 603              		.loc 5 235 0
 604 0232 05B0     		add	sp, sp, #20
 605              		@ sp needed
 606 0234 5DF804FB 		ldr	pc, [sp], #4
 607              		.cfi_endproc
 608              	.LFE275:
 609              		.size	spiStartSend, .-spiStartSend
 610              		.align	2
 611 0238 AFF30080 		.p2align 4,,15
ARM GAS  /tmp/ccuPkBPP.s 			page 12


 611      AFF30080 
 612              		.global	spiStartReceive
 613              		.thumb
 614              		.thumb_func
 615              		.type	spiStartReceive, %function
 616              	spiStartReceive:
 617              	.LFB276:
 618              		.loc 5 252 0
 619              		.cfi_startproc
 620              		@ args = 0, pretend = 0, frame = 16
 621              		@ frame_needed = 0, uses_anonymous_args = 0
 622 0240 00B5     		push	{lr}
 623              		.cfi_def_cfa_offset 4
 624              		.cfi_offset 14, -4
 625 0242 85B0     		sub	sp, sp, #20
 626              		.cfi_def_cfa_offset 24
 627 0244 0390     		str	r0, [sp, #12]
 628 0246 0291     		str	r1, [sp, #8]
 629 0248 0192     		str	r2, [sp, #4]
 630              		.loc 5 256 0
 631 024a FFF7F9FE 		bl	osalSysLock
 632              		.loc 5 258 0
 633 024e 039B     		ldr	r3, [sp, #12]
 634 0250 0322     		movs	r2, #3
 635 0252 1A70     		strb	r2, [r3]
 636 0254 0398     		ldr	r0, [sp, #12]
 637 0256 0299     		ldr	r1, [sp, #8]
 638 0258 019A     		ldr	r2, [sp, #4]
 639 025a FFF7FEFF 		bl	spi_lld_receive
 640              		.loc 5 259 0
 641 025e FFF7F7FE 		bl	osalSysUnlock
 642              		.loc 5 260 0
 643 0262 05B0     		add	sp, sp, #20
 644              		@ sp needed
 645 0264 5DF804FB 		ldr	pc, [sp], #4
 646              		.cfi_endproc
 647              	.LFE276:
 648              		.size	spiStartReceive, .-spiStartReceive
 649              		.align	2
 650 0268 AFF30080 		.p2align 4,,15
 650      AFF30080 
 651              		.global	spiIgnore
 652              		.thumb
 653              		.thumb_func
 654              		.type	spiIgnore, %function
 655              	spiIgnore:
 656              	.LFB277:
 657              		.loc 5 277 0
 658              		.cfi_startproc
 659              		@ args = 0, pretend = 0, frame = 8
 660              		@ frame_needed = 0, uses_anonymous_args = 0
 661 0270 00B5     		push	{lr}
 662              		.cfi_def_cfa_offset 4
 663              		.cfi_offset 14, -4
 664 0272 83B0     		sub	sp, sp, #12
 665              		.cfi_def_cfa_offset 16
 666 0274 0190     		str	r0, [sp, #4]
ARM GAS  /tmp/ccuPkBPP.s 			page 13


 667 0276 0091     		str	r1, [sp]
 668              		.loc 5 281 0
 669 0278 FFF7E2FE 		bl	osalSysLock
 670              		.loc 5 284 0
 671 027c 019B     		ldr	r3, [sp, #4]
 672 027e 0322     		movs	r2, #3
 673 0280 1A70     		strb	r2, [r3]
 674 0282 0198     		ldr	r0, [sp, #4]
 675 0284 0099     		ldr	r1, [sp]
 676 0286 FFF7FEFF 		bl	spi_lld_ignore
 677              		.loc 5 285 0
 678 028a 019B     		ldr	r3, [sp, #4]
 679 028c 0833     		adds	r3, r3, #8
 680 028e 1846     		mov	r0, r3
 681 0290 FFF7E6FE 		bl	osalThreadSuspendS
 682              		.loc 5 286 0
 683 0294 FFF7DCFE 		bl	osalSysUnlock
 684              		.loc 5 287 0
 685 0298 03B0     		add	sp, sp, #12
 686              		@ sp needed
 687 029a 5DF804FB 		ldr	pc, [sp], #4
 688              		.cfi_endproc
 689              	.LFE277:
 690              		.size	spiIgnore, .-spiIgnore
 691 029e 00BF     		.align	2
 692              		.p2align 4,,15
 693              		.global	spiExchange
 694              		.thumb
 695              		.thumb_func
 696              		.type	spiExchange, %function
 697              	spiExchange:
 698              	.LFB278:
 699              		.loc 5 308 0
 700              		.cfi_startproc
 701              		@ args = 0, pretend = 0, frame = 16
 702              		@ frame_needed = 0, uses_anonymous_args = 0
 703 02a0 00B5     		push	{lr}
 704              		.cfi_def_cfa_offset 4
 705              		.cfi_offset 14, -4
 706 02a2 85B0     		sub	sp, sp, #20
 707              		.cfi_def_cfa_offset 24
 708 02a4 0390     		str	r0, [sp, #12]
 709 02a6 0291     		str	r1, [sp, #8]
 710 02a8 0192     		str	r2, [sp, #4]
 711 02aa 0093     		str	r3, [sp]
 712              		.loc 5 313 0
 713 02ac FFF7C8FE 		bl	osalSysLock
 714              		.loc 5 316 0
 715 02b0 039B     		ldr	r3, [sp, #12]
 716 02b2 0322     		movs	r2, #3
 717 02b4 1A70     		strb	r2, [r3]
 718 02b6 0398     		ldr	r0, [sp, #12]
 719 02b8 0299     		ldr	r1, [sp, #8]
 720 02ba 019A     		ldr	r2, [sp, #4]
 721 02bc 009B     		ldr	r3, [sp]
 722 02be FFF7FEFF 		bl	spi_lld_exchange
 723              		.loc 5 317 0
ARM GAS  /tmp/ccuPkBPP.s 			page 14


 724 02c2 039B     		ldr	r3, [sp, #12]
 725 02c4 0833     		adds	r3, r3, #8
 726 02c6 1846     		mov	r0, r3
 727 02c8 FFF7CAFE 		bl	osalThreadSuspendS
 728              		.loc 5 318 0
 729 02cc FFF7C0FE 		bl	osalSysUnlock
 730              		.loc 5 319 0
 731 02d0 05B0     		add	sp, sp, #20
 732              		@ sp needed
 733 02d2 5DF804FB 		ldr	pc, [sp], #4
 734              		.cfi_endproc
 735              	.LFE278:
 736              		.size	spiExchange, .-spiExchange
 737 02d6 00BF     		.align	2
 738 02d8 AFF30080 		.p2align 4,,15
 738      AFF30080 
 739              		.global	spiSend
 740              		.thumb
 741              		.thumb_func
 742              		.type	spiSend, %function
 743              	spiSend:
 744              	.LFB279:
 745              		.loc 5 337 0
 746              		.cfi_startproc
 747              		@ args = 0, pretend = 0, frame = 16
 748              		@ frame_needed = 0, uses_anonymous_args = 0
 749 02e0 00B5     		push	{lr}
 750              		.cfi_def_cfa_offset 4
 751              		.cfi_offset 14, -4
 752 02e2 85B0     		sub	sp, sp, #20
 753              		.cfi_def_cfa_offset 24
 754 02e4 0390     		str	r0, [sp, #12]
 755 02e6 0291     		str	r1, [sp, #8]
 756 02e8 0192     		str	r2, [sp, #4]
 757              		.loc 5 341 0
 758 02ea FFF7A9FE 		bl	osalSysLock
 759              		.loc 5 344 0
 760 02ee 039B     		ldr	r3, [sp, #12]
 761 02f0 0322     		movs	r2, #3
 762 02f2 1A70     		strb	r2, [r3]
 763 02f4 0398     		ldr	r0, [sp, #12]
 764 02f6 0299     		ldr	r1, [sp, #8]
 765 02f8 019A     		ldr	r2, [sp, #4]
 766 02fa FFF7FEFF 		bl	spi_lld_send
 767              		.loc 5 345 0
 768 02fe 039B     		ldr	r3, [sp, #12]
 769 0300 0833     		adds	r3, r3, #8
 770 0302 1846     		mov	r0, r3
 771 0304 FFF7ACFE 		bl	osalThreadSuspendS
 772              		.loc 5 346 0
 773 0308 FFF7A2FE 		bl	osalSysUnlock
 774              		.loc 5 347 0
 775 030c 05B0     		add	sp, sp, #20
 776              		@ sp needed
 777 030e 5DF804FB 		ldr	pc, [sp], #4
 778              		.cfi_endproc
 779              	.LFE279:
ARM GAS  /tmp/ccuPkBPP.s 			page 15


 780              		.size	spiSend, .-spiSend
 781 0312 00BF     		.align	2
 782 0314 AFF30080 		.p2align 4,,15
 782      AFF30080 
 782      AFF30080 
 783              		.global	spiReceive
 784              		.thumb
 785              		.thumb_func
 786              		.type	spiReceive, %function
 787              	spiReceive:
 788              	.LFB280:
 789              		.loc 5 365 0
 790              		.cfi_startproc
 791              		@ args = 0, pretend = 0, frame = 16
 792              		@ frame_needed = 0, uses_anonymous_args = 0
 793 0320 00B5     		push	{lr}
 794              		.cfi_def_cfa_offset 4
 795              		.cfi_offset 14, -4
 796 0322 85B0     		sub	sp, sp, #20
 797              		.cfi_def_cfa_offset 24
 798 0324 0390     		str	r0, [sp, #12]
 799 0326 0291     		str	r1, [sp, #8]
 800 0328 0192     		str	r2, [sp, #4]
 801              		.loc 5 369 0
 802 032a FFF789FE 		bl	osalSysLock
 803              		.loc 5 372 0
 804 032e 039B     		ldr	r3, [sp, #12]
 805 0330 0322     		movs	r2, #3
 806 0332 1A70     		strb	r2, [r3]
 807 0334 0398     		ldr	r0, [sp, #12]
 808 0336 0299     		ldr	r1, [sp, #8]
 809 0338 019A     		ldr	r2, [sp, #4]
 810 033a FFF7FEFF 		bl	spi_lld_receive
 811              		.loc 5 373 0
 812 033e 039B     		ldr	r3, [sp, #12]
 813 0340 0833     		adds	r3, r3, #8
 814 0342 1846     		mov	r0, r3
 815 0344 FFF78CFE 		bl	osalThreadSuspendS
 816              		.loc 5 374 0
 817 0348 FFF782FE 		bl	osalSysUnlock
 818              		.loc 5 375 0
 819 034c 05B0     		add	sp, sp, #20
 820              		@ sp needed
 821 034e 5DF804FB 		ldr	pc, [sp], #4
 822              		.cfi_endproc
 823              	.LFE280:
 824              		.size	spiReceive, .-spiReceive
 825 0352 00BF     		.align	2
 826 0354 AFF30080 		.p2align 4,,15
 826      AFF30080 
 826      AFF30080 
 827              		.global	spiAcquireBus
 828              		.thumb
 829              		.thumb_func
 830              		.type	spiAcquireBus, %function
 831              	spiAcquireBus:
 832              	.LFB281:
ARM GAS  /tmp/ccuPkBPP.s 			page 16


 833              		.loc 5 390 0
 834              		.cfi_startproc
 835              		@ args = 0, pretend = 0, frame = 8
 836              		@ frame_needed = 0, uses_anonymous_args = 0
 837 0360 00B5     		push	{lr}
 838              		.cfi_def_cfa_offset 4
 839              		.cfi_offset 14, -4
 840 0362 83B0     		sub	sp, sp, #12
 841              		.cfi_def_cfa_offset 16
 842 0364 0190     		str	r0, [sp, #4]
 843              		.loc 5 394 0
 844 0366 019B     		ldr	r3, [sp, #4]
 845 0368 0C33     		adds	r3, r3, #12
 846 036a 1846     		mov	r0, r3
 847 036c FFF798FE 		bl	osalMutexLock
 848              		.loc 5 395 0
 849 0370 03B0     		add	sp, sp, #12
 850              		@ sp needed
 851 0372 5DF804FB 		ldr	pc, [sp], #4
 852              		.cfi_endproc
 853              	.LFE281:
 854              		.size	spiAcquireBus, .-spiAcquireBus
 855 0376 00BF     		.align	2
 856 0378 AFF30080 		.p2align 4,,15
 856      AFF30080 
 857              		.global	spiReleaseBus
 858              		.thumb
 859              		.thumb_func
 860              		.type	spiReleaseBus, %function
 861              	spiReleaseBus:
 862              	.LFB282:
 863              		.loc 5 406 0
 864              		.cfi_startproc
 865              		@ args = 0, pretend = 0, frame = 8
 866              		@ frame_needed = 0, uses_anonymous_args = 0
 867 0380 00B5     		push	{lr}
 868              		.cfi_def_cfa_offset 4
 869              		.cfi_offset 14, -4
 870 0382 83B0     		sub	sp, sp, #12
 871              		.cfi_def_cfa_offset 16
 872 0384 0190     		str	r0, [sp, #4]
 873              		.loc 5 410 0
 874 0386 019B     		ldr	r3, [sp, #4]
 875 0388 0C33     		adds	r3, r3, #12
 876 038a 1846     		mov	r0, r3
 877 038c FFF798FE 		bl	osalMutexUnlock
 878              		.loc 5 411 0
 879 0390 03B0     		add	sp, sp, #12
 880              		@ sp needed
 881 0392 5DF804FB 		ldr	pc, [sp], #4
 882              		.cfi_endproc
 883              	.LFE282:
 884              		.size	spiReleaseBus, .-spiReleaseBus
 885              	.Letext0:
 886              		.file 6 "/nfs/nfs5/home/research/hardware/arm2/gcc-arm-embedded/gcc-arm-none-eabi-4_8-2014q2/lib/g
 887              		.file 7 "/nfs/nfs5/home/research/hardware/arm2/gcc-arm-embedded/gcc-arm-none-eabi-4_8-2014q2/arm-n
 888              		.file 8 "/nfs/nfs5/home/research/hardware/arm2/gcc-arm-embedded/gcc-arm-none-eabi-4_8-2014q2/arm-n
ARM GAS  /tmp/ccuPkBPP.s 			page 17


 889              		.file 9 "../../ChibiOS/os/rt/ports/ARMCMx/compilers/GCC/chtypes.h"
 890              		.file 10 "../../ChibiOS/os/rt/include/chsystypes.h"
 891              		.file 11 "../../ChibiOS/os/rt/include/chschd.h"
 892              		.file 12 "../../ChibiOS/os/ext/CMSIS/ST/STM32L4xx/stm32l476xx.h"
 893              		.file 13 "../../ChibiOS/os/rt/ports/ARMCMx/chcore.h"
 894              		.file 14 "../../ChibiOS/os/rt/include/chtm.h"
 895              		.file 15 "../../ChibiOS/os/rt/include/chsem.h"
 896              		.file 16 "../../ChibiOS/os/rt/include/chmtx.h"
 897              		.file 17 "../../ChibiOS/os/hal/ports/STM32/LLD/DMAv1/stm32_dma.h"
 898              		.file 18 "../../ChibiOS/os/hal/ports/STM32/LLD/GPIOv3/pal_lld.h"
 899              		.file 19 "../../ChibiOS/os/hal/include/spi.h"
 900              		.file 20 "../../ChibiOS/os/hal/ports/STM32/LLD/SPIv2/spi_lld.h"
 901              		.file 21 "../../ChibiOS/os/ext/CMSIS/include/core_cm4.h"