ARM GAS  /tmp/ccHTXjQY.s 			page 1


   1              		.syntax unified
   2              		.cpu cortex-m4
   3              		.fpu softvfp
   4              		.eabi_attribute 20, 1
   5              		.eabi_attribute 21, 1
   6              		.eabi_attribute 23, 3
   7              		.eabi_attribute 24, 1
   8              		.eabi_attribute 25, 1
   9              		.eabi_attribute 26, 1
  10              		.eabi_attribute 30, 6
  11              		.eabi_attribute 34, 1
  12              		.eabi_attribute 18, 4
  13              		.thumb
  14              		.file	"st.c"
  15              		.text
  16              	.Ltext0:
  17              		.cfi_sections	.debug_frame
  18              		.align	2
  19              		.p2align 4,,15
  20              		.thumb
  21              		.thumb_func
  22              		.type	st_lld_start_alarm, %function
  23              	st_lld_start_alarm:
  24              	.LFB262:
  25              		.file 1 "../../ChibiOS/os/hal/ports/STM32/LLD/TIMv1/st_lld.h"
  26              		.loc 1 153 0
  27              		.cfi_startproc
  28              		@ args = 0, pretend = 0, frame = 8
  29              		@ frame_needed = 0, uses_anonymous_args = 0
  30              		@ link register save eliminated.
  31 0000 82B0     		sub	sp, sp, #8
  32              		.cfi_def_cfa_offset 8
  33 0002 0190     		str	r0, [sp, #4]
  34              		.loc 1 155 0
  35 0004 4FF08043 		mov	r3, #1073741824
  36 0008 019A     		ldr	r2, [sp, #4]
  37 000a 5A63     		str	r2, [r3, #52]
  38              		.loc 1 156 0
  39 000c 4FF08043 		mov	r3, #1073741824
  40 0010 0022     		movs	r2, #0
  41 0012 1A61     		str	r2, [r3, #16]
  42              		.loc 1 157 0
  43 0014 4FF08043 		mov	r3, #1073741824
  44 0018 0222     		movs	r2, #2
  45 001a DA60     		str	r2, [r3, #12]
  46              		.loc 1 158 0
  47 001c 02B0     		add	sp, sp, #8
  48              		@ sp needed
  49 001e 7047     		bx	lr
  50              		.cfi_endproc
  51              	.LFE262:
  52              		.size	st_lld_start_alarm, .-st_lld_start_alarm
  53              		.align	2
  54              		.p2align 4,,15
  55              		.thumb
  56              		.thumb_func
  57              		.type	st_lld_stop_alarm, %function
ARM GAS  /tmp/ccHTXjQY.s 			page 2


  58              	st_lld_stop_alarm:
  59              	.LFB263:
  60              		.loc 1 165 0
  61              		.cfi_startproc
  62              		@ args = 0, pretend = 0, frame = 0
  63              		@ frame_needed = 0, uses_anonymous_args = 0
  64              		@ link register save eliminated.
  65              		.loc 1 167 0
  66 0020 4FF08043 		mov	r3, #1073741824
  67 0024 0022     		movs	r2, #0
  68 0026 DA60     		str	r2, [r3, #12]
  69              		.loc 1 168 0
  70 0028 7047     		bx	lr
  71              		.cfi_endproc
  72              	.LFE263:
  73              		.size	st_lld_stop_alarm, .-st_lld_stop_alarm
  74 002a 00BF     		.align	2
  75 002c AFF30080 		.p2align 4,,15
  76              		.thumb
  77              		.thumb_func
  78              		.type	st_lld_set_alarm, %function
  79              	st_lld_set_alarm:
  80              	.LFB264:
  81              		.loc 1 177 0
  82              		.cfi_startproc
  83              		@ args = 0, pretend = 0, frame = 8
  84              		@ frame_needed = 0, uses_anonymous_args = 0
  85              		@ link register save eliminated.
  86 0030 82B0     		sub	sp, sp, #8
  87              		.cfi_def_cfa_offset 8
  88 0032 0190     		str	r0, [sp, #4]
  89              		.loc 1 179 0
  90 0034 4FF08043 		mov	r3, #1073741824
  91 0038 019A     		ldr	r2, [sp, #4]
  92 003a 5A63     		str	r2, [r3, #52]
  93              		.loc 1 180 0
  94 003c 02B0     		add	sp, sp, #8
  95              		@ sp needed
  96 003e 7047     		bx	lr
  97              		.cfi_endproc
  98              	.LFE264:
  99              		.size	st_lld_set_alarm, .-st_lld_set_alarm
 100              		.align	2
 101              		.p2align 4,,15
 102              		.thumb
 103              		.thumb_func
 104              		.type	st_lld_get_alarm, %function
 105              	st_lld_get_alarm:
 106              	.LFB265:
 107              		.loc 1 189 0
 108              		.cfi_startproc
 109              		@ args = 0, pretend = 0, frame = 0
 110              		@ frame_needed = 0, uses_anonymous_args = 0
 111              		@ link register save eliminated.
 112              		.loc 1 191 0
 113 0040 4FF08043 		mov	r3, #1073741824
 114 0044 5B6B     		ldr	r3, [r3, #52]
ARM GAS  /tmp/ccHTXjQY.s 			page 3


 115              		.loc 1 192 0
 116 0046 1846     		mov	r0, r3
 117 0048 7047     		bx	lr
 118              		.cfi_endproc
 119              	.LFE265:
 120              		.size	st_lld_get_alarm, .-st_lld_get_alarm
 121 004a 00BF     		.align	2
 122 004c AFF30080 		.p2align 4,,15
 123              		.global	stInit
 124              		.thumb
 125              		.thumb_func
 126              		.type	stInit, %function
 127              	stInit:
 128              	.LFB267:
 129              		.file 2 "../../ChibiOS/os/hal/src/st.c"
 130              		.loc 2 60 0
 131              		.cfi_startproc
 132              		@ args = 0, pretend = 0, frame = 0
 133              		@ frame_needed = 0, uses_anonymous_args = 0
 134 0050 08B5     		push	{r3, lr}
 135              		.cfi_def_cfa_offset 8
 136              		.cfi_offset 3, -8
 137              		.cfi_offset 14, -4
 138              		.loc 2 62 0
 139 0052 FFF7FEFF 		bl	st_lld_init
 140              		.loc 2 63 0
 141 0056 08BD     		pop	{r3, pc}
 142              		.cfi_endproc
 143              	.LFE267:
 144              		.size	stInit, .-stInit
 145              		.align	2
 146 0058 AFF30080 		.p2align 4,,15
 146      AFF30080 
 147              		.global	stStartAlarm
 148              		.thumb
 149              		.thumb_func
 150              		.type	stStartAlarm, %function
 151              	stStartAlarm:
 152              	.LFB268:
 153              		.loc 2 77 0
 154              		.cfi_startproc
 155              		@ args = 0, pretend = 0, frame = 8
 156              		@ frame_needed = 0, uses_anonymous_args = 0
 157 0060 00B5     		push	{lr}
 158              		.cfi_def_cfa_offset 4
 159              		.cfi_offset 14, -4
 160 0062 83B0     		sub	sp, sp, #12
 161              		.cfi_def_cfa_offset 16
 162 0064 0190     		str	r0, [sp, #4]
 163              		.loc 2 81 0
 164 0066 0198     		ldr	r0, [sp, #4]
 165 0068 FFF7CAFF 		bl	st_lld_start_alarm
 166              		.loc 2 82 0
 167 006c 03B0     		add	sp, sp, #12
 168              		@ sp needed
 169 006e 5DF804FB 		ldr	pc, [sp], #4
 170              		.cfi_endproc
ARM GAS  /tmp/ccHTXjQY.s 			page 4


 171              	.LFE268:
 172              		.size	stStartAlarm, .-stStartAlarm
 173 0072 00BF     		.align	2
 174 0074 AFF30080 		.p2align 4,,15
 174      AFF30080 
 174      AFF30080 
 175              		.global	stStopAlarm
 176              		.thumb
 177              		.thumb_func
 178              		.type	stStopAlarm, %function
 179              	stStopAlarm:
 180              	.LFB269:
 181              		.loc 2 91 0
 182              		.cfi_startproc
 183              		@ args = 0, pretend = 0, frame = 0
 184              		@ frame_needed = 0, uses_anonymous_args = 0
 185 0080 08B5     		push	{r3, lr}
 186              		.cfi_def_cfa_offset 8
 187              		.cfi_offset 3, -8
 188              		.cfi_offset 14, -4
 189              		.loc 2 93 0
 190 0082 FFF7CDFF 		bl	st_lld_stop_alarm
 191              		.loc 2 94 0
 192 0086 08BD     		pop	{r3, pc}
 193              		.cfi_endproc
 194              	.LFE269:
 195              		.size	stStopAlarm, .-stStopAlarm
 196              		.align	2
 197 0088 AFF30080 		.p2align 4,,15
 197      AFF30080 
 198              		.global	stSetAlarm
 199              		.thumb
 200              		.thumb_func
 201              		.type	stSetAlarm, %function
 202              	stSetAlarm:
 203              	.LFB270:
 204              		.loc 2 105 0
 205              		.cfi_startproc
 206              		@ args = 0, pretend = 0, frame = 8
 207              		@ frame_needed = 0, uses_anonymous_args = 0
 208 0090 00B5     		push	{lr}
 209              		.cfi_def_cfa_offset 4
 210              		.cfi_offset 14, -4
 211 0092 83B0     		sub	sp, sp, #12
 212              		.cfi_def_cfa_offset 16
 213 0094 0190     		str	r0, [sp, #4]
 214              		.loc 2 109 0
 215 0096 0198     		ldr	r0, [sp, #4]
 216 0098 FFF7CAFF 		bl	st_lld_set_alarm
 217              		.loc 2 110 0
 218 009c 03B0     		add	sp, sp, #12
 219              		@ sp needed
 220 009e 5DF804FB 		ldr	pc, [sp], #4
 221              		.cfi_endproc
 222              	.LFE270:
 223              		.size	stSetAlarm, .-stSetAlarm
 224 00a2 00BF     		.align	2
ARM GAS  /tmp/ccHTXjQY.s 			page 5


 225 00a4 AFF30080 		.p2align 4,,15
 225      AFF30080 
 225      AFF30080 
 226              		.global	stGetAlarm
 227              		.thumb
 228              		.thumb_func
 229              		.type	stGetAlarm, %function
 230              	stGetAlarm:
 231              	.LFB271:
 232              		.loc 2 121 0
 233              		.cfi_startproc
 234              		@ args = 0, pretend = 0, frame = 0
 235              		@ frame_needed = 0, uses_anonymous_args = 0
 236 00b0 08B5     		push	{r3, lr}
 237              		.cfi_def_cfa_offset 8
 238              		.cfi_offset 3, -8
 239              		.cfi_offset 14, -4
 240              		.loc 2 125 0
 241 00b2 FFF7C5FF 		bl	st_lld_get_alarm
 242 00b6 0346     		mov	r3, r0
 243              		.loc 2 126 0
 244 00b8 1846     		mov	r0, r3
 245 00ba 08BD     		pop	{r3, pc}
 246              		.cfi_endproc
 247              	.LFE271:
 248              		.size	stGetAlarm, .-stGetAlarm
 249              	.Letext0:
 250              		.file 3 "/nfs/nfs5/home/research/hardware/arm2/gcc-arm-embedded/gcc-arm-none-eabi-4_8-2014q2/arm-n
 251              		.file 4 "/nfs/nfs5/home/research/hardware/arm2/gcc-arm-embedded/gcc-arm-none-eabi-4_8-2014q2/arm-n
 252              		.file 5 "../../ChibiOS/os/rt/ports/ARMCMx/compilers/GCC/chtypes.h"
 253              		.file 6 "../../ChibiOS/os/rt/include/chsystypes.h"
 254              		.file 7 "../../ChibiOS/os/rt/include/chschd.h"
 255              		.file 8 "../../ChibiOS/os/rt/ports/ARMCMx/chcore.h"
 256              		.file 9 "../../ChibiOS/os/rt/ports/ARMCMx/chcore_v7m.h"
 257              		.file 10 "../../ChibiOS/os/rt/include/chtm.h"
 258              		.file 11 "../../ChibiOS/os/rt/include/chsem.h"
 259              		.file 12 "../../ChibiOS/os/rt/include/chmtx.h"
 260              		.file 13 "../../ChibiOS/os/hal/ports/STM32/LLD/TIMv1/stm32_tim.h"
 261              		.file 14 "../../ChibiOS/os/ext/CMSIS/include/core_cm4.h"