ARM GAS  /tmp/ccEKxQXe.s 			page 1


   1              		.syntax unified
   2              		.cpu cortex-m4
   3              		.fpu softvfp
   4              		.eabi_attribute 20, 1
   5              		.eabi_attribute 21, 1
   6              		.eabi_attribute 23, 3
   7              		.eabi_attribute 24, 1
   8              		.eabi_attribute 25, 1
   9              		.eabi_attribute 26, 1
  10              		.eabi_attribute 30, 6
  11              		.eabi_attribute 34, 1
  12              		.eabi_attribute 18, 4
  13              		.thumb
  14              		.file	"stm32_dma.c"
  15              		.text
  16              	.Ltext0:
  17              		.cfi_sections	.debug_frame
  18              		.global	_stm32_dma_streams
  19              		.section	.rodata
  20              		.align	2
  21              		.type	_stm32_dma_streams, %object
  22              		.size	_stm32_dma_streams, 280
  23              	_stm32_dma_streams:
  24 0000 00000240 		.word	1073872896
  25 0004 08000240 		.word	1073872904
  26 0008 01000000 		.word	1
  27 000c A8000240 		.word	1073873064
  28 0010 00       		.byte	0
  29 0011 00       		.byte	0
  30 0012 0B       		.byte	11
  31 0013 00       		.space	1
  32 0014 00000240 		.word	1073872896
  33 0018 1C000240 		.word	1073872924
  34 001c 02000000 		.word	2
  35 0020 A8000240 		.word	1073873064
  36 0024 04       		.byte	4
  37 0025 01       		.byte	1
  38 0026 0C       		.byte	12
  39 0027 00       		.space	1
  40 0028 00000240 		.word	1073872896
  41 002c 30000240 		.word	1073872944
  42 0030 04000000 		.word	4
  43 0034 A8000240 		.word	1073873064
  44 0038 08       		.byte	8
  45 0039 02       		.byte	2
  46 003a 0D       		.byte	13
  47 003b 00       		.space	1
  48 003c 00000240 		.word	1073872896
  49 0040 44000240 		.word	1073872964
  50 0044 08000000 		.word	8
  51 0048 A8000240 		.word	1073873064
  52 004c 0C       		.byte	12
  53 004d 03       		.byte	3
  54 004e 0E       		.byte	14
  55 004f 00       		.space	1
  56 0050 00000240 		.word	1073872896
  57 0054 58000240 		.word	1073872984
ARM GAS  /tmp/ccEKxQXe.s 			page 2


  58 0058 10000000 		.word	16
  59 005c A8000240 		.word	1073873064
  60 0060 10       		.byte	16
  61 0061 04       		.byte	4
  62 0062 0F       		.byte	15
  63 0063 00       		.space	1
  64 0064 00000240 		.word	1073872896
  65 0068 6C000240 		.word	1073873004
  66 006c 20000000 		.word	32
  67 0070 A8000240 		.word	1073873064
  68 0074 14       		.byte	20
  69 0075 05       		.byte	5
  70 0076 10       		.byte	16
  71 0077 00       		.space	1
  72 0078 00000240 		.word	1073872896
  73 007c 80000240 		.word	1073873024
  74 0080 40000000 		.word	64
  75 0084 A8000240 		.word	1073873064
  76 0088 18       		.byte	24
  77 0089 06       		.byte	6
  78 008a 11       		.byte	17
  79 008b 00       		.space	1
  80 008c 00040240 		.word	1073873920
  81 0090 08040240 		.word	1073873928
  82 0094 80000000 		.word	128
  83 0098 A8040240 		.word	1073874088
  84 009c 00       		.byte	0
  85 009d 07       		.byte	7
  86 009e 38       		.byte	56
  87 009f 00       		.space	1
  88 00a0 00040240 		.word	1073873920
  89 00a4 1C040240 		.word	1073873948
  90 00a8 00010000 		.word	256
  91 00ac A8040240 		.word	1073874088
  92 00b0 04       		.byte	4
  93 00b1 08       		.byte	8
  94 00b2 39       		.byte	57
  95 00b3 00       		.space	1
  96 00b4 00040240 		.word	1073873920
  97 00b8 30040240 		.word	1073873968
  98 00bc 00020000 		.word	512
  99 00c0 A8040240 		.word	1073874088
 100 00c4 08       		.byte	8
 101 00c5 09       		.byte	9
 102 00c6 3A       		.byte	58
 103 00c7 00       		.space	1
 104 00c8 00040240 		.word	1073873920
 105 00cc 44040240 		.word	1073873988
 106 00d0 00040000 		.word	1024
 107 00d4 A8040240 		.word	1073874088
 108 00d8 0C       		.byte	12
 109 00d9 0A       		.byte	10
 110 00da 3B       		.byte	59
 111 00db 00       		.space	1
 112 00dc 00040240 		.word	1073873920
 113 00e0 58040240 		.word	1073874008
 114 00e4 00080000 		.word	2048
ARM GAS  /tmp/ccEKxQXe.s 			page 3


 115 00e8 A8040240 		.word	1073874088
 116 00ec 10       		.byte	16
 117 00ed 0B       		.byte	11
 118 00ee 3C       		.byte	60
 119 00ef 00       		.space	1
 120 00f0 00040240 		.word	1073873920
 121 00f4 6C040240 		.word	1073874028
 122 00f8 00100000 		.word	4096
 123 00fc A8040240 		.word	1073874088
 124 0100 14       		.byte	20
 125 0101 0C       		.byte	12
 126 0102 44       		.byte	68
 127 0103 00       		.space	1
 128 0104 00040240 		.word	1073873920
 129 0108 80040240 		.word	1073874048
 130 010c 00200000 		.word	8192
 131 0110 A8040240 		.word	1073874088
 132 0114 18       		.byte	24
 133 0115 0D       		.byte	13
 134 0116 45       		.byte	69
 135 0117 00       		.space	1
 136              		.comm	_stm32_dma_isr_redir,112,4
 137              		.bss
 138              		.align	2
 139              	dma_streams_mask:
 140 0000 00000000 		.space	4
 141              		.text
 142              		.align	2
 143              		.p2align 4,,15
 144              		.global	Vector6C
 145              		.thumb
 146              		.thumb_func
 147              		.type	Vector6C, %function
 148              	Vector6C:
 149              	.LFB267:
 150              		.file 1 "../../ChibiOS/os/hal/ports/STM32/LLD/DMAv1/stm32_dma.c"
 151              		.loc 1 204 0
 152              		.cfi_startproc
 153              		@ args = 0, pretend = 0, frame = 8
 154              		@ frame_needed = 0, uses_anonymous_args = 0
 155 0000 00B5     		push	{lr}
 156              		.cfi_def_cfa_offset 4
 157              		.cfi_offset 14, -4
 158 0002 83B0     		sub	sp, sp, #12
 159              		.cfi_def_cfa_offset 16
 160              	.LBB2:
 161              		.loc 1 208 0
 162 0004 0023     		movs	r3, #0
 163 0006 0193     		str	r3, [sp, #4]
 164 0008 144B     		ldr	r3, .L3
 165 000a 1A68     		ldr	r2, [r3]
 166 000c 0023     		movs	r3, #0
 167 000e 22FA03F3 		lsr	r3, r2, r3
 168 0012 03F00F03 		and	r3, r3, #15
 169 0016 0093     		str	r3, [sp]
 170 0018 009B     		ldr	r3, [sp]
 171 001a 03F00F03 		and	r3, r3, #15
ARM GAS  /tmp/ccEKxQXe.s 			page 4


 172 001e 002B     		cmp	r3, #0
 173 0020 17D0     		beq	.L2
 174              		.loc 1 208 0 is_stmt 0 discriminator 1
 175 0022 0E4B     		ldr	r3, .L3
 176 0024 0022     		movs	r2, #0
 177 0026 0099     		ldr	r1, [sp]
 178 0028 01FA02F2 		lsl	r2, r1, r2
 179 002c 5A60     		str	r2, [r3, #4]
 180 002e 0C4B     		ldr	r3, .L3+4
 181 0030 019A     		ldr	r2, [sp, #4]
 182 0032 53F83230 		ldr	r3, [r3, r2, lsl #3]
 183 0036 002B     		cmp	r3, #0
 184 0038 0BD0     		beq	.L2
 185 003a 094B     		ldr	r3, .L3+4
 186 003c 019A     		ldr	r2, [sp, #4]
 187 003e 53F83220 		ldr	r2, [r3, r2, lsl #3]
 188 0042 0749     		ldr	r1, .L3+4
 189 0044 019B     		ldr	r3, [sp, #4]
 190 0046 DB00     		lsls	r3, r3, #3
 191 0048 0B44     		add	r3, r3, r1
 192 004a 5B68     		ldr	r3, [r3, #4]
 193 004c 1846     		mov	r0, r3
 194 004e 0099     		ldr	r1, [sp]
 195 0050 9047     		blx	r2
 196              	.L2:
 197              	.LBE2:
 198              		.loc 1 210 0 is_stmt 1
 199 0052 FFF7FEFF 		bl	_port_irq_epilogue
 200              		.loc 1 211 0
 201 0056 03B0     		add	sp, sp, #12
 202              		@ sp needed
 203 0058 5DF804FB 		ldr	pc, [sp], #4
 204              	.L4:
 205              		.align	2
 206              	.L3:
 207 005c 00000240 		.word	1073872896
 208 0060 00000000 		.word	_stm32_dma_isr_redir
 209              		.cfi_endproc
 210              	.LFE267:
 211              		.size	Vector6C, .-Vector6C
 212              		.align	2
 213 0064 AFF30080 		.p2align 4,,15
 213      AFF30080 
 213      AFF30080 
 214              		.global	Vector70
 215              		.thumb
 216              		.thumb_func
 217              		.type	Vector70, %function
 218              	Vector70:
 219              	.LFB268:
 220              		.loc 1 220 0
 221              		.cfi_startproc
 222              		@ args = 0, pretend = 0, frame = 8
 223              		@ frame_needed = 0, uses_anonymous_args = 0
 224 0070 00B5     		push	{lr}
 225              		.cfi_def_cfa_offset 4
 226              		.cfi_offset 14, -4
ARM GAS  /tmp/ccEKxQXe.s 			page 5


 227 0072 83B0     		sub	sp, sp, #12
 228              		.cfi_def_cfa_offset 16
 229              	.LBB3:
 230              		.loc 1 224 0
 231 0074 0123     		movs	r3, #1
 232 0076 0193     		str	r3, [sp, #4]
 233 0078 144B     		ldr	r3, .L7
 234 007a 1A68     		ldr	r2, [r3]
 235 007c 0423     		movs	r3, #4
 236 007e 22FA03F3 		lsr	r3, r2, r3
 237 0082 03F00F03 		and	r3, r3, #15
 238 0086 0093     		str	r3, [sp]
 239 0088 009B     		ldr	r3, [sp]
 240 008a 03F00F03 		and	r3, r3, #15
 241 008e 002B     		cmp	r3, #0
 242 0090 17D0     		beq	.L6
 243              		.loc 1 224 0 is_stmt 0 discriminator 1
 244 0092 0E4B     		ldr	r3, .L7
 245 0094 0422     		movs	r2, #4
 246 0096 0099     		ldr	r1, [sp]
 247 0098 01FA02F2 		lsl	r2, r1, r2
 248 009c 5A60     		str	r2, [r3, #4]
 249 009e 0C4B     		ldr	r3, .L7+4
 250 00a0 019A     		ldr	r2, [sp, #4]
 251 00a2 53F83230 		ldr	r3, [r3, r2, lsl #3]
 252 00a6 002B     		cmp	r3, #0
 253 00a8 0BD0     		beq	.L6
 254 00aa 094B     		ldr	r3, .L7+4
 255 00ac 019A     		ldr	r2, [sp, #4]
 256 00ae 53F83220 		ldr	r2, [r3, r2, lsl #3]
 257 00b2 0749     		ldr	r1, .L7+4
 258 00b4 019B     		ldr	r3, [sp, #4]
 259 00b6 DB00     		lsls	r3, r3, #3
 260 00b8 0B44     		add	r3, r3, r1
 261 00ba 5B68     		ldr	r3, [r3, #4]
 262 00bc 1846     		mov	r0, r3
 263 00be 0099     		ldr	r1, [sp]
 264 00c0 9047     		blx	r2
 265              	.L6:
 266              	.LBE3:
 267              		.loc 1 226 0 is_stmt 1
 268 00c2 FFF7FEFF 		bl	_port_irq_epilogue
 269              		.loc 1 227 0
 270 00c6 03B0     		add	sp, sp, #12
 271              		@ sp needed
 272 00c8 5DF804FB 		ldr	pc, [sp], #4
 273              	.L8:
 274              		.align	2
 275              	.L7:
 276 00cc 00000240 		.word	1073872896
 277 00d0 00000000 		.word	_stm32_dma_isr_redir
 278              		.cfi_endproc
 279              	.LFE268:
 280              		.size	Vector70, .-Vector70
 281              		.align	2
 282 00d4 AFF30080 		.p2align 4,,15
 282      AFF30080 
ARM GAS  /tmp/ccEKxQXe.s 			page 6


 282      AFF30080 
 283              		.global	Vector74
 284              		.thumb
 285              		.thumb_func
 286              		.type	Vector74, %function
 287              	Vector74:
 288              	.LFB269:
 289              		.loc 1 236 0
 290              		.cfi_startproc
 291              		@ args = 0, pretend = 0, frame = 8
 292              		@ frame_needed = 0, uses_anonymous_args = 0
 293 00e0 00B5     		push	{lr}
 294              		.cfi_def_cfa_offset 4
 295              		.cfi_offset 14, -4
 296 00e2 83B0     		sub	sp, sp, #12
 297              		.cfi_def_cfa_offset 16
 298              	.LBB4:
 299              		.loc 1 240 0
 300 00e4 0223     		movs	r3, #2
 301 00e6 0193     		str	r3, [sp, #4]
 302 00e8 144B     		ldr	r3, .L11
 303 00ea 1A68     		ldr	r2, [r3]
 304 00ec 0823     		movs	r3, #8
 305 00ee 22FA03F3 		lsr	r3, r2, r3
 306 00f2 03F00F03 		and	r3, r3, #15
 307 00f6 0093     		str	r3, [sp]
 308 00f8 009B     		ldr	r3, [sp]
 309 00fa 03F00F03 		and	r3, r3, #15
 310 00fe 002B     		cmp	r3, #0
 311 0100 17D0     		beq	.L10
 312              		.loc 1 240 0 is_stmt 0 discriminator 1
 313 0102 0E4B     		ldr	r3, .L11
 314 0104 0822     		movs	r2, #8
 315 0106 0099     		ldr	r1, [sp]
 316 0108 01FA02F2 		lsl	r2, r1, r2
 317 010c 5A60     		str	r2, [r3, #4]
 318 010e 0C4B     		ldr	r3, .L11+4
 319 0110 019A     		ldr	r2, [sp, #4]
 320 0112 53F83230 		ldr	r3, [r3, r2, lsl #3]
 321 0116 002B     		cmp	r3, #0
 322 0118 0BD0     		beq	.L10
 323 011a 094B     		ldr	r3, .L11+4
 324 011c 019A     		ldr	r2, [sp, #4]
 325 011e 53F83220 		ldr	r2, [r3, r2, lsl #3]
 326 0122 0749     		ldr	r1, .L11+4
 327 0124 019B     		ldr	r3, [sp, #4]
 328 0126 DB00     		lsls	r3, r3, #3
 329 0128 0B44     		add	r3, r3, r1
 330 012a 5B68     		ldr	r3, [r3, #4]
 331 012c 1846     		mov	r0, r3
 332 012e 0099     		ldr	r1, [sp]
 333 0130 9047     		blx	r2
 334              	.L10:
 335              	.LBE4:
 336              		.loc 1 242 0 is_stmt 1
 337 0132 FFF7FEFF 		bl	_port_irq_epilogue
 338              		.loc 1 243 0
ARM GAS  /tmp/ccEKxQXe.s 			page 7


 339 0136 03B0     		add	sp, sp, #12
 340              		@ sp needed
 341 0138 5DF804FB 		ldr	pc, [sp], #4
 342              	.L12:
 343              		.align	2
 344              	.L11:
 345 013c 00000240 		.word	1073872896
 346 0140 00000000 		.word	_stm32_dma_isr_redir
 347              		.cfi_endproc
 348              	.LFE269:
 349              		.size	Vector74, .-Vector74
 350              		.align	2
 351 0144 AFF30080 		.p2align 4,,15
 351      AFF30080 
 351      AFF30080 
 352              		.global	Vector78
 353              		.thumb
 354              		.thumb_func
 355              		.type	Vector78, %function
 356              	Vector78:
 357              	.LFB270:
 358              		.loc 1 252 0
 359              		.cfi_startproc
 360              		@ args = 0, pretend = 0, frame = 8
 361              		@ frame_needed = 0, uses_anonymous_args = 0
 362 0150 00B5     		push	{lr}
 363              		.cfi_def_cfa_offset 4
 364              		.cfi_offset 14, -4
 365 0152 83B0     		sub	sp, sp, #12
 366              		.cfi_def_cfa_offset 16
 367              	.LBB5:
 368              		.loc 1 256 0
 369 0154 0323     		movs	r3, #3
 370 0156 0193     		str	r3, [sp, #4]
 371 0158 144B     		ldr	r3, .L15
 372 015a 1A68     		ldr	r2, [r3]
 373 015c 0C23     		movs	r3, #12
 374 015e 22FA03F3 		lsr	r3, r2, r3
 375 0162 03F00F03 		and	r3, r3, #15
 376 0166 0093     		str	r3, [sp]
 377 0168 009B     		ldr	r3, [sp]
 378 016a 03F00F03 		and	r3, r3, #15
 379 016e 002B     		cmp	r3, #0
 380 0170 17D0     		beq	.L14
 381              		.loc 1 256 0 is_stmt 0 discriminator 1
 382 0172 0E4B     		ldr	r3, .L15
 383 0174 0C22     		movs	r2, #12
 384 0176 0099     		ldr	r1, [sp]
 385 0178 01FA02F2 		lsl	r2, r1, r2
 386 017c 5A60     		str	r2, [r3, #4]
 387 017e 0C4B     		ldr	r3, .L15+4
 388 0180 019A     		ldr	r2, [sp, #4]
 389 0182 53F83230 		ldr	r3, [r3, r2, lsl #3]
 390 0186 002B     		cmp	r3, #0
 391 0188 0BD0     		beq	.L14
 392 018a 094B     		ldr	r3, .L15+4
 393 018c 019A     		ldr	r2, [sp, #4]
ARM GAS  /tmp/ccEKxQXe.s 			page 8


 394 018e 53F83220 		ldr	r2, [r3, r2, lsl #3]
 395 0192 0749     		ldr	r1, .L15+4
 396 0194 019B     		ldr	r3, [sp, #4]
 397 0196 DB00     		lsls	r3, r3, #3
 398 0198 0B44     		add	r3, r3, r1
 399 019a 5B68     		ldr	r3, [r3, #4]
 400 019c 1846     		mov	r0, r3
 401 019e 0099     		ldr	r1, [sp]
 402 01a0 9047     		blx	r2
 403              	.L14:
 404              	.LBE5:
 405              		.loc 1 258 0 is_stmt 1
 406 01a2 FFF7FEFF 		bl	_port_irq_epilogue
 407              		.loc 1 259 0
 408 01a6 03B0     		add	sp, sp, #12
 409              		@ sp needed
 410 01a8 5DF804FB 		ldr	pc, [sp], #4
 411              	.L16:
 412              		.align	2
 413              	.L15:
 414 01ac 00000240 		.word	1073872896
 415 01b0 00000000 		.word	_stm32_dma_isr_redir
 416              		.cfi_endproc
 417              	.LFE270:
 418              		.size	Vector78, .-Vector78
 419              		.align	2
 420 01b4 AFF30080 		.p2align 4,,15
 420      AFF30080 
 420      AFF30080 
 421              		.global	Vector7C
 422              		.thumb
 423              		.thumb_func
 424              		.type	Vector7C, %function
 425              	Vector7C:
 426              	.LFB271:
 427              		.loc 1 268 0
 428              		.cfi_startproc
 429              		@ args = 0, pretend = 0, frame = 8
 430              		@ frame_needed = 0, uses_anonymous_args = 0
 431 01c0 00B5     		push	{lr}
 432              		.cfi_def_cfa_offset 4
 433              		.cfi_offset 14, -4
 434 01c2 83B0     		sub	sp, sp, #12
 435              		.cfi_def_cfa_offset 16
 436              	.LBB6:
 437              		.loc 1 272 0
 438 01c4 0423     		movs	r3, #4
 439 01c6 0193     		str	r3, [sp, #4]
 440 01c8 144B     		ldr	r3, .L19
 441 01ca 1A68     		ldr	r2, [r3]
 442 01cc 1023     		movs	r3, #16
 443 01ce 22FA03F3 		lsr	r3, r2, r3
 444 01d2 03F00F03 		and	r3, r3, #15
 445 01d6 0093     		str	r3, [sp]
 446 01d8 009B     		ldr	r3, [sp]
 447 01da 03F00F03 		and	r3, r3, #15
 448 01de 002B     		cmp	r3, #0
ARM GAS  /tmp/ccEKxQXe.s 			page 9


 449 01e0 17D0     		beq	.L18
 450              		.loc 1 272 0 is_stmt 0 discriminator 1
 451 01e2 0E4B     		ldr	r3, .L19
 452 01e4 1022     		movs	r2, #16
 453 01e6 0099     		ldr	r1, [sp]
 454 01e8 01FA02F2 		lsl	r2, r1, r2
 455 01ec 5A60     		str	r2, [r3, #4]
 456 01ee 0C4B     		ldr	r3, .L19+4
 457 01f0 019A     		ldr	r2, [sp, #4]
 458 01f2 53F83230 		ldr	r3, [r3, r2, lsl #3]
 459 01f6 002B     		cmp	r3, #0
 460 01f8 0BD0     		beq	.L18
 461 01fa 094B     		ldr	r3, .L19+4
 462 01fc 019A     		ldr	r2, [sp, #4]
 463 01fe 53F83220 		ldr	r2, [r3, r2, lsl #3]
 464 0202 0749     		ldr	r1, .L19+4
 465 0204 019B     		ldr	r3, [sp, #4]
 466 0206 DB00     		lsls	r3, r3, #3
 467 0208 0B44     		add	r3, r3, r1
 468 020a 5B68     		ldr	r3, [r3, #4]
 469 020c 1846     		mov	r0, r3
 470 020e 0099     		ldr	r1, [sp]
 471 0210 9047     		blx	r2
 472              	.L18:
 473              	.LBE6:
 474              		.loc 1 274 0 is_stmt 1
 475 0212 FFF7FEFF 		bl	_port_irq_epilogue
 476              		.loc 1 275 0
 477 0216 03B0     		add	sp, sp, #12
 478              		@ sp needed
 479 0218 5DF804FB 		ldr	pc, [sp], #4
 480              	.L20:
 481              		.align	2
 482              	.L19:
 483 021c 00000240 		.word	1073872896
 484 0220 00000000 		.word	_stm32_dma_isr_redir
 485              		.cfi_endproc
 486              	.LFE271:
 487              		.size	Vector7C, .-Vector7C
 488              		.align	2
 489 0224 AFF30080 		.p2align 4,,15
 489      AFF30080 
 489      AFF30080 
 490              		.global	Vector80
 491              		.thumb
 492              		.thumb_func
 493              		.type	Vector80, %function
 494              	Vector80:
 495              	.LFB272:
 496              		.loc 1 284 0
 497              		.cfi_startproc
 498              		@ args = 0, pretend = 0, frame = 8
 499              		@ frame_needed = 0, uses_anonymous_args = 0
 500 0230 00B5     		push	{lr}
 501              		.cfi_def_cfa_offset 4
 502              		.cfi_offset 14, -4
 503 0232 83B0     		sub	sp, sp, #12
ARM GAS  /tmp/ccEKxQXe.s 			page 10


 504              		.cfi_def_cfa_offset 16
 505              	.LBB7:
 506              		.loc 1 288 0
 507 0234 0523     		movs	r3, #5
 508 0236 0193     		str	r3, [sp, #4]
 509 0238 144B     		ldr	r3, .L23
 510 023a 1A68     		ldr	r2, [r3]
 511 023c 1423     		movs	r3, #20
 512 023e 22FA03F3 		lsr	r3, r2, r3
 513 0242 03F00F03 		and	r3, r3, #15
 514 0246 0093     		str	r3, [sp]
 515 0248 009B     		ldr	r3, [sp]
 516 024a 03F00F03 		and	r3, r3, #15
 517 024e 002B     		cmp	r3, #0
 518 0250 17D0     		beq	.L22
 519              		.loc 1 288 0 is_stmt 0 discriminator 1
 520 0252 0E4B     		ldr	r3, .L23
 521 0254 1422     		movs	r2, #20
 522 0256 0099     		ldr	r1, [sp]
 523 0258 01FA02F2 		lsl	r2, r1, r2
 524 025c 5A60     		str	r2, [r3, #4]
 525 025e 0C4B     		ldr	r3, .L23+4
 526 0260 019A     		ldr	r2, [sp, #4]
 527 0262 53F83230 		ldr	r3, [r3, r2, lsl #3]
 528 0266 002B     		cmp	r3, #0
 529 0268 0BD0     		beq	.L22
 530 026a 094B     		ldr	r3, .L23+4
 531 026c 019A     		ldr	r2, [sp, #4]
 532 026e 53F83220 		ldr	r2, [r3, r2, lsl #3]
 533 0272 0749     		ldr	r1, .L23+4
 534 0274 019B     		ldr	r3, [sp, #4]
 535 0276 DB00     		lsls	r3, r3, #3
 536 0278 0B44     		add	r3, r3, r1
 537 027a 5B68     		ldr	r3, [r3, #4]
 538 027c 1846     		mov	r0, r3
 539 027e 0099     		ldr	r1, [sp]
 540 0280 9047     		blx	r2
 541              	.L22:
 542              	.LBE7:
 543              		.loc 1 290 0 is_stmt 1
 544 0282 FFF7FEFF 		bl	_port_irq_epilogue
 545              		.loc 1 291 0
 546 0286 03B0     		add	sp, sp, #12
 547              		@ sp needed
 548 0288 5DF804FB 		ldr	pc, [sp], #4
 549              	.L24:
 550              		.align	2
 551              	.L23:
 552 028c 00000240 		.word	1073872896
 553 0290 00000000 		.word	_stm32_dma_isr_redir
 554              		.cfi_endproc
 555              	.LFE272:
 556              		.size	Vector80, .-Vector80
 557              		.align	2
 558 0294 AFF30080 		.p2align 4,,15
 558      AFF30080 
 558      AFF30080 
ARM GAS  /tmp/ccEKxQXe.s 			page 11


 559              		.global	Vector84
 560              		.thumb
 561              		.thumb_func
 562              		.type	Vector84, %function
 563              	Vector84:
 564              	.LFB273:
 565              		.loc 1 300 0
 566              		.cfi_startproc
 567              		@ args = 0, pretend = 0, frame = 8
 568              		@ frame_needed = 0, uses_anonymous_args = 0
 569 02a0 00B5     		push	{lr}
 570              		.cfi_def_cfa_offset 4
 571              		.cfi_offset 14, -4
 572 02a2 83B0     		sub	sp, sp, #12
 573              		.cfi_def_cfa_offset 16
 574              	.LBB8:
 575              		.loc 1 304 0
 576 02a4 0623     		movs	r3, #6
 577 02a6 0193     		str	r3, [sp, #4]
 578 02a8 144B     		ldr	r3, .L27
 579 02aa 1A68     		ldr	r2, [r3]
 580 02ac 1823     		movs	r3, #24
 581 02ae 22FA03F3 		lsr	r3, r2, r3
 582 02b2 03F00F03 		and	r3, r3, #15
 583 02b6 0093     		str	r3, [sp]
 584 02b8 009B     		ldr	r3, [sp]
 585 02ba 03F00F03 		and	r3, r3, #15
 586 02be 002B     		cmp	r3, #0
 587 02c0 17D0     		beq	.L26
 588              		.loc 1 304 0 is_stmt 0 discriminator 1
 589 02c2 0E4B     		ldr	r3, .L27
 590 02c4 1822     		movs	r2, #24
 591 02c6 0099     		ldr	r1, [sp]
 592 02c8 01FA02F2 		lsl	r2, r1, r2
 593 02cc 5A60     		str	r2, [r3, #4]
 594 02ce 0C4B     		ldr	r3, .L27+4
 595 02d0 019A     		ldr	r2, [sp, #4]
 596 02d2 53F83230 		ldr	r3, [r3, r2, lsl #3]
 597 02d6 002B     		cmp	r3, #0
 598 02d8 0BD0     		beq	.L26
 599 02da 094B     		ldr	r3, .L27+4
 600 02dc 019A     		ldr	r2, [sp, #4]
 601 02de 53F83220 		ldr	r2, [r3, r2, lsl #3]
 602 02e2 0749     		ldr	r1, .L27+4
 603 02e4 019B     		ldr	r3, [sp, #4]
 604 02e6 DB00     		lsls	r3, r3, #3
 605 02e8 0B44     		add	r3, r3, r1
 606 02ea 5B68     		ldr	r3, [r3, #4]
 607 02ec 1846     		mov	r0, r3
 608 02ee 0099     		ldr	r1, [sp]
 609 02f0 9047     		blx	r2
 610              	.L26:
 611              	.LBE8:
 612              		.loc 1 306 0 is_stmt 1
 613 02f2 FFF7FEFF 		bl	_port_irq_epilogue
 614              		.loc 1 307 0
 615 02f6 03B0     		add	sp, sp, #12
ARM GAS  /tmp/ccEKxQXe.s 			page 12


 616              		@ sp needed
 617 02f8 5DF804FB 		ldr	pc, [sp], #4
 618              	.L28:
 619              		.align	2
 620              	.L27:
 621 02fc 00000240 		.word	1073872896
 622 0300 00000000 		.word	_stm32_dma_isr_redir
 623              		.cfi_endproc
 624              	.LFE273:
 625              		.size	Vector84, .-Vector84
 626              		.align	2
 627 0304 AFF30080 		.p2align 4,,15
 627      AFF30080 
 627      AFF30080 
 628              		.global	Vector120
 629              		.thumb
 630              		.thumb_func
 631              		.type	Vector120, %function
 632              	Vector120:
 633              	.LFB274:
 634              		.loc 1 316 0
 635              		.cfi_startproc
 636              		@ args = 0, pretend = 0, frame = 8
 637              		@ frame_needed = 0, uses_anonymous_args = 0
 638 0310 00B5     		push	{lr}
 639              		.cfi_def_cfa_offset 4
 640              		.cfi_offset 14, -4
 641 0312 83B0     		sub	sp, sp, #12
 642              		.cfi_def_cfa_offset 16
 643              	.LBB9:
 644              		.loc 1 320 0
 645 0314 0723     		movs	r3, #7
 646 0316 0193     		str	r3, [sp, #4]
 647 0318 144B     		ldr	r3, .L31
 648 031a 1A68     		ldr	r2, [r3]
 649 031c 0023     		movs	r3, #0
 650 031e 22FA03F3 		lsr	r3, r2, r3
 651 0322 03F00F03 		and	r3, r3, #15
 652 0326 0093     		str	r3, [sp]
 653 0328 009B     		ldr	r3, [sp]
 654 032a 03F00F03 		and	r3, r3, #15
 655 032e 002B     		cmp	r3, #0
 656 0330 17D0     		beq	.L30
 657              		.loc 1 320 0 is_stmt 0 discriminator 1
 658 0332 0E4B     		ldr	r3, .L31
 659 0334 0022     		movs	r2, #0
 660 0336 0099     		ldr	r1, [sp]
 661 0338 01FA02F2 		lsl	r2, r1, r2
 662 033c 5A60     		str	r2, [r3, #4]
 663 033e 0C4B     		ldr	r3, .L31+4
 664 0340 019A     		ldr	r2, [sp, #4]
 665 0342 53F83230 		ldr	r3, [r3, r2, lsl #3]
 666 0346 002B     		cmp	r3, #0
 667 0348 0BD0     		beq	.L30
 668 034a 094B     		ldr	r3, .L31+4
 669 034c 019A     		ldr	r2, [sp, #4]
 670 034e 53F83220 		ldr	r2, [r3, r2, lsl #3]
ARM GAS  /tmp/ccEKxQXe.s 			page 13


 671 0352 0749     		ldr	r1, .L31+4
 672 0354 019B     		ldr	r3, [sp, #4]
 673 0356 DB00     		lsls	r3, r3, #3
 674 0358 0B44     		add	r3, r3, r1
 675 035a 5B68     		ldr	r3, [r3, #4]
 676 035c 1846     		mov	r0, r3
 677 035e 0099     		ldr	r1, [sp]
 678 0360 9047     		blx	r2
 679              	.L30:
 680              	.LBE9:
 681              		.loc 1 322 0 is_stmt 1
 682 0362 FFF7FEFF 		bl	_port_irq_epilogue
 683              		.loc 1 323 0
 684 0366 03B0     		add	sp, sp, #12
 685              		@ sp needed
 686 0368 5DF804FB 		ldr	pc, [sp], #4
 687              	.L32:
 688              		.align	2
 689              	.L31:
 690 036c 00040240 		.word	1073873920
 691 0370 00000000 		.word	_stm32_dma_isr_redir
 692              		.cfi_endproc
 693              	.LFE274:
 694              		.size	Vector120, .-Vector120
 695              		.align	2
 696 0374 AFF30080 		.p2align 4,,15
 696      AFF30080 
 696      AFF30080 
 697              		.global	Vector124
 698              		.thumb
 699              		.thumb_func
 700              		.type	Vector124, %function
 701              	Vector124:
 702              	.LFB275:
 703              		.loc 1 332 0
 704              		.cfi_startproc
 705              		@ args = 0, pretend = 0, frame = 8
 706              		@ frame_needed = 0, uses_anonymous_args = 0
 707 0380 00B5     		push	{lr}
 708              		.cfi_def_cfa_offset 4
 709              		.cfi_offset 14, -4
 710 0382 83B0     		sub	sp, sp, #12
 711              		.cfi_def_cfa_offset 16
 712              	.LBB10:
 713              		.loc 1 336 0
 714 0384 0823     		movs	r3, #8
 715 0386 0193     		str	r3, [sp, #4]
 716 0388 144B     		ldr	r3, .L35
 717 038a 1A68     		ldr	r2, [r3]
 718 038c 0423     		movs	r3, #4
 719 038e 22FA03F3 		lsr	r3, r2, r3
 720 0392 03F00F03 		and	r3, r3, #15
 721 0396 0093     		str	r3, [sp]
 722 0398 009B     		ldr	r3, [sp]
 723 039a 03F00F03 		and	r3, r3, #15
 724 039e 002B     		cmp	r3, #0
 725 03a0 17D0     		beq	.L34
ARM GAS  /tmp/ccEKxQXe.s 			page 14


 726              		.loc 1 336 0 is_stmt 0 discriminator 1
 727 03a2 0E4B     		ldr	r3, .L35
 728 03a4 0422     		movs	r2, #4
 729 03a6 0099     		ldr	r1, [sp]
 730 03a8 01FA02F2 		lsl	r2, r1, r2
 731 03ac 5A60     		str	r2, [r3, #4]
 732 03ae 0C4B     		ldr	r3, .L35+4
 733 03b0 019A     		ldr	r2, [sp, #4]
 734 03b2 53F83230 		ldr	r3, [r3, r2, lsl #3]
 735 03b6 002B     		cmp	r3, #0
 736 03b8 0BD0     		beq	.L34
 737 03ba 094B     		ldr	r3, .L35+4
 738 03bc 019A     		ldr	r2, [sp, #4]
 739 03be 53F83220 		ldr	r2, [r3, r2, lsl #3]
 740 03c2 0749     		ldr	r1, .L35+4
 741 03c4 019B     		ldr	r3, [sp, #4]
 742 03c6 DB00     		lsls	r3, r3, #3
 743 03c8 0B44     		add	r3, r3, r1
 744 03ca 5B68     		ldr	r3, [r3, #4]
 745 03cc 1846     		mov	r0, r3
 746 03ce 0099     		ldr	r1, [sp]
 747 03d0 9047     		blx	r2
 748              	.L34:
 749              	.LBE10:
 750              		.loc 1 338 0 is_stmt 1
 751 03d2 FFF7FEFF 		bl	_port_irq_epilogue
 752              		.loc 1 339 0
 753 03d6 03B0     		add	sp, sp, #12
 754              		@ sp needed
 755 03d8 5DF804FB 		ldr	pc, [sp], #4
 756              	.L36:
 757              		.align	2
 758              	.L35:
 759 03dc 00040240 		.word	1073873920
 760 03e0 00000000 		.word	_stm32_dma_isr_redir
 761              		.cfi_endproc
 762              	.LFE275:
 763              		.size	Vector124, .-Vector124
 764              		.align	2
 765 03e4 AFF30080 		.p2align 4,,15
 765      AFF30080 
 765      AFF30080 
 766              		.global	Vector128
 767              		.thumb
 768              		.thumb_func
 769              		.type	Vector128, %function
 770              	Vector128:
 771              	.LFB276:
 772              		.loc 1 348 0
 773              		.cfi_startproc
 774              		@ args = 0, pretend = 0, frame = 8
 775              		@ frame_needed = 0, uses_anonymous_args = 0
 776 03f0 00B5     		push	{lr}
 777              		.cfi_def_cfa_offset 4
 778              		.cfi_offset 14, -4
 779 03f2 83B0     		sub	sp, sp, #12
 780              		.cfi_def_cfa_offset 16
ARM GAS  /tmp/ccEKxQXe.s 			page 15


 781              	.LBB11:
 782              		.loc 1 352 0
 783 03f4 0923     		movs	r3, #9
 784 03f6 0193     		str	r3, [sp, #4]
 785 03f8 144B     		ldr	r3, .L39
 786 03fa 1A68     		ldr	r2, [r3]
 787 03fc 0823     		movs	r3, #8
 788 03fe 22FA03F3 		lsr	r3, r2, r3
 789 0402 03F00F03 		and	r3, r3, #15
 790 0406 0093     		str	r3, [sp]
 791 0408 009B     		ldr	r3, [sp]
 792 040a 03F00F03 		and	r3, r3, #15
 793 040e 002B     		cmp	r3, #0
 794 0410 17D0     		beq	.L38
 795              		.loc 1 352 0 is_stmt 0 discriminator 1
 796 0412 0E4B     		ldr	r3, .L39
 797 0414 0822     		movs	r2, #8
 798 0416 0099     		ldr	r1, [sp]
 799 0418 01FA02F2 		lsl	r2, r1, r2
 800 041c 5A60     		str	r2, [r3, #4]
 801 041e 0C4B     		ldr	r3, .L39+4
 802 0420 019A     		ldr	r2, [sp, #4]
 803 0422 53F83230 		ldr	r3, [r3, r2, lsl #3]
 804 0426 002B     		cmp	r3, #0
 805 0428 0BD0     		beq	.L38
 806 042a 094B     		ldr	r3, .L39+4
 807 042c 019A     		ldr	r2, [sp, #4]
 808 042e 53F83220 		ldr	r2, [r3, r2, lsl #3]
 809 0432 0749     		ldr	r1, .L39+4
 810 0434 019B     		ldr	r3, [sp, #4]
 811 0436 DB00     		lsls	r3, r3, #3
 812 0438 0B44     		add	r3, r3, r1
 813 043a 5B68     		ldr	r3, [r3, #4]
 814 043c 1846     		mov	r0, r3
 815 043e 0099     		ldr	r1, [sp]
 816 0440 9047     		blx	r2
 817              	.L38:
 818              	.LBE11:
 819              		.loc 1 354 0 is_stmt 1
 820 0442 FFF7FEFF 		bl	_port_irq_epilogue
 821              		.loc 1 355 0
 822 0446 03B0     		add	sp, sp, #12
 823              		@ sp needed
 824 0448 5DF804FB 		ldr	pc, [sp], #4
 825              	.L40:
 826              		.align	2
 827              	.L39:
 828 044c 00040240 		.word	1073873920
 829 0450 00000000 		.word	_stm32_dma_isr_redir
 830              		.cfi_endproc
 831              	.LFE276:
 832              		.size	Vector128, .-Vector128
 833              		.align	2
 834 0454 AFF30080 		.p2align 4,,15
 834      AFF30080 
 834      AFF30080 
 835              		.global	Vector12C
ARM GAS  /tmp/ccEKxQXe.s 			page 16


 836              		.thumb
 837              		.thumb_func
 838              		.type	Vector12C, %function
 839              	Vector12C:
 840              	.LFB277:
 841              		.loc 1 364 0
 842              		.cfi_startproc
 843              		@ args = 0, pretend = 0, frame = 8
 844              		@ frame_needed = 0, uses_anonymous_args = 0
 845 0460 00B5     		push	{lr}
 846              		.cfi_def_cfa_offset 4
 847              		.cfi_offset 14, -4
 848 0462 83B0     		sub	sp, sp, #12
 849              		.cfi_def_cfa_offset 16
 850              	.LBB12:
 851              		.loc 1 368 0
 852 0464 0A23     		movs	r3, #10
 853 0466 0193     		str	r3, [sp, #4]
 854 0468 144B     		ldr	r3, .L43
 855 046a 1A68     		ldr	r2, [r3]
 856 046c 0C23     		movs	r3, #12
 857 046e 22FA03F3 		lsr	r3, r2, r3
 858 0472 03F00F03 		and	r3, r3, #15
 859 0476 0093     		str	r3, [sp]
 860 0478 009B     		ldr	r3, [sp]
 861 047a 03F00F03 		and	r3, r3, #15
 862 047e 002B     		cmp	r3, #0
 863 0480 17D0     		beq	.L42
 864              		.loc 1 368 0 is_stmt 0 discriminator 1
 865 0482 0E4B     		ldr	r3, .L43
 866 0484 0C22     		movs	r2, #12
 867 0486 0099     		ldr	r1, [sp]
 868 0488 01FA02F2 		lsl	r2, r1, r2
 869 048c 5A60     		str	r2, [r3, #4]
 870 048e 0C4B     		ldr	r3, .L43+4
 871 0490 019A     		ldr	r2, [sp, #4]
 872 0492 53F83230 		ldr	r3, [r3, r2, lsl #3]
 873 0496 002B     		cmp	r3, #0
 874 0498 0BD0     		beq	.L42
 875 049a 094B     		ldr	r3, .L43+4
 876 049c 019A     		ldr	r2, [sp, #4]
 877 049e 53F83220 		ldr	r2, [r3, r2, lsl #3]
 878 04a2 0749     		ldr	r1, .L43+4
 879 04a4 019B     		ldr	r3, [sp, #4]
 880 04a6 DB00     		lsls	r3, r3, #3
 881 04a8 0B44     		add	r3, r3, r1
 882 04aa 5B68     		ldr	r3, [r3, #4]
 883 04ac 1846     		mov	r0, r3
 884 04ae 0099     		ldr	r1, [sp]
 885 04b0 9047     		blx	r2
 886              	.L42:
 887              	.LBE12:
 888              		.loc 1 370 0 is_stmt 1
 889 04b2 FFF7FEFF 		bl	_port_irq_epilogue
 890              		.loc 1 371 0
 891 04b6 03B0     		add	sp, sp, #12
 892              		@ sp needed
ARM GAS  /tmp/ccEKxQXe.s 			page 17


 893 04b8 5DF804FB 		ldr	pc, [sp], #4
 894              	.L44:
 895              		.align	2
 896              	.L43:
 897 04bc 00040240 		.word	1073873920
 898 04c0 00000000 		.word	_stm32_dma_isr_redir
 899              		.cfi_endproc
 900              	.LFE277:
 901              		.size	Vector12C, .-Vector12C
 902              		.align	2
 903 04c4 AFF30080 		.p2align 4,,15
 903      AFF30080 
 903      AFF30080 
 904              		.global	Vector130
 905              		.thumb
 906              		.thumb_func
 907              		.type	Vector130, %function
 908              	Vector130:
 909              	.LFB278:
 910              		.loc 1 380 0
 911              		.cfi_startproc
 912              		@ args = 0, pretend = 0, frame = 8
 913              		@ frame_needed = 0, uses_anonymous_args = 0
 914 04d0 00B5     		push	{lr}
 915              		.cfi_def_cfa_offset 4
 916              		.cfi_offset 14, -4
 917 04d2 83B0     		sub	sp, sp, #12
 918              		.cfi_def_cfa_offset 16
 919              	.LBB13:
 920              		.loc 1 384 0
 921 04d4 0B23     		movs	r3, #11
 922 04d6 0193     		str	r3, [sp, #4]
 923 04d8 144B     		ldr	r3, .L47
 924 04da 1A68     		ldr	r2, [r3]
 925 04dc 1023     		movs	r3, #16
 926 04de 22FA03F3 		lsr	r3, r2, r3
 927 04e2 03F00F03 		and	r3, r3, #15
 928 04e6 0093     		str	r3, [sp]
 929 04e8 009B     		ldr	r3, [sp]
 930 04ea 03F00F03 		and	r3, r3, #15
 931 04ee 002B     		cmp	r3, #0
 932 04f0 17D0     		beq	.L46
 933              		.loc 1 384 0 is_stmt 0 discriminator 1
 934 04f2 0E4B     		ldr	r3, .L47
 935 04f4 1022     		movs	r2, #16
 936 04f6 0099     		ldr	r1, [sp]
 937 04f8 01FA02F2 		lsl	r2, r1, r2
 938 04fc 5A60     		str	r2, [r3, #4]
 939 04fe 0C4B     		ldr	r3, .L47+4
 940 0500 019A     		ldr	r2, [sp, #4]
 941 0502 53F83230 		ldr	r3, [r3, r2, lsl #3]
 942 0506 002B     		cmp	r3, #0
 943 0508 0BD0     		beq	.L46
 944 050a 094B     		ldr	r3, .L47+4
 945 050c 019A     		ldr	r2, [sp, #4]
 946 050e 53F83220 		ldr	r2, [r3, r2, lsl #3]
 947 0512 0749     		ldr	r1, .L47+4
ARM GAS  /tmp/ccEKxQXe.s 			page 18


 948 0514 019B     		ldr	r3, [sp, #4]
 949 0516 DB00     		lsls	r3, r3, #3
 950 0518 0B44     		add	r3, r3, r1
 951 051a 5B68     		ldr	r3, [r3, #4]
 952 051c 1846     		mov	r0, r3
 953 051e 0099     		ldr	r1, [sp]
 954 0520 9047     		blx	r2
 955              	.L46:
 956              	.LBE13:
 957              		.loc 1 386 0 is_stmt 1
 958 0522 FFF7FEFF 		bl	_port_irq_epilogue
 959              		.loc 1 387 0
 960 0526 03B0     		add	sp, sp, #12
 961              		@ sp needed
 962 0528 5DF804FB 		ldr	pc, [sp], #4
 963              	.L48:
 964              		.align	2
 965              	.L47:
 966 052c 00040240 		.word	1073873920
 967 0530 00000000 		.word	_stm32_dma_isr_redir
 968              		.cfi_endproc
 969              	.LFE278:
 970              		.size	Vector130, .-Vector130
 971              		.align	2
 972 0534 AFF30080 		.p2align 4,,15
 972      AFF30080 
 972      AFF30080 
 973              		.global	Vector150
 974              		.thumb
 975              		.thumb_func
 976              		.type	Vector150, %function
 977              	Vector150:
 978              	.LFB279:
 979              		.loc 1 396 0
 980              		.cfi_startproc
 981              		@ args = 0, pretend = 0, frame = 8
 982              		@ frame_needed = 0, uses_anonymous_args = 0
 983 0540 00B5     		push	{lr}
 984              		.cfi_def_cfa_offset 4
 985              		.cfi_offset 14, -4
 986 0542 83B0     		sub	sp, sp, #12
 987              		.cfi_def_cfa_offset 16
 988              	.LBB14:
 989              		.loc 1 400 0
 990 0544 0C23     		movs	r3, #12
 991 0546 0193     		str	r3, [sp, #4]
 992 0548 144B     		ldr	r3, .L51
 993 054a 1A68     		ldr	r2, [r3]
 994 054c 1423     		movs	r3, #20
 995 054e 22FA03F3 		lsr	r3, r2, r3
 996 0552 03F00F03 		and	r3, r3, #15
 997 0556 0093     		str	r3, [sp]
 998 0558 009B     		ldr	r3, [sp]
 999 055a 03F00F03 		and	r3, r3, #15
 1000 055e 002B     		cmp	r3, #0
 1001 0560 17D0     		beq	.L50
 1002              		.loc 1 400 0 is_stmt 0 discriminator 1
ARM GAS  /tmp/ccEKxQXe.s 			page 19


 1003 0562 0E4B     		ldr	r3, .L51
 1004 0564 1422     		movs	r2, #20
 1005 0566 0099     		ldr	r1, [sp]
 1006 0568 01FA02F2 		lsl	r2, r1, r2
 1007 056c 5A60     		str	r2, [r3, #4]
 1008 056e 0C4B     		ldr	r3, .L51+4
 1009 0570 019A     		ldr	r2, [sp, #4]
 1010 0572 53F83230 		ldr	r3, [r3, r2, lsl #3]
 1011 0576 002B     		cmp	r3, #0
 1012 0578 0BD0     		beq	.L50
 1013 057a 094B     		ldr	r3, .L51+4
 1014 057c 019A     		ldr	r2, [sp, #4]
 1015 057e 53F83220 		ldr	r2, [r3, r2, lsl #3]
 1016 0582 0749     		ldr	r1, .L51+4
 1017 0584 019B     		ldr	r3, [sp, #4]
 1018 0586 DB00     		lsls	r3, r3, #3
 1019 0588 0B44     		add	r3, r3, r1
 1020 058a 5B68     		ldr	r3, [r3, #4]
 1021 058c 1846     		mov	r0, r3
 1022 058e 0099     		ldr	r1, [sp]
 1023 0590 9047     		blx	r2
 1024              	.L50:
 1025              	.LBE14:
 1026              		.loc 1 402 0 is_stmt 1
 1027 0592 FFF7FEFF 		bl	_port_irq_epilogue
 1028              		.loc 1 403 0
 1029 0596 03B0     		add	sp, sp, #12
 1030              		@ sp needed
 1031 0598 5DF804FB 		ldr	pc, [sp], #4
 1032              	.L52:
 1033              		.align	2
 1034              	.L51:
 1035 059c 00040240 		.word	1073873920
 1036 05a0 00000000 		.word	_stm32_dma_isr_redir
 1037              		.cfi_endproc
 1038              	.LFE279:
 1039              		.size	Vector150, .-Vector150
 1040              		.align	2
 1041 05a4 AFF30080 		.p2align 4,,15
 1041      AFF30080 
 1041      AFF30080 
 1042              		.global	Vector154
 1043              		.thumb
 1044              		.thumb_func
 1045              		.type	Vector154, %function
 1046              	Vector154:
 1047              	.LFB280:
 1048              		.loc 1 412 0
 1049              		.cfi_startproc
 1050              		@ args = 0, pretend = 0, frame = 8
 1051              		@ frame_needed = 0, uses_anonymous_args = 0
 1052 05b0 00B5     		push	{lr}
 1053              		.cfi_def_cfa_offset 4
 1054              		.cfi_offset 14, -4
 1055 05b2 83B0     		sub	sp, sp, #12
 1056              		.cfi_def_cfa_offset 16
 1057              	.LBB15:
ARM GAS  /tmp/ccEKxQXe.s 			page 20


 1058              		.loc 1 416 0
 1059 05b4 0D23     		movs	r3, #13
 1060 05b6 0193     		str	r3, [sp, #4]
 1061 05b8 144B     		ldr	r3, .L55
 1062 05ba 1A68     		ldr	r2, [r3]
 1063 05bc 1823     		movs	r3, #24
 1064 05be 22FA03F3 		lsr	r3, r2, r3
 1065 05c2 03F00F03 		and	r3, r3, #15
 1066 05c6 0093     		str	r3, [sp]
 1067 05c8 009B     		ldr	r3, [sp]
 1068 05ca 03F00F03 		and	r3, r3, #15
 1069 05ce 002B     		cmp	r3, #0
 1070 05d0 17D0     		beq	.L54
 1071              		.loc 1 416 0 is_stmt 0 discriminator 1
 1072 05d2 0E4B     		ldr	r3, .L55
 1073 05d4 1822     		movs	r2, #24
 1074 05d6 0099     		ldr	r1, [sp]
 1075 05d8 01FA02F2 		lsl	r2, r1, r2
 1076 05dc 5A60     		str	r2, [r3, #4]
 1077 05de 0C4B     		ldr	r3, .L55+4
 1078 05e0 019A     		ldr	r2, [sp, #4]
 1079 05e2 53F83230 		ldr	r3, [r3, r2, lsl #3]
 1080 05e6 002B     		cmp	r3, #0
 1081 05e8 0BD0     		beq	.L54
 1082 05ea 094B     		ldr	r3, .L55+4
 1083 05ec 019A     		ldr	r2, [sp, #4]
 1084 05ee 53F83220 		ldr	r2, [r3, r2, lsl #3]
 1085 05f2 0749     		ldr	r1, .L55+4
 1086 05f4 019B     		ldr	r3, [sp, #4]
 1087 05f6 DB00     		lsls	r3, r3, #3
 1088 05f8 0B44     		add	r3, r3, r1
 1089 05fa 5B68     		ldr	r3, [r3, #4]
 1090 05fc 1846     		mov	r0, r3
 1091 05fe 0099     		ldr	r1, [sp]
 1092 0600 9047     		blx	r2
 1093              	.L54:
 1094              	.LBE15:
 1095              		.loc 1 418 0 is_stmt 1
 1096 0602 FFF7FEFF 		bl	_port_irq_epilogue
 1097              		.loc 1 419 0
 1098 0606 03B0     		add	sp, sp, #12
 1099              		@ sp needed
 1100 0608 5DF804FB 		ldr	pc, [sp], #4
 1101              	.L56:
 1102              		.align	2
 1103              	.L55:
 1104 060c 00040240 		.word	1073873920
 1105 0610 00000000 		.word	_stm32_dma_isr_redir
 1106              		.cfi_endproc
 1107              	.LFE280:
 1108              		.size	Vector154, .-Vector154
 1109              		.align	2
 1110 0614 AFF30080 		.p2align 4,,15
 1110      AFF30080 
 1110      AFF30080 
 1111              		.global	dmaInit
 1112              		.thumb
ARM GAS  /tmp/ccEKxQXe.s 			page 21


 1113              		.thumb_func
 1114              		.type	dmaInit, %function
 1115              	dmaInit:
 1116              	.LFB281:
 1117              		.loc 1 431 0
 1118              		.cfi_startproc
 1119              		@ args = 0, pretend = 0, frame = 8
 1120              		@ frame_needed = 0, uses_anonymous_args = 0
 1121              		@ link register save eliminated.
 1122 0620 82B0     		sub	sp, sp, #8
 1123              		.cfi_def_cfa_offset 8
 1124              		.loc 1 434 0
 1125 0622 124B     		ldr	r3, .L60
 1126 0624 0022     		movs	r2, #0
 1127 0626 1A60     		str	r2, [r3]
 1128              		.loc 1 435 0
 1129 0628 0023     		movs	r3, #0
 1130 062a 0193     		str	r3, [sp, #4]
 1131 062c 11E0     		b	.L58
 1132              	.L59:
 1133              		.loc 1 436 0 discriminator 2
 1134 062e 1049     		ldr	r1, .L60+4
 1135 0630 019A     		ldr	r2, [sp, #4]
 1136 0632 1346     		mov	r3, r2
 1137 0634 9B00     		lsls	r3, r3, #2
 1138 0636 1344     		add	r3, r3, r2
 1139 0638 9B00     		lsls	r3, r3, #2
 1140 063a 0B44     		add	r3, r3, r1
 1141 063c 5B68     		ldr	r3, [r3, #4]
 1142 063e 0022     		movs	r2, #0
 1143 0640 1A60     		str	r2, [r3]
 1144              		.loc 1 437 0 discriminator 2
 1145 0642 0C4B     		ldr	r3, .L60+8
 1146 0644 019A     		ldr	r2, [sp, #4]
 1147 0646 0021     		movs	r1, #0
 1148 0648 43F83210 		str	r1, [r3, r2, lsl #3]
 1149              		.loc 1 435 0 discriminator 2
 1150 064c 019B     		ldr	r3, [sp, #4]
 1151 064e 0133     		adds	r3, r3, #1
 1152 0650 0193     		str	r3, [sp, #4]
 1153              	.L58:
 1154              		.loc 1 435 0 is_stmt 0 discriminator 1
 1155 0652 019B     		ldr	r3, [sp, #4]
 1156 0654 0D2B     		cmp	r3, #13
 1157 0656 EADD     		ble	.L59
 1158              		.loc 1 439 0 is_stmt 1
 1159 0658 074B     		ldr	r3, .L60+12
 1160 065a 4FF0FF32 		mov	r2, #-1
 1161 065e 5A60     		str	r2, [r3, #4]
 1162              		.loc 1 441 0
 1163 0660 064B     		ldr	r3, .L60+16
 1164 0662 4FF0FF32 		mov	r2, #-1
 1165 0666 5A60     		str	r2, [r3, #4]
 1166              		.loc 1 443 0
 1167 0668 02B0     		add	sp, sp, #8
 1168              		@ sp needed
 1169 066a 7047     		bx	lr
ARM GAS  /tmp/ccEKxQXe.s 			page 22


 1170              	.L61:
 1171              		.align	2
 1172              	.L60:
 1173 066c 00000000 		.word	dma_streams_mask
 1174 0670 00000000 		.word	_stm32_dma_streams
 1175 0674 00000000 		.word	_stm32_dma_isr_redir
 1176 0678 00000240 		.word	1073872896
 1177 067c 00040240 		.word	1073873920
 1178              		.cfi_endproc
 1179              	.LFE281:
 1180              		.size	dmaInit, .-dmaInit
 1181              		.align	2
 1182              		.p2align 4,,15
 1183              		.global	dmaStreamAllocate
 1184              		.thumb
 1185              		.thumb_func
 1186              		.type	dmaStreamAllocate, %function
 1187              	dmaStreamAllocate:
 1188              	.LFB282:
 1189              		.loc 1 472 0
 1190              		.cfi_startproc
 1191              		@ args = 0, pretend = 0, frame = 16
 1192              		@ frame_needed = 0, uses_anonymous_args = 0
 1193 0680 00B5     		push	{lr}
 1194              		.cfi_def_cfa_offset 4
 1195              		.cfi_offset 14, -4
 1196 0682 85B0     		sub	sp, sp, #20
 1197              		.cfi_def_cfa_offset 24
 1198 0684 0390     		str	r0, [sp, #12]
 1199 0686 0291     		str	r1, [sp, #8]
 1200 0688 0192     		str	r2, [sp, #4]
 1201 068a 0093     		str	r3, [sp]
 1202              		.loc 1 477 0
 1203 068c 039B     		ldr	r3, [sp, #12]
 1204 068e 5B7C     		ldrb	r3, [r3, #17]	@ zero_extendqisi2
 1205 0690 0122     		movs	r2, #1
 1206 0692 9A40     		lsls	r2, r2, r3
 1207 0694 2F4B     		ldr	r3, .L68
 1208 0696 1B68     		ldr	r3, [r3]
 1209 0698 1340     		ands	r3, r3, r2
 1210 069a 002B     		cmp	r3, #0
 1211 069c 01D0     		beq	.L63
 1212              		.loc 1 478 0
 1213 069e 0123     		movs	r3, #1
 1214 06a0 53E0     		b	.L64
 1215              	.L63:
 1216              		.loc 1 481 0
 1217 06a2 039B     		ldr	r3, [sp, #12]
 1218 06a4 5B7C     		ldrb	r3, [r3, #17]	@ zero_extendqisi2
 1219 06a6 1A46     		mov	r2, r3
 1220 06a8 2B4B     		ldr	r3, .L68+4
 1221 06aa 0199     		ldr	r1, [sp, #4]
 1222 06ac 43F83210 		str	r1, [r3, r2, lsl #3]
 1223              		.loc 1 482 0
 1224 06b0 039B     		ldr	r3, [sp, #12]
 1225 06b2 5B7C     		ldrb	r3, [r3, #17]	@ zero_extendqisi2
 1226 06b4 284A     		ldr	r2, .L68+4
ARM GAS  /tmp/ccEKxQXe.s 			page 23


 1227 06b6 DB00     		lsls	r3, r3, #3
 1228 06b8 1344     		add	r3, r3, r2
 1229 06ba 009A     		ldr	r2, [sp]
 1230 06bc 5A60     		str	r2, [r3, #4]
 1231              		.loc 1 485 0
 1232 06be 254B     		ldr	r3, .L68
 1233 06c0 1B68     		ldr	r3, [r3]
 1234 06c2 03F07F03 		and	r3, r3, #127
 1235 06c6 002B     		cmp	r3, #0
 1236 06c8 05D1     		bne	.L65
 1237              		.loc 1 486 0
 1238 06ca 244B     		ldr	r3, .L68+8
 1239 06cc 234A     		ldr	r2, .L68+8
 1240 06ce 926C     		ldr	r2, [r2, #72]
 1241 06d0 42F00102 		orr	r2, r2, #1
 1242 06d4 9A64     		str	r2, [r3, #72]
 1243              	.L65:
 1244              		.loc 1 489 0
 1245 06d6 1F4B     		ldr	r3, .L68
 1246 06d8 1B68     		ldr	r3, [r3]
 1247 06da 03F47E53 		and	r3, r3, #16256
 1248 06de 002B     		cmp	r3, #0
 1249 06e0 05D1     		bne	.L66
 1250              		.loc 1 490 0
 1251 06e2 1E4B     		ldr	r3, .L68+8
 1252 06e4 1D4A     		ldr	r2, .L68+8
 1253 06e6 926C     		ldr	r2, [r2, #72]
 1254 06e8 42F00202 		orr	r2, r2, #2
 1255 06ec 9A64     		str	r2, [r3, #72]
 1256              	.L66:
 1257              		.loc 1 495 0
 1258 06ee 039B     		ldr	r3, [sp, #12]
 1259 06f0 5B68     		ldr	r3, [r3, #4]
 1260 06f2 039A     		ldr	r2, [sp, #12]
 1261 06f4 5268     		ldr	r2, [r2, #4]
 1262 06f6 1268     		ldr	r2, [r2]
 1263 06f8 22F00F02 		bic	r2, r2, #15
 1264 06fc 1A60     		str	r2, [r3]
 1265 06fe 039B     		ldr	r3, [sp, #12]
 1266 0700 1B68     		ldr	r3, [r3]
 1267 0702 039A     		ldr	r2, [sp, #12]
 1268 0704 127C     		ldrb	r2, [r2, #16]	@ zero_extendqisi2
 1269 0706 0F21     		movs	r1, #15
 1270 0708 01FA02F2 		lsl	r2, r1, r2
 1271 070c 5A60     		str	r2, [r3, #4]
 1272              		.loc 1 496 0
 1273 070e 039B     		ldr	r3, [sp, #12]
 1274 0710 5B68     		ldr	r3, [r3, #4]
 1275 0712 0022     		movs	r2, #0
 1276 0714 1A60     		str	r2, [r3]
 1277              		.loc 1 500 0
 1278 0716 039B     		ldr	r3, [sp, #12]
 1279 0718 9A68     		ldr	r2, [r3, #8]
 1280 071a 0E4B     		ldr	r3, .L68
 1281 071c 1B68     		ldr	r3, [r3]
 1282 071e 1340     		ands	r3, r3, r2
 1283 0720 002B     		cmp	r3, #0
ARM GAS  /tmp/ccEKxQXe.s 			page 24


 1284 0722 08D1     		bne	.L67
 1285              		.loc 1 500 0 is_stmt 0 discriminator 1
 1286 0724 019B     		ldr	r3, [sp, #4]
 1287 0726 002B     		cmp	r3, #0
 1288 0728 05D0     		beq	.L67
 1289              		.loc 1 502 0 is_stmt 1
 1290 072a 039B     		ldr	r3, [sp, #12]
 1291 072c 9B7C     		ldrb	r3, [r3, #18]	@ zero_extendqisi2
 1292 072e 1846     		mov	r0, r3
 1293 0730 0299     		ldr	r1, [sp, #8]
 1294 0732 FFF7FEFF 		bl	nvicEnableVector
 1295              	.L67:
 1296              		.loc 1 506 0
 1297 0736 039B     		ldr	r3, [sp, #12]
 1298 0738 5B7C     		ldrb	r3, [r3, #17]	@ zero_extendqisi2
 1299 073a 0122     		movs	r2, #1
 1300 073c 9A40     		lsls	r2, r2, r3
 1301 073e 054B     		ldr	r3, .L68
 1302 0740 1B68     		ldr	r3, [r3]
 1303 0742 1A43     		orrs	r2, r2, r3
 1304 0744 034B     		ldr	r3, .L68
 1305 0746 1A60     		str	r2, [r3]
 1306              		.loc 1 508 0
 1307 0748 0023     		movs	r3, #0
 1308              	.L64:
 1309              		.loc 1 509 0
 1310 074a 1846     		mov	r0, r3
 1311 074c 05B0     		add	sp, sp, #20
 1312              		@ sp needed
 1313 074e 5DF804FB 		ldr	pc, [sp], #4
 1314              	.L69:
 1315 0752 00BF     		.align	2
 1316              	.L68:
 1317 0754 00000000 		.word	dma_streams_mask
 1318 0758 00000000 		.word	_stm32_dma_isr_redir
 1319 075c 00100240 		.word	1073876992
 1320              		.cfi_endproc
 1321              	.LFE282:
 1322              		.size	dmaStreamAllocate, .-dmaStreamAllocate
 1323              		.align	2
 1324              		.p2align 4,,15
 1325              		.global	dmaStreamRelease
 1326              		.thumb
 1327              		.thumb_func
 1328              		.type	dmaStreamRelease, %function
 1329              	dmaStreamRelease:
 1330              	.LFB283:
 1331              		.loc 1 524 0
 1332              		.cfi_startproc
 1333              		@ args = 0, pretend = 0, frame = 8
 1334              		@ frame_needed = 0, uses_anonymous_args = 0
 1335 0760 00B5     		push	{lr}
 1336              		.cfi_def_cfa_offset 4
 1337              		.cfi_offset 14, -4
 1338 0762 83B0     		sub	sp, sp, #12
 1339              		.cfi_def_cfa_offset 16
 1340 0764 0190     		str	r0, [sp, #4]
ARM GAS  /tmp/ccEKxQXe.s 			page 25


 1341              		.loc 1 533 0
 1342 0766 019B     		ldr	r3, [sp, #4]
 1343 0768 5B7C     		ldrb	r3, [r3, #17]	@ zero_extendqisi2
 1344 076a 0122     		movs	r2, #1
 1345 076c 02FA03F3 		lsl	r3, r2, r3
 1346 0770 DA43     		mvns	r2, r3
 1347 0772 1D4B     		ldr	r3, .L74
 1348 0774 1B68     		ldr	r3, [r3]
 1349 0776 1A40     		ands	r2, r2, r3
 1350 0778 1B4B     		ldr	r3, .L74
 1351 077a 1A60     		str	r2, [r3]
 1352              		.loc 1 536 0
 1353 077c 019B     		ldr	r3, [sp, #4]
 1354 077e 9A68     		ldr	r2, [r3, #8]
 1355 0780 194B     		ldr	r3, .L74
 1356 0782 1B68     		ldr	r3, [r3]
 1357 0784 1340     		ands	r3, r3, r2
 1358 0786 002B     		cmp	r3, #0
 1359 0788 04D1     		bne	.L71
 1360              		.loc 1 537 0
 1361 078a 019B     		ldr	r3, [sp, #4]
 1362 078c 9B7C     		ldrb	r3, [r3, #18]	@ zero_extendqisi2
 1363 078e 1846     		mov	r0, r3
 1364 0790 FFF7FEFF 		bl	nvicDisableVector
 1365              	.L71:
 1366              		.loc 1 541 0
 1367 0794 019B     		ldr	r3, [sp, #4]
 1368 0796 5B7C     		ldrb	r3, [r3, #17]	@ zero_extendqisi2
 1369 0798 1A46     		mov	r2, r3
 1370 079a 144B     		ldr	r3, .L74+4
 1371 079c 0021     		movs	r1, #0
 1372 079e 43F83210 		str	r1, [r3, r2, lsl #3]
 1373              		.loc 1 542 0
 1374 07a2 019B     		ldr	r3, [sp, #4]
 1375 07a4 5B7C     		ldrb	r3, [r3, #17]	@ zero_extendqisi2
 1376 07a6 114A     		ldr	r2, .L74+4
 1377 07a8 DB00     		lsls	r3, r3, #3
 1378 07aa 1344     		add	r3, r3, r2
 1379 07ac 0022     		movs	r2, #0
 1380 07ae 5A60     		str	r2, [r3, #4]
 1381              		.loc 1 545 0
 1382 07b0 0D4B     		ldr	r3, .L74
 1383 07b2 1B68     		ldr	r3, [r3]
 1384 07b4 03F07F03 		and	r3, r3, #127
 1385 07b8 002B     		cmp	r3, #0
 1386 07ba 05D1     		bne	.L72
 1387              		.loc 1 546 0
 1388 07bc 0C4B     		ldr	r3, .L74+8
 1389 07be 0C4A     		ldr	r2, .L74+8
 1390 07c0 926C     		ldr	r2, [r2, #72]
 1391 07c2 22F00102 		bic	r2, r2, #1
 1392 07c6 9A64     		str	r2, [r3, #72]
 1393              	.L72:
 1394              		.loc 1 549 0
 1395 07c8 074B     		ldr	r3, .L74
 1396 07ca 1B68     		ldr	r3, [r3]
 1397 07cc 03F47E53 		and	r3, r3, #16256
ARM GAS  /tmp/ccEKxQXe.s 			page 26


 1398 07d0 002B     		cmp	r3, #0
 1399 07d2 05D1     		bne	.L70
 1400              		.loc 1 550 0
 1401 07d4 064B     		ldr	r3, .L74+8
 1402 07d6 064A     		ldr	r2, .L74+8
 1403 07d8 926C     		ldr	r2, [r2, #72]
 1404 07da 22F00202 		bic	r2, r2, #2
 1405 07de 9A64     		str	r2, [r3, #72]
 1406              	.L70:
 1407              		.loc 1 553 0
 1408 07e0 03B0     		add	sp, sp, #12
 1409              		@ sp needed
 1410 07e2 5DF804FB 		ldr	pc, [sp], #4
 1411              	.L75:
 1412 07e6 00BF     		.align	2
 1413              	.L74:
 1414 07e8 00000000 		.word	dma_streams_mask
 1415 07ec 00000000 		.word	_stm32_dma_isr_redir
 1416 07f0 00100240 		.word	1073876992
 1417              		.cfi_endproc
 1418              	.LFE283:
 1419              		.size	dmaStreamRelease, .-dmaStreamRelease
 1420              	.Letext0:
 1421              		.file 2 "/nfs/nfs5/home/research/hardware/arm2/gcc-arm-embedded/gcc-arm-none-eabi-4_8-2014q2/lib/g
 1422              		.file 3 "/nfs/nfs5/home/research/hardware/arm2/gcc-arm-embedded/gcc-arm-none-eabi-4_8-2014q2/arm-n
 1423              		.file 4 "/nfs/nfs5/home/research/hardware/arm2/gcc-arm-embedded/gcc-arm-none-eabi-4_8-2014q2/arm-n
 1424              		.file 5 "../../ChibiOS/os/rt/ports/ARMCMx/compilers/GCC/chtypes.h"
 1425              		.file 6 "../../ChibiOS/os/rt/include/chsystypes.h"
 1426              		.file 7 "../../ChibiOS/os/rt/include/chschd.h"
 1427              		.file 8 "../../ChibiOS/os/ext/CMSIS/ST/STM32L4xx/stm32l476xx.h"
 1428              		.file 9 "../../ChibiOS/os/rt/ports/ARMCMx/chcore.h"
 1429              		.file 10 "../../ChibiOS/os/rt/ports/ARMCMx/chcore_v7m.h"
 1430              		.file 11 "../../ChibiOS/os/rt/include/chtm.h"
 1431              		.file 12 "../../ChibiOS/os/rt/include/chsem.h"
 1432              		.file 13 "../../ChibiOS/os/rt/include/chmtx.h"
 1433              		.file 14 "../../ChibiOS/os/hal/ports/STM32/LLD/DMAv1/stm32_dma.h"
 1434              		.file 15 "../../ChibiOS/os/ext/CMSIS/include/core_cm4.h"