ARM GAS  /tmp/cczaK23z.s 			page 1


   1              		.syntax unified
   2              		.cpu cortex-m4
   3              		.fpu softvfp
   4              		.eabi_attribute 20, 1
   5              		.eabi_attribute 21, 1
   6              		.eabi_attribute 23, 3
   7              		.eabi_attribute 24, 1
   8              		.eabi_attribute 25, 1
   9              		.eabi_attribute 26, 1
  10              		.eabi_attribute 30, 6
  11              		.eabi_attribute 34, 1
  12              		.eabi_attribute 18, 4
  13              		.thumb
  14              		.file	"syscalls.c"
  15              		.text
  16              	.Ltext0:
  17              		.cfi_sections	.debug_frame
  18              		.align	2
  19              		.p2align 4,,15
  20              		.global	_read_r
  21              		.thumb
  22              		.thumb_func
  23              		.type	_read_r, %function
  24              	_read_r:
  25              	.LFB230:
  26              		.file 1 "../../ChibiOS/os/various/syscalls.c"
  27              		.loc 1 72 0
  28              		.cfi_startproc
  29              		@ args = 0, pretend = 0, frame = 16
  30              		@ frame_needed = 0, uses_anonymous_args = 0
  31              		@ link register save eliminated.
  32 0000 84B0     		sub	sp, sp, #16
  33              		.cfi_def_cfa_offset 16
  34 0002 0390     		str	r0, [sp, #12]
  35 0004 0291     		str	r1, [sp, #8]
  36 0006 0192     		str	r2, [sp, #4]
  37 0008 0093     		str	r3, [sp]
  38              		.loc 1 85 0
  39 000a 039B     		ldr	r3, [sp, #12]
  40 000c 1622     		movs	r2, #22
  41 000e 1A60     		str	r2, [r3]
  42              		.loc 1 86 0
  43 0010 4FF0FF33 		mov	r3, #-1
  44              		.loc 1 88 0
  45 0014 1846     		mov	r0, r3
  46 0016 04B0     		add	sp, sp, #16
  47              		@ sp needed
  48 0018 7047     		bx	lr
  49              		.cfi_endproc
  50              	.LFE230:
  51              		.size	_read_r, .-_read_r
  52 001a 00BF     		.align	2
  53 001c AFF30080 		.p2align 4,,15
  54              		.global	_lseek_r
  55              		.thumb
  56              		.thumb_func
  57              		.type	_lseek_r, %function
ARM GAS  /tmp/cczaK23z.s 			page 2


  58              	_lseek_r:
  59              	.LFB231:
  60              		.loc 1 94 0
  61              		.cfi_startproc
  62              		@ args = 0, pretend = 0, frame = 16
  63              		@ frame_needed = 0, uses_anonymous_args = 0
  64              		@ link register save eliminated.
  65 0020 84B0     		sub	sp, sp, #16
  66              		.cfi_def_cfa_offset 16
  67 0022 0390     		str	r0, [sp, #12]
  68 0024 0291     		str	r1, [sp, #8]
  69 0026 0192     		str	r2, [sp, #4]
  70 0028 0093     		str	r3, [sp]
  71              		.loc 1 100 0
  72 002a 0023     		movs	r3, #0
  73              		.loc 1 101 0
  74 002c 1846     		mov	r0, r3
  75 002e 04B0     		add	sp, sp, #16
  76              		@ sp needed
  77 0030 7047     		bx	lr
  78              		.cfi_endproc
  79              	.LFE231:
  80              		.size	_lseek_r, .-_lseek_r
  81 0032 00BF     		.align	2
  82 0034 AFF30080 		.p2align 4,,15
  82      AFF30080 
  82      AFF30080 
  83              		.global	_write_r
  84              		.thumb
  85              		.thumb_func
  86              		.type	_write_r, %function
  87              	_write_r:
  88              	.LFB232:
  89              		.loc 1 107 0
  90              		.cfi_startproc
  91              		@ args = 0, pretend = 0, frame = 16
  92              		@ frame_needed = 0, uses_anonymous_args = 0
  93              		@ link register save eliminated.
  94 0040 84B0     		sub	sp, sp, #16
  95              		.cfi_def_cfa_offset 16
  96 0042 0390     		str	r0, [sp, #12]
  97 0044 0291     		str	r1, [sp, #8]
  98 0046 0192     		str	r2, [sp, #4]
  99 0048 0093     		str	r3, [sp]
 100              		.loc 1 118 0
 101 004a 009B     		ldr	r3, [sp]
 102              		.loc 1 119 0
 103 004c 1846     		mov	r0, r3
 104 004e 04B0     		add	sp, sp, #16
 105              		@ sp needed
 106 0050 7047     		bx	lr
 107              		.cfi_endproc
 108              	.LFE232:
 109              		.size	_write_r, .-_write_r
 110 0052 00BF     		.align	2
 111 0054 AFF30080 		.p2align 4,,15
 111      AFF30080 
ARM GAS  /tmp/cczaK23z.s 			page 3


 111      AFF30080 
 112              		.global	_open_r
 113              		.thumb
 114              		.thumb_func
 115              		.type	_open_r, %function
 116              	_open_r:
 117              	.LFB233:
 118              		.loc 1 124 0
 119              		.cfi_startproc
 120              		@ args = 0, pretend = 0, frame = 8
 121              		@ frame_needed = 0, uses_anonymous_args = 0
 122              		@ link register save eliminated.
 123 0060 82B0     		sub	sp, sp, #8
 124              		.cfi_def_cfa_offset 8
 125 0062 0190     		str	r0, [sp, #4]
 126 0064 0091     		str	r1, [sp]
 127              		.loc 1 128 0
 128 0066 0023     		movs	r3, #0
 129              		.loc 1 129 0
 130 0068 1846     		mov	r0, r3
 131 006a 02B0     		add	sp, sp, #8
 132              		@ sp needed
 133 006c 7047     		bx	lr
 134              		.cfi_endproc
 135              	.LFE233:
 136              		.size	_open_r, .-_open_r
 137 006e 00BF     		.align	2
 138              		.p2align 4,,15
 139              		.global	_close_r
 140              		.thumb
 141              		.thumb_func
 142              		.type	_close_r, %function
 143              	_close_r:
 144              	.LFB234:
 145              		.loc 1 134 0
 146              		.cfi_startproc
 147              		@ args = 0, pretend = 0, frame = 8
 148              		@ frame_needed = 0, uses_anonymous_args = 0
 149              		@ link register save eliminated.
 150 0070 82B0     		sub	sp, sp, #8
 151              		.cfi_def_cfa_offset 8
 152 0072 0190     		str	r0, [sp, #4]
 153 0074 0091     		str	r1, [sp]
 154              		.loc 1 138 0
 155 0076 0023     		movs	r3, #0
 156              		.loc 1 139 0
 157 0078 1846     		mov	r0, r3
 158 007a 02B0     		add	sp, sp, #8
 159              		@ sp needed
 160 007c 7047     		bx	lr
 161              		.cfi_endproc
 162              	.LFE234:
 163              		.size	_close_r, .-_close_r
 164 007e 00BF     		.align	2
 165              		.p2align 4,,15
 166              		.global	_sbrk_r
 167              		.thumb
ARM GAS  /tmp/cczaK23z.s 			page 4


 168              		.thumb_func
 169              		.type	_sbrk_r, %function
 170              	_sbrk_r:
 171              	.LFB235:
 172              		.loc 1 145 0
 173              		.cfi_startproc
 174              		@ args = 0, pretend = 0, frame = 16
 175              		@ frame_needed = 0, uses_anonymous_args = 0
 176 0080 00B5     		push	{lr}
 177              		.cfi_def_cfa_offset 4
 178              		.cfi_offset 14, -4
 179 0082 85B0     		sub	sp, sp, #20
 180              		.cfi_def_cfa_offset 24
 181 0084 0190     		str	r0, [sp, #4]
 182 0086 0091     		str	r1, [sp]
 183              		.loc 1 151 0
 184 0088 009B     		ldr	r3, [sp]
 185 008a 1846     		mov	r0, r3
 186 008c FFF7FEFF 		bl	chCoreAlloc
 187 0090 0390     		str	r0, [sp, #12]
 188              		.loc 1 152 0
 189 0092 039B     		ldr	r3, [sp, #12]
 190 0094 002B     		cmp	r3, #0
 191 0096 05D1     		bne	.L12
 192              		.loc 1 153 0
 193 0098 019B     		ldr	r3, [sp, #4]
 194 009a 0C22     		movs	r2, #12
 195 009c 1A60     		str	r2, [r3]
 196              		.loc 1 154 0
 197 009e 4FF0FF33 		mov	r3, #-1
 198 00a2 00E0     		b	.L13
 199              	.L12:
 200              		.loc 1 156 0
 201 00a4 039B     		ldr	r3, [sp, #12]
 202              	.L13:
 203              		.loc 1 162 0
 204 00a6 1846     		mov	r0, r3
 205 00a8 05B0     		add	sp, sp, #20
 206              		@ sp needed
 207 00aa 5DF804FB 		ldr	pc, [sp], #4
 208              		.cfi_endproc
 209              	.LFE235:
 210              		.size	_sbrk_r, .-_sbrk_r
 211 00ae 00BF     		.align	2
 212              		.p2align 4,,15
 213              		.global	_fstat_r
 214              		.thumb
 215              		.thumb_func
 216              		.type	_fstat_r, %function
 217              	_fstat_r:
 218              	.LFB236:
 219              		.loc 1 168 0
 220              		.cfi_startproc
 221              		@ args = 0, pretend = 0, frame = 16
 222              		@ frame_needed = 0, uses_anonymous_args = 0
 223 00b0 00B5     		push	{lr}
 224              		.cfi_def_cfa_offset 4
ARM GAS  /tmp/cczaK23z.s 			page 5


 225              		.cfi_offset 14, -4
 226 00b2 85B0     		sub	sp, sp, #20
 227              		.cfi_def_cfa_offset 24
 228 00b4 0390     		str	r0, [sp, #12]
 229 00b6 0291     		str	r1, [sp, #8]
 230 00b8 0192     		str	r2, [sp, #4]
 231              		.loc 1 172 0
 232 00ba 0198     		ldr	r0, [sp, #4]
 233 00bc 0021     		movs	r1, #0
 234 00be 3C22     		movs	r2, #60
 235 00c0 FFF7FEFF 		bl	memset
 236              		.loc 1 173 0
 237 00c4 019B     		ldr	r3, [sp, #4]
 238 00c6 4FF40052 		mov	r2, #8192
 239 00ca 5A60     		str	r2, [r3, #4]
 240              		.loc 1 174 0
 241 00cc 0023     		movs	r3, #0
 242              		.loc 1 175 0
 243 00ce 1846     		mov	r0, r3
 244 00d0 05B0     		add	sp, sp, #20
 245              		@ sp needed
 246 00d2 5DF804FB 		ldr	pc, [sp], #4
 247              		.cfi_endproc
 248              	.LFE236:
 249              		.size	_fstat_r, .-_fstat_r
 250 00d6 00BF     		.align	2
 251 00d8 AFF30080 		.p2align 4,,15
 251      AFF30080 
 252              		.global	_isatty_r
 253              		.thumb
 254              		.thumb_func
 255              		.type	_isatty_r, %function
 256              	_isatty_r:
 257              	.LFB237:
 258              		.loc 1 181 0
 259              		.cfi_startproc
 260              		@ args = 0, pretend = 0, frame = 8
 261              		@ frame_needed = 0, uses_anonymous_args = 0
 262              		@ link register save eliminated.
 263 00e0 82B0     		sub	sp, sp, #8
 264              		.cfi_def_cfa_offset 8
 265 00e2 0190     		str	r0, [sp, #4]
 266 00e4 0091     		str	r1, [sp]
 267              		.loc 1 185 0
 268 00e6 0123     		movs	r3, #1
 269              		.loc 1 186 0
 270 00e8 1846     		mov	r0, r3
 271 00ea 02B0     		add	sp, sp, #8
 272              		@ sp needed
 273 00ec 7047     		bx	lr
 274              		.cfi_endproc
 275              	.LFE237:
 276              		.size	_isatty_r, .-_isatty_r
 277              	.Letext0:
 278              		.file 2 "/nfs/nfs5/home/research/hardware/arm2/gcc-arm-embedded/gcc-arm-none-eabi-4_8-2014q2/lib/g
 279              		.file 3 "/nfs/nfs5/home/research/hardware/arm2/gcc-arm-embedded/gcc-arm-none-eabi-4_8-2014q2/arm-n
 280              		.file 4 "/nfs/nfs5/home/research/hardware/arm2/gcc-arm-embedded/gcc-arm-none-eabi-4_8-2014q2/arm-n
ARM GAS  /tmp/cczaK23z.s 			page 6


 281              		.file 5 "/nfs/nfs5/home/research/hardware/arm2/gcc-arm-embedded/gcc-arm-none-eabi-4_8-2014q2/arm-n
 282              		.file 6 "/nfs/nfs5/home/research/hardware/arm2/gcc-arm-embedded/gcc-arm-none-eabi-4_8-2014q2/arm-n
 283              		.file 7 "/nfs/nfs5/home/research/hardware/arm2/gcc-arm-embedded/gcc-arm-none-eabi-4_8-2014q2/arm-n
 284              		.file 8 "/nfs/nfs5/home/research/hardware/arm2/gcc-arm-embedded/gcc-arm-none-eabi-4_8-2014q2/arm-n
 285              		.file 9 "/nfs/nfs5/home/research/hardware/arm2/gcc-arm-embedded/gcc-arm-none-eabi-4_8-2014q2/arm-n
 286              		.file 10 "../../ChibiOS/os/rt/ports/ARMCMx/compilers/GCC/chtypes.h"
 287              		.file 11 "../../ChibiOS/os/rt/include/chsystypes.h"
 288              		.file 12 "../../ChibiOS/os/rt/include/chschd.h"
 289              		.file 13 "../../ChibiOS/os/rt/ports/ARMCMx/chcore.h"
 290              		.file 14 "../../ChibiOS/os/rt/ports/ARMCMx/chcore_v7m.h"
 291              		.file 15 "../../ChibiOS/os/rt/include/chtm.h"
 292              		.file 16 "../../ChibiOS/os/rt/include/chsem.h"
 293              		.file 17 "../../ChibiOS/os/rt/include/chmtx.h"
 294              		.file 18 "../../ChibiOS/os/ext/CMSIS/include/core_cm4.h"