ARM GAS  /tmp/cczaK23z.s 			page 1


   1              		.syntax unified
   2              		.cpu cortex-m4
   3              		.fpu softvfp
   4              		.eabi_attribute 20, 1
   5              		.eabi_attribute 21, 1
   6              		.eabi_attribute 23, 3
   7              		.eabi_attribute 24, 1
   8              		.eabi_attribute 25, 1
   9              		.eabi_attribute 26, 1
  10              		.eabi_attribute 30, 6
  11              		.eabi_attribute 34, 1
  12              		.eabi_attribute 18, 4
  13              		.thumb
  14              		.file	"syscalls.c"
  15              		.text
  16              	.Ltext0:
  17              		.cfi_sections	.debug_frame
  18              		.align	2
  19              		.p2align 4,,15
  20              		.global	_read_r
  21              		.thumb
  22              		.thumb_func
  23              		.type	_read_r, %function
  24              	_read_r:
  25              	.LFB230:
  26              		.file 1 "../../ChibiOS/os/various/syscalls.c"
  27              		.loc 1 72 0
  28              		.cfi_startproc
  29              		@ args = 0, pretend = 0, frame = 16
  30              		@ frame_needed = 0, uses_anonymous_args = 0
  31              		@ link register save eliminated.
  32 0000 84B0     		sub	sp, sp, #16
  33              		.cfi_def_cfa_offset 16
  34 0002 0390     		str	r0, [sp, #12]
  35 0004 0291     		str	r1, [sp, #8]
  36 0006 0192     		str	r2, [sp, #4]
  37 0008 0093     		str	r3, [sp]
  38              		.loc 1 85 0
  39 000a 039B     		ldr	r3, [sp, #12]
  40 000c 1622     		movs	r2, #22
  41 000e 1A60     		str	r2, [r3]
  42              		.loc 1 86 0
  43 0010 4FF0FF33 		mov	r3, #-1
  44              		.loc 1 88 0
  45 0014 1846     		mov	r0, r3
  46 0016 04B0     		add	sp, sp, #16
  47              		@ sp needed
  48 0018 7047     		bx	lr
  49              		.cfi_endproc
  50              	.LFE230:
  51              		.size	_read_r, .-_read_r
  52 001a 00BF     		.align	2
  53 001c AFF30080 		.p2align 4,,15
  54              		.global	_lseek_r
  55              		.thumb
  56              		.thumb_func
  57              		.type	_lseek_r, %function
ARM GAS  /tmp/cczaK23z.s 			page 2


  58              	_lseek_r:
  59              	.LFB231:
  60              		.loc 1 94 0
  61              		.cfi_startproc
  62              		@ args = 0, pretend = 0, frame = 16
  63              		@ frame_needed = 0, uses_anonymous_args = 0
  64              		@ link register save eliminated.
  65 0020 84B0     		sub	sp, sp, #16
  66              		.cfi_def_cfa_offset 16
  67 0022 0390     		str	r0, [sp, #12]
  68 0024 0291     		str	r1, [sp, #8]
  69 0026 0192     		str	r2, [sp, #4]
  70 0028 0093     		str	r3, [sp]
  71              		.loc 1 100 0
  72 002a 0023     		movs	r3, #0
  73              		.loc 1 101 0
  74 002c 1846     		mov	r0, r3
  75 002e 04B0     		add	sp, sp, #16
  76              		@ sp needed
  77 0030 7047     		bx	lr
  78              		.cfi_endproc
  79              	.LFE231:
  80              		.size	_lseek_r, .-_lseek_r
  81 0032 00BF     		.align	2
  82 0034 AFF30080 		.p2align 4,,15
  82      AFF30080 
  82      AFF30080 
  83              		.global	_write_r
  84              		.thumb
  85              		.thumb_func
  86              		.type	_write_r, %function
  87              	_write_r:
  88              	.LFB232:
  89              		.loc 1 107 0
  90              		.cfi_startproc
  91              		@ args = 0, pretend = 0, frame = 16
  92              		@ frame_needed = 0, uses_anonymous_args = 0
  93              		@ link register save eliminated.
  94 0040 84B0     		sub	sp, sp, #16
  95              		.cfi_def_cfa_offset 16
  96 0042 0390     		str	r0, [sp, #12]
  97 0044 0291     		str	r1, [sp, #8]
  98 0046 0192     		str	r2, [sp, #4]
  99 0048 0093     		str	r3, [sp]
 100              		.loc 1 118 0
 101 004a 009B     		ldr	r3, [sp]
 102              		.loc 1 119 0
 103 004c 1846     		mov	r0, r3
 104 004e 04B0     		add	sp, sp, #16
 105              		@ sp needed
 106 0050 7047     		bx	lr
 107              		.cfi_endproc
 108              	.LFE232:
 109              		.size	_write_r, .-_write_r
 110 0052 00BF     		.align	2
 111 0054 AFF30080 		.p2align 4,,15
 111      AFF30080 
ARM GAS  /tmp/cczaK23z.s 			page 3


 111      AFF30080 
 112              		.global	_open_r
 113              		.thumb
 114              		.thumb_func
 115              		.type	_open_r, %function
 116              	_open_r:
 117              	.LFB233:
 118              		.loc 1 124 0
 119              		.cfi_startproc
 120              		@ args = 0, pretend = 0, frame = 8
 121              		@ frame_needed = 0, uses_anonymous_args = 0
 122              		@ link register save eliminated.
 123 0060 82B0     		sub	sp, sp, #8
 124              		.cfi_def_cfa_offset 8
 125 0062 0190     		str	r0, [sp, #4]
 126 0064 0091     		str	r1, [sp]
 127              		.loc 1 128 0
 128 0066 0023     		movs	r3, #0
 129              		.loc 1 129 0
 130 0068 1846     		mov	r0, r3
 131 006a 02B0     		add	sp, sp, #8
 132              		@ sp needed
 133 006c 7047     		bx	lr
 134              		.cfi_endproc
 135              	.LFE233:
 136              		.size	_open_r, .-_open_r
 137 006e 00BF     		.align	2
 138              		.p2align 4,,15
 139              		.global	_close_r
 140              		.thumb
 141              		.thumb_func
 142              		.type	_close_r, %function
 143              	_close_r:
 144              	.LFB234:
 145              		.loc 1 134 0
 146              		.cfi_startproc
 147              		@ args = 0, pretend = 0, frame = 8
 148              		@ frame_needed = 0, uses_anonymous_args = 0
 149              		@ link register save eliminated.
 150 0070 82B0     		sub	sp, sp, #8
 151              		.cfi_def_cfa_offset 8
 152 0072 0190     		str	r0, [sp, #4]
 153 0074 0091     		str	r1, [sp]
 154              		.loc 1 138 0
 155 0076 0023     		movs	r3, #0
 156              		.loc 1 139 0
 157 0078 1846     		mov	r0, r3
 158 007a 02B0     		add	sp, sp, #8
 159              		@ sp needed
 160 007c 7047     		bx	lr
 161              		.cfi_endproc
 162              	.LFE234:
 163              		.size	_close_r, .-_close_r
 164 007e 00BF     		.align	2
 165              		.p2align 4,,15
 166              		.global	_sbrk_r
 167              		.thumb
ARM GAS  /tmp/cczaK23z.s 			page 4


 168              		.thumb_func
 169              		.type	_sbrk_r, %function
 170              	_sbrk_r:
 171              	.LFB235:
 172              		.loc 1 145 0
 173              		.cfi_startproc
 174              		@ args = 0, pretend = 0, frame = 16
 175              		@ frame_needed = 0, uses_anonymous_args = 0
 176 0080 00B5     		push	{lr}
 177              		.cfi_def_cfa_offset 4
 178              		.cfi_offset 14, -4
 179 0082 85B0     		sub	sp, sp, #20
 180              		.cfi_def_cfa_offset 24
 181 0084 0190     		str	r0, [sp, #4]
 182 0086 0091     		str	r1, [sp]
 183              		.loc 1 151 0
 184 0088 009B     		ldr	r3, [sp]
 185 008a 1846     		mov	r0, r3
 186 008c FFF7FEFF 		bl	chCoreAlloc
 187 0090 0390     		str	r0, [sp, #12]
 188              		.loc 1 152 0
 189 0092 039B     		ldr	r3, [sp, #12]
 190 0094 002B     		cmp	r3, #0
 191 0096 05D1     		bne	.L12
 192              		.loc 1 153 0
 193 0098 019B     		ldr	r3, [sp, #4]
 194 009a 0C22     		movs	r2, #12
 195 009c 1A60     		str	r2, [r3]
 196              		.loc 1 154 0
 197 009e 4FF0FF33 		mov	r3, #-1
 198 00a2 00E0     		b	.L13
 199              	.L12:
 200              		.loc 1 156 0
 201 00a4 039B     		ldr	r3, [sp, #12]
 202              	.L13:
 203              		.loc 1 162 0
 204 00a6 1846     		mov	r0, r3
 205 00a8 05B0     		add	sp, sp, #20
 206              		@ sp needed
 207 00aa 5DF804FB 		ldr	pc, [sp], #4
 208              		.cfi_endproc
 209              	.LFE235:
 210              		.size	_sbrk_r, .-_sbrk_r
 211 00ae 00BF     		.align	2
 212              		.p2align 4,,15
 213              		.global	_fstat_r
 214              		.thumb
 215              		.thumb_func
 216              		.type	_fstat_r, %function
 217              	_fstat_r:
 218              	.LFB236:
 219              		.loc 1 168 0
 220              		.cfi_startproc
 221              		@ args = 0, pretend = 0, frame = 16
 222              		@ frame_needed = 0, uses_anonymous_args = 0
 223 00b0 00B5     		push	{lr}
 224              		.cfi_def_cfa_offset 4
ARM GAS  /tmp/cczaK23z.s 			page 5


 225              		.cfi_offset 14, -4
 226 00b2 85B0     		sub	sp, sp, #20
 227              		.cfi_def_cfa_offset 24
 228 00b4 0390     		str	r0, [sp, #12]
 229 00b6 0291     		str	r1, [sp, #8]
 230 00b8 0192     		str	r2, [sp, #4]
 231              		.loc 1 172 0
 232 00ba 0198     		ldr	r0, [sp, #4]
 233 00bc 0021     		movs	r1, #0
 234 00be 3C22     		movs	r2, #60
 235 00c0 FFF7FEFF 		bl	memset
 236              		.loc 1 173 0
 237 00c4 019B     		ldr	r3, [sp, #4]
 238 00c6 4FF40052 		mov	r2, #8192
 239 00ca 5A60     		str	r2, [r3, #4]
 240              		.loc 1 174 0
 241 00cc 0023     		movs	r3, #0
 242              		.loc 1 175 0
 243 00ce 1846     		mov	r0, r3
 244 00d0 05B0     		add	sp, sp, #20
 245              		@ sp needed
 246 00d2 5DF804FB 		ldr	pc, [sp], #4
 247              		.cfi_endproc
 248              	.LFE236:
 249              		.size	_fstat_r, .-_fstat_r
 250 00d6 00BF     		.align	2
 251 00d8 AFF30080 		.p2align 4,,15
 251      AFF30080 
 252              		.global	_isatty_r
 253              		.thumb
 254              		.thumb_func
 255              		.type	_isatty_r, %function
 256              	_isatty_r:
 257              	.LFB237:
 258              		.loc 1 181 0
 259              		.cfi_startproc
 260              		@ args = 0, pretend = 0, frame = 8
 261              		@ frame_needed = 0, uses_anonymous_args = 0
 262              		@ link register save eliminated.
 263 00e0 82B0     		sub	sp, sp, #8
 264              		.cfi_def_cfa_offset 8
 265 00e2 0190     		str	r0, [sp, #4]
 266 00e4 0091     		str	r1, [sp]
 267              		.loc 1 185 0
 268 00e6 0123     		movs	r3, #1
 269              		.loc 1 186 0
 270 00e8 1846     		mov	r0, r3
 271 00ea 02B0     		add	sp, sp, #8
 272              		@ sp needed
 273 00ec 7047     		bx	lr
 274              		.cfi_endproc
 275              	.LFE237:
 276              		.size	_isatty_r, .-_isatty_r
 277              	.Letext0:
 278              		.file 2 "/nfs/nfs5/home/research/hardware/arm2/gcc-arm-embedded/gcc-arm-none-eabi-4_8-2014q2/lib/g
 279              		.file 3 "/nfs/nfs5/home/research/hardware/arm2/gcc-arm-embedded/gcc-arm-none-eabi-4_8-2014q2/arm-n
 280              		.file 4 "/nfs/nfs5/home/research/hardware/arm2/gcc-arm-embedded/gcc-arm-none-eabi-4_8-2014q2/arm-n
ARM GAS  /tmp/cczaK23z.s 			page 6


 281              		.file 5 "/nfs/nfs5/home/research/hardware/arm2/gcc-arm-embedded/gcc-arm-none-eabi-4_8-2014q2/arm-n
 282              		.file 6 "/nfs/nfs5/home/research/hardware/arm2/gcc-arm-embedded/gcc-arm-none-eabi-4_8-2014q2/arm-n
 283              		.file 7 "/nfs/nfs5/home/research/hardware/arm2/gcc-arm-embedded/gcc-arm-none-eabi-4_8-2014q2/arm-n
 284              		.file 8 "/nfs/nfs5/home/research/hardware/arm2/gcc-arm-embedded/gcc-arm-none-eabi-4_8-2014q2/arm-n
 285              		.file 9 "/nfs/nfs5/home/research/hardware/arm2/gcc-arm-embedded/gcc-arm-none-eabi-4_8-2014q2/arm-n
 286              		.file 10 "../../ChibiOS/os/rt/ports/ARMCMx/compilers/GCC/chtypes.h"
 287              		.file 11 "../../ChibiOS/os/rt/include/chsystypes.h"
 288              		.file 12 "../../ChibiOS/os/rt/include/chschd.h"
 289              		.file 13 "../../ChibiOS/os/rt/ports/ARMCMx/chcore.h"
 290              		.file 14 "../../ChibiOS/os/rt/ports/ARMCMx/chcore_v7m.h"
 291              		.file 15 "../../ChibiOS/os/rt/include/chtm.h"
 292              		.file 16 "../../ChibiOS/os/rt/include/chsem.h"
 293              		.file 17 "../../ChibiOS/os/rt/include/chmtx.h"
 294              		.file 18 "../../ChibiOS/os/ext/CMSIS/include/core_cm4.h"
 295 00ee 00BF     		.section	.debug_info,"",%progbits
 296              	.Ldebug_info0:
 297 0000 BE110000 		.4byte	0x11be
 298 0004 0400     		.2byte	0x4
 299 0006 00000000 		.4byte	.Ldebug_abbrev0
 300 000a 04       		.byte	0x4
 301 000b 01       		.uleb128 0x1
 302 000c 59040000 		.4byte	.LASF251
 303 0010 01       		.byte	0x1
 304 0011 86070000 		.4byte	.LASF252
 305 0015 F1050000 		.4byte	.LASF253
 306 0019 00000000 		.4byte	.Ltext0
 307 001d EE000000 		.4byte	.Letext0-.Ltext0
 308 0021 00000000 		.4byte	.Ldebug_line0
 309 0025 02       		.uleb128 0x2
 310 0026 00000000 		.4byte	.LASF2
 311 002a 02       		.byte	0x2
 312 002b D4       		.byte	0xd4
 313 002c 30000000 		.4byte	0x30
 314 0030 03       		.uleb128 0x3
 315 0031 04       		.byte	0x4
 316 0032 07       		.byte	0x7
 317 0033 C3050000 		.4byte	.LASF0
 318 0037 04       		.uleb128 0x4
 319 0038 04       		.byte	0x4
 320 0039 05       		.byte	0x5
 321 003a 696E7400 		.ascii	"int\000"
 322 003e 03       		.uleb128 0x3
 323 003f 01       		.byte	0x1
 324 0040 06       		.byte	0x6
 325 0041 04020000 		.4byte	.LASF1
 326 0045 02       		.uleb128 0x2
 327 0046 31010000 		.4byte	.LASF3
 328 004a 03       		.byte	0x3
 329 004b 1C       		.byte	0x1c
 330 004c 50000000 		.4byte	0x50
 331 0050 03       		.uleb128 0x3
 332 0051 01       		.byte	0x1
 333 0052 08       		.byte	0x8
 334 0053 61020000 		.4byte	.LASF4
 335 0057 03       		.uleb128 0x3
 336 0058 02       		.byte	0x2
 337 0059 05       		.byte	0x5
ARM GAS  /tmp/cczaK23z.s 			page 7


 338 005a B9080000 		.4byte	.LASF5
 339 005e 03       		.uleb128 0x3
 340 005f 02       		.byte	0x2
 341 0060 07       		.byte	0x7
 342 0061 95090000 		.4byte	.LASF6
 343 0065 02       		.uleb128 0x2
 344 0066 CF090000 		.4byte	.LASF7
 345 006a 03       		.byte	0x3
 346 006b 37       		.byte	0x37
 347 006c 70000000 		.4byte	0x70
 348 0070 03       		.uleb128 0x3
 349 0071 04       		.byte	0x4
 350 0072 05       		.byte	0x5
 351 0073 7A010000 		.4byte	.LASF8
 352 0077 02       		.uleb128 0x2
 353 0078 0E050000 		.4byte	.LASF9
 354 007c 03       		.byte	0x3
 355 007d 38       		.byte	0x38
 356 007e 82000000 		.4byte	0x82
 357 0082 03       		.uleb128 0x3
 358 0083 04       		.byte	0x4
 359 0084 07       		.byte	0x7
 360 0085 6A030000 		.4byte	.LASF10
 361 0089 03       		.uleb128 0x3
 362 008a 08       		.byte	0x8
 363 008b 05       		.byte	0x5
 364 008c 24050000 		.4byte	.LASF11
 365 0090 02       		.uleb128 0x2
 366 0091 54030000 		.4byte	.LASF12
 367 0095 03       		.byte	0x3
 368 0096 4E       		.byte	0x4e
 369 0097 9B000000 		.4byte	0x9b
 370 009b 03       		.uleb128 0x3
 371 009c 08       		.byte	0x8
 372 009d 07       		.byte	0x7
 373 009e 6F070000 		.4byte	.LASF13
 374 00a2 02       		.uleb128 0x2
 375 00a3 CC030000 		.4byte	.LASF14
 376 00a7 04       		.byte	0x4
 377 00a8 07       		.byte	0x7
 378 00a9 37000000 		.4byte	0x37
 379 00ad 02       		.uleb128 0x2
 380 00ae 82090000 		.4byte	.LASF15
 381 00b2 05       		.byte	0x5
 382 00b3 10       		.byte	0x10
 383 00b4 70000000 		.4byte	0x70
 384 00b8 02       		.uleb128 0x2
 385 00b9 3B010000 		.4byte	.LASF16
 386 00bd 05       		.byte	0x5
 387 00be 14       		.byte	0x14
 388 00bf 57000000 		.4byte	0x57
 389 00c3 02       		.uleb128 0x2
 390 00c4 41090000 		.4byte	.LASF17
 391 00c8 05       		.byte	0x5
 392 00c9 18       		.byte	0x18
 393 00ca 5E000000 		.4byte	0x5e
 394 00ce 02       		.uleb128 0x2
ARM GAS  /tmp/cczaK23z.s 			page 8


 395 00cf B1000000 		.4byte	.LASF18
 396 00d3 05       		.byte	0x5
 397 00d4 1B       		.byte	0x1b
 398 00d5 5E000000 		.4byte	0x5e
 399 00d9 02       		.uleb128 0x2
 400 00da 3B070000 		.4byte	.LASF19
 401 00de 05       		.byte	0x5
 402 00df 27       		.byte	0x27
 403 00e0 70000000 		.4byte	0x70
 404 00e4 05       		.uleb128 0x5
 405 00e5 56080000 		.4byte	.LASF20
 406 00e9 02       		.byte	0x2
 407 00ea 6101     		.2byte	0x161
 408 00ec 30000000 		.4byte	0x30
 409 00f0 06       		.uleb128 0x6
 410 00f1 04       		.byte	0x4
 411 00f2 05       		.byte	0x5
 412 00f3 4A       		.byte	0x4a
 413 00f4 0F010000 		.4byte	0x10f
 414 00f8 07       		.uleb128 0x7
 415 00f9 1A010000 		.4byte	.LASF21
 416 00fd 05       		.byte	0x5
 417 00fe 4C       		.byte	0x4c
 418 00ff E4000000 		.4byte	0xe4
 419 0103 07       		.uleb128 0x7
 420 0104 43070000 		.4byte	.LASF22
 421 0108 05       		.byte	0x5
 422 0109 4D       		.byte	0x4d
 423 010a 0F010000 		.4byte	0x10f
 424 010e 00       		.byte	0
 425 010f 08       		.uleb128 0x8
 426 0110 50000000 		.4byte	0x50
 427 0114 1F010000 		.4byte	0x11f
 428 0118 09       		.uleb128 0x9
 429 0119 1F010000 		.4byte	0x11f
 430 011d 03       		.byte	0x3
 431 011e 00       		.byte	0
 432 011f 03       		.uleb128 0x3
 433 0120 04       		.byte	0x4
 434 0121 07       		.byte	0x7
 435 0122 07000000 		.4byte	.LASF23
 436 0126 0A       		.uleb128 0xa
 437 0127 08       		.byte	0x8
 438 0128 05       		.byte	0x5
 439 0129 47       		.byte	0x47
 440 012a 47010000 		.4byte	0x147
 441 012e 0B       		.uleb128 0xb
 442 012f C4060000 		.4byte	.LASF24
 443 0133 05       		.byte	0x5
 444 0134 49       		.byte	0x49
 445 0135 37000000 		.4byte	0x37
 446 0139 00       		.byte	0
 447 013a 0B       		.uleb128 0xb
 448 013b 10000000 		.4byte	.LASF25
 449 013f 05       		.byte	0x5
 450 0140 4E       		.byte	0x4e
 451 0141 F0000000 		.4byte	0xf0
ARM GAS  /tmp/cczaK23z.s 			page 9


 452 0145 04       		.byte	0x4
 453 0146 00       		.byte	0
 454 0147 02       		.uleb128 0x2
 455 0148 3E080000 		.4byte	.LASF26
 456 014c 05       		.byte	0x5
 457 014d 4F       		.byte	0x4f
 458 014e 26010000 		.4byte	0x126
 459 0152 02       		.uleb128 0x2
 460 0153 2E080000 		.4byte	.LASF27
 461 0157 05       		.byte	0x5
 462 0158 53       		.byte	0x53
 463 0159 A2000000 		.4byte	0xa2
 464 015d 0C       		.uleb128 0xc
 465 015e 04       		.byte	0x4
 466 015f 02       		.uleb128 0x2
 467 0160 69090000 		.4byte	.LASF28
 468 0164 06       		.byte	0x6
 469 0165 16       		.byte	0x16
 470 0166 82000000 		.4byte	0x82
 471 016a 0D       		.uleb128 0xd
 472 016b 21040000 		.4byte	.LASF33
 473 016f 18       		.byte	0x18
 474 0170 06       		.byte	0x6
 475 0171 2D       		.byte	0x2d
 476 0172 BD010000 		.4byte	0x1bd
 477 0176 0B       		.uleb128 0xb
 478 0177 5D080000 		.4byte	.LASF29
 479 017b 06       		.byte	0x6
 480 017c 2F       		.byte	0x2f
 481 017d BD010000 		.4byte	0x1bd
 482 0181 00       		.byte	0
 483 0182 0E       		.uleb128 0xe
 484 0183 5F6B00   		.ascii	"_k\000"
 485 0186 06       		.byte	0x6
 486 0187 30       		.byte	0x30
 487 0188 37000000 		.4byte	0x37
 488 018c 04       		.byte	0x4
 489 018d 0B       		.uleb128 0xb
 490 018e 39040000 		.4byte	.LASF30
 491 0192 06       		.byte	0x6
 492 0193 30       		.byte	0x30
 493 0194 37000000 		.4byte	0x37
 494 0198 08       		.byte	0x8
 495 0199 0B       		.uleb128 0xb
 496 019a A4050000 		.4byte	.LASF31
 497 019e 06       		.byte	0x6
 498 019f 30       		.byte	0x30
 499 01a0 37000000 		.4byte	0x37
 500 01a4 0C       		.byte	0xc
 501 01a5 0B       		.uleb128 0xb
 502 01a6 20030000 		.4byte	.LASF32
 503 01aa 06       		.byte	0x6
 504 01ab 30       		.byte	0x30
 505 01ac 37000000 		.4byte	0x37
 506 01b0 10       		.byte	0x10
 507 01b1 0E       		.uleb128 0xe
 508 01b2 5F7800   		.ascii	"_x\000"
ARM GAS  /tmp/cczaK23z.s 			page 10


 509 01b5 06       		.byte	0x6
 510 01b6 31       		.byte	0x31
 511 01b7 C3010000 		.4byte	0x1c3
 512 01bb 14       		.byte	0x14
 513 01bc 00       		.byte	0
 514 01bd 0F       		.uleb128 0xf
 515 01be 04       		.byte	0x4
 516 01bf 6A010000 		.4byte	0x16a
 517 01c3 08       		.uleb128 0x8
 518 01c4 5F010000 		.4byte	0x15f
 519 01c8 D3010000 		.4byte	0x1d3
 520 01cc 09       		.uleb128 0x9
 521 01cd 1F010000 		.4byte	0x11f
 522 01d1 00       		.byte	0
 523 01d2 00       		.byte	0
 524 01d3 0D       		.uleb128 0xd
 525 01d4 C1000000 		.4byte	.LASF34
 526 01d8 24       		.byte	0x24
 527 01d9 06       		.byte	0x6
 528 01da 35       		.byte	0x35
 529 01db 4C020000 		.4byte	0x24c
 530 01df 0B       		.uleb128 0xb
 531 01e0 DD000000 		.4byte	.LASF35
 532 01e4 06       		.byte	0x6
 533 01e5 37       		.byte	0x37
 534 01e6 37000000 		.4byte	0x37
 535 01ea 00       		.byte	0
 536 01eb 0B       		.uleb128 0xb
 537 01ec 190A0000 		.4byte	.LASF36
 538 01f0 06       		.byte	0x6
 539 01f1 38       		.byte	0x38
 540 01f2 37000000 		.4byte	0x37
 541 01f6 04       		.byte	0x4
 542 01f7 0B       		.uleb128 0xb
 543 01f8 A8090000 		.4byte	.LASF37
 544 01fc 06       		.byte	0x6
 545 01fd 39       		.byte	0x39
 546 01fe 37000000 		.4byte	0x37
 547 0202 08       		.byte	0x8
 548 0203 0B       		.uleb128 0xb
 549 0204 5C060000 		.4byte	.LASF38
 550 0208 06       		.byte	0x6
 551 0209 3A       		.byte	0x3a
 552 020a 37000000 		.4byte	0x37
 553 020e 0C       		.byte	0xc
 554 020f 0B       		.uleb128 0xb
 555 0210 DC010000 		.4byte	.LASF39
 556 0214 06       		.byte	0x6
 557 0215 3B       		.byte	0x3b
 558 0216 37000000 		.4byte	0x37
 559 021a 10       		.byte	0x10
 560 021b 0B       		.uleb128 0xb
 561 021c F5080000 		.4byte	.LASF40
 562 0220 06       		.byte	0x6
 563 0221 3C       		.byte	0x3c
 564 0222 37000000 		.4byte	0x37
 565 0226 14       		.byte	0x14
ARM GAS  /tmp/cczaK23z.s 			page 11


 566 0227 0B       		.uleb128 0xb
 567 0228 E2060000 		.4byte	.LASF41
 568 022c 06       		.byte	0x6
 569 022d 3D       		.byte	0x3d
 570 022e 37000000 		.4byte	0x37
 571 0232 18       		.byte	0x18
 572 0233 0B       		.uleb128 0xb
 573 0234 FE060000 		.4byte	.LASF42
 574 0238 06       		.byte	0x6
 575 0239 3E       		.byte	0x3e
 576 023a 37000000 		.4byte	0x37
 577 023e 1C       		.byte	0x1c
 578 023f 0B       		.uleb128 0xb
 579 0240 FA090000 		.4byte	.LASF43
 580 0244 06       		.byte	0x6
 581 0245 3F       		.byte	0x3f
 582 0246 37000000 		.4byte	0x37
 583 024a 20       		.byte	0x20
 584 024b 00       		.byte	0
 585 024c 10       		.uleb128 0x10
 586 024d 56010000 		.4byte	.LASF44
 587 0251 0801     		.2byte	0x108
 588 0253 06       		.byte	0x6
 589 0254 48       		.byte	0x48
 590 0255 8C020000 		.4byte	0x28c
 591 0259 0B       		.uleb128 0xb
 592 025a F2090000 		.4byte	.LASF45
 593 025e 06       		.byte	0x6
 594 025f 49       		.byte	0x49
 595 0260 8C020000 		.4byte	0x28c
 596 0264 00       		.byte	0
 597 0265 0B       		.uleb128 0xb
 598 0266 B2070000 		.4byte	.LASF46
 599 026a 06       		.byte	0x6
 600 026b 4A       		.byte	0x4a
 601 026c 8C020000 		.4byte	0x28c
 602 0270 80       		.byte	0x80
 603 0271 11       		.uleb128 0x11
 604 0272 D5080000 		.4byte	.LASF47
 605 0276 06       		.byte	0x6
 606 0277 4C       		.byte	0x4c
 607 0278 5F010000 		.4byte	0x15f
 608 027c 0001     		.2byte	0x100
 609 027e 11       		.uleb128 0x11
 610 027f 29090000 		.4byte	.LASF48
 611 0283 06       		.byte	0x6
 612 0284 4F       		.byte	0x4f
 613 0285 5F010000 		.4byte	0x15f
 614 0289 0401     		.2byte	0x104
 615 028b 00       		.byte	0
 616 028c 08       		.uleb128 0x8
 617 028d 5D010000 		.4byte	0x15d
 618 0291 9C020000 		.4byte	0x29c
 619 0295 09       		.uleb128 0x9
 620 0296 1F010000 		.4byte	0x11f
 621 029a 1F       		.byte	0x1f
 622 029b 00       		.byte	0
ARM GAS  /tmp/cczaK23z.s 			page 12


 623 029c 10       		.uleb128 0x10
 624 029d BC060000 		.4byte	.LASF49
 625 02a1 9001     		.2byte	0x190
 626 02a3 06       		.byte	0x6
 627 02a4 5B       		.byte	0x5b
 628 02a5 DA020000 		.4byte	0x2da
 629 02a9 0B       		.uleb128 0xb
 630 02aa 5D080000 		.4byte	.LASF29
 631 02ae 06       		.byte	0x6
 632 02af 5C       		.byte	0x5c
 633 02b0 DA020000 		.4byte	0x2da
 634 02b4 00       		.byte	0
 635 02b5 0B       		.uleb128 0xb
 636 02b6 14090000 		.4byte	.LASF50
 637 02ba 06       		.byte	0x6
 638 02bb 5D       		.byte	0x5d
 639 02bc 37000000 		.4byte	0x37
 640 02c0 04       		.byte	0x4
 641 02c1 0B       		.uleb128 0xb
 642 02c2 AC020000 		.4byte	.LASF51
 643 02c6 06       		.byte	0x6
 644 02c7 5F       		.byte	0x5f
 645 02c8 E0020000 		.4byte	0x2e0
 646 02cc 08       		.byte	0x8
 647 02cd 0B       		.uleb128 0xb
 648 02ce 56010000 		.4byte	.LASF44
 649 02d2 06       		.byte	0x6
 650 02d3 60       		.byte	0x60
 651 02d4 4C020000 		.4byte	0x24c
 652 02d8 88       		.byte	0x88
 653 02d9 00       		.byte	0
 654 02da 0F       		.uleb128 0xf
 655 02db 04       		.byte	0x4
 656 02dc 9C020000 		.4byte	0x29c
 657 02e0 08       		.uleb128 0x8
 658 02e1 F0020000 		.4byte	0x2f0
 659 02e5 F0020000 		.4byte	0x2f0
 660 02e9 09       		.uleb128 0x9
 661 02ea 1F010000 		.4byte	0x11f
 662 02ee 1F       		.byte	0x1f
 663 02ef 00       		.byte	0
 664 02f0 0F       		.uleb128 0xf
 665 02f1 04       		.byte	0x4
 666 02f2 F6020000 		.4byte	0x2f6
 667 02f6 12       		.uleb128 0x12
 668 02f7 0D       		.uleb128 0xd
 669 02f8 19090000 		.4byte	.LASF52
 670 02fc 08       		.byte	0x8
 671 02fd 06       		.byte	0x6
 672 02fe 73       		.byte	0x73
 673 02ff 1C030000 		.4byte	0x31c
 674 0303 0B       		.uleb128 0xb
 675 0304 F8070000 		.4byte	.LASF53
 676 0308 06       		.byte	0x6
 677 0309 74       		.byte	0x74
 678 030a 1C030000 		.4byte	0x31c
 679 030e 00       		.byte	0
ARM GAS  /tmp/cczaK23z.s 			page 13


 680 030f 0B       		.uleb128 0xb
 681 0310 94010000 		.4byte	.LASF54
 682 0314 06       		.byte	0x6
 683 0315 75       		.byte	0x75
 684 0316 37000000 		.4byte	0x37
 685 031a 04       		.byte	0x4
 686 031b 00       		.byte	0
 687 031c 0F       		.uleb128 0xf
 688 031d 04       		.byte	0x4
 689 031e 50000000 		.4byte	0x50
 690 0322 0D       		.uleb128 0xd
 691 0323 7C030000 		.4byte	.LASF55
 692 0327 68       		.byte	0x68
 693 0328 06       		.byte	0x6
 694 0329 B3       		.byte	0xb3
 695 032a 4C040000 		.4byte	0x44c
 696 032e 0E       		.uleb128 0xe
 697 032f 5F7000   		.ascii	"_p\000"
 698 0332 06       		.byte	0x6
 699 0333 B4       		.byte	0xb4
 700 0334 1C030000 		.4byte	0x31c
 701 0338 00       		.byte	0
 702 0339 0E       		.uleb128 0xe
 703 033a 5F7200   		.ascii	"_r\000"
 704 033d 06       		.byte	0x6
 705 033e B5       		.byte	0xb5
 706 033f 37000000 		.4byte	0x37
 707 0343 04       		.byte	0x4
 708 0344 0E       		.uleb128 0xe
 709 0345 5F7700   		.ascii	"_w\000"
 710 0348 06       		.byte	0x6
 711 0349 B6       		.byte	0xb6
 712 034a 37000000 		.4byte	0x37
 713 034e 08       		.byte	0x8
 714 034f 0B       		.uleb128 0xb
 715 0350 9B060000 		.4byte	.LASF56
 716 0354 06       		.byte	0x6
 717 0355 B7       		.byte	0xb7
 718 0356 57000000 		.4byte	0x57
 719 035a 0C       		.byte	0xc
 720 035b 0B       		.uleb128 0xb
 721 035c 50010000 		.4byte	.LASF57
 722 0360 06       		.byte	0x6
 723 0361 B8       		.byte	0xb8
 724 0362 57000000 		.4byte	0x57
 725 0366 0E       		.byte	0xe
 726 0367 0E       		.uleb128 0xe
 727 0368 5F626600 		.ascii	"_bf\000"
 728 036c 06       		.byte	0x6
 729 036d B9       		.byte	0xb9
 730 036e F7020000 		.4byte	0x2f7
 731 0372 10       		.byte	0x10
 732 0373 0B       		.uleb128 0xb
 733 0374 FF080000 		.4byte	.LASF58
 734 0378 06       		.byte	0x6
 735 0379 BA       		.byte	0xba
 736 037a 37000000 		.4byte	0x37
ARM GAS  /tmp/cczaK23z.s 			page 14


 737 037e 18       		.byte	0x18
 738 037f 0B       		.uleb128 0xb
 739 0380 06030000 		.4byte	.LASF59
 740 0384 06       		.byte	0x6
 741 0385 C1       		.byte	0xc1
 742 0386 5D010000 		.4byte	0x15d
 743 038a 1C       		.byte	0x1c
 744 038b 0B       		.uleb128 0xb
 745 038c 2D000000 		.4byte	.LASF60
 746 0390 06       		.byte	0x6
 747 0391 C3       		.byte	0xc3
 748 0392 AF050000 		.4byte	0x5af
 749 0396 20       		.byte	0x20
 750 0397 0B       		.uleb128 0xb
 751 0398 50000000 		.4byte	.LASF61
 752 039c 06       		.byte	0x6
 753 039d C5       		.byte	0xc5
 754 039e DE050000 		.4byte	0x5de
 755 03a2 24       		.byte	0x24
 756 03a3 0B       		.uleb128 0xb
 757 03a4 25070000 		.4byte	.LASF62
 758 03a8 06       		.byte	0x6
 759 03a9 C8       		.byte	0xc8
 760 03aa 02060000 		.4byte	0x602
 761 03ae 28       		.byte	0x28
 762 03af 0B       		.uleb128 0xb
 763 03b0 B1020000 		.4byte	.LASF63
 764 03b4 06       		.byte	0x6
 765 03b5 C9       		.byte	0xc9
 766 03b6 1C060000 		.4byte	0x61c
 767 03ba 2C       		.byte	0x2c
 768 03bb 0E       		.uleb128 0xe
 769 03bc 5F756200 		.ascii	"_ub\000"
 770 03c0 06       		.byte	0x6
 771 03c1 CC       		.byte	0xcc
 772 03c2 F7020000 		.4byte	0x2f7
 773 03c6 30       		.byte	0x30
 774 03c7 0E       		.uleb128 0xe
 775 03c8 5F757000 		.ascii	"_up\000"
 776 03cc 06       		.byte	0x6
 777 03cd CD       		.byte	0xcd
 778 03ce 1C030000 		.4byte	0x31c
 779 03d2 38       		.byte	0x38
 780 03d3 0E       		.uleb128 0xe
 781 03d4 5F757200 		.ascii	"_ur\000"
 782 03d8 06       		.byte	0x6
 783 03d9 CE       		.byte	0xce
 784 03da 37000000 		.4byte	0x37
 785 03de 3C       		.byte	0x3c
 786 03df 0B       		.uleb128 0xb
 787 03e0 6B060000 		.4byte	.LASF64
 788 03e4 06       		.byte	0x6
 789 03e5 D1       		.byte	0xd1
 790 03e6 22060000 		.4byte	0x622
 791 03ea 40       		.byte	0x40
 792 03eb 0B       		.uleb128 0xb
 793 03ec D7000000 		.4byte	.LASF65
ARM GAS  /tmp/cczaK23z.s 			page 15


 794 03f0 06       		.byte	0x6
 795 03f1 D2       		.byte	0xd2
 796 03f2 32060000 		.4byte	0x632
 797 03f6 43       		.byte	0x43
 798 03f7 0E       		.uleb128 0xe
 799 03f8 5F6C6200 		.ascii	"_lb\000"
 800 03fc 06       		.byte	0x6
 801 03fd D5       		.byte	0xd5
 802 03fe F7020000 		.4byte	0x2f7
 803 0402 44       		.byte	0x44
 804 0403 0B       		.uleb128 0xb
 805 0404 EF070000 		.4byte	.LASF66
 806 0408 06       		.byte	0x6
 807 0409 D8       		.byte	0xd8
 808 040a 37000000 		.4byte	0x37
 809 040e 4C       		.byte	0x4c
 810 040f 0B       		.uleb128 0xb
 811 0410 3D030000 		.4byte	.LASF67
 812 0414 06       		.byte	0x6
 813 0415 D9       		.byte	0xd9
 814 0416 AD000000 		.4byte	0xad
 815 041a 50       		.byte	0x50
 816 041b 0B       		.uleb128 0xb
 817 041c 63080000 		.4byte	.LASF68
 818 0420 06       		.byte	0x6
 819 0421 DC       		.byte	0xdc
 820 0422 6A040000 		.4byte	0x46a
 821 0426 54       		.byte	0x54
 822 0427 0B       		.uleb128 0xb
 823 0428 F7000000 		.4byte	.LASF69
 824 042c 06       		.byte	0x6
 825 042d E0       		.byte	0xe0
 826 042e 52010000 		.4byte	0x152
 827 0432 58       		.byte	0x58
 828 0433 0B       		.uleb128 0xb
 829 0434 87060000 		.4byte	.LASF70
 830 0438 06       		.byte	0x6
 831 0439 E2       		.byte	0xe2
 832 043a 47010000 		.4byte	0x147
 833 043e 5C       		.byte	0x5c
 834 043f 0B       		.uleb128 0xb
 835 0440 8F030000 		.4byte	.LASF71
 836 0444 06       		.byte	0x6
 837 0445 E3       		.byte	0xe3
 838 0446 37000000 		.4byte	0x37
 839 044a 64       		.byte	0x64
 840 044b 00       		.byte	0
 841 044c 13       		.uleb128 0x13
 842 044d 37000000 		.4byte	0x37
 843 0451 6A040000 		.4byte	0x46a
 844 0455 14       		.uleb128 0x14
 845 0456 6A040000 		.4byte	0x46a
 846 045a 14       		.uleb128 0x14
 847 045b 5D010000 		.4byte	0x15d
 848 045f 14       		.uleb128 0x14
 849 0460 A2050000 		.4byte	0x5a2
 850 0464 14       		.uleb128 0x14
ARM GAS  /tmp/cczaK23z.s 			page 16


 851 0465 37000000 		.4byte	0x37
 852 0469 00       		.byte	0
 853 046a 0F       		.uleb128 0xf
 854 046b 04       		.byte	0x4
 855 046c 70040000 		.4byte	0x470
 856 0470 15       		.uleb128 0x15
 857 0471 89020000 		.4byte	.LASF72
 858 0475 2804     		.2byte	0x428
 859 0477 06       		.byte	0x6
 860 0478 3902     		.2byte	0x239
 861 047a A2050000 		.4byte	0x5a2
 862 047e 16       		.uleb128 0x16
 863 047f DE030000 		.4byte	.LASF73
 864 0483 06       		.byte	0x6
 865 0484 3B02     		.2byte	0x23b
 866 0486 37000000 		.4byte	0x37
 867 048a 00       		.byte	0
 868 048b 16       		.uleb128 0x16
 869 048c C6020000 		.4byte	.LASF74
 870 0490 06       		.byte	0x6
 871 0491 4002     		.2byte	0x240
 872 0493 89060000 		.4byte	0x689
 873 0497 04       		.byte	0x4
 874 0498 16       		.uleb128 0x16
 875 0499 DD070000 		.4byte	.LASF75
 876 049d 06       		.byte	0x6
 877 049e 4002     		.2byte	0x240
 878 04a0 89060000 		.4byte	0x689
 879 04a4 08       		.byte	0x8
 880 04a5 16       		.uleb128 0x16
 881 04a6 71060000 		.4byte	.LASF76
 882 04aa 06       		.byte	0x6
 883 04ab 4002     		.2byte	0x240
 884 04ad 89060000 		.4byte	0x689
 885 04b1 0C       		.byte	0xc
 886 04b2 16       		.uleb128 0x16
 887 04b3 0F090000 		.4byte	.LASF77
 888 04b7 06       		.byte	0x6
 889 04b8 4202     		.2byte	0x242
 890 04ba 37000000 		.4byte	0x37
 891 04be 10       		.byte	0x10
 892 04bf 16       		.uleb128 0x16
 893 04c0 19050000 		.4byte	.LASF78
 894 04c4 06       		.byte	0x6
 895 04c5 4302     		.2byte	0x243
 896 04c7 6B080000 		.4byte	0x86b
 897 04cb 14       		.byte	0x14
 898 04cc 16       		.uleb128 0x16
 899 04cd E5010000 		.4byte	.LASF79
 900 04d1 06       		.byte	0x6
 901 04d2 4502     		.2byte	0x245
 902 04d4 37000000 		.4byte	0x37
 903 04d8 30       		.byte	0x30
 904 04d9 16       		.uleb128 0x16
 905 04da 71050000 		.4byte	.LASF80
 906 04de 06       		.byte	0x6
 907 04df 4602     		.2byte	0x246
ARM GAS  /tmp/cczaK23z.s 			page 17


 908 04e1 D3050000 		.4byte	0x5d3
 909 04e5 34       		.byte	0x34
 910 04e6 16       		.uleb128 0x16
 911 04e7 84030000 		.4byte	.LASF81
 912 04eb 06       		.byte	0x6
 913 04ec 4802     		.2byte	0x248
 914 04ee 37000000 		.4byte	0x37
 915 04f2 38       		.byte	0x38
 916 04f3 16       		.uleb128 0x16
 917 04f4 41040000 		.4byte	.LASF82
 918 04f8 06       		.byte	0x6
 919 04f9 4A02     		.2byte	0x24a
 920 04fb 86080000 		.4byte	0x886
 921 04ff 3C       		.byte	0x3c
 922 0500 16       		.uleb128 0x16
 923 0501 7A090000 		.4byte	.LASF83
 924 0505 06       		.byte	0x6
 925 0506 4D02     		.2byte	0x24d
 926 0508 BD010000 		.4byte	0x1bd
 927 050c 40       		.byte	0x40
 928 050d 16       		.uleb128 0x16
 929 050e 8A010000 		.4byte	.LASF84
 930 0512 06       		.byte	0x6
 931 0513 4E02     		.2byte	0x24e
 932 0515 37000000 		.4byte	0x37
 933 0519 44       		.byte	0x44
 934 051a 16       		.uleb128 0x16
 935 051b 65030000 		.4byte	.LASF85
 936 051f 06       		.byte	0x6
 937 0520 4F02     		.2byte	0x24f
 938 0522 BD010000 		.4byte	0x1bd
 939 0526 48       		.byte	0x48
 940 0527 16       		.uleb128 0x16
 941 0528 81050000 		.4byte	.LASF86
 942 052c 06       		.byte	0x6
 943 052d 5002     		.2byte	0x250
 944 052f 8C080000 		.4byte	0x88c
 945 0533 4C       		.byte	0x4c
 946 0534 16       		.uleb128 0x16
 947 0535 72000000 		.4byte	.LASF87
 948 0539 06       		.byte	0x6
 949 053a 5302     		.2byte	0x253
 950 053c 37000000 		.4byte	0x37
 951 0540 50       		.byte	0x50
 952 0541 16       		.uleb128 0x16
 953 0542 45030000 		.4byte	.LASF88
 954 0546 06       		.byte	0x6
 955 0547 5402     		.2byte	0x254
 956 0549 A2050000 		.4byte	0x5a2
 957 054d 54       		.byte	0x54
 958 054e 16       		.uleb128 0x16
 959 054f 66060000 		.4byte	.LASF89
 960 0553 06       		.byte	0x6
 961 0554 7702     		.2byte	0x277
 962 0556 49080000 		.4byte	0x849
 963 055a 58       		.byte	0x58
 964 055b 17       		.uleb128 0x17
ARM GAS  /tmp/cczaK23z.s 			page 18


 965 055c BC060000 		.4byte	.LASF49
 966 0560 06       		.byte	0x6
 967 0561 7B02     		.2byte	0x27b
 968 0563 DA020000 		.4byte	0x2da
 969 0567 4801     		.2byte	0x148
 970 0569 17       		.uleb128 0x17
 971 056a 4B040000 		.4byte	.LASF90
 972 056e 06       		.byte	0x6
 973 056f 7C02     		.2byte	0x27c
 974 0571 9C020000 		.4byte	0x29c
 975 0575 4C01     		.2byte	0x14c
 976 0577 17       		.uleb128 0x17
 977 0578 33030000 		.4byte	.LASF91
 978 057c 06       		.byte	0x6
 979 057d 8002     		.2byte	0x280
 980 057f 9D080000 		.4byte	0x89d
 981 0583 DC02     		.2byte	0x2dc
 982 0585 17       		.uleb128 0x17
 983 0586 49050000 		.4byte	.LASF92
 984 058a 06       		.byte	0x6
 985 058b 8502     		.2byte	0x285
 986 058d 4E060000 		.4byte	0x64e
 987 0591 E002     		.2byte	0x2e0
 988 0593 17       		.uleb128 0x17
 989 0594 22000000 		.4byte	.LASF93
 990 0598 06       		.byte	0x6
 991 0599 8602     		.2byte	0x286
 992 059b A9080000 		.4byte	0x8a9
 993 059f EC02     		.2byte	0x2ec
 994 05a1 00       		.byte	0
 995 05a2 0F       		.uleb128 0xf
 996 05a3 04       		.byte	0x4
 997 05a4 A8050000 		.4byte	0x5a8
 998 05a8 03       		.uleb128 0x3
 999 05a9 01       		.byte	0x1
 1000 05aa 08       		.byte	0x8
 1001 05ab A7020000 		.4byte	.LASF94
 1002 05af 0F       		.uleb128 0xf
 1003 05b0 04       		.byte	0x4
 1004 05b1 4C040000 		.4byte	0x44c
 1005 05b5 13       		.uleb128 0x13
 1006 05b6 37000000 		.4byte	0x37
 1007 05ba D3050000 		.4byte	0x5d3
 1008 05be 14       		.uleb128 0x14
 1009 05bf 6A040000 		.4byte	0x46a
 1010 05c3 14       		.uleb128 0x14
 1011 05c4 5D010000 		.4byte	0x15d
 1012 05c8 14       		.uleb128 0x14
 1013 05c9 D3050000 		.4byte	0x5d3
 1014 05cd 14       		.uleb128 0x14
 1015 05ce 37000000 		.4byte	0x37
 1016 05d2 00       		.byte	0
 1017 05d3 0F       		.uleb128 0xf
 1018 05d4 04       		.byte	0x4
 1019 05d5 D9050000 		.4byte	0x5d9
 1020 05d9 18       		.uleb128 0x18
 1021 05da A8050000 		.4byte	0x5a8
ARM GAS  /tmp/cczaK23z.s 			page 19


 1022 05de 0F       		.uleb128 0xf
 1023 05df 04       		.byte	0x4
 1024 05e0 B5050000 		.4byte	0x5b5
 1025 05e4 13       		.uleb128 0x13
 1026 05e5 D9000000 		.4byte	0xd9
 1027 05e9 02060000 		.4byte	0x602
 1028 05ed 14       		.uleb128 0x14
 1029 05ee 6A040000 		.4byte	0x46a
 1030 05f2 14       		.uleb128 0x14
 1031 05f3 5D010000 		.4byte	0x15d
 1032 05f7 14       		.uleb128 0x14
 1033 05f8 D9000000 		.4byte	0xd9
 1034 05fc 14       		.uleb128 0x14
 1035 05fd 37000000 		.4byte	0x37
 1036 0601 00       		.byte	0
 1037 0602 0F       		.uleb128 0xf
 1038 0603 04       		.byte	0x4
 1039 0604 E4050000 		.4byte	0x5e4
 1040 0608 13       		.uleb128 0x13
 1041 0609 37000000 		.4byte	0x37
 1042 060d 1C060000 		.4byte	0x61c
 1043 0611 14       		.uleb128 0x14
 1044 0612 6A040000 		.4byte	0x46a
 1045 0616 14       		.uleb128 0x14
 1046 0617 5D010000 		.4byte	0x15d
 1047 061b 00       		.byte	0
 1048 061c 0F       		.uleb128 0xf
 1049 061d 04       		.byte	0x4
 1050 061e 08060000 		.4byte	0x608
 1051 0622 08       		.uleb128 0x8
 1052 0623 50000000 		.4byte	0x50
 1053 0627 32060000 		.4byte	0x632
 1054 062b 09       		.uleb128 0x9
 1055 062c 1F010000 		.4byte	0x11f
 1056 0630 02       		.byte	0x2
 1057 0631 00       		.byte	0
 1058 0632 08       		.uleb128 0x8
 1059 0633 50000000 		.4byte	0x50
 1060 0637 42060000 		.4byte	0x642
 1061 063b 09       		.uleb128 0x9
 1062 063c 1F010000 		.4byte	0x11f
 1063 0640 00       		.byte	0
 1064 0641 00       		.byte	0
 1065 0642 05       		.uleb128 0x5
 1066 0643 37080000 		.4byte	.LASF95
 1067 0647 06       		.byte	0x6
 1068 0648 1D01     		.2byte	0x11d
 1069 064a 22030000 		.4byte	0x322
 1070 064e 19       		.uleb128 0x19
 1071 064f 91050000 		.4byte	.LASF96
 1072 0653 0C       		.byte	0xc
 1073 0654 06       		.byte	0x6
 1074 0655 2101     		.2byte	0x121
 1075 0657 83060000 		.4byte	0x683
 1076 065b 16       		.uleb128 0x16
 1077 065c 5D080000 		.4byte	.LASF29
 1078 0660 06       		.byte	0x6
ARM GAS  /tmp/cczaK23z.s 			page 20


 1079 0661 2301     		.2byte	0x123
 1080 0663 83060000 		.4byte	0x683
 1081 0667 00       		.byte	0
 1082 0668 16       		.uleb128 0x16
 1083 0669 3A050000 		.4byte	.LASF97
 1084 066d 06       		.byte	0x6
 1085 066e 2401     		.2byte	0x124
 1086 0670 37000000 		.4byte	0x37
 1087 0674 04       		.byte	0x4
 1088 0675 16       		.uleb128 0x16
 1089 0676 8B050000 		.4byte	.LASF98
 1090 067a 06       		.byte	0x6
 1091 067b 2501     		.2byte	0x125
 1092 067d 89060000 		.4byte	0x689
 1093 0681 08       		.byte	0x8
 1094 0682 00       		.byte	0
 1095 0683 0F       		.uleb128 0xf
 1096 0684 04       		.byte	0x4
 1097 0685 4E060000 		.4byte	0x64e
 1098 0689 0F       		.uleb128 0xf
 1099 068a 04       		.byte	0x4
 1100 068b 42060000 		.4byte	0x642
 1101 068f 19       		.uleb128 0x19
 1102 0690 D5070000 		.4byte	.LASF99
 1103 0694 0E       		.byte	0xe
 1104 0695 06       		.byte	0x6
 1105 0696 3D01     		.2byte	0x13d
 1106 0698 C4060000 		.4byte	0x6c4
 1107 069c 16       		.uleb128 0x16
 1108 069d 1F070000 		.4byte	.LASF100
 1109 06a1 06       		.byte	0x6
 1110 06a2 3E01     		.2byte	0x13e
 1111 06a4 C4060000 		.4byte	0x6c4
 1112 06a8 00       		.byte	0
 1113 06a9 16       		.uleb128 0x16
 1114 06aa FD000000 		.4byte	.LASF101
 1115 06ae 06       		.byte	0x6
 1116 06af 3F01     		.2byte	0x13f
 1117 06b1 C4060000 		.4byte	0x6c4
 1118 06b5 06       		.byte	0x6
 1119 06b6 16       		.uleb128 0x16
 1120 06b7 90090000 		.4byte	.LASF102
 1121 06bb 06       		.byte	0x6
 1122 06bc 4001     		.2byte	0x140
 1123 06be 5E000000 		.4byte	0x5e
 1124 06c2 0C       		.byte	0xc
 1125 06c3 00       		.byte	0
 1126 06c4 08       		.uleb128 0x8
 1127 06c5 5E000000 		.4byte	0x5e
 1128 06c9 D4060000 		.4byte	0x6d4
 1129 06cd 09       		.uleb128 0x9
 1130 06ce 1F010000 		.4byte	0x11f
 1131 06d2 02       		.byte	0x2
 1132 06d3 00       		.byte	0
 1133 06d4 1A       		.uleb128 0x1a
 1134 06d5 D0       		.byte	0xd0
 1135 06d6 06       		.byte	0x6
ARM GAS  /tmp/cczaK23z.s 			page 21


 1136 06d7 5802     		.2byte	0x258
 1137 06d9 D5070000 		.4byte	0x7d5
 1138 06dd 16       		.uleb128 0x16
 1139 06de F7010000 		.4byte	.LASF103
 1140 06e2 06       		.byte	0x6
 1141 06e3 5A02     		.2byte	0x25a
 1142 06e5 30000000 		.4byte	0x30
 1143 06e9 00       		.byte	0
 1144 06ea 16       		.uleb128 0x16
 1145 06eb 07080000 		.4byte	.LASF104
 1146 06ef 06       		.byte	0x6
 1147 06f0 5B02     		.2byte	0x25b
 1148 06f2 A2050000 		.4byte	0x5a2
 1149 06f6 04       		.byte	0x4
 1150 06f7 16       		.uleb128 0x16
 1151 06f8 65000000 		.4byte	.LASF105
 1152 06fc 06       		.byte	0x6
 1153 06fd 5C02     		.2byte	0x25c
 1154 06ff D5070000 		.4byte	0x7d5
 1155 0703 08       		.byte	0x8
 1156 0704 16       		.uleb128 0x16
 1157 0705 A1010000 		.4byte	.LASF106
 1158 0709 06       		.byte	0x6
 1159 070a 5D02     		.2byte	0x25d
 1160 070c D3010000 		.4byte	0x1d3
 1161 0710 24       		.byte	0x24
 1162 0711 16       		.uleb128 0x16
 1163 0712 62050000 		.4byte	.LASF107
 1164 0716 06       		.byte	0x6
 1165 0717 5E02     		.2byte	0x25e
 1166 0719 37000000 		.4byte	0x37
 1167 071d 48       		.byte	0x48
 1168 071e 16       		.uleb128 0x16
 1169 071f 90060000 		.4byte	.LASF108
 1170 0723 06       		.byte	0x6
 1171 0724 5F02     		.2byte	0x25f
 1172 0726 9B000000 		.4byte	0x9b
 1173 072a 50       		.byte	0x50
 1174 072b 16       		.uleb128 0x16
 1175 072c 51080000 		.4byte	.LASF109
 1176 0730 06       		.byte	0x6
 1177 0731 6002     		.2byte	0x260
 1178 0733 8F060000 		.4byte	0x68f
 1179 0737 58       		.byte	0x58
 1180 0738 16       		.uleb128 0x16
 1181 0739 AC080000 		.4byte	.LASF110
 1182 073d 06       		.byte	0x6
 1183 073e 6102     		.2byte	0x261
 1184 0740 47010000 		.4byte	0x147
 1185 0744 68       		.byte	0x68
 1186 0745 16       		.uleb128 0x16
 1187 0746 61070000 		.4byte	.LASF111
 1188 074a 06       		.byte	0x6
 1189 074b 6202     		.2byte	0x262
 1190 074d 47010000 		.4byte	0x147
 1191 0751 70       		.byte	0x70
 1192 0752 16       		.uleb128 0x16
ARM GAS  /tmp/cczaK23z.s 			page 22


 1193 0753 79060000 		.4byte	.LASF112
 1194 0757 06       		.byte	0x6
 1195 0758 6302     		.2byte	0x263
 1196 075a 47010000 		.4byte	0x147
 1197 075e 78       		.byte	0x78
 1198 075f 16       		.uleb128 0x16
 1199 0760 E6000000 		.4byte	.LASF113
 1200 0764 06       		.byte	0x6
 1201 0765 6402     		.2byte	0x264
 1202 0767 E5070000 		.4byte	0x7e5
 1203 076b 80       		.byte	0x80
 1204 076c 16       		.uleb128 0x16
 1205 076d 0C040000 		.4byte	.LASF114
 1206 0771 06       		.byte	0x6
 1207 0772 6502     		.2byte	0x265
 1208 0774 F5070000 		.4byte	0x7f5
 1209 0778 88       		.byte	0x88
 1210 0779 16       		.uleb128 0x16
 1211 077a 220A0000 		.4byte	.LASF115
 1212 077e 06       		.byte	0x6
 1213 077f 6602     		.2byte	0x266
 1214 0781 37000000 		.4byte	0x37
 1215 0785 A0       		.byte	0xa0
 1216 0786 16       		.uleb128 0x16
 1217 0787 6C010000 		.4byte	.LASF116
 1218 078b 06       		.byte	0x6
 1219 078c 6702     		.2byte	0x267
 1220 078e 47010000 		.4byte	0x147
 1221 0792 A4       		.byte	0xa4
 1222 0793 16       		.uleb128 0x16
 1223 0794 14080000 		.4byte	.LASF117
 1224 0798 06       		.byte	0x6
 1225 0799 6802     		.2byte	0x268
 1226 079b 47010000 		.4byte	0x147
 1227 079f AC       		.byte	0xac
 1228 07a0 16       		.uleb128 0x16
 1229 07a1 BE090000 		.4byte	.LASF118
 1230 07a5 06       		.byte	0x6
 1231 07a6 6902     		.2byte	0x269
 1232 07a8 47010000 		.4byte	0x147
 1233 07ac B4       		.byte	0xb4
 1234 07ad 16       		.uleb128 0x16
 1235 07ae 4D060000 		.4byte	.LASF119
 1236 07b2 06       		.byte	0x6
 1237 07b3 6A02     		.2byte	0x26a
 1238 07b5 47010000 		.4byte	0x147
 1239 07b9 BC       		.byte	0xbc
 1240 07ba 16       		.uleb128 0x16
 1241 07bb C6000000 		.4byte	.LASF120
 1242 07bf 06       		.byte	0x6
 1243 07c0 6B02     		.2byte	0x26b
 1244 07c2 47010000 		.4byte	0x147
 1245 07c6 C4       		.byte	0xc4
 1246 07c7 16       		.uleb128 0x16
 1247 07c8 38060000 		.4byte	.LASF121
 1248 07cc 06       		.byte	0x6
 1249 07cd 6C02     		.2byte	0x26c
ARM GAS  /tmp/cczaK23z.s 			page 23


 1250 07cf 37000000 		.4byte	0x37
 1251 07d3 CC       		.byte	0xcc
 1252 07d4 00       		.byte	0
 1253 07d5 08       		.uleb128 0x8
 1254 07d6 A8050000 		.4byte	0x5a8
 1255 07da E5070000 		.4byte	0x7e5
 1256 07de 09       		.uleb128 0x9
 1257 07df 1F010000 		.4byte	0x11f
 1258 07e3 19       		.byte	0x19
 1259 07e4 00       		.byte	0
 1260 07e5 08       		.uleb128 0x8
 1261 07e6 A8050000 		.4byte	0x5a8
 1262 07ea F5070000 		.4byte	0x7f5
 1263 07ee 09       		.uleb128 0x9
 1264 07ef 1F010000 		.4byte	0x11f
 1265 07f3 07       		.byte	0x7
 1266 07f4 00       		.byte	0
 1267 07f5 08       		.uleb128 0x8
 1268 07f6 A8050000 		.4byte	0x5a8
 1269 07fa 05080000 		.4byte	0x805
 1270 07fe 09       		.uleb128 0x9
 1271 07ff 1F010000 		.4byte	0x11f
 1272 0803 17       		.byte	0x17
 1273 0804 00       		.byte	0
 1274 0805 1A       		.uleb128 0x1a
 1275 0806 F0       		.byte	0xf0
 1276 0807 06       		.byte	0x6
 1277 0808 7102     		.2byte	0x271
 1278 080a 29080000 		.4byte	0x829
 1279 080e 16       		.uleb128 0x16
 1280 080f 49090000 		.4byte	.LASF122
 1281 0813 06       		.byte	0x6
 1282 0814 7402     		.2byte	0x274
 1283 0816 29080000 		.4byte	0x829
 1284 081a 00       		.byte	0
 1285 081b 16       		.uleb128 0x16
 1286 081c 51050000 		.4byte	.LASF123
 1287 0820 06       		.byte	0x6
 1288 0821 7502     		.2byte	0x275
 1289 0823 39080000 		.4byte	0x839
 1290 0827 78       		.byte	0x78
 1291 0828 00       		.byte	0
 1292 0829 08       		.uleb128 0x8
 1293 082a 1C030000 		.4byte	0x31c
 1294 082e 39080000 		.4byte	0x839
 1295 0832 09       		.uleb128 0x9
 1296 0833 1F010000 		.4byte	0x11f
 1297 0837 1D       		.byte	0x1d
 1298 0838 00       		.byte	0
 1299 0839 08       		.uleb128 0x8
 1300 083a 30000000 		.4byte	0x30
 1301 083e 49080000 		.4byte	0x849
 1302 0842 09       		.uleb128 0x9
 1303 0843 1F010000 		.4byte	0x11f
 1304 0847 1D       		.byte	0x1d
 1305 0848 00       		.byte	0
 1306 0849 1B       		.uleb128 0x1b
ARM GAS  /tmp/cczaK23z.s 			page 24


 1307 084a F0       		.byte	0xf0
 1308 084b 06       		.byte	0x6
 1309 084c 5602     		.2byte	0x256
 1310 084e 6B080000 		.4byte	0x86b
 1311 0852 1C       		.uleb128 0x1c
 1312 0853 89020000 		.4byte	.LASF72
 1313 0857 06       		.byte	0x6
 1314 0858 6D02     		.2byte	0x26d
 1315 085a D4060000 		.4byte	0x6d4
 1316 085e 1C       		.uleb128 0x1c
 1317 085f B9000000 		.4byte	.LASF124
 1318 0863 06       		.byte	0x6
 1319 0864 7602     		.2byte	0x276
 1320 0866 05080000 		.4byte	0x805
 1321 086a 00       		.byte	0
 1322 086b 08       		.uleb128 0x8
 1323 086c A8050000 		.4byte	0x5a8
 1324 0870 7B080000 		.4byte	0x87b
 1325 0874 09       		.uleb128 0x9
 1326 0875 1F010000 		.4byte	0x11f
 1327 0879 18       		.byte	0x18
 1328 087a 00       		.byte	0
 1329 087b 1D       		.uleb128 0x1d
 1330 087c 86080000 		.4byte	0x886
 1331 0880 14       		.uleb128 0x14
 1332 0881 6A040000 		.4byte	0x46a
 1333 0885 00       		.byte	0
 1334 0886 0F       		.uleb128 0xf
 1335 0887 04       		.byte	0x4
 1336 0888 7B080000 		.4byte	0x87b
 1337 088c 0F       		.uleb128 0xf
 1338 088d 04       		.byte	0x4
 1339 088e BD010000 		.4byte	0x1bd
 1340 0892 1D       		.uleb128 0x1d
 1341 0893 9D080000 		.4byte	0x89d
 1342 0897 14       		.uleb128 0x14
 1343 0898 37000000 		.4byte	0x37
 1344 089c 00       		.byte	0
 1345 089d 0F       		.uleb128 0xf
 1346 089e 04       		.byte	0x4
 1347 089f A3080000 		.4byte	0x8a3
 1348 08a3 0F       		.uleb128 0xf
 1349 08a4 04       		.byte	0x4
 1350 08a5 92080000 		.4byte	0x892
 1351 08a9 08       		.uleb128 0x8
 1352 08aa 42060000 		.4byte	0x642
 1353 08ae B9080000 		.4byte	0x8b9
 1354 08b2 09       		.uleb128 0x9
 1355 08b3 1F010000 		.4byte	0x11f
 1356 08b7 02       		.byte	0x2
 1357 08b8 00       		.byte	0
 1358 08b9 02       		.uleb128 0x2
 1359 08ba F0000000 		.4byte	.LASF125
 1360 08be 07       		.byte	0x7
 1361 08bf 7A       		.byte	0x7a
 1362 08c0 70000000 		.4byte	0x70
 1363 08c4 02       		.uleb128 0x2
ARM GAS  /tmp/cczaK23z.s 			page 25


 1364 08c5 D9050000 		.4byte	.LASF126
 1365 08c9 07       		.byte	0x7
 1366 08ca 92       		.byte	0x92
 1367 08cb A2050000 		.4byte	0x5a2
 1368 08cf 02       		.uleb128 0x2
 1369 08d0 5F030000 		.4byte	.LASF127
 1370 08d4 07       		.byte	0x7
 1371 08d5 9B       		.byte	0x9b
 1372 08d6 5E000000 		.4byte	0x5e
 1373 08da 02       		.uleb128 0x2
 1374 08db D5060000 		.4byte	.LASF128
 1375 08df 07       		.byte	0x7
 1376 08e0 B8       		.byte	0xb8
 1377 08e1 AD000000 		.4byte	0xad
 1378 08e5 02       		.uleb128 0x2
 1379 08e6 A3000000 		.4byte	.LASF129
 1380 08ea 07       		.byte	0x7
 1381 08eb B9       		.byte	0xb9
 1382 08ec B8000000 		.4byte	0xb8
 1383 08f0 02       		.uleb128 0x2
 1384 08f1 4A010000 		.4byte	.LASF130
 1385 08f5 07       		.byte	0x7
 1386 08f6 BA       		.byte	0xba
 1387 08f7 C3000000 		.4byte	0xc3
 1388 08fb 02       		.uleb128 0x2
 1389 08fc 0C0A0000 		.4byte	.LASF131
 1390 0900 07       		.byte	0x7
 1391 0901 BB       		.byte	0xbb
 1392 0902 CE000000 		.4byte	0xce
 1393 0906 02       		.uleb128 0x2
 1394 0907 DB060000 		.4byte	.LASF132
 1395 090b 07       		.byte	0x7
 1396 090c D9       		.byte	0xd9
 1397 090d 30000000 		.4byte	0x30
 1398 0911 02       		.uleb128 0x2
 1399 0912 A9000000 		.4byte	.LASF133
 1400 0916 07       		.byte	0x7
 1401 0917 DE       		.byte	0xde
 1402 0918 5E000000 		.4byte	0x5e
 1403 091c 0D       		.uleb128 0xd
 1404 091d 54040000 		.4byte	.LASF134
 1405 0921 3C       		.byte	0x3c
 1406 0922 08       		.byte	0x8
 1407 0923 19       		.byte	0x19
 1408 0924 F5090000 		.4byte	0x9f5
 1409 0928 0B       		.uleb128 0xb
 1410 0929 2B070000 		.4byte	.LASF135
 1411 092d 08       		.byte	0x8
 1412 092e 1B       		.byte	0x1b
 1413 092f E5080000 		.4byte	0x8e5
 1414 0933 00       		.byte	0
 1415 0934 0B       		.uleb128 0xb
 1416 0935 E1090000 		.4byte	.LASF136
 1417 0939 08       		.byte	0x8
 1418 093a 1C       		.byte	0x1c
 1419 093b CF080000 		.4byte	0x8cf
 1420 093f 02       		.byte	0x2
ARM GAS  /tmp/cczaK23z.s 			page 26


 1421 0940 0B       		.uleb128 0xb
 1422 0941 39090000 		.4byte	.LASF137
 1423 0945 08       		.byte	0x8
 1424 0946 1D       		.byte	0x1d
 1425 0947 06090000 		.4byte	0x906
 1426 094b 04       		.byte	0x4
 1427 094c 0B       		.uleb128 0xb
 1428 094d CC060000 		.4byte	.LASF138
 1429 0951 08       		.byte	0x8
 1430 0952 1E       		.byte	0x1e
 1431 0953 11090000 		.4byte	0x911
 1432 0957 08       		.byte	0x8
 1433 0958 0B       		.uleb128 0xb
 1434 0959 2C020000 		.4byte	.LASF139
 1435 095d 08       		.byte	0x8
 1436 095e 1F       		.byte	0x1f
 1437 095f F0080000 		.4byte	0x8f0
 1438 0963 0A       		.byte	0xa
 1439 0964 0B       		.uleb128 0xb
 1440 0965 4D030000 		.4byte	.LASF140
 1441 0969 08       		.byte	0x8
 1442 096a 20       		.byte	0x20
 1443 096b FB080000 		.4byte	0x8fb
 1444 096f 0C       		.byte	0xc
 1445 0970 0B       		.uleb128 0xb
 1446 0971 6F020000 		.4byte	.LASF141
 1447 0975 08       		.byte	0x8
 1448 0976 21       		.byte	0x21
 1449 0977 E5080000 		.4byte	0x8e5
 1450 097b 0E       		.byte	0xe
 1451 097c 0B       		.uleb128 0xb
 1452 097d 97030000 		.4byte	.LASF142
 1453 0981 08       		.byte	0x8
 1454 0982 22       		.byte	0x22
 1455 0983 DA080000 		.4byte	0x8da
 1456 0987 10       		.byte	0x10
 1457 0988 0B       		.uleb128 0xb
 1458 0989 F5060000 		.4byte	.LASF143
 1459 098d 08       		.byte	0x8
 1460 098e 30       		.byte	0x30
 1461 098f B9080000 		.4byte	0x8b9
 1462 0993 14       		.byte	0x14
 1463 0994 0B       		.uleb128 0xb
 1464 0995 22020000 		.4byte	.LASF144
 1465 0999 08       		.byte	0x8
 1466 099a 31       		.byte	0x31
 1467 099b 70000000 		.4byte	0x70
 1468 099f 18       		.byte	0x18
 1469 09a0 0B       		.uleb128 0xb
 1470 09a1 77080000 		.4byte	.LASF145
 1471 09a5 08       		.byte	0x8
 1472 09a6 32       		.byte	0x32
 1473 09a7 B9080000 		.4byte	0x8b9
 1474 09ab 1C       		.byte	0x1c
 1475 09ac 0B       		.uleb128 0xb
 1476 09ad 02040000 		.4byte	.LASF146
 1477 09b1 08       		.byte	0x8
ARM GAS  /tmp/cczaK23z.s 			page 27


 1478 09b2 33       		.byte	0x33
 1479 09b3 70000000 		.4byte	0x70
 1480 09b7 20       		.byte	0x20
 1481 09b8 0B       		.uleb128 0xb
 1482 09b9 EA020000 		.4byte	.LASF147
 1483 09bd 08       		.byte	0x8
 1484 09be 34       		.byte	0x34
 1485 09bf B9080000 		.4byte	0x8b9
 1486 09c3 24       		.byte	0x24
 1487 09c4 0B       		.uleb128 0xb
 1488 09c5 33020000 		.4byte	.LASF148
 1489 09c9 08       		.byte	0x8
 1490 09ca 35       		.byte	0x35
 1491 09cb 70000000 		.4byte	0x70
 1492 09cf 28       		.byte	0x28
 1493 09d0 0B       		.uleb128 0xb
 1494 09d1 03050000 		.4byte	.LASF149
 1495 09d5 08       		.byte	0x8
 1496 09d6 36       		.byte	0x36
 1497 09d7 70000000 		.4byte	0x70
 1498 09db 2C       		.byte	0x2c
 1499 09dc 0B       		.uleb128 0xb
 1500 09dd 3B000000 		.4byte	.LASF150
 1501 09e1 08       		.byte	0x8
 1502 09e2 37       		.byte	0x37
 1503 09e3 70000000 		.4byte	0x70
 1504 09e7 30       		.byte	0x30
 1505 09e8 0B       		.uleb128 0xb
 1506 09e9 3D020000 		.4byte	.LASF151
 1507 09ed 08       		.byte	0x8
 1508 09ee 38       		.byte	0x38
 1509 09ef F5090000 		.4byte	0x9f5
 1510 09f3 34       		.byte	0x34
 1511 09f4 00       		.byte	0
 1512 09f5 08       		.uleb128 0x8
 1513 09f6 70000000 		.4byte	0x70
 1514 09fa 050A0000 		.4byte	0xa05
 1515 09fe 09       		.uleb128 0x9
 1516 09ff 1F010000 		.4byte	0x11f
 1517 0a03 01       		.byte	0x1
 1518 0a04 00       		.byte	0
 1519 0a05 02       		.uleb128 0x2
 1520 0a06 1A020000 		.4byte	.LASF152
 1521 0a0a 09       		.byte	0x9
 1522 0a0b 2A       		.byte	0x2a
 1523 0a0c 45000000 		.4byte	0x45
 1524 0a10 02       		.uleb128 0x2
 1525 0a11 5D000000 		.4byte	.LASF153
 1526 0a15 09       		.byte	0x9
 1527 0a16 41       		.byte	0x41
 1528 0a17 65000000 		.4byte	0x65
 1529 0a1b 02       		.uleb128 0x2
 1530 0a1c 71090000 		.4byte	.LASF154
 1531 0a20 09       		.byte	0x9
 1532 0a21 42       		.byte	0x42
 1533 0a22 77000000 		.4byte	0x77
 1534 0a26 02       		.uleb128 0x2
ARM GAS  /tmp/cczaK23z.s 			page 28


 1535 0a27 C3080000 		.4byte	.LASF155
 1536 0a2b 09       		.byte	0x9
 1537 0a2c 4E       		.byte	0x4e
 1538 0a2d 90000000 		.4byte	0x90
 1539 0a31 02       		.uleb128 0x2
 1540 0a32 E1050000 		.4byte	.LASF156
 1541 0a36 0A       		.byte	0xa
 1542 0a37 39       		.byte	0x39
 1543 0a38 1B0A0000 		.4byte	0xa1b
 1544 0a3c 02       		.uleb128 0x2
 1545 0a3d 6F080000 		.4byte	.LASF157
 1546 0a41 0A       		.byte	0xa
 1547 0a42 3C       		.byte	0x3c
 1548 0a43 050A0000 		.4byte	0xa05
 1549 0a47 02       		.uleb128 0x2
 1550 0a48 B0010000 		.4byte	.LASF158
 1551 0a4c 0A       		.byte	0xa
 1552 0a4d 3D       		.byte	0x3d
 1553 0a4e 050A0000 		.4byte	0xa05
 1554 0a52 02       		.uleb128 0x2
 1555 0a53 E2020000 		.4byte	.LASF159
 1556 0a57 0A       		.byte	0xa
 1557 0a58 3E       		.byte	0x3e
 1558 0a59 050A0000 		.4byte	0xa05
 1559 0a5d 02       		.uleb128 0x2
 1560 0a5e E5070000 		.4byte	.LASF160
 1561 0a62 0A       		.byte	0xa
 1562 0a63 3F       		.byte	0x3f
 1563 0a64 050A0000 		.4byte	0xa05
 1564 0a68 02       		.uleb128 0x2
 1565 0a69 33000000 		.4byte	.LASF161
 1566 0a6d 0A       		.byte	0xa
 1567 0a6e 40       		.byte	0x40
 1568 0a6f 1B0A0000 		.4byte	0xa1b
 1569 0a73 02       		.uleb128 0x2
 1570 0a74 BE070000 		.4byte	.LASF162
 1571 0a78 0A       		.byte	0xa
 1572 0a79 41       		.byte	0x41
 1573 0a7a 100A0000 		.4byte	0xa10
 1574 0a7e 02       		.uleb128 0x2
 1575 0a7f 47020000 		.4byte	.LASF163
 1576 0a83 0A       		.byte	0xa
 1577 0a84 43       		.byte	0x43
 1578 0a85 1B0A0000 		.4byte	0xa1b
 1579 0a89 02       		.uleb128 0x2
 1580 0a8a F8020000 		.4byte	.LASF164
 1581 0a8e 0A       		.byte	0xa
 1582 0a8f 45       		.byte	0x45
 1583 0a90 100A0000 		.4byte	0xa10
 1584 0a94 02       		.uleb128 0x2
 1585 0a95 18000000 		.4byte	.LASF165
 1586 0a99 0B       		.byte	0xb
 1587 0a9a 33       		.byte	0x33
 1588 0a9b 1B0A0000 		.4byte	0xa1b
 1589 0a9f 02       		.uleb128 0x2
 1590 0aa0 EC060000 		.4byte	.LASF166
 1591 0aa4 0B       		.byte	0xb
ARM GAS  /tmp/cczaK23z.s 			page 29


 1592 0aa5 3F       		.byte	0x3f
 1593 0aa6 AA0A0000 		.4byte	0xaaa
 1594 0aaa 0D       		.uleb128 0xd
 1595 0aab AC030000 		.4byte	.LASF167
 1596 0aaf 44       		.byte	0x44
 1597 0ab0 0C       		.byte	0xc
 1598 0ab1 C2       		.byte	0xc2
 1599 0ab2 A30B0000 		.4byte	0xba3
 1600 0ab6 0B       		.uleb128 0xb
 1601 0ab7 83010000 		.4byte	.LASF168
 1602 0abb 0C       		.byte	0xc
 1603 0abc C3       		.byte	0xc3
 1604 0abd AE0B0000 		.4byte	0xbae
 1605 0ac1 00       		.byte	0
 1606 0ac2 0B       		.uleb128 0xb
 1607 0ac3 9A010000 		.4byte	.LASF169
 1608 0ac7 0C       		.byte	0xc
 1609 0ac8 C5       		.byte	0xc5
 1610 0ac9 AE0B0000 		.4byte	0xbae
 1611 0acd 04       		.byte	0x4
 1612 0ace 0B       		.uleb128 0xb
 1613 0acf B8020000 		.4byte	.LASF170
 1614 0ad3 0C       		.byte	0xc
 1615 0ad4 C7       		.byte	0xc7
 1616 0ad5 680A0000 		.4byte	0xa68
 1617 0ad9 08       		.byte	0x8
 1618 0ada 0B       		.uleb128 0xb
 1619 0adb 27000000 		.4byte	.LASF171
 1620 0adf 0C       		.byte	0xc
 1621 0ae0 C8       		.byte	0xc8
 1622 0ae1 D50D0000 		.4byte	0xdd5
 1623 0ae5 0C       		.byte	0xc
 1624 0ae6 0B       		.uleb128 0xb
 1625 0ae7 64010000 		.4byte	.LASF172
 1626 0aeb 0C       		.byte	0xc
 1627 0aec CA       		.byte	0xca
 1628 0aed AE0B0000 		.4byte	0xbae
 1629 0af1 10       		.byte	0x10
 1630 0af2 0B       		.uleb128 0xb
 1631 0af3 AA070000 		.4byte	.LASF173
 1632 0af7 0C       		.byte	0xc
 1633 0af8 CB       		.byte	0xcb
 1634 0af9 AE0B0000 		.4byte	0xbae
 1635 0afd 14       		.byte	0x14
 1636 0afe 0B       		.uleb128 0xb
 1637 0aff 050A0000 		.4byte	.LASF174
 1638 0b03 0C       		.byte	0xc
 1639 0b04 D2       		.byte	0xd2
 1640 0b05 D3050000 		.4byte	0x5d3
 1641 0b09 18       		.byte	0x18
 1642 0b0a 0B       		.uleb128 0xb
 1643 0b0b 3C0A0000 		.4byte	.LASF175
 1644 0b0f 0C       		.byte	0xc
 1645 0b10 DD       		.byte	0xdd
 1646 0b11 470A0000 		.4byte	0xa47
 1647 0b15 1C       		.byte	0x1c
 1648 0b16 0B       		.uleb128 0xb
ARM GAS  /tmp/cczaK23z.s 			page 30


 1649 0b17 12010000 		.4byte	.LASF176
 1650 0b1b 0C       		.byte	0xc
 1651 0b1c E1       		.byte	0xe1
 1652 0b1d 3C0A0000 		.4byte	0xa3c
 1653 0b21 1D       		.byte	0x1d
 1654 0b22 0B       		.uleb128 0xb
 1655 0b23 46060000 		.4byte	.LASF177
 1656 0b27 0C       		.byte	0xc
 1657 0b28 E6       		.byte	0xe6
 1658 0b29 520A0000 		.4byte	0xa52
 1659 0b2d 1E       		.byte	0x1e
 1660 0b2e 0B       		.uleb128 0xb
 1661 0b2f 10020000 		.4byte	.LASF178
 1662 0b33 0C       		.byte	0xc
 1663 0b34 EC       		.byte	0xec
 1664 0b35 5D0A0000 		.4byte	0xa5d
 1665 0b39 1F       		.byte	0x1f
 1666 0b3a 1E       		.uleb128 0x1e
 1667 0b3b 705F7500 		.ascii	"p_u\000"
 1668 0b3f 0C       		.byte	0xc
 1669 0b40 3101     		.2byte	0x131
 1670 0b42 8F0E0000 		.4byte	0xe8f
 1671 0b46 20       		.byte	0x20
 1672 0b47 16       		.uleb128 0x16
 1673 0b48 AA050000 		.4byte	.LASF179
 1674 0b4c 0C       		.byte	0xc
 1675 0b4d 3601     		.2byte	0x136
 1676 0b4f B40B0000 		.4byte	0xbb4
 1677 0b53 24       		.byte	0x24
 1678 0b54 16       		.uleb128 0x16
 1679 0b55 45000000 		.4byte	.LASF180
 1680 0b59 0C       		.byte	0xc
 1681 0b5a 3C01     		.2byte	0x13c
 1682 0b5c D80B0000 		.4byte	0xbd8
 1683 0b60 28       		.byte	0x28
 1684 0b61 16       		.uleb128 0x16
 1685 0b62 360A0000 		.4byte	.LASF181
 1686 0b66 0C       		.byte	0xc
 1687 0b67 4001     		.2byte	0x140
 1688 0b69 730A0000 		.4byte	0xa73
 1689 0b6d 30       		.byte	0x30
 1690 0b6e 16       		.uleb128 0x16
 1691 0b6f 0E030000 		.4byte	.LASF182
 1692 0b73 0C       		.byte	0xc
 1693 0b74 4601     		.2byte	0x146
 1694 0b76 7E0A0000 		.4byte	0xa7e
 1695 0b7a 34       		.byte	0x34
 1696 0b7b 16       		.uleb128 0x16
 1697 0b7c C9010000 		.4byte	.LASF183
 1698 0b80 0C       		.byte	0xc
 1699 0b81 4D01     		.2byte	0x14d
 1700 0b83 4E0F0000 		.4byte	0xf4e
 1701 0b87 38       		.byte	0x38
 1702 0b88 16       		.uleb128 0x16
 1703 0b89 08070000 		.4byte	.LASF184
 1704 0b8d 0C       		.byte	0xc
 1705 0b8e 5101     		.2byte	0x151
ARM GAS  /tmp/cczaK23z.s 			page 31


 1706 0b90 680A0000 		.4byte	0xa68
 1707 0b94 3C       		.byte	0x3c
 1708 0b95 16       		.uleb128 0x16
 1709 0b96 E9050000 		.4byte	.LASF185
 1710 0b9a 0C       		.byte	0xc
 1711 0b9b 5801     		.2byte	0x158
 1712 0b9d 5D010000 		.4byte	0x15d
 1713 0ba1 40       		.byte	0x40
 1714 0ba2 00       		.byte	0
 1715 0ba3 02       		.uleb128 0x2
 1716 0ba4 A9060000 		.4byte	.LASF186
 1717 0ba8 0B       		.byte	0xb
 1718 0ba9 44       		.byte	0x44
 1719 0baa AE0B0000 		.4byte	0xbae
 1720 0bae 0F       		.uleb128 0xf
 1721 0baf 04       		.byte	0x4
 1722 0bb0 9F0A0000 		.4byte	0xa9f
 1723 0bb4 02       		.uleb128 0x2
 1724 0bb5 50090000 		.4byte	.LASF187
 1725 0bb9 0B       		.byte	0xb
 1726 0bba 49       		.byte	0x49
 1727 0bbb BF0B0000 		.4byte	0xbbf
 1728 0bbf 0D       		.uleb128 0xd
 1729 0bc0 29040000 		.4byte	.LASF188
 1730 0bc4 04       		.byte	0x4
 1731 0bc5 0C       		.byte	0xc
 1732 0bc6 B0       		.byte	0xb0
 1733 0bc7 D80B0000 		.4byte	0xbd8
 1734 0bcb 0B       		.uleb128 0xb
 1735 0bcc 83010000 		.4byte	.LASF168
 1736 0bd0 0C       		.byte	0xc
 1737 0bd1 B1       		.byte	0xb1
 1738 0bd2 AE0B0000 		.4byte	0xbae
 1739 0bd6 00       		.byte	0
 1740 0bd7 00       		.byte	0
 1741 0bd8 02       		.uleb128 0x2
 1742 0bd9 B9010000 		.4byte	.LASF189
 1743 0bdd 0B       		.byte	0xb
 1744 0bde 50       		.byte	0x50
 1745 0bdf E30B0000 		.4byte	0xbe3
 1746 0be3 0D       		.uleb128 0xd
 1747 0be4 C4070000 		.4byte	.LASF190
 1748 0be8 08       		.byte	0x8
 1749 0be9 0C       		.byte	0xc
 1750 0bea B7       		.byte	0xb7
 1751 0beb 080C0000 		.4byte	0xc08
 1752 0bef 0B       		.uleb128 0xb
 1753 0bf0 83010000 		.4byte	.LASF168
 1754 0bf4 0C       		.byte	0xc
 1755 0bf5 B8       		.byte	0xb8
 1756 0bf6 AE0B0000 		.4byte	0xbae
 1757 0bfa 00       		.byte	0
 1758 0bfb 0B       		.uleb128 0xb
 1759 0bfc 9A010000 		.4byte	.LASF169
 1760 0c00 0C       		.byte	0xc
 1761 0c01 B9       		.byte	0xb9
 1762 0c02 AE0B0000 		.4byte	0xbae
ARM GAS  /tmp/cczaK23z.s 			page 32


 1763 0c06 04       		.byte	0x4
 1764 0c07 00       		.byte	0
 1765 0c08 02       		.uleb128 0x2
 1766 0c09 F5030000 		.4byte	.LASF191
 1767 0c0d 0B       		.byte	0xb
 1768 0c0e 57       		.byte	0x57
 1769 0c0f 130C0000 		.4byte	0xc13
 1770 0c13 19       		.uleb128 0x19
 1771 0c14 25030000 		.4byte	.LASF192
 1772 0c18 1C       		.byte	0x1c
 1773 0c19 0C       		.byte	0xc
 1774 0c1a 9001     		.2byte	0x190
 1775 0c1c 6F0C0000 		.4byte	0xc6f
 1776 0c20 16       		.uleb128 0x16
 1777 0c21 49080000 		.4byte	.LASF193
 1778 0c25 0C       		.byte	0xc
 1779 0c26 9101     		.2byte	0x191
 1780 0c28 D80B0000 		.4byte	0xbd8
 1781 0c2c 00       		.byte	0
 1782 0c2d 16       		.uleb128 0x16
 1783 0c2e DE080000 		.4byte	.LASF194
 1784 0c32 0C       		.byte	0xc
 1785 0c33 9201     		.2byte	0x192
 1786 0c35 680A0000 		.4byte	0xa68
 1787 0c39 08       		.byte	0x8
 1788 0c3a 16       		.uleb128 0x16
 1789 0c3b 57000000 		.4byte	.LASF195
 1790 0c3f 0C       		.byte	0xc
 1791 0c40 9401     		.2byte	0x194
 1792 0c42 D50D0000 		.4byte	0xdd5
 1793 0c46 0C       		.byte	0xc
 1794 0c47 16       		.uleb128 0x16
 1795 0c48 90020000 		.4byte	.LASF196
 1796 0c4c 0C       		.byte	0xc
 1797 0c4d 9701     		.2byte	0x197
 1798 0c4f AE0B0000 		.4byte	0xbae
 1799 0c53 10       		.byte	0x10
 1800 0c54 16       		.uleb128 0x16
 1801 0c55 8B080000 		.4byte	.LASF197
 1802 0c59 0C       		.byte	0xc
 1803 0c5a 9801     		.2byte	0x198
 1804 0c5c AE0B0000 		.4byte	0xbae
 1805 0c60 14       		.byte	0x14
 1806 0c61 16       		.uleb128 0x16
 1807 0c62 E8090000 		.4byte	.LASF198
 1808 0c66 0C       		.byte	0xc
 1809 0c67 9B01     		.2byte	0x19b
 1810 0c69 AE0B0000 		.4byte	0xbae
 1811 0c6d 18       		.byte	0x18
 1812 0c6e 00       		.byte	0
 1813 0c6f 02       		.uleb128 0x2
 1814 0c70 7A000000 		.4byte	.LASF199
 1815 0c74 0B       		.byte	0xb
 1816 0c75 5C       		.byte	0x5c
 1817 0c76 7A0C0000 		.4byte	0xc7a
 1818 0c7a 0F       		.uleb128 0xf
 1819 0c7b 04       		.byte	0x4
ARM GAS  /tmp/cczaK23z.s 			page 33


 1820 0c7c 800C0000 		.4byte	0xc80
 1821 0c80 1D       		.uleb128 0x1d
 1822 0c81 8B0C0000 		.4byte	0xc8b
 1823 0c85 14       		.uleb128 0x14
 1824 0c86 5D010000 		.4byte	0x15d
 1825 0c8a 00       		.byte	0
 1826 0c8b 02       		.uleb128 0x2
 1827 0c8c E5030000 		.4byte	.LASF200
 1828 0c90 0B       		.byte	0xb
 1829 0c91 61       		.byte	0x61
 1830 0c92 960C0000 		.4byte	0xc96
 1831 0c96 19       		.uleb128 0x19
 1832 0c97 4A070000 		.4byte	.LASF201
 1833 0c9b 14       		.byte	0x14
 1834 0c9c 0C       		.byte	0xc
 1835 0c9d 6B01     		.2byte	0x16b
 1836 0c9f E50C0000 		.4byte	0xce5
 1837 0ca3 16       		.uleb128 0x16
 1838 0ca4 41050000 		.4byte	.LASF202
 1839 0ca8 0C       		.byte	0xc
 1840 0ca9 6C01     		.2byte	0x16c
 1841 0cab 540F0000 		.4byte	0xf54
 1842 0caf 00       		.byte	0
 1843 0cb0 16       		.uleb128 0x16
 1844 0cb1 5A050000 		.4byte	.LASF203
 1845 0cb5 0C       		.byte	0xc
 1846 0cb6 6D01     		.2byte	0x16d
 1847 0cb8 540F0000 		.4byte	0xf54
 1848 0cbc 04       		.byte	0x4
 1849 0cbd 16       		.uleb128 0x16
 1850 0cbe 32070000 		.4byte	.LASF204
 1851 0cc2 0C       		.byte	0xc
 1852 0cc3 6E01     		.2byte	0x16e
 1853 0cc5 940A0000 		.4byte	0xa94
 1854 0cc9 08       		.byte	0x8
 1855 0cca 16       		.uleb128 0x16
 1856 0ccb FE020000 		.4byte	.LASF205
 1857 0ccf 0C       		.byte	0xc
 1858 0cd0 6F01     		.2byte	0x16f
 1859 0cd2 6F0C0000 		.4byte	0xc6f
 1860 0cd6 0C       		.byte	0xc
 1861 0cd7 16       		.uleb128 0x16
 1862 0cd8 0B010000 		.4byte	.LASF206
 1863 0cdc 0C       		.byte	0xc
 1864 0cdd 7101     		.2byte	0x171
 1865 0cdf 5D010000 		.4byte	0x15d
 1866 0ce3 10       		.byte	0x10
 1867 0ce4 00       		.byte	0
 1868 0ce5 02       		.uleb128 0x2
 1869 0ce6 B6030000 		.4byte	.LASF207
 1870 0cea 0B       		.byte	0xb
 1871 0ceb 66       		.byte	0x66
 1872 0cec F00C0000 		.4byte	0xcf0
 1873 0cf0 19       		.uleb128 0x19
 1874 0cf1 8C000000 		.4byte	.LASF208
 1875 0cf5 10       		.byte	0x10
 1876 0cf6 0C       		.byte	0xc
ARM GAS  /tmp/cczaK23z.s 			page 34


 1877 0cf7 7B01     		.2byte	0x17b
 1878 0cf9 320D0000 		.4byte	0xd32
 1879 0cfd 16       		.uleb128 0x16
 1880 0cfe 41050000 		.4byte	.LASF202
 1881 0d02 0C       		.byte	0xc
 1882 0d03 7C01     		.2byte	0x17c
 1883 0d05 540F0000 		.4byte	0xf54
 1884 0d09 00       		.byte	0
 1885 0d0a 16       		.uleb128 0x16
 1886 0d0b 5A050000 		.4byte	.LASF203
 1887 0d0f 0C       		.byte	0xc
 1888 0d10 7E01     		.2byte	0x17e
 1889 0d12 540F0000 		.4byte	0xf54
 1890 0d16 04       		.byte	0x4
 1891 0d17 16       		.uleb128 0x16
 1892 0d18 32070000 		.4byte	.LASF204
 1893 0d1c 0C       		.byte	0xc
 1894 0d1d 8001     		.2byte	0x180
 1895 0d1f 940A0000 		.4byte	0xa94
 1896 0d23 08       		.byte	0x8
 1897 0d24 16       		.uleb128 0x16
 1898 0d25 80080000 		.4byte	.LASF209
 1899 0d29 0C       		.byte	0xc
 1900 0d2a 8201     		.2byte	0x182
 1901 0d2c 5A0F0000 		.4byte	0xf5a
 1902 0d30 0C       		.byte	0xc
 1903 0d31 00       		.byte	0
 1904 0d32 02       		.uleb128 0x2
 1905 0d33 98020000 		.4byte	.LASF210
 1906 0d37 0B       		.byte	0xb
 1907 0d38 6B       		.byte	0x6b
 1908 0d39 3D0D0000 		.4byte	0xd3d
 1909 0d3d 19       		.uleb128 0x19
 1910 0d3e E5080000 		.4byte	.LASF211
 1911 0d42 04       		.byte	0x4
 1912 0d43 0C       		.byte	0xc
 1913 0d44 A201     		.2byte	0x1a2
 1914 0d46 580D0000 		.4byte	0xd58
 1915 0d4a 16       		.uleb128 0x16
 1916 0d4b 77020000 		.4byte	.LASF212
 1917 0d4f 0C       		.byte	0xc
 1918 0d50 AA01     		.2byte	0x1aa
 1919 0d52 5F0F0000 		.4byte	0xf5f
 1920 0d56 00       		.byte	0
 1921 0d57 00       		.byte	0
 1922 0d58 02       		.uleb128 0x2
 1923 0d59 B2090000 		.4byte	.LASF213
 1924 0d5d 0B       		.byte	0xb
 1925 0d5e 70       		.byte	0x70
 1926 0d5f 630D0000 		.4byte	0xd63
 1927 0d63 15       		.uleb128 0x15
 1928 0d64 5F090000 		.4byte	.LASF214
 1929 0d68 5001     		.2byte	0x150
 1930 0d6a 0C       		.byte	0xc
 1931 0d6b C201     		.2byte	0x1c2
 1932 0d6d BF0D0000 		.4byte	0xdbf
 1933 0d71 16       		.uleb128 0x16
ARM GAS  /tmp/cczaK23z.s 			page 35


 1934 0d72 69080000 		.4byte	.LASF215
 1935 0d76 0C       		.byte	0xc
 1936 0d77 C601     		.2byte	0x1c6
 1937 0d79 080C0000 		.4byte	0xc08
 1938 0d7d 00       		.byte	0
 1939 0d7e 16       		.uleb128 0x16
 1940 0d7f 08090000 		.4byte	.LASF216
 1941 0d83 0C       		.byte	0xc
 1942 0d84 CA01     		.2byte	0x1ca
 1943 0d86 E50C0000 		.4byte	0xce5
 1944 0d8a 1C       		.byte	0x1c
 1945 0d8b 1E       		.uleb128 0x1e
 1946 0d8c 64626700 		.ascii	"dbg\000"
 1947 0d90 0C       		.byte	0xc
 1948 0d91 CE01     		.2byte	0x1ce
 1949 0d93 320D0000 		.4byte	0xd32
 1950 0d97 2C       		.byte	0x2c
 1951 0d98 16       		.uleb128 0x16
 1952 0d99 23080000 		.4byte	.LASF217
 1953 0d9d 0C       		.byte	0xc
 1954 0d9e D201     		.2byte	0x1d2
 1955 0da0 9F0A0000 		.4byte	0xa9f
 1956 0da4 30       		.byte	0x30
 1957 0da5 1E       		.uleb128 0x1e
 1958 0da6 746D00   		.ascii	"tm\000"
 1959 0da9 0C       		.byte	0xc
 1960 0daa D701     		.2byte	0x1d7
 1961 0dac 840E0000 		.4byte	0xe84
 1962 0db0 74       		.byte	0x74
 1963 0db1 16       		.uleb128 0x16
 1964 0db2 B4050000 		.4byte	.LASF218
 1965 0db6 0C       		.byte	0xc
 1966 0db7 E301     		.2byte	0x1e3
 1967 0db9 640F0000 		.4byte	0xf64
 1968 0dbd 78       		.byte	0x78
 1969 0dbe 00       		.byte	0
 1970 0dbf 02       		.uleb128 0x2
 1971 0dc0 D3010000 		.4byte	.LASF219
 1972 0dc4 0D       		.byte	0xd
 1973 0dc5 65       		.byte	0x65
 1974 0dc6 5D010000 		.4byte	0x15d
 1975 0dca 02       		.uleb128 0x2
 1976 0dcb D7020000 		.4byte	.LASF220
 1977 0dcf 0D       		.byte	0xd
 1978 0dd0 6D       		.byte	0x6d
 1979 0dd1 260A0000 		.4byte	0xa26
 1980 0dd5 0D       		.uleb128 0xd
 1981 0dd6 53020000 		.4byte	.LASF221
 1982 0dda 04       		.byte	0x4
 1983 0ddb 0D       		.byte	0xd
 1984 0ddc 89       		.byte	0x89
 1985 0ddd EE0D0000 		.4byte	0xdee
 1986 0de1 0E       		.uleb128 0xe
 1987 0de2 72313300 		.ascii	"r13\000"
 1988 0de6 0D       		.byte	0xd
 1989 0de7 8A       		.byte	0x8a
 1990 0de8 690E0000 		.4byte	0xe69
ARM GAS  /tmp/cczaK23z.s 			page 36


 1991 0dec 00       		.byte	0
 1992 0ded 00       		.byte	0
 1993 0dee 0D       		.uleb128 0xd
 1994 0def 13070000 		.4byte	.LASF222
 1995 0df3 24       		.byte	0x24
 1996 0df4 0E       		.byte	0xe
 1997 0df5 FD       		.byte	0xfd
 1998 0df6 690E0000 		.4byte	0xe69
 1999 0dfa 1E       		.uleb128 0x1e
 2000 0dfb 723400   		.ascii	"r4\000"
 2001 0dfe 0E       		.byte	0xe
 2002 0dff 1001     		.2byte	0x110
 2003 0e01 BF0D0000 		.4byte	0xdbf
 2004 0e05 00       		.byte	0
 2005 0e06 1E       		.uleb128 0x1e
 2006 0e07 723500   		.ascii	"r5\000"
 2007 0e0a 0E       		.byte	0xe
 2008 0e0b 1101     		.2byte	0x111
 2009 0e0d BF0D0000 		.4byte	0xdbf
 2010 0e11 04       		.byte	0x4
 2011 0e12 1E       		.uleb128 0x1e
 2012 0e13 723600   		.ascii	"r6\000"
 2013 0e16 0E       		.byte	0xe
 2014 0e17 1201     		.2byte	0x112
 2015 0e19 BF0D0000 		.4byte	0xdbf
 2016 0e1d 08       		.byte	0x8
 2017 0e1e 1E       		.uleb128 0x1e
 2018 0e1f 723700   		.ascii	"r7\000"
 2019 0e22 0E       		.byte	0xe
 2020 0e23 1301     		.2byte	0x113
 2021 0e25 BF0D0000 		.4byte	0xdbf
 2022 0e29 0C       		.byte	0xc
 2023 0e2a 1E       		.uleb128 0x1e
 2024 0e2b 723800   		.ascii	"r8\000"
 2025 0e2e 0E       		.byte	0xe
 2026 0e2f 1401     		.2byte	0x114
 2027 0e31 BF0D0000 		.4byte	0xdbf
 2028 0e35 10       		.byte	0x10
 2029 0e36 1E       		.uleb128 0x1e
 2030 0e37 723900   		.ascii	"r9\000"
 2031 0e3a 0E       		.byte	0xe
 2032 0e3b 1501     		.2byte	0x115
 2033 0e3d BF0D0000 		.4byte	0xdbf
 2034 0e41 14       		.byte	0x14
 2035 0e42 1E       		.uleb128 0x1e
 2036 0e43 72313000 		.ascii	"r10\000"
 2037 0e47 0E       		.byte	0xe
 2038 0e48 1601     		.2byte	0x116
 2039 0e4a BF0D0000 		.4byte	0xdbf
 2040 0e4e 18       		.byte	0x18
 2041 0e4f 1E       		.uleb128 0x1e
 2042 0e50 72313100 		.ascii	"r11\000"
 2043 0e54 0E       		.byte	0xe
 2044 0e55 1701     		.2byte	0x117
 2045 0e57 BF0D0000 		.4byte	0xdbf
 2046 0e5b 1C       		.byte	0x1c
 2047 0e5c 1E       		.uleb128 0x1e
ARM GAS  /tmp/cczaK23z.s 			page 37


 2048 0e5d 6C7200   		.ascii	"lr\000"
 2049 0e60 0E       		.byte	0xe
 2050 0e61 1801     		.2byte	0x118
 2051 0e63 BF0D0000 		.4byte	0xdbf
 2052 0e67 20       		.byte	0x20
 2053 0e68 00       		.byte	0
 2054 0e69 0F       		.uleb128 0xf
 2055 0e6a 04       		.byte	0x4
 2056 0e6b EE0D0000 		.4byte	0xdee
 2057 0e6f 0A       		.uleb128 0xa
 2058 0e70 04       		.byte	0x4
 2059 0e71 0F       		.byte	0xf
 2060 0e72 38       		.byte	0x38
 2061 0e73 840E0000 		.4byte	0xe84
 2062 0e77 0B       		.uleb128 0xb
 2063 0e78 A2060000 		.4byte	.LASF223
 2064 0e7c 0F       		.byte	0xf
 2065 0e7d 3C       		.byte	0x3c
 2066 0e7e 310A0000 		.4byte	0xa31
 2067 0e82 00       		.byte	0
 2068 0e83 00       		.byte	0
 2069 0e84 02       		.uleb128 0x2
 2070 0e85 93080000 		.4byte	.LASF224
 2071 0e89 0F       		.byte	0xf
 2072 0e8a 3D       		.byte	0x3d
 2073 0e8b 6F0E0000 		.4byte	0xe6f
 2074 0e8f 06       		.uleb128 0x6
 2075 0e90 04       		.byte	0x4
 2076 0e91 0C       		.byte	0xc
 2077 0e92 FA       		.byte	0xfa
 2078 0e93 EC0E0000 		.4byte	0xeec
 2079 0e97 1C       		.uleb128 0x1c
 2080 0e98 89090000 		.4byte	.LASF225
 2081 0e9c 0C       		.byte	0xc
 2082 0e9d 0101     		.2byte	0x101
 2083 0e9f 730A0000 		.4byte	0xa73
 2084 0ea3 1C       		.uleb128 0x1c
 2085 0ea4 20010000 		.4byte	.LASF226
 2086 0ea8 0C       		.byte	0xc
 2087 0ea9 0801     		.2byte	0x108
 2088 0eab 730A0000 		.4byte	0xa73
 2089 0eaf 1C       		.uleb128 0x1c
 2090 0eb0 BF020000 		.4byte	.LASF227
 2091 0eb4 0C       		.byte	0xc
 2092 0eb5 0F01     		.2byte	0x10f
 2093 0eb7 5D010000 		.4byte	0x15d
 2094 0ebb 1C       		.uleb128 0x1c
 2095 0ebc 5B020000 		.4byte	.LASF228
 2096 0ec0 0C       		.byte	0xc
 2097 0ec1 1601     		.2byte	0x116
 2098 0ec3 EC0E0000 		.4byte	0xeec
 2099 0ec7 1C       		.uleb128 0x1c
 2100 0ec8 2F0A0000 		.4byte	.LASF229
 2101 0ecc 0C       		.byte	0xc
 2102 0ecd 1E01     		.2byte	0x11e
 2103 0ecf 170F0000 		.4byte	0xf17
 2104 0ed3 1C       		.uleb128 0x1c
ARM GAS  /tmp/cczaK23z.s 			page 38


 2105 0ed4 19030000 		.4byte	.LASF230
 2106 0ed8 0C       		.byte	0xc
 2107 0ed9 2701     		.2byte	0x127
 2108 0edb 4E0F0000 		.4byte	0xf4e
 2109 0edf 1C       		.uleb128 0x1c
 2110 0ee0 43010000 		.4byte	.LASF231
 2111 0ee4 0C       		.byte	0xc
 2112 0ee5 2F01     		.2byte	0x12f
 2113 0ee7 7E0A0000 		.4byte	0xa7e
 2114 0eeb 00       		.byte	0
 2115 0eec 0F       		.uleb128 0xf
 2116 0eed 04       		.byte	0x4
 2117 0eee A30B0000 		.4byte	0xba3
 2118 0ef2 0D       		.uleb128 0xd
 2119 0ef3 9F030000 		.4byte	.LASF232
 2120 0ef7 0C       		.byte	0xc
 2121 0ef8 10       		.byte	0x10
 2122 0ef9 34       		.byte	0x34
 2123 0efa 170F0000 		.4byte	0xf17
 2124 0efe 0B       		.uleb128 0xb
 2125 0eff A4080000 		.4byte	.LASF233
 2126 0f03 10       		.byte	0x10
 2127 0f04 35       		.byte	0x35
 2128 0f05 D80B0000 		.4byte	0xbd8
 2129 0f09 00       		.byte	0
 2130 0f0a 0B       		.uleb128 0xb
 2131 0f0b 5B070000 		.4byte	.LASF234
 2132 0f0f 10       		.byte	0x10
 2133 0f10 37       		.byte	0x37
 2134 0f11 890A0000 		.4byte	0xa89
 2135 0f15 08       		.byte	0x8
 2136 0f16 00       		.byte	0
 2137 0f17 0F       		.uleb128 0xf
 2138 0f18 04       		.byte	0x4
 2139 0f19 F20E0000 		.4byte	0xef2
 2140 0f1d 0D       		.uleb128 0xd
 2141 0f1e CC080000 		.4byte	.LASF235
 2142 0f22 10       		.byte	0x10
 2143 0f23 11       		.byte	0x11
 2144 0f24 39       		.byte	0x39
 2145 0f25 4E0F0000 		.4byte	0xf4e
 2146 0f29 0B       		.uleb128 0xb
 2147 0f2a 32050000 		.4byte	.LASF236
 2148 0f2e 11       		.byte	0x11
 2149 0f2f 3A       		.byte	0x3a
 2150 0f30 D80B0000 		.4byte	0xbd8
 2151 0f34 00       		.byte	0
 2152 0f35 0B       		.uleb128 0xb
 2153 0f36 03010000 		.4byte	.LASF237
 2154 0f3a 11       		.byte	0x11
 2155 0f3b 3C       		.byte	0x3c
 2156 0f3c AE0B0000 		.4byte	0xbae
 2157 0f40 08       		.byte	0x8
 2158 0f41 0B       		.uleb128 0xb
 2159 0f42 120A0000 		.4byte	.LASF238
 2160 0f46 11       		.byte	0x11
 2161 0f47 3E       		.byte	0x3e
ARM GAS  /tmp/cczaK23z.s 			page 39


 2162 0f48 7F0F0000 		.4byte	0xf7f
 2163 0f4c 0C       		.byte	0xc
 2164 0f4d 00       		.byte	0
 2165 0f4e 0F       		.uleb128 0xf
 2166 0f4f 04       		.byte	0x4
 2167 0f50 1D0F0000 		.4byte	0xf1d
 2168 0f54 0F       		.uleb128 0xf
 2169 0f55 04       		.byte	0x4
 2170 0f56 8B0C0000 		.4byte	0xc8b
 2171 0f5a 1F       		.uleb128 0x1f
 2172 0f5b 940A0000 		.4byte	0xa94
 2173 0f5f 1F       		.uleb128 0x1f
 2174 0f60 D3050000 		.4byte	0x5d3
 2175 0f64 08       		.uleb128 0x8
 2176 0f65 CA0D0000 		.4byte	0xdca
 2177 0f69 740F0000 		.4byte	0xf74
 2178 0f6d 09       		.uleb128 0x9
 2179 0f6e 1F010000 		.4byte	0x11f
 2180 0f72 1A       		.byte	0x1a
 2181 0f73 00       		.byte	0
 2182 0f74 02       		.uleb128 0x2
 2183 0f75 31090000 		.4byte	.LASF239
 2184 0f79 11       		.byte	0x11
 2185 0f7a 34       		.byte	0x34
 2186 0f7b 1D0F0000 		.4byte	0xf1d
 2187 0f7f 0F       		.uleb128 0xf
 2188 0f80 04       		.byte	0x4
 2189 0f81 740F0000 		.4byte	0xf74
 2190 0f85 20       		.uleb128 0x20
 2191 0f86 D9090000 		.4byte	.LASF241
 2192 0f8a 01       		.byte	0x1
 2193 0f8b 47       		.byte	0x47
 2194 0f8c 37000000 		.4byte	0x37
 2195 0f90 00000000 		.4byte	.LFB230
 2196 0f94 1A000000 		.4byte	.LFE230-.LFB230
 2197 0f98 01       		.uleb128 0x1
 2198 0f99 9C       		.byte	0x9c
 2199 0f9a D50F0000 		.4byte	0xfd5
 2200 0f9e 21       		.uleb128 0x21
 2201 0f9f 7200     		.ascii	"r\000"
 2202 0fa1 01       		.byte	0x1
 2203 0fa2 47       		.byte	0x47
 2204 0fa3 6A040000 		.4byte	0x46a
 2205 0fa7 02       		.uleb128 0x2
 2206 0fa8 91       		.byte	0x91
 2207 0fa9 7C       		.sleb128 -4
 2208 0faa 22       		.uleb128 0x22
 2209 0fab F3020000 		.4byte	.LASF240
 2210 0faf 01       		.byte	0x1
 2211 0fb0 47       		.byte	0x47
 2212 0fb1 37000000 		.4byte	0x37
 2213 0fb5 02       		.uleb128 0x2
 2214 0fb6 91       		.byte	0x91
 2215 0fb7 78       		.sleb128 -8
 2216 0fb8 21       		.uleb128 0x21
 2217 0fb9 70747200 		.ascii	"ptr\000"
 2218 0fbd 01       		.byte	0x1
ARM GAS  /tmp/cczaK23z.s 			page 40


 2219 0fbe 47       		.byte	0x47
 2220 0fbf A2050000 		.4byte	0x5a2
 2221 0fc3 02       		.uleb128 0x2
 2222 0fc4 91       		.byte	0x91
 2223 0fc5 74       		.sleb128 -12
 2224 0fc6 21       		.uleb128 0x21
 2225 0fc7 6C656E00 		.ascii	"len\000"
 2226 0fcb 01       		.byte	0x1
 2227 0fcc 47       		.byte	0x47
 2228 0fcd 37000000 		.4byte	0x37
 2229 0fd1 02       		.uleb128 0x2
 2230 0fd2 91       		.byte	0x91
 2231 0fd3 70       		.sleb128 -16
 2232 0fd4 00       		.byte	0
 2233 0fd5 20       		.uleb128 0x20
 2234 0fd6 20090000 		.4byte	.LASF242
 2235 0fda 01       		.byte	0x1
 2236 0fdb 5D       		.byte	0x5d
 2237 0fdc 37000000 		.4byte	0x37
 2238 0fe0 20000000 		.4byte	.LFB231
 2239 0fe4 12000000 		.4byte	.LFE231-.LFB231
 2240 0fe8 01       		.uleb128 0x1
 2241 0fe9 9C       		.byte	0x9c
 2242 0fea 25100000 		.4byte	0x1025
 2243 0fee 21       		.uleb128 0x21
 2244 0fef 7200     		.ascii	"r\000"
 2245 0ff1 01       		.byte	0x1
 2246 0ff2 5D       		.byte	0x5d
 2247 0ff3 6A040000 		.4byte	0x46a
 2248 0ff7 02       		.uleb128 0x2
 2249 0ff8 91       		.byte	0x91
 2250 0ff9 7C       		.sleb128 -4
 2251 0ffa 22       		.uleb128 0x22
 2252 0ffb F3020000 		.4byte	.LASF240
 2253 0fff 01       		.byte	0x1
 2254 1000 5D       		.byte	0x5d
 2255 1001 37000000 		.4byte	0x37
 2256 1005 02       		.uleb128 0x2
 2257 1006 91       		.byte	0x91
 2258 1007 78       		.sleb128 -8
 2259 1008 21       		.uleb128 0x21
 2260 1009 70747200 		.ascii	"ptr\000"
 2261 100d 01       		.byte	0x1
 2262 100e 5D       		.byte	0x5d
 2263 100f 37000000 		.4byte	0x37
 2264 1013 02       		.uleb128 0x2
 2265 1014 91       		.byte	0x91
 2266 1015 74       		.sleb128 -12
 2267 1016 21       		.uleb128 0x21
 2268 1017 64697200 		.ascii	"dir\000"
 2269 101b 01       		.byte	0x1
 2270 101c 5D       		.byte	0x5d
 2271 101d 37000000 		.4byte	0x37
 2272 1021 02       		.uleb128 0x2
 2273 1022 91       		.byte	0x91
 2274 1023 70       		.sleb128 -16
 2275 1024 00       		.byte	0
ARM GAS  /tmp/cczaK23z.s 			page 41


 2276 1025 20       		.uleb128 0x20
 2277 1026 D0050000 		.4byte	.LASF243
 2278 102a 01       		.byte	0x1
 2279 102b 6A       		.byte	0x6a
 2280 102c 37000000 		.4byte	0x37
 2281 1030 40000000 		.4byte	.LFB232
 2282 1034 12000000 		.4byte	.LFE232-.LFB232
 2283 1038 01       		.uleb128 0x1
 2284 1039 9C       		.byte	0x9c
 2285 103a 75100000 		.4byte	0x1075
 2286 103e 21       		.uleb128 0x21
 2287 103f 7200     		.ascii	"r\000"
 2288 1041 01       		.byte	0x1
 2289 1042 6A       		.byte	0x6a
 2290 1043 6A040000 		.4byte	0x46a
 2291 1047 02       		.uleb128 0x2
 2292 1048 91       		.byte	0x91
 2293 1049 7C       		.sleb128 -4
 2294 104a 22       		.uleb128 0x22
 2295 104b F3020000 		.4byte	.LASF240
 2296 104f 01       		.byte	0x1
 2297 1050 6A       		.byte	0x6a
 2298 1051 37000000 		.4byte	0x37
 2299 1055 02       		.uleb128 0x2
 2300 1056 91       		.byte	0x91
 2301 1057 78       		.sleb128 -8
 2302 1058 21       		.uleb128 0x21
 2303 1059 70747200 		.ascii	"ptr\000"
 2304 105d 01       		.byte	0x1
 2305 105e 6A       		.byte	0x6a
 2306 105f A2050000 		.4byte	0x5a2
 2307 1063 02       		.uleb128 0x2
 2308 1064 91       		.byte	0x91
 2309 1065 74       		.sleb128 -12
 2310 1066 21       		.uleb128 0x21
 2311 1067 6C656E00 		.ascii	"len\000"
 2312 106b 01       		.byte	0x1
 2313 106c 6A       		.byte	0x6a
 2314 106d 37000000 		.4byte	0x37
 2315 1071 02       		.uleb128 0x2
 2316 1072 91       		.byte	0x91
 2317 1073 70       		.sleb128 -16
 2318 1074 00       		.byte	0
 2319 1075 20       		.uleb128 0x20
 2320 1076 29010000 		.4byte	.LASF244
 2321 107a 01       		.byte	0x1
 2322 107b 7B       		.byte	0x7b
 2323 107c 37000000 		.4byte	0x37
 2324 1080 60000000 		.4byte	.LFB233
 2325 1084 0E000000 		.4byte	.LFE233-.LFB233
 2326 1088 01       		.uleb128 0x1
 2327 1089 9C       		.byte	0x9c
 2328 108a A9100000 		.4byte	0x10a9
 2329 108e 21       		.uleb128 0x21
 2330 108f 7200     		.ascii	"r\000"
 2331 1091 01       		.byte	0x1
 2332 1092 7B       		.byte	0x7b
ARM GAS  /tmp/cczaK23z.s 			page 42


 2333 1093 6A040000 		.4byte	0x46a
 2334 1097 02       		.uleb128 0x2
 2335 1098 91       		.byte	0x91
 2336 1099 7C       		.sleb128 -4
 2337 109a 22       		.uleb128 0x22
 2338 109b F3020000 		.4byte	.LASF240
 2339 109f 01       		.byte	0x1
 2340 10a0 7B       		.byte	0x7b
 2341 10a1 37000000 		.4byte	0x37
 2342 10a5 02       		.uleb128 0x2
 2343 10a6 91       		.byte	0x91
 2344 10a7 78       		.sleb128 -8
 2345 10a8 00       		.byte	0
 2346 10a9 20       		.uleb128 0x20
 2347 10aa 18040000 		.4byte	.LASF245
 2348 10ae 01       		.byte	0x1
 2349 10af 85       		.byte	0x85
 2350 10b0 37000000 		.4byte	0x37
 2351 10b4 70000000 		.4byte	.LFB234
 2352 10b8 0E000000 		.4byte	.LFE234-.LFB234
 2353 10bc 01       		.uleb128 0x1
 2354 10bd 9C       		.byte	0x9c
 2355 10be DD100000 		.4byte	0x10dd
 2356 10c2 21       		.uleb128 0x21
 2357 10c3 7200     		.ascii	"r\000"
 2358 10c5 01       		.byte	0x1
 2359 10c6 85       		.byte	0x85
 2360 10c7 6A040000 		.4byte	0x46a
 2361 10cb 02       		.uleb128 0x2
 2362 10cc 91       		.byte	0x91
 2363 10cd 7C       		.sleb128 -4
 2364 10ce 22       		.uleb128 0x22
 2365 10cf F3020000 		.4byte	.LASF240
 2366 10d3 01       		.byte	0x1
 2367 10d4 85       		.byte	0x85
 2368 10d5 37000000 		.4byte	0x37
 2369 10d9 02       		.uleb128 0x2
 2370 10da 91       		.byte	0x91
 2371 10db 78       		.sleb128 -8
 2372 10dc 00       		.byte	0
 2373 10dd 23       		.uleb128 0x23
 2374 10de 81020000 		.4byte	.LASF246
 2375 10e2 01       		.byte	0x1
 2376 10e3 90       		.byte	0x90
 2377 10e4 C4080000 		.4byte	0x8c4
 2378 10e8 80000000 		.4byte	.LFB235
 2379 10ec 2E000000 		.4byte	.LFE235-.LFB235
 2380 10f0 01       		.uleb128 0x1
 2381 10f1 9C       		.byte	0x9c
 2382 10f2 26110000 		.4byte	0x1126
 2383 10f6 21       		.uleb128 0x21
 2384 10f7 7200     		.ascii	"r\000"
 2385 10f9 01       		.byte	0x1
 2386 10fa 90       		.byte	0x90
 2387 10fb 6A040000 		.4byte	0x46a
 2388 10ff 02       		.uleb128 0x2
 2389 1100 91       		.byte	0x91
ARM GAS  /tmp/cczaK23z.s 			page 43


 2390 1101 6C       		.sleb128 -20
 2391 1102 22       		.uleb128 0x22
 2392 1103 41060000 		.4byte	.LASF247
 2393 1107 01       		.byte	0x1
 2394 1108 90       		.byte	0x90
 2395 1109 37000000 		.4byte	0x37
 2396 110d 02       		.uleb128 0x2
 2397 110e 91       		.byte	0x91
 2398 110f 68       		.sleb128 -24
 2399 1110 24       		.uleb128 0x24
 2400 1111 7000     		.ascii	"p\000"
 2401 1113 01       		.byte	0x1
 2402 1114 93       		.byte	0x93
 2403 1115 5D010000 		.4byte	0x15d
 2404 1119 02       		.uleb128 0x2
 2405 111a 91       		.byte	0x91
 2406 111b 74       		.sleb128 -12
 2407 111c 25       		.uleb128 0x25
 2408 111d 83000000 		.4byte	.LASF254
 2409 1121 26110000 		.4byte	0x1126
 2410 1125 00       		.byte	0
 2411 1126 18       		.uleb128 0x18
 2412 1127 E5070000 		.4byte	0x7e5
 2413 112b 23       		.uleb128 0x23
 2414 112c FE070000 		.4byte	.LASF248
 2415 1130 01       		.byte	0x1
 2416 1131 A7       		.byte	0xa7
 2417 1132 37000000 		.4byte	0x37
 2418 1136 B0000000 		.4byte	.LFB236
 2419 113a 26000000 		.4byte	.LFE236-.LFB236
 2420 113e 01       		.uleb128 0x1
 2421 113f 9C       		.byte	0x9c
 2422 1140 6C110000 		.4byte	0x116c
 2423 1144 21       		.uleb128 0x21
 2424 1145 7200     		.ascii	"r\000"
 2425 1147 01       		.byte	0x1
 2426 1148 A7       		.byte	0xa7
 2427 1149 6A040000 		.4byte	0x46a
 2428 114d 02       		.uleb128 0x2
 2429 114e 91       		.byte	0x91
 2430 114f 74       		.sleb128 -12
 2431 1150 22       		.uleb128 0x22
 2432 1151 F3020000 		.4byte	.LASF240
 2433 1155 01       		.byte	0x1
 2434 1156 A7       		.byte	0xa7
 2435 1157 37000000 		.4byte	0x37
 2436 115b 02       		.uleb128 0x2
 2437 115c 91       		.byte	0x91
 2438 115d 70       		.sleb128 -16
 2439 115e 21       		.uleb128 0x21
 2440 115f 737400   		.ascii	"st\000"
 2441 1162 01       		.byte	0x1
 2442 1163 A7       		.byte	0xa7
 2443 1164 6C110000 		.4byte	0x116c
 2444 1168 02       		.uleb128 0x2
 2445 1169 91       		.byte	0x91
 2446 116a 6C       		.sleb128 -20
ARM GAS  /tmp/cczaK23z.s 			page 44


 2447 116b 00       		.byte	0
 2448 116c 0F       		.uleb128 0xf
 2449 116d 04       		.byte	0x4
 2450 116e 1C090000 		.4byte	0x91c
 2451 1172 20       		.uleb128 0x20
 2452 1173 CD020000 		.4byte	.LASF249
 2453 1177 01       		.byte	0x1
 2454 1178 B4       		.byte	0xb4
 2455 1179 37000000 		.4byte	0x37
 2456 117d E0000000 		.4byte	.LFB237
 2457 1181 0E000000 		.4byte	.LFE237-.LFB237
 2458 1185 01       		.uleb128 0x1
 2459 1186 9C       		.byte	0x9c
 2460 1187 A5110000 		.4byte	0x11a5
 2461 118b 21       		.uleb128 0x21
 2462 118c 7200     		.ascii	"r\000"
 2463 118e 01       		.byte	0x1
 2464 118f B4       		.byte	0xb4
 2465 1190 6A040000 		.4byte	0x46a
 2466 1194 02       		.uleb128 0x2
 2467 1195 91       		.byte	0x91
 2468 1196 7C       		.sleb128 -4
 2469 1197 21       		.uleb128 0x21
 2470 1198 666400   		.ascii	"fd\000"
 2471 119b 01       		.byte	0x1
 2472 119c B4       		.byte	0xb4
 2473 119d 37000000 		.4byte	0x37
 2474 11a1 02       		.uleb128 0x2
 2475 11a2 91       		.byte	0x91
 2476 11a3 78       		.sleb128 -8
 2477 11a4 00       		.byte	0
 2478 11a5 26       		.uleb128 0x26
 2479 11a6 97050000 		.4byte	.LASF250
 2480 11aa 12       		.byte	0x12
 2481 11ab FA06     		.2byte	0x6fa
 2482 11ad B1110000 		.4byte	0x11b1
 2483 11b1 1F       		.uleb128 0x1f
 2484 11b2 100A0000 		.4byte	0xa10
 2485 11b6 27       		.uleb128 0x27
 2486 11b7 636800   		.ascii	"ch\000"
 2487 11ba 0C       		.byte	0xc
 2488 11bb 0902     		.2byte	0x209
 2489 11bd 580D0000 		.4byte	0xd58
 2490 11c1 00       		.byte	0
 2491              		.section	.debug_abbrev,"",%progbits
 2492              	.Ldebug_abbrev0:
 2493 0000 01       		.uleb128 0x1
 2494 0001 11       		.uleb128 0x11
 2495 0002 01       		.byte	0x1
 2496 0003 25       		.uleb128 0x25
 2497 0004 0E       		.uleb128 0xe
 2498 0005 13       		.uleb128 0x13
 2499 0006 0B       		.uleb128 0xb
 2500 0007 03       		.uleb128 0x3
 2501 0008 0E       		.uleb128 0xe
 2502 0009 1B       		.uleb128 0x1b
 2503 000a 0E       		.uleb128 0xe
ARM GAS  /tmp/cczaK23z.s 			page 45


 2504 000b 11       		.uleb128 0x11
 2505 000c 01       		.uleb128 0x1
 2506 000d 12       		.uleb128 0x12
 2507 000e 06       		.uleb128 0x6
 2508 000f 10       		.uleb128 0x10
 2509 0010 17       		.uleb128 0x17
 2510 0011 00       		.byte	0
 2511 0012 00       		.byte	0
 2512 0013 02       		.uleb128 0x2
 2513 0014 16       		.uleb128 0x16
 2514 0015 00       		.byte	0
 2515 0016 03       		.uleb128 0x3
 2516 0017 0E       		.uleb128 0xe
 2517 0018 3A       		.uleb128 0x3a
 2518 0019 0B       		.uleb128 0xb
 2519 001a 3B       		.uleb128 0x3b
 2520 001b 0B       		.uleb128 0xb
 2521 001c 49       		.uleb128 0x49
 2522 001d 13       		.uleb128 0x13
 2523 001e 00       		.byte	0
 2524 001f 00       		.byte	0
 2525 0020 03       		.uleb128 0x3
 2526 0021 24       		.uleb128 0x24
 2527 0022 00       		.byte	0
 2528 0023 0B       		.uleb128 0xb
 2529 0024 0B       		.uleb128 0xb
 2530 0025 3E       		.uleb128 0x3e
 2531 0026 0B       		.uleb128 0xb
 2532 0027 03       		.uleb128 0x3
 2533 0028 0E       		.uleb128 0xe
 2534 0029 00       		.byte	0
 2535 002a 00       		.byte	0
 2536 002b 04       		.uleb128 0x4
 2537 002c 24       		.uleb128 0x24
 2538 002d 00       		.byte	0
 2539 002e 0B       		.uleb128 0xb
 2540 002f 0B       		.uleb128 0xb
 2541 0030 3E       		.uleb128 0x3e
 2542 0031 0B       		.uleb128 0xb
 2543 0032 03       		.uleb128 0x3
 2544 0033 08       		.uleb128 0x8
 2545 0034 00       		.byte	0
 2546 0035 00       		.byte	0
 2547 0036 05       		.uleb128 0x5
 2548 0037 16       		.uleb128 0x16
 2549 0038 00       		.byte	0
 2550 0039 03       		.uleb128 0x3
 2551 003a 0E       		.uleb128 0xe
 2552 003b 3A       		.uleb128 0x3a
 2553 003c 0B       		.uleb128 0xb
 2554 003d 3B       		.uleb128 0x3b
 2555 003e 05       		.uleb128 0x5
 2556 003f 49       		.uleb128 0x49
 2557 0040 13       		.uleb128 0x13
 2558 0041 00       		.byte	0
 2559 0042 00       		.byte	0
 2560 0043 06       		.uleb128 0x6
ARM GAS  /tmp/cczaK23z.s 			page 46


 2561 0044 17       		.uleb128 0x17
 2562 0045 01       		.byte	0x1
 2563 0046 0B       		.uleb128 0xb
 2564 0047 0B       		.uleb128 0xb
 2565 0048 3A       		.uleb128 0x3a
 2566 0049 0B       		.uleb128 0xb
 2567 004a 3B       		.uleb128 0x3b
 2568 004b 0B       		.uleb128 0xb
 2569 004c 01       		.uleb128 0x1
 2570 004d 13       		.uleb128 0x13
 2571 004e 00       		.byte	0
 2572 004f 00       		.byte	0
 2573 0050 07       		.uleb128 0x7
 2574 0051 0D       		.uleb128 0xd
 2575 0052 00       		.byte	0
 2576 0053 03       		.uleb128 0x3
 2577 0054 0E       		.uleb128 0xe
 2578 0055 3A       		.uleb128 0x3a
 2579 0056 0B       		.uleb128 0xb
 2580 0057 3B       		.uleb128 0x3b
 2581 0058 0B       		.uleb128 0xb
 2582 0059 49       		.uleb128 0x49
 2583 005a 13       		.uleb128 0x13
 2584 005b 00       		.byte	0
 2585 005c 00       		.byte	0
 2586 005d 08       		.uleb128 0x8
 2587 005e 01       		.uleb128 0x1
 2588 005f 01       		.byte	0x1
 2589 0060 49       		.uleb128 0x49
 2590 0061 13       		.uleb128 0x13
 2591 0062 01       		.uleb128 0x1
 2592 0063 13       		.uleb128 0x13
 2593 0064 00       		.byte	0
 2594 0065 00       		.byte	0
 2595 0066 09       		.uleb128 0x9
 2596 0067 21       		.uleb128 0x21
 2597 0068 00       		.byte	0
 2598 0069 49       		.uleb128 0x49
 2599 006a 13       		.uleb128 0x13
 2600 006b 2F       		.uleb128 0x2f
 2601 006c 0B       		.uleb128 0xb
 2602 006d 00       		.byte	0
 2603 006e 00       		.byte	0
 2604 006f 0A       		.uleb128 0xa
 2605 0070 13       		.uleb128 0x13
 2606 0071 01       		.byte	0x1
 2607 0072 0B       		.uleb128 0xb
 2608 0073 0B       		.uleb128 0xb
 2609 0074 3A       		.uleb128 0x3a
 2610 0075 0B       		.uleb128 0xb
 2611 0076 3B       		.uleb128 0x3b
 2612 0077 0B       		.uleb128 0xb
 2613 0078 01       		.uleb128 0x1
 2614 0079 13       		.uleb128 0x13
 2615 007a 00       		.byte	0
 2616 007b 00       		.byte	0
 2617 007c 0B       		.uleb128 0xb
ARM GAS  /tmp/cczaK23z.s 			page 47


 2618 007d 0D       		.uleb128 0xd
 2619 007e 00       		.byte	0
 2620 007f 03       		.uleb128 0x3
 2621 0080 0E       		.uleb128 0xe
 2622 0081 3A       		.uleb128 0x3a
 2623 0082 0B       		.uleb128 0xb
 2624 0083 3B       		.uleb128 0x3b
 2625 0084 0B       		.uleb128 0xb
 2626 0085 49       		.uleb128 0x49
 2627 0086 13       		.uleb128 0x13
 2628 0087 38       		.uleb128 0x38
 2629 0088 0B       		.uleb128 0xb
 2630 0089 00       		.byte	0
 2631 008a 00       		.byte	0
 2632 008b 0C       		.uleb128 0xc
 2633 008c 0F       		.uleb128 0xf
 2634 008d 00       		.byte	0
 2635 008e 0B       		.uleb128 0xb
 2636 008f 0B       		.uleb128 0xb
 2637 0090 00       		.byte	0
 2638 0091 00       		.byte	0
 2639 0092 0D       		.uleb128 0xd
 2640 0093 13       		.uleb128 0x13
 2641 0094 01       		.byte	0x1
 2642 0095 03       		.uleb128 0x3
 2643 0096 0E       		.uleb128 0xe
 2644 0097 0B       		.uleb128 0xb
 2645 0098 0B       		.uleb128 0xb
 2646 0099 3A       		.uleb128 0x3a
 2647 009a 0B       		.uleb128 0xb
 2648 009b 3B       		.uleb128 0x3b
 2649 009c 0B       		.uleb128 0xb
 2650 009d 01       		.uleb128 0x1
 2651 009e 13       		.uleb128 0x13
 2652 009f 00       		.byte	0
 2653 00a0 00       		.byte	0
 2654 00a1 0E       		.uleb128 0xe
 2655 00a2 0D       		.uleb128 0xd
 2656 00a3 00       		.byte	0
 2657 00a4 03       		.uleb128 0x3
 2658 00a5 08       		.uleb128 0x8
 2659 00a6 3A       		.uleb128 0x3a
 2660 00a7 0B       		.uleb128 0xb
 2661 00a8 3B       		.uleb128 0x3b
 2662 00a9 0B       		.uleb128 0xb
 2663 00aa 49       		.uleb128 0x49
 2664 00ab 13       		.uleb128 0x13
 2665 00ac 38       		.uleb128 0x38
 2666 00ad 0B       		.uleb128 0xb
 2667 00ae 00       		.byte	0
 2668 00af 00       		.byte	0
 2669 00b0 0F       		.uleb128 0xf
 2670 00b1 0F       		.uleb128 0xf
 2671 00b2 00       		.byte	0
 2672 00b3 0B       		.uleb128 0xb
 2673 00b4 0B       		.uleb128 0xb
 2674 00b5 49       		.uleb128 0x49
ARM GAS  /tmp/cczaK23z.s 			page 48


 2675 00b6 13       		.uleb128 0x13
 2676 00b7 00       		.byte	0
 2677 00b8 00       		.byte	0
 2678 00b9 10       		.uleb128 0x10
 2679 00ba 13       		.uleb128 0x13
 2680 00bb 01       		.byte	0x1
 2681 00bc 03       		.uleb128 0x3
 2682 00bd 0E       		.uleb128 0xe
 2683 00be 0B       		.uleb128 0xb
 2684 00bf 05       		.uleb128 0x5
 2685 00c0 3A       		.uleb128 0x3a
 2686 00c1 0B       		.uleb128 0xb
 2687 00c2 3B       		.uleb128 0x3b
 2688 00c3 0B       		.uleb128 0xb
 2689 00c4 01       		.uleb128 0x1
 2690 00c5 13       		.uleb128 0x13
 2691 00c6 00       		.byte	0
 2692 00c7 00       		.byte	0
 2693 00c8 11       		.uleb128 0x11
 2694 00c9 0D       		.uleb128 0xd
 2695 00ca 00       		.byte	0
 2696 00cb 03       		.uleb128 0x3
 2697 00cc 0E       		.uleb128 0xe
 2698 00cd 3A       		.uleb128 0x3a
 2699 00ce 0B       		.uleb128 0xb
 2700 00cf 3B       		.uleb128 0x3b
 2701 00d0 0B       		.uleb128 0xb
 2702 00d1 49       		.uleb128 0x49
 2703 00d2 13       		.uleb128 0x13
 2704 00d3 38       		.uleb128 0x38
 2705 00d4 05       		.uleb128 0x5
 2706 00d5 00       		.byte	0
 2707 00d6 00       		.byte	0
 2708 00d7 12       		.uleb128 0x12
 2709 00d8 15       		.uleb128 0x15
 2710 00d9 00       		.byte	0
 2711 00da 27       		.uleb128 0x27
 2712 00db 19       		.uleb128 0x19
 2713 00dc 00       		.byte	0
 2714 00dd 00       		.byte	0
 2715 00de 13       		.uleb128 0x13
 2716 00df 15       		.uleb128 0x15
 2717 00e0 01       		.byte	0x1
 2718 00e1 27       		.uleb128 0x27
 2719 00e2 19       		.uleb128 0x19
 2720 00e3 49       		.uleb128 0x49
 2721 00e4 13       		.uleb128 0x13
 2722 00e5 01       		.uleb128 0x1
 2723 00e6 13       		.uleb128 0x13
 2724 00e7 00       		.byte	0
 2725 00e8 00       		.byte	0
 2726 00e9 14       		.uleb128 0x14
 2727 00ea 05       		.uleb128 0x5
 2728 00eb 00       		.byte	0
 2729 00ec 49       		.uleb128 0x49
 2730 00ed 13       		.uleb128 0x13
 2731 00ee 00       		.byte	0
ARM GAS  /tmp/cczaK23z.s 			page 49


 2732 00ef 00       		.byte	0
 2733 00f0 15       		.uleb128 0x15
 2734 00f1 13       		.uleb128 0x13
 2735 00f2 01       		.byte	0x1
 2736 00f3 03       		.uleb128 0x3
 2737 00f4 0E       		.uleb128 0xe
 2738 00f5 0B       		.uleb128 0xb
 2739 00f6 05       		.uleb128 0x5
 2740 00f7 3A       		.uleb128 0x3a
 2741 00f8 0B       		.uleb128 0xb
 2742 00f9 3B       		.uleb128 0x3b
 2743 00fa 05       		.uleb128 0x5
 2744 00fb 01       		.uleb128 0x1
 2745 00fc 13       		.uleb128 0x13
 2746 00fd 00       		.byte	0
 2747 00fe 00       		.byte	0
 2748 00ff 16       		.uleb128 0x16
 2749 0100 0D       		.uleb128 0xd
 2750 0101 00       		.byte	0
 2751 0102 03       		.uleb128 0x3
 2752 0103 0E       		.uleb128 0xe
 2753 0104 3A       		.uleb128 0x3a
 2754 0105 0B       		.uleb128 0xb
 2755 0106 3B       		.uleb128 0x3b
 2756 0107 05       		.uleb128 0x5
 2757 0108 49       		.uleb128 0x49
 2758 0109 13       		.uleb128 0x13
 2759 010a 38       		.uleb128 0x38
 2760 010b 0B       		.uleb128 0xb
 2761 010c 00       		.byte	0
 2762 010d 00       		.byte	0
 2763 010e 17       		.uleb128 0x17
 2764 010f 0D       		.uleb128 0xd
 2765 0110 00       		.byte	0
 2766 0111 03       		.uleb128 0x3
 2767 0112 0E       		.uleb128 0xe
 2768 0113 3A       		.uleb128 0x3a
 2769 0114 0B       		.uleb128 0xb
 2770 0115 3B       		.uleb128 0x3b
 2771 0116 05       		.uleb128 0x5
 2772 0117 49       		.uleb128 0x49
 2773 0118 13       		.uleb128 0x13
 2774 0119 38       		.uleb128 0x38
 2775 011a 05       		.uleb128 0x5
 2776 011b 00       		.byte	0
 2777 011c 00       		.byte	0
 2778 011d 18       		.uleb128 0x18
 2779 011e 26       		.uleb128 0x26
 2780 011f 00       		.byte	0
 2781 0120 49       		.uleb128 0x49
 2782 0121 13       		.uleb128 0x13
 2783 0122 00       		.byte	0
 2784 0123 00       		.byte	0
 2785 0124 19       		.uleb128 0x19
 2786 0125 13       		.uleb128 0x13
 2787 0126 01       		.byte	0x1
 2788 0127 03       		.uleb128 0x3
ARM GAS  /tmp/cczaK23z.s 			page 50


 2789 0128 0E       		.uleb128 0xe
 2790 0129 0B       		.uleb128 0xb
 2791 012a 0B       		.uleb128 0xb
 2792 012b 3A       		.uleb128 0x3a
 2793 012c 0B       		.uleb128 0xb
 2794 012d 3B       		.uleb128 0x3b
 2795 012e 05       		.uleb128 0x5
 2796 012f 01       		.uleb128 0x1
 2797 0130 13       		.uleb128 0x13
 2798 0131 00       		.byte	0
 2799 0132 00       		.byte	0
 2800 0133 1A       		.uleb128 0x1a
 2801 0134 13       		.uleb128 0x13
 2802 0135 01       		.byte	0x1
 2803 0136 0B       		.uleb128 0xb
 2804 0137 0B       		.uleb128 0xb
 2805 0138 3A       		.uleb128 0x3a
 2806 0139 0B       		.uleb128 0xb
 2807 013a 3B       		.uleb128 0x3b
 2808 013b 05       		.uleb128 0x5
 2809 013c 01       		.uleb128 0x1
 2810 013d 13       		.uleb128 0x13
 2811 013e 00       		.byte	0
 2812 013f 00       		.byte	0
 2813 0140 1B       		.uleb128 0x1b
 2814 0141 17       		.uleb128 0x17
 2815 0142 01       		.byte	0x1
 2816 0143 0B       		.uleb128 0xb
 2817 0144 0B       		.uleb128 0xb
 2818 0145 3A       		.uleb128 0x3a
 2819 0146 0B       		.uleb128 0xb
 2820 0147 3B       		.uleb128 0x3b
 2821 0148 05       		.uleb128 0x5
 2822 0149 01       		.uleb128 0x1
 2823 014a 13       		.uleb128 0x13
 2824 014b 00       		.byte	0
 2825 014c 00       		.byte	0
 2826 014d 1C       		.uleb128 0x1c
 2827 014e 0D       		.uleb128 0xd
 2828 014f 00       		.byte	0
 2829 0150 03       		.uleb128 0x3
 2830 0151 0E       		.uleb128 0xe
 2831 0152 3A       		.uleb128 0x3a
 2832 0153 0B       		.uleb128 0xb
 2833 0154 3B       		.uleb128 0x3b
 2834 0155 05       		.uleb128 0x5
 2835 0156 49       		.uleb128 0x49
 2836 0157 13       		.uleb128 0x13
 2837 0158 00       		.byte	0
 2838 0159 00       		.byte	0
 2839 015a 1D       		.uleb128 0x1d
 2840 015b 15       		.uleb128 0x15
 2841 015c 01       		.byte	0x1
 2842 015d 27       		.uleb128 0x27
 2843 015e 19       		.uleb128 0x19
 2844 015f 01       		.uleb128 0x1
 2845 0160 13       		.uleb128 0x13
ARM GAS  /tmp/cczaK23z.s 			page 51


 2846 0161 00       		.byte	0
 2847 0162 00       		.byte	0
 2848 0163 1E       		.uleb128 0x1e
 2849 0164 0D       		.uleb128 0xd
 2850 0165 00       		.byte	0
 2851 0166 03       		.uleb128 0x3
 2852 0167 08       		.uleb128 0x8
 2853 0168 3A       		.uleb128 0x3a
 2854 0169 0B       		.uleb128 0xb
 2855 016a 3B       		.uleb128 0x3b
 2856 016b 05       		.uleb128 0x5
 2857 016c 49       		.uleb128 0x49
 2858 016d 13       		.uleb128 0x13
 2859 016e 38       		.uleb128 0x38
 2860 016f 0B       		.uleb128 0xb
 2861 0170 00       		.byte	0
 2862 0171 00       		.byte	0
 2863 0172 1F       		.uleb128 0x1f
 2864 0173 35       		.uleb128 0x35
 2865 0174 00       		.byte	0
 2866 0175 49       		.uleb128 0x49
 2867 0176 13       		.uleb128 0x13
 2868 0177 00       		.byte	0
 2869 0178 00       		.byte	0
 2870 0179 20       		.uleb128 0x20
 2871 017a 2E       		.uleb128 0x2e
 2872 017b 01       		.byte	0x1
 2873 017c 3F       		.uleb128 0x3f
 2874 017d 19       		.uleb128 0x19
 2875 017e 03       		.uleb128 0x3
 2876 017f 0E       		.uleb128 0xe
 2877 0180 3A       		.uleb128 0x3a
 2878 0181 0B       		.uleb128 0xb
 2879 0182 3B       		.uleb128 0x3b
 2880 0183 0B       		.uleb128 0xb
 2881 0184 27       		.uleb128 0x27
 2882 0185 19       		.uleb128 0x19
 2883 0186 49       		.uleb128 0x49
 2884 0187 13       		.uleb128 0x13
 2885 0188 11       		.uleb128 0x11
 2886 0189 01       		.uleb128 0x1
 2887 018a 12       		.uleb128 0x12
 2888 018b 06       		.uleb128 0x6
 2889 018c 40       		.uleb128 0x40
 2890 018d 18       		.uleb128 0x18
 2891 018e 9742     		.uleb128 0x2117
 2892 0190 19       		.uleb128 0x19
 2893 0191 01       		.uleb128 0x1
 2894 0192 13       		.uleb128 0x13
 2895 0193 00       		.byte	0
 2896 0194 00       		.byte	0
 2897 0195 21       		.uleb128 0x21
 2898 0196 05       		.uleb128 0x5
 2899 0197 00       		.byte	0
 2900 0198 03       		.uleb128 0x3
 2901 0199 08       		.uleb128 0x8
 2902 019a 3A       		.uleb128 0x3a
ARM GAS  /tmp/cczaK23z.s 			page 52


 2903 019b 0B       		.uleb128 0xb
 2904 019c 3B       		.uleb128 0x3b
 2905 019d 0B       		.uleb128 0xb
 2906 019e 49       		.uleb128 0x49
 2907 019f 13       		.uleb128 0x13
 2908 01a0 02       		.uleb128 0x2
 2909 01a1 18       		.uleb128 0x18
 2910 01a2 00       		.byte	0
 2911 01a3 00       		.byte	0
 2912 01a4 22       		.uleb128 0x22
 2913 01a5 05       		.uleb128 0x5
 2914 01a6 00       		.byte	0
 2915 01a7 03       		.uleb128 0x3
 2916 01a8 0E       		.uleb128 0xe
 2917 01a9 3A       		.uleb128 0x3a
 2918 01aa 0B       		.uleb128 0xb
 2919 01ab 3B       		.uleb128 0x3b
 2920 01ac 0B       		.uleb128 0xb
 2921 01ad 49       		.uleb128 0x49
 2922 01ae 13       		.uleb128 0x13
 2923 01af 02       		.uleb128 0x2
 2924 01b0 18       		.uleb128 0x18
 2925 01b1 00       		.byte	0
 2926 01b2 00       		.byte	0
 2927 01b3 23       		.uleb128 0x23
 2928 01b4 2E       		.uleb128 0x2e
 2929 01b5 01       		.byte	0x1
 2930 01b6 3F       		.uleb128 0x3f
 2931 01b7 19       		.uleb128 0x19
 2932 01b8 03       		.uleb128 0x3
 2933 01b9 0E       		.uleb128 0xe
 2934 01ba 3A       		.uleb128 0x3a
 2935 01bb 0B       		.uleb128 0xb
 2936 01bc 3B       		.uleb128 0x3b
 2937 01bd 0B       		.uleb128 0xb
 2938 01be 27       		.uleb128 0x27
 2939 01bf 19       		.uleb128 0x19
 2940 01c0 49       		.uleb128 0x49
 2941 01c1 13       		.uleb128 0x13
 2942 01c2 11       		.uleb128 0x11
 2943 01c3 01       		.uleb128 0x1
 2944 01c4 12       		.uleb128 0x12
 2945 01c5 06       		.uleb128 0x6
 2946 01c6 40       		.uleb128 0x40
 2947 01c7 18       		.uleb128 0x18
 2948 01c8 9642     		.uleb128 0x2116
 2949 01ca 19       		.uleb128 0x19
 2950 01cb 01       		.uleb128 0x1
 2951 01cc 13       		.uleb128 0x13
 2952 01cd 00       		.byte	0
 2953 01ce 00       		.byte	0
 2954 01cf 24       		.uleb128 0x24
 2955 01d0 34       		.uleb128 0x34
 2956 01d1 00       		.byte	0
 2957 01d2 03       		.uleb128 0x3
 2958 01d3 08       		.uleb128 0x8
 2959 01d4 3A       		.uleb128 0x3a
ARM GAS  /tmp/cczaK23z.s 			page 53


 2960 01d5 0B       		.uleb128 0xb
 2961 01d6 3B       		.uleb128 0x3b
 2962 01d7 0B       		.uleb128 0xb
 2963 01d8 49       		.uleb128 0x49
 2964 01d9 13       		.uleb128 0x13
 2965 01da 02       		.uleb128 0x2
 2966 01db 18       		.uleb128 0x18
 2967 01dc 00       		.byte	0
 2968 01dd 00       		.byte	0
 2969 01de 25       		.uleb128 0x25
 2970 01df 34       		.uleb128 0x34
 2971 01e0 00       		.byte	0
 2972 01e1 03       		.uleb128 0x3
 2973 01e2 0E       		.uleb128 0xe
 2974 01e3 49       		.uleb128 0x49
 2975 01e4 13       		.uleb128 0x13
 2976 01e5 34       		.uleb128 0x34
 2977 01e6 19       		.uleb128 0x19
 2978 01e7 00       		.byte	0
 2979 01e8 00       		.byte	0
 2980 01e9 26       		.uleb128 0x26
 2981 01ea 34       		.uleb128 0x34
 2982 01eb 00       		.byte	0
 2983 01ec 03       		.uleb128 0x3
 2984 01ed 0E       		.uleb128 0xe
 2985 01ee 3A       		.uleb128 0x3a
 2986 01ef 0B       		.uleb128 0xb
 2987 01f0 3B       		.uleb128 0x3b
 2988 01f1 05       		.uleb128 0x5
 2989 01f2 49       		.uleb128 0x49
 2990 01f3 13       		.uleb128 0x13
 2991 01f4 3F       		.uleb128 0x3f
 2992 01f5 19       		.uleb128 0x19
 2993 01f6 3C       		.uleb128 0x3c
 2994 01f7 19       		.uleb128 0x19
 2995 01f8 00       		.byte	0
 2996 01f9 00       		.byte	0
 2997 01fa 27       		.uleb128 0x27
 2998 01fb 34       		.uleb128 0x34
 2999 01fc 00       		.byte	0
 3000 01fd 03       		.uleb128 0x3
 3001 01fe 08       		.uleb128 0x8
 3002 01ff 3A       		.uleb128 0x3a
 3003 0200 0B       		.uleb128 0xb
 3004 0201 3B       		.uleb128 0x3b
 3005 0202 05       		.uleb128 0x5
 3006 0203 49       		.uleb128 0x49
 3007 0204 13       		.uleb128 0x13
 3008 0205 3F       		.uleb128 0x3f
 3009 0206 19       		.uleb128 0x19
 3010 0207 3C       		.uleb128 0x3c
 3011 0208 19       		.uleb128 0x19
 3012 0209 00       		.byte	0
 3013 020a 00       		.byte	0
 3014 020b 00       		.byte	0
 3015              		.section	.debug_aranges,"",%progbits
 3016 0000 1C000000 		.4byte	0x1c
ARM GAS  /tmp/cczaK23z.s 			page 54


 3017 0004 0200     		.2byte	0x2
 3018 0006 00000000 		.4byte	.Ldebug_info0
 3019 000a 04       		.byte	0x4
 3020 000b 00       		.byte	0
 3021 000c 0000     		.2byte	0
 3022 000e 0000     		.2byte	0
 3023 0010 00000000 		.4byte	.Ltext0
 3024 0014 EE000000 		.4byte	.Letext0-.Ltext0
 3025 0018 00000000 		.4byte	0
 3026 001c 00000000 		.4byte	0
 3027              		.section	.debug_line,"",%progbits
 3028              	.Ldebug_line0:
 3029 0000 98030000 		.section	.debug_str,"MS",%progbits,1
 3029      02006003 
 3029      00000201 
 3029      FB0E0D00 
 3029      01010101 
 3030              	.LASF2:
 3031 0000 73697A65 		.ascii	"size_t\000"
 3031      5F7400
 3032              	.LASF23:
 3033 0007 73697A65 		.ascii	"sizetype\000"
 3033      74797065 
 3033      00
 3034              	.LASF25:
 3035 0010 5F5F7661 		.ascii	"__value\000"
 3035      6C756500 
 3036              	.LASF165:
 3037 0018 73797374 		.ascii	"systime_t\000"
 3037      696D655F 
 3037      7400
 3038              	.LASF93:
 3039 0022 5F5F7366 		.ascii	"__sf\000"
 3039      00
 3040              	.LASF171:
 3041 0027 705F6374 		.ascii	"p_ctx\000"
 3041      7800
 3042              	.LASF60:
 3043 002d 5F726561 		.ascii	"_read\000"
 3043      6400
 3044              	.LASF161:
 3045 0033 74707269 		.ascii	"tprio_t\000"
 3045      6F5F7400 
 3046              	.LASF150:
 3047 003b 73745F62 		.ascii	"st_blocks\000"
 3047      6C6F636B 
 3047      7300
 3048              	.LASF180:
 3049 0045 705F6D73 		.ascii	"p_msgqueue\000"
 3049      67717565 
 3049      756500
 3050              	.LASF61:
 3051 0050 5F777269 		.ascii	"_write\000"
 3051      746500
 3052              	.LASF195:
 3053 0057 725F6374 		.ascii	"r_ctx\000"
 3053      7800
ARM GAS  /tmp/cczaK23z.s 			page 55


 3054              	.LASF153:
 3055 005d 696E7433 		.ascii	"int32_t\000"
 3055      325F7400 
 3056              	.LASF105:
 3057 0065 5F617363 		.ascii	"_asctime_buf\000"
 3057      74696D65 
 3057      5F627566 
 3057      00
 3058              	.LASF87:
 3059 0072 5F637674 		.ascii	"_cvtlen\000"
 3059      6C656E00 
 3060              	.LASF199:
 3061 007a 76746675 		.ascii	"vtfunc_t\000"
 3061      6E635F74 
 3061      00
 3062              	.LASF254:
 3063 0083 5F5F6675 		.ascii	"__func__\000"
 3063      6E635F5F 
 3063      00
 3064              	.LASF208:
 3065 008c 63685F76 		.ascii	"ch_virtual_timers_list\000"
 3065      69727475 
 3065      616C5F74 
 3065      696D6572 
 3065      735F6C69 
 3066              	.LASF129:
 3067 00a3 6465765F 		.ascii	"dev_t\000"
 3067      7400
 3068              	.LASF133:
 3069 00a9 6E6C696E 		.ascii	"nlink_t\000"
 3069      6B5F7400 
 3070              	.LASF18:
 3071 00b1 5F5F6769 		.ascii	"__gid_t\000"
 3071      645F7400 
 3072              	.LASF124:
 3073 00b9 5F756E75 		.ascii	"_unused\000"
 3073      73656400 
 3074              	.LASF34:
 3075 00c1 5F5F746D 		.ascii	"__tm\000"
 3075      00
 3076              	.LASF120:
 3077 00c6 5F776373 		.ascii	"_wcsrtombs_state\000"
 3077      72746F6D 
 3077      62735F73 
 3077      74617465 
 3077      00
 3078              	.LASF65:
 3079 00d7 5F6E6275 		.ascii	"_nbuf\000"
 3079      6600
 3080              	.LASF35:
 3081 00dd 5F5F746D 		.ascii	"__tm_sec\000"
 3081      5F736563 
 3081      00
 3082              	.LASF113:
 3083 00e6 5F6C3634 		.ascii	"_l64a_buf\000"
 3083      615F6275 
 3083      6600
ARM GAS  /tmp/cczaK23z.s 			page 56


 3084              	.LASF125:
 3085 00f0 74696D65 		.ascii	"time_t\000"
 3085      5F7400
 3086              	.LASF69:
 3087 00f7 5F6C6F63 		.ascii	"_lock\000"
 3087      6B00
 3088              	.LASF101:
 3089 00fd 5F6D756C 		.ascii	"_mult\000"
 3089      7400
 3090              	.LASF237:
 3091 0103 6D5F6F77 		.ascii	"m_owner\000"
 3091      6E657200 
 3092              	.LASF206:
 3093 010b 76745F70 		.ascii	"vt_par\000"
 3093      617200
 3094              	.LASF176:
 3095 0112 705F666C 		.ascii	"p_flags\000"
 3095      61677300 
 3096              	.LASF21:
 3097 011a 5F5F7763 		.ascii	"__wch\000"
 3097      6800
 3098              	.LASF226:
 3099 0120 65786974 		.ascii	"exitcode\000"
 3099      636F6465 
 3099      00
 3100              	.LASF244:
 3101 0129 5F6F7065 		.ascii	"_open_r\000"
 3101      6E5F7200 
 3102              	.LASF3:
 3103 0131 5F5F7569 		.ascii	"__uint8_t\000"
 3103      6E74385F 
 3103      7400
 3104              	.LASF16:
 3105 013b 5F5F6465 		.ascii	"__dev_t\000"
 3105      765F7400 
 3106              	.LASF231:
 3107 0143 65776D61 		.ascii	"ewmask\000"
 3107      736B00
 3108              	.LASF130:
 3109 014a 7569645F 		.ascii	"uid_t\000"
 3109      7400
 3110              	.LASF57:
 3111 0150 5F66696C 		.ascii	"_file\000"
 3111      6500
 3112              	.LASF44:
 3113 0156 5F6F6E5F 		.ascii	"_on_exit_args\000"
 3113      65786974 
 3113      5F617267 
 3113      7300
 3114              	.LASF172:
 3115 0164 705F6E65 		.ascii	"p_newer\000"
 3115      77657200 
 3116              	.LASF116:
 3117 016c 5F6D6272 		.ascii	"_mbrlen_state\000"
 3117      6C656E5F 
 3117      73746174 
 3117      6500
ARM GAS  /tmp/cczaK23z.s 			page 57


 3118              	.LASF8:
 3119 017a 6C6F6E67 		.ascii	"long int\000"
 3119      20696E74 
 3119      00
 3120              	.LASF168:
 3121 0183 705F6E65 		.ascii	"p_next\000"
 3121      787400
 3122              	.LASF84:
 3123 018a 5F726573 		.ascii	"_result_k\000"
 3123      756C745F 
 3123      6B00
 3124              	.LASF54:
 3125 0194 5F73697A 		.ascii	"_size\000"
 3125      6500
 3126              	.LASF169:
 3127 019a 705F7072 		.ascii	"p_prev\000"
 3127      657600
 3128              	.LASF106:
 3129 01a1 5F6C6F63 		.ascii	"_localtime_buf\000"
 3129      616C7469 
 3129      6D655F62 
 3129      756600
 3130              	.LASF158:
 3131 01b0 74737461 		.ascii	"tstate_t\000"
 3131      74655F74 
 3131      00
 3132              	.LASF189:
 3133 01b9 74687265 		.ascii	"threads_queue_t\000"
 3133      6164735F 
 3133      71756575 
 3133      655F7400 
 3134              	.LASF183:
 3135 01c9 705F6D74 		.ascii	"p_mtxlist\000"
 3135      786C6973 
 3135      7400
 3136              	.LASF219:
 3137 01d3 72656761 		.ascii	"regarm_t\000"
 3137      726D5F74 
 3137      00
 3138              	.LASF39:
 3139 01dc 5F5F746D 		.ascii	"__tm_mon\000"
 3139      5F6D6F6E 
 3139      00
 3140              	.LASF79:
 3141 01e5 5F637572 		.ascii	"_current_category\000"
 3141      72656E74 
 3141      5F636174 
 3141      65676F72 
 3141      7900
 3142              	.LASF103:
 3143 01f7 5F756E75 		.ascii	"_unused_rand\000"
 3143      7365645F 
 3143      72616E64 
 3143      00
 3144              	.LASF1:
 3145 0204 7369676E 		.ascii	"signed char\000"
 3145      65642063 
ARM GAS  /tmp/cczaK23z.s 			page 58


 3145      68617200 
 3146              	.LASF178:
 3147 0210 705F7072 		.ascii	"p_preempt\000"
 3147      65656D70 
 3147      7400
 3148              	.LASF152:
 3149 021a 75696E74 		.ascii	"uint8_t\000"
 3149      385F7400 
 3150              	.LASF144:
 3151 0222 73745F73 		.ascii	"st_spare1\000"
 3151      70617265 
 3151      3100
 3152              	.LASF139:
 3153 022c 73745F75 		.ascii	"st_uid\000"
 3153      696400
 3154              	.LASF148:
 3155 0233 73745F73 		.ascii	"st_spare3\000"
 3155      70617265 
 3155      3300
 3156              	.LASF151:
 3157 023d 73745F73 		.ascii	"st_spare4\000"
 3157      70617265 
 3157      3400
 3158              	.LASF163:
 3159 0247 6576656E 		.ascii	"eventmask_t\000"
 3159      746D6173 
 3159      6B5F7400 
 3160              	.LASF221:
 3161 0253 636F6E74 		.ascii	"context\000"
 3161      65787400 
 3162              	.LASF228:
 3163 025b 77747472 		.ascii	"wttrp\000"
 3163      7000
 3164              	.LASF4:
 3165 0261 756E7369 		.ascii	"unsigned char\000"
 3165      676E6564 
 3165      20636861 
 3165      7200
 3166              	.LASF141:
 3167 026f 73745F72 		.ascii	"st_rdev\000"
 3167      64657600 
 3168              	.LASF212:
 3169 0277 70616E69 		.ascii	"panic_msg\000"
 3169      635F6D73 
 3169      6700
 3170              	.LASF246:
 3171 0281 5F736272 		.ascii	"_sbrk_r\000"
 3171      6B5F7200 
 3172              	.LASF72:
 3173 0289 5F726565 		.ascii	"_reent\000"
 3173      6E7400
 3174              	.LASF196:
 3175 0290 725F6E65 		.ascii	"r_newer\000"
 3175      77657200 
 3176              	.LASF210:
 3177 0298 73797374 		.ascii	"system_debug_t\000"
 3177      656D5F64 
ARM GAS  /tmp/cczaK23z.s 			page 59


 3177      65627567 
 3177      5F7400
 3178              	.LASF94:
 3179 02a7 63686172 		.ascii	"char\000"
 3179      00
 3180              	.LASF51:
 3181 02ac 5F666E73 		.ascii	"_fns\000"
 3181      00
 3182              	.LASF63:
 3183 02b1 5F636C6F 		.ascii	"_close\000"
 3183      736500
 3184              	.LASF170:
 3185 02b8 705F7072 		.ascii	"p_prio\000"
 3185      696F00
 3186              	.LASF227:
 3187 02bf 77746F62 		.ascii	"wtobjp\000"
 3187      6A7000
 3188              	.LASF74:
 3189 02c6 5F737464 		.ascii	"_stdin\000"
 3189      696E00
 3190              	.LASF249:
 3191 02cd 5F697361 		.ascii	"_isatty_r\000"
 3191      7474795F 
 3191      7200
 3192              	.LASF220:
 3193 02d7 73746B61 		.ascii	"stkalign_t\000"
 3193      6C69676E 
 3193      5F7400
 3194              	.LASF159:
 3195 02e2 74726566 		.ascii	"trefs_t\000"
 3195      735F7400 
 3196              	.LASF147:
 3197 02ea 73745F63 		.ascii	"st_ctime\000"
 3197      74696D65 
 3197      00
 3198              	.LASF240:
 3199 02f3 66696C65 		.ascii	"file\000"
 3199      00
 3200              	.LASF164:
 3201 02f8 636E745F 		.ascii	"cnt_t\000"
 3201      7400
 3202              	.LASF205:
 3203 02fe 76745F66 		.ascii	"vt_func\000"
 3203      756E6300 
 3204              	.LASF59:
 3205 0306 5F636F6F 		.ascii	"_cookie\000"
 3205      6B696500 
 3206              	.LASF182:
 3207 030e 705F6570 		.ascii	"p_epending\000"
 3207      656E6469 
 3207      6E6700
 3208              	.LASF230:
 3209 0319 77746D74 		.ascii	"wtmtxp\000"
 3209      787000
 3210              	.LASF32:
 3211 0320 5F776473 		.ascii	"_wds\000"
 3211      00
ARM GAS  /tmp/cczaK23z.s 			page 60


 3212              	.LASF192:
 3213 0325 63685F72 		.ascii	"ch_ready_list\000"
 3213      65616479 
 3213      5F6C6973 
 3213      7400
 3214              	.LASF91:
 3215 0333 5F736967 		.ascii	"_sig_func\000"
 3215      5F66756E 
 3215      6300
 3216              	.LASF67:
 3217 033d 5F6F6666 		.ascii	"_offset\000"
 3217      73657400 
 3218              	.LASF88:
 3219 0345 5F637674 		.ascii	"_cvtbuf\000"
 3219      62756600 
 3220              	.LASF140:
 3221 034d 73745F67 		.ascii	"st_gid\000"
 3221      696400
 3222              	.LASF12:
 3223 0354 5F5F7569 		.ascii	"__uint64_t\000"
 3223      6E743634 
 3223      5F7400
 3224              	.LASF127:
 3225 035f 696E6F5F 		.ascii	"ino_t\000"
 3225      7400
 3226              	.LASF85:
 3227 0365 5F703573 		.ascii	"_p5s\000"
 3227      00
 3228              	.LASF10:
 3229 036a 6C6F6E67 		.ascii	"long unsigned int\000"
 3229      20756E73 
 3229      69676E65 
 3229      6420696E 
 3229      7400
 3230              	.LASF55:
 3231 037c 5F5F7346 		.ascii	"__sFILE\000"
 3231      494C4500 
 3232              	.LASF81:
 3233 0384 5F5F7364 		.ascii	"__sdidinit\000"
 3233      6964696E 
 3233      697400
 3234              	.LASF71:
 3235 038f 5F666C61 		.ascii	"_flags2\000"
 3235      67733200 
 3236              	.LASF142:
 3237 0397 73745F73 		.ascii	"st_size\000"
 3237      697A6500 
 3238              	.LASF232:
 3239 039f 63685F73 		.ascii	"ch_semaphore\000"
 3239      656D6170 
 3239      686F7265 
 3239      00
 3240              	.LASF167:
 3241 03ac 63685F74 		.ascii	"ch_thread\000"
 3241      68726561 
 3241      6400
 3242              	.LASF207:
ARM GAS  /tmp/cczaK23z.s 			page 61


 3243 03b6 76697274 		.ascii	"virtual_timers_list_t\000"
 3243      75616C5F 
 3243      74696D65 
 3243      72735F6C 
 3243      6973745F 
 3244              	.LASF14:
 3245 03cc 5F4C4F43 		.ascii	"_LOCK_RECURSIVE_T\000"
 3245      4B5F5245 
 3245      43555253 
 3245      4956455F 
 3245      5400
 3246              	.LASF73:
 3247 03de 5F657272 		.ascii	"_errno\000"
 3247      6E6F00
 3248              	.LASF200:
 3249 03e5 76697274 		.ascii	"virtual_timer_t\000"
 3249      75616C5F 
 3249      74696D65 
 3249      725F7400 
 3250              	.LASF191:
 3251 03f5 72656164 		.ascii	"ready_list_t\000"
 3251      795F6C69 
 3251      73745F74 
 3251      00
 3252              	.LASF146:
 3253 0402 73745F73 		.ascii	"st_spare2\000"
 3253      70617265 
 3253      3200
 3254              	.LASF114:
 3255 040c 5F736967 		.ascii	"_signal_buf\000"
 3255      6E616C5F 
 3255      62756600 
 3256              	.LASF245:
 3257 0418 5F636C6F 		.ascii	"_close_r\000"
 3257      73655F72 
 3257      00
 3258              	.LASF33:
 3259 0421 5F426967 		.ascii	"_Bigint\000"
 3259      696E7400 
 3260              	.LASF188:
 3261 0429 63685F74 		.ascii	"ch_threads_list\000"
 3261      68726561 
 3261      64735F6C 
 3261      69737400 
 3262              	.LASF30:
 3263 0439 5F6D6178 		.ascii	"_maxwds\000"
 3263      77647300 
 3264              	.LASF82:
 3265 0441 5F5F636C 		.ascii	"__cleanup\000"
 3265      65616E75 
 3265      7000
 3266              	.LASF90:
 3267 044b 5F617465 		.ascii	"_atexit0\000"
 3267      78697430 
 3267      00
 3268              	.LASF134:
 3269 0454 73746174 		.ascii	"stat\000"
ARM GAS  /tmp/cczaK23z.s 			page 62


 3269      00
 3270              	.LASF251:
 3271 0459 474E5520 		.ascii	"GNU C 4.8.4 20140526 (release) [ARM/embedded-4_8-br"
 3271      4320342E 
 3271      382E3420 
 3271      32303134 
 3271      30353236 
 3272 048c 616E6368 		.ascii	"anch revision 211358] -mcpu=cortex-m4 -mno-thumb-in"
 3272      20726576 
 3272      6973696F 
 3272      6E203231 
 3272      31333538 
 3273 04bf 74657277 		.ascii	"terwork -mthumb -ggdb -O0 -fomit-frame-pointer -fal"
 3273      6F726B20 
 3273      2D6D7468 
 3273      756D6220 
 3273      2D676764 
 3274 04f2 69676E2D 		.ascii	"ign-functions=16\000"
 3274      66756E63 
 3274      74696F6E 
 3274      733D3136 
 3274      00
 3275              	.LASF149:
 3276 0503 73745F62 		.ascii	"st_blksize\000"
 3276      6C6B7369 
 3276      7A6500
 3277              	.LASF9:
 3278 050e 5F5F7569 		.ascii	"__uint32_t\000"
 3278      6E743332 
 3278      5F7400
 3279              	.LASF78:
 3280 0519 5F656D65 		.ascii	"_emergency\000"
 3280      7267656E 
 3280      637900
 3281              	.LASF11:
 3282 0524 6C6F6E67 		.ascii	"long long int\000"
 3282      206C6F6E 
 3282      6720696E 
 3282      7400
 3283              	.LASF236:
 3284 0532 6D5F7175 		.ascii	"m_queue\000"
 3284      65756500 
 3285              	.LASF97:
 3286 053a 5F6E696F 		.ascii	"_niobs\000"
 3286      627300
 3287              	.LASF202:
 3288 0541 76745F6E 		.ascii	"vt_next\000"
 3288      65787400 
 3289              	.LASF92:
 3290 0549 5F5F7367 		.ascii	"__sglue\000"
 3290      6C756500 
 3291              	.LASF123:
 3292 0551 5F6E6D61 		.ascii	"_nmalloc\000"
 3292      6C6C6F63 
 3292      00
 3293              	.LASF203:
 3294 055a 76745F70 		.ascii	"vt_prev\000"
ARM GAS  /tmp/cczaK23z.s 			page 63


 3294      72657600 
 3295              	.LASF107:
 3296 0562 5F67616D 		.ascii	"_gamma_signgam\000"
 3296      6D615F73 
 3296      69676E67 
 3296      616D00
 3297              	.LASF80:
 3298 0571 5F637572 		.ascii	"_current_locale\000"
 3298      72656E74 
 3298      5F6C6F63 
 3298      616C6500 
 3299              	.LASF86:
 3300 0581 5F667265 		.ascii	"_freelist\000"
 3300      656C6973 
 3300      7400
 3301              	.LASF98:
 3302 058b 5F696F62 		.ascii	"_iobs\000"
 3302      7300
 3303              	.LASF96:
 3304 0591 5F676C75 		.ascii	"_glue\000"
 3304      6500
 3305              	.LASF250:
 3306 0597 49544D5F 		.ascii	"ITM_RxBuffer\000"
 3306      52784275 
 3306      66666572 
 3306      00
 3307              	.LASF31:
 3308 05a4 5F736967 		.ascii	"_sign\000"
 3308      6E00
 3309              	.LASF179:
 3310 05aa 705F7761 		.ascii	"p_waiting\000"
 3310      6974696E 
 3310      6700
 3311              	.LASF218:
 3312 05b4 69646C65 		.ascii	"idle_thread_wa\000"
 3312      5F746872 
 3312      6561645F 
 3312      776100
 3313              	.LASF0:
 3314 05c3 756E7369 		.ascii	"unsigned int\000"
 3314      676E6564 
 3314      20696E74 
 3314      00
 3315              	.LASF243:
 3316 05d0 5F777269 		.ascii	"_write_r\000"
 3316      74655F72 
 3316      00
 3317              	.LASF126:
 3318 05d9 63616464 		.ascii	"caddr_t\000"
 3318      725F7400 
 3319              	.LASF156:
 3320 05e1 7274636E 		.ascii	"rtcnt_t\000"
 3320      745F7400 
 3321              	.LASF185:
 3322 05e9 705F6D70 		.ascii	"p_mpool\000"
 3322      6F6F6C00 
 3323              	.LASF253:
ARM GAS  /tmp/cczaK23z.s 			page 64


 3324 05f1 2F6E6673 		.ascii	"/nfs/nfs7/home/vvedanta/P442/p442-submissions/senso"
 3324      2F6E6673 
 3324      372F686F 
 3324      6D652F76 
 3324      76656461 
 3325 0624 7274696C 		.ascii	"rtile/final_project\000"
 3325      652F6669 
 3325      6E616C5F 
 3325      70726F6A 
 3325      65637400 
 3326              	.LASF121:
 3327 0638 5F685F65 		.ascii	"_h_errno\000"
 3327      72726E6F 
 3327      00
 3328              	.LASF247:
 3329 0641 696E6372 		.ascii	"incr\000"
 3329      00
 3330              	.LASF177:
 3331 0646 705F7265 		.ascii	"p_refs\000"
 3331      667300
 3332              	.LASF119:
 3333 064d 5F776372 		.ascii	"_wcrtomb_state\000"
 3333      746F6D62 
 3333      5F737461 
 3333      746500
 3334              	.LASF38:
 3335 065c 5F5F746D 		.ascii	"__tm_mday\000"
 3335      5F6D6461 
 3335      7900
 3336              	.LASF89:
 3337 0666 5F6E6577 		.ascii	"_new\000"
 3337      00
 3338              	.LASF64:
 3339 066b 5F756275 		.ascii	"_ubuf\000"
 3339      6600
 3340              	.LASF76:
 3341 0671 5F737464 		.ascii	"_stderr\000"
 3341      65727200 
 3342              	.LASF112:
 3343 0679 5F776374 		.ascii	"_wctomb_state\000"
 3343      6F6D625F 
 3343      73746174 
 3343      6500
 3344              	.LASF70:
 3345 0687 5F6D6273 		.ascii	"_mbstate\000"
 3345      74617465 
 3345      00
 3346              	.LASF108:
 3347 0690 5F72616E 		.ascii	"_rand_next\000"
 3347      645F6E65 
 3347      787400
 3348              	.LASF56:
 3349 069b 5F666C61 		.ascii	"_flags\000"
 3349      677300
 3350              	.LASF223:
 3351 06a2 6F666673 		.ascii	"offset\000"
 3351      657400
ARM GAS  /tmp/cczaK23z.s 			page 65


 3352              	.LASF186:
 3353 06a9 74687265 		.ascii	"thread_reference_t\000"
 3353      61645F72 
 3353      65666572 
 3353      656E6365 
 3353      5F7400
 3354              	.LASF49:
 3355 06bc 5F617465 		.ascii	"_atexit\000"
 3355      78697400 
 3356              	.LASF24:
 3357 06c4 5F5F636F 		.ascii	"__count\000"
 3357      756E7400 
 3358              	.LASF138:
 3359 06cc 73745F6E 		.ascii	"st_nlink\000"
 3359      6C696E6B 
 3359      00
 3360              	.LASF128:
 3361 06d5 6F66665F 		.ascii	"off_t\000"
 3361      7400
 3362              	.LASF132:
 3363 06db 6D6F6465 		.ascii	"mode_t\000"
 3363      5F7400
 3364              	.LASF41:
 3365 06e2 5F5F746D 		.ascii	"__tm_wday\000"
 3365      5F776461 
 3365      7900
 3366              	.LASF166:
 3367 06ec 74687265 		.ascii	"thread_t\000"
 3367      61645F74 
 3367      00
 3368              	.LASF143:
 3369 06f5 73745F61 		.ascii	"st_atime\000"
 3369      74696D65 
 3369      00
 3370              	.LASF42:
 3371 06fe 5F5F746D 		.ascii	"__tm_yday\000"
 3371      5F796461 
 3371      7900
 3372              	.LASF184:
 3373 0708 705F7265 		.ascii	"p_realprio\000"
 3373      616C7072 
 3373      696F00
 3374              	.LASF222:
 3375 0713 706F7274 		.ascii	"port_intctx\000"
 3375      5F696E74 
 3375      63747800 
 3376              	.LASF100:
 3377 071f 5F736565 		.ascii	"_seed\000"
 3377      6400
 3378              	.LASF62:
 3379 0725 5F736565 		.ascii	"_seek\000"
 3379      6B00
 3380              	.LASF135:
 3381 072b 73745F64 		.ascii	"st_dev\000"
 3381      657600
 3382              	.LASF204:
 3383 0732 76745F64 		.ascii	"vt_delta\000"
ARM GAS  /tmp/cczaK23z.s 			page 66


 3383      656C7461 
 3383      00
 3384              	.LASF19:
 3385 073b 5F66706F 		.ascii	"_fpos_t\000"
 3385      735F7400 
 3386              	.LASF22:
 3387 0743 5F5F7763 		.ascii	"__wchb\000"
 3387      686200
 3388              	.LASF201:
 3389 074a 63685F76 		.ascii	"ch_virtual_timer\000"
 3389      69727475 
 3389      616C5F74 
 3389      696D6572 
 3389      00
 3390              	.LASF234:
 3391 075b 735F636E 		.ascii	"s_cnt\000"
 3391      7400
 3392              	.LASF111:
 3393 0761 5F6D6274 		.ascii	"_mbtowc_state\000"
 3393      6F77635F 
 3393      73746174 
 3393      6500
 3394              	.LASF13:
 3395 076f 6C6F6E67 		.ascii	"long long unsigned int\000"
 3395      206C6F6E 
 3395      6720756E 
 3395      7369676E 
 3395      65642069 
 3396              	.LASF252:
 3397 0786 2E2E2F2E 		.ascii	"../../ChibiOS/os/various/syscalls.c\000"
 3397      2E2F4368 
 3397      6962694F 
 3397      532F6F73 
 3397      2F766172 
 3398              	.LASF173:
 3399 07aa 705F6F6C 		.ascii	"p_older\000"
 3399      64657200 
 3400              	.LASF46:
 3401 07b2 5F64736F 		.ascii	"_dso_handle\000"
 3401      5F68616E 
 3401      646C6500 
 3402              	.LASF162:
 3403 07be 6D73675F 		.ascii	"msg_t\000"
 3403      7400
 3404              	.LASF190:
 3405 07c4 63685F74 		.ascii	"ch_threads_queue\000"
 3405      68726561 
 3405      64735F71 
 3405      75657565 
 3405      00
 3406              	.LASF99:
 3407 07d5 5F72616E 		.ascii	"_rand48\000"
 3407      64343800 
 3408              	.LASF75:
 3409 07dd 5F737464 		.ascii	"_stdout\000"
 3409      6F757400 
 3410              	.LASF160:
ARM GAS  /tmp/cczaK23z.s 			page 67


 3411 07e5 74736C69 		.ascii	"tslices_t\000"
 3411      6365735F 
 3411      7400
 3412              	.LASF66:
 3413 07ef 5F626C6B 		.ascii	"_blksize\000"
 3413      73697A65 
 3413      00
 3414              	.LASF53:
 3415 07f8 5F626173 		.ascii	"_base\000"
 3415      6500
 3416              	.LASF248:
 3417 07fe 5F667374 		.ascii	"_fstat_r\000"
 3417      61745F72 
 3417      00
 3418              	.LASF104:
 3419 0807 5F737472 		.ascii	"_strtok_last\000"
 3419      746F6B5F 
 3419      6C617374 
 3419      00
 3420              	.LASF117:
 3421 0814 5F6D6272 		.ascii	"_mbrtowc_state\000"
 3421      746F7763 
 3421      5F737461 
 3421      746500
 3422              	.LASF217:
 3423 0823 6D61696E 		.ascii	"mainthread\000"
 3423      74687265 
 3423      616400
 3424              	.LASF27:
 3425 082e 5F666C6F 		.ascii	"_flock_t\000"
 3425      636B5F74 
 3425      00
 3426              	.LASF95:
 3427 0837 5F5F4649 		.ascii	"__FILE\000"
 3427      4C4500
 3428              	.LASF26:
 3429 083e 5F6D6273 		.ascii	"_mbstate_t\000"
 3429      74617465 
 3429      5F7400
 3430              	.LASF193:
 3431 0849 725F7175 		.ascii	"r_queue\000"
 3431      65756500 
 3432              	.LASF109:
 3433 0851 5F723438 		.ascii	"_r48\000"
 3433      00
 3434              	.LASF20:
 3435 0856 77696E74 		.ascii	"wint_t\000"
 3435      5F7400
 3436              	.LASF29:
 3437 085d 5F6E6578 		.ascii	"_next\000"
 3437      7400
 3438              	.LASF68:
 3439 0863 5F646174 		.ascii	"_data\000"
 3439      6100
 3440              	.LASF215:
 3441 0869 726C6973 		.ascii	"rlist\000"
 3441      7400
ARM GAS  /tmp/cczaK23z.s 			page 68


 3442              	.LASF157:
 3443 086f 746D6F64 		.ascii	"tmode_t\000"
 3443      655F7400 
 3444              	.LASF145:
 3445 0877 73745F6D 		.ascii	"st_mtime\000"
 3445      74696D65 
 3445      00
 3446              	.LASF209:
 3447 0880 76745F73 		.ascii	"vt_systime\000"
 3447      79737469 
 3447      6D6500
 3448              	.LASF197:
 3449 088b 725F6F6C 		.ascii	"r_older\000"
 3449      64657200 
 3450              	.LASF224:
 3451 0893 746D5F63 		.ascii	"tm_calibration_t\000"
 3451      616C6962 
 3451      72617469 
 3451      6F6E5F74 
 3451      00
 3452              	.LASF233:
 3453 08a4 735F7175 		.ascii	"s_queue\000"
 3453      65756500 
 3454              	.LASF110:
 3455 08ac 5F6D626C 		.ascii	"_mblen_state\000"
 3455      656E5F73 
 3455      74617465 
 3455      00
 3456              	.LASF5:
 3457 08b9 73686F72 		.ascii	"short int\000"
 3457      7420696E 
 3457      7400
 3458              	.LASF155:
 3459 08c3 75696E74 		.ascii	"uint64_t\000"
 3459      36345F74 
 3459      00
 3460              	.LASF235:
 3461 08cc 63685F6D 		.ascii	"ch_mutex\000"
 3461      75746578 
 3461      00
 3462              	.LASF47:
 3463 08d5 5F666E74 		.ascii	"_fntypes\000"
 3463      79706573 
 3463      00
 3464              	.LASF194:
 3465 08de 725F7072 		.ascii	"r_prio\000"
 3465      696F00
 3466              	.LASF211:
 3467 08e5 63685F73 		.ascii	"ch_system_debug\000"
 3467      79737465 
 3467      6D5F6465 
 3467      62756700 
 3468              	.LASF40:
 3469 08f5 5F5F746D 		.ascii	"__tm_year\000"
 3469      5F796561 
 3469      7200
 3470              	.LASF58:
ARM GAS  /tmp/cczaK23z.s 			page 69


 3471 08ff 5F6C6266 		.ascii	"_lbfsize\000"
 3471      73697A65 
 3471      00
 3472              	.LASF216:
 3473 0908 76746C69 		.ascii	"vtlist\000"
 3473      737400
 3474              	.LASF77:
 3475 090f 5F696E63 		.ascii	"_inc\000"
 3475      00
 3476              	.LASF50:
 3477 0914 5F696E64 		.ascii	"_ind\000"
 3477      00
 3478              	.LASF52:
 3479 0919 5F5F7362 		.ascii	"__sbuf\000"
 3479      756600
 3480              	.LASF242:
 3481 0920 5F6C7365 		.ascii	"_lseek_r\000"
 3481      656B5F72 
 3481      00
 3482              	.LASF48:
 3483 0929 5F69735F 		.ascii	"_is_cxa\000"
 3483      63786100 
 3484              	.LASF239:
 3485 0931 6D757465 		.ascii	"mutex_t\000"
 3485      785F7400 
 3486              	.LASF137:
 3487 0939 73745F6D 		.ascii	"st_mode\000"
 3487      6F646500 
 3488              	.LASF17:
 3489 0941 5F5F7569 		.ascii	"__uid_t\000"
 3489      645F7400 
 3490              	.LASF122:
 3491 0949 5F6E6578 		.ascii	"_nextf\000"
 3491      746600
 3492              	.LASF187:
 3493 0950 74687265 		.ascii	"threads_list_t\000"
 3493      6164735F 
 3493      6C697374 
 3493      5F7400
 3494              	.LASF214:
 3495 095f 63685F73 		.ascii	"ch_system\000"
 3495      79737465 
 3495      6D00
 3496              	.LASF28:
 3497 0969 5F5F554C 		.ascii	"__ULong\000"
 3497      6F6E6700 
 3498              	.LASF154:
 3499 0971 75696E74 		.ascii	"uint32_t\000"
 3499      33325F74 
 3499      00
 3500              	.LASF83:
 3501 097a 5F726573 		.ascii	"_result\000"
 3501      756C7400 
 3502              	.LASF15:
 3503 0982 5F6F6666 		.ascii	"_off_t\000"
 3503      5F7400
 3504              	.LASF225:
ARM GAS  /tmp/cczaK23z.s 			page 70


 3505 0989 7264796D 		.ascii	"rdymsg\000"
 3505      736700
 3506              	.LASF102:
 3507 0990 5F616464 		.ascii	"_add\000"
 3507      00
 3508              	.LASF6:
 3509 0995 73686F72 		.ascii	"short unsigned int\000"
 3509      7420756E 
 3509      7369676E 
 3509      65642069 
 3509      6E7400
 3510              	.LASF37:
 3511 09a8 5F5F746D 		.ascii	"__tm_hour\000"
 3511      5F686F75 
 3511      7200
 3512              	.LASF213:
 3513 09b2 63685F73 		.ascii	"ch_system_t\000"
 3513      79737465 
 3513      6D5F7400 
 3514              	.LASF118:
 3515 09be 5F6D6273 		.ascii	"_mbsrtowcs_state\000"
 3515      72746F77 
 3515      63735F73 
 3515      74617465 
 3515      00
 3516              	.LASF7:
 3517 09cf 5F5F696E 		.ascii	"__int32_t\000"
 3517      7433325F 
 3517      7400
 3518              	.LASF241:
 3519 09d9 5F726561 		.ascii	"_read_r\000"
 3519      645F7200 
 3520              	.LASF136:
 3521 09e1 73745F69 		.ascii	"st_ino\000"
 3521      6E6F00
 3522              	.LASF198:
 3523 09e8 725F6375 		.ascii	"r_current\000"
 3523      7272656E 
 3523      7400
 3524              	.LASF45:
 3525 09f2 5F666E61 		.ascii	"_fnargs\000"
 3525      72677300 
 3526              	.LASF43:
 3527 09fa 5F5F746D 		.ascii	"__tm_isdst\000"
 3527      5F697364 
 3527      737400
 3528              	.LASF174:
 3529 0a05 705F6E61 		.ascii	"p_name\000"
 3529      6D6500
 3530              	.LASF131:
 3531 0a0c 6769645F 		.ascii	"gid_t\000"
 3531      7400
 3532              	.LASF238:
 3533 0a12 6D5F6E65 		.ascii	"m_next\000"
 3533      787400
 3534              	.LASF36:
 3535 0a19 5F5F746D 		.ascii	"__tm_min\000"
ARM GAS  /tmp/cczaK23z.s 			page 71


 3535      5F6D696E 
 3535      00
 3536              	.LASF115:
 3537 0a22 5F676574 		.ascii	"_getdate_err\000"
 3537      64617465 
 3537      5F657272 
 3537      00
 3538              	.LASF229:
 3539 0a2f 77747365 		.ascii	"wtsemp\000"
 3539      6D7000
 3540              	.LASF181:
 3541 0a36 705F6D73 		.ascii	"p_msg\000"
 3541      6700
 3542              	.LASF175:
 3543 0a3c 705F7374 		.ascii	"p_state\000"
 3543      61746500 
 3544              		.ident	"GCC: (GNU Tools for ARM Embedded Processors) 4.8.4 20140526 (release) [ARM/embedded-4_8-br
ARM GAS  /tmp/cczaK23z.s 			page 72


DEFINED SYMBOLS
                            *ABS*:00000000 syscalls.c
     /tmp/cczaK23z.s:18     .text:00000000 $t
     /tmp/cczaK23z.s:24     .text:00000000 _read_r
     /tmp/cczaK23z.s:58     .text:00000020 _lseek_r
     /tmp/cczaK23z.s:87     .text:00000040 _write_r
     /tmp/cczaK23z.s:116    .text:00000060 _open_r
     /tmp/cczaK23z.s:143    .text:00000070 _close_r
     /tmp/cczaK23z.s:170    .text:00000080 _sbrk_r
     /tmp/cczaK23z.s:217    .text:000000b0 _fstat_r
     /tmp/cczaK23z.s:256    .text:000000e0 _isatty_r
                     .debug_frame:00000010 $d

UNDEFINED SYMBOLS
chCoreAlloc
memset
