ARM GAS  /tmp/ccUKQecq.s 			page 1


   1              		.syntax unified
   2              		.cpu cortex-m4
   3              		.fpu softvfp
   4              		.eabi_attribute 20, 1
   5              		.eabi_attribute 21, 1
   6              		.eabi_attribute 23, 3
   7              		.eabi_attribute 24, 1
   8              		.eabi_attribute 25, 1
   9              		.eabi_attribute 26, 1
  10              		.eabi_attribute 30, 6
  11              		.eabi_attribute 34, 1
  12              		.eabi_attribute 18, 4
  13              		.thumb
  14              		.file	"testmtx.c"
  15              		.text
  16              	.Ltext0:
  17              		.cfi_sections	.debug_frame
  18              		.align	2
  19              		.p2align 4,,15
  20              		.thumb
  21              		.thumb_func
  22              		.type	port_lock, %function
  23              	port_lock:
  24              	.LFB127:
  25              		.file 1 "../../ChibiOS/os/rt/ports/ARMCMx/chcore_v7m.h"
  26              		.loc 1 456 0
  27              		.cfi_startproc
  28              		@ args = 0, pretend = 0, frame = 8
  29              		@ frame_needed = 0, uses_anonymous_args = 0
  30              		@ link register save eliminated.
  31 0000 82B0     		sub	sp, sp, #8
  32              		.cfi_def_cfa_offset 8
  33 0002 2023     		movs	r3, #32
  34 0004 0193     		str	r3, [sp, #4]
  35              	.LBB6:
  36              	.LBB7:
  37              		.file 2 "../../ChibiOS/os/ext/CMSIS/include/core_cmFunc.h"
  38              		.loc 2 548 0
  39 0006 019B     		ldr	r3, [sp, #4]
  40              	@ 548 "../../ChibiOS/os/ext/CMSIS/include/core_cmFunc.h" 1
  41 0008 83F31188 		MSR basepri, r3
  42              	@ 0 "" 2
  43              		.thumb
  44              	.LBE7:
  45              	.LBE6:
  46              		.loc 1 473 0
  47 000c 02B0     		add	sp, sp, #8
  48              		@ sp needed
  49 000e 7047     		bx	lr
  50              		.cfi_endproc
  51              	.LFE127:
  52              		.size	port_lock, .-port_lock
  53              		.align	2
  54              		.p2align 4,,15
  55              		.thumb
  56              		.thumb_func
  57              		.type	port_unlock, %function
ARM GAS  /tmp/ccUKQecq.s 			page 2


  58              	port_unlock:
  59              	.LFB128:
  60              		.loc 1 480 0
  61              		.cfi_startproc
  62              		@ args = 0, pretend = 0, frame = 8
  63              		@ frame_needed = 0, uses_anonymous_args = 0
  64              		@ link register save eliminated.
  65 0010 82B0     		sub	sp, sp, #8
  66              		.cfi_def_cfa_offset 8
  67 0012 0023     		movs	r3, #0
  68 0014 0193     		str	r3, [sp, #4]
  69              	.LBB8:
  70              	.LBB9:
  71              		.loc 2 548 0
  72 0016 019B     		ldr	r3, [sp, #4]
  73              	@ 548 "../../ChibiOS/os/ext/CMSIS/include/core_cmFunc.h" 1
  74 0018 83F31188 		MSR basepri, r3
  75              	@ 0 "" 2
  76              		.thumb
  77              	.LBE9:
  78              	.LBE8:
  79              		.loc 1 487 0
  80 001c 02B0     		add	sp, sp, #8
  81              		@ sp needed
  82 001e 7047     		bx	lr
  83              		.cfi_endproc
  84              	.LFE128:
  85              		.size	port_unlock, .-port_unlock
  86              		.align	2
  87              		.p2align 4,,15
  88              		.thumb
  89              		.thumb_func
  90              		.type	queue_isempty, %function
  91              	queue_isempty:
  92              	.LFB140:
  93              		.file 3 "../../ChibiOS/os/rt/include/chschd.h"
  94              		.loc 3 616 0
  95              		.cfi_startproc
  96              		@ args = 0, pretend = 0, frame = 8
  97              		@ frame_needed = 0, uses_anonymous_args = 0
  98              		@ link register save eliminated.
  99 0020 82B0     		sub	sp, sp, #8
 100              		.cfi_def_cfa_offset 8
 101 0022 0190     		str	r0, [sp, #4]
 102              		.loc 3 618 0
 103 0024 019B     		ldr	r3, [sp, #4]
 104 0026 1A68     		ldr	r2, [r3]
 105 0028 019B     		ldr	r3, [sp, #4]
 106 002a 9A42     		cmp	r2, r3
 107 002c 14BF     		ite	ne
 108 002e 0023     		movne	r3, #0
 109 0030 0123     		moveq	r3, #1
 110 0032 DBB2     		uxtb	r3, r3
 111              		.loc 3 619 0
 112 0034 1846     		mov	r0, r3
 113 0036 02B0     		add	sp, sp, #8
 114              		@ sp needed
ARM GAS  /tmp/ccUKQecq.s 			page 3


 115 0038 7047     		bx	lr
 116              		.cfi_endproc
 117              	.LFE140:
 118              		.size	queue_isempty, .-queue_isempty
 119 003a 00BF     		.align	2
 120 003c AFF30080 		.p2align 4,,15
 121              		.thumb
 122              		.thumb_func
 123              		.type	chSysLock, %function
 124              	chSysLock:
 125              	.LFB156:
 126              		.file 4 "../../ChibiOS/os/rt/include/chsys.h"
 127              		.loc 4 346 0
 128              		.cfi_startproc
 129              		@ args = 0, pretend = 0, frame = 0
 130              		@ frame_needed = 0, uses_anonymous_args = 0
 131 0040 08B5     		push	{r3, lr}
 132              		.cfi_def_cfa_offset 8
 133              		.cfi_offset 3, -8
 134              		.cfi_offset 14, -4
 135              		.loc 4 348 0
 136 0042 FFF7DDFF 		bl	port_lock
 137              		.loc 4 351 0
 138 0046 08BD     		pop	{r3, pc}
 139              		.cfi_endproc
 140              	.LFE156:
 141              		.size	chSysLock, .-chSysLock
 142              		.align	2
 143 0048 AFF30080 		.p2align 4,,15
 143      AFF30080 
 144              		.thumb
 145              		.thumb_func
 146              		.type	chSysUnlock, %function
 147              	chSysUnlock:
 148              	.LFB157:
 149              		.loc 4 358 0
 150              		.cfi_startproc
 151              		@ args = 0, pretend = 0, frame = 0
 152              		@ frame_needed = 0, uses_anonymous_args = 0
 153 0050 08B5     		push	{r3, lr}
 154              		.cfi_def_cfa_offset 8
 155              		.cfi_offset 3, -8
 156              		.cfi_offset 14, -4
 157              		.loc 4 371 0
 158 0052 FFF7DDFF 		bl	port_unlock
 159              		.loc 4 372 0
 160 0056 08BD     		pop	{r3, pc}
 161              		.cfi_endproc
 162              	.LFE157:
 163              		.size	chSysUnlock, .-chSysUnlock
 164              		.align	2
 165 0058 AFF30080 		.p2align 4,,15
 165      AFF30080 
 166              		.thumb
 167              		.thumb_func
 168              		.type	chThdGetSelfX, %function
 169              	chThdGetSelfX:
ARM GAS  /tmp/ccUKQecq.s 			page 4


 170              	.LFB178:
 171              		.file 5 "../../ChibiOS/os/rt/include/chthreads.h"
 172              		.loc 5 174 0
 173              		.cfi_startproc
 174              		@ args = 0, pretend = 0, frame = 0
 175              		@ frame_needed = 0, uses_anonymous_args = 0
 176              		@ link register save eliminated.
 177              		.loc 5 176 0
 178 0060 014B     		ldr	r3, .L9
 179 0062 9B69     		ldr	r3, [r3, #24]
 180              		.loc 5 177 0
 181 0064 1846     		mov	r0, r3
 182 0066 7047     		bx	lr
 183              	.L10:
 184              		.align	2
 185              	.L9:
 186 0068 00000000 		.word	ch
 187              		.cfi_endproc
 188              	.LFE178:
 189              		.size	chThdGetSelfX, .-chThdGetSelfX
 190              		.align	2
 191 006c AFF30080 		.p2align 4,,15
 192              		.thumb
 193              		.thumb_func
 194              		.type	chThdGetPriorityX, %function
 195              	chThdGetPriorityX:
 196              	.LFB179:
 197              		.loc 5 187 0
 198              		.cfi_startproc
 199              		@ args = 0, pretend = 0, frame = 0
 200              		@ frame_needed = 0, uses_anonymous_args = 0
 201 0070 08B5     		push	{r3, lr}
 202              		.cfi_def_cfa_offset 8
 203              		.cfi_offset 3, -8
 204              		.cfi_offset 14, -4
 205              		.loc 5 189 0
 206 0072 FFF7F5FF 		bl	chThdGetSelfX
 207 0076 0346     		mov	r3, r0
 208 0078 9B68     		ldr	r3, [r3, #8]
 209              		.loc 5 190 0
 210 007a 1846     		mov	r0, r3
 211 007c 08BD     		pop	{r3, pc}
 212              		.cfi_endproc
 213              	.LFE179:
 214              		.size	chThdGetPriorityX, .-chThdGetPriorityX
 215              		.data
 216              		.align	2
 217              		.type	m1, %object
 218              		.size	m1, 16
 219              	m1:
 220 0000 00000000 		.word	m1
 221 0004 00000000 		.word	m1
 222 0008 00000000 		.word	0
 223 000c 00000000 		.word	0
 224              		.align	2
 225              		.type	m2, %object
 226              		.size	m2, 16
ARM GAS  /tmp/ccUKQecq.s 			page 5


 227              	m2:
 228 0010 10000000 		.word	m2
 229 0014 10000000 		.word	m2
 230 0018 00000000 		.word	0
 231 001c 00000000 		.word	0
 232              		.align	2
 233              		.type	c1, %object
 234              		.size	c1, 8
 235              	c1:
 236 0020 20000000 		.word	c1
 237 0024 20000000 		.word	c1
 238              		.text
 239 007e 00BF     		.align	2
 240              		.p2align 4,,15
 241              		.thumb
 242              		.thumb_func
 243              		.type	mtx1_setup, %function
 244              	mtx1_setup:
 245              	.LFB230:
 246              		.file 6 "../../ChibiOS/test/rt/testmtx.c"
 247              		.loc 6 84 0
 248              		.cfi_startproc
 249              		@ args = 0, pretend = 0, frame = 0
 250              		@ frame_needed = 0, uses_anonymous_args = 0
 251 0080 08B5     		push	{r3, lr}
 252              		.cfi_def_cfa_offset 8
 253              		.cfi_offset 3, -8
 254              		.cfi_offset 14, -4
 255              		.loc 6 86 0
 256 0082 0248     		ldr	r0, .L14
 257 0084 FFF7FEFF 		bl	chMtxObjectInit
 258              		.loc 6 87 0
 259 0088 08BD     		pop	{r3, pc}
 260              	.L15:
 261 008a 00BF     		.align	2
 262              	.L14:
 263 008c 00000000 		.word	m1
 264              		.cfi_endproc
 265              	.LFE230:
 266              		.size	mtx1_setup, .-mtx1_setup
 267              		.align	2
 268              		.p2align 4,,15
 269              		.thumb
 270              		.thumb_func
 271              		.type	thread1, %function
 272              	thread1:
 273              	.LFB231:
 274              		.loc 6 89 0
 275              		.cfi_startproc
 276              		@ args = 0, pretend = 0, frame = 8
 277              		@ frame_needed = 0, uses_anonymous_args = 0
 278 0090 00B5     		push	{lr}
 279              		.cfi_def_cfa_offset 4
 280              		.cfi_offset 14, -4
 281 0092 83B0     		sub	sp, sp, #12
 282              		.cfi_def_cfa_offset 16
 283 0094 0190     		str	r0, [sp, #4]
ARM GAS  /tmp/ccUKQecq.s 			page 6


 284              		.loc 6 91 0
 285 0096 0748     		ldr	r0, .L17
 286 0098 FFF7FEFF 		bl	chMtxLock
 287              		.loc 6 92 0
 288 009c 019B     		ldr	r3, [sp, #4]
 289 009e 1B78     		ldrb	r3, [r3]	@ zero_extendqisi2
 290 00a0 1846     		mov	r0, r3
 291 00a2 FFF7FEFF 		bl	test_emit_token
 292              		.loc 6 93 0
 293 00a6 0348     		ldr	r0, .L17
 294 00a8 FFF7FEFF 		bl	chMtxUnlock
 295              		.loc 6 94 0
 296 00ac 03B0     		add	sp, sp, #12
 297              		@ sp needed
 298 00ae 5DF804FB 		ldr	pc, [sp], #4
 299              	.L18:
 300 00b2 00BF     		.align	2
 301              	.L17:
 302 00b4 00000000 		.word	m1
 303              		.cfi_endproc
 304              	.LFE231:
 305              		.size	thread1, .-thread1
 306              		.section	.rodata
 307              		.align	2
 308              	.LC0:
 309 0000 4500     		.ascii	"E\000"
 310 0002 0000     		.align	2
 311              	.LC1:
 312 0004 4400     		.ascii	"D\000"
 313 0006 0000     		.align	2
 314              	.LC2:
 315 0008 4300     		.ascii	"C\000"
 316 000a 0000     		.align	2
 317              	.LC3:
 318 000c 4200     		.ascii	"B\000"
 319 000e 0000     		.align	2
 320              	.LC4:
 321 0010 4100     		.ascii	"A\000"
 322 0012 0000     		.align	2
 323              	.LC5:
 324 0014 41424344 		.ascii	"ABCDE\000"
 324      4500
 325              		.text
 326              		.align	2
 327 00b8 AFF30080 		.p2align 4,,15
 327      AFF30080 
 328              		.thumb
 329              		.thumb_func
 330              		.type	mtx1_execute, %function
 331              	mtx1_execute:
 332              	.LFB232:
 333              		.loc 6 96 0
 334              		.cfi_startproc
 335              		@ args = 0, pretend = 0, frame = 8
 336              		@ frame_needed = 0, uses_anonymous_args = 0
 337 00c0 00B5     		push	{lr}
 338              		.cfi_def_cfa_offset 4
ARM GAS  /tmp/ccUKQecq.s 			page 7


 339              		.cfi_offset 14, -4
 340 00c2 85B0     		sub	sp, sp, #20
 341              		.cfi_def_cfa_offset 24
 342              		.loc 6 98 0
 343 00c4 FFF7D4FF 		bl	chThdGetPriorityX
 344 00c8 0390     		str	r0, [sp, #12]
 345              		.loc 6 99 0
 346 00ca 3A48     		ldr	r0, .L22
 347 00cc FFF7FEFF 		bl	chMtxLock
 348              		.loc 6 100 0
 349 00d0 394B     		ldr	r3, .L22+4
 350 00d2 1A68     		ldr	r2, [r3]
 351 00d4 039B     		ldr	r3, [sp, #12]
 352 00d6 0133     		adds	r3, r3, #1
 353 00d8 3849     		ldr	r1, .L22+8
 354 00da 0091     		str	r1, [sp]
 355 00dc 1046     		mov	r0, r2
 356 00de 4FF4A471 		mov	r1, #328
 357 00e2 1A46     		mov	r2, r3
 358 00e4 364B     		ldr	r3, .L22+12
 359 00e6 FFF7FEFF 		bl	chThdCreateStatic
 360 00ea 0246     		mov	r2, r0
 361 00ec 354B     		ldr	r3, .L22+16
 362 00ee 1A60     		str	r2, [r3]
 363              		.loc 6 101 0
 364 00f0 314B     		ldr	r3, .L22+4
 365 00f2 5A68     		ldr	r2, [r3, #4]
 366 00f4 039B     		ldr	r3, [sp, #12]
 367 00f6 0233     		adds	r3, r3, #2
 368 00f8 3349     		ldr	r1, .L22+20
 369 00fa 0091     		str	r1, [sp]
 370 00fc 1046     		mov	r0, r2
 371 00fe 4FF4A471 		mov	r1, #328
 372 0102 1A46     		mov	r2, r3
 373 0104 2E4B     		ldr	r3, .L22+12
 374 0106 FFF7FEFF 		bl	chThdCreateStatic
 375 010a 0246     		mov	r2, r0
 376 010c 2D4B     		ldr	r3, .L22+16
 377 010e 5A60     		str	r2, [r3, #4]
 378              		.loc 6 102 0
 379 0110 294B     		ldr	r3, .L22+4
 380 0112 9A68     		ldr	r2, [r3, #8]
 381 0114 039B     		ldr	r3, [sp, #12]
 382 0116 0333     		adds	r3, r3, #3
 383 0118 2C49     		ldr	r1, .L22+24
 384 011a 0091     		str	r1, [sp]
 385 011c 1046     		mov	r0, r2
 386 011e 4FF4A471 		mov	r1, #328
 387 0122 1A46     		mov	r2, r3
 388 0124 264B     		ldr	r3, .L22+12
 389 0126 FFF7FEFF 		bl	chThdCreateStatic
 390 012a 0246     		mov	r2, r0
 391 012c 254B     		ldr	r3, .L22+16
 392 012e 9A60     		str	r2, [r3, #8]
 393              		.loc 6 103 0
 394 0130 214B     		ldr	r3, .L22+4
 395 0132 DA68     		ldr	r2, [r3, #12]
ARM GAS  /tmp/ccUKQecq.s 			page 8


 396 0134 039B     		ldr	r3, [sp, #12]
 397 0136 0433     		adds	r3, r3, #4
 398 0138 2549     		ldr	r1, .L22+28
 399 013a 0091     		str	r1, [sp]
 400 013c 1046     		mov	r0, r2
 401 013e 4FF4A471 		mov	r1, #328
 402 0142 1A46     		mov	r2, r3
 403 0144 1E4B     		ldr	r3, .L22+12
 404 0146 FFF7FEFF 		bl	chThdCreateStatic
 405 014a 0246     		mov	r2, r0
 406 014c 1D4B     		ldr	r3, .L22+16
 407 014e DA60     		str	r2, [r3, #12]
 408              		.loc 6 104 0
 409 0150 194B     		ldr	r3, .L22+4
 410 0152 1A69     		ldr	r2, [r3, #16]
 411 0154 039B     		ldr	r3, [sp, #12]
 412 0156 0533     		adds	r3, r3, #5
 413 0158 1E49     		ldr	r1, .L22+32
 414 015a 0091     		str	r1, [sp]
 415 015c 1046     		mov	r0, r2
 416 015e 4FF4A471 		mov	r1, #328
 417 0162 1A46     		mov	r2, r3
 418 0164 164B     		ldr	r3, .L22+12
 419 0166 FFF7FEFF 		bl	chThdCreateStatic
 420 016a 0246     		mov	r2, r0
 421 016c 154B     		ldr	r3, .L22+16
 422 016e 1A61     		str	r2, [r3, #16]
 423              		.loc 6 105 0
 424 0170 1048     		ldr	r0, .L22
 425 0172 FFF7FEFF 		bl	chMtxUnlock
 426              		.loc 6 106 0
 427 0176 FFF7FEFF 		bl	test_wait_threads
 428              		.loc 6 107 0
 429 017a FFF779FF 		bl	chThdGetPriorityX
 430 017e 0246     		mov	r2, r0
 431 0180 039B     		ldr	r3, [sp, #12]
 432 0182 9A42     		cmp	r2, r3
 433 0184 14BF     		ite	ne
 434 0186 0023     		movne	r3, #0
 435 0188 0123     		moveq	r3, #1
 436 018a DBB2     		uxtb	r3, r3
 437 018c 0120     		movs	r0, #1
 438 018e 1946     		mov	r1, r3
 439 0190 FFF7FEFF 		bl	_test_assert
 440 0194 0346     		mov	r3, r0
 441 0196 002B     		cmp	r3, #0
 442 0198 00D0     		beq	.L20
 443              		.loc 6 107 0 is_stmt 0 discriminator 1
 444 019a 07E0     		b	.L19
 445              	.L20:
 446              		.loc 6 108 0 is_stmt 1
 447 019c 0220     		movs	r0, #2
 448 019e 0E49     		ldr	r1, .L22+36
 449 01a0 FFF7FEFF 		bl	_test_assert_sequence
 450 01a4 0346     		mov	r3, r0
 451 01a6 002B     		cmp	r3, #0
 452 01a8 00D0     		beq	.L19
ARM GAS  /tmp/ccUKQecq.s 			page 9


 453              		.loc 6 108 0 is_stmt 0 discriminator 1
 454 01aa 00BF     		nop
 455              	.L19:
 456              		.loc 6 109 0 is_stmt 1
 457 01ac 05B0     		add	sp, sp, #20
 458              		@ sp needed
 459 01ae 5DF804FB 		ldr	pc, [sp], #4
 460              	.L23:
 461 01b2 00BF     		.align	2
 462              	.L22:
 463 01b4 00000000 		.word	m1
 464 01b8 00000000 		.word	wa
 465 01bc 00000000 		.word	.LC0
 466 01c0 00000000 		.word	thread1
 467 01c4 00000000 		.word	threads
 468 01c8 04000000 		.word	.LC1
 469 01cc 08000000 		.word	.LC2
 470 01d0 0C000000 		.word	.LC3
 471 01d4 10000000 		.word	.LC4
 472 01d8 14000000 		.word	.LC5
 473              		.cfi_endproc
 474              	.LFE232:
 475              		.size	mtx1_execute, .-mtx1_execute
 476              		.global	testmtx1
 477              		.section	.rodata
 478 001a 0000     		.align	2
 479              	.LC6:
 480 001c 4D757465 		.ascii	"Mutexes, priority enqueuing test\000"
 480      7865732C 
 480      20707269 
 480      6F726974 
 480      7920656E 
 481 003d 000000   		.align	2
 482              		.type	testmtx1, %object
 483              		.size	testmtx1, 16
 484              	testmtx1:
 485 0040 1C000000 		.word	.LC6
 486 0044 00000000 		.word	mtx1_setup
 487 0048 00000000 		.word	0
 488 004c 00000000 		.word	mtx1_execute
 489              		.text
 490              		.align	2
 491 01dc AFF30080 		.p2align 4,,15
 492              		.thumb
 493              		.thumb_func
 494              		.type	mtx4_setup, %function
 495              	mtx4_setup:
 496              	.LFB233:
 497              		.loc 6 332 0
 498              		.cfi_startproc
 499              		@ args = 0, pretend = 0, frame = 0
 500              		@ frame_needed = 0, uses_anonymous_args = 0
 501 01e0 08B5     		push	{r3, lr}
 502              		.cfi_def_cfa_offset 8
 503              		.cfi_offset 3, -8
 504              		.cfi_offset 14, -4
 505              		.loc 6 334 0
ARM GAS  /tmp/ccUKQecq.s 			page 10


 506 01e2 0348     		ldr	r0, .L25
 507 01e4 FFF7FEFF 		bl	chMtxObjectInit
 508              		.loc 6 335 0
 509 01e8 0248     		ldr	r0, .L25+4
 510 01ea FFF7FEFF 		bl	chMtxObjectInit
 511              		.loc 6 336 0
 512 01ee 08BD     		pop	{r3, pc}
 513              	.L26:
 514              		.align	2
 515              	.L25:
 516 01f0 00000000 		.word	m1
 517 01f4 10000000 		.word	m2
 518              		.cfi_endproc
 519              	.LFE233:
 520              		.size	mtx4_setup, .-mtx4_setup
 521              		.align	2
 522 01f8 AFF30080 		.p2align 4,,15
 522      AFF30080 
 523              		.thumb
 524              		.thumb_func
 525              		.type	thread4a, %function
 526              	thread4a:
 527              	.LFB234:
 528              		.loc 6 338 0
 529              		.cfi_startproc
 530              		@ args = 0, pretend = 0, frame = 8
 531              		@ frame_needed = 0, uses_anonymous_args = 0
 532 0200 00B5     		push	{lr}
 533              		.cfi_def_cfa_offset 4
 534              		.cfi_offset 14, -4
 535 0202 83B0     		sub	sp, sp, #12
 536              		.cfi_def_cfa_offset 16
 537 0204 0190     		str	r0, [sp, #4]
 538              		.loc 6 341 0
 539 0206 41F28830 		movw	r0, #5000
 540 020a FFF7FEFF 		bl	chThdSleep
 541              		.loc 6 342 0
 542 020e 0448     		ldr	r0, .L28
 543 0210 FFF7FEFF 		bl	chMtxLock
 544              		.loc 6 343 0
 545 0214 0248     		ldr	r0, .L28
 546 0216 FFF7FEFF 		bl	chMtxUnlock
 547              		.loc 6 344 0
 548 021a 03B0     		add	sp, sp, #12
 549              		@ sp needed
 550 021c 5DF804FB 		ldr	pc, [sp], #4
 551              	.L29:
 552              		.align	2
 553              	.L28:
 554 0220 10000000 		.word	m2
 555              		.cfi_endproc
 556              	.LFE234:
 557              		.size	thread4a, .-thread4a
 558              		.align	2
 559 0224 AFF30080 		.p2align 4,,15
 559      AFF30080 
 559      AFF30080 
ARM GAS  /tmp/ccUKQecq.s 			page 11


 560              		.thumb
 561              		.thumb_func
 562              		.type	thread4b, %function
 563              	thread4b:
 564              	.LFB235:
 565              		.loc 6 346 0
 566              		.cfi_startproc
 567              		@ args = 0, pretend = 0, frame = 8
 568              		@ frame_needed = 0, uses_anonymous_args = 0
 569 0230 00B5     		push	{lr}
 570              		.cfi_def_cfa_offset 4
 571              		.cfi_offset 14, -4
 572 0232 83B0     		sub	sp, sp, #12
 573              		.cfi_def_cfa_offset 16
 574 0234 0190     		str	r0, [sp, #4]
 575              		.loc 6 349 0
 576 0236 43F69820 		movw	r0, #15000
 577 023a FFF7FEFF 		bl	chThdSleep
 578              		.loc 6 350 0
 579 023e 0448     		ldr	r0, .L31
 580 0240 FFF7FEFF 		bl	chMtxLock
 581              		.loc 6 351 0
 582 0244 0248     		ldr	r0, .L31
 583 0246 FFF7FEFF 		bl	chMtxUnlock
 584              		.loc 6 352 0
 585 024a 03B0     		add	sp, sp, #12
 586              		@ sp needed
 587 024c 5DF804FB 		ldr	pc, [sp], #4
 588              	.L32:
 589              		.align	2
 590              	.L31:
 591 0250 00000000 		.word	m1
 592              		.cfi_endproc
 593              	.LFE235:
 594              		.size	thread4b, .-thread4b
 595              		.align	2
 596 0254 AFF30080 		.p2align 4,,15
 596      AFF30080 
 596      AFF30080 
 597              		.thumb
 598              		.thumb_func
 599              		.type	mtx4_execute, %function
 600              	mtx4_execute:
 601              	.LFB236:
 602              		.loc 6 354 0
 603              		.cfi_startproc
 604              		@ args = 0, pretend = 0, frame = 16
 605              		@ frame_needed = 0, uses_anonymous_args = 0
 606 0260 00B5     		push	{lr}
 607              		.cfi_def_cfa_offset 4
 608              		.cfi_offset 14, -4
 609 0262 87B0     		sub	sp, sp, #28
 610              		.cfi_def_cfa_offset 32
 611              		.loc 6 357 0
 612 0264 FFF704FF 		bl	chThdGetPriorityX
 613 0268 0590     		str	r0, [sp, #20]
 614              		.loc 6 358 0
ARM GAS  /tmp/ccUKQecq.s 			page 12


 615 026a 059B     		ldr	r3, [sp, #20]
 616 026c 0133     		adds	r3, r3, #1
 617 026e 0493     		str	r3, [sp, #16]
 618              		.loc 6 359 0
 619 0270 059B     		ldr	r3, [sp, #20]
 620 0272 0233     		adds	r3, r3, #2
 621 0274 0393     		str	r3, [sp, #12]
 622              		.loc 6 360 0
 623 0276 A44B     		ldr	r3, .L49
 624 0278 1B68     		ldr	r3, [r3]
 625 027a A44A     		ldr	r2, .L49+4
 626 027c 0092     		str	r2, [sp]
 627 027e 1846     		mov	r0, r3
 628 0280 4FF4A471 		mov	r1, #328
 629 0284 049A     		ldr	r2, [sp, #16]
 630 0286 A24B     		ldr	r3, .L49+8
 631 0288 FFF7FEFF 		bl	chThdCreateStatic
 632 028c 0246     		mov	r2, r0
 633 028e A14B     		ldr	r3, .L49+12
 634 0290 1A60     		str	r2, [r3]
 635              		.loc 6 361 0
 636 0292 9D4B     		ldr	r3, .L49
 637 0294 5B68     		ldr	r3, [r3, #4]
 638 0296 A04A     		ldr	r2, .L49+16
 639 0298 0092     		str	r2, [sp]
 640 029a 1846     		mov	r0, r3
 641 029c 4FF4A471 		mov	r1, #328
 642 02a0 039A     		ldr	r2, [sp, #12]
 643 02a2 9E4B     		ldr	r3, .L49+20
 644 02a4 FFF7FEFF 		bl	chThdCreateStatic
 645 02a8 0246     		mov	r2, r0
 646 02aa 9A4B     		ldr	r3, .L49+12
 647 02ac 5A60     		str	r2, [r3, #4]
 648              		.loc 6 362 0
 649 02ae 9C48     		ldr	r0, .L49+24
 650 02b0 FFF7FEFF 		bl	chMtxLock
 651              		.loc 6 363 0
 652 02b4 FFF7DCFE 		bl	chThdGetPriorityX
 653 02b8 0246     		mov	r2, r0
 654 02ba 059B     		ldr	r3, [sp, #20]
 655 02bc 9A42     		cmp	r2, r3
 656 02be 14BF     		ite	ne
 657 02c0 0023     		movne	r3, #0
 658 02c2 0123     		moveq	r3, #1
 659 02c4 DBB2     		uxtb	r3, r3
 660 02c6 0120     		movs	r0, #1
 661 02c8 1946     		mov	r1, r3
 662 02ca FFF7FEFF 		bl	_test_assert
 663 02ce 0346     		mov	r3, r0
 664 02d0 002B     		cmp	r3, #0
 665 02d2 00D0     		beq	.L34
 666              		.loc 6 363 0 is_stmt 0 discriminator 1
 667 02d4 41E1     		b	.L33
 668              	.L34:
 669              		.loc 6 364 0 is_stmt 1
 670 02d6 42F21070 		movw	r0, #10000
 671 02da FFF7FEFF 		bl	chThdSleep
ARM GAS  /tmp/ccUKQecq.s 			page 13


 672              		.loc 6 365 0
 673 02de FFF7C7FE 		bl	chThdGetPriorityX
 674 02e2 0246     		mov	r2, r0
 675 02e4 049B     		ldr	r3, [sp, #16]
 676 02e6 9A42     		cmp	r2, r3
 677 02e8 14BF     		ite	ne
 678 02ea 0023     		movne	r3, #0
 679 02ec 0123     		moveq	r3, #1
 680 02ee DBB2     		uxtb	r3, r3
 681 02f0 0220     		movs	r0, #2
 682 02f2 1946     		mov	r1, r3
 683 02f4 FFF7FEFF 		bl	_test_assert
 684 02f8 0346     		mov	r3, r0
 685 02fa 002B     		cmp	r3, #0
 686 02fc 00D0     		beq	.L36
 687              		.loc 6 365 0 is_stmt 0 discriminator 1
 688 02fe 2CE1     		b	.L33
 689              	.L36:
 690              		.loc 6 366 0 is_stmt 1
 691 0300 8848     		ldr	r0, .L49+28
 692 0302 FFF7FEFF 		bl	chMtxLock
 693              		.loc 6 367 0
 694 0306 FFF7B3FE 		bl	chThdGetPriorityX
 695 030a 0246     		mov	r2, r0
 696 030c 049B     		ldr	r3, [sp, #16]
 697 030e 9A42     		cmp	r2, r3
 698 0310 14BF     		ite	ne
 699 0312 0023     		movne	r3, #0
 700 0314 0123     		moveq	r3, #1
 701 0316 DBB2     		uxtb	r3, r3
 702 0318 0320     		movs	r0, #3
 703 031a 1946     		mov	r1, r3
 704 031c FFF7FEFF 		bl	_test_assert
 705 0320 0346     		mov	r3, r0
 706 0322 002B     		cmp	r3, #0
 707 0324 00D0     		beq	.L37
 708              		.loc 6 367 0 is_stmt 0 discriminator 1
 709 0326 18E1     		b	.L33
 710              	.L37:
 711              		.loc 6 368 0 is_stmt 1
 712 0328 42F21070 		movw	r0, #10000
 713 032c FFF7FEFF 		bl	chThdSleep
 714              		.loc 6 369 0
 715 0330 FFF79EFE 		bl	chThdGetPriorityX
 716 0334 0246     		mov	r2, r0
 717 0336 039B     		ldr	r3, [sp, #12]
 718 0338 9A42     		cmp	r2, r3
 719 033a 14BF     		ite	ne
 720 033c 0023     		movne	r3, #0
 721 033e 0123     		moveq	r3, #1
 722 0340 DBB2     		uxtb	r3, r3
 723 0342 0420     		movs	r0, #4
 724 0344 1946     		mov	r1, r3
 725 0346 FFF7FEFF 		bl	_test_assert
 726 034a 0346     		mov	r3, r0
 727 034c 002B     		cmp	r3, #0
 728 034e 00D0     		beq	.L38
ARM GAS  /tmp/ccUKQecq.s 			page 14


 729              		.loc 6 369 0 is_stmt 0 discriminator 1
 730 0350 03E1     		b	.L33
 731              	.L38:
 732              		.loc 6 370 0 is_stmt 1
 733 0352 7448     		ldr	r0, .L49+28
 734 0354 FFF7FEFF 		bl	chMtxUnlock
 735              		.loc 6 371 0
 736 0358 FFF78AFE 		bl	chThdGetPriorityX
 737 035c 0246     		mov	r2, r0
 738 035e 049B     		ldr	r3, [sp, #16]
 739 0360 9A42     		cmp	r2, r3
 740 0362 14BF     		ite	ne
 741 0364 0023     		movne	r3, #0
 742 0366 0123     		moveq	r3, #1
 743 0368 DBB2     		uxtb	r3, r3
 744 036a 0520     		movs	r0, #5
 745 036c 1946     		mov	r1, r3
 746 036e FFF7FEFF 		bl	_test_assert
 747 0372 0346     		mov	r3, r0
 748 0374 002B     		cmp	r3, #0
 749 0376 00D0     		beq	.L39
 750              		.loc 6 371 0 is_stmt 0 discriminator 1
 751 0378 EFE0     		b	.L33
 752              	.L39:
 753              		.loc 6 372 0 is_stmt 1
 754 037a 42F21070 		movw	r0, #10000
 755 037e FFF7FEFF 		bl	chThdSleep
 756              		.loc 6 373 0
 757 0382 FFF775FE 		bl	chThdGetPriorityX
 758 0386 0246     		mov	r2, r0
 759 0388 049B     		ldr	r3, [sp, #16]
 760 038a 9A42     		cmp	r2, r3
 761 038c 14BF     		ite	ne
 762 038e 0023     		movne	r3, #0
 763 0390 0123     		moveq	r3, #1
 764 0392 DBB2     		uxtb	r3, r3
 765 0394 0620     		movs	r0, #6
 766 0396 1946     		mov	r1, r3
 767 0398 FFF7FEFF 		bl	_test_assert
 768 039c 0346     		mov	r3, r0
 769 039e 002B     		cmp	r3, #0
 770 03a0 00D0     		beq	.L40
 771              		.loc 6 373 0 is_stmt 0 discriminator 1
 772 03a2 DAE0     		b	.L33
 773              	.L40:
 774              		.loc 6 374 0 is_stmt 1
 775 03a4 FFF7FEFF 		bl	chMtxUnlockAll
 776              		.loc 6 375 0
 777 03a8 FFF762FE 		bl	chThdGetPriorityX
 778 03ac 0246     		mov	r2, r0
 779 03ae 059B     		ldr	r3, [sp, #20]
 780 03b0 9A42     		cmp	r2, r3
 781 03b2 14BF     		ite	ne
 782 03b4 0023     		movne	r3, #0
 783 03b6 0123     		moveq	r3, #1
 784 03b8 DBB2     		uxtb	r3, r3
 785 03ba 0720     		movs	r0, #7
ARM GAS  /tmp/ccUKQecq.s 			page 15


 786 03bc 1946     		mov	r1, r3
 787 03be FFF7FEFF 		bl	_test_assert
 788 03c2 0346     		mov	r3, r0
 789 03c4 002B     		cmp	r3, #0
 790 03c6 00D0     		beq	.L41
 791              		.loc 6 375 0 is_stmt 0 discriminator 1
 792 03c8 C7E0     		b	.L33
 793              	.L41:
 794              		.loc 6 376 0 is_stmt 1
 795 03ca FFF7FEFF 		bl	test_wait_threads
 796              		.loc 6 379 0
 797 03ce 4E4B     		ldr	r3, .L49
 798 03d0 1B68     		ldr	r3, [r3]
 799 03d2 554A     		ldr	r2, .L49+32
 800 03d4 0092     		str	r2, [sp]
 801 03d6 1846     		mov	r0, r3
 802 03d8 4FF4A471 		mov	r1, #328
 803 03dc 049A     		ldr	r2, [sp, #16]
 804 03de 4C4B     		ldr	r3, .L49+8
 805 03e0 FFF7FEFF 		bl	chThdCreateStatic
 806 03e4 0246     		mov	r2, r0
 807 03e6 4B4B     		ldr	r3, .L49+12
 808 03e8 1A60     		str	r2, [r3]
 809              		.loc 6 380 0
 810 03ea 474B     		ldr	r3, .L49
 811 03ec 5B68     		ldr	r3, [r3, #4]
 812 03ee 4F4A     		ldr	r2, .L49+36
 813 03f0 0092     		str	r2, [sp]
 814 03f2 1846     		mov	r0, r3
 815 03f4 4FF4A471 		mov	r1, #328
 816 03f8 039A     		ldr	r2, [sp, #12]
 817 03fa 484B     		ldr	r3, .L49+20
 818 03fc FFF7FEFF 		bl	chThdCreateStatic
 819 0400 0246     		mov	r2, r0
 820 0402 444B     		ldr	r3, .L49+12
 821 0404 5A60     		str	r2, [r3, #4]
 822              		.loc 6 381 0
 823 0406 4648     		ldr	r0, .L49+24
 824 0408 FFF7FEFF 		bl	chMtxLock
 825              		.loc 6 382 0
 826 040c FFF730FE 		bl	chThdGetPriorityX
 827 0410 0246     		mov	r2, r0
 828 0412 059B     		ldr	r3, [sp, #20]
 829 0414 9A42     		cmp	r2, r3
 830 0416 14BF     		ite	ne
 831 0418 0023     		movne	r3, #0
 832 041a 0123     		moveq	r3, #1
 833 041c DBB2     		uxtb	r3, r3
 834 041e 0820     		movs	r0, #8
 835 0420 1946     		mov	r1, r3
 836 0422 FFF7FEFF 		bl	_test_assert
 837 0426 0346     		mov	r3, r0
 838 0428 002B     		cmp	r3, #0
 839 042a 00D0     		beq	.L42
 840              		.loc 6 382 0 is_stmt 0 discriminator 1
 841 042c 95E0     		b	.L33
 842              	.L42:
ARM GAS  /tmp/ccUKQecq.s 			page 16


 843              		.loc 6 383 0 is_stmt 1
 844 042e 42F21070 		movw	r0, #10000
 845 0432 FFF7FEFF 		bl	chThdSleep
 846              		.loc 6 384 0
 847 0436 FFF71BFE 		bl	chThdGetPriorityX
 848 043a 0246     		mov	r2, r0
 849 043c 049B     		ldr	r3, [sp, #16]
 850 043e 9A42     		cmp	r2, r3
 851 0440 14BF     		ite	ne
 852 0442 0023     		movne	r3, #0
 853 0444 0123     		moveq	r3, #1
 854 0446 DBB2     		uxtb	r3, r3
 855 0448 0920     		movs	r0, #9
 856 044a 1946     		mov	r1, r3
 857 044c FFF7FEFF 		bl	_test_assert
 858 0450 0346     		mov	r3, r0
 859 0452 002B     		cmp	r3, #0
 860 0454 00D0     		beq	.L43
 861              		.loc 6 384 0 is_stmt 0 discriminator 1
 862 0456 80E0     		b	.L33
 863              	.L43:
 864              		.loc 6 385 0 is_stmt 1
 865 0458 3248     		ldr	r0, .L49+28
 866 045a FFF7FEFF 		bl	chMtxLock
 867              		.loc 6 386 0
 868 045e FFF707FE 		bl	chThdGetPriorityX
 869 0462 0246     		mov	r2, r0
 870 0464 049B     		ldr	r3, [sp, #16]
 871 0466 9A42     		cmp	r2, r3
 872 0468 14BF     		ite	ne
 873 046a 0023     		movne	r3, #0
 874 046c 0123     		moveq	r3, #1
 875 046e DBB2     		uxtb	r3, r3
 876 0470 0A20     		movs	r0, #10
 877 0472 1946     		mov	r1, r3
 878 0474 FFF7FEFF 		bl	_test_assert
 879 0478 0346     		mov	r3, r0
 880 047a 002B     		cmp	r3, #0
 881 047c 00D0     		beq	.L44
 882              		.loc 6 386 0 is_stmt 0 discriminator 1
 883 047e 6CE0     		b	.L33
 884              	.L44:
 885              		.loc 6 387 0 is_stmt 1
 886 0480 42F21070 		movw	r0, #10000
 887 0484 FFF7FEFF 		bl	chThdSleep
 888              		.loc 6 388 0
 889 0488 FFF7F2FD 		bl	chThdGetPriorityX
 890 048c 0246     		mov	r2, r0
 891 048e 039B     		ldr	r3, [sp, #12]
 892 0490 9A42     		cmp	r2, r3
 893 0492 14BF     		ite	ne
 894 0494 0023     		movne	r3, #0
 895 0496 0123     		moveq	r3, #1
 896 0498 DBB2     		uxtb	r3, r3
 897 049a 0B20     		movs	r0, #11
 898 049c 1946     		mov	r1, r3
 899 049e FFF7FEFF 		bl	_test_assert
ARM GAS  /tmp/ccUKQecq.s 			page 17


 900 04a2 0346     		mov	r3, r0
 901 04a4 002B     		cmp	r3, #0
 902 04a6 00D0     		beq	.L45
 903              		.loc 6 388 0 is_stmt 0 discriminator 1
 904 04a8 57E0     		b	.L33
 905              	.L45:
 906              		.loc 6 389 0 is_stmt 1
 907 04aa FFF7C9FD 		bl	chSysLock
 908              		.loc 6 390 0
 909 04ae 1D48     		ldr	r0, .L49+28
 910 04b0 FFF7FEFF 		bl	chMtxUnlockS
 911              		.loc 6 391 0
 912 04b4 FFF7FEFF 		bl	chSchRescheduleS
 913              		.loc 6 392 0
 914 04b8 FFF7CAFD 		bl	chSysUnlock
 915              		.loc 6 393 0
 916 04bc FFF7D8FD 		bl	chThdGetPriorityX
 917 04c0 0246     		mov	r2, r0
 918 04c2 049B     		ldr	r3, [sp, #16]
 919 04c4 9A42     		cmp	r2, r3
 920 04c6 14BF     		ite	ne
 921 04c8 0023     		movne	r3, #0
 922 04ca 0123     		moveq	r3, #1
 923 04cc DBB2     		uxtb	r3, r3
 924 04ce 0C20     		movs	r0, #12
 925 04d0 1946     		mov	r1, r3
 926 04d2 FFF7FEFF 		bl	_test_assert
 927 04d6 0346     		mov	r3, r0
 928 04d8 002B     		cmp	r3, #0
 929 04da 00D0     		beq	.L46
 930              		.loc 6 393 0 is_stmt 0 discriminator 1
 931 04dc 3DE0     		b	.L33
 932              	.L46:
 933              		.loc 6 394 0 is_stmt 1
 934 04de 42F21070 		movw	r0, #10000
 935 04e2 FFF7FEFF 		bl	chThdSleep
 936              		.loc 6 395 0
 937 04e6 FFF7C3FD 		bl	chThdGetPriorityX
 938 04ea 0246     		mov	r2, r0
 939 04ec 049B     		ldr	r3, [sp, #16]
 940 04ee 9A42     		cmp	r2, r3
 941 04f0 14BF     		ite	ne
 942 04f2 0023     		movne	r3, #0
 943 04f4 0123     		moveq	r3, #1
 944 04f6 DBB2     		uxtb	r3, r3
 945 04f8 0D20     		movs	r0, #13
 946 04fa 1946     		mov	r1, r3
 947 04fc FFF7FEFF 		bl	_test_assert
 948 0500 0346     		mov	r3, r0
 949 0502 002B     		cmp	r3, #0
 950 0504 14D0     		beq	.L47
 951              		.loc 6 395 0 is_stmt 0 discriminator 1
 952 0506 28E0     		b	.L33
 953              	.L50:
 954              		.align	2
 955              	.L49:
 956 0508 00000000 		.word	wa
ARM GAS  /tmp/ccUKQecq.s 			page 18


 957 050c 0C000000 		.word	.LC3
 958 0510 00000000 		.word	thread4a
 959 0514 00000000 		.word	threads
 960 0518 10000000 		.word	.LC4
 961 051c 00000000 		.word	thread4b
 962 0520 10000000 		.word	m2
 963 0524 00000000 		.word	m1
 964 0528 04000000 		.word	.LC1
 965 052c 08000000 		.word	.LC2
 966              	.L47:
 967              		.loc 6 396 0 is_stmt 1
 968 0530 FFF7FEFF 		bl	chMtxUnlockAll
 969              		.loc 6 397 0
 970 0534 FFF79CFD 		bl	chThdGetPriorityX
 971 0538 0246     		mov	r2, r0
 972 053a 059B     		ldr	r3, [sp, #20]
 973 053c 9A42     		cmp	r2, r3
 974 053e 14BF     		ite	ne
 975 0540 0023     		movne	r3, #0
 976 0542 0123     		moveq	r3, #1
 977 0544 DBB2     		uxtb	r3, r3
 978 0546 0E20     		movs	r0, #14
 979 0548 1946     		mov	r1, r3
 980 054a FFF7FEFF 		bl	_test_assert
 981 054e 0346     		mov	r3, r0
 982 0550 002B     		cmp	r3, #0
 983 0552 00D0     		beq	.L48
 984              		.loc 6 397 0 is_stmt 0 discriminator 1
 985 0554 01E0     		b	.L33
 986              	.L48:
 987              		.loc 6 398 0 is_stmt 1
 988 0556 FFF7FEFF 		bl	test_wait_threads
 989              	.L33:
 990              		.loc 6 399 0
 991 055a 07B0     		add	sp, sp, #28
 992              		@ sp needed
 993 055c 5DF804FB 		ldr	pc, [sp], #4
 994              		.cfi_endproc
 995              	.LFE236:
 996              		.size	mtx4_execute, .-mtx4_execute
 997              		.global	testmtx4
 998              		.section	.rodata
 999              		.align	2
 1000              	.LC7:
 1001 0050 4D757465 		.ascii	"Mutexes, priority return\000"
 1001      7865732C 
 1001      20707269 
 1001      6F726974 
 1001      79207265 
 1002 0069 000000   		.align	2
 1003              		.type	testmtx4, %object
 1004              		.size	testmtx4, 16
 1005              	testmtx4:
 1006 006c 50000000 		.word	.LC7
 1007 0070 00000000 		.word	mtx4_setup
 1008 0074 00000000 		.word	0
 1009 0078 00000000 		.word	mtx4_execute
ARM GAS  /tmp/ccUKQecq.s 			page 19


 1010              		.text
 1011              		.align	2
 1012              		.p2align 4,,15
 1013              		.thumb
 1014              		.thumb_func
 1015              		.type	mtx5_setup, %function
 1016              	mtx5_setup:
 1017              	.LFB237:
 1018              		.loc 6 418 0
 1019              		.cfi_startproc
 1020              		@ args = 0, pretend = 0, frame = 0
 1021              		@ frame_needed = 0, uses_anonymous_args = 0
 1022 0560 08B5     		push	{r3, lr}
 1023              		.cfi_def_cfa_offset 8
 1024              		.cfi_offset 3, -8
 1025              		.cfi_offset 14, -4
 1026              		.loc 6 420 0
 1027 0562 0248     		ldr	r0, .L52
 1028 0564 FFF7FEFF 		bl	chMtxObjectInit
 1029              		.loc 6 421 0
 1030 0568 08BD     		pop	{r3, pc}
 1031              	.L53:
 1032 056a 00BF     		.align	2
 1033              	.L52:
 1034 056c 00000000 		.word	m1
 1035              		.cfi_endproc
 1036              	.LFE237:
 1037              		.size	mtx5_setup, .-mtx5_setup
 1038              		.align	2
 1039              		.p2align 4,,15
 1040              		.thumb
 1041              		.thumb_func
 1042              		.type	mtx5_execute, %function
 1043              	mtx5_execute:
 1044              	.LFB238:
 1045              		.loc 6 423 0
 1046              		.cfi_startproc
 1047              		@ args = 0, pretend = 0, frame = 8
 1048              		@ frame_needed = 0, uses_anonymous_args = 0
 1049 0570 00B5     		push	{lr}
 1050              		.cfi_def_cfa_offset 4
 1051              		.cfi_offset 14, -4
 1052 0572 83B0     		sub	sp, sp, #12
 1053              		.cfi_def_cfa_offset 16
 1054              		.loc 6 427 0
 1055 0574 FFF77CFD 		bl	chThdGetPriorityX
 1056 0578 0190     		str	r0, [sp, #4]
 1057              		.loc 6 429 0
 1058 057a 4048     		ldr	r0, .L62
 1059 057c FFF7FEFF 		bl	chMtxTryLock
 1060 0580 0346     		mov	r3, r0
 1061 0582 8DF80330 		strb	r3, [sp, #3]
 1062              		.loc 6 430 0
 1063 0586 9DF80330 		ldrb	r3, [sp, #3]	@ zero_extendqisi2
 1064 058a 0120     		movs	r0, #1
 1065 058c 1946     		mov	r1, r3
 1066 058e FFF7FEFF 		bl	_test_assert
ARM GAS  /tmp/ccUKQecq.s 			page 20


 1067 0592 0346     		mov	r3, r0
 1068 0594 002B     		cmp	r3, #0
 1069 0596 00D0     		beq	.L55
 1070              		.loc 6 430 0 is_stmt 0 discriminator 1
 1071 0598 6DE0     		b	.L54
 1072              	.L55:
 1073              		.loc 6 432 0 is_stmt 1
 1074 059a 3848     		ldr	r0, .L62
 1075 059c FFF7FEFF 		bl	chMtxTryLock
 1076 05a0 0346     		mov	r3, r0
 1077 05a2 8DF80330 		strb	r3, [sp, #3]
 1078              		.loc 6 433 0
 1079 05a6 9DF80330 		ldrb	r3, [sp, #3]	@ zero_extendqisi2
 1080 05aa 002B     		cmp	r3, #0
 1081 05ac 0CBF     		ite	eq
 1082 05ae 0023     		moveq	r3, #0
 1083 05b0 0123     		movne	r3, #1
 1084 05b2 DBB2     		uxtb	r3, r3
 1085 05b4 83F00103 		eor	r3, r3, #1
 1086 05b8 DBB2     		uxtb	r3, r3
 1087 05ba 03F00103 		and	r3, r3, #1
 1088 05be DBB2     		uxtb	r3, r3
 1089 05c0 0220     		movs	r0, #2
 1090 05c2 1946     		mov	r1, r3
 1091 05c4 FFF7FEFF 		bl	_test_assert
 1092 05c8 0346     		mov	r3, r0
 1093 05ca 002B     		cmp	r3, #0
 1094 05cc 00D0     		beq	.L57
 1095              		.loc 6 433 0 is_stmt 0 discriminator 1
 1096 05ce 52E0     		b	.L54
 1097              	.L57:
 1098              		.loc 6 435 0 is_stmt 1
 1099 05d0 FFF736FD 		bl	chSysLock
 1100              		.loc 6 436 0
 1101 05d4 2948     		ldr	r0, .L62
 1102 05d6 FFF7FEFF 		bl	chMtxUnlockS
 1103              		.loc 6 437 0
 1104 05da FFF739FD 		bl	chSysUnlock
 1105              		.loc 6 439 0
 1106 05de 2748     		ldr	r0, .L62
 1107 05e0 FFF71EFD 		bl	queue_isempty
 1108 05e4 0346     		mov	r3, r0
 1109 05e6 0320     		movs	r0, #3
 1110 05e8 1946     		mov	r1, r3
 1111 05ea FFF7FEFF 		bl	_test_assert
 1112 05ee 0346     		mov	r3, r0
 1113 05f0 002B     		cmp	r3, #0
 1114 05f2 00D0     		beq	.L58
 1115              		.loc 6 439 0 is_stmt 0 discriminator 1
 1116 05f4 3FE0     		b	.L54
 1117              	.L58:
 1118              		.loc 6 440 0 is_stmt 1
 1119 05f6 214B     		ldr	r3, .L62
 1120 05f8 9B68     		ldr	r3, [r3, #8]
 1121 05fa 002B     		cmp	r3, #0
 1122 05fc 14BF     		ite	ne
 1123 05fe 0023     		movne	r3, #0
ARM GAS  /tmp/ccUKQecq.s 			page 21


 1124 0600 0123     		moveq	r3, #1
 1125 0602 DBB2     		uxtb	r3, r3
 1126 0604 0420     		movs	r0, #4
 1127 0606 1946     		mov	r1, r3
 1128 0608 FFF7FEFF 		bl	_test_assert
 1129 060c 0346     		mov	r3, r0
 1130 060e 002B     		cmp	r3, #0
 1131 0610 00D0     		beq	.L59
 1132              		.loc 6 440 0 is_stmt 0 discriminator 1
 1133 0612 30E0     		b	.L54
 1134              	.L59:
 1135              		.loc 6 441 0 is_stmt 1
 1136 0614 FFF72CFD 		bl	chThdGetPriorityX
 1137 0618 0246     		mov	r2, r0
 1138 061a 019B     		ldr	r3, [sp, #4]
 1139 061c 9A42     		cmp	r2, r3
 1140 061e 14BF     		ite	ne
 1141 0620 0023     		movne	r3, #0
 1142 0622 0123     		moveq	r3, #1
 1143 0624 DBB2     		uxtb	r3, r3
 1144 0626 0520     		movs	r0, #5
 1145 0628 1946     		mov	r1, r3
 1146 062a FFF7FEFF 		bl	_test_assert
 1147 062e 0346     		mov	r3, r0
 1148 0630 002B     		cmp	r3, #0
 1149 0632 00D0     		beq	.L60
 1150              		.loc 6 441 0 is_stmt 0 discriminator 1
 1151 0634 1FE0     		b	.L54
 1152              	.L60:
 1153              		.loc 6 444 0 is_stmt 1
 1154 0636 1148     		ldr	r0, .L62
 1155 0638 FFF7FEFF 		bl	chMtxLock
 1156              		.loc 6 445 0
 1157 063c FFF7FEFF 		bl	chMtxUnlockAll
 1158              		.loc 6 446 0
 1159 0640 0E48     		ldr	r0, .L62
 1160 0642 FFF7EDFC 		bl	queue_isempty
 1161 0646 0346     		mov	r3, r0
 1162 0648 0620     		movs	r0, #6
 1163 064a 1946     		mov	r1, r3
 1164 064c FFF7FEFF 		bl	_test_assert
 1165 0650 0346     		mov	r3, r0
 1166 0652 002B     		cmp	r3, #0
 1167 0654 00D0     		beq	.L61
 1168              		.loc 6 446 0 is_stmt 0 discriminator 1
 1169 0656 0EE0     		b	.L54
 1170              	.L61:
 1171              		.loc 6 447 0 is_stmt 1
 1172 0658 084B     		ldr	r3, .L62
 1173 065a 9B68     		ldr	r3, [r3, #8]
 1174 065c 002B     		cmp	r3, #0
 1175 065e 14BF     		ite	ne
 1176 0660 0023     		movne	r3, #0
 1177 0662 0123     		moveq	r3, #1
 1178 0664 DBB2     		uxtb	r3, r3
 1179 0666 0720     		movs	r0, #7
 1180 0668 1946     		mov	r1, r3
ARM GAS  /tmp/ccUKQecq.s 			page 22


 1181 066a FFF7FEFF 		bl	_test_assert
 1182 066e 0346     		mov	r3, r0
 1183 0670 002B     		cmp	r3, #0
 1184 0672 00D0     		beq	.L54
 1185              		.loc 6 447 0 is_stmt 0 discriminator 1
 1186 0674 00BF     		nop
 1187              	.L54:
 1188              		.loc 6 448 0 is_stmt 1
 1189 0676 03B0     		add	sp, sp, #12
 1190              		@ sp needed
 1191 0678 5DF804FB 		ldr	pc, [sp], #4
 1192              	.L63:
 1193              		.align	2
 1194              	.L62:
 1195 067c 00000000 		.word	m1
 1196              		.cfi_endproc
 1197              	.LFE238:
 1198              		.size	mtx5_execute, .-mtx5_execute
 1199              		.global	testmtx5
 1200              		.section	.rodata
 1201              		.align	2
 1202              	.LC8:
 1203 007c 4D757465 		.ascii	"Mutexes, status\000"
 1203      7865732C 
 1203      20737461 
 1203      74757300 
 1204              		.align	2
 1205              		.type	testmtx5, %object
 1206              		.size	testmtx5, 16
 1207              	testmtx5:
 1208 008c 7C000000 		.word	.LC8
 1209 0090 00000000 		.word	mtx5_setup
 1210 0094 00000000 		.word	0
 1211 0098 00000000 		.word	mtx5_execute
 1212              		.text
 1213              		.align	2
 1214              		.p2align 4,,15
 1215              		.thumb
 1216              		.thumb_func
 1217              		.type	mtx6_setup, %function
 1218              	mtx6_setup:
 1219              	.LFB239:
 1220              		.loc 6 469 0
 1221              		.cfi_startproc
 1222              		@ args = 0, pretend = 0, frame = 0
 1223              		@ frame_needed = 0, uses_anonymous_args = 0
 1224 0680 08B5     		push	{r3, lr}
 1225              		.cfi_def_cfa_offset 8
 1226              		.cfi_offset 3, -8
 1227              		.cfi_offset 14, -4
 1228              		.loc 6 471 0
 1229 0682 0348     		ldr	r0, .L65
 1230 0684 FFF7FEFF 		bl	chCondObjectInit
 1231              		.loc 6 472 0
 1232 0688 0248     		ldr	r0, .L65+4
 1233 068a FFF7FEFF 		bl	chMtxObjectInit
 1234              		.loc 6 473 0
ARM GAS  /tmp/ccUKQecq.s 			page 23


 1235 068e 08BD     		pop	{r3, pc}
 1236              	.L66:
 1237              		.align	2
 1238              	.L65:
 1239 0690 20000000 		.word	c1
 1240 0694 00000000 		.word	m1
 1241              		.cfi_endproc
 1242              	.LFE239:
 1243              		.size	mtx6_setup, .-mtx6_setup
 1244              		.align	2
 1245 0698 AFF30080 		.p2align 4,,15
 1245      AFF30080 
 1246              		.thumb
 1247              		.thumb_func
 1248              		.type	thread10, %function
 1249              	thread10:
 1250              	.LFB240:
 1251              		.loc 6 475 0
 1252              		.cfi_startproc
 1253              		@ args = 0, pretend = 0, frame = 8
 1254              		@ frame_needed = 0, uses_anonymous_args = 0
 1255 06a0 00B5     		push	{lr}
 1256              		.cfi_def_cfa_offset 4
 1257              		.cfi_offset 14, -4
 1258 06a2 83B0     		sub	sp, sp, #12
 1259              		.cfi_def_cfa_offset 16
 1260 06a4 0190     		str	r0, [sp, #4]
 1261              		.loc 6 477 0
 1262 06a6 0848     		ldr	r0, .L68
 1263 06a8 FFF7FEFF 		bl	chMtxLock
 1264              		.loc 6 478 0
 1265 06ac 0748     		ldr	r0, .L68+4
 1266 06ae FFF7FEFF 		bl	chCondWait
 1267              		.loc 6 479 0
 1268 06b2 019B     		ldr	r3, [sp, #4]
 1269 06b4 1B78     		ldrb	r3, [r3]	@ zero_extendqisi2
 1270 06b6 1846     		mov	r0, r3
 1271 06b8 FFF7FEFF 		bl	test_emit_token
 1272              		.loc 6 480 0
 1273 06bc 0248     		ldr	r0, .L68
 1274 06be FFF7FEFF 		bl	chMtxUnlock
 1275              		.loc 6 481 0
 1276 06c2 03B0     		add	sp, sp, #12
 1277              		@ sp needed
 1278 06c4 5DF804FB 		ldr	pc, [sp], #4
 1279              	.L69:
 1280              		.align	2
 1281              	.L68:
 1282 06c8 00000000 		.word	m1
 1283 06cc 20000000 		.word	c1
 1284              		.cfi_endproc
 1285              	.LFE240:
 1286              		.size	thread10, .-thread10
 1287              		.align	2
 1288              		.p2align 4,,15
 1289              		.thumb
 1290              		.thumb_func
ARM GAS  /tmp/ccUKQecq.s 			page 24


 1291              		.type	mtx6_execute, %function
 1292              	mtx6_execute:
 1293              	.LFB241:
 1294              		.loc 6 483 0
 1295              		.cfi_startproc
 1296              		@ args = 0, pretend = 0, frame = 8
 1297              		@ frame_needed = 0, uses_anonymous_args = 0
 1298 06d0 00B5     		push	{lr}
 1299              		.cfi_def_cfa_offset 4
 1300              		.cfi_offset 14, -4
 1301 06d2 85B0     		sub	sp, sp, #20
 1302              		.cfi_def_cfa_offset 24
 1303              		.loc 6 485 0
 1304 06d4 FFF7CCFC 		bl	chThdGetPriorityX
 1305 06d8 0390     		str	r0, [sp, #12]
 1306              		.loc 6 486 0
 1307 06da 394B     		ldr	r3, .L72
 1308 06dc 1A68     		ldr	r2, [r3]
 1309 06de 039B     		ldr	r3, [sp, #12]
 1310 06e0 0133     		adds	r3, r3, #1
 1311 06e2 3849     		ldr	r1, .L72+4
 1312 06e4 0091     		str	r1, [sp]
 1313 06e6 1046     		mov	r0, r2
 1314 06e8 4FF4A471 		mov	r1, #328
 1315 06ec 1A46     		mov	r2, r3
 1316 06ee 364B     		ldr	r3, .L72+8
 1317 06f0 FFF7FEFF 		bl	chThdCreateStatic
 1318 06f4 0246     		mov	r2, r0
 1319 06f6 354B     		ldr	r3, .L72+12
 1320 06f8 1A60     		str	r2, [r3]
 1321              		.loc 6 487 0
 1322 06fa 314B     		ldr	r3, .L72
 1323 06fc 5A68     		ldr	r2, [r3, #4]
 1324 06fe 039B     		ldr	r3, [sp, #12]
 1325 0700 0233     		adds	r3, r3, #2
 1326 0702 3349     		ldr	r1, .L72+16
 1327 0704 0091     		str	r1, [sp]
 1328 0706 1046     		mov	r0, r2
 1329 0708 4FF4A471 		mov	r1, #328
 1330 070c 1A46     		mov	r2, r3
 1331 070e 2E4B     		ldr	r3, .L72+8
 1332 0710 FFF7FEFF 		bl	chThdCreateStatic
 1333 0714 0246     		mov	r2, r0
 1334 0716 2D4B     		ldr	r3, .L72+12
 1335 0718 5A60     		str	r2, [r3, #4]
 1336              		.loc 6 488 0
 1337 071a 294B     		ldr	r3, .L72
 1338 071c 9A68     		ldr	r2, [r3, #8]
 1339 071e 039B     		ldr	r3, [sp, #12]
 1340 0720 0333     		adds	r3, r3, #3
 1341 0722 2C49     		ldr	r1, .L72+20
 1342 0724 0091     		str	r1, [sp]
 1343 0726 1046     		mov	r0, r2
 1344 0728 4FF4A471 		mov	r1, #328
 1345 072c 1A46     		mov	r2, r3
 1346 072e 264B     		ldr	r3, .L72+8
 1347 0730 FFF7FEFF 		bl	chThdCreateStatic
ARM GAS  /tmp/ccUKQecq.s 			page 25


 1348 0734 0246     		mov	r2, r0
 1349 0736 254B     		ldr	r3, .L72+12
 1350 0738 9A60     		str	r2, [r3, #8]
 1351              		.loc 6 489 0
 1352 073a 214B     		ldr	r3, .L72
 1353 073c DA68     		ldr	r2, [r3, #12]
 1354 073e 039B     		ldr	r3, [sp, #12]
 1355 0740 0433     		adds	r3, r3, #4
 1356 0742 2549     		ldr	r1, .L72+24
 1357 0744 0091     		str	r1, [sp]
 1358 0746 1046     		mov	r0, r2
 1359 0748 4FF4A471 		mov	r1, #328
 1360 074c 1A46     		mov	r2, r3
 1361 074e 1E4B     		ldr	r3, .L72+8
 1362 0750 FFF7FEFF 		bl	chThdCreateStatic
 1363 0754 0246     		mov	r2, r0
 1364 0756 1D4B     		ldr	r3, .L72+12
 1365 0758 DA60     		str	r2, [r3, #12]
 1366              		.loc 6 490 0
 1367 075a 194B     		ldr	r3, .L72
 1368 075c 1A69     		ldr	r2, [r3, #16]
 1369 075e 039B     		ldr	r3, [sp, #12]
 1370 0760 0533     		adds	r3, r3, #5
 1371 0762 1E49     		ldr	r1, .L72+28
 1372 0764 0091     		str	r1, [sp]
 1373 0766 1046     		mov	r0, r2
 1374 0768 4FF4A471 		mov	r1, #328
 1375 076c 1A46     		mov	r2, r3
 1376 076e 164B     		ldr	r3, .L72+8
 1377 0770 FFF7FEFF 		bl	chThdCreateStatic
 1378 0774 0246     		mov	r2, r0
 1379 0776 154B     		ldr	r3, .L72+12
 1380 0778 1A61     		str	r2, [r3, #16]
 1381              		.loc 6 491 0
 1382 077a FFF761FC 		bl	chSysLock
 1383              		.loc 6 492 0
 1384 077e 1848     		ldr	r0, .L72+32
 1385 0780 FFF7FEFF 		bl	chCondSignalI
 1386              		.loc 6 493 0
 1387 0784 1648     		ldr	r0, .L72+32
 1388 0786 FFF7FEFF 		bl	chCondSignalI
 1389              		.loc 6 494 0
 1390 078a 1548     		ldr	r0, .L72+32
 1391 078c FFF7FEFF 		bl	chCondSignalI
 1392              		.loc 6 495 0
 1393 0790 1348     		ldr	r0, .L72+32
 1394 0792 FFF7FEFF 		bl	chCondSignalI
 1395              		.loc 6 496 0
 1396 0796 1248     		ldr	r0, .L72+32
 1397 0798 FFF7FEFF 		bl	chCondSignalI
 1398              		.loc 6 497 0
 1399 079c FFF7FEFF 		bl	chSchRescheduleS
 1400              		.loc 6 498 0
 1401 07a0 FFF756FC 		bl	chSysUnlock
 1402              		.loc 6 499 0
 1403 07a4 FFF7FEFF 		bl	test_wait_threads
 1404              		.loc 6 500 0
ARM GAS  /tmp/ccUKQecq.s 			page 26


 1405 07a8 0120     		movs	r0, #1
 1406 07aa 0E49     		ldr	r1, .L72+36
 1407 07ac FFF7FEFF 		bl	_test_assert_sequence
 1408 07b0 0346     		mov	r3, r0
 1409 07b2 002B     		cmp	r3, #0
 1410 07b4 00D0     		beq	.L70
 1411              		.loc 6 500 0 is_stmt 0 discriminator 1
 1412 07b6 00BF     		nop
 1413              	.L70:
 1414              		.loc 6 501 0 is_stmt 1
 1415 07b8 05B0     		add	sp, sp, #20
 1416              		@ sp needed
 1417 07ba 5DF804FB 		ldr	pc, [sp], #4
 1418              	.L73:
 1419 07be 00BF     		.align	2
 1420              	.L72:
 1421 07c0 00000000 		.word	wa
 1422 07c4 00000000 		.word	.LC0
 1423 07c8 00000000 		.word	thread10
 1424 07cc 00000000 		.word	threads
 1425 07d0 04000000 		.word	.LC1
 1426 07d4 08000000 		.word	.LC2
 1427 07d8 0C000000 		.word	.LC3
 1428 07dc 10000000 		.word	.LC4
 1429 07e0 20000000 		.word	c1
 1430 07e4 14000000 		.word	.LC5
 1431              		.cfi_endproc
 1432              	.LFE241:
 1433              		.size	mtx6_execute, .-mtx6_execute
 1434              		.global	testmtx6
 1435              		.section	.rodata
 1436              		.align	2
 1437              	.LC9:
 1438 009c 436F6E64 		.ascii	"CondVar, signal test\000"
 1438      5661722C 
 1438      20736967 
 1438      6E616C20 
 1438      74657374 
 1439 00b1 000000   		.align	2
 1440              		.type	testmtx6, %object
 1441              		.size	testmtx6, 16
 1442              	testmtx6:
 1443 00b4 9C000000 		.word	.LC9
 1444 00b8 00000000 		.word	mtx6_setup
 1445 00bc 00000000 		.word	0
 1446 00c0 00000000 		.word	mtx6_execute
 1447              		.text
 1448              		.align	2
 1449 07e8 AFF30080 		.p2align 4,,15
 1449      AFF30080 
 1450              		.thumb
 1451              		.thumb_func
 1452              		.type	mtx7_setup, %function
 1453              	mtx7_setup:
 1454              	.LFB242:
 1455              		.loc 6 520 0
 1456              		.cfi_startproc
ARM GAS  /tmp/ccUKQecq.s 			page 27


 1457              		@ args = 0, pretend = 0, frame = 0
 1458              		@ frame_needed = 0, uses_anonymous_args = 0
 1459 07f0 08B5     		push	{r3, lr}
 1460              		.cfi_def_cfa_offset 8
 1461              		.cfi_offset 3, -8
 1462              		.cfi_offset 14, -4
 1463              		.loc 6 522 0
 1464 07f2 0348     		ldr	r0, .L75
 1465 07f4 FFF7FEFF 		bl	chCondObjectInit
 1466              		.loc 6 523 0
 1467 07f8 0248     		ldr	r0, .L75+4
 1468 07fa FFF7FEFF 		bl	chMtxObjectInit
 1469              		.loc 6 524 0
 1470 07fe 08BD     		pop	{r3, pc}
 1471              	.L76:
 1472              		.align	2
 1473              	.L75:
 1474 0800 20000000 		.word	c1
 1475 0804 00000000 		.word	m1
 1476              		.cfi_endproc
 1477              	.LFE242:
 1478              		.size	mtx7_setup, .-mtx7_setup
 1479              		.align	2
 1480 0808 AFF30080 		.p2align 4,,15
 1480      AFF30080 
 1481              		.thumb
 1482              		.thumb_func
 1483              		.type	mtx7_execute, %function
 1484              	mtx7_execute:
 1485              	.LFB243:
 1486              		.loc 6 526 0
 1487              		.cfi_startproc
 1488              		@ args = 0, pretend = 0, frame = 8
 1489              		@ frame_needed = 0, uses_anonymous_args = 0
 1490 0810 00B5     		push	{lr}
 1491              		.cfi_def_cfa_offset 4
 1492              		.cfi_offset 14, -4
 1493 0812 85B0     		sub	sp, sp, #20
 1494              		.cfi_def_cfa_offset 24
 1495              		.loc 6 528 0
 1496 0814 FFF72CFC 		bl	chThdGetPriorityX
 1497 0818 0390     		str	r0, [sp, #12]
 1498              		.loc 6 529 0
 1499 081a 304B     		ldr	r3, .L79
 1500 081c 1A68     		ldr	r2, [r3]
 1501 081e 039B     		ldr	r3, [sp, #12]
 1502 0820 0133     		adds	r3, r3, #1
 1503 0822 2F49     		ldr	r1, .L79+4
 1504 0824 0091     		str	r1, [sp]
 1505 0826 1046     		mov	r0, r2
 1506 0828 4FF4A471 		mov	r1, #328
 1507 082c 1A46     		mov	r2, r3
 1508 082e 2D4B     		ldr	r3, .L79+8
 1509 0830 FFF7FEFF 		bl	chThdCreateStatic
 1510 0834 0246     		mov	r2, r0
 1511 0836 2C4B     		ldr	r3, .L79+12
 1512 0838 1A60     		str	r2, [r3]
ARM GAS  /tmp/ccUKQecq.s 			page 28


 1513              		.loc 6 530 0
 1514 083a 284B     		ldr	r3, .L79
 1515 083c 5A68     		ldr	r2, [r3, #4]
 1516 083e 039B     		ldr	r3, [sp, #12]
 1517 0840 0233     		adds	r3, r3, #2
 1518 0842 2A49     		ldr	r1, .L79+16
 1519 0844 0091     		str	r1, [sp]
 1520 0846 1046     		mov	r0, r2
 1521 0848 4FF4A471 		mov	r1, #328
 1522 084c 1A46     		mov	r2, r3
 1523 084e 254B     		ldr	r3, .L79+8
 1524 0850 FFF7FEFF 		bl	chThdCreateStatic
 1525 0854 0246     		mov	r2, r0
 1526 0856 244B     		ldr	r3, .L79+12
 1527 0858 5A60     		str	r2, [r3, #4]
 1528              		.loc 6 531 0
 1529 085a 204B     		ldr	r3, .L79
 1530 085c 9A68     		ldr	r2, [r3, #8]
 1531 085e 039B     		ldr	r3, [sp, #12]
 1532 0860 0333     		adds	r3, r3, #3
 1533 0862 2349     		ldr	r1, .L79+20
 1534 0864 0091     		str	r1, [sp]
 1535 0866 1046     		mov	r0, r2
 1536 0868 4FF4A471 		mov	r1, #328
 1537 086c 1A46     		mov	r2, r3
 1538 086e 1D4B     		ldr	r3, .L79+8
 1539 0870 FFF7FEFF 		bl	chThdCreateStatic
 1540 0874 0246     		mov	r2, r0
 1541 0876 1C4B     		ldr	r3, .L79+12
 1542 0878 9A60     		str	r2, [r3, #8]
 1543              		.loc 6 532 0
 1544 087a 184B     		ldr	r3, .L79
 1545 087c DA68     		ldr	r2, [r3, #12]
 1546 087e 039B     		ldr	r3, [sp, #12]
 1547 0880 0433     		adds	r3, r3, #4
 1548 0882 1C49     		ldr	r1, .L79+24
 1549 0884 0091     		str	r1, [sp]
 1550 0886 1046     		mov	r0, r2
 1551 0888 4FF4A471 		mov	r1, #328
 1552 088c 1A46     		mov	r2, r3
 1553 088e 154B     		ldr	r3, .L79+8
 1554 0890 FFF7FEFF 		bl	chThdCreateStatic
 1555 0894 0246     		mov	r2, r0
 1556 0896 144B     		ldr	r3, .L79+12
 1557 0898 DA60     		str	r2, [r3, #12]
 1558              		.loc 6 533 0
 1559 089a 104B     		ldr	r3, .L79
 1560 089c 1A69     		ldr	r2, [r3, #16]
 1561 089e 039B     		ldr	r3, [sp, #12]
 1562 08a0 0533     		adds	r3, r3, #5
 1563 08a2 1549     		ldr	r1, .L79+28
 1564 08a4 0091     		str	r1, [sp]
 1565 08a6 1046     		mov	r0, r2
 1566 08a8 4FF4A471 		mov	r1, #328
 1567 08ac 1A46     		mov	r2, r3
 1568 08ae 0D4B     		ldr	r3, .L79+8
 1569 08b0 FFF7FEFF 		bl	chThdCreateStatic
ARM GAS  /tmp/ccUKQecq.s 			page 29


 1570 08b4 0246     		mov	r2, r0
 1571 08b6 0C4B     		ldr	r3, .L79+12
 1572 08b8 1A61     		str	r2, [r3, #16]
 1573              		.loc 6 534 0
 1574 08ba 1048     		ldr	r0, .L79+32
 1575 08bc FFF7FEFF 		bl	chCondBroadcast
 1576              		.loc 6 535 0
 1577 08c0 FFF7FEFF 		bl	test_wait_threads
 1578              		.loc 6 536 0
 1579 08c4 0120     		movs	r0, #1
 1580 08c6 0E49     		ldr	r1, .L79+36
 1581 08c8 FFF7FEFF 		bl	_test_assert_sequence
 1582 08cc 0346     		mov	r3, r0
 1583 08ce 002B     		cmp	r3, #0
 1584 08d0 00D0     		beq	.L77
 1585              		.loc 6 536 0 is_stmt 0 discriminator 1
 1586 08d2 00BF     		nop
 1587              	.L77:
 1588              		.loc 6 537 0 is_stmt 1
 1589 08d4 05B0     		add	sp, sp, #20
 1590              		@ sp needed
 1591 08d6 5DF804FB 		ldr	pc, [sp], #4
 1592              	.L80:
 1593 08da 00BF     		.align	2
 1594              	.L79:
 1595 08dc 00000000 		.word	wa
 1596 08e0 00000000 		.word	.LC0
 1597 08e4 00000000 		.word	thread10
 1598 08e8 00000000 		.word	threads
 1599 08ec 04000000 		.word	.LC1
 1600 08f0 08000000 		.word	.LC2
 1601 08f4 0C000000 		.word	.LC3
 1602 08f8 10000000 		.word	.LC4
 1603 08fc 20000000 		.word	c1
 1604 0900 14000000 		.word	.LC5
 1605              		.cfi_endproc
 1606              	.LFE243:
 1607              		.size	mtx7_execute, .-mtx7_execute
 1608              		.global	testmtx7
 1609              		.section	.rodata
 1610              		.align	2
 1611              	.LC10:
 1612 00c4 436F6E64 		.ascii	"CondVar, broadcast test\000"
 1612      5661722C 
 1612      2062726F 
 1612      61646361 
 1612      73742074 
 1613              		.align	2
 1614              		.type	testmtx7, %object
 1615              		.size	testmtx7, 16
 1616              	testmtx7:
 1617 00dc C4000000 		.word	.LC10
 1618 00e0 00000000 		.word	mtx7_setup
 1619 00e4 00000000 		.word	0
 1620 00e8 00000000 		.word	mtx7_execute
 1621              		.text
 1622              		.align	2
ARM GAS  /tmp/ccUKQecq.s 			page 30


 1623 0904 AFF30080 		.p2align 4,,15
 1623      AFF30080 
 1623      AFF30080 
 1624              		.thumb
 1625              		.thumb_func
 1626              		.type	mtx8_setup, %function
 1627              	mtx8_setup:
 1628              	.LFB244:
 1629              		.loc 6 555 0
 1630              		.cfi_startproc
 1631              		@ args = 0, pretend = 0, frame = 0
 1632              		@ frame_needed = 0, uses_anonymous_args = 0
 1633 0910 08B5     		push	{r3, lr}
 1634              		.cfi_def_cfa_offset 8
 1635              		.cfi_offset 3, -8
 1636              		.cfi_offset 14, -4
 1637              		.loc 6 557 0
 1638 0912 0548     		ldr	r0, .L82
 1639 0914 FFF7FEFF 		bl	chCondObjectInit
 1640              		.loc 6 558 0
 1641 0918 0448     		ldr	r0, .L82+4
 1642 091a FFF7FEFF 		bl	chMtxObjectInit
 1643              		.loc 6 559 0
 1644 091e 0448     		ldr	r0, .L82+8
 1645 0920 FFF7FEFF 		bl	chMtxObjectInit
 1646              		.loc 6 560 0
 1647 0924 08BD     		pop	{r3, pc}
 1648              	.L83:
 1649 0926 00BF     		.align	2
 1650              	.L82:
 1651 0928 20000000 		.word	c1
 1652 092c 00000000 		.word	m1
 1653 0930 10000000 		.word	m2
 1654              		.cfi_endproc
 1655              	.LFE244:
 1656              		.size	mtx8_setup, .-mtx8_setup
 1657              		.align	2
 1658 0934 AFF30080 		.p2align 4,,15
 1658      AFF30080 
 1658      AFF30080 
 1659              		.thumb
 1660              		.thumb_func
 1661              		.type	thread11, %function
 1662              	thread11:
 1663              	.LFB245:
 1664              		.loc 6 562 0
 1665              		.cfi_startproc
 1666              		@ args = 0, pretend = 0, frame = 8
 1667              		@ frame_needed = 0, uses_anonymous_args = 0
 1668 0940 00B5     		push	{lr}
 1669              		.cfi_def_cfa_offset 4
 1670              		.cfi_offset 14, -4
 1671 0942 83B0     		sub	sp, sp, #12
 1672              		.cfi_def_cfa_offset 16
 1673 0944 0190     		str	r0, [sp, #4]
 1674              		.loc 6 564 0
 1675 0946 0C48     		ldr	r0, .L85
ARM GAS  /tmp/ccUKQecq.s 			page 31


 1676 0948 FFF7FEFF 		bl	chMtxLock
 1677              		.loc 6 565 0
 1678 094c 0B48     		ldr	r0, .L85+4
 1679 094e FFF7FEFF 		bl	chMtxLock
 1680              		.loc 6 567 0
 1681 0952 0B48     		ldr	r0, .L85+8
 1682 0954 4FF0FF31 		mov	r1, #-1
 1683 0958 FFF7FEFF 		bl	chCondWaitTimeout
 1684              		.loc 6 571 0
 1685 095c 019B     		ldr	r3, [sp, #4]
 1686 095e 1B78     		ldrb	r3, [r3]	@ zero_extendqisi2
 1687 0960 1846     		mov	r0, r3
 1688 0962 FFF7FEFF 		bl	test_emit_token
 1689              		.loc 6 572 0
 1690 0966 0548     		ldr	r0, .L85+4
 1691 0968 FFF7FEFF 		bl	chMtxUnlock
 1692              		.loc 6 573 0
 1693 096c 0248     		ldr	r0, .L85
 1694 096e FFF7FEFF 		bl	chMtxUnlock
 1695              		.loc 6 574 0
 1696 0972 03B0     		add	sp, sp, #12
 1697              		@ sp needed
 1698 0974 5DF804FB 		ldr	pc, [sp], #4
 1699              	.L86:
 1700              		.align	2
 1701              	.L85:
 1702 0978 10000000 		.word	m2
 1703 097c 00000000 		.word	m1
 1704 0980 20000000 		.word	c1
 1705              		.cfi_endproc
 1706              	.LFE245:
 1707              		.size	thread11, .-thread11
 1708              		.align	2
 1709 0984 AFF30080 		.p2align 4,,15
 1709      AFF30080 
 1709      AFF30080 
 1710              		.thumb
 1711              		.thumb_func
 1712              		.type	thread12, %function
 1713              	thread12:
 1714              	.LFB246:
 1715              		.loc 6 576 0
 1716              		.cfi_startproc
 1717              		@ args = 0, pretend = 0, frame = 8
 1718              		@ frame_needed = 0, uses_anonymous_args = 0
 1719 0990 00B5     		push	{lr}
 1720              		.cfi_def_cfa_offset 4
 1721              		.cfi_offset 14, -4
 1722 0992 83B0     		sub	sp, sp, #12
 1723              		.cfi_def_cfa_offset 16
 1724 0994 0190     		str	r0, [sp, #4]
 1725              		.loc 6 578 0
 1726 0996 0748     		ldr	r0, .L88
 1727 0998 FFF7FEFF 		bl	chMtxLock
 1728              		.loc 6 579 0
 1729 099c 019B     		ldr	r3, [sp, #4]
 1730 099e 1B78     		ldrb	r3, [r3]	@ zero_extendqisi2
ARM GAS  /tmp/ccUKQecq.s 			page 32


 1731 09a0 1846     		mov	r0, r3
 1732 09a2 FFF7FEFF 		bl	test_emit_token
 1733              		.loc 6 580 0
 1734 09a6 0348     		ldr	r0, .L88
 1735 09a8 FFF7FEFF 		bl	chMtxUnlock
 1736              		.loc 6 581 0
 1737 09ac 03B0     		add	sp, sp, #12
 1738              		@ sp needed
 1739 09ae 5DF804FB 		ldr	pc, [sp], #4
 1740              	.L89:
 1741 09b2 00BF     		.align	2
 1742              	.L88:
 1743 09b4 10000000 		.word	m2
 1744              		.cfi_endproc
 1745              	.LFE246:
 1746              		.size	thread12, .-thread12
 1747              		.section	.rodata
 1748              		.align	2
 1749              	.LC11:
 1750 00ec 41424300 		.ascii	"ABC\000"
 1751              		.text
 1752              		.align	2
 1753 09b8 AFF30080 		.p2align 4,,15
 1753      AFF30080 
 1754              		.thumb
 1755              		.thumb_func
 1756              		.type	mtx8_execute, %function
 1757              	mtx8_execute:
 1758              	.LFB247:
 1759              		.loc 6 583 0
 1760              		.cfi_startproc
 1761              		@ args = 0, pretend = 0, frame = 8
 1762              		@ frame_needed = 0, uses_anonymous_args = 0
 1763 09c0 00B5     		push	{lr}
 1764              		.cfi_def_cfa_offset 4
 1765              		.cfi_offset 14, -4
 1766 09c2 85B0     		sub	sp, sp, #20
 1767              		.cfi_def_cfa_offset 24
 1768              		.loc 6 585 0
 1769 09c4 FFF754FB 		bl	chThdGetPriorityX
 1770 09c8 0390     		str	r0, [sp, #12]
 1771              		.loc 6 586 0
 1772 09ca 214B     		ldr	r3, .L92
 1773 09cc 1A68     		ldr	r2, [r3]
 1774 09ce 039B     		ldr	r3, [sp, #12]
 1775 09d0 0133     		adds	r3, r3, #1
 1776 09d2 2049     		ldr	r1, .L92+4
 1777 09d4 0091     		str	r1, [sp]
 1778 09d6 1046     		mov	r0, r2
 1779 09d8 4FF4A471 		mov	r1, #328
 1780 09dc 1A46     		mov	r2, r3
 1781 09de 1E4B     		ldr	r3, .L92+8
 1782 09e0 FFF7FEFF 		bl	chThdCreateStatic
 1783 09e4 0246     		mov	r2, r0
 1784 09e6 1D4B     		ldr	r3, .L92+12
 1785 09e8 1A60     		str	r2, [r3]
 1786              		.loc 6 587 0
ARM GAS  /tmp/ccUKQecq.s 			page 33


 1787 09ea 194B     		ldr	r3, .L92
 1788 09ec 5A68     		ldr	r2, [r3, #4]
 1789 09ee 039B     		ldr	r3, [sp, #12]
 1790 09f0 0233     		adds	r3, r3, #2
 1791 09f2 1B49     		ldr	r1, .L92+16
 1792 09f4 0091     		str	r1, [sp]
 1793 09f6 1046     		mov	r0, r2
 1794 09f8 4FF4A471 		mov	r1, #328
 1795 09fc 1A46     		mov	r2, r3
 1796 09fe 194B     		ldr	r3, .L92+20
 1797 0a00 FFF7FEFF 		bl	chThdCreateStatic
 1798 0a04 0246     		mov	r2, r0
 1799 0a06 154B     		ldr	r3, .L92+12
 1800 0a08 5A60     		str	r2, [r3, #4]
 1801              		.loc 6 588 0
 1802 0a0a 114B     		ldr	r3, .L92
 1803 0a0c 9A68     		ldr	r2, [r3, #8]
 1804 0a0e 039B     		ldr	r3, [sp, #12]
 1805 0a10 0333     		adds	r3, r3, #3
 1806 0a12 1549     		ldr	r1, .L92+24
 1807 0a14 0091     		str	r1, [sp]
 1808 0a16 1046     		mov	r0, r2
 1809 0a18 4FF4A471 		mov	r1, #328
 1810 0a1c 1A46     		mov	r2, r3
 1811 0a1e 134B     		ldr	r3, .L92+28
 1812 0a20 FFF7FEFF 		bl	chThdCreateStatic
 1813 0a24 0246     		mov	r2, r0
 1814 0a26 0D4B     		ldr	r3, .L92+12
 1815 0a28 9A60     		str	r2, [r3, #8]
 1816              		.loc 6 589 0
 1817 0a2a 1148     		ldr	r0, .L92+32
 1818 0a2c FFF7FEFF 		bl	chCondSignal
 1819              		.loc 6 590 0
 1820 0a30 0F48     		ldr	r0, .L92+32
 1821 0a32 FFF7FEFF 		bl	chCondSignal
 1822              		.loc 6 591 0
 1823 0a36 FFF7FEFF 		bl	test_wait_threads
 1824              		.loc 6 592 0
 1825 0a3a 0120     		movs	r0, #1
 1826 0a3c 0D49     		ldr	r1, .L92+36
 1827 0a3e FFF7FEFF 		bl	_test_assert_sequence
 1828 0a42 0346     		mov	r3, r0
 1829 0a44 002B     		cmp	r3, #0
 1830 0a46 00D0     		beq	.L90
 1831              		.loc 6 592 0 is_stmt 0 discriminator 1
 1832 0a48 00BF     		nop
 1833              	.L90:
 1834              		.loc 6 593 0 is_stmt 1
 1835 0a4a 05B0     		add	sp, sp, #20
 1836              		@ sp needed
 1837 0a4c 5DF804FB 		ldr	pc, [sp], #4
 1838              	.L93:
 1839              		.align	2
 1840              	.L92:
 1841 0a50 00000000 		.word	wa
 1842 0a54 10000000 		.word	.LC4
 1843 0a58 00000000 		.word	thread11
ARM GAS  /tmp/ccUKQecq.s 			page 34


 1844 0a5c 00000000 		.word	threads
 1845 0a60 08000000 		.word	.LC2
 1846 0a64 00000000 		.word	thread10
 1847 0a68 0C000000 		.word	.LC3
 1848 0a6c 00000000 		.word	thread12
 1849 0a70 20000000 		.word	c1
 1850 0a74 EC000000 		.word	.LC11
 1851              		.cfi_endproc
 1852              	.LFE247:
 1853              		.size	mtx8_execute, .-mtx8_execute
 1854              		.global	testmtx8
 1855              		.section	.rodata
 1856              		.align	2
 1857              	.LC12:
 1858 00f0 436F6E64 		.ascii	"CondVar, boost test\000"
 1858      5661722C 
 1858      20626F6F 
 1858      73742074 
 1858      65737400 
 1859              		.align	2
 1860              		.type	testmtx8, %object
 1861              		.size	testmtx8, 16
 1862              	testmtx8:
 1863 0104 F0000000 		.word	.LC12
 1864 0108 00000000 		.word	mtx8_setup
 1865 010c 00000000 		.word	0
 1866 0110 00000000 		.word	mtx8_execute
 1867              		.global	patternmtx
 1868              		.align	2
 1869              		.type	patternmtx, %object
 1870              		.size	patternmtx, 28
 1871              	patternmtx:
 1872 0114 00000000 		.word	testmtx1
 1873 0118 00000000 		.word	testmtx4
 1874 011c 00000000 		.word	testmtx5
 1875 0120 00000000 		.word	testmtx6
 1876 0124 00000000 		.word	testmtx7
 1877 0128 00000000 		.word	testmtx8
 1878 012c 00000000 		.word	0
 1879              		.text
 1880              	.Letext0:
 1881              		.file 7 "/nfs/nfs5/home/research/hardware/arm2/gcc-arm-embedded/gcc-arm-none-eabi-4_8-2014q2/lib/g
 1882              		.file 8 "/nfs/nfs5/home/research/hardware/arm2/gcc-arm-embedded/gcc-arm-none-eabi-4_8-2014q2/arm-n
 1883              		.file 9 "/nfs/nfs5/home/research/hardware/arm2/gcc-arm-embedded/gcc-arm-none-eabi-4_8-2014q2/arm-n
 1884              		.file 10 "../../ChibiOS/os/rt/ports/ARMCMx/compilers/GCC/chtypes.h"
 1885              		.file 11 "../../ChibiOS/os/rt/include/chsystypes.h"
 1886              		.file 12 "../../ChibiOS/os/rt/ports/ARMCMx/chcore.h"
 1887              		.file 13 "../../ChibiOS/os/rt/include/chtm.h"
 1888              		.file 14 "../../ChibiOS/os/rt/include/chsem.h"
 1889              		.file 15 "../../ChibiOS/os/rt/include/chmtx.h"
 1890              		.file 16 "../../ChibiOS/os/rt/include/chcond.h"
 1891              		.file 17 "../../ChibiOS/test/rt/test.h"
 1892              		.file 18 "../../ChibiOS/os/ext/CMSIS/include/core_cm4.h"