ARM GAS  /tmp/ccEczbyy.s 			page 1


   1              		.syntax unified
   2              		.cpu cortex-m4
   3              		.fpu softvfp
   4              		.eabi_attribute 20, 1
   5              		.eabi_attribute 21, 1
   6              		.eabi_attribute 23, 3
   7              		.eabi_attribute 24, 1
   8              		.eabi_attribute 25, 1
   9              		.eabi_attribute 26, 1
  10              		.eabi_attribute 30, 6
  11              		.eabi_attribute 34, 1
  12              		.eabi_attribute 18, 4
  13              		.thumb
  14              		.file	"testmbox.c"
  15              		.text
  16              	.Ltext0:
  17              		.cfi_sections	.debug_frame
  18              		.align	2
  19              		.p2align 4,,15
  20              		.thumb
  21              		.thumb_func
  22              		.type	port_lock, %function
  23              	port_lock:
  24              	.LFB127:
  25              		.file 1 "../../ChibiOS/os/rt/ports/ARMCMx/chcore_v7m.h"
  26              		.loc 1 456 0
  27              		.cfi_startproc
  28              		@ args = 0, pretend = 0, frame = 8
  29              		@ frame_needed = 0, uses_anonymous_args = 0
  30              		@ link register save eliminated.
  31 0000 82B0     		sub	sp, sp, #8
  32              		.cfi_def_cfa_offset 8
  33 0002 2023     		movs	r3, #32
  34 0004 0193     		str	r3, [sp, #4]
  35              	.LBB6:
  36              	.LBB7:
  37              		.file 2 "../../ChibiOS/os/ext/CMSIS/include/core_cmFunc.h"
  38              		.loc 2 548 0
  39 0006 019B     		ldr	r3, [sp, #4]
  40              	@ 548 "../../ChibiOS/os/ext/CMSIS/include/core_cmFunc.h" 1
  41 0008 83F31188 		MSR basepri, r3
  42              	@ 0 "" 2
  43              		.thumb
  44              	.LBE7:
  45              	.LBE6:
  46              		.loc 1 473 0
  47 000c 02B0     		add	sp, sp, #8
  48              		@ sp needed
  49 000e 7047     		bx	lr
  50              		.cfi_endproc
  51              	.LFE127:
  52              		.size	port_lock, .-port_lock
  53              		.align	2
  54              		.p2align 4,,15
  55              		.thumb
  56              		.thumb_func
  57              		.type	port_unlock, %function
ARM GAS  /tmp/ccEczbyy.s 			page 2


  58              	port_unlock:
  59              	.LFB128:
  60              		.loc 1 480 0
  61              		.cfi_startproc
  62              		@ args = 0, pretend = 0, frame = 8
  63              		@ frame_needed = 0, uses_anonymous_args = 0
  64              		@ link register save eliminated.
  65 0010 82B0     		sub	sp, sp, #8
  66              		.cfi_def_cfa_offset 8
  67 0012 0023     		movs	r3, #0
  68 0014 0193     		str	r3, [sp, #4]
  69              	.LBB8:
  70              	.LBB9:
  71              		.loc 2 548 0
  72 0016 019B     		ldr	r3, [sp, #4]
  73              	@ 548 "../../ChibiOS/os/ext/CMSIS/include/core_cmFunc.h" 1
  74 0018 83F31188 		MSR basepri, r3
  75              	@ 0 "" 2
  76              		.thumb
  77              	.LBE9:
  78              	.LBE8:
  79              		.loc 1 487 0
  80 001c 02B0     		add	sp, sp, #8
  81              		@ sp needed
  82 001e 7047     		bx	lr
  83              		.cfi_endproc
  84              	.LFE128:
  85              		.size	port_unlock, .-port_unlock
  86              		.align	2
  87              		.p2align 4,,15
  88              		.thumb
  89              		.thumb_func
  90              		.type	chSysLock, %function
  91              	chSysLock:
  92              	.LFB156:
  93              		.file 3 "../../ChibiOS/os/rt/include/chsys.h"
  94              		.loc 3 346 0
  95              		.cfi_startproc
  96              		@ args = 0, pretend = 0, frame = 0
  97              		@ frame_needed = 0, uses_anonymous_args = 0
  98 0020 08B5     		push	{r3, lr}
  99              		.cfi_def_cfa_offset 8
 100              		.cfi_offset 3, -8
 101              		.cfi_offset 14, -4
 102              		.loc 3 348 0
 103 0022 FFF7EDFF 		bl	port_lock
 104              		.loc 3 351 0
 105 0026 08BD     		pop	{r3, pc}
 106              		.cfi_endproc
 107              	.LFE156:
 108              		.size	chSysLock, .-chSysLock
 109              		.align	2
 110 0028 AFF30080 		.p2align 4,,15
 110      AFF30080 
 111              		.thumb
 112              		.thumb_func
 113              		.type	chSysUnlock, %function
ARM GAS  /tmp/ccEczbyy.s 			page 3


 114              	chSysUnlock:
 115              	.LFB157:
 116              		.loc 3 358 0
 117              		.cfi_startproc
 118              		@ args = 0, pretend = 0, frame = 0
 119              		@ frame_needed = 0, uses_anonymous_args = 0
 120 0030 08B5     		push	{r3, lr}
 121              		.cfi_def_cfa_offset 8
 122              		.cfi_offset 3, -8
 123              		.cfi_offset 14, -4
 124              		.loc 3 371 0
 125 0032 FFF7EDFF 		bl	port_unlock
 126              		.loc 3 372 0
 127 0036 08BD     		pop	{r3, pc}
 128              		.cfi_endproc
 129              	.LFE157:
 130              		.size	chSysUnlock, .-chSysUnlock
 131              		.align	2
 132 0038 AFF30080 		.p2align 4,,15
 132      AFF30080 
 133              		.thumb
 134              		.thumb_func
 135              		.type	chSemGetCounterI, %function
 136              	chSemGetCounterI:
 137              	.LFB192:
 138              		.file 4 "../../ChibiOS/os/rt/include/chsem.h"
 139              		.loc 4 149 0
 140              		.cfi_startproc
 141              		@ args = 0, pretend = 0, frame = 8
 142              		@ frame_needed = 0, uses_anonymous_args = 0
 143              		@ link register save eliminated.
 144 0040 82B0     		sub	sp, sp, #8
 145              		.cfi_def_cfa_offset 8
 146 0042 0190     		str	r0, [sp, #4]
 147              		.loc 4 153 0
 148 0044 019B     		ldr	r3, [sp, #4]
 149 0046 9B68     		ldr	r3, [r3, #8]
 150              		.loc 4 154 0
 151 0048 1846     		mov	r0, r3
 152 004a 02B0     		add	sp, sp, #8
 153              		@ sp needed
 154 004c 7047     		bx	lr
 155              		.cfi_endproc
 156              	.LFE192:
 157              		.size	chSemGetCounterI, .-chSemGetCounterI
 158 004e 00BF     		.align	2
 159              		.p2align 4,,15
 160              		.thumb
 161              		.thumb_func
 162              		.type	chMBGetFreeCountI, %function
 163              	chMBGetFreeCountI:
 164              	.LFB215:
 165              		.file 5 "../../ChibiOS/os/rt/include/chmboxes.h"
 166              		.loc 5 158 0
 167              		.cfi_startproc
 168              		@ args = 0, pretend = 0, frame = 8
 169              		@ frame_needed = 0, uses_anonymous_args = 0
ARM GAS  /tmp/ccEczbyy.s 			page 4


 170 0050 00B5     		push	{lr}
 171              		.cfi_def_cfa_offset 4
 172              		.cfi_offset 14, -4
 173 0052 83B0     		sub	sp, sp, #12
 174              		.cfi_def_cfa_offset 16
 175 0054 0190     		str	r0, [sp, #4]
 176              		.loc 5 162 0
 177 0056 019B     		ldr	r3, [sp, #4]
 178 0058 1C33     		adds	r3, r3, #28
 179 005a 1846     		mov	r0, r3
 180 005c FFF7F0FF 		bl	chSemGetCounterI
 181 0060 0346     		mov	r3, r0
 182              		.loc 5 163 0
 183 0062 1846     		mov	r0, r3
 184 0064 03B0     		add	sp, sp, #12
 185              		@ sp needed
 186 0066 5DF804FB 		ldr	pc, [sp], #4
 187              		.cfi_endproc
 188              	.LFE215:
 189              		.size	chMBGetFreeCountI, .-chMBGetFreeCountI
 190 006a 00BF     		.align	2
 191 006c AFF30080 		.p2align 4,,15
 192              		.thumb
 193              		.thumb_func
 194              		.type	chMBGetUsedCountI, %function
 195              	chMBGetUsedCountI:
 196              	.LFB216:
 197              		.loc 5 177 0
 198              		.cfi_startproc
 199              		@ args = 0, pretend = 0, frame = 8
 200              		@ frame_needed = 0, uses_anonymous_args = 0
 201 0070 00B5     		push	{lr}
 202              		.cfi_def_cfa_offset 4
 203              		.cfi_offset 14, -4
 204 0072 83B0     		sub	sp, sp, #12
 205              		.cfi_def_cfa_offset 16
 206 0074 0190     		str	r0, [sp, #4]
 207              		.loc 5 181 0
 208 0076 019B     		ldr	r3, [sp, #4]
 209 0078 1033     		adds	r3, r3, #16
 210 007a 1846     		mov	r0, r3
 211 007c FFF7E0FF 		bl	chSemGetCounterI
 212 0080 0346     		mov	r3, r0
 213              		.loc 5 182 0
 214 0082 1846     		mov	r0, r3
 215 0084 03B0     		add	sp, sp, #12
 216              		@ sp needed
 217 0086 5DF804FB 		ldr	pc, [sp], #4
 218              		.cfi_endproc
 219              	.LFE216:
 220              		.size	chMBGetUsedCountI, .-chMBGetUsedCountI
 221              		.data
 222              		.align	2
 223              		.type	mb1, %object
 224              		.size	mb1, 40
 225              	mb1:
 226 0000 00000000 		.word	test
ARM GAS  /tmp/ccEczbyy.s 			page 5


 227 0004 14000000 		.word	test+20
 228 0008 00000000 		.word	test
 229 000c 00000000 		.word	test
 230 0010 10000000 		.word	mb1+16
 231 0014 10000000 		.word	mb1+16
 232 0018 00000000 		.word	0
 233 001c 1C000000 		.word	mb1+28
 234 0020 1C000000 		.word	mb1+28
 235 0024 05000000 		.word	5
 236              		.text
 237 008a 00BF     		.align	2
 238 008c AFF30080 		.p2align 4,,15
 239              		.thumb
 240              		.thumb_func
 241              		.type	mbox1_setup, %function
 242              	mbox1_setup:
 243              	.LFB230:
 244              		.file 6 "../../ChibiOS/test/rt/testmbox.c"
 245              		.loc 6 71 0
 246              		.cfi_startproc
 247              		@ args = 0, pretend = 0, frame = 0
 248              		@ frame_needed = 0, uses_anonymous_args = 0
 249 0090 08B5     		push	{r3, lr}
 250              		.cfi_def_cfa_offset 8
 251              		.cfi_offset 3, -8
 252              		.cfi_offset 14, -4
 253              		.loc 6 73 0
 254 0092 0348     		ldr	r0, .L12
 255 0094 0349     		ldr	r1, .L12+4
 256 0096 0522     		movs	r2, #5
 257 0098 FFF7FEFF 		bl	chMBObjectInit
 258              		.loc 6 74 0
 259 009c 08BD     		pop	{r3, pc}
 260              	.L13:
 261 009e 00BF     		.align	2
 262              	.L12:
 263 00a0 00000000 		.word	mb1
 264 00a4 00000000 		.word	test
 265              		.cfi_endproc
 266              	.LFE230:
 267              		.size	mbox1_setup, .-mbox1_setup
 268              		.section	.rodata
 269              		.align	2
 270              	.LC0:
 271 0000 41424344 		.ascii	"ABCDE\000"
 271      4500
 272              		.text
 273              		.align	2
 274 00a8 AFF30080 		.p2align 4,,15
 274      AFF30080 
 275              		.thumb
 276              		.thumb_func
 277              		.type	mbox1_execute, %function
 278              	mbox1_execute:
 279              	.LFB231:
 280              		.loc 6 76 0
 281              		.cfi_startproc
ARM GAS  /tmp/ccEczbyy.s 			page 6


 282              		@ args = 0, pretend = 0, frame = 16
 283              		@ frame_needed = 0, uses_anonymous_args = 0
 284 00b0 00B5     		push	{lr}
 285              		.cfi_def_cfa_offset 4
 286              		.cfi_offset 14, -4
 287 00b2 85B0     		sub	sp, sp, #20
 288              		.cfi_def_cfa_offset 24
 289              		.loc 6 83 0
 290 00b4 FFF7B4FF 		bl	chSysLock
 291 00b8 A948     		ldr	r0, .L72
 292 00ba FFF7C9FF 		bl	chMBGetFreeCountI
 293 00be 0346     		mov	r3, r0
 294 00c0 052B     		cmp	r3, #5
 295 00c2 14BF     		ite	ne
 296 00c4 0023     		movne	r3, #0
 297 00c6 0123     		moveq	r3, #1
 298 00c8 DBB2     		uxtb	r3, r3
 299 00ca 0120     		movs	r0, #1
 300 00cc 1946     		mov	r1, r3
 301 00ce FFF7FEFF 		bl	_test_assert
 302 00d2 0346     		mov	r3, r0
 303 00d4 002B     		cmp	r3, #0
 304 00d6 02D0     		beq	.L15
 305              		.loc 6 83 0 is_stmt 0 discriminator 1
 306 00d8 FFF7AAFF 		bl	chSysUnlock
 307 00dc EFE3     		b	.L14
 308              	.L15:
 309              		.loc 6 83 0 discriminator 2
 310 00de FFF7A7FF 		bl	chSysUnlock
 311              		.loc 6 88 0 is_stmt 1 discriminator 2
 312 00e2 0023     		movs	r3, #0
 313 00e4 0393     		str	r3, [sp, #12]
 314 00e6 19E0     		b	.L17
 315              	.L19:
 316              		.loc 6 89 0
 317 00e8 039B     		ldr	r3, [sp, #12]
 318 00ea 4233     		adds	r3, r3, #66
 319 00ec 9C48     		ldr	r0, .L72
 320 00ee 1946     		mov	r1, r3
 321 00f0 4FF0FF32 		mov	r2, #-1
 322 00f4 FFF7FEFF 		bl	chMBPost
 323 00f8 0290     		str	r0, [sp, #8]
 324              		.loc 6 90 0
 325 00fa 029B     		ldr	r3, [sp, #8]
 326 00fc 002B     		cmp	r3, #0
 327 00fe 14BF     		ite	ne
 328 0100 0023     		movne	r3, #0
 329 0102 0123     		moveq	r3, #1
 330 0104 DBB2     		uxtb	r3, r3
 331 0106 0220     		movs	r0, #2
 332 0108 1946     		mov	r1, r3
 333 010a FFF7FEFF 		bl	_test_assert
 334 010e 0346     		mov	r3, r0
 335 0110 002B     		cmp	r3, #0
 336 0112 00D0     		beq	.L18
 337              		.loc 6 90 0 is_stmt 0 discriminator 1
 338 0114 D3E3     		b	.L14
ARM GAS  /tmp/ccEczbyy.s 			page 7


 339              	.L18:
 340              		.loc 6 88 0 is_stmt 1
 341 0116 039B     		ldr	r3, [sp, #12]
 342 0118 0133     		adds	r3, r3, #1
 343 011a 0393     		str	r3, [sp, #12]
 344              	.L17:
 345              		.loc 6 88 0 is_stmt 0 discriminator 1
 346 011c 039B     		ldr	r3, [sp, #12]
 347 011e 032B     		cmp	r3, #3
 348 0120 E2D9     		bls	.L19
 349              		.loc 6 92 0 is_stmt 1
 350 0122 8F48     		ldr	r0, .L72
 351 0124 4121     		movs	r1, #65
 352 0126 4FF0FF32 		mov	r2, #-1
 353 012a FFF7FEFF 		bl	chMBPostAhead
 354 012e 0290     		str	r0, [sp, #8]
 355              		.loc 6 93 0
 356 0130 029B     		ldr	r3, [sp, #8]
 357 0132 002B     		cmp	r3, #0
 358 0134 14BF     		ite	ne
 359 0136 0023     		movne	r3, #0
 360 0138 0123     		moveq	r3, #1
 361 013a DBB2     		uxtb	r3, r3
 362 013c 0320     		movs	r0, #3
 363 013e 1946     		mov	r1, r3
 364 0140 FFF7FEFF 		bl	_test_assert
 365 0144 0346     		mov	r3, r0
 366 0146 002B     		cmp	r3, #0
 367 0148 00D0     		beq	.L20
 368              		.loc 6 93 0 is_stmt 0 discriminator 1
 369 014a B8E3     		b	.L14
 370              	.L20:
 371              		.loc 6 98 0 is_stmt 1
 372 014c 8448     		ldr	r0, .L72
 373 014e 5821     		movs	r1, #88
 374 0150 0122     		movs	r2, #1
 375 0152 FFF7FEFF 		bl	chMBPost
 376 0156 0290     		str	r0, [sp, #8]
 377              		.loc 6 99 0
 378 0158 029B     		ldr	r3, [sp, #8]
 379 015a B3F1FF3F 		cmp	r3, #-1
 380 015e 14BF     		ite	ne
 381 0160 0023     		movne	r3, #0
 382 0162 0123     		moveq	r3, #1
 383 0164 DBB2     		uxtb	r3, r3
 384 0166 0420     		movs	r0, #4
 385 0168 1946     		mov	r1, r3
 386 016a FFF7FEFF 		bl	_test_assert
 387 016e 0346     		mov	r3, r0
 388 0170 002B     		cmp	r3, #0
 389 0172 00D0     		beq	.L21
 390              		.loc 6 99 0 is_stmt 0 discriminator 1
 391 0174 A3E3     		b	.L14
 392              	.L21:
 393              		.loc 6 100 0 is_stmt 1
 394 0176 FFF753FF 		bl	chSysLock
 395              		.loc 6 101 0
ARM GAS  /tmp/ccEczbyy.s 			page 8


 396 017a 7948     		ldr	r0, .L72
 397 017c 5821     		movs	r1, #88
 398 017e FFF7FEFF 		bl	chMBPostI
 399 0182 0290     		str	r0, [sp, #8]
 400              		.loc 6 102 0
 401 0184 FFF754FF 		bl	chSysUnlock
 402              		.loc 6 103 0
 403 0188 029B     		ldr	r3, [sp, #8]
 404 018a B3F1FF3F 		cmp	r3, #-1
 405 018e 14BF     		ite	ne
 406 0190 0023     		movne	r3, #0
 407 0192 0123     		moveq	r3, #1
 408 0194 DBB2     		uxtb	r3, r3
 409 0196 0520     		movs	r0, #5
 410 0198 1946     		mov	r1, r3
 411 019a FFF7FEFF 		bl	_test_assert
 412 019e 0346     		mov	r3, r0
 413 01a0 002B     		cmp	r3, #0
 414 01a2 00D0     		beq	.L22
 415              		.loc 6 103 0 is_stmt 0 discriminator 1
 416 01a4 8BE3     		b	.L14
 417              	.L22:
 418              		.loc 6 104 0 is_stmt 1
 419 01a6 6E48     		ldr	r0, .L72
 420 01a8 5821     		movs	r1, #88
 421 01aa 0122     		movs	r2, #1
 422 01ac FFF7FEFF 		bl	chMBPostAhead
 423 01b0 0290     		str	r0, [sp, #8]
 424              		.loc 6 105 0
 425 01b2 029B     		ldr	r3, [sp, #8]
 426 01b4 B3F1FF3F 		cmp	r3, #-1
 427 01b8 14BF     		ite	ne
 428 01ba 0023     		movne	r3, #0
 429 01bc 0123     		moveq	r3, #1
 430 01be DBB2     		uxtb	r3, r3
 431 01c0 0620     		movs	r0, #6
 432 01c2 1946     		mov	r1, r3
 433 01c4 FFF7FEFF 		bl	_test_assert
 434 01c8 0346     		mov	r3, r0
 435 01ca 002B     		cmp	r3, #0
 436 01cc 00D0     		beq	.L23
 437              		.loc 6 105 0 is_stmt 0 discriminator 1
 438 01ce 76E3     		b	.L14
 439              	.L23:
 440              		.loc 6 106 0 is_stmt 1
 441 01d0 FFF726FF 		bl	chSysLock
 442              		.loc 6 107 0
 443 01d4 6248     		ldr	r0, .L72
 444 01d6 5821     		movs	r1, #88
 445 01d8 FFF7FEFF 		bl	chMBPostAheadI
 446 01dc 0290     		str	r0, [sp, #8]
 447              		.loc 6 108 0
 448 01de FFF727FF 		bl	chSysUnlock
 449              		.loc 6 109 0
 450 01e2 029B     		ldr	r3, [sp, #8]
 451 01e4 B3F1FF3F 		cmp	r3, #-1
 452 01e8 14BF     		ite	ne
ARM GAS  /tmp/ccEczbyy.s 			page 9


 453 01ea 0023     		movne	r3, #0
 454 01ec 0123     		moveq	r3, #1
 455 01ee DBB2     		uxtb	r3, r3
 456 01f0 0720     		movs	r0, #7
 457 01f2 1946     		mov	r1, r3
 458 01f4 FFF7FEFF 		bl	_test_assert
 459 01f8 0346     		mov	r3, r0
 460 01fa 002B     		cmp	r3, #0
 461 01fc 00D0     		beq	.L24
 462              		.loc 6 109 0 is_stmt 0 discriminator 1
 463 01fe 5EE3     		b	.L14
 464              	.L24:
 465              		.loc 6 114 0 is_stmt 1
 466 0200 FFF70EFF 		bl	chSysLock
 467 0204 5648     		ldr	r0, .L72
 468 0206 FFF723FF 		bl	chMBGetFreeCountI
 469 020a 0346     		mov	r3, r0
 470 020c 002B     		cmp	r3, #0
 471 020e 14BF     		ite	ne
 472 0210 0023     		movne	r3, #0
 473 0212 0123     		moveq	r3, #1
 474 0214 DBB2     		uxtb	r3, r3
 475 0216 0820     		movs	r0, #8
 476 0218 1946     		mov	r1, r3
 477 021a FFF7FEFF 		bl	_test_assert
 478 021e 0346     		mov	r3, r0
 479 0220 002B     		cmp	r3, #0
 480 0222 02D0     		beq	.L25
 481              		.loc 6 114 0 is_stmt 0 discriminator 1
 482 0224 FFF704FF 		bl	chSysUnlock
 483 0228 49E3     		b	.L14
 484              	.L25:
 485              		.loc 6 114 0 discriminator 2
 486 022a FFF701FF 		bl	chSysUnlock
 487              		.loc 6 115 0 is_stmt 1 discriminator 2
 488 022e FFF7F7FE 		bl	chSysLock
 489 0232 4B48     		ldr	r0, .L72
 490 0234 FFF71CFF 		bl	chMBGetUsedCountI
 491 0238 0346     		mov	r3, r0
 492 023a 052B     		cmp	r3, #5
 493 023c 14BF     		ite	ne
 494 023e 0023     		movne	r3, #0
 495 0240 0123     		moveq	r3, #1
 496 0242 DBB2     		uxtb	r3, r3
 497 0244 0920     		movs	r0, #9
 498 0246 1946     		mov	r1, r3
 499 0248 FFF7FEFF 		bl	_test_assert
 500 024c 0346     		mov	r3, r0
 501 024e 002B     		cmp	r3, #0
 502 0250 02D0     		beq	.L26
 503              		.loc 6 115 0 is_stmt 0 discriminator 1
 504 0252 FFF7EDFE 		bl	chSysUnlock
 505 0256 32E3     		b	.L14
 506              	.L26:
 507              		.loc 6 115 0 discriminator 2
 508 0258 FFF7EAFE 		bl	chSysUnlock
 509              		.loc 6 116 0 is_stmt 1 discriminator 2
ARM GAS  /tmp/ccEczbyy.s 			page 10


 510 025c FFF7E0FE 		bl	chSysLock
 511 0260 3F4B     		ldr	r3, .L72
 512 0262 DA68     		ldr	r2, [r3, #12]
 513 0264 3E4B     		ldr	r3, .L72
 514 0266 9B68     		ldr	r3, [r3, #8]
 515 0268 9A42     		cmp	r2, r3
 516 026a 14BF     		ite	ne
 517 026c 0023     		movne	r3, #0
 518 026e 0123     		moveq	r3, #1
 519 0270 DBB2     		uxtb	r3, r3
 520 0272 0A20     		movs	r0, #10
 521 0274 1946     		mov	r1, r3
 522 0276 FFF7FEFF 		bl	_test_assert
 523 027a 0346     		mov	r3, r0
 524 027c 002B     		cmp	r3, #0
 525 027e 02D0     		beq	.L27
 526              		.loc 6 116 0 is_stmt 0 discriminator 1
 527 0280 FFF7D6FE 		bl	chSysUnlock
 528 0284 1BE3     		b	.L14
 529              	.L27:
 530              		.loc 6 116 0 discriminator 2
 531 0286 FFF7D3FE 		bl	chSysUnlock
 532              		.loc 6 121 0 is_stmt 1 discriminator 2
 533 028a 0023     		movs	r3, #0
 534 028c 0393     		str	r3, [sp, #12]
 535 028e 1DE0     		b	.L28
 536              	.L30:
 537              		.loc 6 122 0
 538 0290 01AB     		add	r3, sp, #4
 539 0292 3348     		ldr	r0, .L72
 540 0294 1946     		mov	r1, r3
 541 0296 4FF0FF32 		mov	r2, #-1
 542 029a FFF7FEFF 		bl	chMBFetch
 543 029e 0290     		str	r0, [sp, #8]
 544              		.loc 6 123 0
 545 02a0 029B     		ldr	r3, [sp, #8]
 546 02a2 002B     		cmp	r3, #0
 547 02a4 14BF     		ite	ne
 548 02a6 0023     		movne	r3, #0
 549 02a8 0123     		moveq	r3, #1
 550 02aa DBB2     		uxtb	r3, r3
 551 02ac 0B20     		movs	r0, #11
 552 02ae 1946     		mov	r1, r3
 553 02b0 FFF7FEFF 		bl	_test_assert
 554 02b4 0346     		mov	r3, r0
 555 02b6 002B     		cmp	r3, #0
 556 02b8 00D0     		beq	.L29
 557              		.loc 6 123 0 is_stmt 0 discriminator 1
 558 02ba 00E3     		b	.L14
 559              	.L29:
 560              		.loc 6 124 0 is_stmt 1
 561 02bc 019B     		ldr	r3, [sp, #4]
 562 02be DBB2     		uxtb	r3, r3
 563 02c0 1846     		mov	r0, r3
 564 02c2 FFF7FEFF 		bl	test_emit_token
 565              		.loc 6 121 0
 566 02c6 039B     		ldr	r3, [sp, #12]
ARM GAS  /tmp/ccEczbyy.s 			page 11


 567 02c8 0133     		adds	r3, r3, #1
 568 02ca 0393     		str	r3, [sp, #12]
 569              	.L28:
 570              		.loc 6 121 0 is_stmt 0 discriminator 1
 571 02cc 039B     		ldr	r3, [sp, #12]
 572 02ce 042B     		cmp	r3, #4
 573 02d0 DED9     		bls	.L30
 574              		.loc 6 126 0 is_stmt 1
 575 02d2 0C20     		movs	r0, #12
 576 02d4 2349     		ldr	r1, .L72+4
 577 02d6 FFF7FEFF 		bl	_test_assert_sequence
 578 02da 0346     		mov	r3, r0
 579 02dc 002B     		cmp	r3, #0
 580 02de 00D0     		beq	.L31
 581              		.loc 6 126 0 is_stmt 0 discriminator 1
 582 02e0 EDE2     		b	.L14
 583              	.L31:
 584              		.loc 6 131 0 is_stmt 1
 585 02e2 039B     		ldr	r3, [sp, #12]
 586 02e4 4233     		adds	r3, r3, #66
 587 02e6 1E48     		ldr	r0, .L72
 588 02e8 1946     		mov	r1, r3
 589 02ea 4FF0FF32 		mov	r2, #-1
 590 02ee FFF7FEFF 		bl	chMBPost
 591 02f2 0290     		str	r0, [sp, #8]
 592              		.loc 6 132 0
 593 02f4 029B     		ldr	r3, [sp, #8]
 594 02f6 002B     		cmp	r3, #0
 595 02f8 14BF     		ite	ne
 596 02fa 0023     		movne	r3, #0
 597 02fc 0123     		moveq	r3, #1
 598 02fe DBB2     		uxtb	r3, r3
 599 0300 0D20     		movs	r0, #13
 600 0302 1946     		mov	r1, r3
 601 0304 FFF7FEFF 		bl	_test_assert
 602 0308 0346     		mov	r3, r0
 603 030a 002B     		cmp	r3, #0
 604 030c 00D0     		beq	.L32
 605              		.loc 6 132 0 is_stmt 0 discriminator 1
 606 030e D6E2     		b	.L14
 607              	.L32:
 608              		.loc 6 133 0 is_stmt 1
 609 0310 01AB     		add	r3, sp, #4
 610 0312 1348     		ldr	r0, .L72
 611 0314 1946     		mov	r1, r3
 612 0316 4FF0FF32 		mov	r2, #-1
 613 031a FFF7FEFF 		bl	chMBFetch
 614 031e 0290     		str	r0, [sp, #8]
 615              		.loc 6 134 0
 616 0320 029B     		ldr	r3, [sp, #8]
 617 0322 002B     		cmp	r3, #0
 618 0324 14BF     		ite	ne
 619 0326 0023     		movne	r3, #0
 620 0328 0123     		moveq	r3, #1
 621 032a DBB2     		uxtb	r3, r3
 622 032c 0E20     		movs	r0, #14
 623 032e 1946     		mov	r1, r3
ARM GAS  /tmp/ccEczbyy.s 			page 12


 624 0330 FFF7FEFF 		bl	_test_assert
 625 0334 0346     		mov	r3, r0
 626 0336 002B     		cmp	r3, #0
 627 0338 00D0     		beq	.L33
 628              		.loc 6 134 0 is_stmt 0 discriminator 1
 629 033a C0E2     		b	.L14
 630              	.L33:
 631              		.loc 6 135 0 is_stmt 1
 632 033c 084B     		ldr	r3, .L72
 633 033e 1A68     		ldr	r2, [r3]
 634 0340 074B     		ldr	r3, .L72
 635 0342 9B68     		ldr	r3, [r3, #8]
 636 0344 9A42     		cmp	r2, r3
 637 0346 14BF     		ite	ne
 638 0348 0023     		movne	r3, #0
 639 034a 0123     		moveq	r3, #1
 640 034c DBB2     		uxtb	r3, r3
 641 034e 0F20     		movs	r0, #15
 642 0350 1946     		mov	r1, r3
 643 0352 FFF7FEFF 		bl	_test_assert
 644 0356 0346     		mov	r3, r0
 645 0358 002B     		cmp	r3, #0
 646 035a 05D0     		beq	.L34
 647              		.loc 6 135 0 is_stmt 0 discriminator 1
 648 035c AFE2     		b	.L14
 649              	.L73:
 650 035e 00BF     		.align	2
 651              	.L72:
 652 0360 00000000 		.word	mb1
 653 0364 00000000 		.word	.LC0
 654              	.L34:
 655              		.loc 6 136 0 is_stmt 1
 656 0368 A94B     		ldr	r3, .L74
 657 036a 1A68     		ldr	r2, [r3]
 658 036c A84B     		ldr	r3, .L74
 659 036e DB68     		ldr	r3, [r3, #12]
 660 0370 9A42     		cmp	r2, r3
 661 0372 14BF     		ite	ne
 662 0374 0023     		movne	r3, #0
 663 0376 0123     		moveq	r3, #1
 664 0378 DBB2     		uxtb	r3, r3
 665 037a 1020     		movs	r0, #16
 666 037c 1946     		mov	r1, r3
 667 037e FFF7FEFF 		bl	_test_assert
 668 0382 0346     		mov	r3, r0
 669 0384 002B     		cmp	r3, #0
 670 0386 00D0     		beq	.L35
 671              		.loc 6 136 0 is_stmt 0 discriminator 1
 672 0388 99E2     		b	.L14
 673              	.L35:
 674              		.loc 6 141 0 is_stmt 1
 675 038a 01AB     		add	r3, sp, #4
 676 038c A048     		ldr	r0, .L74
 677 038e 1946     		mov	r1, r3
 678 0390 0122     		movs	r2, #1
 679 0392 FFF7FEFF 		bl	chMBFetch
 680 0396 0290     		str	r0, [sp, #8]
ARM GAS  /tmp/ccEczbyy.s 			page 13


 681              		.loc 6 142 0
 682 0398 029B     		ldr	r3, [sp, #8]
 683 039a B3F1FF3F 		cmp	r3, #-1
 684 039e 14BF     		ite	ne
 685 03a0 0023     		movne	r3, #0
 686 03a2 0123     		moveq	r3, #1
 687 03a4 DBB2     		uxtb	r3, r3
 688 03a6 1120     		movs	r0, #17
 689 03a8 1946     		mov	r1, r3
 690 03aa FFF7FEFF 		bl	_test_assert
 691 03ae 0346     		mov	r3, r0
 692 03b0 002B     		cmp	r3, #0
 693 03b2 00D0     		beq	.L36
 694              		.loc 6 142 0 is_stmt 0 discriminator 1
 695 03b4 83E2     		b	.L14
 696              	.L36:
 697              		.loc 6 143 0 is_stmt 1
 698 03b6 FFF733FE 		bl	chSysLock
 699              		.loc 6 144 0
 700 03ba 01AB     		add	r3, sp, #4
 701 03bc 9448     		ldr	r0, .L74
 702 03be 1946     		mov	r1, r3
 703 03c0 FFF7FEFF 		bl	chMBFetchI
 704 03c4 0290     		str	r0, [sp, #8]
 705              		.loc 6 145 0
 706 03c6 FFF733FE 		bl	chSysUnlock
 707              		.loc 6 146 0
 708 03ca 029B     		ldr	r3, [sp, #8]
 709 03cc B3F1FF3F 		cmp	r3, #-1
 710 03d0 14BF     		ite	ne
 711 03d2 0023     		movne	r3, #0
 712 03d4 0123     		moveq	r3, #1
 713 03d6 DBB2     		uxtb	r3, r3
 714 03d8 1220     		movs	r0, #18
 715 03da 1946     		mov	r1, r3
 716 03dc FFF7FEFF 		bl	_test_assert
 717 03e0 0346     		mov	r3, r0
 718 03e2 002B     		cmp	r3, #0
 719 03e4 00D0     		beq	.L37
 720              		.loc 6 146 0 is_stmt 0 discriminator 1
 721 03e6 6AE2     		b	.L14
 722              	.L37:
 723              		.loc 6 151 0 is_stmt 1
 724 03e8 FFF71AFE 		bl	chSysLock
 725 03ec 8848     		ldr	r0, .L74
 726 03ee FFF72FFE 		bl	chMBGetFreeCountI
 727 03f2 0346     		mov	r3, r0
 728 03f4 052B     		cmp	r3, #5
 729 03f6 14BF     		ite	ne
 730 03f8 0023     		movne	r3, #0
 731 03fa 0123     		moveq	r3, #1
 732 03fc DBB2     		uxtb	r3, r3
 733 03fe 1320     		movs	r0, #19
 734 0400 1946     		mov	r1, r3
 735 0402 FFF7FEFF 		bl	_test_assert
 736 0406 0346     		mov	r3, r0
 737 0408 002B     		cmp	r3, #0
ARM GAS  /tmp/ccEczbyy.s 			page 14


 738 040a 02D0     		beq	.L38
 739              		.loc 6 151 0 is_stmt 0 discriminator 1
 740 040c FFF710FE 		bl	chSysUnlock
 741 0410 55E2     		b	.L14
 742              	.L38:
 743              		.loc 6 151 0 discriminator 2
 744 0412 FFF70DFE 		bl	chSysUnlock
 745              		.loc 6 152 0 is_stmt 1 discriminator 2
 746 0416 FFF703FE 		bl	chSysLock
 747 041a 7D48     		ldr	r0, .L74
 748 041c FFF728FE 		bl	chMBGetUsedCountI
 749 0420 0346     		mov	r3, r0
 750 0422 002B     		cmp	r3, #0
 751 0424 14BF     		ite	ne
 752 0426 0023     		movne	r3, #0
 753 0428 0123     		moveq	r3, #1
 754 042a DBB2     		uxtb	r3, r3
 755 042c 1420     		movs	r0, #20
 756 042e 1946     		mov	r1, r3
 757 0430 FFF7FEFF 		bl	_test_assert
 758 0434 0346     		mov	r3, r0
 759 0436 002B     		cmp	r3, #0
 760 0438 02D0     		beq	.L39
 761              		.loc 6 152 0 is_stmt 0 discriminator 1
 762 043a FFF7F9FD 		bl	chSysUnlock
 763 043e 3EE2     		b	.L14
 764              	.L39:
 765              		.loc 6 152 0 discriminator 2
 766 0440 FFF7F6FD 		bl	chSysUnlock
 767              		.loc 6 153 0 is_stmt 1 discriminator 2
 768 0444 FFF7ECFD 		bl	chSysLock
 769 0448 714B     		ldr	r3, .L74
 770 044a DA68     		ldr	r2, [r3, #12]
 771 044c 704B     		ldr	r3, .L74
 772 044e 9B68     		ldr	r3, [r3, #8]
 773 0450 9A42     		cmp	r2, r3
 774 0452 14BF     		ite	ne
 775 0454 0023     		movne	r3, #0
 776 0456 0123     		moveq	r3, #1
 777 0458 DBB2     		uxtb	r3, r3
 778 045a 1520     		movs	r0, #21
 779 045c 1946     		mov	r1, r3
 780 045e FFF7FEFF 		bl	_test_assert
 781 0462 0346     		mov	r3, r0
 782 0464 002B     		cmp	r3, #0
 783 0466 02D0     		beq	.L40
 784              		.loc 6 153 0 is_stmt 0 discriminator 1
 785 0468 FFF7E2FD 		bl	chSysUnlock
 786 046c 27E2     		b	.L14
 787              	.L40:
 788              		.loc 6 153 0 discriminator 2
 789 046e FFF7DFFD 		bl	chSysUnlock
 790              		.loc 6 158 0 is_stmt 1 discriminator 2
 791 0472 FFF7D5FD 		bl	chSysLock
 792              		.loc 6 159 0 discriminator 2
 793 0476 6648     		ldr	r0, .L74
 794 0478 4121     		movs	r1, #65
ARM GAS  /tmp/ccEczbyy.s 			page 15


 795 047a FFF7FEFF 		bl	chMBPostI
 796 047e 0290     		str	r0, [sp, #8]
 797              		.loc 6 160 0 discriminator 2
 798 0480 029B     		ldr	r3, [sp, #8]
 799 0482 002B     		cmp	r3, #0
 800 0484 14BF     		ite	ne
 801 0486 0023     		movne	r3, #0
 802 0488 0123     		moveq	r3, #1
 803 048a DBB2     		uxtb	r3, r3
 804 048c 1620     		movs	r0, #22
 805 048e 1946     		mov	r1, r3
 806 0490 FFF7FEFF 		bl	_test_assert
 807 0494 0346     		mov	r3, r0
 808 0496 002B     		cmp	r3, #0
 809 0498 00D0     		beq	.L41
 810              		.loc 6 160 0 is_stmt 0 discriminator 1
 811 049a 10E2     		b	.L14
 812              	.L41:
 813              		.loc 6 161 0 is_stmt 1
 814 049c 5C48     		ldr	r0, .L74
 815 049e 4221     		movs	r1, #66
 816 04a0 FFF7FEFF 		bl	chMBPostI
 817 04a4 0290     		str	r0, [sp, #8]
 818              		.loc 6 162 0
 819 04a6 029B     		ldr	r3, [sp, #8]
 820 04a8 002B     		cmp	r3, #0
 821 04aa 14BF     		ite	ne
 822 04ac 0023     		movne	r3, #0
 823 04ae 0123     		moveq	r3, #1
 824 04b0 DBB2     		uxtb	r3, r3
 825 04b2 1720     		movs	r0, #23
 826 04b4 1946     		mov	r1, r3
 827 04b6 FFF7FEFF 		bl	_test_assert
 828 04ba 0346     		mov	r3, r0
 829 04bc 002B     		cmp	r3, #0
 830 04be 00D0     		beq	.L42
 831              		.loc 6 162 0 is_stmt 0 discriminator 1
 832 04c0 FDE1     		b	.L14
 833              	.L42:
 834              		.loc 6 163 0 is_stmt 1
 835 04c2 5348     		ldr	r0, .L74
 836 04c4 4321     		movs	r1, #67
 837 04c6 FFF7FEFF 		bl	chMBPostI
 838 04ca 0290     		str	r0, [sp, #8]
 839              		.loc 6 164 0
 840 04cc 029B     		ldr	r3, [sp, #8]
 841 04ce 002B     		cmp	r3, #0
 842 04d0 14BF     		ite	ne
 843 04d2 0023     		movne	r3, #0
 844 04d4 0123     		moveq	r3, #1
 845 04d6 DBB2     		uxtb	r3, r3
 846 04d8 1820     		movs	r0, #24
 847 04da 1946     		mov	r1, r3
 848 04dc FFF7FEFF 		bl	_test_assert
 849 04e0 0346     		mov	r3, r0
 850 04e2 002B     		cmp	r3, #0
 851 04e4 00D0     		beq	.L43
ARM GAS  /tmp/ccEczbyy.s 			page 16


 852              		.loc 6 164 0 is_stmt 0 discriminator 1
 853 04e6 EAE1     		b	.L14
 854              	.L43:
 855              		.loc 6 165 0 is_stmt 1
 856 04e8 4948     		ldr	r0, .L74
 857 04ea 4421     		movs	r1, #68
 858 04ec FFF7FEFF 		bl	chMBPostI
 859 04f0 0290     		str	r0, [sp, #8]
 860              		.loc 6 166 0
 861 04f2 029B     		ldr	r3, [sp, #8]
 862 04f4 002B     		cmp	r3, #0
 863 04f6 14BF     		ite	ne
 864 04f8 0023     		movne	r3, #0
 865 04fa 0123     		moveq	r3, #1
 866 04fc DBB2     		uxtb	r3, r3
 867 04fe 1920     		movs	r0, #25
 868 0500 1946     		mov	r1, r3
 869 0502 FFF7FEFF 		bl	_test_assert
 870 0506 0346     		mov	r3, r0
 871 0508 002B     		cmp	r3, #0
 872 050a 00D0     		beq	.L44
 873              		.loc 6 166 0 is_stmt 0 discriminator 1
 874 050c D7E1     		b	.L14
 875              	.L44:
 876              		.loc 6 167 0 is_stmt 1
 877 050e 4048     		ldr	r0, .L74
 878 0510 4521     		movs	r1, #69
 879 0512 FFF7FEFF 		bl	chMBPostI
 880 0516 0290     		str	r0, [sp, #8]
 881              		.loc 6 168 0
 882 0518 FFF78AFD 		bl	chSysUnlock
 883              		.loc 6 169 0
 884 051c 029B     		ldr	r3, [sp, #8]
 885 051e 002B     		cmp	r3, #0
 886 0520 14BF     		ite	ne
 887 0522 0023     		movne	r3, #0
 888 0524 0123     		moveq	r3, #1
 889 0526 DBB2     		uxtb	r3, r3
 890 0528 1A20     		movs	r0, #26
 891 052a 1946     		mov	r1, r3
 892 052c FFF7FEFF 		bl	_test_assert
 893 0530 0346     		mov	r3, r0
 894 0532 002B     		cmp	r3, #0
 895 0534 00D0     		beq	.L45
 896              		.loc 6 169 0 is_stmt 0 discriminator 1
 897 0536 C2E1     		b	.L14
 898              	.L45:
 899              		.loc 6 170 0 is_stmt 1
 900 0538 354B     		ldr	r3, .L74
 901 053a DA68     		ldr	r2, [r3, #12]
 902 053c 344B     		ldr	r3, .L74
 903 053e 9B68     		ldr	r3, [r3, #8]
 904 0540 9A42     		cmp	r2, r3
 905 0542 14BF     		ite	ne
 906 0544 0023     		movne	r3, #0
 907 0546 0123     		moveq	r3, #1
 908 0548 DBB2     		uxtb	r3, r3
ARM GAS  /tmp/ccEczbyy.s 			page 17


 909 054a 1B20     		movs	r0, #27
 910 054c 1946     		mov	r1, r3
 911 054e FFF7FEFF 		bl	_test_assert
 912 0552 0346     		mov	r3, r0
 913 0554 002B     		cmp	r3, #0
 914 0556 00D0     		beq	.L46
 915              		.loc 6 170 0 is_stmt 0 discriminator 1
 916 0558 B1E1     		b	.L14
 917              	.L46:
 918              		.loc 6 171 0 is_stmt 1
 919 055a 0023     		movs	r3, #0
 920 055c 0393     		str	r3, [sp, #12]
 921 055e 1FE0     		b	.L47
 922              	.L49:
 923              		.loc 6 172 0
 924 0560 FFF75EFD 		bl	chSysLock
 925              		.loc 6 173 0
 926 0564 01AB     		add	r3, sp, #4
 927 0566 2A48     		ldr	r0, .L74
 928 0568 1946     		mov	r1, r3
 929 056a FFF7FEFF 		bl	chMBFetchI
 930 056e 0290     		str	r0, [sp, #8]
 931              		.loc 6 174 0
 932 0570 FFF75EFD 		bl	chSysUnlock
 933              		.loc 6 175 0
 934 0574 029B     		ldr	r3, [sp, #8]
 935 0576 002B     		cmp	r3, #0
 936 0578 14BF     		ite	ne
 937 057a 0023     		movne	r3, #0
 938 057c 0123     		moveq	r3, #1
 939 057e DBB2     		uxtb	r3, r3
 940 0580 1C20     		movs	r0, #28
 941 0582 1946     		mov	r1, r3
 942 0584 FFF7FEFF 		bl	_test_assert
 943 0588 0346     		mov	r3, r0
 944 058a 002B     		cmp	r3, #0
 945 058c 00D0     		beq	.L48
 946              		.loc 6 175 0 is_stmt 0 discriminator 1
 947 058e 96E1     		b	.L14
 948              	.L48:
 949              		.loc 6 176 0 is_stmt 1
 950 0590 019B     		ldr	r3, [sp, #4]
 951 0592 DBB2     		uxtb	r3, r3
 952 0594 1846     		mov	r0, r3
 953 0596 FFF7FEFF 		bl	test_emit_token
 954              		.loc 6 171 0
 955 059a 039B     		ldr	r3, [sp, #12]
 956 059c 0133     		adds	r3, r3, #1
 957 059e 0393     		str	r3, [sp, #12]
 958              	.L47:
 959              		.loc 6 171 0 is_stmt 0 discriminator 1
 960 05a0 039B     		ldr	r3, [sp, #12]
 961 05a2 042B     		cmp	r3, #4
 962 05a4 DCD9     		bls	.L49
 963              		.loc 6 178 0 is_stmt 1
 964 05a6 1D20     		movs	r0, #29
 965 05a8 1A49     		ldr	r1, .L74+4
ARM GAS  /tmp/ccEczbyy.s 			page 18


 966 05aa FFF7FEFF 		bl	_test_assert_sequence
 967 05ae 0346     		mov	r3, r0
 968 05b0 002B     		cmp	r3, #0
 969 05b2 00D0     		beq	.L50
 970              		.loc 6 178 0 is_stmt 0 discriminator 1
 971 05b4 83E1     		b	.L14
 972              	.L50:
 973              		.loc 6 179 0 is_stmt 1
 974 05b6 FFF733FD 		bl	chSysLock
 975 05ba 1548     		ldr	r0, .L74
 976 05bc FFF748FD 		bl	chMBGetFreeCountI
 977 05c0 0346     		mov	r3, r0
 978 05c2 052B     		cmp	r3, #5
 979 05c4 14BF     		ite	ne
 980 05c6 0023     		movne	r3, #0
 981 05c8 0123     		moveq	r3, #1
 982 05ca DBB2     		uxtb	r3, r3
 983 05cc 1E20     		movs	r0, #30
 984 05ce 1946     		mov	r1, r3
 985 05d0 FFF7FEFF 		bl	_test_assert
 986 05d4 0346     		mov	r3, r0
 987 05d6 002B     		cmp	r3, #0
 988 05d8 02D0     		beq	.L51
 989              		.loc 6 179 0 is_stmt 0 discriminator 1
 990 05da FFF729FD 		bl	chSysUnlock
 991 05de 6EE1     		b	.L14
 992              	.L51:
 993              		.loc 6 179 0 discriminator 2
 994 05e0 FFF726FD 		bl	chSysUnlock
 995              		.loc 6 180 0 is_stmt 1 discriminator 2
 996 05e4 FFF71CFD 		bl	chSysLock
 997 05e8 0948     		ldr	r0, .L74
 998 05ea FFF741FD 		bl	chMBGetUsedCountI
 999 05ee 0346     		mov	r3, r0
 1000 05f0 002B     		cmp	r3, #0
 1001 05f2 14BF     		ite	ne
 1002 05f4 0023     		movne	r3, #0
 1003 05f6 0123     		moveq	r3, #1
 1004 05f8 DBB2     		uxtb	r3, r3
 1005 05fa 1F20     		movs	r0, #31
 1006 05fc 1946     		mov	r1, r3
 1007 05fe FFF7FEFF 		bl	_test_assert
 1008 0602 0346     		mov	r3, r0
 1009 0604 002B     		cmp	r3, #0
 1010 0606 07D0     		beq	.L52
 1011              		.loc 6 180 0 is_stmt 0 discriminator 1
 1012 0608 FFF712FD 		bl	chSysUnlock
 1013 060c 57E1     		b	.L14
 1014              	.L75:
 1015 060e 00BF     		.align	2
 1016              	.L74:
 1017 0610 00000000 		.word	mb1
 1018 0614 00000000 		.word	.LC0
 1019              	.L52:
 1020              		.loc 6 180 0 discriminator 2
 1021 0618 FFF70AFD 		bl	chSysUnlock
 1022              		.loc 6 181 0 is_stmt 1 discriminator 2
ARM GAS  /tmp/ccEczbyy.s 			page 19


 1023 061c A94B     		ldr	r3, .L76
 1024 061e DA68     		ldr	r2, [r3, #12]
 1025 0620 A84B     		ldr	r3, .L76
 1026 0622 9B68     		ldr	r3, [r3, #8]
 1027 0624 9A42     		cmp	r2, r3
 1028 0626 14BF     		ite	ne
 1029 0628 0023     		movne	r3, #0
 1030 062a 0123     		moveq	r3, #1
 1031 062c DBB2     		uxtb	r3, r3
 1032 062e 2020     		movs	r0, #32
 1033 0630 1946     		mov	r1, r3
 1034 0632 FFF7FEFF 		bl	_test_assert
 1035 0636 0346     		mov	r3, r0
 1036 0638 002B     		cmp	r3, #0
 1037 063a 00D0     		beq	.L53
 1038              		.loc 6 181 0 is_stmt 0 discriminator 1
 1039 063c 3FE1     		b	.L14
 1040              	.L53:
 1041              		.loc 6 183 0 is_stmt 1
 1042 063e FFF7EFFC 		bl	chSysLock
 1043              		.loc 6 184 0
 1044 0642 A048     		ldr	r0, .L76
 1045 0644 4521     		movs	r1, #69
 1046 0646 FFF7FEFF 		bl	chMBPostAheadI
 1047 064a 0290     		str	r0, [sp, #8]
 1048              		.loc 6 185 0
 1049 064c 029B     		ldr	r3, [sp, #8]
 1050 064e 002B     		cmp	r3, #0
 1051 0650 14BF     		ite	ne
 1052 0652 0023     		movne	r3, #0
 1053 0654 0123     		moveq	r3, #1
 1054 0656 DBB2     		uxtb	r3, r3
 1055 0658 2120     		movs	r0, #33
 1056 065a 1946     		mov	r1, r3
 1057 065c FFF7FEFF 		bl	_test_assert
 1058 0660 0346     		mov	r3, r0
 1059 0662 002B     		cmp	r3, #0
 1060 0664 00D0     		beq	.L54
 1061              		.loc 6 185 0 is_stmt 0 discriminator 1
 1062 0666 2AE1     		b	.L14
 1063              	.L54:
 1064              		.loc 6 186 0 is_stmt 1
 1065 0668 9648     		ldr	r0, .L76
 1066 066a 4421     		movs	r1, #68
 1067 066c FFF7FEFF 		bl	chMBPostAheadI
 1068 0670 0290     		str	r0, [sp, #8]
 1069              		.loc 6 187 0
 1070 0672 029B     		ldr	r3, [sp, #8]
 1071 0674 002B     		cmp	r3, #0
 1072 0676 14BF     		ite	ne
 1073 0678 0023     		movne	r3, #0
 1074 067a 0123     		moveq	r3, #1
 1075 067c DBB2     		uxtb	r3, r3
 1076 067e 2220     		movs	r0, #34
 1077 0680 1946     		mov	r1, r3
 1078 0682 FFF7FEFF 		bl	_test_assert
 1079 0686 0346     		mov	r3, r0
ARM GAS  /tmp/ccEczbyy.s 			page 20


 1080 0688 002B     		cmp	r3, #0
 1081 068a 00D0     		beq	.L55
 1082              		.loc 6 187 0 is_stmt 0 discriminator 1
 1083 068c 17E1     		b	.L14
 1084              	.L55:
 1085              		.loc 6 188 0 is_stmt 1
 1086 068e 8D48     		ldr	r0, .L76
 1087 0690 4321     		movs	r1, #67
 1088 0692 FFF7FEFF 		bl	chMBPostAheadI
 1089 0696 0290     		str	r0, [sp, #8]
 1090              		.loc 6 189 0
 1091 0698 029B     		ldr	r3, [sp, #8]
 1092 069a 002B     		cmp	r3, #0
 1093 069c 14BF     		ite	ne
 1094 069e 0023     		movne	r3, #0
 1095 06a0 0123     		moveq	r3, #1
 1096 06a2 DBB2     		uxtb	r3, r3
 1097 06a4 2320     		movs	r0, #35
 1098 06a6 1946     		mov	r1, r3
 1099 06a8 FFF7FEFF 		bl	_test_assert
 1100 06ac 0346     		mov	r3, r0
 1101 06ae 002B     		cmp	r3, #0
 1102 06b0 00D0     		beq	.L56
 1103              		.loc 6 189 0 is_stmt 0 discriminator 1
 1104 06b2 04E1     		b	.L14
 1105              	.L56:
 1106              		.loc 6 190 0 is_stmt 1
 1107 06b4 8348     		ldr	r0, .L76
 1108 06b6 4221     		movs	r1, #66
 1109 06b8 FFF7FEFF 		bl	chMBPostAheadI
 1110 06bc 0290     		str	r0, [sp, #8]
 1111              		.loc 6 191 0
 1112 06be 029B     		ldr	r3, [sp, #8]
 1113 06c0 002B     		cmp	r3, #0
 1114 06c2 14BF     		ite	ne
 1115 06c4 0023     		movne	r3, #0
 1116 06c6 0123     		moveq	r3, #1
 1117 06c8 DBB2     		uxtb	r3, r3
 1118 06ca 2420     		movs	r0, #36
 1119 06cc 1946     		mov	r1, r3
 1120 06ce FFF7FEFF 		bl	_test_assert
 1121 06d2 0346     		mov	r3, r0
 1122 06d4 002B     		cmp	r3, #0
 1123 06d6 00D0     		beq	.L57
 1124              		.loc 6 191 0 is_stmt 0 discriminator 1
 1125 06d8 F1E0     		b	.L14
 1126              	.L57:
 1127              		.loc 6 192 0 is_stmt 1
 1128 06da 7A48     		ldr	r0, .L76
 1129 06dc 4121     		movs	r1, #65
 1130 06de FFF7FEFF 		bl	chMBPostAheadI
 1131 06e2 0290     		str	r0, [sp, #8]
 1132              		.loc 6 193 0
 1133 06e4 FFF7A4FC 		bl	chSysUnlock
 1134              		.loc 6 194 0
 1135 06e8 029B     		ldr	r3, [sp, #8]
 1136 06ea 002B     		cmp	r3, #0
ARM GAS  /tmp/ccEczbyy.s 			page 21


 1137 06ec 14BF     		ite	ne
 1138 06ee 0023     		movne	r3, #0
 1139 06f0 0123     		moveq	r3, #1
 1140 06f2 DBB2     		uxtb	r3, r3
 1141 06f4 2520     		movs	r0, #37
 1142 06f6 1946     		mov	r1, r3
 1143 06f8 FFF7FEFF 		bl	_test_assert
 1144 06fc 0346     		mov	r3, r0
 1145 06fe 002B     		cmp	r3, #0
 1146 0700 00D0     		beq	.L58
 1147              		.loc 6 194 0 is_stmt 0 discriminator 1
 1148 0702 DCE0     		b	.L14
 1149              	.L58:
 1150              		.loc 6 195 0 is_stmt 1
 1151 0704 6F4B     		ldr	r3, .L76
 1152 0706 DA68     		ldr	r2, [r3, #12]
 1153 0708 6E4B     		ldr	r3, .L76
 1154 070a 9B68     		ldr	r3, [r3, #8]
 1155 070c 9A42     		cmp	r2, r3
 1156 070e 14BF     		ite	ne
 1157 0710 0023     		movne	r3, #0
 1158 0712 0123     		moveq	r3, #1
 1159 0714 DBB2     		uxtb	r3, r3
 1160 0716 2620     		movs	r0, #38
 1161 0718 1946     		mov	r1, r3
 1162 071a FFF7FEFF 		bl	_test_assert
 1163 071e 0346     		mov	r3, r0
 1164 0720 002B     		cmp	r3, #0
 1165 0722 00D0     		beq	.L59
 1166              		.loc 6 195 0 is_stmt 0 discriminator 1
 1167 0724 CBE0     		b	.L14
 1168              	.L59:
 1169              		.loc 6 196 0 is_stmt 1
 1170 0726 0023     		movs	r3, #0
 1171 0728 0393     		str	r3, [sp, #12]
 1172 072a 1FE0     		b	.L60
 1173              	.L62:
 1174              		.loc 6 197 0
 1175 072c FFF778FC 		bl	chSysLock
 1176              		.loc 6 198 0
 1177 0730 01AB     		add	r3, sp, #4
 1178 0732 6448     		ldr	r0, .L76
 1179 0734 1946     		mov	r1, r3
 1180 0736 FFF7FEFF 		bl	chMBFetchI
 1181 073a 0290     		str	r0, [sp, #8]
 1182              		.loc 6 199 0
 1183 073c FFF778FC 		bl	chSysUnlock
 1184              		.loc 6 200 0
 1185 0740 029B     		ldr	r3, [sp, #8]
 1186 0742 002B     		cmp	r3, #0
 1187 0744 14BF     		ite	ne
 1188 0746 0023     		movne	r3, #0
 1189 0748 0123     		moveq	r3, #1
 1190 074a DBB2     		uxtb	r3, r3
 1191 074c 2720     		movs	r0, #39
 1192 074e 1946     		mov	r1, r3
 1193 0750 FFF7FEFF 		bl	_test_assert
ARM GAS  /tmp/ccEczbyy.s 			page 22


 1194 0754 0346     		mov	r3, r0
 1195 0756 002B     		cmp	r3, #0
 1196 0758 00D0     		beq	.L61
 1197              		.loc 6 200 0 is_stmt 0 discriminator 1
 1198 075a B0E0     		b	.L14
 1199              	.L61:
 1200              		.loc 6 201 0 is_stmt 1
 1201 075c 019B     		ldr	r3, [sp, #4]
 1202 075e DBB2     		uxtb	r3, r3
 1203 0760 1846     		mov	r0, r3
 1204 0762 FFF7FEFF 		bl	test_emit_token
 1205              		.loc 6 196 0
 1206 0766 039B     		ldr	r3, [sp, #12]
 1207 0768 0133     		adds	r3, r3, #1
 1208 076a 0393     		str	r3, [sp, #12]
 1209              	.L60:
 1210              		.loc 6 196 0 is_stmt 0 discriminator 1
 1211 076c 039B     		ldr	r3, [sp, #12]
 1212 076e 042B     		cmp	r3, #4
 1213 0770 DCD9     		bls	.L62
 1214              		.loc 6 203 0 is_stmt 1
 1215 0772 2820     		movs	r0, #40
 1216 0774 5449     		ldr	r1, .L76+4
 1217 0776 FFF7FEFF 		bl	_test_assert_sequence
 1218 077a 0346     		mov	r3, r0
 1219 077c 002B     		cmp	r3, #0
 1220 077e 00D0     		beq	.L63
 1221              		.loc 6 203 0 is_stmt 0 discriminator 1
 1222 0780 9DE0     		b	.L14
 1223              	.L63:
 1224              		.loc 6 204 0 is_stmt 1
 1225 0782 FFF74DFC 		bl	chSysLock
 1226 0786 4F48     		ldr	r0, .L76
 1227 0788 FFF762FC 		bl	chMBGetFreeCountI
 1228 078c 0346     		mov	r3, r0
 1229 078e 052B     		cmp	r3, #5
 1230 0790 14BF     		ite	ne
 1231 0792 0023     		movne	r3, #0
 1232 0794 0123     		moveq	r3, #1
 1233 0796 DBB2     		uxtb	r3, r3
 1234 0798 2920     		movs	r0, #41
 1235 079a 1946     		mov	r1, r3
 1236 079c FFF7FEFF 		bl	_test_assert
 1237 07a0 0346     		mov	r3, r0
 1238 07a2 002B     		cmp	r3, #0
 1239 07a4 02D0     		beq	.L64
 1240              		.loc 6 204 0 is_stmt 0 discriminator 1
 1241 07a6 FFF743FC 		bl	chSysUnlock
 1242 07aa 88E0     		b	.L14
 1243              	.L64:
 1244              		.loc 6 204 0 discriminator 2
 1245 07ac FFF740FC 		bl	chSysUnlock
 1246              		.loc 6 205 0 is_stmt 1 discriminator 2
 1247 07b0 FFF736FC 		bl	chSysLock
 1248 07b4 4348     		ldr	r0, .L76
 1249 07b6 FFF75BFC 		bl	chMBGetUsedCountI
 1250 07ba 0346     		mov	r3, r0
ARM GAS  /tmp/ccEczbyy.s 			page 23


 1251 07bc 002B     		cmp	r3, #0
 1252 07be 14BF     		ite	ne
 1253 07c0 0023     		movne	r3, #0
 1254 07c2 0123     		moveq	r3, #1
 1255 07c4 DBB2     		uxtb	r3, r3
 1256 07c6 2A20     		movs	r0, #42
 1257 07c8 1946     		mov	r1, r3
 1258 07ca FFF7FEFF 		bl	_test_assert
 1259 07ce 0346     		mov	r3, r0
 1260 07d0 002B     		cmp	r3, #0
 1261 07d2 02D0     		beq	.L65
 1262              		.loc 6 205 0 is_stmt 0 discriminator 1
 1263 07d4 FFF72CFC 		bl	chSysUnlock
 1264 07d8 71E0     		b	.L14
 1265              	.L65:
 1266              		.loc 6 205 0 discriminator 2
 1267 07da FFF729FC 		bl	chSysUnlock
 1268              		.loc 6 206 0 is_stmt 1 discriminator 2
 1269 07de 394B     		ldr	r3, .L76
 1270 07e0 DA68     		ldr	r2, [r3, #12]
 1271 07e2 384B     		ldr	r3, .L76
 1272 07e4 9B68     		ldr	r3, [r3, #8]
 1273 07e6 9A42     		cmp	r2, r3
 1274 07e8 14BF     		ite	ne
 1275 07ea 0023     		movne	r3, #0
 1276 07ec 0123     		moveq	r3, #1
 1277 07ee DBB2     		uxtb	r3, r3
 1278 07f0 2B20     		movs	r0, #43
 1279 07f2 1946     		mov	r1, r3
 1280 07f4 FFF7FEFF 		bl	_test_assert
 1281 07f8 0346     		mov	r3, r0
 1282 07fa 002B     		cmp	r3, #0
 1283 07fc 00D0     		beq	.L66
 1284              		.loc 6 206 0 is_stmt 0 discriminator 1
 1285 07fe 5EE0     		b	.L14
 1286              	.L66:
 1287              		.loc 6 211 0 is_stmt 1
 1288 0800 3048     		ldr	r0, .L76
 1289 0802 FFF7FEFF 		bl	chMBReset
 1290              		.loc 6 216 0
 1291 0806 FFF70BFC 		bl	chSysLock
 1292 080a 2E48     		ldr	r0, .L76
 1293 080c FFF720FC 		bl	chMBGetFreeCountI
 1294 0810 0346     		mov	r3, r0
 1295 0812 052B     		cmp	r3, #5
 1296 0814 14BF     		ite	ne
 1297 0816 0023     		movne	r3, #0
 1298 0818 0123     		moveq	r3, #1
 1299 081a DBB2     		uxtb	r3, r3
 1300 081c 2C20     		movs	r0, #44
 1301 081e 1946     		mov	r1, r3
 1302 0820 FFF7FEFF 		bl	_test_assert
 1303 0824 0346     		mov	r3, r0
 1304 0826 002B     		cmp	r3, #0
 1305 0828 02D0     		beq	.L67
 1306              		.loc 6 216 0 is_stmt 0 discriminator 1
 1307 082a FFF701FC 		bl	chSysUnlock
ARM GAS  /tmp/ccEczbyy.s 			page 24


 1308 082e 46E0     		b	.L14
 1309              	.L67:
 1310              		.loc 6 216 0 discriminator 2
 1311 0830 FFF7FEFB 		bl	chSysUnlock
 1312              		.loc 6 217 0 is_stmt 1 discriminator 2
 1313 0834 FFF7F4FB 		bl	chSysLock
 1314 0838 2248     		ldr	r0, .L76
 1315 083a FFF719FC 		bl	chMBGetUsedCountI
 1316 083e 0346     		mov	r3, r0
 1317 0840 002B     		cmp	r3, #0
 1318 0842 14BF     		ite	ne
 1319 0844 0023     		movne	r3, #0
 1320 0846 0123     		moveq	r3, #1
 1321 0848 DBB2     		uxtb	r3, r3
 1322 084a 2D20     		movs	r0, #45
 1323 084c 1946     		mov	r1, r3
 1324 084e FFF7FEFF 		bl	_test_assert
 1325 0852 0346     		mov	r3, r0
 1326 0854 002B     		cmp	r3, #0
 1327 0856 02D0     		beq	.L68
 1328              		.loc 6 217 0 is_stmt 0 discriminator 1
 1329 0858 FFF7EAFB 		bl	chSysUnlock
 1330 085c 2FE0     		b	.L14
 1331              	.L68:
 1332              		.loc 6 217 0 discriminator 2
 1333 085e FFF7E7FB 		bl	chSysUnlock
 1334              		.loc 6 218 0 is_stmt 1 discriminator 2
 1335 0862 FFF7DDFB 		bl	chSysLock
 1336 0866 174B     		ldr	r3, .L76
 1337 0868 1A68     		ldr	r2, [r3]
 1338 086a 164B     		ldr	r3, .L76
 1339 086c 9B68     		ldr	r3, [r3, #8]
 1340 086e 9A42     		cmp	r2, r3
 1341 0870 14BF     		ite	ne
 1342 0872 0023     		movne	r3, #0
 1343 0874 0123     		moveq	r3, #1
 1344 0876 DBB2     		uxtb	r3, r3
 1345 0878 2E20     		movs	r0, #46
 1346 087a 1946     		mov	r1, r3
 1347 087c FFF7FEFF 		bl	_test_assert
 1348 0880 0346     		mov	r3, r0
 1349 0882 002B     		cmp	r3, #0
 1350 0884 02D0     		beq	.L69
 1351              		.loc 6 218 0 is_stmt 0 discriminator 1
 1352 0886 FFF7D3FB 		bl	chSysUnlock
 1353 088a 18E0     		b	.L14
 1354              	.L69:
 1355              		.loc 6 218 0 discriminator 2
 1356 088c FFF7D0FB 		bl	chSysUnlock
 1357              		.loc 6 219 0 is_stmt 1 discriminator 2
 1358 0890 FFF7C6FB 		bl	chSysLock
 1359 0894 0B4B     		ldr	r3, .L76
 1360 0896 1A68     		ldr	r2, [r3]
 1361 0898 0A4B     		ldr	r3, .L76
 1362 089a DB68     		ldr	r3, [r3, #12]
 1363 089c 9A42     		cmp	r2, r3
 1364 089e 14BF     		ite	ne
ARM GAS  /tmp/ccEczbyy.s 			page 25


 1365 08a0 0023     		movne	r3, #0
 1366 08a2 0123     		moveq	r3, #1
 1367 08a4 DBB2     		uxtb	r3, r3
 1368 08a6 2F20     		movs	r0, #47
 1369 08a8 1946     		mov	r1, r3
 1370 08aa FFF7FEFF 		bl	_test_assert
 1371 08ae 0346     		mov	r3, r0
 1372 08b0 002B     		cmp	r3, #0
 1373 08b2 02D0     		beq	.L70
 1374              		.loc 6 219 0 is_stmt 0 discriminator 1
 1375 08b4 FFF7BCFB 		bl	chSysUnlock
 1376 08b8 01E0     		b	.L14
 1377              	.L70:
 1378              		.loc 6 219 0 discriminator 2
 1379 08ba FFF7B9FB 		bl	chSysUnlock
 1380              	.L14:
 1381              		.loc 6 220 0 is_stmt 1
 1382 08be 05B0     		add	sp, sp, #20
 1383              		@ sp needed
 1384 08c0 5DF804FB 		ldr	pc, [sp], #4
 1385              	.L77:
 1386              		.align	2
 1387              	.L76:
 1388 08c4 00000000 		.word	mb1
 1389 08c8 00000000 		.word	.LC0
 1390              		.cfi_endproc
 1391              	.LFE231:
 1392              		.size	mbox1_execute, .-mbox1_execute
 1393              		.global	testmbox1
 1394              		.section	.rodata
 1395 0006 0000     		.align	2
 1396              	.LC1:
 1397 0008 4D61696C 		.ascii	"Mailboxes, queuing and timeouts\000"
 1397      626F7865 
 1397      732C2071 
 1397      75657569 
 1397      6E672061 
 1398              		.align	2
 1399              		.type	testmbox1, %object
 1400              		.size	testmbox1, 16
 1401              	testmbox1:
 1402 0028 08000000 		.word	.LC1
 1403 002c 00000000 		.word	mbox1_setup
 1404 0030 00000000 		.word	0
 1405 0034 00000000 		.word	mbox1_execute
 1406              		.global	patternmbox
 1407              		.align	2
 1408              		.type	patternmbox, %object
 1409              		.size	patternmbox, 8
 1410              	patternmbox:
 1411 0038 00000000 		.word	testmbox1
 1412 003c 00000000 		.word	0
 1413              		.text
 1414              	.Letext0:
 1415              		.file 7 "/nfs/nfs5/home/research/hardware/arm2/gcc-arm-embedded/gcc-arm-none-eabi-4_8-2014q2/lib/g
 1416              		.file 8 "/nfs/nfs5/home/research/hardware/arm2/gcc-arm-embedded/gcc-arm-none-eabi-4_8-2014q2/arm-n
 1417              		.file 9 "/nfs/nfs5/home/research/hardware/arm2/gcc-arm-embedded/gcc-arm-none-eabi-4_8-2014q2/arm-n
ARM GAS  /tmp/ccEczbyy.s 			page 26


 1418              		.file 10 "../../ChibiOS/os/rt/ports/ARMCMx/compilers/GCC/chtypes.h"
 1419              		.file 11 "../../ChibiOS/os/rt/include/chsystypes.h"
 1420              		.file 12 "../../ChibiOS/os/rt/include/chschd.h"
 1421              		.file 13 "../../ChibiOS/os/rt/ports/ARMCMx/chcore.h"
 1422              		.file 14 "../../ChibiOS/os/rt/include/chtm.h"
 1423              		.file 15 "../../ChibiOS/os/rt/include/chmtx.h"
 1424              		.file 16 "../../ChibiOS/test/rt/test.h"
 1425              		.file 17 "../../ChibiOS/os/ext/CMSIS/include/core_cm4.h"