ARM GAS  /tmp/ccSzKpZi.s 			page 1


   1              		.syntax unified
   2              		.cpu cortex-m4
   3              		.fpu softvfp
   4              		.eabi_attribute 20, 1
   5              		.eabi_attribute 21, 1
   6              		.eabi_attribute 23, 3
   7              		.eabi_attribute 24, 1
   8              		.eabi_attribute 25, 1
   9              		.eabi_attribute 26, 1
  10              		.eabi_attribute 30, 6
  11              		.eabi_attribute 34, 1
  12              		.eabi_attribute 18, 4
  13              		.thumb
  14              		.file	"testsem.c"
  15              		.text
  16              	.Ltext0:
  17              		.cfi_sections	.debug_frame
  18              		.align	2
  19              		.p2align 4,,15
  20              		.thumb
  21              		.thumb_func
  22              		.type	port_lock, %function
  23              	port_lock:
  24              	.LFB127:
  25              		.file 1 "../../ChibiOS/os/rt/ports/ARMCMx/chcore_v7m.h"
  26              		.loc 1 456 0
  27              		.cfi_startproc
  28              		@ args = 0, pretend = 0, frame = 8
  29              		@ frame_needed = 0, uses_anonymous_args = 0
  30              		@ link register save eliminated.
  31 0000 82B0     		sub	sp, sp, #8
  32              		.cfi_def_cfa_offset 8
  33 0002 2023     		movs	r3, #32
  34 0004 0193     		str	r3, [sp, #4]
  35              	.LBB6:
  36              	.LBB7:
  37              		.file 2 "../../ChibiOS/os/ext/CMSIS/include/core_cmFunc.h"
  38              		.loc 2 548 0
  39 0006 019B     		ldr	r3, [sp, #4]
  40              	@ 548 "../../ChibiOS/os/ext/CMSIS/include/core_cmFunc.h" 1
  41 0008 83F31188 		MSR basepri, r3
  42              	@ 0 "" 2
  43              		.thumb
  44              	.LBE7:
  45              	.LBE6:
  46              		.loc 1 473 0
  47 000c 02B0     		add	sp, sp, #8
  48              		@ sp needed
  49 000e 7047     		bx	lr
  50              		.cfi_endproc
  51              	.LFE127:
  52              		.size	port_lock, .-port_lock
  53              		.align	2
  54              		.p2align 4,,15
  55              		.thumb
  56              		.thumb_func
  57              		.type	port_unlock, %function
ARM GAS  /tmp/ccSzKpZi.s 			page 2


  58              	port_unlock:
  59              	.LFB128:
  60              		.loc 1 480 0
  61              		.cfi_startproc
  62              		@ args = 0, pretend = 0, frame = 8
  63              		@ frame_needed = 0, uses_anonymous_args = 0
  64              		@ link register save eliminated.
  65 0010 82B0     		sub	sp, sp, #8
  66              		.cfi_def_cfa_offset 8
  67 0012 0023     		movs	r3, #0
  68 0014 0193     		str	r3, [sp, #4]
  69              	.LBB8:
  70              	.LBB9:
  71              		.loc 2 548 0
  72 0016 019B     		ldr	r3, [sp, #4]
  73              	@ 548 "../../ChibiOS/os/ext/CMSIS/include/core_cmFunc.h" 1
  74 0018 83F31188 		MSR basepri, r3
  75              	@ 0 "" 2
  76              		.thumb
  77              	.LBE9:
  78              	.LBE8:
  79              		.loc 1 487 0
  80 001c 02B0     		add	sp, sp, #8
  81              		@ sp needed
  82 001e 7047     		bx	lr
  83              		.cfi_endproc
  84              	.LFE128:
  85              		.size	port_unlock, .-port_unlock
  86              		.align	2
  87              		.p2align 4,,15
  88              		.thumb
  89              		.thumb_func
  90              		.type	queue_isempty, %function
  91              	queue_isempty:
  92              	.LFB140:
  93              		.file 3 "../../ChibiOS/os/rt/include/chschd.h"
  94              		.loc 3 616 0
  95              		.cfi_startproc
  96              		@ args = 0, pretend = 0, frame = 8
  97              		@ frame_needed = 0, uses_anonymous_args = 0
  98              		@ link register save eliminated.
  99 0020 82B0     		sub	sp, sp, #8
 100              		.cfi_def_cfa_offset 8
 101 0022 0190     		str	r0, [sp, #4]
 102              		.loc 3 618 0
 103 0024 019B     		ldr	r3, [sp, #4]
 104 0026 1A68     		ldr	r2, [r3]
 105 0028 019B     		ldr	r3, [sp, #4]
 106 002a 9A42     		cmp	r2, r3
 107 002c 14BF     		ite	ne
 108 002e 0023     		movne	r3, #0
 109 0030 0123     		moveq	r3, #1
 110 0032 DBB2     		uxtb	r3, r3
 111              		.loc 3 619 0
 112 0034 1846     		mov	r0, r3
 113 0036 02B0     		add	sp, sp, #8
 114              		@ sp needed
ARM GAS  /tmp/ccSzKpZi.s 			page 3


 115 0038 7047     		bx	lr
 116              		.cfi_endproc
 117              	.LFE140:
 118              		.size	queue_isempty, .-queue_isempty
 119 003a 00BF     		.align	2
 120 003c AFF30080 		.p2align 4,,15
 121              		.thumb
 122              		.thumb_func
 123              		.type	chSysLock, %function
 124              	chSysLock:
 125              	.LFB156:
 126              		.file 4 "../../ChibiOS/os/rt/include/chsys.h"
 127              		.loc 4 346 0
 128              		.cfi_startproc
 129              		@ args = 0, pretend = 0, frame = 0
 130              		@ frame_needed = 0, uses_anonymous_args = 0
 131 0040 08B5     		push	{r3, lr}
 132              		.cfi_def_cfa_offset 8
 133              		.cfi_offset 3, -8
 134              		.cfi_offset 14, -4
 135              		.loc 4 348 0
 136 0042 FFF7DDFF 		bl	port_lock
 137              		.loc 4 351 0
 138 0046 08BD     		pop	{r3, pc}
 139              		.cfi_endproc
 140              	.LFE156:
 141              		.size	chSysLock, .-chSysLock
 142              		.align	2
 143 0048 AFF30080 		.p2align 4,,15
 143      AFF30080 
 144              		.thumb
 145              		.thumb_func
 146              		.type	chSysUnlock, %function
 147              	chSysUnlock:
 148              	.LFB157:
 149              		.loc 4 358 0
 150              		.cfi_startproc
 151              		@ args = 0, pretend = 0, frame = 0
 152              		@ frame_needed = 0, uses_anonymous_args = 0
 153 0050 08B5     		push	{r3, lr}
 154              		.cfi_def_cfa_offset 8
 155              		.cfi_offset 3, -8
 156              		.cfi_offset 14, -4
 157              		.loc 4 371 0
 158 0052 FFF7DDFF 		bl	port_unlock
 159              		.loc 4 372 0
 160 0056 08BD     		pop	{r3, pc}
 161              		.cfi_endproc
 162              	.LFE157:
 163              		.size	chSysUnlock, .-chSysUnlock
 164              		.align	2
 165 0058 AFF30080 		.p2align 4,,15
 165      AFF30080 
 166              		.thumb
 167              		.thumb_func
 168              		.type	chVTGetSystemTimeX, %function
 169              	chVTGetSystemTimeX:
ARM GAS  /tmp/ccSzKpZi.s 			page 4


 170              	.LFB164:
 171              		.file 5 "../../ChibiOS/os/rt/include/chvt.h"
 172              		.loc 5 228 0
 173              		.cfi_startproc
 174              		@ args = 0, pretend = 0, frame = 0
 175              		@ frame_needed = 0, uses_anonymous_args = 0
 176              		@ link register save eliminated.
 177              		.loc 5 231 0
 178 0060 014B     		ldr	r3, .L9
 179 0062 9B6A     		ldr	r3, [r3, #40]
 180              		.loc 5 235 0
 181 0064 1846     		mov	r0, r3
 182 0066 7047     		bx	lr
 183              	.L10:
 184              		.align	2
 185              	.L9:
 186 0068 00000000 		.word	ch
 187              		.cfi_endproc
 188              	.LFE164:
 189              		.size	chVTGetSystemTimeX, .-chVTGetSystemTimeX
 190              		.align	2
 191 006c AFF30080 		.p2align 4,,15
 192              		.thumb
 193              		.thumb_func
 194              		.type	chVTGetSystemTime, %function
 195              	chVTGetSystemTime:
 196              	.LFB165:
 197              		.loc 5 247 0
 198              		.cfi_startproc
 199              		@ args = 0, pretend = 0, frame = 8
 200              		@ frame_needed = 0, uses_anonymous_args = 0
 201 0070 00B5     		push	{lr}
 202              		.cfi_def_cfa_offset 4
 203              		.cfi_offset 14, -4
 204 0072 83B0     		sub	sp, sp, #12
 205              		.cfi_def_cfa_offset 16
 206              		.loc 5 250 0
 207 0074 FFF7E4FF 		bl	chSysLock
 208              		.loc 5 251 0
 209 0078 FFF7F2FF 		bl	chVTGetSystemTimeX
 210 007c 0190     		str	r0, [sp, #4]
 211              		.loc 5 252 0
 212 007e FFF7E7FF 		bl	chSysUnlock
 213              		.loc 5 254 0
 214 0082 019B     		ldr	r3, [sp, #4]
 215              		.loc 5 255 0
 216 0084 1846     		mov	r0, r3
 217 0086 03B0     		add	sp, sp, #12
 218              		@ sp needed
 219 0088 5DF804FB 		ldr	pc, [sp], #4
 220              		.cfi_endproc
 221              	.LFE165:
 222              		.size	chVTGetSystemTime, .-chVTGetSystemTime
 223              		.align	2
 224 008c AFF30080 		.p2align 4,,15
 225              		.thumb
 226              		.thumb_func
ARM GAS  /tmp/ccSzKpZi.s 			page 5


 227              		.type	chThdGetSelfX, %function
 228              	chThdGetSelfX:
 229              	.LFB178:
 230              		.file 6 "../../ChibiOS/os/rt/include/chthreads.h"
 231              		.loc 6 174 0
 232              		.cfi_startproc
 233              		@ args = 0, pretend = 0, frame = 0
 234              		@ frame_needed = 0, uses_anonymous_args = 0
 235              		@ link register save eliminated.
 236              		.loc 6 176 0
 237 0090 014B     		ldr	r3, .L15
 238 0092 9B69     		ldr	r3, [r3, #24]
 239              		.loc 6 177 0
 240 0094 1846     		mov	r0, r3
 241 0096 7047     		bx	lr
 242              	.L16:
 243              		.align	2
 244              	.L15:
 245 0098 00000000 		.word	ch
 246              		.cfi_endproc
 247              	.LFE178:
 248              		.size	chThdGetSelfX, .-chThdGetSelfX
 249              		.align	2
 250 009c AFF30080 		.p2align 4,,15
 251              		.thumb
 252              		.thumb_func
 253              		.type	chThdGetPriorityX, %function
 254              	chThdGetPriorityX:
 255              	.LFB179:
 256              		.loc 6 187 0
 257              		.cfi_startproc
 258              		@ args = 0, pretend = 0, frame = 0
 259              		@ frame_needed = 0, uses_anonymous_args = 0
 260 00a0 08B5     		push	{r3, lr}
 261              		.cfi_def_cfa_offset 8
 262              		.cfi_offset 3, -8
 263              		.cfi_offset 14, -4
 264              		.loc 6 189 0
 265 00a2 FFF7F5FF 		bl	chThdGetSelfX
 266 00a6 0346     		mov	r3, r0
 267 00a8 9B68     		ldr	r3, [r3, #8]
 268              		.loc 6 190 0
 269 00aa 1846     		mov	r0, r3
 270 00ac 08BD     		pop	{r3, pc}
 271              		.cfi_endproc
 272              	.LFE179:
 273              		.size	chThdGetPriorityX, .-chThdGetPriorityX
 274 00ae 00BF     		.align	2
 275              		.p2align 4,,15
 276              		.thumb
 277              		.thumb_func
 278              		.type	chSemGetCounterI, %function
 279              	chSemGetCounterI:
 280              	.LFB192:
 281              		.file 7 "../../ChibiOS/os/rt/include/chsem.h"
 282              		.loc 7 149 0
 283              		.cfi_startproc
ARM GAS  /tmp/ccSzKpZi.s 			page 6


 284              		@ args = 0, pretend = 0, frame = 8
 285              		@ frame_needed = 0, uses_anonymous_args = 0
 286              		@ link register save eliminated.
 287 00b0 82B0     		sub	sp, sp, #8
 288              		.cfi_def_cfa_offset 8
 289 00b2 0190     		str	r0, [sp, #4]
 290              		.loc 7 153 0
 291 00b4 019B     		ldr	r3, [sp, #4]
 292 00b6 9B68     		ldr	r3, [r3, #8]
 293              		.loc 7 154 0
 294 00b8 1846     		mov	r0, r3
 295 00ba 02B0     		add	sp, sp, #8
 296              		@ sp needed
 297 00bc 7047     		bx	lr
 298              		.cfi_endproc
 299              	.LFE192:
 300              		.size	chSemGetCounterI, .-chSemGetCounterI
 301 00be 00BF     		.align	2
 302              		.p2align 4,,15
 303              		.thumb
 304              		.thumb_func
 305              		.type	chBSemObjectInit, %function
 306              	chBSemObjectInit:
 307              	.LFB193:
 308              		.file 8 "../../ChibiOS/os/rt/include/chbsem.h"
 309              		.loc 8 124 0
 310              		.cfi_startproc
 311              		@ args = 0, pretend = 0, frame = 8
 312              		@ frame_needed = 0, uses_anonymous_args = 0
 313 00c0 00B5     		push	{lr}
 314              		.cfi_def_cfa_offset 4
 315              		.cfi_offset 14, -4
 316 00c2 83B0     		sub	sp, sp, #12
 317              		.cfi_def_cfa_offset 16
 318 00c4 0190     		str	r0, [sp, #4]
 319 00c6 0B46     		mov	r3, r1
 320 00c8 8DF80330 		strb	r3, [sp, #3]
 321              		.loc 8 126 0
 322 00cc 019A     		ldr	r2, [sp, #4]
 323 00ce 9DF80330 		ldrb	r3, [sp, #3]	@ zero_extendqisi2
 324 00d2 002B     		cmp	r3, #0
 325 00d4 01D0     		beq	.L22
 326              		.loc 8 126 0 is_stmt 0 discriminator 1
 327 00d6 0023     		movs	r3, #0
 328 00d8 00E0     		b	.L23
 329              	.L22:
 330              		.loc 8 126 0 discriminator 2
 331 00da 0123     		movs	r3, #1
 332              	.L23:
 333              		.loc 8 126 0 discriminator 3
 334 00dc 1046     		mov	r0, r2
 335 00de 1946     		mov	r1, r3
 336 00e0 FFF7FEFF 		bl	chSemObjectInit
 337              		.loc 8 127 0 is_stmt 1 discriminator 3
 338 00e4 03B0     		add	sp, sp, #12
 339              		@ sp needed
 340 00e6 5DF804FB 		ldr	pc, [sp], #4
ARM GAS  /tmp/ccSzKpZi.s 			page 7


 341              		.cfi_endproc
 342              	.LFE193:
 343              		.size	chBSemObjectInit, .-chBSemObjectInit
 344 00ea 00BF     		.align	2
 345 00ec AFF30080 		.p2align 4,,15
 346              		.thumb
 347              		.thumb_func
 348              		.type	chBSemWait, %function
 349              	chBSemWait:
 350              	.LFB194:
 351              		.loc 8 141 0
 352              		.cfi_startproc
 353              		@ args = 0, pretend = 0, frame = 8
 354              		@ frame_needed = 0, uses_anonymous_args = 0
 355 00f0 00B5     		push	{lr}
 356              		.cfi_def_cfa_offset 4
 357              		.cfi_offset 14, -4
 358 00f2 83B0     		sub	sp, sp, #12
 359              		.cfi_def_cfa_offset 16
 360 00f4 0190     		str	r0, [sp, #4]
 361              		.loc 8 143 0
 362 00f6 019B     		ldr	r3, [sp, #4]
 363 00f8 1846     		mov	r0, r3
 364 00fa FFF7FEFF 		bl	chSemWait
 365 00fe 0346     		mov	r3, r0
 366              		.loc 8 144 0
 367 0100 1846     		mov	r0, r3
 368 0102 03B0     		add	sp, sp, #12
 369              		@ sp needed
 370 0104 5DF804FB 		ldr	pc, [sp], #4
 371              		.cfi_endproc
 372              	.LFE194:
 373              		.size	chBSemWait, .-chBSemWait
 374              		.align	2
 375 0108 AFF30080 		.p2align 4,,15
 375      AFF30080 
 376              		.thumb
 377              		.thumb_func
 378              		.type	chBSemReset, %function
 379              	chBSemReset:
 380              	.LFB199:
 381              		.loc 8 253 0
 382              		.cfi_startproc
 383              		@ args = 0, pretend = 0, frame = 8
 384              		@ frame_needed = 0, uses_anonymous_args = 0
 385 0110 00B5     		push	{lr}
 386              		.cfi_def_cfa_offset 4
 387              		.cfi_offset 14, -4
 388 0112 83B0     		sub	sp, sp, #12
 389              		.cfi_def_cfa_offset 16
 390 0114 0190     		str	r0, [sp, #4]
 391 0116 0B46     		mov	r3, r1
 392 0118 8DF80330 		strb	r3, [sp, #3]
 393              		.loc 8 255 0
 394 011c 019A     		ldr	r2, [sp, #4]
 395 011e 9DF80330 		ldrb	r3, [sp, #3]	@ zero_extendqisi2
 396 0122 002B     		cmp	r3, #0
ARM GAS  /tmp/ccSzKpZi.s 			page 8


 397 0124 01D0     		beq	.L27
 398              		.loc 8 255 0 is_stmt 0 discriminator 1
 399 0126 0023     		movs	r3, #0
 400 0128 00E0     		b	.L28
 401              	.L27:
 402              		.loc 8 255 0 discriminator 2
 403 012a 0123     		movs	r3, #1
 404              	.L28:
 405              		.loc 8 255 0 discriminator 3
 406 012c 1046     		mov	r0, r2
 407 012e 1946     		mov	r1, r3
 408 0130 FFF7FEFF 		bl	chSemReset
 409              		.loc 8 256 0 is_stmt 1 discriminator 3
 410 0134 03B0     		add	sp, sp, #12
 411              		@ sp needed
 412 0136 5DF804FB 		ldr	pc, [sp], #4
 413              		.cfi_endproc
 414              	.LFE199:
 415              		.size	chBSemReset, .-chBSemReset
 416 013a 00BF     		.align	2
 417 013c AFF30080 		.p2align 4,,15
 418              		.thumb
 419              		.thumb_func
 420              		.type	chBSemSignalI, %function
 421              	chBSemSignalI:
 422              	.LFB200:
 423              		.loc 8 266 0
 424              		.cfi_startproc
 425              		@ args = 0, pretend = 0, frame = 8
 426              		@ frame_needed = 0, uses_anonymous_args = 0
 427 0140 00B5     		push	{lr}
 428              		.cfi_def_cfa_offset 4
 429              		.cfi_offset 14, -4
 430 0142 83B0     		sub	sp, sp, #12
 431              		.cfi_def_cfa_offset 16
 432 0144 0190     		str	r0, [sp, #4]
 433              		.loc 8 270 0
 434 0146 019B     		ldr	r3, [sp, #4]
 435 0148 9B68     		ldr	r3, [r3, #8]
 436 014a 002B     		cmp	r3, #0
 437 014c 03DC     		bgt	.L29
 438              		.loc 8 271 0
 439 014e 019B     		ldr	r3, [sp, #4]
 440 0150 1846     		mov	r0, r3
 441 0152 FFF7FEFF 		bl	chSemSignalI
 442              	.L29:
 443              		.loc 8 273 0
 444 0156 03B0     		add	sp, sp, #12
 445              		@ sp needed
 446 0158 5DF804FB 		ldr	pc, [sp], #4
 447              		.cfi_endproc
 448              	.LFE200:
 449              		.size	chBSemSignalI, .-chBSemSignalI
 450              		.align	2
 451 015c AFF30080 		.p2align 4,,15
 452              		.thumb
 453              		.thumb_func
ARM GAS  /tmp/ccSzKpZi.s 			page 9


 454              		.type	chBSemSignal, %function
 455              	chBSemSignal:
 456              	.LFB201:
 457              		.loc 8 282 0
 458              		.cfi_startproc
 459              		@ args = 0, pretend = 0, frame = 8
 460              		@ frame_needed = 0, uses_anonymous_args = 0
 461 0160 00B5     		push	{lr}
 462              		.cfi_def_cfa_offset 4
 463              		.cfi_offset 14, -4
 464 0162 83B0     		sub	sp, sp, #12
 465              		.cfi_def_cfa_offset 16
 466 0164 0190     		str	r0, [sp, #4]
 467              		.loc 8 284 0
 468 0166 FFF76BFF 		bl	chSysLock
 469              		.loc 8 285 0
 470 016a 0198     		ldr	r0, [sp, #4]
 471 016c FFF7E8FF 		bl	chBSemSignalI
 472              		.loc 8 286 0
 473 0170 FFF7FEFF 		bl	chSchRescheduleS
 474              		.loc 8 287 0
 475 0174 FFF76CFF 		bl	chSysUnlock
 476              		.loc 8 288 0
 477 0178 03B0     		add	sp, sp, #12
 478              		@ sp needed
 479 017a 5DF804FB 		ldr	pc, [sp], #4
 480              		.cfi_endproc
 481              	.LFE201:
 482              		.size	chBSemSignal, .-chBSemSignal
 483 017e 00BF     		.align	2
 484              		.p2align 4,,15
 485              		.thumb
 486              		.thumb_func
 487              		.type	chBSemGetStateI, %function
 488              	chBSemGetStateI:
 489              	.LFB202:
 490              		.loc 8 300 0
 491              		.cfi_startproc
 492              		@ args = 0, pretend = 0, frame = 8
 493              		@ frame_needed = 0, uses_anonymous_args = 0
 494              		@ link register save eliminated.
 495 0180 82B0     		sub	sp, sp, #8
 496              		.cfi_def_cfa_offset 8
 497 0182 0190     		str	r0, [sp, #4]
 498              		.loc 8 304 0
 499 0184 019B     		ldr	r3, [sp, #4]
 500 0186 9B68     		ldr	r3, [r3, #8]
 501 0188 002B     		cmp	r3, #0
 502 018a CCBF     		ite	gt
 503 018c 0023     		movgt	r3, #0
 504 018e 0123     		movle	r3, #1
 505 0190 DBB2     		uxtb	r3, r3
 506              		.loc 8 305 0
 507 0192 1846     		mov	r0, r3
 508 0194 02B0     		add	sp, sp, #8
 509              		@ sp needed
 510 0196 7047     		bx	lr
ARM GAS  /tmp/ccSzKpZi.s 			page 10


 511              		.cfi_endproc
 512              	.LFE202:
 513              		.size	chBSemGetStateI, .-chBSemGetStateI
 514              		.data
 515              		.align	2
 516              		.type	sem1, %object
 517              		.size	sem1, 12
 518              	sem1:
 519 0000 00000000 		.word	sem1
 520 0004 00000000 		.word	sem1
 521 0008 00000000 		.word	0
 522              		.text
 523              		.align	2
 524 0198 AFF30080 		.p2align 4,,15
 524      AFF30080 
 525              		.thumb
 526              		.thumb_func
 527              		.type	sem1_setup, %function
 528              	sem1_setup:
 529              	.LFB230:
 530              		.file 9 "../../ChibiOS/test/rt/testsem.c"
 531              		.loc 9 72 0
 532              		.cfi_startproc
 533              		@ args = 0, pretend = 0, frame = 0
 534              		@ frame_needed = 0, uses_anonymous_args = 0
 535 01a0 08B5     		push	{r3, lr}
 536              		.cfi_def_cfa_offset 8
 537              		.cfi_offset 3, -8
 538              		.cfi_offset 14, -4
 539              		.loc 9 74 0
 540 01a2 0248     		ldr	r0, .L35
 541 01a4 0021     		movs	r1, #0
 542 01a6 FFF7FEFF 		bl	chSemObjectInit
 543              		.loc 9 75 0
 544 01aa 08BD     		pop	{r3, pc}
 545              	.L36:
 546              		.align	2
 547              	.L35:
 548 01ac 00000000 		.word	sem1
 549              		.cfi_endproc
 550              	.LFE230:
 551              		.size	sem1_setup, .-sem1_setup
 552              		.align	2
 553              		.p2align 4,,15
 554              		.thumb
 555              		.thumb_func
 556              		.type	thread1, %function
 557              	thread1:
 558              	.LFB231:
 559              		.loc 9 77 0
 560              		.cfi_startproc
 561              		@ args = 0, pretend = 0, frame = 8
 562              		@ frame_needed = 0, uses_anonymous_args = 0
 563 01b0 00B5     		push	{lr}
 564              		.cfi_def_cfa_offset 4
 565              		.cfi_offset 14, -4
 566 01b2 83B0     		sub	sp, sp, #12
ARM GAS  /tmp/ccSzKpZi.s 			page 11


 567              		.cfi_def_cfa_offset 16
 568 01b4 0190     		str	r0, [sp, #4]
 569              		.loc 9 79 0
 570 01b6 0548     		ldr	r0, .L38
 571 01b8 FFF7FEFF 		bl	chSemWait
 572              		.loc 9 80 0
 573 01bc 019B     		ldr	r3, [sp, #4]
 574 01be 1B78     		ldrb	r3, [r3]	@ zero_extendqisi2
 575 01c0 1846     		mov	r0, r3
 576 01c2 FFF7FEFF 		bl	test_emit_token
 577              		.loc 9 81 0
 578 01c6 03B0     		add	sp, sp, #12
 579              		@ sp needed
 580 01c8 5DF804FB 		ldr	pc, [sp], #4
 581              	.L39:
 582              		.align	2
 583              	.L38:
 584 01cc 00000000 		.word	sem1
 585              		.cfi_endproc
 586              	.LFE231:
 587              		.size	thread1, .-thread1
 588              		.section	.rodata
 589              		.align	2
 590              	.LC0:
 591 0000 4100     		.ascii	"A\000"
 592 0002 0000     		.align	2
 593              	.LC1:
 594 0004 4200     		.ascii	"B\000"
 595 0006 0000     		.align	2
 596              	.LC2:
 597 0008 4300     		.ascii	"C\000"
 598 000a 0000     		.align	2
 599              	.LC3:
 600 000c 4400     		.ascii	"D\000"
 601 000e 0000     		.align	2
 602              	.LC4:
 603 0010 4500     		.ascii	"E\000"
 604 0012 0000     		.align	2
 605              	.LC5:
 606 0014 41424344 		.ascii	"ABCDE\000"
 606      4500
 607              		.text
 608              		.align	2
 609              		.p2align 4,,15
 610              		.thumb
 611              		.thumb_func
 612              		.type	sem1_execute, %function
 613              	sem1_execute:
 614              	.LFB232:
 615              		.loc 9 83 0
 616              		.cfi_startproc
 617              		@ args = 0, pretend = 0, frame = 0
 618              		@ frame_needed = 0, uses_anonymous_args = 0
 619 01d0 10B5     		push	{r4, lr}
 620              		.cfi_def_cfa_offset 8
 621              		.cfi_offset 4, -8
 622              		.cfi_offset 14, -4
ARM GAS  /tmp/ccSzKpZi.s 			page 12


 623 01d2 82B0     		sub	sp, sp, #8
 624              		.cfi_def_cfa_offset 16
 625              		.loc 9 85 0
 626 01d4 544B     		ldr	r3, .L44
 627 01d6 1C68     		ldr	r4, [r3]
 628 01d8 FFF762FF 		bl	chThdGetPriorityX
 629 01dc 0346     		mov	r3, r0
 630 01de 0533     		adds	r3, r3, #5
 631 01e0 524A     		ldr	r2, .L44+4
 632 01e2 0092     		str	r2, [sp]
 633 01e4 2046     		mov	r0, r4
 634 01e6 4FF4A471 		mov	r1, #328
 635 01ea 1A46     		mov	r2, r3
 636 01ec 504B     		ldr	r3, .L44+8
 637 01ee FFF7FEFF 		bl	chThdCreateStatic
 638 01f2 0246     		mov	r2, r0
 639 01f4 4F4B     		ldr	r3, .L44+12
 640 01f6 1A60     		str	r2, [r3]
 641              		.loc 9 86 0
 642 01f8 4B4B     		ldr	r3, .L44
 643 01fa 5C68     		ldr	r4, [r3, #4]
 644 01fc FFF750FF 		bl	chThdGetPriorityX
 645 0200 0346     		mov	r3, r0
 646 0202 0133     		adds	r3, r3, #1
 647 0204 4C4A     		ldr	r2, .L44+16
 648 0206 0092     		str	r2, [sp]
 649 0208 2046     		mov	r0, r4
 650 020a 4FF4A471 		mov	r1, #328
 651 020e 1A46     		mov	r2, r3
 652 0210 474B     		ldr	r3, .L44+8
 653 0212 FFF7FEFF 		bl	chThdCreateStatic
 654 0216 0246     		mov	r2, r0
 655 0218 464B     		ldr	r3, .L44+12
 656 021a 5A60     		str	r2, [r3, #4]
 657              		.loc 9 87 0
 658 021c 424B     		ldr	r3, .L44
 659 021e 9C68     		ldr	r4, [r3, #8]
 660 0220 FFF73EFF 		bl	chThdGetPriorityX
 661 0224 0346     		mov	r3, r0
 662 0226 0333     		adds	r3, r3, #3
 663 0228 444A     		ldr	r2, .L44+20
 664 022a 0092     		str	r2, [sp]
 665 022c 2046     		mov	r0, r4
 666 022e 4FF4A471 		mov	r1, #328
 667 0232 1A46     		mov	r2, r3
 668 0234 3E4B     		ldr	r3, .L44+8
 669 0236 FFF7FEFF 		bl	chThdCreateStatic
 670 023a 0246     		mov	r2, r0
 671 023c 3D4B     		ldr	r3, .L44+12
 672 023e 9A60     		str	r2, [r3, #8]
 673              		.loc 9 88 0
 674 0240 394B     		ldr	r3, .L44
 675 0242 DC68     		ldr	r4, [r3, #12]
 676 0244 FFF72CFF 		bl	chThdGetPriorityX
 677 0248 0346     		mov	r3, r0
 678 024a 0433     		adds	r3, r3, #4
 679 024c 3C4A     		ldr	r2, .L44+24
ARM GAS  /tmp/ccSzKpZi.s 			page 13


 680 024e 0092     		str	r2, [sp]
 681 0250 2046     		mov	r0, r4
 682 0252 4FF4A471 		mov	r1, #328
 683 0256 1A46     		mov	r2, r3
 684 0258 354B     		ldr	r3, .L44+8
 685 025a FFF7FEFF 		bl	chThdCreateStatic
 686 025e 0246     		mov	r2, r0
 687 0260 344B     		ldr	r3, .L44+12
 688 0262 DA60     		str	r2, [r3, #12]
 689              		.loc 9 89 0
 690 0264 304B     		ldr	r3, .L44
 691 0266 1C69     		ldr	r4, [r3, #16]
 692 0268 FFF71AFF 		bl	chThdGetPriorityX
 693 026c 0346     		mov	r3, r0
 694 026e 0233     		adds	r3, r3, #2
 695 0270 344A     		ldr	r2, .L44+28
 696 0272 0092     		str	r2, [sp]
 697 0274 2046     		mov	r0, r4
 698 0276 4FF4A471 		mov	r1, #328
 699 027a 1A46     		mov	r2, r3
 700 027c 2C4B     		ldr	r3, .L44+8
 701 027e FFF7FEFF 		bl	chThdCreateStatic
 702 0282 0246     		mov	r2, r0
 703 0284 2B4B     		ldr	r3, .L44+12
 704 0286 1A61     		str	r2, [r3, #16]
 705              		.loc 9 90 0
 706 0288 2F48     		ldr	r0, .L44+32
 707 028a FFF7FEFF 		bl	chSemSignal
 708              		.loc 9 91 0
 709 028e 2E48     		ldr	r0, .L44+32
 710 0290 FFF7FEFF 		bl	chSemSignal
 711              		.loc 9 92 0
 712 0294 2C48     		ldr	r0, .L44+32
 713 0296 FFF7FEFF 		bl	chSemSignal
 714              		.loc 9 93 0
 715 029a 2B48     		ldr	r0, .L44+32
 716 029c FFF7FEFF 		bl	chSemSignal
 717              		.loc 9 94 0
 718 02a0 2948     		ldr	r0, .L44+32
 719 02a2 FFF7FEFF 		bl	chSemSignal
 720              		.loc 9 95 0
 721 02a6 FFF7FEFF 		bl	test_wait_threads
 722              		.loc 9 99 0
 723 02aa 0120     		movs	r0, #1
 724 02ac 2749     		ldr	r1, .L44+36
 725 02ae FFF7FEFF 		bl	_test_assert_sequence
 726 02b2 0346     		mov	r3, r0
 727 02b4 002B     		cmp	r3, #0
 728 02b6 00D0     		beq	.L41
 729              		.loc 9 99 0 is_stmt 0 discriminator 1
 730 02b8 34E0     		b	.L40
 731              	.L41:
 732              		.loc 9 101 0 is_stmt 1
 733 02ba 1B4B     		ldr	r3, .L44
 734 02bc 1C68     		ldr	r4, [r3]
 735 02be FFF7EFFE 		bl	chThdGetPriorityX
 736 02c2 0346     		mov	r3, r0
ARM GAS  /tmp/ccSzKpZi.s 			page 14


 737 02c4 0533     		adds	r3, r3, #5
 738 02c6 194A     		ldr	r2, .L44+4
 739 02c8 0092     		str	r2, [sp]
 740 02ca 2046     		mov	r0, r4
 741 02cc 4FF4A471 		mov	r1, #328
 742 02d0 1A46     		mov	r2, r3
 743 02d2 174B     		ldr	r3, .L44+8
 744 02d4 FFF7FEFF 		bl	chThdCreateStatic
 745 02d8 0246     		mov	r2, r0
 746 02da 164B     		ldr	r3, .L44+12
 747 02dc 1A60     		str	r2, [r3]
 748              		.loc 9 102 0
 749 02de FFF7AFFE 		bl	chSysLock
 750              		.loc 9 103 0
 751 02e2 1948     		ldr	r0, .L44+32
 752 02e4 0221     		movs	r1, #2
 753 02e6 FFF7FEFF 		bl	chSemAddCounterI
 754              		.loc 9 104 0
 755 02ea FFF7FEFF 		bl	chSchRescheduleS
 756              		.loc 9 105 0
 757 02ee FFF7AFFE 		bl	chSysUnlock
 758              		.loc 9 106 0
 759 02f2 FFF7FEFF 		bl	test_wait_threads
 760              		.loc 9 107 0
 761 02f6 FFF7A3FE 		bl	chSysLock
 762 02fa 1348     		ldr	r0, .L44+32
 763 02fc FFF7D8FE 		bl	chSemGetCounterI
 764 0300 0346     		mov	r3, r0
 765 0302 012B     		cmp	r3, #1
 766 0304 14BF     		ite	ne
 767 0306 0023     		movne	r3, #0
 768 0308 0123     		moveq	r3, #1
 769 030a DBB2     		uxtb	r3, r3
 770 030c 0220     		movs	r0, #2
 771 030e 1946     		mov	r1, r3
 772 0310 FFF7FEFF 		bl	_test_assert
 773 0314 0346     		mov	r3, r0
 774 0316 002B     		cmp	r3, #0
 775 0318 02D0     		beq	.L43
 776              		.loc 9 107 0 is_stmt 0 discriminator 1
 777 031a FFF799FE 		bl	chSysUnlock
 778 031e 01E0     		b	.L40
 779              	.L43:
 780              		.loc 9 107 0 discriminator 2
 781 0320 FFF796FE 		bl	chSysUnlock
 782              	.L40:
 783              		.loc 9 108 0 is_stmt 1
 784 0324 02B0     		add	sp, sp, #8
 785              		@ sp needed
 786 0326 10BD     		pop	{r4, pc}
 787              	.L45:
 788              		.align	2
 789              	.L44:
 790 0328 00000000 		.word	wa
 791 032c 00000000 		.word	.LC0
 792 0330 00000000 		.word	thread1
 793 0334 00000000 		.word	threads
ARM GAS  /tmp/ccSzKpZi.s 			page 15


 794 0338 04000000 		.word	.LC1
 795 033c 08000000 		.word	.LC2
 796 0340 0C000000 		.word	.LC3
 797 0344 10000000 		.word	.LC4
 798 0348 00000000 		.word	sem1
 799 034c 14000000 		.word	.LC5
 800              		.cfi_endproc
 801              	.LFE232:
 802              		.size	sem1_execute, .-sem1_execute
 803              		.global	testsem1
 804              		.section	.rodata
 805 001a 0000     		.align	2
 806              	.LC6:
 807 001c 53656D61 		.ascii	"Semaphores, enqueuing\000"
 807      70686F72 
 807      65732C20 
 807      656E7175 
 807      6575696E 
 808 0032 0000     		.align	2
 809              		.type	testsem1, %object
 810              		.size	testsem1, 16
 811              	testsem1:
 812 0034 1C000000 		.word	.LC6
 813 0038 00000000 		.word	sem1_setup
 814 003c 00000000 		.word	0
 815 0040 00000000 		.word	sem1_execute
 816              		.text
 817              		.align	2
 818              		.p2align 4,,15
 819              		.thumb
 820              		.thumb_func
 821              		.type	sem2_setup, %function
 822              	sem2_setup:
 823              	.LFB233:
 824              		.loc 9 128 0
 825              		.cfi_startproc
 826              		@ args = 0, pretend = 0, frame = 0
 827              		@ frame_needed = 0, uses_anonymous_args = 0
 828 0350 08B5     		push	{r3, lr}
 829              		.cfi_def_cfa_offset 8
 830              		.cfi_offset 3, -8
 831              		.cfi_offset 14, -4
 832              		.loc 9 130 0
 833 0352 0248     		ldr	r0, .L47
 834 0354 0021     		movs	r1, #0
 835 0356 FFF7FEFF 		bl	chSemObjectInit
 836              		.loc 9 131 0
 837 035a 08BD     		pop	{r3, pc}
 838              	.L48:
 839              		.align	2
 840              	.L47:
 841 035c 00000000 		.word	sem1
 842              		.cfi_endproc
 843              	.LFE233:
 844              		.size	sem2_setup, .-sem2_setup
 845              		.align	2
 846              		.p2align 4,,15
ARM GAS  /tmp/ccSzKpZi.s 			page 16


 847              		.thumb
 848              		.thumb_func
 849              		.type	thread2, %function
 850              	thread2:
 851              	.LFB234:
 852              		.loc 9 133 0
 853              		.cfi_startproc
 854              		@ args = 0, pretend = 0, frame = 8
 855              		@ frame_needed = 0, uses_anonymous_args = 0
 856 0360 00B5     		push	{lr}
 857              		.cfi_def_cfa_offset 4
 858              		.cfi_offset 14, -4
 859 0362 83B0     		sub	sp, sp, #12
 860              		.cfi_def_cfa_offset 16
 861 0364 0190     		str	r0, [sp, #4]
 862              		.loc 9 136 0
 863 0366 41F28830 		movw	r0, #5000
 864 036a FFF7FEFF 		bl	chThdSleep
 865              		.loc 9 137 0
 866 036e FFF767FE 		bl	chSysLock
 867              		.loc 9 138 0
 868 0372 0548     		ldr	r0, .L50
 869 0374 FFF7FEFF 		bl	chSemSignalI
 870              		.loc 9 139 0
 871 0378 FFF7FEFF 		bl	chSchRescheduleS
 872              		.loc 9 140 0
 873 037c FFF768FE 		bl	chSysUnlock
 874              		.loc 9 141 0
 875 0380 03B0     		add	sp, sp, #12
 876              		@ sp needed
 877 0382 5DF804FB 		ldr	pc, [sp], #4
 878              	.L51:
 879 0386 00BF     		.align	2
 880              	.L50:
 881 0388 00000000 		.word	sem1
 882              		.cfi_endproc
 883              	.LFE234:
 884              		.size	thread2, .-thread2
 885              		.align	2
 886 038c AFF30080 		.p2align 4,,15
 887              		.thumb
 888              		.thumb_func
 889              		.type	sem2_execute, %function
 890              	sem2_execute:
 891              	.LFB235:
 892              		.loc 9 143 0
 893              		.cfi_startproc
 894              		@ args = 0, pretend = 0, frame = 16
 895              		@ frame_needed = 0, uses_anonymous_args = 0
 896 0390 10B5     		push	{r4, lr}
 897              		.cfi_def_cfa_offset 8
 898              		.cfi_offset 4, -8
 899              		.cfi_offset 14, -4
 900 0392 86B0     		sub	sp, sp, #24
 901              		.cfi_def_cfa_offset 32
 902              		.loc 9 151 0
 903 0394 6748     		ldr	r0, .L66
ARM GAS  /tmp/ccSzKpZi.s 			page 17


 904 0396 0021     		movs	r1, #0
 905 0398 FFF7FEFF 		bl	chSemWaitTimeout
 906 039c 0490     		str	r0, [sp, #16]
 907              		.loc 9 152 0
 908 039e 049B     		ldr	r3, [sp, #16]
 909 03a0 B3F1FF3F 		cmp	r3, #-1
 910 03a4 14BF     		ite	ne
 911 03a6 0023     		movne	r3, #0
 912 03a8 0123     		moveq	r3, #1
 913 03aa DBB2     		uxtb	r3, r3
 914 03ac 0120     		movs	r0, #1
 915 03ae 1946     		mov	r1, r3
 916 03b0 FFF7FEFF 		bl	_test_assert
 917 03b4 0346     		mov	r3, r0
 918 03b6 002B     		cmp	r3, #0
 919 03b8 00D0     		beq	.L53
 920              		.loc 9 152 0 is_stmt 0 discriminator 1
 921 03ba B9E0     		b	.L52
 922              	.L53:
 923              		.loc 9 153 0 is_stmt 1
 924 03bc 5D48     		ldr	r0, .L66
 925 03be FFF72FFE 		bl	queue_isempty
 926 03c2 0346     		mov	r3, r0
 927 03c4 0220     		movs	r0, #2
 928 03c6 1946     		mov	r1, r3
 929 03c8 FFF7FEFF 		bl	_test_assert
 930 03cc 0346     		mov	r3, r0
 931 03ce 002B     		cmp	r3, #0
 932 03d0 00D0     		beq	.L55
 933              		.loc 9 153 0 is_stmt 0 discriminator 1
 934 03d2 ADE0     		b	.L52
 935              	.L55:
 936              		.loc 9 154 0 is_stmt 1
 937 03d4 574B     		ldr	r3, .L66
 938 03d6 9B68     		ldr	r3, [r3, #8]
 939 03d8 002B     		cmp	r3, #0
 940 03da 14BF     		ite	ne
 941 03dc 0023     		movne	r3, #0
 942 03de 0123     		moveq	r3, #1
 943 03e0 DBB2     		uxtb	r3, r3
 944 03e2 0320     		movs	r0, #3
 945 03e4 1946     		mov	r1, r3
 946 03e6 FFF7FEFF 		bl	_test_assert
 947 03ea 0346     		mov	r3, r0
 948 03ec 002B     		cmp	r3, #0
 949 03ee 00D0     		beq	.L56
 950              		.loc 9 154 0 is_stmt 0 discriminator 1
 951 03f0 9EE0     		b	.L52
 952              	.L56:
 953              		.loc 9 159 0 is_stmt 1
 954 03f2 514B     		ldr	r3, .L66+4
 955 03f4 1C68     		ldr	r4, [r3]
 956 03f6 FFF753FE 		bl	chThdGetPriorityX
 957 03fa 0346     		mov	r3, r0
 958 03fc 013B     		subs	r3, r3, #1
 959 03fe 0022     		movs	r2, #0
 960 0400 0092     		str	r2, [sp]
ARM GAS  /tmp/ccSzKpZi.s 			page 18


 961 0402 2046     		mov	r0, r4
 962 0404 4FF4A471 		mov	r1, #328
 963 0408 1A46     		mov	r2, r3
 964 040a 4C4B     		ldr	r3, .L66+8
 965 040c FFF7FEFF 		bl	chThdCreateStatic
 966 0410 0246     		mov	r2, r0
 967 0412 4B4B     		ldr	r3, .L66+12
 968 0414 1A60     		str	r2, [r3]
 969              		.loc 9 161 0
 970 0416 4748     		ldr	r0, .L66
 971 0418 4CF25031 		movw	r1, #50000
 972 041c FFF7FEFF 		bl	chSemWaitTimeout
 973 0420 0490     		str	r0, [sp, #16]
 974              		.loc 9 162 0
 975 0422 FFF7FEFF 		bl	test_wait_threads
 976              		.loc 9 163 0
 977 0426 049B     		ldr	r3, [sp, #16]
 978 0428 002B     		cmp	r3, #0
 979 042a 14BF     		ite	ne
 980 042c 0023     		movne	r3, #0
 981 042e 0123     		moveq	r3, #1
 982 0430 DBB2     		uxtb	r3, r3
 983 0432 0420     		movs	r0, #4
 984 0434 1946     		mov	r1, r3
 985 0436 FFF7FEFF 		bl	_test_assert
 986 043a 0346     		mov	r3, r0
 987 043c 002B     		cmp	r3, #0
 988 043e 00D0     		beq	.L57
 989              		.loc 9 163 0 is_stmt 0 discriminator 1
 990 0440 76E0     		b	.L52
 991              	.L57:
 992              		.loc 9 164 0 is_stmt 1
 993 0442 3C48     		ldr	r0, .L66
 994 0444 FFF7ECFD 		bl	queue_isempty
 995 0448 0346     		mov	r3, r0
 996 044a 0520     		movs	r0, #5
 997 044c 1946     		mov	r1, r3
 998 044e FFF7FEFF 		bl	_test_assert
 999 0452 0346     		mov	r3, r0
 1000 0454 002B     		cmp	r3, #0
 1001 0456 00D0     		beq	.L58
 1002              		.loc 9 164 0 is_stmt 0 discriminator 1
 1003 0458 6AE0     		b	.L52
 1004              	.L58:
 1005              		.loc 9 165 0 is_stmt 1
 1006 045a 364B     		ldr	r3, .L66
 1007 045c 9B68     		ldr	r3, [r3, #8]
 1008 045e 002B     		cmp	r3, #0
 1009 0460 14BF     		ite	ne
 1010 0462 0023     		movne	r3, #0
 1011 0464 0123     		moveq	r3, #1
 1012 0466 DBB2     		uxtb	r3, r3
 1013 0468 0620     		movs	r0, #6
 1014 046a 1946     		mov	r1, r3
 1015 046c FFF7FEFF 		bl	_test_assert
 1016 0470 0346     		mov	r3, r0
 1017 0472 002B     		cmp	r3, #0
ARM GAS  /tmp/ccSzKpZi.s 			page 19


 1018 0474 00D0     		beq	.L59
 1019              		.loc 9 165 0 is_stmt 0 discriminator 1
 1020 0476 5BE0     		b	.L52
 1021              	.L59:
 1022              		.loc 9 170 0 is_stmt 1
 1023 0478 FFF7FEFF 		bl	test_wait_tick
 1024              		.loc 9 171 0
 1025 047c FFF7F8FD 		bl	chVTGetSystemTime
 1026 0480 0346     		mov	r3, r0
 1027 0482 03F5C343 		add	r3, r3, #24960
 1028 0486 2833     		adds	r3, r3, #40
 1029 0488 0393     		str	r3, [sp, #12]
 1030              		.loc 9 172 0
 1031 048a 0023     		movs	r3, #0
 1032 048c 0593     		str	r3, [sp, #20]
 1033 048e 39E0     		b	.L60
 1034              	.L64:
 1035              		.loc 9 173 0
 1036 0490 059B     		ldr	r3, [sp, #20]
 1037 0492 DBB2     		uxtb	r3, r3
 1038 0494 4133     		adds	r3, r3, #65
 1039 0496 DBB2     		uxtb	r3, r3
 1040 0498 1846     		mov	r0, r3
 1041 049a FFF7FEFF 		bl	test_emit_token
 1042              		.loc 9 174 0
 1043 049e 2548     		ldr	r0, .L66
 1044 04a0 41F28831 		movw	r1, #5000
 1045 04a4 FFF7FEFF 		bl	chSemWaitTimeout
 1046 04a8 0490     		str	r0, [sp, #16]
 1047              		.loc 9 175 0
 1048 04aa 049B     		ldr	r3, [sp, #16]
 1049 04ac B3F1FF3F 		cmp	r3, #-1
 1050 04b0 14BF     		ite	ne
 1051 04b2 0023     		movne	r3, #0
 1052 04b4 0123     		moveq	r3, #1
 1053 04b6 DBB2     		uxtb	r3, r3
 1054 04b8 0720     		movs	r0, #7
 1055 04ba 1946     		mov	r1, r3
 1056 04bc FFF7FEFF 		bl	_test_assert
 1057 04c0 0346     		mov	r3, r0
 1058 04c2 002B     		cmp	r3, #0
 1059 04c4 00D0     		beq	.L61
 1060              		.loc 9 175 0 is_stmt 0 discriminator 1
 1061 04c6 33E0     		b	.L52
 1062              	.L61:
 1063              		.loc 9 176 0 is_stmt 1
 1064 04c8 1A48     		ldr	r0, .L66
 1065 04ca FFF7A9FD 		bl	queue_isempty
 1066 04ce 0346     		mov	r3, r0
 1067 04d0 0820     		movs	r0, #8
 1068 04d2 1946     		mov	r1, r3
 1069 04d4 FFF7FEFF 		bl	_test_assert
 1070 04d8 0346     		mov	r3, r0
 1071 04da 002B     		cmp	r3, #0
 1072 04dc 00D0     		beq	.L62
 1073              		.loc 9 176 0 is_stmt 0 discriminator 1
 1074 04de 27E0     		b	.L52
ARM GAS  /tmp/ccSzKpZi.s 			page 20


 1075              	.L62:
 1076              		.loc 9 177 0 is_stmt 1
 1077 04e0 144B     		ldr	r3, .L66
 1078 04e2 9B68     		ldr	r3, [r3, #8]
 1079 04e4 002B     		cmp	r3, #0
 1080 04e6 14BF     		ite	ne
 1081 04e8 0023     		movne	r3, #0
 1082 04ea 0123     		moveq	r3, #1
 1083 04ec DBB2     		uxtb	r3, r3
 1084 04ee 0920     		movs	r0, #9
 1085 04f0 1946     		mov	r1, r3
 1086 04f2 FFF7FEFF 		bl	_test_assert
 1087 04f6 0346     		mov	r3, r0
 1088 04f8 002B     		cmp	r3, #0
 1089 04fa 00D0     		beq	.L63
 1090              		.loc 9 177 0 is_stmt 0 discriminator 1
 1091 04fc 18E0     		b	.L52
 1092              	.L63:
 1093              		.loc 9 172 0 is_stmt 1
 1094 04fe 059B     		ldr	r3, [sp, #20]
 1095 0500 0133     		adds	r3, r3, #1
 1096 0502 0593     		str	r3, [sp, #20]
 1097              	.L60:
 1098              		.loc 9 172 0 is_stmt 0 discriminator 1
 1099 0504 059B     		ldr	r3, [sp, #20]
 1100 0506 042B     		cmp	r3, #4
 1101 0508 C2DD     		ble	.L64
 1102              		.loc 9 179 0 is_stmt 1
 1103 050a 0A20     		movs	r0, #10
 1104 050c 0D49     		ldr	r1, .L66+16
 1105 050e FFF7FEFF 		bl	_test_assert_sequence
 1106 0512 0346     		mov	r3, r0
 1107 0514 002B     		cmp	r3, #0
 1108 0516 00D0     		beq	.L65
 1109              		.loc 9 179 0 is_stmt 0 discriminator 1
 1110 0518 0AE0     		b	.L52
 1111              	.L65:
 1112              		.loc 9 180 0 is_stmt 1
 1113 051a 039B     		ldr	r3, [sp, #12]
 1114 051c C833     		adds	r3, r3, #200
 1115 051e 0B20     		movs	r0, #11
 1116 0520 0399     		ldr	r1, [sp, #12]
 1117 0522 1A46     		mov	r2, r3
 1118 0524 FFF7FEFF 		bl	_test_assert_time_window
 1119 0528 0346     		mov	r3, r0
 1120 052a 002B     		cmp	r3, #0
 1121 052c 00D0     		beq	.L52
 1122              		.loc 9 180 0 is_stmt 0 discriminator 1
 1123 052e 00BF     		nop
 1124              	.L52:
 1125              		.loc 9 181 0 is_stmt 1
 1126 0530 06B0     		add	sp, sp, #24
 1127              		@ sp needed
 1128 0532 10BD     		pop	{r4, pc}
 1129              	.L67:
 1130              		.align	2
 1131              	.L66:
ARM GAS  /tmp/ccSzKpZi.s 			page 21


 1132 0534 00000000 		.word	sem1
 1133 0538 00000000 		.word	wa
 1134 053c 00000000 		.word	thread2
 1135 0540 00000000 		.word	threads
 1136 0544 14000000 		.word	.LC5
 1137              		.cfi_endproc
 1138              	.LFE235:
 1139              		.size	sem2_execute, .-sem2_execute
 1140              		.global	testsem2
 1141              		.section	.rodata
 1142              		.align	2
 1143              	.LC7:
 1144 0044 53656D61 		.ascii	"Semaphores, timeout\000"
 1144      70686F72 
 1144      65732C20 
 1144      74696D65 
 1144      6F757400 
 1145              		.align	2
 1146              		.type	testsem2, %object
 1147              		.size	testsem2, 16
 1148              	testsem2:
 1149 0058 44000000 		.word	.LC7
 1150 005c 00000000 		.word	sem2_setup
 1151 0060 00000000 		.word	0
 1152 0064 00000000 		.word	sem2_execute
 1153              		.text
 1154              		.align	2
 1155 0548 AFF30080 		.p2align 4,,15
 1155      AFF30080 
 1156              		.thumb
 1157              		.thumb_func
 1158              		.type	sem3_setup, %function
 1159              	sem3_setup:
 1160              	.LFB236:
 1161              		.loc 9 202 0
 1162              		.cfi_startproc
 1163              		@ args = 0, pretend = 0, frame = 0
 1164              		@ frame_needed = 0, uses_anonymous_args = 0
 1165 0550 08B5     		push	{r3, lr}
 1166              		.cfi_def_cfa_offset 8
 1167              		.cfi_offset 3, -8
 1168              		.cfi_offset 14, -4
 1169              		.loc 9 204 0
 1170 0552 0248     		ldr	r0, .L69
 1171 0554 0021     		movs	r1, #0
 1172 0556 FFF7FEFF 		bl	chSemObjectInit
 1173              		.loc 9 205 0
 1174 055a 08BD     		pop	{r3, pc}
 1175              	.L70:
 1176              		.align	2
 1177              	.L69:
 1178 055c 00000000 		.word	sem1
 1179              		.cfi_endproc
 1180              	.LFE236:
 1181              		.size	sem3_setup, .-sem3_setup
 1182              		.align	2
 1183              		.p2align 4,,15
ARM GAS  /tmp/ccSzKpZi.s 			page 22


 1184              		.thumb
 1185              		.thumb_func
 1186              		.type	thread3, %function
 1187              	thread3:
 1188              	.LFB237:
 1189              		.loc 9 207 0
 1190              		.cfi_startproc
 1191              		@ args = 0, pretend = 0, frame = 8
 1192              		@ frame_needed = 0, uses_anonymous_args = 0
 1193 0560 00B5     		push	{lr}
 1194              		.cfi_def_cfa_offset 4
 1195              		.cfi_offset 14, -4
 1196 0562 83B0     		sub	sp, sp, #12
 1197              		.cfi_def_cfa_offset 16
 1198 0564 0190     		str	r0, [sp, #4]
 1199              		.loc 9 210 0
 1200 0566 0448     		ldr	r0, .L72
 1201 0568 FFF7FEFF 		bl	chSemWait
 1202              		.loc 9 211 0
 1203 056c 0248     		ldr	r0, .L72
 1204 056e FFF7FEFF 		bl	chSemSignal
 1205              		.loc 9 212 0
 1206 0572 03B0     		add	sp, sp, #12
 1207              		@ sp needed
 1208 0574 5DF804FB 		ldr	pc, [sp], #4
 1209              	.L73:
 1210              		.align	2
 1211              	.L72:
 1212 0578 00000000 		.word	sem1
 1213              		.cfi_endproc
 1214              	.LFE237:
 1215              		.size	thread3, .-thread3
 1216              		.align	2
 1217 057c AFF30080 		.p2align 4,,15
 1218              		.thumb
 1219              		.thumb_func
 1220              		.type	sem3_execute, %function
 1221              	sem3_execute:
 1222              	.LFB238:
 1223              		.loc 9 214 0
 1224              		.cfi_startproc
 1225              		@ args = 0, pretend = 0, frame = 0
 1226              		@ frame_needed = 0, uses_anonymous_args = 0
 1227 0580 10B5     		push	{r4, lr}
 1228              		.cfi_def_cfa_offset 8
 1229              		.cfi_offset 4, -8
 1230              		.cfi_offset 14, -4
 1231 0582 82B0     		sub	sp, sp, #8
 1232              		.cfi_def_cfa_offset 16
 1233              		.loc 9 216 0
 1234 0584 284B     		ldr	r3, .L79
 1235 0586 1C68     		ldr	r4, [r3]
 1236 0588 FFF78AFD 		bl	chThdGetPriorityX
 1237 058c 0346     		mov	r3, r0
 1238 058e 0133     		adds	r3, r3, #1
 1239 0590 0022     		movs	r2, #0
 1240 0592 0092     		str	r2, [sp]
ARM GAS  /tmp/ccSzKpZi.s 			page 23


 1241 0594 2046     		mov	r0, r4
 1242 0596 4FF4A471 		mov	r1, #328
 1243 059a 1A46     		mov	r2, r3
 1244 059c 234B     		ldr	r3, .L79+4
 1245 059e FFF7FEFF 		bl	chThdCreateStatic
 1246 05a2 0246     		mov	r2, r0
 1247 05a4 224B     		ldr	r3, .L79+8
 1248 05a6 1A60     		str	r2, [r3]
 1249              		.loc 9 217 0
 1250 05a8 2248     		ldr	r0, .L79+12
 1251 05aa 2249     		ldr	r1, .L79+12
 1252 05ac FFF7FEFF 		bl	chSemSignalWait
 1253              		.loc 9 218 0
 1254 05b0 2048     		ldr	r0, .L79+12
 1255 05b2 FFF735FD 		bl	queue_isempty
 1256 05b6 0346     		mov	r3, r0
 1257 05b8 0120     		movs	r0, #1
 1258 05ba 1946     		mov	r1, r3
 1259 05bc FFF7FEFF 		bl	_test_assert
 1260 05c0 0346     		mov	r3, r0
 1261 05c2 002B     		cmp	r3, #0
 1262 05c4 00D0     		beq	.L75
 1263              		.loc 9 218 0 is_stmt 0 discriminator 1
 1264 05c6 2DE0     		b	.L74
 1265              	.L75:
 1266              		.loc 9 219 0 is_stmt 1
 1267 05c8 1A4B     		ldr	r3, .L79+12
 1268 05ca 9B68     		ldr	r3, [r3, #8]
 1269 05cc 002B     		cmp	r3, #0
 1270 05ce 14BF     		ite	ne
 1271 05d0 0023     		movne	r3, #0
 1272 05d2 0123     		moveq	r3, #1
 1273 05d4 DBB2     		uxtb	r3, r3
 1274 05d6 0220     		movs	r0, #2
 1275 05d8 1946     		mov	r1, r3
 1276 05da FFF7FEFF 		bl	_test_assert
 1277 05de 0346     		mov	r3, r0
 1278 05e0 002B     		cmp	r3, #0
 1279 05e2 00D0     		beq	.L77
 1280              		.loc 9 219 0 is_stmt 0 discriminator 1
 1281 05e4 1EE0     		b	.L74
 1282              	.L77:
 1283              		.loc 9 221 0 is_stmt 1
 1284 05e6 1348     		ldr	r0, .L79+12
 1285 05e8 1249     		ldr	r1, .L79+12
 1286 05ea FFF7FEFF 		bl	chSemSignalWait
 1287              		.loc 9 222 0
 1288 05ee 1148     		ldr	r0, .L79+12
 1289 05f0 FFF716FD 		bl	queue_isempty
 1290 05f4 0346     		mov	r3, r0
 1291 05f6 0320     		movs	r0, #3
 1292 05f8 1946     		mov	r1, r3
 1293 05fa FFF7FEFF 		bl	_test_assert
 1294 05fe 0346     		mov	r3, r0
 1295 0600 002B     		cmp	r3, #0
 1296 0602 00D0     		beq	.L78
 1297              		.loc 9 222 0 is_stmt 0 discriminator 1
ARM GAS  /tmp/ccSzKpZi.s 			page 24


 1298 0604 0EE0     		b	.L74
 1299              	.L78:
 1300              		.loc 9 223 0 is_stmt 1
 1301 0606 0B4B     		ldr	r3, .L79+12
 1302 0608 9B68     		ldr	r3, [r3, #8]
 1303 060a 002B     		cmp	r3, #0
 1304 060c 14BF     		ite	ne
 1305 060e 0023     		movne	r3, #0
 1306 0610 0123     		moveq	r3, #1
 1307 0612 DBB2     		uxtb	r3, r3
 1308 0614 0420     		movs	r0, #4
 1309 0616 1946     		mov	r1, r3
 1310 0618 FFF7FEFF 		bl	_test_assert
 1311 061c 0346     		mov	r3, r0
 1312 061e 002B     		cmp	r3, #0
 1313 0620 00D0     		beq	.L74
 1314              		.loc 9 223 0 is_stmt 0 discriminator 1
 1315 0622 00BF     		nop
 1316              	.L74:
 1317              		.loc 9 224 0 is_stmt 1
 1318 0624 02B0     		add	sp, sp, #8
 1319              		@ sp needed
 1320 0626 10BD     		pop	{r4, pc}
 1321              	.L80:
 1322              		.align	2
 1323              	.L79:
 1324 0628 00000000 		.word	wa
 1325 062c 00000000 		.word	thread3
 1326 0630 00000000 		.word	threads
 1327 0634 00000000 		.word	sem1
 1328              		.cfi_endproc
 1329              	.LFE238:
 1330              		.size	sem3_execute, .-sem3_execute
 1331              		.global	testsem3
 1332              		.section	.rodata
 1333              		.align	2
 1334              	.LC8:
 1335 0068 53656D61 		.ascii	"Semaphores, atomic signal-wait\000"
 1335      70686F72 
 1335      65732C20 
 1335      61746F6D 
 1335      69632073 
 1336 0087 00       		.align	2
 1337              		.type	testsem3, %object
 1338              		.size	testsem3, 16
 1339              	testsem3:
 1340 0088 68000000 		.word	.LC8
 1341 008c 00000000 		.word	sem3_setup
 1342 0090 00000000 		.word	0
 1343 0094 00000000 		.word	sem3_execute
 1344              		.text
 1345              		.align	2
 1346 0638 AFF30080 		.p2align 4,,15
 1346      AFF30080 
 1347              		.thumb
 1348              		.thumb_func
 1349              		.type	thread4, %function
ARM GAS  /tmp/ccSzKpZi.s 			page 25


 1350              	thread4:
 1351              	.LFB239:
 1352              		.loc 9 241 0
 1353              		.cfi_startproc
 1354              		@ args = 0, pretend = 0, frame = 8
 1355              		@ frame_needed = 0, uses_anonymous_args = 0
 1356 0640 00B5     		push	{lr}
 1357              		.cfi_def_cfa_offset 4
 1358              		.cfi_offset 14, -4
 1359 0642 83B0     		sub	sp, sp, #12
 1360              		.cfi_def_cfa_offset 16
 1361 0644 0190     		str	r0, [sp, #4]
 1362              		.loc 9 243 0
 1363 0646 0198     		ldr	r0, [sp, #4]
 1364 0648 FFF78AFD 		bl	chBSemSignal
 1365              		.loc 9 244 0
 1366 064c 03B0     		add	sp, sp, #12
 1367              		@ sp needed
 1368 064e 5DF804FB 		ldr	pc, [sp], #4
 1369              		.cfi_endproc
 1370              	.LFE239:
 1371              		.size	thread4, .-thread4
 1372 0652 00BF     		.align	2
 1373 0654 AFF30080 		.p2align 4,,15
 1373      AFF30080 
 1373      AFF30080 
 1374              		.thumb
 1375              		.thumb_func
 1376              		.type	sem4_execute, %function
 1377              	sem4_execute:
 1378              	.LFB240:
 1379              		.loc 9 246 0
 1380              		.cfi_startproc
 1381              		@ args = 0, pretend = 0, frame = 16
 1382              		@ frame_needed = 0, uses_anonymous_args = 0
 1383 0660 10B5     		push	{r4, lr}
 1384              		.cfi_def_cfa_offset 8
 1385              		.cfi_offset 4, -8
 1386              		.cfi_offset 14, -4
 1387 0662 86B0     		sub	sp, sp, #24
 1388              		.cfi_def_cfa_offset 32
 1389              		.loc 9 250 0
 1390 0664 03AB     		add	r3, sp, #12
 1391 0666 1846     		mov	r0, r3
 1392 0668 0121     		movs	r1, #1
 1393 066a FFF729FD 		bl	chBSemObjectInit
 1394              		.loc 9 251 0
 1395 066e 03AB     		add	r3, sp, #12
 1396 0670 1846     		mov	r0, r3
 1397 0672 0121     		movs	r1, #1
 1398 0674 FFF74CFD 		bl	chBSemReset
 1399              		.loc 9 252 0
 1400 0678 FFF7E2FC 		bl	chSysLock
 1401 067c 03AB     		add	r3, sp, #12
 1402 067e 1846     		mov	r0, r3
 1403 0680 FFF77EFD 		bl	chBSemGetStateI
 1404 0684 0346     		mov	r3, r0
ARM GAS  /tmp/ccSzKpZi.s 			page 26


 1405 0686 002B     		cmp	r3, #0
 1406 0688 0CBF     		ite	eq
 1407 068a 0023     		moveq	r3, #0
 1408 068c 0123     		movne	r3, #1
 1409 068e DBB2     		uxtb	r3, r3
 1410 0690 0120     		movs	r0, #1
 1411 0692 1946     		mov	r1, r3
 1412 0694 FFF7FEFF 		bl	_test_assert
 1413 0698 0346     		mov	r3, r0
 1414 069a 002B     		cmp	r3, #0
 1415 069c 02D0     		beq	.L83
 1416              		.loc 9 252 0 is_stmt 0 discriminator 1
 1417 069e FFF7D7FC 		bl	chSysUnlock
 1418 06a2 A3E0     		b	.L82
 1419              	.L83:
 1420              		.loc 9 252 0 discriminator 2
 1421 06a4 FFF7D4FC 		bl	chSysUnlock
 1422              		.loc 9 255 0 is_stmt 1 discriminator 2
 1423 06a8 514B     		ldr	r3, .L91
 1424 06aa 1C68     		ldr	r4, [r3]
 1425              		.loc 9 256 0 discriminator 2
 1426 06ac FFF7F8FC 		bl	chThdGetPriorityX
 1427 06b0 0346     		mov	r3, r0
 1428              		.loc 9 255 0 discriminator 2
 1429 06b2 013B     		subs	r3, r3, #1
 1430 06b4 03AA     		add	r2, sp, #12
 1431 06b6 0092     		str	r2, [sp]
 1432 06b8 2046     		mov	r0, r4
 1433 06ba 4FF4A471 		mov	r1, #328
 1434 06be 1A46     		mov	r2, r3
 1435 06c0 4C4B     		ldr	r3, .L91+4
 1436 06c2 FFF7FEFF 		bl	chThdCreateStatic
 1437 06c6 0246     		mov	r2, r0
 1438 06c8 4B4B     		ldr	r3, .L91+8
 1439 06ca 1A60     		str	r2, [r3]
 1440              		.loc 9 259 0 discriminator 2
 1441 06cc 03AB     		add	r3, sp, #12
 1442 06ce 1846     		mov	r0, r3
 1443 06d0 FFF70EFD 		bl	chBSemWait
 1444              		.loc 9 262 0 discriminator 2
 1445 06d4 FFF7B4FC 		bl	chSysLock
 1446 06d8 03AB     		add	r3, sp, #12
 1447 06da 1846     		mov	r0, r3
 1448 06dc FFF750FD 		bl	chBSemGetStateI
 1449 06e0 0346     		mov	r3, r0
 1450 06e2 002B     		cmp	r3, #0
 1451 06e4 0CBF     		ite	eq
 1452 06e6 0023     		moveq	r3, #0
 1453 06e8 0123     		movne	r3, #1
 1454 06ea DBB2     		uxtb	r3, r3
 1455 06ec 0220     		movs	r0, #2
 1456 06ee 1946     		mov	r1, r3
 1457 06f0 FFF7FEFF 		bl	_test_assert
 1458 06f4 0346     		mov	r3, r0
 1459 06f6 002B     		cmp	r3, #0
 1460 06f8 02D0     		beq	.L85
 1461              		.loc 9 262 0 is_stmt 0 discriminator 1
ARM GAS  /tmp/ccSzKpZi.s 			page 27


 1462 06fa FFF7A9FC 		bl	chSysUnlock
 1463 06fe 75E0     		b	.L82
 1464              	.L85:
 1465              		.loc 9 262 0 discriminator 2
 1466 0700 FFF7A6FC 		bl	chSysUnlock
 1467              		.loc 9 266 0 is_stmt 1 discriminator 2
 1468 0704 03AB     		add	r3, sp, #12
 1469 0706 1846     		mov	r0, r3
 1470 0708 FFF72AFD 		bl	chBSemSignal
 1471              		.loc 9 267 0 discriminator 2
 1472 070c FFF798FC 		bl	chSysLock
 1473 0710 03AB     		add	r3, sp, #12
 1474 0712 1846     		mov	r0, r3
 1475 0714 FFF734FD 		bl	chBSemGetStateI
 1476 0718 0346     		mov	r3, r0
 1477 071a 002B     		cmp	r3, #0
 1478 071c 0CBF     		ite	eq
 1479 071e 0023     		moveq	r3, #0
 1480 0720 0123     		movne	r3, #1
 1481 0722 DBB2     		uxtb	r3, r3
 1482 0724 83F00103 		eor	r3, r3, #1
 1483 0728 DBB2     		uxtb	r3, r3
 1484 072a 03F00103 		and	r3, r3, #1
 1485 072e DBB2     		uxtb	r3, r3
 1486 0730 0320     		movs	r0, #3
 1487 0732 1946     		mov	r1, r3
 1488 0734 FFF7FEFF 		bl	_test_assert
 1489 0738 0346     		mov	r3, r0
 1490 073a 002B     		cmp	r3, #0
 1491 073c 02D0     		beq	.L86
 1492              		.loc 9 267 0 is_stmt 0 discriminator 1
 1493 073e FFF787FC 		bl	chSysUnlock
 1494 0742 53E0     		b	.L82
 1495              	.L86:
 1496              		.loc 9 267 0 discriminator 2
 1497 0744 FFF784FC 		bl	chSysUnlock
 1498              		.loc 9 268 0 is_stmt 1 discriminator 2
 1499 0748 FFF77AFC 		bl	chSysLock
 1500 074c 03AB     		add	r3, sp, #12
 1501 074e 1846     		mov	r0, r3
 1502 0750 FFF7AEFC 		bl	chSemGetCounterI
 1503 0754 0346     		mov	r3, r0
 1504 0756 012B     		cmp	r3, #1
 1505 0758 14BF     		ite	ne
 1506 075a 0023     		movne	r3, #0
 1507 075c 0123     		moveq	r3, #1
 1508 075e DBB2     		uxtb	r3, r3
 1509 0760 0420     		movs	r0, #4
 1510 0762 1946     		mov	r1, r3
 1511 0764 FFF7FEFF 		bl	_test_assert
 1512 0768 0346     		mov	r3, r0
 1513 076a 002B     		cmp	r3, #0
 1514 076c 02D0     		beq	.L87
 1515              		.loc 9 268 0 is_stmt 0 discriminator 1
 1516 076e FFF76FFC 		bl	chSysUnlock
 1517 0772 3BE0     		b	.L82
 1518              	.L87:
ARM GAS  /tmp/ccSzKpZi.s 			page 28


 1519              		.loc 9 268 0 discriminator 2
 1520 0774 FFF76CFC 		bl	chSysUnlock
 1521              		.loc 9 271 0 is_stmt 1 discriminator 2
 1522 0778 03AB     		add	r3, sp, #12
 1523 077a 1846     		mov	r0, r3
 1524 077c FFF7F0FC 		bl	chBSemSignal
 1525              		.loc 9 272 0 discriminator 2
 1526 0780 FFF75EFC 		bl	chSysLock
 1527 0784 03AB     		add	r3, sp, #12
 1528 0786 1846     		mov	r0, r3
 1529 0788 FFF7FAFC 		bl	chBSemGetStateI
 1530 078c 0346     		mov	r3, r0
 1531 078e 002B     		cmp	r3, #0
 1532 0790 0CBF     		ite	eq
 1533 0792 0023     		moveq	r3, #0
 1534 0794 0123     		movne	r3, #1
 1535 0796 DBB2     		uxtb	r3, r3
 1536 0798 83F00103 		eor	r3, r3, #1
 1537 079c DBB2     		uxtb	r3, r3
 1538 079e 03F00103 		and	r3, r3, #1
 1539 07a2 DBB2     		uxtb	r3, r3
 1540 07a4 0320     		movs	r0, #3
 1541 07a6 1946     		mov	r1, r3
 1542 07a8 FFF7FEFF 		bl	_test_assert
 1543 07ac 0346     		mov	r3, r0
 1544 07ae 002B     		cmp	r3, #0
 1545 07b0 02D0     		beq	.L88
 1546              		.loc 9 272 0 is_stmt 0 discriminator 1
 1547 07b2 FFF74DFC 		bl	chSysUnlock
 1548 07b6 19E0     		b	.L82
 1549              	.L88:
 1550              		.loc 9 272 0 discriminator 2
 1551 07b8 FFF74AFC 		bl	chSysUnlock
 1552              		.loc 9 273 0 is_stmt 1 discriminator 2
 1553 07bc FFF740FC 		bl	chSysLock
 1554 07c0 03AB     		add	r3, sp, #12
 1555 07c2 1846     		mov	r0, r3
 1556 07c4 FFF774FC 		bl	chSemGetCounterI
 1557 07c8 0346     		mov	r3, r0
 1558 07ca 012B     		cmp	r3, #1
 1559 07cc 14BF     		ite	ne
 1560 07ce 0023     		movne	r3, #0
 1561 07d0 0123     		moveq	r3, #1
 1562 07d2 DBB2     		uxtb	r3, r3
 1563 07d4 0520     		movs	r0, #5
 1564 07d6 1946     		mov	r1, r3
 1565 07d8 FFF7FEFF 		bl	_test_assert
 1566 07dc 0346     		mov	r3, r0
 1567 07de 002B     		cmp	r3, #0
 1568 07e0 02D0     		beq	.L89
 1569              		.loc 9 273 0 is_stmt 0 discriminator 1
 1570 07e2 FFF735FC 		bl	chSysUnlock
 1571 07e6 01E0     		b	.L82
 1572              	.L89:
 1573              		.loc 9 273 0 discriminator 2
 1574 07e8 FFF732FC 		bl	chSysUnlock
 1575              	.L82:
ARM GAS  /tmp/ccSzKpZi.s 			page 29


 1576              		.loc 9 274 0 is_stmt 1
 1577 07ec 06B0     		add	sp, sp, #24
 1578              		@ sp needed
 1579 07ee 10BD     		pop	{r4, pc}
 1580              	.L92:
 1581              		.align	2
 1582              	.L91:
 1583 07f0 00000000 		.word	wa
 1584 07f4 00000000 		.word	thread4
 1585 07f8 00000000 		.word	threads
 1586              		.cfi_endproc
 1587              	.LFE240:
 1588              		.size	sem4_execute, .-sem4_execute
 1589              		.global	testsem4
 1590              		.section	.rodata
 1591              		.align	2
 1592              	.LC9:
 1593 0098 42696E61 		.ascii	"Binary Semaphores, functionality\000"
 1593      72792053 
 1593      656D6170 
 1593      686F7265 
 1593      732C2066 
 1594 00b9 000000   		.align	2
 1595              		.type	testsem4, %object
 1596              		.size	testsem4, 16
 1597              	testsem4:
 1598 00bc 98000000 		.word	.LC9
 1599 00c0 00000000 		.word	0
 1600 00c4 00000000 		.word	0
 1601 00c8 00000000 		.word	sem4_execute
 1602              		.global	patternsem
 1603              		.align	2
 1604              		.type	patternsem, %object
 1605              		.size	patternsem, 20
 1606              	patternsem:
 1607 00cc 00000000 		.word	testsem1
 1608 00d0 00000000 		.word	testsem2
 1609 00d4 00000000 		.word	testsem3
 1610 00d8 00000000 		.word	testsem4
 1611 00dc 00000000 		.word	0
 1612              		.text
 1613              	.Letext0:
 1614              		.file 10 "/nfs/nfs5/home/research/hardware/arm2/gcc-arm-embedded/gcc-arm-none-eabi-4_8-2014q2/lib/
 1615              		.file 11 "/nfs/nfs5/home/research/hardware/arm2/gcc-arm-embedded/gcc-arm-none-eabi-4_8-2014q2/arm-
 1616              		.file 12 "/nfs/nfs5/home/research/hardware/arm2/gcc-arm-embedded/gcc-arm-none-eabi-4_8-2014q2/arm-
 1617              		.file 13 "../../ChibiOS/os/rt/ports/ARMCMx/compilers/GCC/chtypes.h"
 1618              		.file 14 "../../ChibiOS/os/rt/include/chsystypes.h"
 1619              		.file 15 "../../ChibiOS/os/rt/ports/ARMCMx/chcore.h"
 1620              		.file 16 "../../ChibiOS/os/rt/include/chtm.h"
 1621              		.file 17 "../../ChibiOS/os/rt/include/chmtx.h"
 1622              		.file 18 "../../ChibiOS/test/rt/test.h"
 1623              		.file 19 "../../ChibiOS/os/ext/CMSIS/include/core_cm4.h"