ARM GAS  /tmp/ccibaLH2.s 			page 1


   1              		.syntax unified
   2              		.cpu cortex-m4
   3              		.fpu softvfp
   4              		.eabi_attribute 20, 1
   5              		.eabi_attribute 21, 1
   6              		.eabi_attribute 23, 3
   7              		.eabi_attribute 24, 1
   8              		.eabi_attribute 25, 1
   9              		.eabi_attribute 26, 1
  10              		.eabi_attribute 30, 6
  11              		.eabi_attribute 34, 1
  12              		.eabi_attribute 18, 4
  13              		.thumb
  14              		.file	"testsys.c"
  15              		.text
  16              	.Ltext0:
  17              		.cfi_sections	.debug_frame
  18              		.align	2
  19              		.p2align 4,,15
  20              		.thumb
  21              		.thumb_func
  22              		.type	port_get_irq_status, %function
  23              	port_get_irq_status:
  24              	.LFB124:
  25              		.file 1 "../../ChibiOS/os/rt/ports/ARMCMx/chcore_v7m.h"
  26              		.loc 1 410 0
  27              		.cfi_startproc
  28              		@ args = 0, pretend = 0, frame = 8
  29              		@ frame_needed = 0, uses_anonymous_args = 0
  30              		@ link register save eliminated.
  31 0000 82B0     		sub	sp, sp, #8
  32              		.cfi_def_cfa_offset 8
  33              	.LBB18:
  34              	.LBB19:
  35              		.file 2 "../../ChibiOS/os/ext/CMSIS/include/core_cmFunc.h"
  36              		.loc 2 535 0
  37              	@ 535 "../../ChibiOS/os/ext/CMSIS/include/core_cmFunc.h" 1
  38 0002 EFF31183 		MRS r3, basepri
  39              	@ 0 "" 2
  40              		.thumb
  41 0006 0093     		str	r3, [sp]
  42              		.loc 2 536 0
  43 0008 009B     		ldr	r3, [sp]
  44              	.LBE19:
  45              	.LBE18:
  46              		.loc 1 414 0
  47 000a 0193     		str	r3, [sp, #4]
  48              		.loc 1 418 0
  49 000c 019B     		ldr	r3, [sp, #4]
  50              		.loc 1 419 0
  51 000e 1846     		mov	r0, r3
  52 0010 02B0     		add	sp, sp, #8
  53              		@ sp needed
  54 0012 7047     		bx	lr
  55              		.cfi_endproc
  56              	.LFE124:
  57              		.size	port_get_irq_status, .-port_get_irq_status
ARM GAS  /tmp/ccibaLH2.s 			page 2


  58              		.align	2
  59 0014 AFF30080 		.p2align 4,,15
  59      AFF30080 
  59      AFF30080 
  60              		.thumb
  61              		.thumb_func
  62              		.type	port_irq_enabled, %function
  63              	port_irq_enabled:
  64              	.LFB125:
  65              		.loc 1 430 0
  66              		.cfi_startproc
  67              		@ args = 0, pretend = 0, frame = 8
  68              		@ frame_needed = 0, uses_anonymous_args = 0
  69              		@ link register save eliminated.
  70 0020 82B0     		sub	sp, sp, #8
  71              		.cfi_def_cfa_offset 8
  72 0022 0190     		str	r0, [sp, #4]
  73              		.loc 1 433 0
  74 0024 019B     		ldr	r3, [sp, #4]
  75 0026 002B     		cmp	r3, #0
  76 0028 14BF     		ite	ne
  77 002a 0023     		movne	r3, #0
  78 002c 0123     		moveq	r3, #1
  79 002e DBB2     		uxtb	r3, r3
  80              		.loc 1 437 0
  81 0030 1846     		mov	r0, r3
  82 0032 02B0     		add	sp, sp, #8
  83              		@ sp needed
  84 0034 7047     		bx	lr
  85              		.cfi_endproc
  86              	.LFE125:
  87              		.size	port_irq_enabled, .-port_irq_enabled
  88 0036 00BF     		.align	2
  89 0038 AFF30080 		.p2align 4,,15
  89      AFF30080 
  90              		.thumb
  91              		.thumb_func
  92              		.type	port_lock, %function
  93              	port_lock:
  94              	.LFB127:
  95              		.loc 1 456 0
  96              		.cfi_startproc
  97              		@ args = 0, pretend = 0, frame = 8
  98              		@ frame_needed = 0, uses_anonymous_args = 0
  99              		@ link register save eliminated.
 100 0040 82B0     		sub	sp, sp, #8
 101              		.cfi_def_cfa_offset 8
 102 0042 2023     		movs	r3, #32
 103 0044 0193     		str	r3, [sp, #4]
 104              	.LBB20:
 105              	.LBB21:
 106              		.loc 2 548 0
 107 0046 019B     		ldr	r3, [sp, #4]
 108              	@ 548 "../../ChibiOS/os/ext/CMSIS/include/core_cmFunc.h" 1
 109 0048 83F31188 		MSR basepri, r3
 110              	@ 0 "" 2
 111              		.thumb
ARM GAS  /tmp/ccibaLH2.s 			page 3


 112              	.LBE21:
 113              	.LBE20:
 114              		.loc 1 473 0
 115 004c 02B0     		add	sp, sp, #8
 116              		@ sp needed
 117 004e 7047     		bx	lr
 118              		.cfi_endproc
 119              	.LFE127:
 120              		.size	port_lock, .-port_lock
 121              		.align	2
 122              		.p2align 4,,15
 123              		.thumb
 124              		.thumb_func
 125              		.type	port_unlock, %function
 126              	port_unlock:
 127              	.LFB128:
 128              		.loc 1 480 0
 129              		.cfi_startproc
 130              		@ args = 0, pretend = 0, frame = 8
 131              		@ frame_needed = 0, uses_anonymous_args = 0
 132              		@ link register save eliminated.
 133 0050 82B0     		sub	sp, sp, #8
 134              		.cfi_def_cfa_offset 8
 135 0052 0023     		movs	r3, #0
 136 0054 0193     		str	r3, [sp, #4]
 137              	.LBB22:
 138              	.LBB23:
 139              		.loc 2 548 0
 140 0056 019B     		ldr	r3, [sp, #4]
 141              	@ 548 "../../ChibiOS/os/ext/CMSIS/include/core_cmFunc.h" 1
 142 0058 83F31188 		MSR basepri, r3
 143              	@ 0 "" 2
 144              		.thumb
 145              	.LBE23:
 146              	.LBE22:
 147              		.loc 1 487 0
 148 005c 02B0     		add	sp, sp, #8
 149              		@ sp needed
 150 005e 7047     		bx	lr
 151              		.cfi_endproc
 152              	.LFE128:
 153              		.size	port_unlock, .-port_unlock
 154              		.align	2
 155              		.p2align 4,,15
 156              		.thumb
 157              		.thumb_func
 158              		.type	port_lock_from_isr, %function
 159              	port_lock_from_isr:
 160              	.LFB129:
 161              		.loc 1 495 0
 162              		.cfi_startproc
 163              		@ args = 0, pretend = 0, frame = 0
 164              		@ frame_needed = 0, uses_anonymous_args = 0
 165 0060 08B5     		push	{r3, lr}
 166              		.cfi_def_cfa_offset 8
 167              		.cfi_offset 3, -8
 168              		.cfi_offset 14, -4
ARM GAS  /tmp/ccibaLH2.s 			page 4


 169              		.loc 1 497 0
 170 0062 FFF7EDFF 		bl	port_lock
 171              		.loc 1 498 0
 172 0066 08BD     		pop	{r3, pc}
 173              		.cfi_endproc
 174              	.LFE129:
 175              		.size	port_lock_from_isr, .-port_lock_from_isr
 176              		.align	2
 177 0068 AFF30080 		.p2align 4,,15
 177      AFF30080 
 178              		.thumb
 179              		.thumb_func
 180              		.type	port_unlock_from_isr, %function
 181              	port_unlock_from_isr:
 182              	.LFB130:
 183              		.loc 1 506 0
 184              		.cfi_startproc
 185              		@ args = 0, pretend = 0, frame = 0
 186              		@ frame_needed = 0, uses_anonymous_args = 0
 187 0070 08B5     		push	{r3, lr}
 188              		.cfi_def_cfa_offset 8
 189              		.cfi_offset 3, -8
 190              		.cfi_offset 14, -4
 191              		.loc 1 508 0
 192 0072 FFF7EDFF 		bl	port_unlock
 193              		.loc 1 509 0
 194 0076 08BD     		pop	{r3, pc}
 195              		.cfi_endproc
 196              	.LFE130:
 197              		.size	port_unlock_from_isr, .-port_unlock_from_isr
 198              		.align	2
 199 0078 AFF30080 		.p2align 4,,15
 199      AFF30080 
 200              		.thumb
 201              		.thumb_func
 202              		.type	port_disable, %function
 203              	port_disable:
 204              	.LFB131:
 205              		.loc 1 516 0
 206              		.cfi_startproc
 207              		@ args = 0, pretend = 0, frame = 0
 208              		@ frame_needed = 0, uses_anonymous_args = 0
 209              		@ link register save eliminated.
 210              	.LBB24:
 211              	.LBB25:
 212              		.loc 2 344 0
 213              	@ 344 "../../ChibiOS/os/ext/CMSIS/include/core_cmFunc.h" 1
 214 0080 72B6     		cpsid i
 215              	@ 0 "" 2
 216              		.thumb
 217              	.LBE25:
 218              	.LBE24:
 219              		.loc 1 519 0
 220 0082 7047     		bx	lr
 221              		.cfi_endproc
 222              	.LFE131:
 223              		.size	port_disable, .-port_disable
ARM GAS  /tmp/ccibaLH2.s 			page 5


 224              		.align	2
 225 0084 AFF30080 		.p2align 4,,15
 225      AFF30080 
 225      AFF30080 
 226              		.thumb
 227              		.thumb_func
 228              		.type	port_suspend, %function
 229              	port_suspend:
 230              	.LFB132:
 231              		.loc 1 526 0
 232              		.cfi_startproc
 233              		@ args = 0, pretend = 0, frame = 8
 234              		@ frame_needed = 0, uses_anonymous_args = 0
 235              		@ link register save eliminated.
 236 0090 82B0     		sub	sp, sp, #8
 237              		.cfi_def_cfa_offset 8
 238 0092 2023     		movs	r3, #32
 239 0094 0193     		str	r3, [sp, #4]
 240              	.LBB26:
 241              	.LBB27:
 242              		.loc 2 548 0
 243 0096 019B     		ldr	r3, [sp, #4]
 244              	@ 548 "../../ChibiOS/os/ext/CMSIS/include/core_cmFunc.h" 1
 245 0098 83F31188 		MSR basepri, r3
 246              	@ 0 "" 2
 247              		.thumb
 248              	.LBE27:
 249              	.LBE26:
 250              	.LBB28:
 251              	.LBB29:
 252              		.loc 2 333 0
 253              	@ 333 "../../ChibiOS/os/ext/CMSIS/include/core_cmFunc.h" 1
 254 009c 62B6     		cpsie i
 255              	@ 0 "" 2
 256              		.thumb
 257              	.LBE29:
 258              	.LBE28:
 259              		.loc 1 534 0
 260 009e 02B0     		add	sp, sp, #8
 261              		@ sp needed
 262 00a0 7047     		bx	lr
 263              		.cfi_endproc
 264              	.LFE132:
 265              		.size	port_suspend, .-port_suspend
 266 00a2 00BF     		.align	2
 267 00a4 AFF30080 		.p2align 4,,15
 267      AFF30080 
 267      AFF30080 
 268              		.thumb
 269              		.thumb_func
 270              		.type	port_enable, %function
 271              	port_enable:
 272              	.LFB133:
 273              		.loc 1 540 0
 274              		.cfi_startproc
 275              		@ args = 0, pretend = 0, frame = 8
 276              		@ frame_needed = 0, uses_anonymous_args = 0
ARM GAS  /tmp/ccibaLH2.s 			page 6


 277              		@ link register save eliminated.
 278 00b0 82B0     		sub	sp, sp, #8
 279              		.cfi_def_cfa_offset 8
 280 00b2 0023     		movs	r3, #0
 281 00b4 0193     		str	r3, [sp, #4]
 282              	.LBB30:
 283              	.LBB31:
 284              		.loc 2 548 0
 285 00b6 019B     		ldr	r3, [sp, #4]
 286              	@ 548 "../../ChibiOS/os/ext/CMSIS/include/core_cmFunc.h" 1
 287 00b8 83F31188 		MSR basepri, r3
 288              	@ 0 "" 2
 289              		.thumb
 290              	.LBE31:
 291              	.LBE30:
 292              	.LBB32:
 293              	.LBB33:
 294              		.loc 2 333 0
 295              	@ 333 "../../ChibiOS/os/ext/CMSIS/include/core_cmFunc.h" 1
 296 00bc 62B6     		cpsie i
 297              	@ 0 "" 2
 298              		.thumb
 299              	.LBE33:
 300              	.LBE32:
 301              		.loc 1 546 0
 302 00be 02B0     		add	sp, sp, #8
 303              		@ sp needed
 304 00c0 7047     		bx	lr
 305              		.cfi_endproc
 306              	.LFE133:
 307              		.size	port_enable, .-port_enable
 308 00c2 00BF     		.align	2
 309 00c4 AFF30080 		.p2align 4,,15
 309      AFF30080 
 309      AFF30080 
 310              		.thumb
 311              		.thumb_func
 312              		.type	chSysDisable, %function
 313              	chSysDisable:
 314              	.LFB153:
 315              		.file 3 "../../ChibiOS/os/rt/include/chsys.h"
 316              		.loc 3 303 0
 317              		.cfi_startproc
 318              		@ args = 0, pretend = 0, frame = 0
 319              		@ frame_needed = 0, uses_anonymous_args = 0
 320 00d0 08B5     		push	{r3, lr}
 321              		.cfi_def_cfa_offset 8
 322              		.cfi_offset 3, -8
 323              		.cfi_offset 14, -4
 324              		.loc 3 305 0
 325 00d2 FFF7D5FF 		bl	port_disable
 326              		.loc 3 307 0
 327 00d6 08BD     		pop	{r3, pc}
 328              		.cfi_endproc
 329              	.LFE153:
 330              		.size	chSysDisable, .-chSysDisable
 331              		.align	2
ARM GAS  /tmp/ccibaLH2.s 			page 7


 332 00d8 AFF30080 		.p2align 4,,15
 332      AFF30080 
 333              		.thumb
 334              		.thumb_func
 335              		.type	chSysSuspend, %function
 336              	chSysSuspend:
 337              	.LFB154:
 338              		.loc 3 320 0
 339              		.cfi_startproc
 340              		@ args = 0, pretend = 0, frame = 0
 341              		@ frame_needed = 0, uses_anonymous_args = 0
 342 00e0 08B5     		push	{r3, lr}
 343              		.cfi_def_cfa_offset 8
 344              		.cfi_offset 3, -8
 345              		.cfi_offset 14, -4
 346              		.loc 3 322 0
 347 00e2 FFF7D5FF 		bl	port_suspend
 348              		.loc 3 324 0
 349 00e6 08BD     		pop	{r3, pc}
 350              		.cfi_endproc
 351              	.LFE154:
 352              		.size	chSysSuspend, .-chSysSuspend
 353              		.align	2
 354 00e8 AFF30080 		.p2align 4,,15
 354      AFF30080 
 355              		.thumb
 356              		.thumb_func
 357              		.type	chSysEnable, %function
 358              	chSysEnable:
 359              	.LFB155:
 360              		.loc 3 335 0
 361              		.cfi_startproc
 362              		@ args = 0, pretend = 0, frame = 0
 363              		@ frame_needed = 0, uses_anonymous_args = 0
 364 00f0 08B5     		push	{r3, lr}
 365              		.cfi_def_cfa_offset 8
 366              		.cfi_offset 3, -8
 367              		.cfi_offset 14, -4
 368              		.loc 3 338 0
 369 00f2 FFF7DDFF 		bl	port_enable
 370              		.loc 3 339 0
 371 00f6 08BD     		pop	{r3, pc}
 372              		.cfi_endproc
 373              	.LFE155:
 374              		.size	chSysEnable, .-chSysEnable
 375              		.align	2
 376 00f8 AFF30080 		.p2align 4,,15
 376      AFF30080 
 377              		.thumb
 378              		.thumb_func
 379              		.type	chSysLock, %function
 380              	chSysLock:
 381              	.LFB156:
 382              		.loc 3 346 0
 383              		.cfi_startproc
 384              		@ args = 0, pretend = 0, frame = 0
 385              		@ frame_needed = 0, uses_anonymous_args = 0
ARM GAS  /tmp/ccibaLH2.s 			page 8


 386 0100 08B5     		push	{r3, lr}
 387              		.cfi_def_cfa_offset 8
 388              		.cfi_offset 3, -8
 389              		.cfi_offset 14, -4
 390              		.loc 3 348 0
 391 0102 FFF79DFF 		bl	port_lock
 392              		.loc 3 351 0
 393 0106 08BD     		pop	{r3, pc}
 394              		.cfi_endproc
 395              	.LFE156:
 396              		.size	chSysLock, .-chSysLock
 397              		.align	2
 398 0108 AFF30080 		.p2align 4,,15
 398      AFF30080 
 399              		.thumb
 400              		.thumb_func
 401              		.type	chSysUnlock, %function
 402              	chSysUnlock:
 403              	.LFB157:
 404              		.loc 3 358 0
 405              		.cfi_startproc
 406              		@ args = 0, pretend = 0, frame = 0
 407              		@ frame_needed = 0, uses_anonymous_args = 0
 408 0110 08B5     		push	{r3, lr}
 409              		.cfi_def_cfa_offset 8
 410              		.cfi_offset 3, -8
 411              		.cfi_offset 14, -4
 412              		.loc 3 371 0
 413 0112 FFF79DFF 		bl	port_unlock
 414              		.loc 3 372 0
 415 0116 08BD     		pop	{r3, pc}
 416              		.cfi_endproc
 417              	.LFE157:
 418              		.size	chSysUnlock, .-chSysUnlock
 419              		.align	2
 420 0118 AFF30080 		.p2align 4,,15
 420      AFF30080 
 421              		.thumb
 422              		.thumb_func
 423              		.type	chSysLockFromISR, %function
 424              	chSysLockFromISR:
 425              	.LFB158:
 426              		.loc 3 386 0
 427              		.cfi_startproc
 428              		@ args = 0, pretend = 0, frame = 0
 429              		@ frame_needed = 0, uses_anonymous_args = 0
 430 0120 08B5     		push	{r3, lr}
 431              		.cfi_def_cfa_offset 8
 432              		.cfi_offset 3, -8
 433              		.cfi_offset 14, -4
 434              		.loc 3 388 0
 435 0122 FFF79DFF 		bl	port_lock_from_isr
 436              		.loc 3 391 0
 437 0126 08BD     		pop	{r3, pc}
 438              		.cfi_endproc
 439              	.LFE158:
 440              		.size	chSysLockFromISR, .-chSysLockFromISR
ARM GAS  /tmp/ccibaLH2.s 			page 9


 441              		.align	2
 442 0128 AFF30080 		.p2align 4,,15
 442      AFF30080 
 443              		.thumb
 444              		.thumb_func
 445              		.type	chSysUnlockFromISR, %function
 446              	chSysUnlockFromISR:
 447              	.LFB159:
 448              		.loc 3 406 0
 449              		.cfi_startproc
 450              		@ args = 0, pretend = 0, frame = 0
 451              		@ frame_needed = 0, uses_anonymous_args = 0
 452 0130 08B5     		push	{r3, lr}
 453              		.cfi_def_cfa_offset 8
 454              		.cfi_offset 3, -8
 455              		.cfi_offset 14, -4
 456              		.loc 3 410 0
 457 0132 FFF79DFF 		bl	port_unlock_from_isr
 458              		.loc 3 411 0
 459 0136 08BD     		pop	{r3, pc}
 460              		.cfi_endproc
 461              	.LFE159:
 462              		.size	chSysUnlockFromISR, .-chSysUnlockFromISR
 463              		.align	2
 464 0138 AFF30080 		.p2align 4,,15
 464      AFF30080 
 465              		.thumb
 466              		.thumb_func
 467              		.type	chSysUnconditionalLock, %function
 468              	chSysUnconditionalLock:
 469              	.LFB160:
 470              		.loc 3 420 0
 471              		.cfi_startproc
 472              		@ args = 0, pretend = 0, frame = 0
 473              		@ frame_needed = 0, uses_anonymous_args = 0
 474 0140 08B5     		push	{r3, lr}
 475              		.cfi_def_cfa_offset 8
 476              		.cfi_offset 3, -8
 477              		.cfi_offset 14, -4
 478              		.loc 3 422 0
 479 0142 FFF75DFF 		bl	port_get_irq_status
 480 0146 0346     		mov	r3, r0
 481 0148 1846     		mov	r0, r3
 482 014a FFF769FF 		bl	port_irq_enabled
 483 014e 0346     		mov	r3, r0
 484 0150 002B     		cmp	r3, #0
 485 0152 01D0     		beq	.L20
 486              		.loc 3 423 0
 487 0154 FFF7D4FF 		bl	chSysLock
 488              	.L20:
 489              		.loc 3 425 0
 490 0158 08BD     		pop	{r3, pc}
 491              		.cfi_endproc
 492              	.LFE160:
 493              		.size	chSysUnconditionalLock, .-chSysUnconditionalLock
 494 015a 00BF     		.align	2
 495 015c AFF30080 		.p2align 4,,15
ARM GAS  /tmp/ccibaLH2.s 			page 10


 496              		.thumb
 497              		.thumb_func
 498              		.type	chSysUnconditionalUnlock, %function
 499              	chSysUnconditionalUnlock:
 500              	.LFB161:
 501              		.loc 3 434 0
 502              		.cfi_startproc
 503              		@ args = 0, pretend = 0, frame = 0
 504              		@ frame_needed = 0, uses_anonymous_args = 0
 505 0160 08B5     		push	{r3, lr}
 506              		.cfi_def_cfa_offset 8
 507              		.cfi_offset 3, -8
 508              		.cfi_offset 14, -4
 509              		.loc 3 436 0
 510 0162 FFF74DFF 		bl	port_get_irq_status
 511 0166 0346     		mov	r3, r0
 512 0168 1846     		mov	r0, r3
 513 016a FFF759FF 		bl	port_irq_enabled
 514 016e 0346     		mov	r3, r0
 515 0170 83F00103 		eor	r3, r3, #1
 516 0174 DBB2     		uxtb	r3, r3
 517 0176 002B     		cmp	r3, #0
 518 0178 01D0     		beq	.L22
 519              		.loc 3 437 0
 520 017a FFF7C9FF 		bl	chSysUnlock
 521              	.L22:
 522              		.loc 3 439 0
 523 017e 08BD     		pop	{r3, pc}
 524              		.cfi_endproc
 525              	.LFE161:
 526              		.size	chSysUnconditionalUnlock, .-chSysUnconditionalUnlock
 527              		.align	2
 528              		.p2align 4,,15
 529              		.thumb
 530              		.thumb_func
 531              		.type	chVTObjectInit, %function
 532              	chVTObjectInit:
 533              	.LFB163:
 534              		.file 4 "../../ChibiOS/os/rt/include/chvt.h"
 535              		.loc 4 210 0
 536              		.cfi_startproc
 537              		@ args = 0, pretend = 0, frame = 8
 538              		@ frame_needed = 0, uses_anonymous_args = 0
 539              		@ link register save eliminated.
 540 0180 82B0     		sub	sp, sp, #8
 541              		.cfi_def_cfa_offset 8
 542 0182 0190     		str	r0, [sp, #4]
 543              		.loc 4 212 0
 544 0184 019B     		ldr	r3, [sp, #4]
 545 0186 0022     		movs	r2, #0
 546 0188 DA60     		str	r2, [r3, #12]
 547              		.loc 4 213 0
 548 018a 02B0     		add	sp, sp, #8
 549              		@ sp needed
 550 018c 7047     		bx	lr
 551              		.cfi_endproc
 552              	.LFE163:
ARM GAS  /tmp/ccibaLH2.s 			page 11


 553              		.size	chVTObjectInit, .-chVTObjectInit
 554 018e 00BF     		.align	2
 555              		.p2align 4,,15
 556              		.thumb
 557              		.thumb_func
 558              		.type	chVTIsArmedI, %function
 559              	chVTIsArmedI:
 560              	.LFB171:
 561              		.loc 4 373 0
 562              		.cfi_startproc
 563              		@ args = 0, pretend = 0, frame = 8
 564              		@ frame_needed = 0, uses_anonymous_args = 0
 565              		@ link register save eliminated.
 566 0190 82B0     		sub	sp, sp, #8
 567              		.cfi_def_cfa_offset 8
 568 0192 0190     		str	r0, [sp, #4]
 569              		.loc 4 377 0
 570 0194 019B     		ldr	r3, [sp, #4]
 571 0196 DB68     		ldr	r3, [r3, #12]
 572 0198 002B     		cmp	r3, #0
 573 019a 0CBF     		ite	eq
 574 019c 0023     		moveq	r3, #0
 575 019e 0123     		movne	r3, #1
 576 01a0 DBB2     		uxtb	r3, r3
 577              		.loc 4 378 0
 578 01a2 1846     		mov	r0, r3
 579 01a4 02B0     		add	sp, sp, #8
 580              		@ sp needed
 581 01a6 7047     		bx	lr
 582              		.cfi_endproc
 583              	.LFE171:
 584              		.size	chVTIsArmedI, .-chVTIsArmedI
 585              		.align	2
 586 01a8 AFF30080 		.p2align 4,,15
 586      AFF30080 
 587              		.thumb
 588              		.thumb_func
 589              		.type	chVTIsArmed, %function
 590              	chVTIsArmed:
 591              	.LFB172:
 592              		.loc 4 390 0
 593              		.cfi_startproc
 594              		@ args = 0, pretend = 0, frame = 16
 595              		@ frame_needed = 0, uses_anonymous_args = 0
 596 01b0 00B5     		push	{lr}
 597              		.cfi_def_cfa_offset 4
 598              		.cfi_offset 14, -4
 599 01b2 85B0     		sub	sp, sp, #20
 600              		.cfi_def_cfa_offset 24
 601 01b4 0190     		str	r0, [sp, #4]
 602              		.loc 4 393 0
 603 01b6 FFF7A3FF 		bl	chSysLock
 604              		.loc 4 394 0
 605 01ba 0198     		ldr	r0, [sp, #4]
 606 01bc FFF7E8FF 		bl	chVTIsArmedI
 607 01c0 0346     		mov	r3, r0
 608 01c2 8DF80F30 		strb	r3, [sp, #15]
ARM GAS  /tmp/ccibaLH2.s 			page 12


 609              		.loc 4 395 0
 610 01c6 FFF7A3FF 		bl	chSysUnlock
 611              		.loc 4 397 0
 612 01ca 9DF80F30 		ldrb	r3, [sp, #15]	@ zero_extendqisi2
 613              		.loc 4 398 0
 614 01ce 1846     		mov	r0, r3
 615 01d0 05B0     		add	sp, sp, #20
 616              		@ sp needed
 617 01d2 5DF804FB 		ldr	pc, [sp], #4
 618              		.cfi_endproc
 619              	.LFE172:
 620              		.size	chVTIsArmed, .-chVTIsArmed
 621 01d6 00BF     		.align	2
 622 01d8 AFF30080 		.p2align 4,,15
 622      AFF30080 
 623              		.thumb
 624              		.thumb_func
 625              		.type	chVTResetI, %function
 626              	chVTResetI:
 627              	.LFB173:
 628              		.loc 4 410 0
 629              		.cfi_startproc
 630              		@ args = 0, pretend = 0, frame = 8
 631              		@ frame_needed = 0, uses_anonymous_args = 0
 632 01e0 00B5     		push	{lr}
 633              		.cfi_def_cfa_offset 4
 634              		.cfi_offset 14, -4
 635 01e2 83B0     		sub	sp, sp, #12
 636              		.cfi_def_cfa_offset 16
 637 01e4 0190     		str	r0, [sp, #4]
 638              		.loc 4 412 0
 639 01e6 0198     		ldr	r0, [sp, #4]
 640 01e8 FFF7D2FF 		bl	chVTIsArmedI
 641 01ec 0346     		mov	r3, r0
 642 01ee 002B     		cmp	r3, #0
 643 01f0 02D0     		beq	.L29
 644              		.loc 4 413 0
 645 01f2 0198     		ldr	r0, [sp, #4]
 646 01f4 FFF7FEFF 		bl	chVTDoResetI
 647              	.L29:
 648              		.loc 4 415 0
 649 01f8 03B0     		add	sp, sp, #12
 650              		@ sp needed
 651 01fa 5DF804FB 		ldr	pc, [sp], #4
 652              		.cfi_endproc
 653              	.LFE173:
 654              		.size	chVTResetI, .-chVTResetI
 655 01fe 00BF     		.align	2
 656              		.p2align 4,,15
 657              		.thumb
 658              		.thumb_func
 659              		.type	chVTSetI, %function
 660              	chVTSetI:
 661              	.LFB175:
 662              		.loc 4 457 0
 663              		.cfi_startproc
 664              		@ args = 0, pretend = 0, frame = 16
ARM GAS  /tmp/ccibaLH2.s 			page 13


 665              		@ frame_needed = 0, uses_anonymous_args = 0
 666 0200 00B5     		push	{lr}
 667              		.cfi_def_cfa_offset 4
 668              		.cfi_offset 14, -4
 669 0202 85B0     		sub	sp, sp, #20
 670              		.cfi_def_cfa_offset 24
 671 0204 0390     		str	r0, [sp, #12]
 672 0206 0291     		str	r1, [sp, #8]
 673 0208 0192     		str	r2, [sp, #4]
 674 020a 0093     		str	r3, [sp]
 675              		.loc 4 459 0
 676 020c 0398     		ldr	r0, [sp, #12]
 677 020e FFF7E7FF 		bl	chVTResetI
 678              		.loc 4 460 0
 679 0212 0398     		ldr	r0, [sp, #12]
 680 0214 0299     		ldr	r1, [sp, #8]
 681 0216 019A     		ldr	r2, [sp, #4]
 682 0218 009B     		ldr	r3, [sp]
 683 021a FFF7FEFF 		bl	chVTDoSetI
 684              		.loc 4 461 0
 685 021e 05B0     		add	sp, sp, #20
 686              		@ sp needed
 687 0220 5DF804FB 		ldr	pc, [sp], #4
 688              		.cfi_endproc
 689              	.LFE175:
 690              		.size	chVTSetI, .-chVTSetI
 691              		.align	2
 692 0224 AFF30080 		.p2align 4,,15
 692      AFF30080 
 692      AFF30080 
 693              		.thumb
 694              		.thumb_func
 695              		.type	chVTSet, %function
 696              	chVTSet:
 697              	.LFB176:
 698              		.loc 4 486 0
 699              		.cfi_startproc
 700              		@ args = 0, pretend = 0, frame = 16
 701              		@ frame_needed = 0, uses_anonymous_args = 0
 702 0230 00B5     		push	{lr}
 703              		.cfi_def_cfa_offset 4
 704              		.cfi_offset 14, -4
 705 0232 85B0     		sub	sp, sp, #20
 706              		.cfi_def_cfa_offset 24
 707 0234 0390     		str	r0, [sp, #12]
 708 0236 0291     		str	r1, [sp, #8]
 709 0238 0192     		str	r2, [sp, #4]
 710 023a 0093     		str	r3, [sp]
 711              		.loc 4 488 0
 712 023c FFF760FF 		bl	chSysLock
 713              		.loc 4 489 0
 714 0240 0398     		ldr	r0, [sp, #12]
 715 0242 0299     		ldr	r1, [sp, #8]
 716 0244 019A     		ldr	r2, [sp, #4]
 717 0246 009B     		ldr	r3, [sp]
 718 0248 FFF7DAFF 		bl	chVTSetI
 719              		.loc 4 490 0
ARM GAS  /tmp/ccibaLH2.s 			page 14


 720 024c FFF760FF 		bl	chSysUnlock
 721              		.loc 4 491 0
 722 0250 05B0     		add	sp, sp, #20
 723              		@ sp needed
 724 0252 5DF804FB 		ldr	pc, [sp], #4
 725              		.cfi_endproc
 726              	.LFE176:
 727              		.size	chVTSet, .-chVTSet
 728 0256 00BF     		.align	2
 729 0258 AFF30080 		.p2align 4,,15
 729      AFF30080 
 730              		.thumb
 731              		.thumb_func
 732              		.type	vtcb, %function
 733              	vtcb:
 734              	.LFB230:
 735              		.file 5 "../../ChibiOS/test/rt/testsys.c"
 736              		.loc 5 53 0
 737              		.cfi_startproc
 738              		@ args = 0, pretend = 0, frame = 16
 739              		@ frame_needed = 0, uses_anonymous_args = 0
 740 0260 00B5     		push	{lr}
 741              		.cfi_def_cfa_offset 4
 742              		.cfi_offset 14, -4
 743 0262 85B0     		sub	sp, sp, #20
 744              		.cfi_def_cfa_offset 24
 745 0264 0190     		str	r0, [sp, #4]
 746              		.loc 5 59 0
 747 0266 FFF75BFF 		bl	chSysLockFromISR
 748              		.loc 5 60 0
 749 026a FFF761FF 		bl	chSysUnlockFromISR
 750              		.loc 5 63 0
 751 026e FFF757FF 		bl	chSysLockFromISR
 752              		.loc 5 64 0
 753 0272 FFF7FEFF 		bl	chSysGetStatusAndLockX
 754 0276 0390     		str	r0, [sp, #12]
 755              		.loc 5 65 0
 756 0278 0398     		ldr	r0, [sp, #12]
 757 027a FFF7FEFF 		bl	chSysRestoreStatusX
 758              		.loc 5 66 0
 759 027e FFF757FF 		bl	chSysUnlockFromISR
 760              		.loc 5 67 0
 761 0282 05B0     		add	sp, sp, #20
 762              		@ sp needed
 763 0284 5DF804FB 		ldr	pc, [sp], #4
 764              		.cfi_endproc
 765              	.LFE230:
 766              		.size	vtcb, .-vtcb
 767              		.align	2
 768 0288 AFF30080 		.p2align 4,,15
 768      AFF30080 
 769              		.thumb
 770              		.thumb_func
 771              		.type	sys1_execute, %function
 772              	sys1_execute:
 773              	.LFB231:
 774              		.loc 5 69 0
ARM GAS  /tmp/ccibaLH2.s 			page 15


 775              		.cfi_startproc
 776              		@ args = 0, pretend = 0, frame = 24
 777              		@ frame_needed = 0, uses_anonymous_args = 0
 778 0290 00B5     		push	{lr}
 779              		.cfi_def_cfa_offset 4
 780              		.cfi_offset 14, -4
 781 0292 87B0     		sub	sp, sp, #28
 782              		.cfi_def_cfa_offset 32
 783              		.loc 5 74 0
 784 0294 FFF7FEFF 		bl	chSysGetStatusAndLockX
 785 0298 0590     		str	r0, [sp, #20]
 786              		.loc 5 75 0
 787 029a 0598     		ldr	r0, [sp, #20]
 788 029c FFF7FEFF 		bl	chSysRestoreStatusX
 789              		.loc 5 78 0
 790 02a0 FFF72EFF 		bl	chSysLock
 791              		.loc 5 79 0
 792 02a4 FFF7FEFF 		bl	chSysGetStatusAndLockX
 793 02a8 0590     		str	r0, [sp, #20]
 794              		.loc 5 80 0
 795 02aa 0598     		ldr	r0, [sp, #20]
 796 02ac FFF7FEFF 		bl	chSysRestoreStatusX
 797              		.loc 5 81 0
 798 02b0 FFF72EFF 		bl	chSysUnlock
 799              		.loc 5 84 0
 800 02b4 FFF744FF 		bl	chSysUnconditionalLock
 801              		.loc 5 85 0
 802 02b8 FFF742FF 		bl	chSysUnconditionalLock
 803              		.loc 5 86 0
 804 02bc FFF728FF 		bl	chSysUnlock
 805              		.loc 5 89 0
 806 02c0 FFF71EFF 		bl	chSysLock
 807              		.loc 5 90 0
 808 02c4 FFF74CFF 		bl	chSysUnconditionalUnlock
 809              		.loc 5 91 0
 810 02c8 FFF74AFF 		bl	chSysUnconditionalUnlock
 811              		.loc 5 94 0
 812 02cc 6B46     		mov	r3, sp
 813 02ce 1846     		mov	r0, r3
 814 02d0 FFF756FF 		bl	chVTObjectInit
 815              		.loc 5 95 0
 816 02d4 6B46     		mov	r3, sp
 817 02d6 1846     		mov	r0, r3
 818 02d8 0121     		movs	r1, #1
 819 02da 104A     		ldr	r2, .L37
 820 02dc 0023     		movs	r3, #0
 821 02de FFF7A7FF 		bl	chVTSet
 822              		.loc 5 96 0
 823 02e2 0A20     		movs	r0, #10
 824 02e4 FFF7FEFF 		bl	chThdSleep
 825              		.loc 5 98 0
 826 02e8 6B46     		mov	r3, sp
 827 02ea 1846     		mov	r0, r3
 828 02ec FFF760FF 		bl	chVTIsArmed
 829 02f0 0346     		mov	r3, r0
 830 02f2 002B     		cmp	r3, #0
 831 02f4 0CBF     		ite	eq
ARM GAS  /tmp/ccibaLH2.s 			page 16


 832 02f6 0023     		moveq	r3, #0
 833 02f8 0123     		movne	r3, #1
 834 02fa DBB2     		uxtb	r3, r3
 835 02fc 83F00103 		eor	r3, r3, #1
 836 0300 DBB2     		uxtb	r3, r3
 837 0302 03F00103 		and	r3, r3, #1
 838 0306 DBB2     		uxtb	r3, r3
 839 0308 0120     		movs	r0, #1
 840 030a 1946     		mov	r1, r3
 841 030c FFF7FEFF 		bl	_test_assert
 842 0310 0346     		mov	r3, r0
 843 0312 002B     		cmp	r3, #0
 844              		.loc 5 99 0
 845 0314 07B0     		add	sp, sp, #28
 846              		@ sp needed
 847 0316 5DF804FB 		ldr	pc, [sp], #4
 848              	.L38:
 849 031a 00BF     		.align	2
 850              	.L37:
 851 031c 00000000 		.word	vtcb
 852              		.cfi_endproc
 853              	.LFE231:
 854              		.size	sys1_execute, .-sys1_execute
 855              		.global	testsys1
 856              		.section	.rodata
 857              		.align	2
 858              	.LC0:
 859 0000 53797374 		.ascii	"System, critical zones\000"
 859      656D2C20 
 859      63726974 
 859      6963616C 
 859      207A6F6E 
 860 0017 00       		.align	2
 861              		.type	testsys1, %object
 862              		.size	testsys1, 16
 863              	testsys1:
 864 0018 00000000 		.word	.LC0
 865 001c 00000000 		.word	0
 866 0020 00000000 		.word	0
 867 0024 00000000 		.word	sys1_execute
 868              		.text
 869              		.align	2
 870              		.p2align 4,,15
 871              		.thumb
 872              		.thumb_func
 873              		.type	sys2_execute, %function
 874              	sys2_execute:
 875              	.LFB232:
 876              		.loc 5 115 0
 877              		.cfi_startproc
 878              		@ args = 0, pretend = 0, frame = 0
 879              		@ frame_needed = 0, uses_anonymous_args = 0
 880 0320 08B5     		push	{r3, lr}
 881              		.cfi_def_cfa_offset 8
 882              		.cfi_offset 3, -8
 883              		.cfi_offset 14, -4
 884              		.loc 5 117 0
ARM GAS  /tmp/ccibaLH2.s 			page 17


 885 0322 FFF7DDFE 		bl	chSysSuspend
 886              		.loc 5 118 0
 887 0326 FFF7D3FE 		bl	chSysDisable
 888              		.loc 5 119 0
 889 032a FFF7D9FE 		bl	chSysSuspend
 890              		.loc 5 120 0
 891 032e FFF7DFFE 		bl	chSysEnable
 892              		.loc 5 121 0
 893 0332 08BD     		pop	{r3, pc}
 894              		.cfi_endproc
 895              	.LFE232:
 896              		.size	sys2_execute, .-sys2_execute
 897              		.global	testsys2
 898              		.section	.rodata
 899              		.align	2
 900              	.LC1:
 901 0028 53797374 		.ascii	"System, interrupts handling\000"
 901      656D2C20 
 901      696E7465 
 901      72727570 
 901      74732068 
 902              		.align	2
 903              		.type	testsys2, %object
 904              		.size	testsys2, 16
 905              	testsys2:
 906 0044 28000000 		.word	.LC1
 907 0048 00000000 		.word	0
 908 004c 00000000 		.word	0
 909 0050 00000000 		.word	sys2_execute
 910              		.text
 911              		.align	2
 912 0334 AFF30080 		.p2align 4,,15
 912      AFF30080 
 912      AFF30080 
 913              		.thumb
 914              		.thumb_func
 915              		.type	sys3_execute, %function
 916              	sys3_execute:
 917              	.LFB233:
 918              		.loc 5 138 0
 919              		.cfi_startproc
 920              		@ args = 0, pretend = 0, frame = 8
 921              		@ frame_needed = 0, uses_anonymous_args = 0
 922 0340 00B5     		push	{lr}
 923              		.cfi_def_cfa_offset 4
 924              		.cfi_offset 14, -4
 925 0342 83B0     		sub	sp, sp, #12
 926              		.cfi_def_cfa_offset 16
 927              		.loc 5 141 0
 928 0344 FFF7DCFE 		bl	chSysLock
 929              		.loc 5 142 0
 930 0348 0120     		movs	r0, #1
 931 034a FFF7FEFF 		bl	chSysIntegrityCheckI
 932 034e 0346     		mov	r3, r0
 933 0350 8DF80730 		strb	r3, [sp, #7]
 934              		.loc 5 143 0
 935 0354 FFF7DCFE 		bl	chSysUnlock
ARM GAS  /tmp/ccibaLH2.s 			page 18


 936              		.loc 5 144 0
 937 0358 9DF80730 		ldrb	r3, [sp, #7]	@ zero_extendqisi2
 938 035c 002B     		cmp	r3, #0
 939 035e 0CBF     		ite	eq
 940 0360 0023     		moveq	r3, #0
 941 0362 0123     		movne	r3, #1
 942 0364 DBB2     		uxtb	r3, r3
 943 0366 83F00103 		eor	r3, r3, #1
 944 036a DBB2     		uxtb	r3, r3
 945 036c 03F00103 		and	r3, r3, #1
 946 0370 DBB2     		uxtb	r3, r3
 947 0372 0120     		movs	r0, #1
 948 0374 1946     		mov	r1, r3
 949 0376 FFF7FEFF 		bl	_test_assert
 950 037a 0346     		mov	r3, r0
 951 037c 002B     		cmp	r3, #0
 952 037e 00D0     		beq	.L41
 953              		.loc 5 144 0 is_stmt 0 discriminator 1
 954 0380 5CE0     		b	.L40
 955              	.L41:
 956              		.loc 5 146 0 is_stmt 1
 957 0382 FFF7BDFE 		bl	chSysLock
 958              		.loc 5 147 0
 959 0386 0220     		movs	r0, #2
 960 0388 FFF7FEFF 		bl	chSysIntegrityCheckI
 961 038c 0346     		mov	r3, r0
 962 038e 8DF80730 		strb	r3, [sp, #7]
 963              		.loc 5 148 0
 964 0392 FFF7BDFE 		bl	chSysUnlock
 965              		.loc 5 149 0
 966 0396 9DF80730 		ldrb	r3, [sp, #7]	@ zero_extendqisi2
 967 039a 002B     		cmp	r3, #0
 968 039c 0CBF     		ite	eq
 969 039e 0023     		moveq	r3, #0
 970 03a0 0123     		movne	r3, #1
 971 03a2 DBB2     		uxtb	r3, r3
 972 03a4 83F00103 		eor	r3, r3, #1
 973 03a8 DBB2     		uxtb	r3, r3
 974 03aa 03F00103 		and	r3, r3, #1
 975 03ae DBB2     		uxtb	r3, r3
 976 03b0 0220     		movs	r0, #2
 977 03b2 1946     		mov	r1, r3
 978 03b4 FFF7FEFF 		bl	_test_assert
 979 03b8 0346     		mov	r3, r0
 980 03ba 002B     		cmp	r3, #0
 981 03bc 00D0     		beq	.L43
 982              		.loc 5 149 0 is_stmt 0 discriminator 1
 983 03be 3DE0     		b	.L40
 984              	.L43:
 985              		.loc 5 151 0 is_stmt 1
 986 03c0 FFF79EFE 		bl	chSysLock
 987              		.loc 5 152 0
 988 03c4 0420     		movs	r0, #4
 989 03c6 FFF7FEFF 		bl	chSysIntegrityCheckI
 990 03ca 0346     		mov	r3, r0
 991 03cc 8DF80730 		strb	r3, [sp, #7]
 992              		.loc 5 153 0
ARM GAS  /tmp/ccibaLH2.s 			page 19


 993 03d0 FFF79EFE 		bl	chSysUnlock
 994              		.loc 5 154 0
 995 03d4 9DF80730 		ldrb	r3, [sp, #7]	@ zero_extendqisi2
 996 03d8 002B     		cmp	r3, #0
 997 03da 0CBF     		ite	eq
 998 03dc 0023     		moveq	r3, #0
 999 03de 0123     		movne	r3, #1
 1000 03e0 DBB2     		uxtb	r3, r3
 1001 03e2 83F00103 		eor	r3, r3, #1
 1002 03e6 DBB2     		uxtb	r3, r3
 1003 03e8 03F00103 		and	r3, r3, #1
 1004 03ec DBB2     		uxtb	r3, r3
 1005 03ee 0320     		movs	r0, #3
 1006 03f0 1946     		mov	r1, r3
 1007 03f2 FFF7FEFF 		bl	_test_assert
 1008 03f6 0346     		mov	r3, r0
 1009 03f8 002B     		cmp	r3, #0
 1010 03fa 00D0     		beq	.L44
 1011              		.loc 5 154 0 is_stmt 0 discriminator 1
 1012 03fc 1EE0     		b	.L40
 1013              	.L44:
 1014              		.loc 5 156 0 is_stmt 1
 1015 03fe FFF77FFE 		bl	chSysLock
 1016              		.loc 5 157 0
 1017 0402 0820     		movs	r0, #8
 1018 0404 FFF7FEFF 		bl	chSysIntegrityCheckI
 1019 0408 0346     		mov	r3, r0
 1020 040a 8DF80730 		strb	r3, [sp, #7]
 1021              		.loc 5 158 0
 1022 040e FFF77FFE 		bl	chSysUnlock
 1023              		.loc 5 159 0
 1024 0412 9DF80730 		ldrb	r3, [sp, #7]	@ zero_extendqisi2
 1025 0416 002B     		cmp	r3, #0
 1026 0418 0CBF     		ite	eq
 1027 041a 0023     		moveq	r3, #0
 1028 041c 0123     		movne	r3, #1
 1029 041e DBB2     		uxtb	r3, r3
 1030 0420 83F00103 		eor	r3, r3, #1
 1031 0424 DBB2     		uxtb	r3, r3
 1032 0426 03F00103 		and	r3, r3, #1
 1033 042a DBB2     		uxtb	r3, r3
 1034 042c 0420     		movs	r0, #4
 1035 042e 1946     		mov	r1, r3
 1036 0430 FFF7FEFF 		bl	_test_assert
 1037 0434 0346     		mov	r3, r0
 1038 0436 002B     		cmp	r3, #0
 1039 0438 00D0     		beq	.L40
 1040              		.loc 5 159 0 is_stmt 0 discriminator 1
 1041 043a 00BF     		nop
 1042              	.L40:
 1043              		.loc 5 160 0 is_stmt 1
 1044 043c 03B0     		add	sp, sp, #12
 1045              		@ sp needed
 1046 043e 5DF804FB 		ldr	pc, [sp], #4
 1047              		.cfi_endproc
 1048              	.LFE233:
 1049              		.size	sys3_execute, .-sys3_execute
ARM GAS  /tmp/ccibaLH2.s 			page 20


 1050              		.global	testsys3
 1051              		.section	.rodata
 1052              		.align	2
 1053              	.LC2:
 1054 0054 53797374 		.ascii	"System, integrity\000"
 1054      656D2C20 
 1054      696E7465 
 1054      67726974 
 1054      7900
 1055 0066 0000     		.align	2
 1056              		.type	testsys3, %object
 1057              		.size	testsys3, 16
 1058              	testsys3:
 1059 0068 54000000 		.word	.LC2
 1060 006c 00000000 		.word	0
 1061 0070 00000000 		.word	0
 1062 0074 00000000 		.word	sys3_execute
 1063              		.global	patternsys
 1064              		.align	2
 1065              		.type	patternsys, %object
 1066              		.size	patternsys, 16
 1067              	patternsys:
 1068 0078 00000000 		.word	testsys1
 1069 007c 00000000 		.word	testsys2
 1070 0080 00000000 		.word	testsys3
 1071 0084 00000000 		.word	0
 1072              		.text
 1073              	.Letext0:
 1074              		.file 6 "/nfs/nfs5/home/research/hardware/arm2/gcc-arm-embedded/gcc-arm-none-eabi-4_8-2014q2/lib/g
 1075              		.file 7 "/nfs/nfs5/home/research/hardware/arm2/gcc-arm-embedded/gcc-arm-none-eabi-4_8-2014q2/arm-n
 1076              		.file 8 "/nfs/nfs5/home/research/hardware/arm2/gcc-arm-embedded/gcc-arm-none-eabi-4_8-2014q2/arm-n
 1077              		.file 9 "../../ChibiOS/os/rt/ports/ARMCMx/compilers/GCC/chtypes.h"
 1078              		.file 10 "../../ChibiOS/os/rt/include/chsystypes.h"
 1079              		.file 11 "../../ChibiOS/os/rt/include/chschd.h"
 1080              		.file 12 "../../ChibiOS/os/rt/ports/ARMCMx/chcore.h"
 1081              		.file 13 "../../ChibiOS/os/rt/include/chtm.h"
 1082              		.file 14 "../../ChibiOS/os/rt/include/chsem.h"
 1083              		.file 15 "../../ChibiOS/os/rt/include/chmtx.h"
 1084              		.file 16 "../../ChibiOS/test/rt/test.h"
 1085              		.file 17 "../../ChibiOS/os/ext/CMSIS/include/core_cm4.h"