ARM GAS  /tmp/ccQKSUZF.s 			page 1


   1              		.syntax unified
   2              		.cpu cortex-m4
   3              		.fpu softvfp
   4              		.eabi_attribute 20, 1
   5              		.eabi_attribute 21, 1
   6              		.eabi_attribute 23, 3
   7              		.eabi_attribute 24, 1
   8              		.eabi_attribute 25, 1
   9              		.eabi_attribute 26, 1
  10              		.eabi_attribute 30, 6
  11              		.eabi_attribute 34, 1
  12              		.eabi_attribute 18, 4
  13              		.thumb
  14              		.file	"testevt.c"
  15              		.text
  16              	.Ltext0:
  17              		.cfi_sections	.debug_frame
  18              		.align	2
  19              		.p2align 4,,15
  20              		.thumb
  21              		.thumb_func
  22              		.type	port_lock, %function
  23              	port_lock:
  24              	.LFB127:
  25              		.file 1 "../../ChibiOS/os/rt/ports/ARMCMx/chcore_v7m.h"
  26              		.loc 1 456 0
  27              		.cfi_startproc
  28              		@ args = 0, pretend = 0, frame = 8
  29              		@ frame_needed = 0, uses_anonymous_args = 0
  30              		@ link register save eliminated.
  31 0000 82B0     		sub	sp, sp, #8
  32              		.cfi_def_cfa_offset 8
  33 0002 2023     		movs	r3, #32
  34 0004 0193     		str	r3, [sp, #4]
  35              	.LBB6:
  36              	.LBB7:
  37              		.file 2 "../../ChibiOS/os/ext/CMSIS/include/core_cmFunc.h"
  38              		.loc 2 548 0
  39 0006 019B     		ldr	r3, [sp, #4]
  40              	@ 548 "../../ChibiOS/os/ext/CMSIS/include/core_cmFunc.h" 1
  41 0008 83F31188 		MSR basepri, r3
  42              	@ 0 "" 2
  43              		.thumb
  44              	.LBE7:
  45              	.LBE6:
  46              		.loc 1 473 0
  47 000c 02B0     		add	sp, sp, #8
  48              		@ sp needed
  49 000e 7047     		bx	lr
  50              		.cfi_endproc
  51              	.LFE127:
  52              		.size	port_lock, .-port_lock
  53              		.align	2
  54              		.p2align 4,,15
  55              		.thumb
  56              		.thumb_func
  57              		.type	port_unlock, %function
ARM GAS  /tmp/ccQKSUZF.s 			page 2


  58              	port_unlock:
  59              	.LFB128:
  60              		.loc 1 480 0
  61              		.cfi_startproc
  62              		@ args = 0, pretend = 0, frame = 8
  63              		@ frame_needed = 0, uses_anonymous_args = 0
  64              		@ link register save eliminated.
  65 0010 82B0     		sub	sp, sp, #8
  66              		.cfi_def_cfa_offset 8
  67 0012 0023     		movs	r3, #0
  68 0014 0193     		str	r3, [sp, #4]
  69              	.LBB8:
  70              	.LBB9:
  71              		.loc 2 548 0
  72 0016 019B     		ldr	r3, [sp, #4]
  73              	@ 548 "../../ChibiOS/os/ext/CMSIS/include/core_cmFunc.h" 1
  74 0018 83F31188 		MSR basepri, r3
  75              	@ 0 "" 2
  76              		.thumb
  77              	.LBE9:
  78              	.LBE8:
  79              		.loc 1 487 0
  80 001c 02B0     		add	sp, sp, #8
  81              		@ sp needed
  82 001e 7047     		bx	lr
  83              		.cfi_endproc
  84              	.LFE128:
  85              		.size	port_unlock, .-port_unlock
  86              		.align	2
  87              		.p2align 4,,15
  88              		.thumb
  89              		.thumb_func
  90              		.type	chSysLock, %function
  91              	chSysLock:
  92              	.LFB156:
  93              		.file 3 "../../ChibiOS/os/rt/include/chsys.h"
  94              		.loc 3 346 0
  95              		.cfi_startproc
  96              		@ args = 0, pretend = 0, frame = 0
  97              		@ frame_needed = 0, uses_anonymous_args = 0
  98 0020 08B5     		push	{r3, lr}
  99              		.cfi_def_cfa_offset 8
 100              		.cfi_offset 3, -8
 101              		.cfi_offset 14, -4
 102              		.loc 3 348 0
 103 0022 FFF7EDFF 		bl	port_lock
 104              		.loc 3 351 0
 105 0026 08BD     		pop	{r3, pc}
 106              		.cfi_endproc
 107              	.LFE156:
 108              		.size	chSysLock, .-chSysLock
 109              		.align	2
 110 0028 AFF30080 		.p2align 4,,15
 110      AFF30080 
 111              		.thumb
 112              		.thumb_func
 113              		.type	chSysUnlock, %function
ARM GAS  /tmp/ccQKSUZF.s 			page 3


 114              	chSysUnlock:
 115              	.LFB157:
 116              		.loc 3 358 0
 117              		.cfi_startproc
 118              		@ args = 0, pretend = 0, frame = 0
 119              		@ frame_needed = 0, uses_anonymous_args = 0
 120 0030 08B5     		push	{r3, lr}
 121              		.cfi_def_cfa_offset 8
 122              		.cfi_offset 3, -8
 123              		.cfi_offset 14, -4
 124              		.loc 3 371 0
 125 0032 FFF7EDFF 		bl	port_unlock
 126              		.loc 3 372 0
 127 0036 08BD     		pop	{r3, pc}
 128              		.cfi_endproc
 129              	.LFE157:
 130              		.size	chSysUnlock, .-chSysUnlock
 131              		.align	2
 132 0038 AFF30080 		.p2align 4,,15
 132      AFF30080 
 133              		.thumb
 134              		.thumb_func
 135              		.type	chVTGetSystemTimeX, %function
 136              	chVTGetSystemTimeX:
 137              	.LFB164:
 138              		.file 4 "../../ChibiOS/os/rt/include/chvt.h"
 139              		.loc 4 228 0
 140              		.cfi_startproc
 141              		@ args = 0, pretend = 0, frame = 0
 142              		@ frame_needed = 0, uses_anonymous_args = 0
 143              		@ link register save eliminated.
 144              		.loc 4 231 0
 145 0040 014B     		ldr	r3, .L7
 146 0042 9B6A     		ldr	r3, [r3, #40]
 147              		.loc 4 235 0
 148 0044 1846     		mov	r0, r3
 149 0046 7047     		bx	lr
 150              	.L8:
 151              		.align	2
 152              	.L7:
 153 0048 00000000 		.word	ch
 154              		.cfi_endproc
 155              	.LFE164:
 156              		.size	chVTGetSystemTimeX, .-chVTGetSystemTimeX
 157              		.align	2
 158 004c AFF30080 		.p2align 4,,15
 159              		.thumb
 160              		.thumb_func
 161              		.type	chVTGetSystemTime, %function
 162              	chVTGetSystemTime:
 163              	.LFB165:
 164              		.loc 4 247 0
 165              		.cfi_startproc
 166              		@ args = 0, pretend = 0, frame = 8
 167              		@ frame_needed = 0, uses_anonymous_args = 0
 168 0050 00B5     		push	{lr}
 169              		.cfi_def_cfa_offset 4
ARM GAS  /tmp/ccQKSUZF.s 			page 4


 170              		.cfi_offset 14, -4
 171 0052 83B0     		sub	sp, sp, #12
 172              		.cfi_def_cfa_offset 16
 173              		.loc 4 250 0
 174 0054 FFF7E4FF 		bl	chSysLock
 175              		.loc 4 251 0
 176 0058 FFF7F2FF 		bl	chVTGetSystemTimeX
 177 005c 0190     		str	r0, [sp, #4]
 178              		.loc 4 252 0
 179 005e FFF7E7FF 		bl	chSysUnlock
 180              		.loc 4 254 0
 181 0062 019B     		ldr	r3, [sp, #4]
 182              		.loc 4 255 0
 183 0064 1846     		mov	r0, r3
 184 0066 03B0     		add	sp, sp, #12
 185              		@ sp needed
 186 0068 5DF804FB 		ldr	pc, [sp], #4
 187              		.cfi_endproc
 188              	.LFE165:
 189              		.size	chVTGetSystemTime, .-chVTGetSystemTime
 190              		.align	2
 191 006c AFF30080 		.p2align 4,,15
 192              		.thumb
 193              		.thumb_func
 194              		.type	chThdGetSelfX, %function
 195              	chThdGetSelfX:
 196              	.LFB178:
 197              		.file 5 "../../ChibiOS/os/rt/include/chthreads.h"
 198              		.loc 5 174 0
 199              		.cfi_startproc
 200              		@ args = 0, pretend = 0, frame = 0
 201              		@ frame_needed = 0, uses_anonymous_args = 0
 202              		@ link register save eliminated.
 203              		.loc 5 176 0
 204 0070 014B     		ldr	r3, .L13
 205 0072 9B69     		ldr	r3, [r3, #24]
 206              		.loc 5 177 0
 207 0074 1846     		mov	r0, r3
 208 0076 7047     		bx	lr
 209              	.L14:
 210              		.align	2
 211              	.L13:
 212 0078 00000000 		.word	ch
 213              		.cfi_endproc
 214              	.LFE178:
 215              		.size	chThdGetSelfX, .-chThdGetSelfX
 216              		.align	2
 217 007c AFF30080 		.p2align 4,,15
 218              		.thumb
 219              		.thumb_func
 220              		.type	chThdGetPriorityX, %function
 221              	chThdGetPriorityX:
 222              	.LFB179:
 223              		.loc 5 187 0
 224              		.cfi_startproc
 225              		@ args = 0, pretend = 0, frame = 0
 226              		@ frame_needed = 0, uses_anonymous_args = 0
ARM GAS  /tmp/ccQKSUZF.s 			page 5


 227 0080 08B5     		push	{r3, lr}
 228              		.cfi_def_cfa_offset 8
 229              		.cfi_offset 3, -8
 230              		.cfi_offset 14, -4
 231              		.loc 5 189 0
 232 0082 FFF7F5FF 		bl	chThdGetSelfX
 233 0086 0346     		mov	r3, r0
 234 0088 9B68     		ldr	r3, [r3, #8]
 235              		.loc 5 190 0
 236 008a 1846     		mov	r0, r3
 237 008c 08BD     		pop	{r3, pc}
 238              		.cfi_endproc
 239              	.LFE179:
 240              		.size	chThdGetPriorityX, .-chThdGetPriorityX
 241 008e 00BF     		.align	2
 242              		.p2align 4,,15
 243              		.thumb
 244              		.thumb_func
 245              		.type	chEvtObjectInit, %function
 246              	chEvtObjectInit:
 247              	.LFB205:
 248              		.file 6 "../../ChibiOS/os/rt/include/chevents.h"
 249              		.loc 6 170 0
 250              		.cfi_startproc
 251              		@ args = 0, pretend = 0, frame = 8
 252              		@ frame_needed = 0, uses_anonymous_args = 0
 253              		@ link register save eliminated.
 254 0090 82B0     		sub	sp, sp, #8
 255              		.cfi_def_cfa_offset 8
 256 0092 0190     		str	r0, [sp, #4]
 257              		.loc 6 172 0
 258 0094 019B     		ldr	r3, [sp, #4]
 259 0096 019A     		ldr	r2, [sp, #4]
 260 0098 1A60     		str	r2, [r3]
 261              		.loc 6 173 0
 262 009a 02B0     		add	sp, sp, #8
 263              		@ sp needed
 264 009c 7047     		bx	lr
 265              		.cfi_endproc
 266              	.LFE205:
 267              		.size	chEvtObjectInit, .-chEvtObjectInit
 268 009e 00BF     		.align	2
 269              		.p2align 4,,15
 270              		.thumb
 271              		.thumb_func
 272              		.type	chEvtRegisterMask, %function
 273              	chEvtRegisterMask:
 274              	.LFB206:
 275              		.loc 6 191 0
 276              		.cfi_startproc
 277              		@ args = 0, pretend = 0, frame = 16
 278              		@ frame_needed = 0, uses_anonymous_args = 0
 279 00a0 00B5     		push	{lr}
 280              		.cfi_def_cfa_offset 4
 281              		.cfi_offset 14, -4
 282 00a2 85B0     		sub	sp, sp, #20
 283              		.cfi_def_cfa_offset 24
ARM GAS  /tmp/ccQKSUZF.s 			page 6


 284 00a4 0390     		str	r0, [sp, #12]
 285 00a6 0291     		str	r1, [sp, #8]
 286 00a8 0192     		str	r2, [sp, #4]
 287              		.loc 6 193 0
 288 00aa 0398     		ldr	r0, [sp, #12]
 289 00ac 0299     		ldr	r1, [sp, #8]
 290 00ae 019A     		ldr	r2, [sp, #4]
 291 00b0 4FF0FF33 		mov	r3, #-1
 292 00b4 FFF7FEFF 		bl	chEvtRegisterMaskWithFlags
 293              		.loc 6 194 0
 294 00b8 05B0     		add	sp, sp, #20
 295              		@ sp needed
 296 00ba 5DF804FB 		ldr	pc, [sp], #4
 297              		.cfi_endproc
 298              	.LFE206:
 299              		.size	chEvtRegisterMask, .-chEvtRegisterMask
 300 00be 00BF     		.align	2
 301              		.p2align 4,,15
 302              		.thumb
 303              		.thumb_func
 304              		.type	chEvtIsListeningI, %function
 305              	chEvtIsListeningI:
 306              	.LFB208:
 307              		.loc 6 224 0
 308              		.cfi_startproc
 309              		@ args = 0, pretend = 0, frame = 8
 310              		@ frame_needed = 0, uses_anonymous_args = 0
 311              		@ link register save eliminated.
 312 00c0 82B0     		sub	sp, sp, #8
 313              		.cfi_def_cfa_offset 8
 314 00c2 0190     		str	r0, [sp, #4]
 315              		.loc 6 226 0
 316 00c4 019B     		ldr	r3, [sp, #4]
 317 00c6 1A68     		ldr	r2, [r3]
 318 00c8 019B     		ldr	r3, [sp, #4]
 319 00ca 9A42     		cmp	r2, r3
 320 00cc 0CBF     		ite	eq
 321 00ce 0023     		moveq	r3, #0
 322 00d0 0123     		movne	r3, #1
 323 00d2 DBB2     		uxtb	r3, r3
 324              		.loc 6 227 0
 325 00d4 1846     		mov	r0, r3
 326 00d6 02B0     		add	sp, sp, #8
 327              		@ sp needed
 328 00d8 7047     		bx	lr
 329              		.cfi_endproc
 330              	.LFE208:
 331              		.size	chEvtIsListeningI, .-chEvtIsListeningI
 332 00da 00BF     		.align	2
 333 00dc AFF30080 		.p2align 4,,15
 334              		.thumb
 335              		.thumb_func
 336              		.type	chEvtBroadcast, %function
 337              	chEvtBroadcast:
 338              	.LFB209:
 339              		.loc 6 237 0
 340              		.cfi_startproc
ARM GAS  /tmp/ccQKSUZF.s 			page 7


 341              		@ args = 0, pretend = 0, frame = 8
 342              		@ frame_needed = 0, uses_anonymous_args = 0
 343 00e0 00B5     		push	{lr}
 344              		.cfi_def_cfa_offset 4
 345              		.cfi_offset 14, -4
 346 00e2 83B0     		sub	sp, sp, #12
 347              		.cfi_def_cfa_offset 16
 348 00e4 0190     		str	r0, [sp, #4]
 349              		.loc 6 239 0
 350 00e6 0198     		ldr	r0, [sp, #4]
 351 00e8 0021     		movs	r1, #0
 352 00ea FFF7FEFF 		bl	chEvtBroadcastFlags
 353              		.loc 6 240 0
 354 00ee 03B0     		add	sp, sp, #12
 355              		@ sp needed
 356 00f0 5DF804FB 		ldr	pc, [sp], #4
 357              		.cfi_endproc
 358              	.LFE209:
 359              		.size	chEvtBroadcast, .-chEvtBroadcast
 360              		.data
 361              		.align	2
 362              		.type	es1, %object
 363              		.size	es1, 4
 364              	es1:
 365 0000 00000000 		.word	es1
 366              		.align	2
 367              		.type	es2, %object
 368              		.size	es2, 4
 369              	es2:
 370 0004 04000000 		.word	es2
 371              		.text
 372              		.align	2
 373 00f4 AFF30080 		.p2align 4,,15
 373      AFF30080 
 373      AFF30080 
 374              		.thumb
 375              		.thumb_func
 376              		.type	evt1_setup, %function
 377              	evt1_setup:
 378              	.LFB230:
 379              		.file 7 "../../ChibiOS/test/rt/testevt.c"
 380              		.loc 7 75 0
 381              		.cfi_startproc
 382              		@ args = 0, pretend = 0, frame = 0
 383              		@ frame_needed = 0, uses_anonymous_args = 0
 384 0100 08B5     		push	{r3, lr}
 385              		.cfi_def_cfa_offset 8
 386              		.cfi_offset 3, -8
 387              		.cfi_offset 14, -4
 388              		.loc 7 77 0
 389 0102 4FF0FF30 		mov	r0, #-1
 390 0106 FFF7FEFF 		bl	chEvtGetAndClearEvents
 391              		.loc 7 78 0
 392 010a 08BD     		pop	{r3, pc}
 393              		.cfi_endproc
 394              	.LFE230:
 395              		.size	evt1_setup, .-evt1_setup
ARM GAS  /tmp/ccQKSUZF.s 			page 8


 396              		.align	2
 397 010c AFF30080 		.p2align 4,,15
 398              		.thumb
 399              		.thumb_func
 400              		.type	h1, %function
 401              	h1:
 402              	.LFB231:
 403              		.loc 7 80 0
 404              		.cfi_startproc
 405              		@ args = 0, pretend = 0, frame = 8
 406              		@ frame_needed = 0, uses_anonymous_args = 0
 407 0110 00B5     		push	{lr}
 408              		.cfi_def_cfa_offset 4
 409              		.cfi_offset 14, -4
 410 0112 83B0     		sub	sp, sp, #12
 411              		.cfi_def_cfa_offset 16
 412 0114 0190     		str	r0, [sp, #4]
 413              		.loc 7 80 0
 414 0116 4120     		movs	r0, #65
 415 0118 FFF7FEFF 		bl	test_emit_token
 416 011c 03B0     		add	sp, sp, #12
 417              		@ sp needed
 418 011e 5DF804FB 		ldr	pc, [sp], #4
 419              		.cfi_endproc
 420              	.LFE231:
 421              		.size	h1, .-h1
 422 0122 00BF     		.align	2
 423 0124 AFF30080 		.p2align 4,,15
 423      AFF30080 
 423      AFF30080 
 424              		.thumb
 425              		.thumb_func
 426              		.type	h2, %function
 427              	h2:
 428              	.LFB232:
 429              		.loc 7 81 0
 430              		.cfi_startproc
 431              		@ args = 0, pretend = 0, frame = 8
 432              		@ frame_needed = 0, uses_anonymous_args = 0
 433 0130 00B5     		push	{lr}
 434              		.cfi_def_cfa_offset 4
 435              		.cfi_offset 14, -4
 436 0132 83B0     		sub	sp, sp, #12
 437              		.cfi_def_cfa_offset 16
 438 0134 0190     		str	r0, [sp, #4]
 439              		.loc 7 81 0
 440 0136 4220     		movs	r0, #66
 441 0138 FFF7FEFF 		bl	test_emit_token
 442 013c 03B0     		add	sp, sp, #12
 443              		@ sp needed
 444 013e 5DF804FB 		ldr	pc, [sp], #4
 445              		.cfi_endproc
 446              	.LFE232:
 447              		.size	h2, .-h2
 448 0142 00BF     		.align	2
 449 0144 AFF30080 		.p2align 4,,15
 449      AFF30080 
ARM GAS  /tmp/ccQKSUZF.s 			page 9


 449      AFF30080 
 450              		.thumb
 451              		.thumb_func
 452              		.type	h3, %function
 453              	h3:
 454              	.LFB233:
 455              		.loc 7 82 0
 456              		.cfi_startproc
 457              		@ args = 0, pretend = 0, frame = 8
 458              		@ frame_needed = 0, uses_anonymous_args = 0
 459 0150 00B5     		push	{lr}
 460              		.cfi_def_cfa_offset 4
 461              		.cfi_offset 14, -4
 462 0152 83B0     		sub	sp, sp, #12
 463              		.cfi_def_cfa_offset 16
 464 0154 0190     		str	r0, [sp, #4]
 465              		.loc 7 82 0
 466 0156 4320     		movs	r0, #67
 467 0158 FFF7FEFF 		bl	test_emit_token
 468 015c 03B0     		add	sp, sp, #12
 469              		@ sp needed
 470 015e 5DF804FB 		ldr	pc, [sp], #4
 471              		.cfi_endproc
 472              	.LFE233:
 473              		.size	h3, .-h3
 474              		.section	.rodata
 475              		.align	2
 476              		.type	evhndl, %object
 477              		.size	evhndl, 12
 478              	evhndl:
 479 0000 00000000 		.word	h1
 480 0004 00000000 		.word	h2
 481 0008 00000000 		.word	h3
 482              		.align	2
 483              	.LC0:
 484 000c 41424300 		.ascii	"ABC\000"
 485              		.text
 486 0162 00BF     		.align	2
 487 0164 AFF30080 		.p2align 4,,15
 487      AFF30080 
 487      AFF30080 
 488              		.thumb
 489              		.thumb_func
 490              		.type	evt1_execute, %function
 491              	evt1_execute:
 492              	.LFB234:
 493              		.loc 7 85 0
 494              		.cfi_startproc
 495              		@ args = 0, pretend = 0, frame = 40
 496              		@ frame_needed = 0, uses_anonymous_args = 0
 497 0170 00B5     		push	{lr}
 498              		.cfi_def_cfa_offset 4
 499              		.cfi_offset 14, -4
 500 0172 8BB0     		sub	sp, sp, #44
 501              		.cfi_def_cfa_offset 48
 502              		.loc 7 91 0
 503 0174 2B48     		ldr	r0, .L33
ARM GAS  /tmp/ccQKSUZF.s 			page 10


 504 0176 FFF78BFF 		bl	chEvtObjectInit
 505              		.loc 7 92 0
 506 017a 05AB     		add	r3, sp, #20
 507 017c 2948     		ldr	r0, .L33
 508 017e 1946     		mov	r1, r3
 509 0180 0122     		movs	r2, #1
 510 0182 FFF78DFF 		bl	chEvtRegisterMask
 511              		.loc 7 93 0
 512 0186 6B46     		mov	r3, sp
 513 0188 2648     		ldr	r0, .L33
 514 018a 1946     		mov	r1, r3
 515 018c 0222     		movs	r2, #2
 516 018e FFF787FF 		bl	chEvtRegisterMask
 517              		.loc 7 94 0
 518 0192 2448     		ldr	r0, .L33
 519 0194 FFF794FF 		bl	chEvtIsListeningI
 520 0198 0346     		mov	r3, r0
 521 019a 0120     		movs	r0, #1
 522 019c 1946     		mov	r1, r3
 523 019e FFF7FEFF 		bl	_test_assert
 524 01a2 0346     		mov	r3, r0
 525 01a4 002B     		cmp	r3, #0
 526 01a6 00D0     		beq	.L27
 527              		.loc 7 94 0 is_stmt 0 discriminator 1
 528 01a8 38E0     		b	.L26
 529              	.L27:
 530              		.loc 7 95 0 is_stmt 1
 531 01aa 05AB     		add	r3, sp, #20
 532 01ac 1D48     		ldr	r0, .L33
 533 01ae 1946     		mov	r1, r3
 534 01b0 FFF7FEFF 		bl	chEvtUnregister
 535              		.loc 7 96 0
 536 01b4 1B48     		ldr	r0, .L33
 537 01b6 FFF783FF 		bl	chEvtIsListeningI
 538 01ba 0346     		mov	r3, r0
 539 01bc 0220     		movs	r0, #2
 540 01be 1946     		mov	r1, r3
 541 01c0 FFF7FEFF 		bl	_test_assert
 542 01c4 0346     		mov	r3, r0
 543 01c6 002B     		cmp	r3, #0
 544 01c8 00D0     		beq	.L29
 545              		.loc 7 96 0 is_stmt 0 discriminator 1
 546 01ca 27E0     		b	.L26
 547              	.L29:
 548              		.loc 7 97 0 is_stmt 1
 549 01cc 6B46     		mov	r3, sp
 550 01ce 1548     		ldr	r0, .L33
 551 01d0 1946     		mov	r1, r3
 552 01d2 FFF7FEFF 		bl	chEvtUnregister
 553              		.loc 7 98 0
 554 01d6 1348     		ldr	r0, .L33
 555 01d8 FFF772FF 		bl	chEvtIsListeningI
 556 01dc 0346     		mov	r3, r0
 557 01de 002B     		cmp	r3, #0
 558 01e0 0CBF     		ite	eq
 559 01e2 0023     		moveq	r3, #0
 560 01e4 0123     		movne	r3, #1
ARM GAS  /tmp/ccQKSUZF.s 			page 11


 561 01e6 DBB2     		uxtb	r3, r3
 562 01e8 83F00103 		eor	r3, r3, #1
 563 01ec DBB2     		uxtb	r3, r3
 564 01ee 03F00103 		and	r3, r3, #1
 565 01f2 DBB2     		uxtb	r3, r3
 566 01f4 0320     		movs	r0, #3
 567 01f6 1946     		mov	r1, r3
 568 01f8 FFF7FEFF 		bl	_test_assert
 569 01fc 0346     		mov	r3, r0
 570 01fe 002B     		cmp	r3, #0
 571 0200 00D0     		beq	.L30
 572              		.loc 7 98 0 is_stmt 0 discriminator 1
 573 0202 0BE0     		b	.L26
 574              	.L30:
 575              		.loc 7 103 0 is_stmt 1
 576 0204 0848     		ldr	r0, .L33+4
 577 0206 0721     		movs	r1, #7
 578 0208 FFF7FEFF 		bl	chEvtDispatch
 579              		.loc 7 104 0
 580 020c 0420     		movs	r0, #4
 581 020e 0749     		ldr	r1, .L33+8
 582 0210 FFF7FEFF 		bl	_test_assert_sequence
 583 0214 0346     		mov	r3, r0
 584 0216 002B     		cmp	r3, #0
 585 0218 00D0     		beq	.L26
 586 021a 00BF     		nop
 587              	.L26:
 588              		.loc 7 105 0
 589 021c 0BB0     		add	sp, sp, #44
 590              		@ sp needed
 591 021e 5DF804FB 		ldr	pc, [sp], #4
 592              	.L34:
 593 0222 00BF     		.align	2
 594              	.L33:
 595 0224 00000000 		.word	es1
 596 0228 00000000 		.word	evhndl
 597 022c 0C000000 		.word	.LC0
 598              		.cfi_endproc
 599              	.LFE234:
 600              		.size	evt1_execute, .-evt1_execute
 601              		.global	testevt1
 602              		.section	.rodata
 603              		.align	2
 604              	.LC1:
 605 0010 4576656E 		.ascii	"Events, registration and dispatch\000"
 605      74732C20 
 605      72656769 
 605      73747261 
 605      74696F6E 
 606 0032 0000     		.align	2
 607              		.type	testevt1, %object
 608              		.size	testevt1, 16
 609              	testevt1:
 610 0034 10000000 		.word	.LC1
 611 0038 00000000 		.word	evt1_setup
 612 003c 00000000 		.word	0
 613 0040 00000000 		.word	evt1_execute
ARM GAS  /tmp/ccQKSUZF.s 			page 12


 614              		.text
 615              		.align	2
 616              		.p2align 4,,15
 617              		.thumb
 618              		.thumb_func
 619              		.type	evt2_setup, %function
 620              	evt2_setup:
 621              	.LFB235:
 622              		.loc 7 128 0
 623              		.cfi_startproc
 624              		@ args = 0, pretend = 0, frame = 0
 625              		@ frame_needed = 0, uses_anonymous_args = 0
 626 0230 08B5     		push	{r3, lr}
 627              		.cfi_def_cfa_offset 8
 628              		.cfi_offset 3, -8
 629              		.cfi_offset 14, -4
 630              		.loc 7 130 0
 631 0232 4FF0FF30 		mov	r0, #-1
 632 0236 FFF7FEFF 		bl	chEvtGetAndClearEvents
 633              		.loc 7 131 0
 634 023a 08BD     		pop	{r3, pc}
 635              		.cfi_endproc
 636              	.LFE235:
 637              		.size	evt2_setup, .-evt2_setup
 638              		.align	2
 639 023c AFF30080 		.p2align 4,,15
 640              		.thumb
 641              		.thumb_func
 642              		.type	thread1, %function
 643              	thread1:
 644              	.LFB236:
 645              		.loc 7 133 0
 646              		.cfi_startproc
 647              		@ args = 0, pretend = 0, frame = 8
 648              		@ frame_needed = 0, uses_anonymous_args = 0
 649 0240 00B5     		push	{lr}
 650              		.cfi_def_cfa_offset 4
 651              		.cfi_offset 14, -4
 652 0242 83B0     		sub	sp, sp, #12
 653              		.cfi_def_cfa_offset 16
 654 0244 0190     		str	r0, [sp, #4]
 655              		.loc 7 135 0
 656 0246 41F28830 		movw	r0, #5000
 657 024a FFF7FEFF 		bl	chThdSleep
 658              		.loc 7 136 0
 659 024e 0198     		ldr	r0, [sp, #4]
 660 0250 0121     		movs	r1, #1
 661 0252 FFF7FEFF 		bl	chEvtSignal
 662              		.loc 7 137 0
 663 0256 03B0     		add	sp, sp, #12
 664              		@ sp needed
 665 0258 5DF804FB 		ldr	pc, [sp], #4
 666              		.cfi_endproc
 667              	.LFE236:
 668              		.size	thread1, .-thread1
 669              		.align	2
 670 025c AFF30080 		.p2align 4,,15
ARM GAS  /tmp/ccQKSUZF.s 			page 13


 671              		.thumb
 672              		.thumb_func
 673              		.type	thread2, %function
 674              	thread2:
 675              	.LFB237:
 676              		.loc 7 139 0
 677              		.cfi_startproc
 678              		@ args = 0, pretend = 0, frame = 8
 679              		@ frame_needed = 0, uses_anonymous_args = 0
 680 0260 00B5     		push	{lr}
 681              		.cfi_def_cfa_offset 4
 682              		.cfi_offset 14, -4
 683 0262 83B0     		sub	sp, sp, #12
 684              		.cfi_def_cfa_offset 16
 685 0264 0190     		str	r0, [sp, #4]
 686              		.loc 7 142 0
 687 0266 0648     		ldr	r0, .L38
 688 0268 FFF73AFF 		bl	chEvtBroadcast
 689              		.loc 7 143 0
 690 026c 41F28830 		movw	r0, #5000
 691 0270 FFF7FEFF 		bl	chThdSleep
 692              		.loc 7 144 0
 693 0274 0348     		ldr	r0, .L38+4
 694 0276 FFF733FF 		bl	chEvtBroadcast
 695              		.loc 7 145 0
 696 027a 03B0     		add	sp, sp, #12
 697              		@ sp needed
 698 027c 5DF804FB 		ldr	pc, [sp], #4
 699              	.L39:
 700              		.align	2
 701              	.L38:
 702 0280 00000000 		.word	es1
 703 0284 04000000 		.word	es2
 704              		.cfi_endproc
 705              	.LFE237:
 706              		.size	thread2, .-thread2
 707              		.section	.rodata
 708              		.align	2
 709              	.LC2:
 710 0044 4100     		.ascii	"A\000"
 711              		.text
 712              		.align	2
 713 0288 AFF30080 		.p2align 4,,15
 713      AFF30080 
 714              		.thumb
 715              		.thumb_func
 716              		.type	evt2_execute, %function
 717              	evt2_execute:
 718              	.LFB238:
 719              		.loc 7 147 0
 720              		.cfi_startproc
 721              		@ args = 0, pretend = 0, frame = 48
 722              		@ frame_needed = 0, uses_anonymous_args = 0
 723 0290 30B5     		push	{r4, r5, lr}
 724              		.cfi_def_cfa_offset 12
 725              		.cfi_offset 4, -12
 726              		.cfi_offset 5, -8
ARM GAS  /tmp/ccQKSUZF.s 			page 14


 727              		.cfi_offset 14, -4
 728 0292 8FB0     		sub	sp, sp, #60
 729              		.cfi_def_cfa_offset 72
 730              		.loc 7 155 0
 731 0294 0720     		movs	r0, #7
 732 0296 FFF7FEFF 		bl	chEvtAddEvents
 733              		.loc 7 156 0
 734 029a 4FF0FF30 		mov	r0, #-1
 735 029e FFF7FEFF 		bl	chEvtWaitOne
 736 02a2 0D90     		str	r0, [sp, #52]
 737              		.loc 7 157 0
 738 02a4 0D9B     		ldr	r3, [sp, #52]
 739 02a6 012B     		cmp	r3, #1
 740 02a8 14BF     		ite	ne
 741 02aa 0023     		movne	r3, #0
 742 02ac 0123     		moveq	r3, #1
 743 02ae DBB2     		uxtb	r3, r3
 744 02b0 0120     		movs	r0, #1
 745 02b2 1946     		mov	r1, r3
 746 02b4 FFF7FEFF 		bl	_test_assert
 747 02b8 0346     		mov	r3, r0
 748 02ba 002B     		cmp	r3, #0
 749 02bc 00D0     		beq	.L41
 750              		.loc 7 157 0 is_stmt 0 discriminator 1
 751 02be 8DE1     		b	.L40
 752              	.L41:
 753              		.loc 7 158 0 is_stmt 1
 754 02c0 4FF0FF30 		mov	r0, #-1
 755 02c4 FFF7FEFF 		bl	chEvtWaitOne
 756 02c8 0D90     		str	r0, [sp, #52]
 757              		.loc 7 159 0
 758 02ca 0D9B     		ldr	r3, [sp, #52]
 759 02cc 022B     		cmp	r3, #2
 760 02ce 14BF     		ite	ne
 761 02d0 0023     		movne	r3, #0
 762 02d2 0123     		moveq	r3, #1
 763 02d4 DBB2     		uxtb	r3, r3
 764 02d6 0220     		movs	r0, #2
 765 02d8 1946     		mov	r1, r3
 766 02da FFF7FEFF 		bl	_test_assert
 767 02de 0346     		mov	r3, r0
 768 02e0 002B     		cmp	r3, #0
 769 02e2 00D0     		beq	.L43
 770              		.loc 7 159 0 is_stmt 0 discriminator 1
 771 02e4 7AE1     		b	.L40
 772              	.L43:
 773              		.loc 7 160 0 is_stmt 1
 774 02e6 4FF0FF30 		mov	r0, #-1
 775 02ea FFF7FEFF 		bl	chEvtWaitOne
 776 02ee 0D90     		str	r0, [sp, #52]
 777              		.loc 7 161 0
 778 02f0 0D9B     		ldr	r3, [sp, #52]
 779 02f2 042B     		cmp	r3, #4
 780 02f4 14BF     		ite	ne
 781 02f6 0023     		movne	r3, #0
 782 02f8 0123     		moveq	r3, #1
 783 02fa DBB2     		uxtb	r3, r3
ARM GAS  /tmp/ccQKSUZF.s 			page 15


 784 02fc 0320     		movs	r0, #3
 785 02fe 1946     		mov	r1, r3
 786 0300 FFF7FEFF 		bl	_test_assert
 787 0304 0346     		mov	r3, r0
 788 0306 002B     		cmp	r3, #0
 789 0308 00D0     		beq	.L44
 790              		.loc 7 161 0 is_stmt 0 discriminator 1
 791 030a 67E1     		b	.L40
 792              	.L44:
 793              		.loc 7 162 0 is_stmt 1
 794 030c 4FF0FF30 		mov	r0, #-1
 795 0310 FFF7FEFF 		bl	chEvtGetAndClearEvents
 796 0314 0D90     		str	r0, [sp, #52]
 797              		.loc 7 163 0
 798 0316 0D9B     		ldr	r3, [sp, #52]
 799 0318 002B     		cmp	r3, #0
 800 031a 14BF     		ite	ne
 801 031c 0023     		movne	r3, #0
 802 031e 0123     		moveq	r3, #1
 803 0320 DBB2     		uxtb	r3, r3
 804 0322 0420     		movs	r0, #4
 805 0324 1946     		mov	r1, r3
 806 0326 FFF7FEFF 		bl	_test_assert
 807 032a 0346     		mov	r3, r0
 808 032c 002B     		cmp	r3, #0
 809 032e 00D0     		beq	.L45
 810              		.loc 7 163 0 is_stmt 0 discriminator 1
 811 0330 54E1     		b	.L40
 812              	.L45:
 813              		.loc 7 168 0 is_stmt 1
 814 0332 FFF7FEFF 		bl	test_wait_tick
 815              		.loc 7 169 0
 816 0336 FFF78BFE 		bl	chVTGetSystemTime
 817 033a 0346     		mov	r3, r0
 818 033c 03F59C53 		add	r3, r3, #4992
 819 0340 0833     		adds	r3, r3, #8
 820 0342 0C93     		str	r3, [sp, #48]
 821              		.loc 7 170 0
 822 0344 A64B     		ldr	r3, .L59
 823 0346 1D68     		ldr	r5, [r3]
 824 0348 FFF79AFE 		bl	chThdGetPriorityX
 825 034c 0346     		mov	r3, r0
 826 034e 5C1E     		subs	r4, r3, #1
 827              		.loc 7 171 0
 828 0350 FFF78EFE 		bl	chThdGetSelfX
 829 0354 0346     		mov	r3, r0
 830              		.loc 7 170 0
 831 0356 0093     		str	r3, [sp]
 832 0358 2846     		mov	r0, r5
 833 035a 4FF4A471 		mov	r1, #328
 834 035e 2246     		mov	r2, r4
 835 0360 A04B     		ldr	r3, .L59+4
 836 0362 FFF7FEFF 		bl	chThdCreateStatic
 837 0366 0246     		mov	r2, r0
 838 0368 9F4B     		ldr	r3, .L59+8
 839 036a 1A60     		str	r2, [r3]
 840              		.loc 7 172 0
ARM GAS  /tmp/ccQKSUZF.s 			page 16


 841 036c 4FF0FF30 		mov	r0, #-1
 842 0370 FFF7FEFF 		bl	chEvtWaitOne
 843 0374 0D90     		str	r0, [sp, #52]
 844              		.loc 7 173 0
 845 0376 0C9B     		ldr	r3, [sp, #48]
 846 0378 03F5FA73 		add	r3, r3, #500
 847 037c 0520     		movs	r0, #5
 848 037e 0C99     		ldr	r1, [sp, #48]
 849 0380 1A46     		mov	r2, r3
 850 0382 FFF7FEFF 		bl	_test_assert_time_window
 851 0386 0346     		mov	r3, r0
 852 0388 002B     		cmp	r3, #0
 853 038a 00D0     		beq	.L46
 854              		.loc 7 173 0 is_stmt 0 discriminator 1
 855 038c 26E1     		b	.L40
 856              	.L46:
 857              		.loc 7 174 0 is_stmt 1
 858 038e 0D9B     		ldr	r3, [sp, #52]
 859 0390 012B     		cmp	r3, #1
 860 0392 14BF     		ite	ne
 861 0394 0023     		movne	r3, #0
 862 0396 0123     		moveq	r3, #1
 863 0398 DBB2     		uxtb	r3, r3
 864 039a 0620     		movs	r0, #6
 865 039c 1946     		mov	r1, r3
 866 039e FFF7FEFF 		bl	_test_assert
 867 03a2 0346     		mov	r3, r0
 868 03a4 002B     		cmp	r3, #0
 869 03a6 00D0     		beq	.L47
 870              		.loc 7 174 0 is_stmt 0 discriminator 1
 871 03a8 18E1     		b	.L40
 872              	.L47:
 873              		.loc 7 175 0 is_stmt 1
 874 03aa 4FF0FF30 		mov	r0, #-1
 875 03ae FFF7FEFF 		bl	chEvtGetAndClearEvents
 876 03b2 0D90     		str	r0, [sp, #52]
 877              		.loc 7 176 0
 878 03b4 0D9B     		ldr	r3, [sp, #52]
 879 03b6 002B     		cmp	r3, #0
 880 03b8 14BF     		ite	ne
 881 03ba 0023     		movne	r3, #0
 882 03bc 0123     		moveq	r3, #1
 883 03be DBB2     		uxtb	r3, r3
 884 03c0 0720     		movs	r0, #7
 885 03c2 1946     		mov	r1, r3
 886 03c4 FFF7FEFF 		bl	_test_assert
 887 03c8 0346     		mov	r3, r0
 888 03ca 002B     		cmp	r3, #0
 889 03cc 00D0     		beq	.L48
 890              		.loc 7 176 0 is_stmt 0 discriminator 1
 891 03ce 05E1     		b	.L40
 892              	.L48:
 893              		.loc 7 177 0 is_stmt 1
 894 03d0 FFF7FEFF 		bl	test_wait_threads
 895              		.loc 7 182 0
 896 03d4 0520     		movs	r0, #5
 897 03d6 FFF7FEFF 		bl	chEvtAddEvents
ARM GAS  /tmp/ccQKSUZF.s 			page 17


 898              		.loc 7 183 0
 899 03da 4FF0FF30 		mov	r0, #-1
 900 03de FFF7FEFF 		bl	chEvtWaitAny
 901 03e2 0D90     		str	r0, [sp, #52]
 902              		.loc 7 184 0
 903 03e4 0D9B     		ldr	r3, [sp, #52]
 904 03e6 052B     		cmp	r3, #5
 905 03e8 14BF     		ite	ne
 906 03ea 0023     		movne	r3, #0
 907 03ec 0123     		moveq	r3, #1
 908 03ee DBB2     		uxtb	r3, r3
 909 03f0 0820     		movs	r0, #8
 910 03f2 1946     		mov	r1, r3
 911 03f4 FFF7FEFF 		bl	_test_assert
 912 03f8 0346     		mov	r3, r0
 913 03fa 002B     		cmp	r3, #0
 914 03fc 00D0     		beq	.L49
 915              		.loc 7 184 0 is_stmt 0 discriminator 1
 916 03fe EDE0     		b	.L40
 917              	.L49:
 918              		.loc 7 185 0 is_stmt 1
 919 0400 4FF0FF30 		mov	r0, #-1
 920 0404 FFF7FEFF 		bl	chEvtGetAndClearEvents
 921 0408 0D90     		str	r0, [sp, #52]
 922              		.loc 7 186 0
 923 040a 0D9B     		ldr	r3, [sp, #52]
 924 040c 002B     		cmp	r3, #0
 925 040e 14BF     		ite	ne
 926 0410 0023     		movne	r3, #0
 927 0412 0123     		moveq	r3, #1
 928 0414 DBB2     		uxtb	r3, r3
 929 0416 0920     		movs	r0, #9
 930 0418 1946     		mov	r1, r3
 931 041a FFF7FEFF 		bl	_test_assert
 932 041e 0346     		mov	r3, r0
 933 0420 002B     		cmp	r3, #0
 934 0422 00D0     		beq	.L50
 935              		.loc 7 186 0 is_stmt 0 discriminator 1
 936 0424 DAE0     		b	.L40
 937              	.L50:
 938              		.loc 7 191 0 is_stmt 1
 939 0426 FFF7FEFF 		bl	test_wait_tick
 940              		.loc 7 192 0
 941 042a FFF711FE 		bl	chVTGetSystemTime
 942 042e 0346     		mov	r3, r0
 943 0430 03F59C53 		add	r3, r3, #4992
 944 0434 0833     		adds	r3, r3, #8
 945 0436 0C93     		str	r3, [sp, #48]
 946              		.loc 7 193 0
 947 0438 694B     		ldr	r3, .L59
 948 043a 1D68     		ldr	r5, [r3]
 949 043c FFF720FE 		bl	chThdGetPriorityX
 950 0440 0346     		mov	r3, r0
 951 0442 5C1E     		subs	r4, r3, #1
 952              		.loc 7 194 0
 953 0444 FFF714FE 		bl	chThdGetSelfX
 954 0448 0346     		mov	r3, r0
ARM GAS  /tmp/ccQKSUZF.s 			page 18


 955              		.loc 7 193 0
 956 044a 0093     		str	r3, [sp]
 957 044c 2846     		mov	r0, r5
 958 044e 4FF4A471 		mov	r1, #328
 959 0452 2246     		mov	r2, r4
 960 0454 634B     		ldr	r3, .L59+4
 961 0456 FFF7FEFF 		bl	chThdCreateStatic
 962 045a 0246     		mov	r2, r0
 963 045c 624B     		ldr	r3, .L59+8
 964 045e 1A60     		str	r2, [r3]
 965              		.loc 7 195 0
 966 0460 4FF0FF30 		mov	r0, #-1
 967 0464 FFF7FEFF 		bl	chEvtWaitAny
 968 0468 0D90     		str	r0, [sp, #52]
 969              		.loc 7 196 0
 970 046a 0C9B     		ldr	r3, [sp, #48]
 971 046c 03F5FA73 		add	r3, r3, #500
 972 0470 0A20     		movs	r0, #10
 973 0472 0C99     		ldr	r1, [sp, #48]
 974 0474 1A46     		mov	r2, r3
 975 0476 FFF7FEFF 		bl	_test_assert_time_window
 976 047a 0346     		mov	r3, r0
 977 047c 002B     		cmp	r3, #0
 978 047e 00D0     		beq	.L51
 979              		.loc 7 196 0 is_stmt 0 discriminator 1
 980 0480 ACE0     		b	.L40
 981              	.L51:
 982              		.loc 7 197 0 is_stmt 1
 983 0482 0D9B     		ldr	r3, [sp, #52]
 984 0484 012B     		cmp	r3, #1
 985 0486 14BF     		ite	ne
 986 0488 0023     		movne	r3, #0
 987 048a 0123     		moveq	r3, #1
 988 048c DBB2     		uxtb	r3, r3
 989 048e 0B20     		movs	r0, #11
 990 0490 1946     		mov	r1, r3
 991 0492 FFF7FEFF 		bl	_test_assert
 992 0496 0346     		mov	r3, r0
 993 0498 002B     		cmp	r3, #0
 994 049a 00D0     		beq	.L52
 995              		.loc 7 197 0 is_stmt 0 discriminator 1
 996 049c 9EE0     		b	.L40
 997              	.L52:
 998              		.loc 7 198 0 is_stmt 1
 999 049e 4FF0FF30 		mov	r0, #-1
 1000 04a2 FFF7FEFF 		bl	chEvtGetAndClearEvents
 1001 04a6 0D90     		str	r0, [sp, #52]
 1002              		.loc 7 199 0
 1003 04a8 0D9B     		ldr	r3, [sp, #52]
 1004 04aa 002B     		cmp	r3, #0
 1005 04ac 14BF     		ite	ne
 1006 04ae 0023     		movne	r3, #0
 1007 04b0 0123     		moveq	r3, #1
 1008 04b2 DBB2     		uxtb	r3, r3
 1009 04b4 0C20     		movs	r0, #12
 1010 04b6 1946     		mov	r1, r3
 1011 04b8 FFF7FEFF 		bl	_test_assert
ARM GAS  /tmp/ccQKSUZF.s 			page 19


 1012 04bc 0346     		mov	r3, r0
 1013 04be 002B     		cmp	r3, #0
 1014 04c0 00D0     		beq	.L53
 1015              		.loc 7 199 0 is_stmt 0 discriminator 1
 1016 04c2 8BE0     		b	.L40
 1017              	.L53:
 1018              		.loc 7 200 0 is_stmt 1
 1019 04c4 FFF7FEFF 		bl	test_wait_threads
 1020              		.loc 7 205 0
 1021 04c8 4848     		ldr	r0, .L59+12
 1022 04ca FFF7E1FD 		bl	chEvtObjectInit
 1023              		.loc 7 206 0
 1024 04ce 4848     		ldr	r0, .L59+16
 1025 04d0 FFF7DEFD 		bl	chEvtObjectInit
 1026              		.loc 7 207 0
 1027 04d4 07AB     		add	r3, sp, #28
 1028 04d6 4548     		ldr	r0, .L59+12
 1029 04d8 1946     		mov	r1, r3
 1030 04da 0122     		movs	r2, #1
 1031 04dc FFF7E0FD 		bl	chEvtRegisterMask
 1032              		.loc 7 208 0
 1033 04e0 02AB     		add	r3, sp, #8
 1034 04e2 4348     		ldr	r0, .L59+16
 1035 04e4 1946     		mov	r1, r3
 1036 04e6 0422     		movs	r2, #4
 1037 04e8 FFF7DAFD 		bl	chEvtRegisterMask
 1038              		.loc 7 209 0
 1039 04ec FFF7FEFF 		bl	test_wait_tick
 1040              		.loc 7 210 0
 1041 04f0 FFF7AEFD 		bl	chVTGetSystemTime
 1042 04f4 0346     		mov	r3, r0
 1043 04f6 03F59C53 		add	r3, r3, #4992
 1044 04fa 0833     		adds	r3, r3, #8
 1045 04fc 0C93     		str	r3, [sp, #48]
 1046              		.loc 7 211 0
 1047 04fe 384B     		ldr	r3, .L59
 1048 0500 1C68     		ldr	r4, [r3]
 1049 0502 FFF7BDFD 		bl	chThdGetPriorityX
 1050 0506 0346     		mov	r3, r0
 1051 0508 013B     		subs	r3, r3, #1
 1052 050a 3A4A     		ldr	r2, .L59+20
 1053 050c 0092     		str	r2, [sp]
 1054 050e 2046     		mov	r0, r4
 1055 0510 4FF4A471 		mov	r1, #328
 1056 0514 1A46     		mov	r2, r3
 1057 0516 384B     		ldr	r3, .L59+24
 1058 0518 FFF7FEFF 		bl	chThdCreateStatic
 1059 051c 0246     		mov	r2, r0
 1060 051e 324B     		ldr	r3, .L59+8
 1061 0520 1A60     		str	r2, [r3]
 1062              		.loc 7 213 0
 1063 0522 0520     		movs	r0, #5
 1064 0524 FFF7FEFF 		bl	chEvtWaitAll
 1065 0528 0D90     		str	r0, [sp, #52]
 1066              		.loc 7 214 0
 1067 052a 0C9B     		ldr	r3, [sp, #48]
 1068 052c 03F5FA73 		add	r3, r3, #500
ARM GAS  /tmp/ccQKSUZF.s 			page 20


 1069 0530 0D20     		movs	r0, #13
 1070 0532 0C99     		ldr	r1, [sp, #48]
 1071 0534 1A46     		mov	r2, r3
 1072 0536 FFF7FEFF 		bl	_test_assert_time_window
 1073 053a 0346     		mov	r3, r0
 1074 053c 002B     		cmp	r3, #0
 1075 053e 00D0     		beq	.L54
 1076              		.loc 7 214 0 is_stmt 0 discriminator 1
 1077 0540 4CE0     		b	.L40
 1078              	.L54:
 1079              		.loc 7 215 0 is_stmt 1
 1080 0542 4FF0FF30 		mov	r0, #-1
 1081 0546 FFF7FEFF 		bl	chEvtGetAndClearEvents
 1082 054a 0D90     		str	r0, [sp, #52]
 1083              		.loc 7 216 0
 1084 054c 0D9B     		ldr	r3, [sp, #52]
 1085 054e 002B     		cmp	r3, #0
 1086 0550 14BF     		ite	ne
 1087 0552 0023     		movne	r3, #0
 1088 0554 0123     		moveq	r3, #1
 1089 0556 DBB2     		uxtb	r3, r3
 1090 0558 0E20     		movs	r0, #14
 1091 055a 1946     		mov	r1, r3
 1092 055c FFF7FEFF 		bl	_test_assert
 1093 0560 0346     		mov	r3, r0
 1094 0562 002B     		cmp	r3, #0
 1095 0564 00D0     		beq	.L55
 1096              		.loc 7 216 0 is_stmt 0 discriminator 1
 1097 0566 39E0     		b	.L40
 1098              	.L55:
 1099              		.loc 7 217 0 is_stmt 1
 1100 0568 FFF7FEFF 		bl	test_wait_threads
 1101              		.loc 7 218 0
 1102 056c 07AB     		add	r3, sp, #28
 1103 056e 1F48     		ldr	r0, .L59+12
 1104 0570 1946     		mov	r1, r3
 1105 0572 FFF7FEFF 		bl	chEvtUnregister
 1106              		.loc 7 219 0
 1107 0576 02AB     		add	r3, sp, #8
 1108 0578 1D48     		ldr	r0, .L59+16
 1109 057a 1946     		mov	r1, r3
 1110 057c FFF7FEFF 		bl	chEvtUnregister
 1111              		.loc 7 220 0
 1112 0580 1A48     		ldr	r0, .L59+12
 1113 0582 FFF79DFD 		bl	chEvtIsListeningI
 1114 0586 0346     		mov	r3, r0
 1115 0588 002B     		cmp	r3, #0
 1116 058a 0CBF     		ite	eq
 1117 058c 0023     		moveq	r3, #0
 1118 058e 0123     		movne	r3, #1
 1119 0590 DBB2     		uxtb	r3, r3
 1120 0592 83F00103 		eor	r3, r3, #1
 1121 0596 DBB2     		uxtb	r3, r3
 1122 0598 03F00103 		and	r3, r3, #1
 1123 059c DBB2     		uxtb	r3, r3
 1124 059e 0F20     		movs	r0, #15
 1125 05a0 1946     		mov	r1, r3
ARM GAS  /tmp/ccQKSUZF.s 			page 21


 1126 05a2 FFF7FEFF 		bl	_test_assert
 1127 05a6 0346     		mov	r3, r0
 1128 05a8 002B     		cmp	r3, #0
 1129 05aa 00D0     		beq	.L56
 1130              		.loc 7 220 0 is_stmt 0 discriminator 1
 1131 05ac 16E0     		b	.L40
 1132              	.L56:
 1133              		.loc 7 221 0 is_stmt 1
 1134 05ae 1048     		ldr	r0, .L59+16
 1135 05b0 FFF786FD 		bl	chEvtIsListeningI
 1136 05b4 0346     		mov	r3, r0
 1137 05b6 002B     		cmp	r3, #0
 1138 05b8 0CBF     		ite	eq
 1139 05ba 0023     		moveq	r3, #0
 1140 05bc 0123     		movne	r3, #1
 1141 05be DBB2     		uxtb	r3, r3
 1142 05c0 83F00103 		eor	r3, r3, #1
 1143 05c4 DBB2     		uxtb	r3, r3
 1144 05c6 03F00103 		and	r3, r3, #1
 1145 05ca DBB2     		uxtb	r3, r3
 1146 05cc 1020     		movs	r0, #16
 1147 05ce 1946     		mov	r1, r3
 1148 05d0 FFF7FEFF 		bl	_test_assert
 1149 05d4 0346     		mov	r3, r0
 1150 05d6 002B     		cmp	r3, #0
 1151 05d8 00D0     		beq	.L40
 1152 05da 00BF     		nop
 1153              	.L40:
 1154              		.loc 7 222 0
 1155 05dc 0FB0     		add	sp, sp, #60
 1156              		@ sp needed
 1157 05de 30BD     		pop	{r4, r5, pc}
 1158              	.L60:
 1159              		.align	2
 1160              	.L59:
 1161 05e0 00000000 		.word	wa
 1162 05e4 00000000 		.word	thread1
 1163 05e8 00000000 		.word	threads
 1164 05ec 00000000 		.word	es1
 1165 05f0 04000000 		.word	es2
 1166 05f4 44000000 		.word	.LC2
 1167 05f8 00000000 		.word	thread2
 1168              		.cfi_endproc
 1169              	.LFE238:
 1170              		.size	evt2_execute, .-evt2_execute
 1171              		.global	testevt2
 1172              		.section	.rodata
 1173 0046 0000     		.align	2
 1174              	.LC3:
 1175 0048 4576656E 		.ascii	"Events, wait and broadcast\000"
 1175      74732C20 
 1175      77616974 
 1175      20616E64 
 1175      2062726F 
 1176 0063 00       		.align	2
 1177              		.type	testevt2, %object
 1178              		.size	testevt2, 16
ARM GAS  /tmp/ccQKSUZF.s 			page 22


 1179              	testevt2:
 1180 0064 48000000 		.word	.LC3
 1181 0068 00000000 		.word	evt2_setup
 1182 006c 00000000 		.word	0
 1183 0070 00000000 		.word	evt2_execute
 1184              		.text
 1185              		.align	2
 1186 05fc AFF30080 		.p2align 4,,15
 1187              		.thumb
 1188              		.thumb_func
 1189              		.type	evt3_setup, %function
 1190              	evt3_setup:
 1191              	.LFB239:
 1192              		.loc 7 247 0
 1193              		.cfi_startproc
 1194              		@ args = 0, pretend = 0, frame = 0
 1195              		@ frame_needed = 0, uses_anonymous_args = 0
 1196 0600 08B5     		push	{r3, lr}
 1197              		.cfi_def_cfa_offset 8
 1198              		.cfi_offset 3, -8
 1199              		.cfi_offset 14, -4
 1200              		.loc 7 249 0
 1201 0602 4FF0FF30 		mov	r0, #-1
 1202 0606 FFF7FEFF 		bl	chEvtGetAndClearEvents
 1203              		.loc 7 250 0
 1204 060a 08BD     		pop	{r3, pc}
 1205              		.cfi_endproc
 1206              	.LFE239:
 1207              		.size	evt3_setup, .-evt3_setup
 1208              		.align	2
 1209 060c AFF30080 		.p2align 4,,15
 1210              		.thumb
 1211              		.thumb_func
 1212              		.type	evt3_execute, %function
 1213              	evt3_execute:
 1214              	.LFB240:
 1215              		.loc 7 252 0
 1216              		.cfi_startproc
 1217              		@ args = 0, pretend = 0, frame = 8
 1218              		@ frame_needed = 0, uses_anonymous_args = 0
 1219 0610 00B5     		push	{lr}
 1220              		.cfi_def_cfa_offset 4
 1221              		.cfi_offset 14, -4
 1222 0612 83B0     		sub	sp, sp, #12
 1223              		.cfi_def_cfa_offset 16
 1224              		.loc 7 258 0
 1225 0614 4FF0FF30 		mov	r0, #-1
 1226 0618 0021     		movs	r1, #0
 1227 061a FFF7FEFF 		bl	chEvtWaitOneTimeout
 1228 061e 0190     		str	r0, [sp, #4]
 1229              		.loc 7 259 0
 1230 0620 019B     		ldr	r3, [sp, #4]
 1231 0622 002B     		cmp	r3, #0
 1232 0624 14BF     		ite	ne
 1233 0626 0023     		movne	r3, #0
 1234 0628 0123     		moveq	r3, #1
 1235 062a DBB2     		uxtb	r3, r3
ARM GAS  /tmp/ccQKSUZF.s 			page 23


 1236 062c 0120     		movs	r0, #1
 1237 062e 1946     		mov	r1, r3
 1238 0630 FFF7FEFF 		bl	_test_assert
 1239 0634 0346     		mov	r3, r0
 1240 0636 002B     		cmp	r3, #0
 1241 0638 00D0     		beq	.L63
 1242              		.loc 7 259 0 is_stmt 0 discriminator 1
 1243 063a 63E0     		b	.L62
 1244              	.L63:
 1245              		.loc 7 260 0 is_stmt 1
 1246 063c 4FF0FF30 		mov	r0, #-1
 1247 0640 0021     		movs	r1, #0
 1248 0642 FFF7FEFF 		bl	chEvtWaitAnyTimeout
 1249 0646 0190     		str	r0, [sp, #4]
 1250              		.loc 7 261 0
 1251 0648 019B     		ldr	r3, [sp, #4]
 1252 064a 002B     		cmp	r3, #0
 1253 064c 14BF     		ite	ne
 1254 064e 0023     		movne	r3, #0
 1255 0650 0123     		moveq	r3, #1
 1256 0652 DBB2     		uxtb	r3, r3
 1257 0654 0220     		movs	r0, #2
 1258 0656 1946     		mov	r1, r3
 1259 0658 FFF7FEFF 		bl	_test_assert
 1260 065c 0346     		mov	r3, r0
 1261 065e 002B     		cmp	r3, #0
 1262 0660 00D0     		beq	.L65
 1263              		.loc 7 261 0 is_stmt 0 discriminator 1
 1264 0662 4FE0     		b	.L62
 1265              	.L65:
 1266              		.loc 7 262 0 is_stmt 1
 1267 0664 4FF0FF30 		mov	r0, #-1
 1268 0668 0021     		movs	r1, #0
 1269 066a FFF7FEFF 		bl	chEvtWaitAllTimeout
 1270 066e 0190     		str	r0, [sp, #4]
 1271              		.loc 7 263 0
 1272 0670 019B     		ldr	r3, [sp, #4]
 1273 0672 002B     		cmp	r3, #0
 1274 0674 14BF     		ite	ne
 1275 0676 0023     		movne	r3, #0
 1276 0678 0123     		moveq	r3, #1
 1277 067a DBB2     		uxtb	r3, r3
 1278 067c 0320     		movs	r0, #3
 1279 067e 1946     		mov	r1, r3
 1280 0680 FFF7FEFF 		bl	_test_assert
 1281 0684 0346     		mov	r3, r0
 1282 0686 002B     		cmp	r3, #0
 1283 0688 00D0     		beq	.L66
 1284              		.loc 7 263 0 is_stmt 0 discriminator 1
 1285 068a 3BE0     		b	.L62
 1286              	.L66:
 1287              		.loc 7 264 0 is_stmt 1
 1288 068c 4FF0FF30 		mov	r0, #-1
 1289 0690 0A21     		movs	r1, #10
 1290 0692 FFF7FEFF 		bl	chEvtWaitOneTimeout
 1291 0696 0190     		str	r0, [sp, #4]
 1292              		.loc 7 265 0
ARM GAS  /tmp/ccQKSUZF.s 			page 24


 1293 0698 019B     		ldr	r3, [sp, #4]
 1294 069a 002B     		cmp	r3, #0
 1295 069c 14BF     		ite	ne
 1296 069e 0023     		movne	r3, #0
 1297 06a0 0123     		moveq	r3, #1
 1298 06a2 DBB2     		uxtb	r3, r3
 1299 06a4 0420     		movs	r0, #4
 1300 06a6 1946     		mov	r1, r3
 1301 06a8 FFF7FEFF 		bl	_test_assert
 1302 06ac 0346     		mov	r3, r0
 1303 06ae 002B     		cmp	r3, #0
 1304 06b0 00D0     		beq	.L67
 1305              		.loc 7 265 0 is_stmt 0 discriminator 1
 1306 06b2 27E0     		b	.L62
 1307              	.L67:
 1308              		.loc 7 266 0 is_stmt 1
 1309 06b4 4FF0FF30 		mov	r0, #-1
 1310 06b8 0A21     		movs	r1, #10
 1311 06ba FFF7FEFF 		bl	chEvtWaitAnyTimeout
 1312 06be 0190     		str	r0, [sp, #4]
 1313              		.loc 7 267 0
 1314 06c0 019B     		ldr	r3, [sp, #4]
 1315 06c2 002B     		cmp	r3, #0
 1316 06c4 14BF     		ite	ne
 1317 06c6 0023     		movne	r3, #0
 1318 06c8 0123     		moveq	r3, #1
 1319 06ca DBB2     		uxtb	r3, r3
 1320 06cc 0520     		movs	r0, #5
 1321 06ce 1946     		mov	r1, r3
 1322 06d0 FFF7FEFF 		bl	_test_assert
 1323 06d4 0346     		mov	r3, r0
 1324 06d6 002B     		cmp	r3, #0
 1325 06d8 00D0     		beq	.L68
 1326              		.loc 7 267 0 is_stmt 0 discriminator 1
 1327 06da 13E0     		b	.L62
 1328              	.L68:
 1329              		.loc 7 268 0 is_stmt 1
 1330 06dc 4FF0FF30 		mov	r0, #-1
 1331 06e0 0A21     		movs	r1, #10
 1332 06e2 FFF7FEFF 		bl	chEvtWaitAllTimeout
 1333 06e6 0190     		str	r0, [sp, #4]
 1334              		.loc 7 269 0
 1335 06e8 019B     		ldr	r3, [sp, #4]
 1336 06ea 002B     		cmp	r3, #0
 1337 06ec 14BF     		ite	ne
 1338 06ee 0023     		movne	r3, #0
 1339 06f0 0123     		moveq	r3, #1
 1340 06f2 DBB2     		uxtb	r3, r3
 1341 06f4 0620     		movs	r0, #6
 1342 06f6 1946     		mov	r1, r3
 1343 06f8 FFF7FEFF 		bl	_test_assert
 1344 06fc 0346     		mov	r3, r0
 1345 06fe 002B     		cmp	r3, #0
 1346 0700 00D0     		beq	.L62
 1347              		.loc 7 269 0 is_stmt 0 discriminator 1
 1348 0702 00BF     		nop
 1349              	.L62:
ARM GAS  /tmp/ccQKSUZF.s 			page 25


 1350              		.loc 7 270 0 is_stmt 1
 1351 0704 03B0     		add	sp, sp, #12
 1352              		@ sp needed
 1353 0706 5DF804FB 		ldr	pc, [sp], #4
 1354              		.cfi_endproc
 1355              	.LFE240:
 1356              		.size	evt3_execute, .-evt3_execute
 1357              		.global	testevt3
 1358              		.section	.rodata
 1359              		.align	2
 1360              	.LC4:
 1361 0074 4576656E 		.ascii	"Events, timeouts\000"
 1361      74732C20 
 1361      74696D65 
 1361      6F757473 
 1361      00
 1362 0085 000000   		.align	2
 1363              		.type	testevt3, %object
 1364              		.size	testevt3, 16
 1365              	testevt3:
 1366 0088 74000000 		.word	.LC4
 1367 008c 00000000 		.word	evt3_setup
 1368 0090 00000000 		.word	0
 1369 0094 00000000 		.word	evt3_execute
 1370              		.global	patternevt
 1371              		.align	2
 1372              		.type	patternevt, %object
 1373              		.size	patternevt, 16
 1374              	patternevt:
 1375 0098 00000000 		.word	testevt1
 1376 009c 00000000 		.word	testevt2
 1377 00a0 00000000 		.word	testevt3
 1378 00a4 00000000 		.word	0
 1379              		.text
 1380              	.Letext0:
 1381              		.file 8 "/nfs/nfs5/home/research/hardware/arm2/gcc-arm-embedded/gcc-arm-none-eabi-4_8-2014q2/lib/g
 1382              		.file 9 "/nfs/nfs5/home/research/hardware/arm2/gcc-arm-embedded/gcc-arm-none-eabi-4_8-2014q2/arm-n
 1383              		.file 10 "/nfs/nfs5/home/research/hardware/arm2/gcc-arm-embedded/gcc-arm-none-eabi-4_8-2014q2/arm-
 1384              		.file 11 "../../ChibiOS/os/rt/ports/ARMCMx/compilers/GCC/chtypes.h"
 1385              		.file 12 "../../ChibiOS/os/rt/include/chsystypes.h"
 1386              		.file 13 "../../ChibiOS/os/rt/include/chschd.h"
 1387              		.file 14 "../../ChibiOS/os/rt/ports/ARMCMx/chcore.h"
 1388              		.file 15 "../../ChibiOS/os/rt/include/chtm.h"
 1389              		.file 16 "../../ChibiOS/os/rt/include/chsem.h"
 1390              		.file 17 "../../ChibiOS/os/rt/include/chmtx.h"
 1391              		.file 18 "../../ChibiOS/test/rt/test.h"
 1392              		.file 19 "../../ChibiOS/os/ext/CMSIS/include/core_cm4.h"