ARM GAS  /tmp/ccgG5AAO.s 			page 1


   1              		.syntax unified
   2              		.cpu cortex-m4
   3              		.fpu softvfp
   4              		.eabi_attribute 20, 1
   5              		.eabi_attribute 21, 1
   6              		.eabi_attribute 23, 3
   7              		.eabi_attribute 24, 1
   8              		.eabi_attribute 25, 1
   9              		.eabi_attribute 26, 1
  10              		.eabi_attribute 30, 6
  11              		.eabi_attribute 34, 1
  12              		.eabi_attribute 18, 4
  13              		.thumb
  14              		.file	"testpools.c"
  15              		.text
  16              	.Ltext0:
  17              		.cfi_sections	.debug_frame
  18              		.data
  19              		.align	2
  20              		.type	mp1, %object
  21              		.size	mp1, 12
  22              	mp1:
  23 0000 00000000 		.word	0
  24 0004 48010000 		.word	328
  25 0008 00000000 		.word	0
  26              		.text
  27              		.align	2
  28              		.p2align 4,,15
  29              		.thumb
  30              		.thumb_func
  31              		.type	null_provider, %function
  32              	null_provider:
  33              	.LFB230:
  34              		.file 1 "../../ChibiOS/test/rt/testpools.c"
  35              		.loc 1 60 0
  36              		.cfi_startproc
  37              		@ args = 0, pretend = 0, frame = 8
  38              		@ frame_needed = 0, uses_anonymous_args = 0
  39              		@ link register save eliminated.
  40 0000 82B0     		sub	sp, sp, #8
  41              		.cfi_def_cfa_offset 8
  42 0002 0190     		str	r0, [sp, #4]
  43              		.loc 1 63 0
  44 0004 0023     		movs	r3, #0
  45              		.loc 1 64 0
  46 0006 1846     		mov	r0, r3
  47 0008 02B0     		add	sp, sp, #8
  48              		@ sp needed
  49 000a 7047     		bx	lr
  50              		.cfi_endproc
  51              	.LFE230:
  52              		.size	null_provider, .-null_provider
  53              		.align	2
  54 000c AFF30080 		.p2align 4,,15
  55              		.thumb
  56              		.thumb_func
  57              		.type	pools1_setup, %function
ARM GAS  /tmp/ccgG5AAO.s 			page 2


  58              	pools1_setup:
  59              	.LFB231:
  60              		.loc 1 66 0
  61              		.cfi_startproc
  62              		@ args = 0, pretend = 0, frame = 0
  63              		@ frame_needed = 0, uses_anonymous_args = 0
  64 0010 08B5     		push	{r3, lr}
  65              		.cfi_def_cfa_offset 8
  66              		.cfi_offset 3, -8
  67              		.cfi_offset 14, -4
  68              		.loc 1 68 0
  69 0012 0348     		ldr	r0, .L4
  70 0014 4FF4A471 		mov	r1, #328
  71 0018 0022     		movs	r2, #0
  72 001a FFF7FEFF 		bl	chPoolObjectInit
  73              		.loc 1 69 0
  74 001e 08BD     		pop	{r3, pc}
  75              	.L5:
  76              		.align	2
  77              	.L4:
  78 0020 00000000 		.word	mp1
  79              		.cfi_endproc
  80              	.LFE231:
  81              		.size	pools1_setup, .-pools1_setup
  82              		.align	2
  83 0024 AFF30080 		.p2align 4,,15
  83      AFF30080 
  83      AFF30080 
  84              		.thumb
  85              		.thumb_func
  86              		.type	pools1_execute, %function
  87              	pools1_execute:
  88              	.LFB232:
  89              		.loc 1 71 0
  90              		.cfi_startproc
  91              		@ args = 0, pretend = 0, frame = 8
  92              		@ frame_needed = 0, uses_anonymous_args = 0
  93 0030 00B5     		push	{lr}
  94              		.cfi_def_cfa_offset 4
  95              		.cfi_offset 14, -4
  96 0032 83B0     		sub	sp, sp, #12
  97              		.cfi_def_cfa_offset 16
  98              		.loc 1 75 0
  99 0034 434B     		ldr	r3, .L18
 100 0036 1B68     		ldr	r3, [r3]
 101 0038 4348     		ldr	r0, .L18+4
 102 003a 1946     		mov	r1, r3
 103 003c 0522     		movs	r2, #5
 104 003e FFF7FEFF 		bl	chPoolLoadArray
 105              		.loc 1 78 0
 106 0042 0023     		movs	r3, #0
 107 0044 0193     		str	r3, [sp, #4]
 108 0046 13E0     		b	.L7
 109              	.L10:
 110              		.loc 1 79 0
 111 0048 3F48     		ldr	r0, .L18+4
 112 004a FFF7FEFF 		bl	chPoolAlloc
ARM GAS  /tmp/ccgG5AAO.s 			page 3


 113 004e 0346     		mov	r3, r0
 114 0050 002B     		cmp	r3, #0
 115 0052 0CBF     		ite	eq
 116 0054 0023     		moveq	r3, #0
 117 0056 0123     		movne	r3, #1
 118 0058 DBB2     		uxtb	r3, r3
 119 005a 0120     		movs	r0, #1
 120 005c 1946     		mov	r1, r3
 121 005e FFF7FEFF 		bl	_test_assert
 122 0062 0346     		mov	r3, r0
 123 0064 002B     		cmp	r3, #0
 124 0066 00D0     		beq	.L8
 125              		.loc 1 79 0 is_stmt 0 discriminator 1
 126 0068 68E0     		b	.L6
 127              	.L8:
 128              		.loc 1 78 0 is_stmt 1
 129 006a 019B     		ldr	r3, [sp, #4]
 130 006c 0133     		adds	r3, r3, #1
 131 006e 0193     		str	r3, [sp, #4]
 132              	.L7:
 133              		.loc 1 78 0 is_stmt 0 discriminator 1
 134 0070 019B     		ldr	r3, [sp, #4]
 135 0072 042B     		cmp	r3, #4
 136 0074 E8DD     		ble	.L10
 137              		.loc 1 82 0 is_stmt 1
 138 0076 3448     		ldr	r0, .L18+4
 139 0078 FFF7FEFF 		bl	chPoolAlloc
 140 007c 0346     		mov	r3, r0
 141 007e 002B     		cmp	r3, #0
 142 0080 14BF     		ite	ne
 143 0082 0023     		movne	r3, #0
 144 0084 0123     		moveq	r3, #1
 145 0086 DBB2     		uxtb	r3, r3
 146 0088 0220     		movs	r0, #2
 147 008a 1946     		mov	r1, r3
 148 008c FFF7FEFF 		bl	_test_assert
 149 0090 0346     		mov	r3, r0
 150 0092 002B     		cmp	r3, #0
 151 0094 00D0     		beq	.L11
 152              		.loc 1 82 0 is_stmt 0 discriminator 1
 153 0096 51E0     		b	.L6
 154              	.L11:
 155              		.loc 1 85 0 is_stmt 1
 156 0098 0023     		movs	r3, #0
 157 009a 0193     		str	r3, [sp, #4]
 158 009c 0AE0     		b	.L12
 159              	.L13:
 160              		.loc 1 86 0 discriminator 2
 161 009e 294B     		ldr	r3, .L18
 162 00a0 019A     		ldr	r2, [sp, #4]
 163 00a2 53F82230 		ldr	r3, [r3, r2, lsl #2]
 164 00a6 2848     		ldr	r0, .L18+4
 165 00a8 1946     		mov	r1, r3
 166 00aa FFF7FEFF 		bl	chPoolFree
 167              		.loc 1 85 0 discriminator 2
 168 00ae 019B     		ldr	r3, [sp, #4]
 169 00b0 0133     		adds	r3, r3, #1
ARM GAS  /tmp/ccgG5AAO.s 			page 4


 170 00b2 0193     		str	r3, [sp, #4]
 171              	.L12:
 172              		.loc 1 85 0 is_stmt 0 discriminator 1
 173 00b4 019B     		ldr	r3, [sp, #4]
 174 00b6 042B     		cmp	r3, #4
 175 00b8 F1DD     		ble	.L13
 176              		.loc 1 89 0 is_stmt 1
 177 00ba 0023     		movs	r3, #0
 178 00bc 0193     		str	r3, [sp, #4]
 179 00be 13E0     		b	.L14
 180              	.L16:
 181              		.loc 1 90 0
 182 00c0 2148     		ldr	r0, .L18+4
 183 00c2 FFF7FEFF 		bl	chPoolAlloc
 184 00c6 0346     		mov	r3, r0
 185 00c8 002B     		cmp	r3, #0
 186 00ca 0CBF     		ite	eq
 187 00cc 0023     		moveq	r3, #0
 188 00ce 0123     		movne	r3, #1
 189 00d0 DBB2     		uxtb	r3, r3
 190 00d2 0320     		movs	r0, #3
 191 00d4 1946     		mov	r1, r3
 192 00d6 FFF7FEFF 		bl	_test_assert
 193 00da 0346     		mov	r3, r0
 194 00dc 002B     		cmp	r3, #0
 195 00de 00D0     		beq	.L15
 196              		.loc 1 90 0 is_stmt 0 discriminator 1
 197 00e0 2CE0     		b	.L6
 198              	.L15:
 199              		.loc 1 89 0 is_stmt 1
 200 00e2 019B     		ldr	r3, [sp, #4]
 201 00e4 0133     		adds	r3, r3, #1
 202 00e6 0193     		str	r3, [sp, #4]
 203              	.L14:
 204              		.loc 1 89 0 is_stmt 0 discriminator 1
 205 00e8 019B     		ldr	r3, [sp, #4]
 206 00ea 042B     		cmp	r3, #4
 207 00ec E8DD     		ble	.L16
 208              		.loc 1 93 0 is_stmt 1
 209 00ee 1648     		ldr	r0, .L18+4
 210 00f0 FFF7FEFF 		bl	chPoolAlloc
 211 00f4 0346     		mov	r3, r0
 212 00f6 002B     		cmp	r3, #0
 213 00f8 14BF     		ite	ne
 214 00fa 0023     		movne	r3, #0
 215 00fc 0123     		moveq	r3, #1
 216 00fe DBB2     		uxtb	r3, r3
 217 0100 0420     		movs	r0, #4
 218 0102 1946     		mov	r1, r3
 219 0104 FFF7FEFF 		bl	_test_assert
 220 0108 0346     		mov	r3, r0
 221 010a 002B     		cmp	r3, #0
 222 010c 00D0     		beq	.L17
 223              		.loc 1 93 0 is_stmt 0 discriminator 1
 224 010e 15E0     		b	.L6
 225              	.L17:
 226              		.loc 1 96 0 is_stmt 1
ARM GAS  /tmp/ccgG5AAO.s 			page 5


 227 0110 0D48     		ldr	r0, .L18+4
 228 0112 1021     		movs	r1, #16
 229 0114 0D4A     		ldr	r2, .L18+8
 230 0116 FFF7FEFF 		bl	chPoolObjectInit
 231              		.loc 1 97 0
 232 011a 0B48     		ldr	r0, .L18+4
 233 011c FFF7FEFF 		bl	chPoolAlloc
 234 0120 0346     		mov	r3, r0
 235 0122 002B     		cmp	r3, #0
 236 0124 14BF     		ite	ne
 237 0126 0023     		movne	r3, #0
 238 0128 0123     		moveq	r3, #1
 239 012a DBB2     		uxtb	r3, r3
 240 012c 0520     		movs	r0, #5
 241 012e 1946     		mov	r1, r3
 242 0130 FFF7FEFF 		bl	_test_assert
 243 0134 0346     		mov	r3, r0
 244 0136 002B     		cmp	r3, #0
 245 0138 00D0     		beq	.L6
 246              		.loc 1 97 0 is_stmt 0 discriminator 1
 247 013a 00BF     		nop
 248              	.L6:
 249              		.loc 1 98 0 is_stmt 1
 250 013c 03B0     		add	sp, sp, #12
 251              		@ sp needed
 252 013e 5DF804FB 		ldr	pc, [sp], #4
 253              	.L19:
 254 0142 00BF     		.align	2
 255              	.L18:
 256 0144 00000000 		.word	wa
 257 0148 00000000 		.word	mp1
 258 014c 00000000 		.word	null_provider
 259              		.cfi_endproc
 260              	.LFE232:
 261              		.size	pools1_execute, .-pools1_execute
 262              		.global	testpools1
 263              		.section	.rodata
 264              		.align	2
 265              	.LC0:
 266 0000 4D656D6F 		.ascii	"Memory Pools, queue/dequeue\000"
 266      72792050 
 266      6F6F6C73 
 266      2C207175 
 266      6575652F 
 267              		.align	2
 268              		.type	testpools1, %object
 269              		.size	testpools1, 16
 270              	testpools1:
 271 001c 00000000 		.word	.LC0
 272 0020 00000000 		.word	pools1_setup
 273 0024 00000000 		.word	0
 274 0028 00000000 		.word	pools1_execute
 275              		.global	patternpools
 276              		.align	2
 277              		.type	patternpools, %object
 278              		.size	patternpools, 8
 279              	patternpools:
ARM GAS  /tmp/ccgG5AAO.s 			page 6


 280 002c 00000000 		.word	testpools1
 281 0030 00000000 		.word	0
 282              		.text
 283              	.Letext0:
 284              		.file 2 "/nfs/nfs5/home/research/hardware/arm2/gcc-arm-embedded/gcc-arm-none-eabi-4_8-2014q2/lib/g
 285              		.file 3 "/nfs/nfs5/home/research/hardware/arm2/gcc-arm-embedded/gcc-arm-none-eabi-4_8-2014q2/arm-n
 286              		.file 4 "/nfs/nfs5/home/research/hardware/arm2/gcc-arm-embedded/gcc-arm-none-eabi-4_8-2014q2/arm-n
 287              		.file 5 "../../ChibiOS/os/rt/ports/ARMCMx/compilers/GCC/chtypes.h"
 288              		.file 6 "../../ChibiOS/os/rt/include/chsystypes.h"
 289              		.file 7 "../../ChibiOS/os/rt/include/chschd.h"
 290              		.file 8 "../../ChibiOS/os/rt/ports/ARMCMx/chcore.h"
 291              		.file 9 "../../ChibiOS/os/rt/ports/ARMCMx/chcore_v7m.h"
 292              		.file 10 "../../ChibiOS/os/rt/include/chtm.h"
 293              		.file 11 "../../ChibiOS/os/rt/include/chsem.h"
 294              		.file 12 "../../ChibiOS/os/rt/include/chmtx.h"
 295              		.file 13 "../../ChibiOS/os/rt/include/chmemcore.h"
 296              		.file 14 "../../ChibiOS/os/rt/include/chmempools.h"
 297              		.file 15 "../../ChibiOS/test/rt/test.h"
 298              		.file 16 "../../ChibiOS/os/ext/CMSIS/include/core_cm4.h"