ARM GAS  /tmp/ccD2hNvo.s 			page 1


   1              		.syntax unified
   2              		.cpu cortex-m4
   3              		.fpu softvfp
   4              		.eabi_attribute 20, 1
   5              		.eabi_attribute 21, 1
   6              		.eabi_attribute 23, 3
   7              		.eabi_attribute 24, 1
   8              		.eabi_attribute 25, 1
   9              		.eabi_attribute 26, 1
  10              		.eabi_attribute 30, 6
  11              		.eabi_attribute 34, 1
  12              		.eabi_attribute 18, 4
  13              		.thumb
  14              		.file	"usb_lld.c"
  15              		.text
  16              	.Ltext0:
  17              		.cfi_sections	.debug_frame
  18              		.align	2
  19              		.p2align 4,,15
  20              		.thumb
  21              		.thumb_func
  22              		.type	port_lock, %function
  23              	port_lock:
  24              	.LFB127:
  25              		.file 1 "../../ChibiOS/os/rt/ports/ARMCMx/chcore_v7m.h"
  26              		.loc 1 456 0
  27              		.cfi_startproc
  28              		@ args = 0, pretend = 0, frame = 8
  29              		@ frame_needed = 0, uses_anonymous_args = 0
  30              		@ link register save eliminated.
  31 0000 82B0     		sub	sp, sp, #8
  32              		.cfi_def_cfa_offset 8
  33 0002 2023     		movs	r3, #32
  34 0004 0193     		str	r3, [sp, #4]
  35              	.LBB6:
  36              	.LBB7:
  37              		.file 2 "../../ChibiOS/os/ext/CMSIS/include/core_cmFunc.h"
  38              		.loc 2 548 0
  39 0006 019B     		ldr	r3, [sp, #4]
  40              	@ 548 "../../ChibiOS/os/ext/CMSIS/include/core_cmFunc.h" 1
  41 0008 83F31188 		MSR basepri, r3
  42              	@ 0 "" 2
  43              		.thumb
  44              	.LBE7:
  45              	.LBE6:
  46              		.loc 1 473 0
  47 000c 02B0     		add	sp, sp, #8
  48              		@ sp needed
  49 000e 7047     		bx	lr
  50              		.cfi_endproc
  51              	.LFE127:
  52              		.size	port_lock, .-port_lock
  53              		.align	2
  54              		.p2align 4,,15
  55              		.thumb
  56              		.thumb_func
  57              		.type	port_unlock, %function
ARM GAS  /tmp/ccD2hNvo.s 			page 2


  58              	port_unlock:
  59              	.LFB128:
  60              		.loc 1 480 0
  61              		.cfi_startproc
  62              		@ args = 0, pretend = 0, frame = 8
  63              		@ frame_needed = 0, uses_anonymous_args = 0
  64              		@ link register save eliminated.
  65 0010 82B0     		sub	sp, sp, #8
  66              		.cfi_def_cfa_offset 8
  67 0012 0023     		movs	r3, #0
  68 0014 0193     		str	r3, [sp, #4]
  69              	.LBB8:
  70              	.LBB9:
  71              		.loc 2 548 0
  72 0016 019B     		ldr	r3, [sp, #4]
  73              	@ 548 "../../ChibiOS/os/ext/CMSIS/include/core_cmFunc.h" 1
  74 0018 83F31188 		MSR basepri, r3
  75              	@ 0 "" 2
  76              		.thumb
  77              	.LBE9:
  78              	.LBE8:
  79              		.loc 1 487 0
  80 001c 02B0     		add	sp, sp, #8
  81              		@ sp needed
  82 001e 7047     		bx	lr
  83              		.cfi_endproc
  84              	.LFE128:
  85              		.size	port_unlock, .-port_unlock
  86              		.align	2
  87              		.p2align 4,,15
  88              		.thumb
  89              		.thumb_func
  90              		.type	port_lock_from_isr, %function
  91              	port_lock_from_isr:
  92              	.LFB129:
  93              		.loc 1 495 0
  94              		.cfi_startproc
  95              		@ args = 0, pretend = 0, frame = 0
  96              		@ frame_needed = 0, uses_anonymous_args = 0
  97 0020 08B5     		push	{r3, lr}
  98              		.cfi_def_cfa_offset 8
  99              		.cfi_offset 3, -8
 100              		.cfi_offset 14, -4
 101              		.loc 1 497 0
 102 0022 FFF7EDFF 		bl	port_lock
 103              		.loc 1 498 0
 104 0026 08BD     		pop	{r3, pc}
 105              		.cfi_endproc
 106              	.LFE129:
 107              		.size	port_lock_from_isr, .-port_lock_from_isr
 108              		.align	2
 109 0028 AFF30080 		.p2align 4,,15
 109      AFF30080 
 110              		.thumb
 111              		.thumb_func
 112              		.type	port_unlock_from_isr, %function
 113              	port_unlock_from_isr:
ARM GAS  /tmp/ccD2hNvo.s 			page 3


 114              	.LFB130:
 115              		.loc 1 506 0
 116              		.cfi_startproc
 117              		@ args = 0, pretend = 0, frame = 0
 118              		@ frame_needed = 0, uses_anonymous_args = 0
 119 0030 08B5     		push	{r3, lr}
 120              		.cfi_def_cfa_offset 8
 121              		.cfi_offset 3, -8
 122              		.cfi_offset 14, -4
 123              		.loc 1 508 0
 124 0032 FFF7EDFF 		bl	port_unlock
 125              		.loc 1 509 0
 126 0036 08BD     		pop	{r3, pc}
 127              		.cfi_endproc
 128              	.LFE130:
 129              		.size	port_unlock_from_isr, .-port_unlock_from_isr
 130              		.align	2
 131 0038 AFF30080 		.p2align 4,,15
 131      AFF30080 
 132              		.thumb
 133              		.thumb_func
 134              		.type	chSysLock, %function
 135              	chSysLock:
 136              	.LFB156:
 137              		.file 3 "../../ChibiOS/os/rt/include/chsys.h"
 138              		.loc 3 346 0
 139              		.cfi_startproc
 140              		@ args = 0, pretend = 0, frame = 0
 141              		@ frame_needed = 0, uses_anonymous_args = 0
 142 0040 08B5     		push	{r3, lr}
 143              		.cfi_def_cfa_offset 8
 144              		.cfi_offset 3, -8
 145              		.cfi_offset 14, -4
 146              		.loc 3 348 0
 147 0042 FFF7DDFF 		bl	port_lock
 148              		.loc 3 351 0
 149 0046 08BD     		pop	{r3, pc}
 150              		.cfi_endproc
 151              	.LFE156:
 152              		.size	chSysLock, .-chSysLock
 153              		.align	2
 154 0048 AFF30080 		.p2align 4,,15
 154      AFF30080 
 155              		.thumb
 156              		.thumb_func
 157              		.type	chSysUnlock, %function
 158              	chSysUnlock:
 159              	.LFB157:
 160              		.loc 3 358 0
 161              		.cfi_startproc
 162              		@ args = 0, pretend = 0, frame = 0
 163              		@ frame_needed = 0, uses_anonymous_args = 0
 164 0050 08B5     		push	{r3, lr}
 165              		.cfi_def_cfa_offset 8
 166              		.cfi_offset 3, -8
 167              		.cfi_offset 14, -4
 168              		.loc 3 371 0
ARM GAS  /tmp/ccD2hNvo.s 			page 4


 169 0052 FFF7DDFF 		bl	port_unlock
 170              		.loc 3 372 0
 171 0056 08BD     		pop	{r3, pc}
 172              		.cfi_endproc
 173              	.LFE157:
 174              		.size	chSysUnlock, .-chSysUnlock
 175              		.align	2
 176 0058 AFF30080 		.p2align 4,,15
 176      AFF30080 
 177              		.thumb
 178              		.thumb_func
 179              		.type	chSysLockFromISR, %function
 180              	chSysLockFromISR:
 181              	.LFB158:
 182              		.loc 3 386 0
 183              		.cfi_startproc
 184              		@ args = 0, pretend = 0, frame = 0
 185              		@ frame_needed = 0, uses_anonymous_args = 0
 186 0060 08B5     		push	{r3, lr}
 187              		.cfi_def_cfa_offset 8
 188              		.cfi_offset 3, -8
 189              		.cfi_offset 14, -4
 190              		.loc 3 388 0
 191 0062 FFF7DDFF 		bl	port_lock_from_isr
 192              		.loc 3 391 0
 193 0066 08BD     		pop	{r3, pc}
 194              		.cfi_endproc
 195              	.LFE158:
 196              		.size	chSysLockFromISR, .-chSysLockFromISR
 197              		.align	2
 198 0068 AFF30080 		.p2align 4,,15
 198      AFF30080 
 199              		.thumb
 200              		.thumb_func
 201              		.type	chSysUnlockFromISR, %function
 202              	chSysUnlockFromISR:
 203              	.LFB159:
 204              		.loc 3 406 0
 205              		.cfi_startproc
 206              		@ args = 0, pretend = 0, frame = 0
 207              		@ frame_needed = 0, uses_anonymous_args = 0
 208 0070 08B5     		push	{r3, lr}
 209              		.cfi_def_cfa_offset 8
 210              		.cfi_offset 3, -8
 211              		.cfi_offset 14, -4
 212              		.loc 3 410 0
 213 0072 FFF7DDFF 		bl	port_unlock_from_isr
 214              		.loc 3 411 0
 215 0076 08BD     		pop	{r3, pc}
 216              		.cfi_endproc
 217              	.LFE159:
 218              		.size	chSysUnlockFromISR, .-chSysUnlockFromISR
 219              		.align	2
 220 0078 AFF30080 		.p2align 4,,15
 220      AFF30080 
 221              		.thumb
 222              		.thumb_func
ARM GAS  /tmp/ccD2hNvo.s 			page 5


 223              		.type	chThdStartI, %function
 224              	chThdStartI:
 225              	.LFB182:
 226              		.file 4 "../../ChibiOS/os/rt/include/chthreads.h"
 227              		.loc 4 245 0
 228              		.cfi_startproc
 229              		@ args = 0, pretend = 0, frame = 8
 230              		@ frame_needed = 0, uses_anonymous_args = 0
 231 0080 00B5     		push	{lr}
 232              		.cfi_def_cfa_offset 4
 233              		.cfi_offset 14, -4
 234 0082 83B0     		sub	sp, sp, #12
 235              		.cfi_def_cfa_offset 16
 236 0084 0190     		str	r0, [sp, #4]
 237              		.loc 4 249 0
 238 0086 0198     		ldr	r0, [sp, #4]
 239 0088 FFF7FEFF 		bl	chSchReadyI
 240 008c 0346     		mov	r3, r0
 241              		.loc 4 250 0
 242 008e 1846     		mov	r0, r3
 243 0090 03B0     		add	sp, sp, #12
 244              		@ sp needed
 245 0092 5DF804FB 		ldr	pc, [sp], #4
 246              		.cfi_endproc
 247              	.LFE182:
 248              		.size	chThdStartI, .-chThdStartI
 249 0096 00BF     		.align	2
 250 0098 AFF30080 		.p2align 4,,15
 250      AFF30080 
 251              		.thumb
 252              		.thumb_func
 253              		.type	chRegSetThreadName, %function
 254              	chRegSetThreadName:
 255              	.LFB187:
 256              		.file 5 "../../ChibiOS/os/rt/include/chregistry.h"
 257              		.loc 5 132 0
 258              		.cfi_startproc
 259              		@ args = 0, pretend = 0, frame = 8
 260              		@ frame_needed = 0, uses_anonymous_args = 0
 261              		@ link register save eliminated.
 262 00a0 82B0     		sub	sp, sp, #8
 263              		.cfi_def_cfa_offset 8
 264 00a2 0190     		str	r0, [sp, #4]
 265              		.loc 5 135 0
 266 00a4 024B     		ldr	r3, .L12
 267 00a6 9B69     		ldr	r3, [r3, #24]
 268 00a8 019A     		ldr	r2, [sp, #4]
 269 00aa 9A61     		str	r2, [r3, #24]
 270              		.loc 5 139 0
 271 00ac 02B0     		add	sp, sp, #8
 272              		@ sp needed
 273 00ae 7047     		bx	lr
 274              	.L13:
 275              		.align	2
 276              	.L12:
 277 00b0 00000000 		.word	ch
 278              		.cfi_endproc
ARM GAS  /tmp/ccD2hNvo.s 			page 6


 279              	.LFE187:
 280              		.size	chRegSetThreadName, .-chRegSetThreadName
 281              		.align	2
 282 00b4 AFF30080 		.p2align 4,,15
 282      AFF30080 
 282      AFF30080 
 283              		.thumb
 284              		.thumb_func
 285              		.type	osalSysLock, %function
 286              	osalSysLock:
 287              	.LFB234:
 288              		.file 6 "../../ChibiOS/os/hal/osal/rt/osal.h"
 289              		.loc 6 491 0
 290              		.cfi_startproc
 291              		@ args = 0, pretend = 0, frame = 0
 292              		@ frame_needed = 0, uses_anonymous_args = 0
 293 00c0 08B5     		push	{r3, lr}
 294              		.cfi_def_cfa_offset 8
 295              		.cfi_offset 3, -8
 296              		.cfi_offset 14, -4
 297              		.loc 6 493 0
 298 00c2 FFF7BDFF 		bl	chSysLock
 299              		.loc 6 494 0
 300 00c6 08BD     		pop	{r3, pc}
 301              		.cfi_endproc
 302              	.LFE234:
 303              		.size	osalSysLock, .-osalSysLock
 304              		.align	2
 305 00c8 AFF30080 		.p2align 4,,15
 305      AFF30080 
 306              		.thumb
 307              		.thumb_func
 308              		.type	osalSysUnlock, %function
 309              	osalSysUnlock:
 310              	.LFB235:
 311              		.loc 6 502 0
 312              		.cfi_startproc
 313              		@ args = 0, pretend = 0, frame = 0
 314              		@ frame_needed = 0, uses_anonymous_args = 0
 315 00d0 08B5     		push	{r3, lr}
 316              		.cfi_def_cfa_offset 8
 317              		.cfi_offset 3, -8
 318              		.cfi_offset 14, -4
 319              		.loc 6 504 0
 320 00d2 FFF7BDFF 		bl	chSysUnlock
 321              		.loc 6 505 0
 322 00d6 08BD     		pop	{r3, pc}
 323              		.cfi_endproc
 324              	.LFE235:
 325              		.size	osalSysUnlock, .-osalSysUnlock
 326              		.align	2
 327 00d8 AFF30080 		.p2align 4,,15
 327      AFF30080 
 328              		.thumb
 329              		.thumb_func
 330              		.type	osalSysLockFromISR, %function
 331              	osalSysLockFromISR:
ARM GAS  /tmp/ccD2hNvo.s 			page 7


 332              	.LFB236:
 333              		.loc 6 513 0
 334              		.cfi_startproc
 335              		@ args = 0, pretend = 0, frame = 0
 336              		@ frame_needed = 0, uses_anonymous_args = 0
 337 00e0 08B5     		push	{r3, lr}
 338              		.cfi_def_cfa_offset 8
 339              		.cfi_offset 3, -8
 340              		.cfi_offset 14, -4
 341              		.loc 6 515 0
 342 00e2 FFF7BDFF 		bl	chSysLockFromISR
 343              		.loc 6 516 0
 344 00e6 08BD     		pop	{r3, pc}
 345              		.cfi_endproc
 346              	.LFE236:
 347              		.size	osalSysLockFromISR, .-osalSysLockFromISR
 348              		.align	2
 349 00e8 AFF30080 		.p2align 4,,15
 349      AFF30080 
 350              		.thumb
 351              		.thumb_func
 352              		.type	osalSysUnlockFromISR, %function
 353              	osalSysUnlockFromISR:
 354              	.LFB237:
 355              		.loc 6 524 0
 356              		.cfi_startproc
 357              		@ args = 0, pretend = 0, frame = 0
 358              		@ frame_needed = 0, uses_anonymous_args = 0
 359 00f0 08B5     		push	{r3, lr}
 360              		.cfi_def_cfa_offset 8
 361              		.cfi_offset 3, -8
 362              		.cfi_offset 14, -4
 363              		.loc 6 526 0
 364 00f2 FFF7BDFF 		bl	chSysUnlockFromISR
 365              		.loc 6 527 0
 366 00f6 08BD     		pop	{r3, pc}
 367              		.cfi_endproc
 368              	.LFE237:
 369              		.size	osalSysUnlockFromISR, .-osalSysUnlockFromISR
 370              		.align	2
 371 00f8 AFF30080 		.p2align 4,,15
 371      AFF30080 
 372              		.thumb
 373              		.thumb_func
 374              		.type	osalSysPolledDelayX, %function
 375              	osalSysPolledDelayX:
 376              	.LFB240:
 377              		.loc 6 571 0
 378              		.cfi_startproc
 379              		@ args = 0, pretend = 0, frame = 8
 380              		@ frame_needed = 0, uses_anonymous_args = 0
 381 0100 00B5     		push	{lr}
 382              		.cfi_def_cfa_offset 4
 383              		.cfi_offset 14, -4
 384 0102 83B0     		sub	sp, sp, #12
 385              		.cfi_def_cfa_offset 16
 386 0104 0190     		str	r0, [sp, #4]
ARM GAS  /tmp/ccD2hNvo.s 			page 8


 387              		.loc 6 573 0
 388 0106 0198     		ldr	r0, [sp, #4]
 389 0108 FFF7FEFF 		bl	chSysPolledDelayX
 390              		.loc 6 574 0
 391 010c 03B0     		add	sp, sp, #12
 392              		@ sp needed
 393 010e 5DF804FB 		ldr	pc, [sp], #4
 394              		.cfi_endproc
 395              	.LFE240:
 396              		.size	osalSysPolledDelayX, .-osalSysPolledDelayX
 397 0112 00BF     		.align	2
 398 0114 AFF30080 		.p2align 4,,15
 398      AFF30080 
 398      AFF30080 
 399              		.thumb
 400              		.thumb_func
 401              		.type	osalThreadSuspendS, %function
 402              	osalThreadSuspendS:
 403              	.LFB247:
 404              		.loc 6 686 0
 405              		.cfi_startproc
 406              		@ args = 0, pretend = 0, frame = 8
 407              		@ frame_needed = 0, uses_anonymous_args = 0
 408 0120 00B5     		push	{lr}
 409              		.cfi_def_cfa_offset 4
 410              		.cfi_offset 14, -4
 411 0122 83B0     		sub	sp, sp, #12
 412              		.cfi_def_cfa_offset 16
 413 0124 0190     		str	r0, [sp, #4]
 414              		.loc 6 688 0
 415 0126 0198     		ldr	r0, [sp, #4]
 416 0128 FFF7FEFF 		bl	chThdSuspendS
 417 012c 0346     		mov	r3, r0
 418              		.loc 6 689 0
 419 012e 1846     		mov	r0, r3
 420 0130 03B0     		add	sp, sp, #12
 421              		@ sp needed
 422 0132 5DF804FB 		ldr	pc, [sp], #4
 423              		.cfi_endproc
 424              	.LFE247:
 425              		.size	osalThreadSuspendS, .-osalThreadSuspendS
 426 0136 00BF     		.align	2
 427 0138 AFF30080 		.p2align 4,,15
 427      AFF30080 
 428              		.thumb
 429              		.thumb_func
 430              		.type	osalThreadResumeI, %function
 431              	osalThreadResumeI:
 432              	.LFB249:
 433              		.loc 6 726 0
 434              		.cfi_startproc
 435              		@ args = 0, pretend = 0, frame = 8
 436              		@ frame_needed = 0, uses_anonymous_args = 0
 437 0140 00B5     		push	{lr}
 438              		.cfi_def_cfa_offset 4
 439              		.cfi_offset 14, -4
 440 0142 83B0     		sub	sp, sp, #12
ARM GAS  /tmp/ccD2hNvo.s 			page 9


 441              		.cfi_def_cfa_offset 16
 442 0144 0190     		str	r0, [sp, #4]
 443 0146 0091     		str	r1, [sp]
 444              		.loc 6 728 0
 445 0148 0198     		ldr	r0, [sp, #4]
 446 014a 0099     		ldr	r1, [sp]
 447 014c FFF7FEFF 		bl	chThdResumeI
 448              		.loc 6 729 0
 449 0150 03B0     		add	sp, sp, #12
 450              		@ sp needed
 451 0152 5DF804FB 		ldr	pc, [sp], #4
 452              		.cfi_endproc
 453              	.LFE249:
 454              		.size	osalThreadResumeI, .-osalThreadResumeI
 455              		.comm	USBD1,464,8
 456              		.bss
 457              		.align	2
 458              	ep0_state:
 459 0000 00000000 		.space	16
 459      00000000 
 459      00000000 
 459      00000000 
 460              		.align	2
 461              	ep0setup_buffer:
 462 0010 00000000 		.space	8
 462      00000000 
 463              		.section	.rodata
 464              		.align	2
 465              		.type	ep0config, %object
 466              		.size	ep0config, 36
 467              	ep0config:
 468 0000 00000000 		.word	0
 469 0004 00000000 		.word	_usb_ep0setup
 470 0008 00000000 		.word	_usb_ep0in
 471 000c 00000000 		.word	_usb_ep0out
 472 0010 4000     		.short	64
 473 0012 4000     		.short	64
 474 0014 00000000 		.word	ep0_state
 475 0018 00000000 		.word	ep0_state
 476 001c 0100     		.short	1
 477 001e 0000     		.space	2
 478 0020 10000000 		.word	ep0setup_buffer
 479              		.align	2
 480              		.type	fsparams, %object
 481              		.size	fsparams, 12
 482              	fsparams:
 483 0024 80000000 		.word	128
 484 0028 40010000 		.word	320
 485 002c 03000000 		.word	3
 486              		.text
 487 0156 00BF     		.align	2
 488 0158 AFF30080 		.p2align 4,,15
 488      AFF30080 
 489              		.thumb
 490              		.thumb_func
 491              		.type	otg_core_reset, %function
 492              	otg_core_reset:
ARM GAS  /tmp/ccD2hNvo.s 			page 10


 493              	.LFB267:
 494              		.file 7 "../../ChibiOS/os/hal/ports/STM32/LLD/OTGv1/usb_lld.c"
 495              		.loc 7 134 0
 496              		.cfi_startproc
 497              		@ args = 0, pretend = 0, frame = 16
 498              		@ frame_needed = 0, uses_anonymous_args = 0
 499 0160 00B5     		push	{lr}
 500              		.cfi_def_cfa_offset 4
 501              		.cfi_offset 14, -4
 502 0162 85B0     		sub	sp, sp, #20
 503              		.cfi_def_cfa_offset 24
 504 0164 0190     		str	r0, [sp, #4]
 505              		.loc 7 135 0
 506 0166 019B     		ldr	r3, [sp, #4]
 507 0168 DB6E     		ldr	r3, [r3, #108]
 508 016a 0393     		str	r3, [sp, #12]
 509              		.loc 7 137 0
 510 016c 2020     		movs	r0, #32
 511 016e FFF7C7FF 		bl	osalSysPolledDelayX
 512              		.loc 7 140 0
 513 0172 039B     		ldr	r3, [sp, #12]
 514 0174 0122     		movs	r2, #1
 515 0176 1A61     		str	r2, [r3, #16]
 516              		.loc 7 141 0
 517 0178 00BF     		nop
 518              	.L23:
 519              		.loc 7 141 0 is_stmt 0 discriminator 1
 520 017a 039B     		ldr	r3, [sp, #12]
 521 017c 1B69     		ldr	r3, [r3, #16]
 522 017e 03F00103 		and	r3, r3, #1
 523 0182 002B     		cmp	r3, #0
 524 0184 F9D1     		bne	.L23
 525              		.loc 7 144 0 is_stmt 1
 526 0186 1220     		movs	r0, #18
 527 0188 FFF7BAFF 		bl	osalSysPolledDelayX
 528              		.loc 7 147 0
 529 018c 00BF     		nop
 530              	.L24:
 531              		.loc 7 147 0 is_stmt 0 discriminator 1
 532 018e 039B     		ldr	r3, [sp, #12]
 533 0190 1B69     		ldr	r3, [r3, #16]
 534 0192 002B     		cmp	r3, #0
 535 0194 FBDA     		bge	.L24
 536              		.loc 7 149 0 is_stmt 1
 537 0196 05B0     		add	sp, sp, #20
 538              		@ sp needed
 539 0198 5DF804FB 		ldr	pc, [sp], #4
 540              		.cfi_endproc
 541              	.LFE267:
 542              		.size	otg_core_reset, .-otg_core_reset
 543              		.align	2
 544 019c AFF30080 		.p2align 4,,15
 545              		.thumb
 546              		.thumb_func
 547              		.type	otg_disable_ep, %function
 548              	otg_disable_ep:
 549              	.LFB268:
ARM GAS  /tmp/ccD2hNvo.s 			page 11


 550              		.loc 7 151 0
 551              		.cfi_startproc
 552              		@ args = 0, pretend = 0, frame = 16
 553              		@ frame_needed = 0, uses_anonymous_args = 0
 554              		@ link register save eliminated.
 555 01a0 84B0     		sub	sp, sp, #16
 556              		.cfi_def_cfa_offset 16
 557 01a2 0190     		str	r0, [sp, #4]
 558              		.loc 7 152 0
 559 01a4 019B     		ldr	r3, [sp, #4]
 560 01a6 DB6E     		ldr	r3, [r3, #108]
 561 01a8 0293     		str	r3, [sp, #8]
 562              		.loc 7 155 0
 563 01aa 0023     		movs	r3, #0
 564 01ac 0393     		str	r3, [sp, #12]
 565 01ae 32E0     		b	.L26
 566              	.L27:
 567              		.loc 7 156 0 discriminator 2
 568 01b0 029A     		ldr	r2, [sp, #8]
 569 01b2 039B     		ldr	r3, [sp, #12]
 570 01b4 4833     		adds	r3, r3, #72
 571 01b6 5B01     		lsls	r3, r3, #5
 572 01b8 1344     		add	r3, r3, r2
 573 01ba 0022     		movs	r2, #0
 574 01bc 1A60     		str	r2, [r3]
 575              		.loc 7 157 0 discriminator 2
 576 01be 029A     		ldr	r2, [sp, #8]
 577 01c0 039B     		ldr	r3, [sp, #12]
 578 01c2 5B01     		lsls	r3, r3, #5
 579 01c4 1344     		add	r3, r3, r2
 580 01c6 03F51163 		add	r3, r3, #2320
 581 01ca 0022     		movs	r2, #0
 582 01cc 1A60     		str	r2, [r3]
 583              		.loc 7 158 0 discriminator 2
 584 01ce 029A     		ldr	r2, [sp, #8]
 585 01d0 039B     		ldr	r3, [sp, #12]
 586 01d2 5B01     		lsls	r3, r3, #5
 587 01d4 1344     		add	r3, r3, r2
 588 01d6 03F60813 		addw	r3, r3, #2312
 589 01da 4FF0FF32 		mov	r2, #-1
 590 01de 1A60     		str	r2, [r3]
 591              		.loc 7 160 0 discriminator 2
 592 01e0 029A     		ldr	r2, [sp, #8]
 593 01e2 039B     		ldr	r3, [sp, #12]
 594 01e4 5833     		adds	r3, r3, #88
 595 01e6 5B01     		lsls	r3, r3, #5
 596 01e8 1344     		add	r3, r3, r2
 597 01ea 0022     		movs	r2, #0
 598 01ec 1A60     		str	r2, [r3]
 599              		.loc 7 161 0 discriminator 2
 600 01ee 029A     		ldr	r2, [sp, #8]
 601 01f0 039B     		ldr	r3, [sp, #12]
 602 01f2 5B01     		lsls	r3, r3, #5
 603 01f4 1344     		add	r3, r3, r2
 604 01f6 03F53163 		add	r3, r3, #2832
 605 01fa 0022     		movs	r2, #0
 606 01fc 1A60     		str	r2, [r3]
ARM GAS  /tmp/ccD2hNvo.s 			page 12


 607              		.loc 7 162 0 discriminator 2
 608 01fe 029A     		ldr	r2, [sp, #8]
 609 0200 039B     		ldr	r3, [sp, #12]
 610 0202 5B01     		lsls	r3, r3, #5
 611 0204 1344     		add	r3, r3, r2
 612 0206 03F60833 		addw	r3, r3, #2824
 613 020a 4FF0FF32 		mov	r2, #-1
 614 020e 1A60     		str	r2, [r3]
 615              		.loc 7 155 0 discriminator 2
 616 0210 039B     		ldr	r3, [sp, #12]
 617 0212 0133     		adds	r3, r3, #1
 618 0214 0393     		str	r3, [sp, #12]
 619              	.L26:
 620              		.loc 7 155 0 is_stmt 0 discriminator 1
 621 0216 019B     		ldr	r3, [sp, #4]
 622 0218 1B6F     		ldr	r3, [r3, #112]
 623 021a 9A68     		ldr	r2, [r3, #8]
 624 021c 039B     		ldr	r3, [sp, #12]
 625 021e 9A42     		cmp	r2, r3
 626 0220 C6D2     		bcs	.L27
 627              		.loc 7 164 0 is_stmt 1
 628 0222 029B     		ldr	r3, [sp, #8]
 629 0224 4FF00112 		mov	r2, #65537
 630 0228 C3F81C28 		str	r2, [r3, #2076]
 631              		.loc 7 165 0
 632 022c 04B0     		add	sp, sp, #16
 633              		@ sp needed
 634 022e 7047     		bx	lr
 635              		.cfi_endproc
 636              	.LFE268:
 637              		.size	otg_disable_ep, .-otg_disable_ep
 638              		.align	2
 639              		.p2align 4,,15
 640              		.thumb
 641              		.thumb_func
 642              		.type	otg_rxfifo_flush, %function
 643              	otg_rxfifo_flush:
 644              	.LFB269:
 645              		.loc 7 167 0
 646              		.cfi_startproc
 647              		@ args = 0, pretend = 0, frame = 16
 648              		@ frame_needed = 0, uses_anonymous_args = 0
 649 0230 00B5     		push	{lr}
 650              		.cfi_def_cfa_offset 4
 651              		.cfi_offset 14, -4
 652 0232 85B0     		sub	sp, sp, #20
 653              		.cfi_def_cfa_offset 24
 654 0234 0190     		str	r0, [sp, #4]
 655              		.loc 7 168 0
 656 0236 019B     		ldr	r3, [sp, #4]
 657 0238 DB6E     		ldr	r3, [r3, #108]
 658 023a 0393     		str	r3, [sp, #12]
 659              		.loc 7 170 0
 660 023c 039B     		ldr	r3, [sp, #12]
 661 023e 1022     		movs	r2, #16
 662 0240 1A61     		str	r2, [r3, #16]
 663              		.loc 7 171 0
ARM GAS  /tmp/ccD2hNvo.s 			page 13


 664 0242 00BF     		nop
 665              	.L29:
 666              		.loc 7 171 0 is_stmt 0 discriminator 1
 667 0244 039B     		ldr	r3, [sp, #12]
 668 0246 1B69     		ldr	r3, [r3, #16]
 669 0248 03F01003 		and	r3, r3, #16
 670 024c 002B     		cmp	r3, #0
 671 024e F9D1     		bne	.L29
 672              		.loc 7 174 0 is_stmt 1
 673 0250 1220     		movs	r0, #18
 674 0252 FFF755FF 		bl	osalSysPolledDelayX
 675              		.loc 7 175 0
 676 0256 05B0     		add	sp, sp, #20
 677              		@ sp needed
 678 0258 5DF804FB 		ldr	pc, [sp], #4
 679              		.cfi_endproc
 680              	.LFE269:
 681              		.size	otg_rxfifo_flush, .-otg_rxfifo_flush
 682              		.align	2
 683 025c AFF30080 		.p2align 4,,15
 684              		.thumb
 685              		.thumb_func
 686              		.type	otg_txfifo_flush, %function
 687              	otg_txfifo_flush:
 688              	.LFB270:
 689              		.loc 7 177 0
 690              		.cfi_startproc
 691              		@ args = 0, pretend = 0, frame = 16
 692              		@ frame_needed = 0, uses_anonymous_args = 0
 693 0260 00B5     		push	{lr}
 694              		.cfi_def_cfa_offset 4
 695              		.cfi_offset 14, -4
 696 0262 85B0     		sub	sp, sp, #20
 697              		.cfi_def_cfa_offset 24
 698 0264 0190     		str	r0, [sp, #4]
 699 0266 0091     		str	r1, [sp]
 700              		.loc 7 178 0
 701 0268 019B     		ldr	r3, [sp, #4]
 702 026a DB6E     		ldr	r3, [r3, #108]
 703 026c 0393     		str	r3, [sp, #12]
 704              		.loc 7 180 0
 705 026e 009B     		ldr	r3, [sp]
 706 0270 9B01     		lsls	r3, r3, #6
 707 0272 43F02002 		orr	r2, r3, #32
 708 0276 039B     		ldr	r3, [sp, #12]
 709 0278 1A61     		str	r2, [r3, #16]
 710              		.loc 7 181 0
 711 027a 00BF     		nop
 712              	.L31:
 713              		.loc 7 181 0 is_stmt 0 discriminator 1
 714 027c 039B     		ldr	r3, [sp, #12]
 715 027e 1B69     		ldr	r3, [r3, #16]
 716 0280 03F02003 		and	r3, r3, #32
 717 0284 002B     		cmp	r3, #0
 718 0286 F9D1     		bne	.L31
 719              		.loc 7 184 0 is_stmt 1
 720 0288 1220     		movs	r0, #18
ARM GAS  /tmp/ccD2hNvo.s 			page 14


 721 028a FFF739FF 		bl	osalSysPolledDelayX
 722              		.loc 7 185 0
 723 028e 05B0     		add	sp, sp, #20
 724              		@ sp needed
 725 0290 5DF804FB 		ldr	pc, [sp], #4
 726              		.cfi_endproc
 727              	.LFE270:
 728              		.size	otg_txfifo_flush, .-otg_txfifo_flush
 729              		.align	2
 730 0294 AFF30080 		.p2align 4,,15
 730      AFF30080 
 730      AFF30080 
 731              		.thumb
 732              		.thumb_func
 733              		.type	otg_ram_reset, %function
 734              	otg_ram_reset:
 735              	.LFB271:
 736              		.loc 7 194 0
 737              		.cfi_startproc
 738              		@ args = 0, pretend = 0, frame = 8
 739              		@ frame_needed = 0, uses_anonymous_args = 0
 740              		@ link register save eliminated.
 741 02a0 82B0     		sub	sp, sp, #8
 742              		.cfi_def_cfa_offset 8
 743 02a2 0190     		str	r0, [sp, #4]
 744              		.loc 7 196 0
 745 02a4 019B     		ldr	r3, [sp, #4]
 746 02a6 1B6F     		ldr	r3, [r3, #112]
 747 02a8 1A68     		ldr	r2, [r3]
 748 02aa 019B     		ldr	r3, [sp, #4]
 749 02ac 5A67     		str	r2, [r3, #116]
 750              		.loc 7 197 0
 751 02ae 02B0     		add	sp, sp, #8
 752              		@ sp needed
 753 02b0 7047     		bx	lr
 754              		.cfi_endproc
 755              	.LFE271:
 756              		.size	otg_ram_reset, .-otg_ram_reset
 757 02b2 00BF     		.align	2
 758 02b4 AFF30080 		.p2align 4,,15
 758      AFF30080 
 758      AFF30080 
 759              		.thumb
 760              		.thumb_func
 761              		.type	otg_ram_alloc, %function
 762              	otg_ram_alloc:
 763              	.LFB272:
 764              		.loc 7 207 0
 765              		.cfi_startproc
 766              		@ args = 0, pretend = 0, frame = 16
 767              		@ frame_needed = 0, uses_anonymous_args = 0
 768              		@ link register save eliminated.
 769 02c0 84B0     		sub	sp, sp, #16
 770              		.cfi_def_cfa_offset 16
 771 02c2 0190     		str	r0, [sp, #4]
 772 02c4 0091     		str	r1, [sp]
 773              		.loc 7 210 0
ARM GAS  /tmp/ccD2hNvo.s 			page 15


 774 02c6 019B     		ldr	r3, [sp, #4]
 775 02c8 5B6F     		ldr	r3, [r3, #116]
 776 02ca 0393     		str	r3, [sp, #12]
 777              		.loc 7 211 0
 778 02cc 019B     		ldr	r3, [sp, #4]
 779 02ce 5A6F     		ldr	r2, [r3, #116]
 780 02d0 009B     		ldr	r3, [sp]
 781 02d2 1A44     		add	r2, r2, r3
 782 02d4 019B     		ldr	r3, [sp, #4]
 783 02d6 5A67     		str	r2, [r3, #116]
 784              		.loc 7 214 0
 785 02d8 039B     		ldr	r3, [sp, #12]
 786              		.loc 7 215 0
 787 02da 1846     		mov	r0, r3
 788 02dc 04B0     		add	sp, sp, #16
 789              		@ sp needed
 790 02de 7047     		bx	lr
 791              		.cfi_endproc
 792              	.LFE272:
 793              		.size	otg_ram_alloc, .-otg_ram_alloc
 794              		.align	2
 795              		.p2align 4,,15
 796              		.thumb
 797              		.thumb_func
 798              		.type	otg_fifo_write_from_buffer, %function
 799              	otg_fifo_write_from_buffer:
 800              	.LFB273:
 801              		.loc 7 228 0
 802              		.cfi_startproc
 803              		@ args = 0, pretend = 0, frame = 16
 804              		@ frame_needed = 0, uses_anonymous_args = 0
 805              		@ link register save eliminated.
 806 02e0 84B0     		sub	sp, sp, #16
 807              		.cfi_def_cfa_offset 16
 808 02e2 0390     		str	r0, [sp, #12]
 809 02e4 0291     		str	r1, [sp, #8]
 810 02e6 0192     		str	r2, [sp, #4]
 811              	.L38:
 812              		.loc 7 233 0
 813 02e8 029B     		ldr	r3, [sp, #8]
 814 02ea 1A68     		ldr	r2, [r3]
 815 02ec 039B     		ldr	r3, [sp, #12]
 816 02ee 1A60     		str	r2, [r3]
 817              		.loc 7 234 0
 818 02f0 019B     		ldr	r3, [sp, #4]
 819 02f2 042B     		cmp	r3, #4
 820 02f4 00D8     		bhi	.L36
 821              		.loc 7 235 0
 822 02f6 06E0     		b	.L39
 823              	.L36:
 824              		.loc 7 237 0
 825 02f8 019B     		ldr	r3, [sp, #4]
 826 02fa 043B     		subs	r3, r3, #4
 827 02fc 0193     		str	r3, [sp, #4]
 828              		.loc 7 238 0
 829 02fe 029B     		ldr	r3, [sp, #8]
 830 0300 0433     		adds	r3, r3, #4
ARM GAS  /tmp/ccD2hNvo.s 			page 16


 831 0302 0293     		str	r3, [sp, #8]
 832              		.loc 7 239 0
 833 0304 F0E7     		b	.L38
 834              	.L39:
 835              		.loc 7 240 0
 836 0306 04B0     		add	sp, sp, #16
 837              		@ sp needed
 838 0308 7047     		bx	lr
 839              		.cfi_endproc
 840              	.LFE273:
 841              		.size	otg_fifo_write_from_buffer, .-otg_fifo_write_from_buffer
 842 030a 00BF     		.align	2
 843 030c AFF30080 		.p2align 4,,15
 844              		.thumb
 845              		.thumb_func
 846              		.type	otg_fifo_read_to_buffer, %function
 847              	otg_fifo_read_to_buffer:
 848              	.LFB274:
 849              		.loc 7 255 0
 850              		.cfi_startproc
 851              		@ args = 0, pretend = 0, frame = 24
 852              		@ frame_needed = 0, uses_anonymous_args = 0
 853              		@ link register save eliminated.
 854 0310 86B0     		sub	sp, sp, #24
 855              		.cfi_def_cfa_offset 24
 856 0312 0390     		str	r0, [sp, #12]
 857 0314 0291     		str	r1, [sp, #8]
 858 0316 0192     		str	r2, [sp, #4]
 859 0318 0093     		str	r3, [sp]
 860              		.loc 7 256 0
 861 031a 0023     		movs	r3, #0
 862 031c 0593     		str	r3, [sp, #20]
 863              		.loc 7 257 0
 864 031e 0023     		movs	r3, #0
 865 0320 0493     		str	r3, [sp, #16]
 866              		.loc 7 259 0
 867 0322 17E0     		b	.L41
 868              	.L44:
 869              		.loc 7 260 0
 870 0324 049B     		ldr	r3, [sp, #16]
 871 0326 03F00303 		and	r3, r3, #3
 872 032a 002B     		cmp	r3, #0
 873 032c 02D1     		bne	.L42
 874              		.loc 7 261 0
 875 032e 039B     		ldr	r3, [sp, #12]
 876 0330 1B68     		ldr	r3, [r3]
 877 0332 0593     		str	r3, [sp, #20]
 878              	.L42:
 879              		.loc 7 263 0
 880 0334 049A     		ldr	r2, [sp, #16]
 881 0336 009B     		ldr	r3, [sp]
 882 0338 9A42     		cmp	r2, r3
 883 033a 08D2     		bcs	.L43
 884              		.loc 7 264 0
 885 033c 029B     		ldr	r3, [sp, #8]
 886 033e 5A1C     		adds	r2, r3, #1
 887 0340 0292     		str	r2, [sp, #8]
ARM GAS  /tmp/ccD2hNvo.s 			page 17


 888 0342 059A     		ldr	r2, [sp, #20]
 889 0344 D2B2     		uxtb	r2, r2
 890 0346 1A70     		strb	r2, [r3]
 891              		.loc 7 265 0
 892 0348 059B     		ldr	r3, [sp, #20]
 893 034a 1B0A     		lsrs	r3, r3, #8
 894 034c 0593     		str	r3, [sp, #20]
 895              	.L43:
 896              		.loc 7 267 0
 897 034e 049B     		ldr	r3, [sp, #16]
 898 0350 0133     		adds	r3, r3, #1
 899 0352 0493     		str	r3, [sp, #16]
 900              	.L41:
 901              		.loc 7 259 0 discriminator 1
 902 0354 049A     		ldr	r2, [sp, #16]
 903 0356 019B     		ldr	r3, [sp, #4]
 904 0358 9A42     		cmp	r2, r3
 905 035a E3D3     		bcc	.L44
 906              		.loc 7 269 0
 907 035c 06B0     		add	sp, sp, #24
 908              		@ sp needed
 909 035e 7047     		bx	lr
 910              		.cfi_endproc
 911              	.LFE274:
 912              		.size	otg_fifo_read_to_buffer, .-otg_fifo_read_to_buffer
 913              		.align	2
 914              		.p2align 4,,15
 915              		.thumb
 916              		.thumb_func
 917              		.type	otg_rxfifo_handler, %function
 918              	otg_rxfifo_handler:
 919              	.LFB275:
 920              		.loc 7 278 0
 921              		.cfi_startproc
 922              		@ args = 0, pretend = 0, frame = 24
 923              		@ frame_needed = 0, uses_anonymous_args = 0
 924 0360 10B5     		push	{r4, lr}
 925              		.cfi_def_cfa_offset 8
 926              		.cfi_offset 4, -8
 927              		.cfi_offset 14, -4
 928 0362 86B0     		sub	sp, sp, #24
 929              		.cfi_def_cfa_offset 32
 930 0364 0190     		str	r0, [sp, #4]
 931              		.loc 7 281 0
 932 0366 019B     		ldr	r3, [sp, #4]
 933 0368 DB6E     		ldr	r3, [r3, #108]
 934 036a 1B6A     		ldr	r3, [r3, #32]
 935 036c 0593     		str	r3, [sp, #20]
 936              		.loc 7 282 0
 937 036e 059B     		ldr	r3, [sp, #20]
 938 0370 03F4F013 		and	r3, r3, #1966080
 939 0374 B3F5002F 		cmp	r3, #524288
 940 0378 74D0     		beq	.L50
 941 037a B3F5402F 		cmp	r3, #786432
 942 037e 03D0     		beq	.L48
 943 0380 B3F5802F 		cmp	r3, #262144
 944 0384 1CD0     		beq	.L49
ARM GAS  /tmp/ccD2hNvo.s 			page 18


 945 0386 6EE0     		b	.L45
 946              	.L48:
 947              		.loc 7 286 0
 948 0388 059A     		ldr	r2, [sp, #20]
 949 038a 47F6F073 		movw	r3, #32752
 950 038e 1340     		ands	r3, r3, r2
 951 0390 1B09     		lsrs	r3, r3, #4
 952 0392 0493     		str	r3, [sp, #16]
 953              		.loc 7 287 0
 954 0394 059B     		ldr	r3, [sp, #20]
 955 0396 03F00F03 		and	r3, r3, #15
 956 039a 0393     		str	r3, [sp, #12]
 957              		.loc 7 288 0
 958 039c 019B     		ldr	r3, [sp, #4]
 959 039e DB6E     		ldr	r3, [r3, #108]
 960 03a0 03F58052 		add	r2, r3, #4096
 961 03a4 0199     		ldr	r1, [sp, #4]
 962 03a6 039B     		ldr	r3, [sp, #12]
 963 03a8 0233     		adds	r3, r3, #2
 964 03aa 9B00     		lsls	r3, r3, #2
 965 03ac 0B44     		add	r3, r3, r1
 966 03ae 5B68     		ldr	r3, [r3, #4]
 967 03b0 1B6A     		ldr	r3, [r3, #32]
 968 03b2 1046     		mov	r0, r2
 969 03b4 1946     		mov	r1, r3
 970 03b6 049A     		ldr	r2, [sp, #16]
 971 03b8 0823     		movs	r3, #8
 972 03ba FFF7A9FF 		bl	otg_fifo_read_to_buffer
 973              		.loc 7 290 0
 974 03be 52E0     		b	.L45
 975              	.L49:
 976              		.loc 7 292 0
 977 03c0 059A     		ldr	r2, [sp, #20]
 978 03c2 47F6F073 		movw	r3, #32752
 979 03c6 1340     		ands	r3, r3, r2
 980 03c8 1B09     		lsrs	r3, r3, #4
 981 03ca 0493     		str	r3, [sp, #16]
 982              		.loc 7 293 0
 983 03cc 059B     		ldr	r3, [sp, #20]
 984 03ce 03F00F03 		and	r3, r3, #15
 985 03d2 0393     		str	r3, [sp, #12]
 986              		.loc 7 294 0
 987 03d4 019B     		ldr	r3, [sp, #4]
 988 03d6 DB6E     		ldr	r3, [r3, #108]
 989 03d8 03F58051 		add	r1, r3, #4096
 990              		.loc 7 295 0
 991 03dc 019A     		ldr	r2, [sp, #4]
 992 03de 039B     		ldr	r3, [sp, #12]
 993 03e0 0233     		adds	r3, r3, #2
 994 03e2 9B00     		lsls	r3, r3, #2
 995 03e4 1344     		add	r3, r3, r2
 996 03e6 5B68     		ldr	r3, [r3, #4]
 997 03e8 9B69     		ldr	r3, [r3, #24]
 998              		.loc 7 294 0
 999 03ea 9A68     		ldr	r2, [r3, #8]
 1000              		.loc 7 297 0
 1001 03ec 0198     		ldr	r0, [sp, #4]
ARM GAS  /tmp/ccD2hNvo.s 			page 19


 1002 03ee 039B     		ldr	r3, [sp, #12]
 1003 03f0 0233     		adds	r3, r3, #2
 1004 03f2 9B00     		lsls	r3, r3, #2
 1005 03f4 0344     		add	r3, r3, r0
 1006 03f6 5B68     		ldr	r3, [r3, #4]
 1007 03f8 9B69     		ldr	r3, [r3, #24]
 1008 03fa 1868     		ldr	r0, [r3]
 1009              		.loc 7 298 0
 1010 03fc 019C     		ldr	r4, [sp, #4]
 1011 03fe 039B     		ldr	r3, [sp, #12]
 1012 0400 0233     		adds	r3, r3, #2
 1013 0402 9B00     		lsls	r3, r3, #2
 1014 0404 2344     		add	r3, r3, r4
 1015 0406 5B68     		ldr	r3, [r3, #4]
 1016 0408 9B69     		ldr	r3, [r3, #24]
 1017 040a 5B68     		ldr	r3, [r3, #4]
 1018              		.loc 7 294 0
 1019 040c C31A     		subs	r3, r0, r3
 1020 040e 0846     		mov	r0, r1
 1021 0410 1146     		mov	r1, r2
 1022 0412 049A     		ldr	r2, [sp, #16]
 1023 0414 FFF77CFF 		bl	otg_fifo_read_to_buffer
 1024              		.loc 7 299 0
 1025 0418 019A     		ldr	r2, [sp, #4]
 1026 041a 039B     		ldr	r3, [sp, #12]
 1027 041c 0233     		adds	r3, r3, #2
 1028 041e 9B00     		lsls	r3, r3, #2
 1029 0420 1344     		add	r3, r3, r2
 1030 0422 5B68     		ldr	r3, [r3, #4]
 1031 0424 9A69     		ldr	r2, [r3, #24]
 1032 0426 0199     		ldr	r1, [sp, #4]
 1033 0428 039B     		ldr	r3, [sp, #12]
 1034 042a 0233     		adds	r3, r3, #2
 1035 042c 9B00     		lsls	r3, r3, #2
 1036 042e 0B44     		add	r3, r3, r1
 1037 0430 5B68     		ldr	r3, [r3, #4]
 1038 0432 9B69     		ldr	r3, [r3, #24]
 1039 0434 9968     		ldr	r1, [r3, #8]
 1040 0436 049B     		ldr	r3, [sp, #16]
 1041 0438 0B44     		add	r3, r3, r1
 1042 043a 9360     		str	r3, [r2, #8]
 1043              		.loc 7 300 0
 1044 043c 019A     		ldr	r2, [sp, #4]
 1045 043e 039B     		ldr	r3, [sp, #12]
 1046 0440 0233     		adds	r3, r3, #2
 1047 0442 9B00     		lsls	r3, r3, #2
 1048 0444 1344     		add	r3, r3, r2
 1049 0446 5B68     		ldr	r3, [r3, #4]
 1050 0448 9A69     		ldr	r2, [r3, #24]
 1051 044a 0199     		ldr	r1, [sp, #4]
 1052 044c 039B     		ldr	r3, [sp, #12]
 1053 044e 0233     		adds	r3, r3, #2
 1054 0450 9B00     		lsls	r3, r3, #2
 1055 0452 0B44     		add	r3, r3, r1
 1056 0454 5B68     		ldr	r3, [r3, #4]
 1057 0456 9B69     		ldr	r3, [r3, #24]
 1058 0458 5968     		ldr	r1, [r3, #4]
ARM GAS  /tmp/ccD2hNvo.s 			page 20


 1059 045a 049B     		ldr	r3, [sp, #16]
 1060 045c 0B44     		add	r3, r3, r1
 1061 045e 5360     		str	r3, [r2, #4]
 1062              		.loc 7 301 0
 1063 0460 00BF     		nop
 1064 0462 00E0     		b	.L45
 1065              	.L50:
 1066              		.loc 7 284 0
 1067 0464 00BF     		nop
 1068              	.L45:
 1069              		.loc 7 307 0
 1070 0466 06B0     		add	sp, sp, #24
 1071              		@ sp needed
 1072 0468 10BD     		pop	{r4, pc}
 1073              		.cfi_endproc
 1074              	.LFE275:
 1075              		.size	otg_rxfifo_handler, .-otg_rxfifo_handler
 1076 046a 00BF     		.align	2
 1077 046c AFF30080 		.p2align 4,,15
 1078              		.thumb
 1079              		.thumb_func
 1080              		.type	otg_txfifo_handler, %function
 1081              	otg_txfifo_handler:
 1082              	.LFB276:
 1083              		.loc 7 317 0
 1084              		.cfi_startproc
 1085              		@ args = 0, pretend = 0, frame = 16
 1086              		@ frame_needed = 0, uses_anonymous_args = 0
 1087 0470 00B5     		push	{lr}
 1088              		.cfi_def_cfa_offset 4
 1089              		.cfi_offset 14, -4
 1090 0472 85B0     		sub	sp, sp, #20
 1091              		.cfi_def_cfa_offset 24
 1092 0474 0190     		str	r0, [sp, #4]
 1093 0476 0B46     		mov	r3, r1
 1094 0478 8DF80330 		strb	r3, [sp, #3]
 1095              	.L56:
 1096              	.LBB10:
 1097              		.loc 7 324 0
 1098 047c 9DF80330 		ldrb	r3, [sp, #3]	@ zero_extendqisi2
 1099 0480 019A     		ldr	r2, [sp, #4]
 1100 0482 0233     		adds	r3, r3, #2
 1101 0484 9B00     		lsls	r3, r3, #2
 1102 0486 1344     		add	r3, r3, r2
 1103 0488 5B68     		ldr	r3, [r3, #4]
 1104 048a 5B69     		ldr	r3, [r3, #20]
 1105 048c 5A68     		ldr	r2, [r3, #4]
 1106 048e 9DF80330 		ldrb	r3, [sp, #3]	@ zero_extendqisi2
 1107 0492 0199     		ldr	r1, [sp, #4]
 1108 0494 0233     		adds	r3, r3, #2
 1109 0496 9B00     		lsls	r3, r3, #2
 1110 0498 0B44     		add	r3, r3, r1
 1111 049a 5B68     		ldr	r3, [r3, #4]
 1112 049c 5B69     		ldr	r3, [r3, #20]
 1113 049e 1B68     		ldr	r3, [r3]
 1114 04a0 9A42     		cmp	r2, r3
 1115 04a2 01D3     		bcc	.L52
ARM GAS  /tmp/ccD2hNvo.s 			page 21


 1116              		.loc 7 325 0
 1117 04a4 0123     		movs	r3, #1
 1118 04a6 76E0     		b	.L53
 1119              	.L52:
 1120              		.loc 7 328 0
 1121 04a8 9DF80330 		ldrb	r3, [sp, #3]	@ zero_extendqisi2
 1122 04ac 019A     		ldr	r2, [sp, #4]
 1123 04ae 0233     		adds	r3, r3, #2
 1124 04b0 9B00     		lsls	r3, r3, #2
 1125 04b2 1344     		add	r3, r3, r2
 1126 04b4 5B68     		ldr	r3, [r3, #4]
 1127 04b6 5B69     		ldr	r3, [r3, #20]
 1128 04b8 1A68     		ldr	r2, [r3]
 1129 04ba 9DF80330 		ldrb	r3, [sp, #3]	@ zero_extendqisi2
 1130 04be 0199     		ldr	r1, [sp, #4]
 1131 04c0 0233     		adds	r3, r3, #2
 1132 04c2 9B00     		lsls	r3, r3, #2
 1133 04c4 0B44     		add	r3, r3, r1
 1134 04c6 5B68     		ldr	r3, [r3, #4]
 1135 04c8 5B69     		ldr	r3, [r3, #20]
 1136 04ca 5B68     		ldr	r3, [r3, #4]
 1137 04cc D31A     		subs	r3, r2, r3
 1138 04ce 0393     		str	r3, [sp, #12]
 1139              		.loc 7 329 0
 1140 04d0 9DF80330 		ldrb	r3, [sp, #3]	@ zero_extendqisi2
 1141 04d4 019A     		ldr	r2, [sp, #4]
 1142 04d6 0233     		adds	r3, r3, #2
 1143 04d8 9B00     		lsls	r3, r3, #2
 1144 04da 1344     		add	r3, r3, r2
 1145 04dc 5B68     		ldr	r3, [r3, #4]
 1146 04de 1B8A     		ldrh	r3, [r3, #16]
 1147 04e0 1A46     		mov	r2, r3
 1148 04e2 039B     		ldr	r3, [sp, #12]
 1149 04e4 9A42     		cmp	r2, r3
 1150 04e6 08D2     		bcs	.L54
 1151              		.loc 7 330 0
 1152 04e8 9DF80330 		ldrb	r3, [sp, #3]	@ zero_extendqisi2
 1153 04ec 019A     		ldr	r2, [sp, #4]
 1154 04ee 0233     		adds	r3, r3, #2
 1155 04f0 9B00     		lsls	r3, r3, #2
 1156 04f2 1344     		add	r3, r3, r2
 1157 04f4 5B68     		ldr	r3, [r3, #4]
 1158 04f6 1B8A     		ldrh	r3, [r3, #16]
 1159 04f8 0393     		str	r3, [sp, #12]
 1160              	.L54:
 1161              		.loc 7 334 0
 1162 04fa 019B     		ldr	r3, [sp, #4]
 1163 04fc DA6E     		ldr	r2, [r3, #108]
 1164 04fe 9DF80330 		ldrb	r3, [sp, #3]	@ zero_extendqisi2
 1165 0502 5B01     		lsls	r3, r3, #5
 1166 0504 1344     		add	r3, r3, r2
 1167 0506 03F61813 		addw	r3, r3, #2328
 1168 050a 1B68     		ldr	r3, [r3]
 1169 050c 9BB2     		uxth	r3, r3
 1170 050e 9A00     		lsls	r2, r3, #2
 1171 0510 039B     		ldr	r3, [sp, #12]
 1172 0512 9A42     		cmp	r2, r3
ARM GAS  /tmp/ccD2hNvo.s 			page 22


 1173 0514 01D2     		bcs	.L55
 1174              		.loc 7 335 0
 1175 0516 0023     		movs	r3, #0
 1176 0518 3DE0     		b	.L53
 1177              	.L55:
 1178              		.loc 7 340 0
 1179 051a 019B     		ldr	r3, [sp, #4]
 1180 051c DA6E     		ldr	r2, [r3, #108]
 1181 051e 9DF80330 		ldrb	r3, [sp, #3]	@ zero_extendqisi2
 1182 0522 0133     		adds	r3, r3, #1
 1183 0524 1B03     		lsls	r3, r3, #12
 1184 0526 1A44     		add	r2, r2, r3
 1185              		.loc 7 341 0
 1186 0528 9DF80330 		ldrb	r3, [sp, #3]	@ zero_extendqisi2
 1187 052c 0199     		ldr	r1, [sp, #4]
 1188 052e 0233     		adds	r3, r3, #2
 1189 0530 9B00     		lsls	r3, r3, #2
 1190 0532 0B44     		add	r3, r3, r1
 1191 0534 5B68     		ldr	r3, [r3, #4]
 1192 0536 5B69     		ldr	r3, [r3, #20]
 1193              		.loc 7 340 0
 1194 0538 9B68     		ldr	r3, [r3, #8]
 1195 053a 1046     		mov	r0, r2
 1196 053c 1946     		mov	r1, r3
 1197 053e 039A     		ldr	r2, [sp, #12]
 1198 0540 FFF7CEFE 		bl	otg_fifo_write_from_buffer
 1199              		.loc 7 343 0
 1200 0544 9DF80330 		ldrb	r3, [sp, #3]	@ zero_extendqisi2
 1201 0548 019A     		ldr	r2, [sp, #4]
 1202 054a 0233     		adds	r3, r3, #2
 1203 054c 9B00     		lsls	r3, r3, #2
 1204 054e 1344     		add	r3, r3, r2
 1205 0550 5B68     		ldr	r3, [r3, #4]
 1206 0552 5A69     		ldr	r2, [r3, #20]
 1207 0554 9DF80330 		ldrb	r3, [sp, #3]	@ zero_extendqisi2
 1208 0558 0199     		ldr	r1, [sp, #4]
 1209 055a 0233     		adds	r3, r3, #2
 1210 055c 9B00     		lsls	r3, r3, #2
 1211 055e 0B44     		add	r3, r3, r1
 1212 0560 5B68     		ldr	r3, [r3, #4]
 1213 0562 5B69     		ldr	r3, [r3, #20]
 1214 0564 9968     		ldr	r1, [r3, #8]
 1215 0566 039B     		ldr	r3, [sp, #12]
 1216 0568 0B44     		add	r3, r3, r1
 1217 056a 9360     		str	r3, [r2, #8]
 1218              		.loc 7 347 0
 1219 056c 9DF80330 		ldrb	r3, [sp, #3]	@ zero_extendqisi2
 1220 0570 019A     		ldr	r2, [sp, #4]
 1221 0572 0233     		adds	r3, r3, #2
 1222 0574 9B00     		lsls	r3, r3, #2
 1223 0576 1344     		add	r3, r3, r2
 1224 0578 5B68     		ldr	r3, [r3, #4]
 1225 057a 5A69     		ldr	r2, [r3, #20]
 1226 057c 9DF80330 		ldrb	r3, [sp, #3]	@ zero_extendqisi2
 1227 0580 0199     		ldr	r1, [sp, #4]
 1228 0582 0233     		adds	r3, r3, #2
 1229 0584 9B00     		lsls	r3, r3, #2
ARM GAS  /tmp/ccD2hNvo.s 			page 23


 1230 0586 0B44     		add	r3, r3, r1
 1231 0588 5B68     		ldr	r3, [r3, #4]
 1232 058a 5B69     		ldr	r3, [r3, #20]
 1233 058c 5968     		ldr	r1, [r3, #4]
 1234 058e 039B     		ldr	r3, [sp, #12]
 1235 0590 0B44     		add	r3, r3, r1
 1236 0592 5360     		str	r3, [r2, #4]
 1237              	.LBE10:
 1238              		.loc 7 348 0
 1239 0594 72E7     		b	.L56
 1240              	.L53:
 1241              		.loc 7 349 0
 1242 0596 1846     		mov	r0, r3
 1243 0598 05B0     		add	sp, sp, #20
 1244              		@ sp needed
 1245 059a 5DF804FB 		ldr	pc, [sp], #4
 1246              		.cfi_endproc
 1247              	.LFE276:
 1248              		.size	otg_txfifo_handler, .-otg_txfifo_handler
 1249 059e 00BF     		.align	2
 1250              		.p2align 4,,15
 1251              		.thumb
 1252              		.thumb_func
 1253              		.type	otg_epin_handler, %function
 1254              	otg_epin_handler:
 1255              	.LFB277:
 1256              		.loc 7 359 0
 1257              		.cfi_startproc
 1258              		@ args = 0, pretend = 0, frame = 24
 1259              		@ frame_needed = 0, uses_anonymous_args = 0
 1260 05a0 00B5     		push	{lr}
 1261              		.cfi_def_cfa_offset 4
 1262              		.cfi_offset 14, -4
 1263 05a2 87B0     		sub	sp, sp, #28
 1264              		.cfi_def_cfa_offset 32
 1265 05a4 0190     		str	r0, [sp, #4]
 1266 05a6 0B46     		mov	r3, r1
 1267 05a8 8DF80330 		strb	r3, [sp, #3]
 1268              		.loc 7 360 0
 1269 05ac 019B     		ldr	r3, [sp, #4]
 1270 05ae DB6E     		ldr	r3, [r3, #108]
 1271 05b0 0593     		str	r3, [sp, #20]
 1272              		.loc 7 361 0
 1273 05b2 9DF80330 		ldrb	r3, [sp, #3]	@ zero_extendqisi2
 1274 05b6 059A     		ldr	r2, [sp, #20]
 1275 05b8 5B01     		lsls	r3, r3, #5
 1276 05ba 1344     		add	r3, r3, r2
 1277 05bc 03F60813 		addw	r3, r3, #2312
 1278 05c0 1B68     		ldr	r3, [r3]
 1279 05c2 0493     		str	r3, [sp, #16]
 1280              		.loc 7 363 0
 1281 05c4 9DF80330 		ldrb	r3, [sp, #3]	@ zero_extendqisi2
 1282 05c8 059A     		ldr	r2, [sp, #20]
 1283 05ca 5B01     		lsls	r3, r3, #5
 1284 05cc 1344     		add	r3, r3, r2
 1285 05ce 03F60813 		addw	r3, r3, #2312
 1286 05d2 049A     		ldr	r2, [sp, #16]
ARM GAS  /tmp/ccD2hNvo.s 			page 24


 1287 05d4 1A60     		str	r2, [r3]
 1288              		.loc 7 368 0
 1289 05d6 049B     		ldr	r3, [sp, #16]
 1290 05d8 03F00103 		and	r3, r3, #1
 1291 05dc 002B     		cmp	r3, #0
 1292 05de 51D0     		beq	.L58
 1293              		.loc 7 368 0 is_stmt 0 discriminator 1
 1294 05e0 059B     		ldr	r3, [sp, #20]
 1295 05e2 D3F81038 		ldr	r3, [r3, #2064]
 1296 05e6 03F00103 		and	r3, r3, #1
 1297 05ea 002B     		cmp	r3, #0
 1298 05ec 4AD0     		beq	.L58
 1299              	.LBB11:
 1300              		.loc 7 370 0 is_stmt 1
 1301 05ee 9DF80330 		ldrb	r3, [sp, #3]	@ zero_extendqisi2
 1302 05f2 019A     		ldr	r2, [sp, #4]
 1303 05f4 0233     		adds	r3, r3, #2
 1304 05f6 9B00     		lsls	r3, r3, #2
 1305 05f8 1344     		add	r3, r3, r2
 1306 05fa 5B68     		ldr	r3, [r3, #4]
 1307 05fc 5B69     		ldr	r3, [r3, #20]
 1308 05fe 0393     		str	r3, [sp, #12]
 1309              		.loc 7 372 0
 1310 0600 039B     		ldr	r3, [sp, #12]
 1311 0602 1A68     		ldr	r2, [r3]
 1312 0604 039B     		ldr	r3, [sp, #12]
 1313 0606 DB68     		ldr	r3, [r3, #12]
 1314 0608 9A42     		cmp	r2, r3
 1315 060a 14D2     		bcs	.L59
 1316              		.loc 7 376 0
 1317 060c 039B     		ldr	r3, [sp, #12]
 1318 060e DA68     		ldr	r2, [r3, #12]
 1319 0610 039B     		ldr	r3, [sp, #12]
 1320 0612 1B68     		ldr	r3, [r3]
 1321 0614 D21A     		subs	r2, r2, r3
 1322 0616 039B     		ldr	r3, [sp, #12]
 1323 0618 1A60     		str	r2, [r3]
 1324              		.loc 7 377 0
 1325 061a 039B     		ldr	r3, [sp, #12]
 1326 061c 0022     		movs	r2, #0
 1327 061e 5A60     		str	r2, [r3, #4]
 1328              		.loc 7 378 0
 1329 0620 FFF75EFD 		bl	osalSysLockFromISR
 1330              		.loc 7 379 0
 1331 0624 9DF80330 		ldrb	r3, [sp, #3]	@ zero_extendqisi2
 1332 0628 0198     		ldr	r0, [sp, #4]
 1333 062a 1946     		mov	r1, r3
 1334 062c FFF7FEFF 		bl	usb_lld_start_in
 1335              		.loc 7 380 0
 1336 0630 FFF75EFD 		bl	osalSysUnlockFromISR
 1337 0634 26E0     		b	.L58
 1338              	.L59:
 1339              		.loc 7 384 0
 1340 0636 019B     		ldr	r3, [sp, #4]
 1341 0638 1B89     		ldrh	r3, [r3, #8]
 1342 063a 9AB2     		uxth	r2, r3
 1343 063c 9DF80330 		ldrb	r3, [sp, #3]	@ zero_extendqisi2
ARM GAS  /tmp/ccD2hNvo.s 			page 25


 1344 0640 0121     		movs	r1, #1
 1345 0642 01FA03F3 		lsl	r3, r1, r3
 1346 0646 9BB2     		uxth	r3, r3
 1347 0648 DB43     		mvns	r3, r3
 1348 064a 9BB2     		uxth	r3, r3
 1349 064c 1340     		ands	r3, r3, r2
 1350 064e 9BB2     		uxth	r3, r3
 1351 0650 9AB2     		uxth	r2, r3
 1352 0652 019B     		ldr	r3, [sp, #4]
 1353 0654 1A81     		strh	r2, [r3, #8]	@ movhi
 1354 0656 9DF80330 		ldrb	r3, [sp, #3]	@ zero_extendqisi2
 1355 065a 019A     		ldr	r2, [sp, #4]
 1356 065c 0233     		adds	r3, r3, #2
 1357 065e 9B00     		lsls	r3, r3, #2
 1358 0660 1344     		add	r3, r3, r2
 1359 0662 5B68     		ldr	r3, [r3, #4]
 1360 0664 9B68     		ldr	r3, [r3, #8]
 1361 0666 002B     		cmp	r3, #0
 1362 0668 0CD0     		beq	.L58
 1363              		.loc 7 384 0 is_stmt 0 discriminator 1
 1364 066a 9DF80330 		ldrb	r3, [sp, #3]	@ zero_extendqisi2
 1365 066e 019A     		ldr	r2, [sp, #4]
 1366 0670 0233     		adds	r3, r3, #2
 1367 0672 9B00     		lsls	r3, r3, #2
 1368 0674 1344     		add	r3, r3, r2
 1369 0676 5B68     		ldr	r3, [r3, #4]
 1370 0678 9B68     		ldr	r3, [r3, #8]
 1371 067a 9DF80320 		ldrb	r2, [sp, #3]	@ zero_extendqisi2
 1372 067e 0198     		ldr	r0, [sp, #4]
 1373 0680 1146     		mov	r1, r2
 1374 0682 9847     		blx	r3
 1375              	.L58:
 1376              	.LBE11:
 1377              		.loc 7 387 0 is_stmt 1
 1378 0684 049B     		ldr	r3, [sp, #16]
 1379 0686 03F08003 		and	r3, r3, #128
 1380 068a 002B     		cmp	r3, #0
 1381 068c 2BD0     		beq	.L57
 1382              		.loc 7 388 0 discriminator 1
 1383 068e 059B     		ldr	r3, [sp, #20]
 1384 0690 D3F83428 		ldr	r2, [r3, #2100]
 1385 0694 9DF80330 		ldrb	r3, [sp, #3]	@ zero_extendqisi2
 1386 0698 0121     		movs	r1, #1
 1387 069a 01FA03F3 		lsl	r3, r1, r3
 1388 069e 1340     		ands	r3, r3, r2
 1389              		.loc 7 387 0 discriminator 1
 1390 06a0 002B     		cmp	r3, #0
 1391 06a2 20D0     		beq	.L57
 1392              		.loc 7 390 0
 1393 06a4 FFF71CFD 		bl	osalSysLockFromISR
 1394              		.loc 7 391 0
 1395 06a8 019B     		ldr	r3, [sp, #4]
 1396 06aa 9A6F     		ldr	r2, [r3, #120]
 1397 06ac 9DF80330 		ldrb	r3, [sp, #3]	@ zero_extendqisi2
 1398 06b0 0121     		movs	r1, #1
 1399 06b2 01FA03F3 		lsl	r3, r1, r3
 1400 06b6 1A43     		orrs	r2, r2, r3
ARM GAS  /tmp/ccD2hNvo.s 			page 26


 1401 06b8 019B     		ldr	r3, [sp, #4]
 1402 06ba 9A67     		str	r2, [r3, #120]
 1403              		.loc 7 392 0
 1404 06bc 059B     		ldr	r3, [sp, #20]
 1405 06be D3F83428 		ldr	r2, [r3, #2100]
 1406 06c2 9DF80330 		ldrb	r3, [sp, #3]	@ zero_extendqisi2
 1407 06c6 0121     		movs	r1, #1
 1408 06c8 01FA03F3 		lsl	r3, r1, r3
 1409 06cc DB43     		mvns	r3, r3
 1410 06ce 1A40     		ands	r2, r2, r3
 1411 06d0 059B     		ldr	r3, [sp, #20]
 1412 06d2 C3F83428 		str	r2, [r3, #2100]
 1413              		.loc 7 393 0
 1414 06d6 019B     		ldr	r3, [sp, #4]
 1415 06d8 7C33     		adds	r3, r3, #124
 1416 06da 1846     		mov	r0, r3
 1417 06dc 0021     		movs	r1, #0
 1418 06de FFF72FFD 		bl	osalThreadResumeI
 1419              		.loc 7 394 0
 1420 06e2 FFF705FD 		bl	osalSysUnlockFromISR
 1421              	.L57:
 1422              		.loc 7 396 0
 1423 06e6 07B0     		add	sp, sp, #28
 1424              		@ sp needed
 1425 06e8 5DF804FB 		ldr	pc, [sp], #4
 1426              		.cfi_endproc
 1427              	.LFE277:
 1428              		.size	otg_epin_handler, .-otg_epin_handler
 1429              		.align	2
 1430 06ec AFF30080 		.p2align 4,,15
 1431              		.thumb
 1432              		.thumb_func
 1433              		.type	otg_epout_handler, %function
 1434              	otg_epout_handler:
 1435              	.LFB278:
 1436              		.loc 7 406 0
 1437              		.cfi_startproc
 1438              		@ args = 0, pretend = 0, frame = 24
 1439              		@ frame_needed = 0, uses_anonymous_args = 0
 1440 06f0 00B5     		push	{lr}
 1441              		.cfi_def_cfa_offset 4
 1442              		.cfi_offset 14, -4
 1443 06f2 87B0     		sub	sp, sp, #28
 1444              		.cfi_def_cfa_offset 32
 1445 06f4 0190     		str	r0, [sp, #4]
 1446 06f6 0B46     		mov	r3, r1
 1447 06f8 8DF80330 		strb	r3, [sp, #3]
 1448              		.loc 7 407 0
 1449 06fc 019B     		ldr	r3, [sp, #4]
 1450 06fe DB6E     		ldr	r3, [r3, #108]
 1451 0700 0593     		str	r3, [sp, #20]
 1452              		.loc 7 408 0
 1453 0702 9DF80330 		ldrb	r3, [sp, #3]	@ zero_extendqisi2
 1454 0706 059A     		ldr	r2, [sp, #20]
 1455 0708 5B01     		lsls	r3, r3, #5
 1456 070a 1344     		add	r3, r3, r2
 1457 070c 03F60833 		addw	r3, r3, #2824
ARM GAS  /tmp/ccD2hNvo.s 			page 27


 1458 0710 1B68     		ldr	r3, [r3]
 1459 0712 0493     		str	r3, [sp, #16]
 1460              		.loc 7 411 0
 1461 0714 9DF80330 		ldrb	r3, [sp, #3]	@ zero_extendqisi2
 1462 0718 059A     		ldr	r2, [sp, #20]
 1463 071a 5B01     		lsls	r3, r3, #5
 1464 071c 1344     		add	r3, r3, r2
 1465 071e 03F60833 		addw	r3, r3, #2824
 1466 0722 049A     		ldr	r2, [sp, #16]
 1467 0724 1A60     		str	r2, [r3]
 1468              		.loc 7 413 0
 1469 0726 049B     		ldr	r3, [sp, #16]
 1470 0728 03F00803 		and	r3, r3, #8
 1471 072c 002B     		cmp	r3, #0
 1472 072e 13D0     		beq	.L62
 1473              		.loc 7 413 0 is_stmt 0 discriminator 1
 1474 0730 059B     		ldr	r3, [sp, #20]
 1475 0732 D3F81438 		ldr	r3, [r3, #2068]
 1476 0736 03F00803 		and	r3, r3, #8
 1477 073a 002B     		cmp	r3, #0
 1478 073c 0CD0     		beq	.L62
 1479              		.loc 7 416 0 is_stmt 1
 1480 073e 9DF80330 		ldrb	r3, [sp, #3]	@ zero_extendqisi2
 1481 0742 019A     		ldr	r2, [sp, #4]
 1482 0744 0233     		adds	r3, r3, #2
 1483 0746 9B00     		lsls	r3, r3, #2
 1484 0748 1344     		add	r3, r3, r2
 1485 074a 5B68     		ldr	r3, [r3, #4]
 1486 074c 5B68     		ldr	r3, [r3, #4]
 1487 074e 9DF80320 		ldrb	r2, [sp, #3]	@ zero_extendqisi2
 1488 0752 0198     		ldr	r0, [sp, #4]
 1489 0754 1146     		mov	r1, r2
 1490 0756 9847     		blx	r3
 1491              	.L62:
 1492              		.loc 7 418 0
 1493 0758 049B     		ldr	r3, [sp, #16]
 1494 075a 03F00103 		and	r3, r3, #1
 1495 075e 002B     		cmp	r3, #0
 1496 0760 6CD0     		beq	.L61
 1497              		.loc 7 418 0 is_stmt 0 discriminator 1
 1498 0762 059B     		ldr	r3, [sp, #20]
 1499 0764 D3F81438 		ldr	r3, [r3, #2068]
 1500 0768 03F00103 		and	r3, r3, #1
 1501 076c 002B     		cmp	r3, #0
 1502 076e 65D0     		beq	.L61
 1503              	.LBB12:
 1504              		.loc 7 423 0 is_stmt 1
 1505 0770 9DF80330 		ldrb	r3, [sp, #3]	@ zero_extendqisi2
 1506 0774 002B     		cmp	r3, #0
 1507 0776 05D1     		bne	.L64
 1508              		.loc 7 423 0 is_stmt 0 discriminator 1
 1509 0778 019B     		ldr	r3, [sp, #4]
 1510 077a 93F84C30 		ldrb	r3, [r3, #76]	@ zero_extendqisi2
 1511 077e 002B     		cmp	r3, #0
 1512 0780 00D1     		bne	.L64
 1513              		.loc 7 424 0 is_stmt 1
 1514 0782 5BE0     		b	.L61
ARM GAS  /tmp/ccD2hNvo.s 			page 28


 1515              	.L64:
 1516              		.loc 7 427 0
 1517 0784 9DF80330 		ldrb	r3, [sp, #3]	@ zero_extendqisi2
 1518 0788 019A     		ldr	r2, [sp, #4]
 1519 078a 0233     		adds	r3, r3, #2
 1520 078c 9B00     		lsls	r3, r3, #2
 1521 078e 1344     		add	r3, r3, r2
 1522 0790 5B68     		ldr	r3, [r3, #4]
 1523 0792 9B69     		ldr	r3, [r3, #24]
 1524 0794 0393     		str	r3, [sp, #12]
 1525              		.loc 7 430 0
 1526 0796 039B     		ldr	r3, [sp, #12]
 1527 0798 5A68     		ldr	r2, [r3, #4]
 1528 079a 9DF80330 		ldrb	r3, [sp, #3]	@ zero_extendqisi2
 1529 079e 0199     		ldr	r1, [sp, #4]
 1530 07a0 0233     		adds	r3, r3, #2
 1531 07a2 9B00     		lsls	r3, r3, #2
 1532 07a4 0B44     		add	r3, r3, r1
 1533 07a6 5B68     		ldr	r3, [r3, #4]
 1534 07a8 5B8A     		ldrh	r3, [r3, #18]
 1535 07aa B2FBF3F1 		udiv	r1, r2, r3
 1536 07ae 03FB01F3 		mul	r3, r3, r1
 1537 07b2 D31A     		subs	r3, r2, r3
 1538 07b4 002B     		cmp	r3, #0
 1539 07b6 1AD1     		bne	.L65
 1540              		.loc 7 431 0 discriminator 1
 1541 07b8 039B     		ldr	r3, [sp, #12]
 1542 07ba 1A68     		ldr	r2, [r3]
 1543 07bc 039B     		ldr	r3, [sp, #12]
 1544 07be DB68     		ldr	r3, [r3, #12]
 1545              		.loc 7 430 0 discriminator 1
 1546 07c0 9A42     		cmp	r2, r3
 1547 07c2 14D2     		bcs	.L65
 1548              		.loc 7 435 0
 1549 07c4 039B     		ldr	r3, [sp, #12]
 1550 07c6 DA68     		ldr	r2, [r3, #12]
 1551 07c8 039B     		ldr	r3, [sp, #12]
 1552 07ca 1B68     		ldr	r3, [r3]
 1553 07cc D21A     		subs	r2, r2, r3
 1554 07ce 039B     		ldr	r3, [sp, #12]
 1555 07d0 1A60     		str	r2, [r3]
 1556              		.loc 7 436 0
 1557 07d2 039B     		ldr	r3, [sp, #12]
 1558 07d4 0022     		movs	r2, #0
 1559 07d6 5A60     		str	r2, [r3, #4]
 1560              		.loc 7 437 0
 1561 07d8 FFF782FC 		bl	osalSysLockFromISR
 1562              		.loc 7 438 0
 1563 07dc 9DF80330 		ldrb	r3, [sp, #3]	@ zero_extendqisi2
 1564 07e0 0198     		ldr	r0, [sp, #4]
 1565 07e2 1946     		mov	r1, r3
 1566 07e4 FFF7FEFF 		bl	usb_lld_start_out
 1567              		.loc 7 439 0
 1568 07e8 FFF782FC 		bl	osalSysUnlockFromISR
 1569 07ec 26E0     		b	.L61
 1570              	.L65:
 1571              		.loc 7 443 0
ARM GAS  /tmp/ccD2hNvo.s 			page 29


 1572 07ee 019B     		ldr	r3, [sp, #4]
 1573 07f0 5B89     		ldrh	r3, [r3, #10]
 1574 07f2 9AB2     		uxth	r2, r3
 1575 07f4 9DF80330 		ldrb	r3, [sp, #3]	@ zero_extendqisi2
 1576 07f8 0121     		movs	r1, #1
 1577 07fa 01FA03F3 		lsl	r3, r1, r3
 1578 07fe 9BB2     		uxth	r3, r3
 1579 0800 DB43     		mvns	r3, r3
 1580 0802 9BB2     		uxth	r3, r3
 1581 0804 1340     		ands	r3, r3, r2
 1582 0806 9BB2     		uxth	r3, r3
 1583 0808 9AB2     		uxth	r2, r3
 1584 080a 019B     		ldr	r3, [sp, #4]
 1585 080c 5A81     		strh	r2, [r3, #10]	@ movhi
 1586 080e 9DF80330 		ldrb	r3, [sp, #3]	@ zero_extendqisi2
 1587 0812 019A     		ldr	r2, [sp, #4]
 1588 0814 0233     		adds	r3, r3, #2
 1589 0816 9B00     		lsls	r3, r3, #2
 1590 0818 1344     		add	r3, r3, r2
 1591 081a 5B68     		ldr	r3, [r3, #4]
 1592 081c DB68     		ldr	r3, [r3, #12]
 1593 081e 002B     		cmp	r3, #0
 1594 0820 0CD0     		beq	.L61
 1595              		.loc 7 443 0 is_stmt 0 discriminator 1
 1596 0822 9DF80330 		ldrb	r3, [sp, #3]	@ zero_extendqisi2
 1597 0826 019A     		ldr	r2, [sp, #4]
 1598 0828 0233     		adds	r3, r3, #2
 1599 082a 9B00     		lsls	r3, r3, #2
 1600 082c 1344     		add	r3, r3, r2
 1601 082e 5B68     		ldr	r3, [r3, #4]
 1602 0830 DB68     		ldr	r3, [r3, #12]
 1603 0832 9DF80320 		ldrb	r2, [sp, #3]	@ zero_extendqisi2
 1604 0836 0198     		ldr	r0, [sp, #4]
 1605 0838 1146     		mov	r1, r2
 1606 083a 9847     		blx	r3
 1607              	.L61:
 1608              	.LBE12:
 1609              		.loc 7 446 0 is_stmt 1
 1610 083c 07B0     		add	sp, sp, #28
 1611              		@ sp needed
 1612 083e 5DF804FB 		ldr	pc, [sp], #4
 1613              		.cfi_endproc
 1614              	.LFE278:
 1615              		.size	otg_epout_handler, .-otg_epout_handler
 1616 0842 00BF     		.align	2
 1617 0844 AFF30080 		.p2align 4,,15
 1617      AFF30080 
 1617      AFF30080 
 1618              		.thumb
 1619              		.thumb_func
 1620              		.type	otg_isoc_in_failed_handler, %function
 1621              	otg_isoc_in_failed_handler:
 1622              	.LFB279:
 1623              		.loc 7 455 0
 1624              		.cfi_startproc
 1625              		@ args = 0, pretend = 0, frame = 16
 1626              		@ frame_needed = 0, uses_anonymous_args = 0
ARM GAS  /tmp/ccD2hNvo.s 			page 30


 1627 0850 00B5     		push	{lr}
 1628              		.cfi_def_cfa_offset 4
 1629              		.cfi_offset 14, -4
 1630 0852 85B0     		sub	sp, sp, #20
 1631              		.cfi_def_cfa_offset 24
 1632 0854 0190     		str	r0, [sp, #4]
 1633              		.loc 7 457 0
 1634 0856 019B     		ldr	r3, [sp, #4]
 1635 0858 DB6E     		ldr	r3, [r3, #108]
 1636 085a 0293     		str	r3, [sp, #8]
 1637              		.loc 7 459 0
 1638 085c 0023     		movs	r3, #0
 1639 085e 8DF80F30 		strb	r3, [sp, #15]
 1640 0862 81E0     		b	.L67
 1641              	.L71:
 1642              		.loc 7 460 0
 1643 0864 9DF80F30 		ldrb	r3, [sp, #15]	@ zero_extendqisi2
 1644 0868 029A     		ldr	r2, [sp, #8]
 1645 086a 4833     		adds	r3, r3, #72
 1646 086c 5B01     		lsls	r3, r3, #5
 1647 086e 1344     		add	r3, r3, r2
 1648 0870 1B68     		ldr	r3, [r3]
 1649 0872 03F44023 		and	r3, r3, #786432
 1650 0876 B3F5802F 		cmp	r3, #262144
 1651 087a 70D1     		bne	.L68
 1652              		.loc 7 461 0 discriminator 1
 1653 087c 9DF80F30 		ldrb	r3, [sp, #15]	@ zero_extendqisi2
 1654 0880 029A     		ldr	r2, [sp, #8]
 1655 0882 4833     		adds	r3, r3, #72
 1656 0884 5B01     		lsls	r3, r3, #5
 1657 0886 1344     		add	r3, r3, r2
 1658 0888 1B68     		ldr	r3, [r3]
 1659              		.loc 7 460 0 discriminator 1
 1660 088a 002B     		cmp	r3, #0
 1661 088c 67DA     		bge	.L68
 1662              		.loc 7 464 0
 1663 088e 9DF80F30 		ldrb	r3, [sp, #15]	@ zero_extendqisi2
 1664 0892 9DF80F20 		ldrb	r2, [sp, #15]	@ zero_extendqisi2
 1665 0896 0299     		ldr	r1, [sp, #8]
 1666 0898 4832     		adds	r2, r2, #72
 1667 089a 5201     		lsls	r2, r2, #5
 1668 089c 0A44     		add	r2, r2, r1
 1669 089e 1268     		ldr	r2, [r2]
 1670 08a0 42F09042 		orr	r2, r2, #1207959552
 1671 08a4 0299     		ldr	r1, [sp, #8]
 1672 08a6 4833     		adds	r3, r3, #72
 1673 08a8 5B01     		lsls	r3, r3, #5
 1674 08aa 0B44     		add	r3, r3, r1
 1675 08ac 1A60     		str	r2, [r3]
 1676              		.loc 7 465 0
 1677 08ae 00BF     		nop
 1678              	.L69:
 1679              		.loc 7 465 0 is_stmt 0 discriminator 1
 1680 08b0 9DF80F30 		ldrb	r3, [sp, #15]	@ zero_extendqisi2
 1681 08b4 029A     		ldr	r2, [sp, #8]
 1682 08b6 4833     		adds	r3, r3, #72
 1683 08b8 5B01     		lsls	r3, r3, #5
ARM GAS  /tmp/ccD2hNvo.s 			page 31


 1684 08ba 1344     		add	r3, r3, r2
 1685 08bc 1B68     		ldr	r3, [r3]
 1686 08be 002B     		cmp	r3, #0
 1687 08c0 F6DB     		blt	.L69
 1688              		.loc 7 469 0 is_stmt 1
 1689 08c2 9DF80F30 		ldrb	r3, [sp, #15]	@ zero_extendqisi2
 1690 08c6 0198     		ldr	r0, [sp, #4]
 1691 08c8 1946     		mov	r1, r3
 1692 08ca FFF7C9FC 		bl	otg_txfifo_flush
 1693              		.loc 7 472 0
 1694 08ce 019B     		ldr	r3, [sp, #4]
 1695 08d0 1B89     		ldrh	r3, [r3, #8]
 1696 08d2 9AB2     		uxth	r2, r3
 1697 08d4 9DF80F30 		ldrb	r3, [sp, #15]	@ zero_extendqisi2
 1698 08d8 0121     		movs	r1, #1
 1699 08da 01FA03F3 		lsl	r3, r1, r3
 1700 08de 9BB2     		uxth	r3, r3
 1701 08e0 DB43     		mvns	r3, r3
 1702 08e2 9BB2     		uxth	r3, r3
 1703 08e4 1340     		ands	r3, r3, r2
 1704 08e6 9BB2     		uxth	r3, r3
 1705 08e8 9AB2     		uxth	r2, r3
 1706 08ea 019B     		ldr	r3, [sp, #4]
 1707 08ec 1A81     		strh	r2, [r3, #8]	@ movhi
 1708 08ee 9DF80F30 		ldrb	r3, [sp, #15]	@ zero_extendqisi2
 1709 08f2 019A     		ldr	r2, [sp, #4]
 1710 08f4 0233     		adds	r3, r3, #2
 1711 08f6 9B00     		lsls	r3, r3, #2
 1712 08f8 1344     		add	r3, r3, r2
 1713 08fa 5B68     		ldr	r3, [r3, #4]
 1714 08fc 9B68     		ldr	r3, [r3, #8]
 1715 08fe 002B     		cmp	r3, #0
 1716 0900 0CD0     		beq	.L70
 1717              		.loc 7 472 0 is_stmt 0 discriminator 1
 1718 0902 9DF80F30 		ldrb	r3, [sp, #15]	@ zero_extendqisi2
 1719 0906 019A     		ldr	r2, [sp, #4]
 1720 0908 0233     		adds	r3, r3, #2
 1721 090a 9B00     		lsls	r3, r3, #2
 1722 090c 1344     		add	r3, r3, r2
 1723 090e 5B68     		ldr	r3, [r3, #4]
 1724 0910 9B68     		ldr	r3, [r3, #8]
 1725 0912 9DF80F20 		ldrb	r2, [sp, #15]	@ zero_extendqisi2
 1726 0916 0198     		ldr	r0, [sp, #4]
 1727 0918 1146     		mov	r1, r2
 1728 091a 9847     		blx	r3
 1729              	.L70:
 1730              		.loc 7 475 0 is_stmt 1
 1731 091c FFF7E0FB 		bl	osalSysLockFromISR
 1732              		.loc 7 476 0
 1733 0920 029B     		ldr	r3, [sp, #8]
 1734 0922 D3F83428 		ldr	r2, [r3, #2100]
 1735 0926 9DF80F30 		ldrb	r3, [sp, #15]	@ zero_extendqisi2
 1736 092a 0121     		movs	r1, #1
 1737 092c 01FA03F3 		lsl	r3, r1, r3
 1738 0930 DB43     		mvns	r3, r3
 1739 0932 1A40     		ands	r2, r2, r3
 1740 0934 029B     		ldr	r3, [sp, #8]
ARM GAS  /tmp/ccD2hNvo.s 			page 32


 1741 0936 C3F83428 		str	r2, [r3, #2100]
 1742              		.loc 7 477 0
 1743 093a 019B     		ldr	r3, [sp, #4]
 1744 093c 9A6F     		ldr	r2, [r3, #120]
 1745 093e 9DF80F30 		ldrb	r3, [sp, #15]	@ zero_extendqisi2
 1746 0942 0121     		movs	r1, #1
 1747 0944 01FA03F3 		lsl	r3, r1, r3
 1748 0948 1A43     		orrs	r2, r2, r3
 1749 094a 019B     		ldr	r3, [sp, #4]
 1750 094c 9A67     		str	r2, [r3, #120]
 1751              		.loc 7 478 0
 1752 094e 019B     		ldr	r3, [sp, #4]
 1753 0950 7C33     		adds	r3, r3, #124
 1754 0952 1846     		mov	r0, r3
 1755 0954 0021     		movs	r1, #0
 1756 0956 FFF7F3FB 		bl	osalThreadResumeI
 1757              		.loc 7 479 0
 1758 095a FFF7C9FB 		bl	osalSysUnlockFromISR
 1759              	.L68:
 1760              		.loc 7 459 0
 1761 095e 9DF80F30 		ldrb	r3, [sp, #15]	@ zero_extendqisi2
 1762 0962 0133     		adds	r3, r3, #1
 1763 0964 8DF80F30 		strb	r3, [sp, #15]
 1764              	.L67:
 1765              		.loc 7 459 0 is_stmt 0 discriminator 1
 1766 0968 9DF80F20 		ldrb	r2, [sp, #15]	@ zero_extendqisi2
 1767 096c 019B     		ldr	r3, [sp, #4]
 1768 096e 1B6F     		ldr	r3, [r3, #112]
 1769 0970 9B68     		ldr	r3, [r3, #8]
 1770 0972 9A42     		cmp	r2, r3
 1771 0974 7FF676AF 		bls	.L71
 1772              		.loc 7 482 0 is_stmt 1
 1773 0978 05B0     		add	sp, sp, #20
 1774              		@ sp needed
 1775 097a 5DF804FB 		ldr	pc, [sp], #4
 1776              		.cfi_endproc
 1777              	.LFE279:
 1778              		.size	otg_isoc_in_failed_handler, .-otg_isoc_in_failed_handler
 1779 097e 00BF     		.align	2
 1780              		.p2align 4,,15
 1781              		.thumb
 1782              		.thumb_func
 1783              		.type	otg_isoc_out_failed_handler, %function
 1784              	otg_isoc_out_failed_handler:
 1785              	.LFB280:
 1786              		.loc 7 491 0
 1787              		.cfi_startproc
 1788              		@ args = 0, pretend = 0, frame = 16
 1789              		@ frame_needed = 0, uses_anonymous_args = 0
 1790 0980 00B5     		push	{lr}
 1791              		.cfi_def_cfa_offset 4
 1792              		.cfi_offset 14, -4
 1793 0982 85B0     		sub	sp, sp, #20
 1794              		.cfi_def_cfa_offset 24
 1795 0984 0190     		str	r0, [sp, #4]
 1796              		.loc 7 493 0
 1797 0986 019B     		ldr	r3, [sp, #4]
ARM GAS  /tmp/ccD2hNvo.s 			page 33


 1798 0988 DB6E     		ldr	r3, [r3, #108]
 1799 098a 0293     		str	r3, [sp, #8]
 1800              		.loc 7 495 0
 1801 098c 0023     		movs	r3, #0
 1802 098e 8DF80F30 		strb	r3, [sp, #15]
 1803 0992 40E0     		b	.L73
 1804              	.L75:
 1805              		.loc 7 496 0
 1806 0994 9DF80F30 		ldrb	r3, [sp, #15]	@ zero_extendqisi2
 1807 0998 029A     		ldr	r2, [sp, #8]
 1808 099a 5833     		adds	r3, r3, #88
 1809 099c 5B01     		lsls	r3, r3, #5
 1810 099e 1344     		add	r3, r3, r2
 1811 09a0 1B68     		ldr	r3, [r3]
 1812 09a2 03F44023 		and	r3, r3, #786432
 1813 09a6 B3F5802F 		cmp	r3, #262144
 1814 09aa 2FD1     		bne	.L74
 1815              		.loc 7 497 0 discriminator 1
 1816 09ac 9DF80F30 		ldrb	r3, [sp, #15]	@ zero_extendqisi2
 1817 09b0 029A     		ldr	r2, [sp, #8]
 1818 09b2 5833     		adds	r3, r3, #88
 1819 09b4 5B01     		lsls	r3, r3, #5
 1820 09b6 1344     		add	r3, r3, r2
 1821 09b8 1B68     		ldr	r3, [r3]
 1822              		.loc 7 496 0 discriminator 1
 1823 09ba 002B     		cmp	r3, #0
 1824 09bc 26DA     		bge	.L74
 1825              		.loc 7 505 0
 1826 09be 019B     		ldr	r3, [sp, #4]
 1827 09c0 5B89     		ldrh	r3, [r3, #10]
 1828 09c2 9AB2     		uxth	r2, r3
 1829 09c4 9DF80F30 		ldrb	r3, [sp, #15]	@ zero_extendqisi2
 1830 09c8 0121     		movs	r1, #1
 1831 09ca 01FA03F3 		lsl	r3, r1, r3
 1832 09ce 9BB2     		uxth	r3, r3
 1833 09d0 DB43     		mvns	r3, r3
 1834 09d2 9BB2     		uxth	r3, r3
 1835 09d4 1340     		ands	r3, r3, r2
 1836 09d6 9BB2     		uxth	r3, r3
 1837 09d8 9AB2     		uxth	r2, r3
 1838 09da 019B     		ldr	r3, [sp, #4]
 1839 09dc 5A81     		strh	r2, [r3, #10]	@ movhi
 1840 09de 9DF80F30 		ldrb	r3, [sp, #15]	@ zero_extendqisi2
 1841 09e2 019A     		ldr	r2, [sp, #4]
 1842 09e4 0233     		adds	r3, r3, #2
 1843 09e6 9B00     		lsls	r3, r3, #2
 1844 09e8 1344     		add	r3, r3, r2
 1845 09ea 5B68     		ldr	r3, [r3, #4]
 1846 09ec DB68     		ldr	r3, [r3, #12]
 1847 09ee 002B     		cmp	r3, #0
 1848 09f0 0CD0     		beq	.L74
 1849              		.loc 7 505 0 is_stmt 0 discriminator 1
 1850 09f2 9DF80F30 		ldrb	r3, [sp, #15]	@ zero_extendqisi2
 1851 09f6 019A     		ldr	r2, [sp, #4]
 1852 09f8 0233     		adds	r3, r3, #2
 1853 09fa 9B00     		lsls	r3, r3, #2
 1854 09fc 1344     		add	r3, r3, r2
ARM GAS  /tmp/ccD2hNvo.s 			page 34


 1855 09fe 5B68     		ldr	r3, [r3, #4]
 1856 0a00 DB68     		ldr	r3, [r3, #12]
 1857 0a02 9DF80F20 		ldrb	r2, [sp, #15]	@ zero_extendqisi2
 1858 0a06 0198     		ldr	r0, [sp, #4]
 1859 0a08 1146     		mov	r1, r2
 1860 0a0a 9847     		blx	r3
 1861              	.L74:
 1862              		.loc 7 495 0 is_stmt 1
 1863 0a0c 9DF80F30 		ldrb	r3, [sp, #15]	@ zero_extendqisi2
 1864 0a10 0133     		adds	r3, r3, #1
 1865 0a12 8DF80F30 		strb	r3, [sp, #15]
 1866              	.L73:
 1867              		.loc 7 495 0 is_stmt 0 discriminator 1
 1868 0a16 9DF80F20 		ldrb	r2, [sp, #15]	@ zero_extendqisi2
 1869 0a1a 019B     		ldr	r3, [sp, #4]
 1870 0a1c 1B6F     		ldr	r3, [r3, #112]
 1871 0a1e 9B68     		ldr	r3, [r3, #8]
 1872 0a20 9A42     		cmp	r2, r3
 1873 0a22 B7D9     		bls	.L75
 1874              		.loc 7 508 0 is_stmt 1
 1875 0a24 05B0     		add	sp, sp, #20
 1876              		@ sp needed
 1877 0a26 5DF804FB 		ldr	pc, [sp], #4
 1878              		.cfi_endproc
 1879              	.LFE280:
 1880              		.size	otg_isoc_out_failed_handler, .-otg_isoc_out_failed_handler
 1881 0a2a 00BF     		.align	2
 1882 0a2c AFF30080 		.p2align 4,,15
 1883              		.thumb
 1884              		.thumb_func
 1885              		.type	usb_lld_serve_interrupt, %function
 1886              	usb_lld_serve_interrupt:
 1887              	.LFB281:
 1888              		.loc 7 517 0
 1889              		.cfi_startproc
 1890              		@ args = 0, pretend = 0, frame = 24
 1891              		@ frame_needed = 0, uses_anonymous_args = 0
 1892 0a30 00B5     		push	{lr}
 1893              		.cfi_def_cfa_offset 4
 1894              		.cfi_offset 14, -4
 1895 0a32 87B0     		sub	sp, sp, #28
 1896              		.cfi_def_cfa_offset 32
 1897 0a34 0190     		str	r0, [sp, #4]
 1898              		.loc 7 518 0
 1899 0a36 019B     		ldr	r3, [sp, #4]
 1900 0a38 DB6E     		ldr	r3, [r3, #108]
 1901 0a3a 0593     		str	r3, [sp, #20]
 1902              		.loc 7 521 0
 1903 0a3c 059B     		ldr	r3, [sp, #20]
 1904 0a3e 5B69     		ldr	r3, [r3, #20]
 1905 0a40 0493     		str	r3, [sp, #16]
 1906              		.loc 7 522 0
 1907 0a42 059B     		ldr	r3, [sp, #20]
 1908 0a44 9B69     		ldr	r3, [r3, #24]
 1909 0a46 049A     		ldr	r2, [sp, #16]
 1910 0a48 1340     		ands	r3, r3, r2
 1911 0a4a 0493     		str	r3, [sp, #16]
ARM GAS  /tmp/ccD2hNvo.s 			page 35


 1912              		.loc 7 523 0
 1913 0a4c 059B     		ldr	r3, [sp, #20]
 1914 0a4e 049A     		ldr	r2, [sp, #16]
 1915 0a50 5A61     		str	r2, [r3, #20]
 1916              		.loc 7 526 0
 1917 0a52 049B     		ldr	r3, [sp, #16]
 1918 0a54 03F48053 		and	r3, r3, #4096
 1919 0a58 002B     		cmp	r3, #0
 1920 0a5a 06D0     		beq	.L77
 1921              		.loc 7 529 0
 1922 0a5c 019B     		ldr	r3, [sp, #4]
 1923 0a5e 0022     		movs	r2, #0
 1924 0a60 9A67     		str	r2, [r3, #120]
 1925              		.loc 7 532 0
 1926 0a62 0198     		ldr	r0, [sp, #4]
 1927 0a64 FFF7FEFF 		bl	_usb_reset
 1928              		.loc 7 535 0
 1929 0a68 CEE0     		b	.L76
 1930              	.L77:
 1931              		.loc 7 539 0
 1932 0a6a 049B     		ldr	r3, [sp, #16]
 1933 0a6c 002B     		cmp	r3, #0
 1934 0a6e 19DA     		bge	.L79
 1935              		.loc 7 542 0
 1936 0a70 059B     		ldr	r3, [sp, #20]
 1937 0a72 D3F8003E 		ldr	r3, [r3, #3584]
 1938 0a76 03F00303 		and	r3, r3, #3
 1939 0a7a 002B     		cmp	r3, #0
 1940 0a7c 07D0     		beq	.L80
 1941              		.loc 7 544 0
 1942 0a7e 059B     		ldr	r3, [sp, #20]
 1943 0a80 D3F8003E 		ldr	r3, [r3, #3584]
 1944 0a84 23F00302 		bic	r2, r3, #3
 1945 0a88 059B     		ldr	r3, [sp, #20]
 1946 0a8a C3F8002E 		str	r2, [r3, #3584]
 1947              	.L80:
 1948              		.loc 7 548 0
 1949 0a8e 059B     		ldr	r3, [sp, #20]
 1950 0a90 D3F80438 		ldr	r3, [r3, #2052]
 1951 0a94 43F00102 		orr	r2, r3, #1
 1952 0a98 059B     		ldr	r3, [sp, #20]
 1953 0a9a C3F80428 		str	r2, [r3, #2052]
 1954              		.loc 7 550 0
 1955 0a9e 0198     		ldr	r0, [sp, #4]
 1956 0aa0 FFF7FEFF 		bl	_usb_wakeup
 1957              	.L79:
 1958              		.loc 7 554 0
 1959 0aa4 049B     		ldr	r3, [sp, #16]
 1960 0aa6 03F40063 		and	r3, r3, #2048
 1961 0aaa 002B     		cmp	r3, #0
 1962 0aac 05D0     		beq	.L81
 1963              		.loc 7 557 0
 1964 0aae 019B     		ldr	r3, [sp, #4]
 1965 0ab0 0022     		movs	r2, #0
 1966 0ab2 9A67     		str	r2, [r3, #120]
 1967              		.loc 7 560 0
 1968 0ab4 0198     		ldr	r0, [sp, #4]
ARM GAS  /tmp/ccD2hNvo.s 			page 36


 1969 0ab6 FFF7FEFF 		bl	_usb_suspend
 1970              	.L81:
 1971              		.loc 7 564 0
 1972 0aba 049B     		ldr	r3, [sp, #16]
 1973 0abc 03F40053 		and	r3, r3, #8192
 1974 0ac0 002B     		cmp	r3, #0
 1975 0ac2 17D0     		beq	.L82
 1976              		.loc 7 566 0
 1977 0ac4 059B     		ldr	r3, [sp, #20]
 1978 0ac6 D3F80838 		ldr	r3, [r3, #2056]
 1979 0aca 03F00603 		and	r3, r3, #6
 1980 0ace 002B     		cmp	r3, #0
 1981 0ad0 08D1     		bne	.L83
 1982              		.loc 7 567 0
 1983 0ad2 059B     		ldr	r3, [sp, #20]
 1984 0ad4 DB68     		ldr	r3, [r3, #12]
 1985 0ad6 23F47053 		bic	r3, r3, #15360
 1986 0ada 43F41052 		orr	r2, r3, #9216
 1987 0ade 059B     		ldr	r3, [sp, #20]
 1988 0ae0 DA60     		str	r2, [r3, #12]
 1989 0ae2 07E0     		b	.L82
 1990              	.L83:
 1991              		.loc 7 571 0
 1992 0ae4 059B     		ldr	r3, [sp, #20]
 1993 0ae6 DB68     		ldr	r3, [r3, #12]
 1994 0ae8 23F47053 		bic	r3, r3, #15360
 1995 0aec 43F4A052 		orr	r2, r3, #5120
 1996 0af0 059B     		ldr	r3, [sp, #20]
 1997 0af2 DA60     		str	r2, [r3, #12]
 1998              	.L82:
 1999              		.loc 7 577 0
 2000 0af4 049B     		ldr	r3, [sp, #16]
 2001 0af6 03F00803 		and	r3, r3, #8
 2002 0afa 002B     		cmp	r3, #0
 2003 0afc 09D0     		beq	.L84
 2004              		.loc 7 578 0
 2005 0afe 019B     		ldr	r3, [sp, #4]
 2006 0b00 5B68     		ldr	r3, [r3, #4]
 2007 0b02 DB68     		ldr	r3, [r3, #12]
 2008 0b04 002B     		cmp	r3, #0
 2009 0b06 04D0     		beq	.L84
 2010              		.loc 7 578 0 is_stmt 0 discriminator 1
 2011 0b08 019B     		ldr	r3, [sp, #4]
 2012 0b0a 5B68     		ldr	r3, [r3, #4]
 2013 0b0c DB68     		ldr	r3, [r3, #12]
 2014 0b0e 0198     		ldr	r0, [sp, #4]
 2015 0b10 9847     		blx	r3
 2016              	.L84:
 2017              		.loc 7 582 0 is_stmt 1
 2018 0b12 049B     		ldr	r3, [sp, #16]
 2019 0b14 03F48013 		and	r3, r3, #1048576
 2020 0b18 002B     		cmp	r3, #0
 2021 0b1a 02D0     		beq	.L85
 2022              		.loc 7 583 0
 2023 0b1c 0198     		ldr	r0, [sp, #4]
 2024 0b1e FFF797FE 		bl	otg_isoc_in_failed_handler
 2025              	.L85:
ARM GAS  /tmp/ccD2hNvo.s 			page 37


 2026              		.loc 7 587 0
 2027 0b22 049B     		ldr	r3, [sp, #16]
 2028 0b24 03F40013 		and	r3, r3, #2097152
 2029 0b28 002B     		cmp	r3, #0
 2030 0b2a 02D0     		beq	.L86
 2031              		.loc 7 588 0
 2032 0b2c 0198     		ldr	r0, [sp, #4]
 2033 0b2e FFF727FF 		bl	otg_isoc_out_failed_handler
 2034              	.L86:
 2035              		.loc 7 592 0
 2036 0b32 049B     		ldr	r3, [sp, #16]
 2037 0b34 03F01003 		and	r3, r3, #16
 2038 0b38 002B     		cmp	r3, #0
 2039 0b3a 0FD0     		beq	.L87
 2040              		.loc 7 595 0
 2041 0b3c FFF7D0FA 		bl	osalSysLockFromISR
 2042              		.loc 7 596 0
 2043 0b40 059B     		ldr	r3, [sp, #20]
 2044 0b42 9B69     		ldr	r3, [r3, #24]
 2045 0b44 23F01002 		bic	r2, r3, #16
 2046 0b48 059B     		ldr	r3, [sp, #20]
 2047 0b4a 9A61     		str	r2, [r3, #24]
 2048              		.loc 7 597 0
 2049 0b4c 019B     		ldr	r3, [sp, #4]
 2050 0b4e 7C33     		adds	r3, r3, #124
 2051 0b50 1846     		mov	r0, r3
 2052 0b52 0021     		movs	r1, #0
 2053 0b54 FFF7F4FA 		bl	osalThreadResumeI
 2054              		.loc 7 598 0
 2055 0b58 FFF7CAFA 		bl	osalSysUnlockFromISR
 2056              	.L87:
 2057              		.loc 7 602 0
 2058 0b5c 059B     		ldr	r3, [sp, #20]
 2059 0b5e D3F81838 		ldr	r3, [r3, #2072]
 2060 0b62 0393     		str	r3, [sp, #12]
 2061              		.loc 7 603 0
 2062 0b64 049B     		ldr	r3, [sp, #16]
 2063 0b66 03F48023 		and	r3, r3, #262144
 2064 0b6a 002B     		cmp	r3, #0
 2065 0b6c 23D0     		beq	.L88
 2066              		.loc 7 604 0
 2067 0b6e 039B     		ldr	r3, [sp, #12]
 2068 0b70 03F00103 		and	r3, r3, #1
 2069 0b74 002B     		cmp	r3, #0
 2070 0b76 03D0     		beq	.L89
 2071              		.loc 7 605 0
 2072 0b78 0198     		ldr	r0, [sp, #4]
 2073 0b7a 0021     		movs	r1, #0
 2074 0b7c FFF710FD 		bl	otg_epin_handler
 2075              	.L89:
 2076              		.loc 7 606 0
 2077 0b80 039B     		ldr	r3, [sp, #12]
 2078 0b82 03F00203 		and	r3, r3, #2
 2079 0b86 002B     		cmp	r3, #0
 2080 0b88 03D0     		beq	.L90
 2081              		.loc 7 607 0
 2082 0b8a 0198     		ldr	r0, [sp, #4]
ARM GAS  /tmp/ccD2hNvo.s 			page 38


 2083 0b8c 0121     		movs	r1, #1
 2084 0b8e FFF707FD 		bl	otg_epin_handler
 2085              	.L90:
 2086              		.loc 7 608 0
 2087 0b92 039B     		ldr	r3, [sp, #12]
 2088 0b94 03F00403 		and	r3, r3, #4
 2089 0b98 002B     		cmp	r3, #0
 2090 0b9a 03D0     		beq	.L91
 2091              		.loc 7 609 0
 2092 0b9c 0198     		ldr	r0, [sp, #4]
 2093 0b9e 0221     		movs	r1, #2
 2094 0ba0 FFF7FEFC 		bl	otg_epin_handler
 2095              	.L91:
 2096              		.loc 7 610 0
 2097 0ba4 039B     		ldr	r3, [sp, #12]
 2098 0ba6 03F00803 		and	r3, r3, #8
 2099 0baa 002B     		cmp	r3, #0
 2100 0bac 03D0     		beq	.L88
 2101              		.loc 7 611 0
 2102 0bae 0198     		ldr	r0, [sp, #4]
 2103 0bb0 0321     		movs	r1, #3
 2104 0bb2 FFF7F5FC 		bl	otg_epin_handler
 2105              	.L88:
 2106              		.loc 7 619 0
 2107 0bb6 049B     		ldr	r3, [sp, #16]
 2108 0bb8 03F40023 		and	r3, r3, #524288
 2109 0bbc 002B     		cmp	r3, #0
 2110 0bbe 23D0     		beq	.L76
 2111              		.loc 7 620 0
 2112 0bc0 039B     		ldr	r3, [sp, #12]
 2113 0bc2 03F48033 		and	r3, r3, #65536
 2114 0bc6 002B     		cmp	r3, #0
 2115 0bc8 03D0     		beq	.L92
 2116              		.loc 7 621 0
 2117 0bca 0198     		ldr	r0, [sp, #4]
 2118 0bcc 0021     		movs	r1, #0
 2119 0bce FFF78FFD 		bl	otg_epout_handler
 2120              	.L92:
 2121              		.loc 7 622 0
 2122 0bd2 039B     		ldr	r3, [sp, #12]
 2123 0bd4 03F40033 		and	r3, r3, #131072
 2124 0bd8 002B     		cmp	r3, #0
 2125 0bda 03D0     		beq	.L93
 2126              		.loc 7 623 0
 2127 0bdc 0198     		ldr	r0, [sp, #4]
 2128 0bde 0121     		movs	r1, #1
 2129 0be0 FFF786FD 		bl	otg_epout_handler
 2130              	.L93:
 2131              		.loc 7 624 0
 2132 0be4 039B     		ldr	r3, [sp, #12]
 2133 0be6 03F48023 		and	r3, r3, #262144
 2134 0bea 002B     		cmp	r3, #0
 2135 0bec 03D0     		beq	.L94
 2136              		.loc 7 625 0
 2137 0bee 0198     		ldr	r0, [sp, #4]
 2138 0bf0 0221     		movs	r1, #2
 2139 0bf2 FFF77DFD 		bl	otg_epout_handler
ARM GAS  /tmp/ccD2hNvo.s 			page 39


 2140              	.L94:
 2141              		.loc 7 626 0
 2142 0bf6 039B     		ldr	r3, [sp, #12]
 2143 0bf8 03F40023 		and	r3, r3, #524288
 2144 0bfc 002B     		cmp	r3, #0
 2145 0bfe 03D0     		beq	.L76
 2146              		.loc 7 627 0
 2147 0c00 0198     		ldr	r0, [sp, #4]
 2148 0c02 0321     		movs	r1, #3
 2149 0c04 FFF774FD 		bl	otg_epout_handler
 2150              	.L76:
 2151              		.loc 7 635 0
 2152 0c08 07B0     		add	sp, sp, #28
 2153              		@ sp needed
 2154 0c0a 5DF804FB 		ldr	pc, [sp], #4
 2155              		.cfi_endproc
 2156              	.LFE281:
 2157              		.size	usb_lld_serve_interrupt, .-usb_lld_serve_interrupt
 2158 0c0e 00BF     		.align	2
 2159              		.p2align 4,,15
 2160              		.global	Vector14C
 2161              		.thumb
 2162              		.thumb_func
 2163              		.type	Vector14C, %function
 2164              	Vector14C:
 2165              	.LFB282:
 2166              		.loc 7 650 0
 2167              		.cfi_startproc
 2168              		@ args = 0, pretend = 0, frame = 0
 2169              		@ frame_needed = 0, uses_anonymous_args = 0
 2170 0c10 08B5     		push	{r3, lr}
 2171              		.cfi_def_cfa_offset 8
 2172              		.cfi_offset 3, -8
 2173              		.cfi_offset 14, -4
 2174              		.loc 7 654 0
 2175 0c12 0348     		ldr	r0, .L96
 2176 0c14 FFF70CFF 		bl	usb_lld_serve_interrupt
 2177              		.loc 7 656 0
 2178 0c18 FFF7FEFF 		bl	_port_irq_epilogue
 2179              		.loc 7 657 0
 2180 0c1c 08BD     		pop	{r3, pc}
 2181              	.L97:
 2182 0c1e 00BF     		.align	2
 2183              	.L96:
 2184 0c20 00000000 		.word	USBD1
 2185              		.cfi_endproc
 2186              	.LFE282:
 2187              		.size	Vector14C, .-Vector14C
 2188              		.align	2
 2189 0c24 AFF30080 		.p2align 4,,15
 2189      AFF30080 
 2189      AFF30080 
 2190              		.global	usb_lld_init
 2191              		.thumb
 2192              		.thumb_func
 2193              		.type	usb_lld_init, %function
 2194              	usb_lld_init:
ARM GAS  /tmp/ccD2hNvo.s 			page 40


 2195              	.LFB283:
 2196              		.loc 7 688 0
 2197              		.cfi_startproc
 2198              		@ args = 0, pretend = 0, frame = 0
 2199              		@ frame_needed = 0, uses_anonymous_args = 0
 2200 0c30 08B5     		push	{r3, lr}
 2201              		.cfi_def_cfa_offset 8
 2202              		.cfi_offset 3, -8
 2203              		.cfi_offset 14, -4
 2204              		.loc 7 692 0
 2205 0c32 0948     		ldr	r0, .L99
 2206 0c34 FFF7FEFF 		bl	usbObjectInit
 2207              		.loc 7 693 0
 2208 0c38 074B     		ldr	r3, .L99
 2209 0c3a 0022     		movs	r2, #0
 2210 0c3c DA67     		str	r2, [r3, #124]
 2211              		.loc 7 694 0
 2212 0c3e 064B     		ldr	r3, .L99
 2213 0c40 4FF0A042 		mov	r2, #1342177280
 2214 0c44 DA66     		str	r2, [r3, #108]
 2215              		.loc 7 695 0
 2216 0c46 044B     		ldr	r3, .L99
 2217 0c48 044A     		ldr	r2, .L99+4
 2218 0c4a 1A67     		str	r2, [r3, #112]
 2219              		.loc 7 698 0
 2220 0c4c 024B     		ldr	r3, .L99
 2221 0c4e 0022     		movs	r2, #0
 2222 0c50 C3F88020 		str	r2, [r3, #128]
 2223              		.loc 7 738 0
 2224 0c54 08BD     		pop	{r3, pc}
 2225              	.L100:
 2226 0c56 00BF     		.align	2
 2227              	.L99:
 2228 0c58 00000000 		.word	USBD1
 2229 0c5c 24000000 		.word	fsparams
 2230              		.cfi_endproc
 2231              	.LFE283:
 2232              		.size	usb_lld_init, .-usb_lld_init
 2233              		.align	2
 2234              		.p2align 4,,15
 2235              		.global	usb_lld_start
 2236              		.thumb
 2237              		.thumb_func
 2238              		.type	usb_lld_start, %function
 2239              	usb_lld_start:
 2240              	.LFB284:
 2241              		.loc 7 750 0
 2242              		.cfi_startproc
 2243              		@ args = 0, pretend = 0, frame = 16
 2244              		@ frame_needed = 0, uses_anonymous_args = 0
 2245 0c60 00B5     		push	{lr}
 2246              		.cfi_def_cfa_offset 4
 2247              		.cfi_offset 14, -4
 2248 0c62 87B0     		sub	sp, sp, #28
 2249              		.cfi_def_cfa_offset 32
 2250 0c64 0390     		str	r0, [sp, #12]
 2251              		.loc 7 751 0
ARM GAS  /tmp/ccD2hNvo.s 			page 41


 2252 0c66 039B     		ldr	r3, [sp, #12]
 2253 0c68 DB6E     		ldr	r3, [r3, #108]
 2254 0c6a 0593     		str	r3, [sp, #20]
 2255              		.loc 7 753 0
 2256 0c6c 039B     		ldr	r3, [sp, #12]
 2257 0c6e 1B78     		ldrb	r3, [r3]	@ zero_extendqisi2
 2258 0c70 012B     		cmp	r3, #1
 2259 0c72 72D1     		bne	.L101
 2260              		.loc 7 757 0
 2261 0c74 039A     		ldr	r2, [sp, #12]
 2262 0c76 3A4B     		ldr	r3, .L107
 2263 0c78 9A42     		cmp	r2, r3
 2264 0c7a 19D1     		bne	.L103
 2265              		.loc 7 759 0
 2266 0c7c 394B     		ldr	r3, .L107+4
 2267 0c7e 394A     		ldr	r2, .L107+4
 2268 0c80 D26C     		ldr	r2, [r2, #76]
 2269 0c82 42F48052 		orr	r2, r2, #4096
 2270 0c86 DA64     		str	r2, [r3, #76]
 2271              		.loc 7 760 0
 2272 0c88 364B     		ldr	r3, .L107+4
 2273 0c8a 364A     		ldr	r2, .L107+4
 2274 0c8c D26A     		ldr	r2, [r2, #44]
 2275 0c8e 42F48052 		orr	r2, r2, #4096
 2276 0c92 DA62     		str	r2, [r3, #44]
 2277 0c94 334B     		ldr	r3, .L107+4
 2278 0c96 0022     		movs	r2, #0
 2279 0c98 DA62     		str	r2, [r3, #44]
 2280              		.loc 7 763 0
 2281 0c9a 4320     		movs	r0, #67
 2282 0c9c 0E21     		movs	r1, #14
 2283 0c9e FFF7FEFF 		bl	nvicEnableVector
 2284              		.loc 7 768 0
 2285 0ca2 059B     		ldr	r3, [sp, #20]
 2286 0ca4 304A     		ldr	r2, .L107+8
 2287 0ca6 DA60     		str	r2, [r3, #12]
 2288              		.loc 7 772 0
 2289 0ca8 059B     		ldr	r3, [sp, #20]
 2290 0caa 304A     		ldr	r2, .L107+12
 2291 0cac C3F80028 		str	r2, [r3, #2048]
 2292              	.L103:
 2293              		.loc 7 822 0
 2294 0cb0 039B     		ldr	r3, [sp, #12]
 2295 0cb2 0022     		movs	r2, #0
 2296 0cb4 9A67     		str	r2, [r3, #120]
 2297              		.loc 7 825 0
 2298 0cb6 059B     		ldr	r3, [sp, #20]
 2299 0cb8 0022     		movs	r2, #0
 2300 0cba C3F8002E 		str	r2, [r3, #3584]
 2301              		.loc 7 828 0
 2302 0cbe 059B     		ldr	r3, [sp, #20]
 2303 0cc0 C022     		movs	r2, #192
 2304 0cc2 1A60     		str	r2, [r3]
 2305              		.loc 7 843 0
 2306 0cc4 059B     		ldr	r3, [sp, #20]
 2307 0cc6 4FF40412 		mov	r2, #2162688
 2308 0cca 9A63     		str	r2, [r3, #56]
ARM GAS  /tmp/ccD2hNvo.s 			page 42


 2309              		.loc 7 847 0
 2310 0ccc 0398     		ldr	r0, [sp, #12]
 2311 0cce FFF747FA 		bl	otg_core_reset
 2312              		.loc 7 850 0
 2313 0cd2 059B     		ldr	r3, [sp, #20]
 2314 0cd4 0022     		movs	r2, #0
 2315 0cd6 9A60     		str	r2, [r3, #8]
 2316              		.loc 7 853 0
 2317 0cd8 0398     		ldr	r0, [sp, #12]
 2318 0cda FFF761FA 		bl	otg_disable_ep
 2319              		.loc 7 857 0
 2320 0cde 059B     		ldr	r3, [sp, #20]
 2321 0ce0 0022     		movs	r2, #0
 2322 0ce2 C3F81028 		str	r2, [r3, #2064]
 2323              		.loc 7 858 0
 2324 0ce6 059B     		ldr	r3, [sp, #20]
 2325 0ce8 0022     		movs	r2, #0
 2326 0cea C3F81428 		str	r2, [r3, #2068]
 2327              		.loc 7 859 0
 2328 0cee 059B     		ldr	r3, [sp, #20]
 2329 0cf0 0022     		movs	r2, #0
 2330 0cf2 C3F81C28 		str	r2, [r3, #2076]
 2331              		.loc 7 860 0
 2332 0cf6 039B     		ldr	r3, [sp, #12]
 2333 0cf8 5B68     		ldr	r3, [r3, #4]
 2334 0cfa DB68     		ldr	r3, [r3, #12]
 2335 0cfc 002B     		cmp	r3, #0
 2336 0cfe 03D1     		bne	.L104
 2337              		.loc 7 861 0
 2338 0d00 059B     		ldr	r3, [sp, #20]
 2339 0d02 1B4A     		ldr	r2, .L107+16
 2340 0d04 9A61     		str	r2, [r3, #24]
 2341 0d06 02E0     		b	.L105
 2342              	.L104:
 2343              		.loc 7 865 0
 2344 0d08 059B     		ldr	r3, [sp, #20]
 2345 0d0a 1A4A     		ldr	r2, .L107+20
 2346 0d0c 9A61     		str	r2, [r3, #24]
 2347              	.L105:
 2348              		.loc 7 871 0
 2349 0d0e 059B     		ldr	r3, [sp, #20]
 2350 0d10 4FF0FF32 		mov	r2, #-1
 2351 0d14 5A61     		str	r2, [r3, #20]
 2352              		.loc 7 875 0
 2353 0d16 039B     		ldr	r3, [sp, #12]
 2354 0d18 D3F88030 		ldr	r3, [r3, #128]
 2355 0d1c 002B     		cmp	r3, #0
 2356 0d1e 16D1     		bne	.L106
 2357              		.loc 7 876 0
 2358 0d20 039B     		ldr	r3, [sp, #12]
 2359 0d22 8833     		adds	r3, r3, #136
 2360 0d24 039A     		ldr	r2, [sp, #12]
 2361 0d26 0092     		str	r2, [sp]
 2362 0d28 1846     		mov	r0, r3
 2363 0d2a 4FF4A471 		mov	r1, #328
 2364 0d2e 0222     		movs	r2, #2
 2365 0d30 114B     		ldr	r3, .L107+24
ARM GAS  /tmp/ccD2hNvo.s 			page 43


 2366 0d32 FFF7FEFF 		bl	chThdCreateI
 2367 0d36 0246     		mov	r2, r0
 2368 0d38 039B     		ldr	r3, [sp, #12]
 2369 0d3a C3F88020 		str	r2, [r3, #128]
 2370              		.loc 7 879 0
 2371 0d3e 039B     		ldr	r3, [sp, #12]
 2372 0d40 D3F88030 		ldr	r3, [r3, #128]
 2373 0d44 1846     		mov	r0, r3
 2374 0d46 FFF79BF9 		bl	chThdStartI
 2375              		.loc 7 880 0
 2376 0d4a FFF7FEFF 		bl	chSchRescheduleS
 2377              	.L106:
 2378              		.loc 7 885 0
 2379 0d4e 059B     		ldr	r3, [sp, #20]
 2380 0d50 9B68     		ldr	r3, [r3, #8]
 2381 0d52 43F00102 		orr	r2, r3, #1
 2382 0d56 059B     		ldr	r3, [sp, #20]
 2383 0d58 9A60     		str	r2, [r3, #8]
 2384              	.L101:
 2385              		.loc 7 887 0
 2386 0d5a 07B0     		add	sp, sp, #28
 2387              		@ sp needed
 2388 0d5c 5DF804FB 		ldr	pc, [sp], #4
 2389              	.L108:
 2390              		.align	2
 2391              	.L107:
 2392 0d60 00000000 		.word	USBD1
 2393 0d64 00100240 		.word	1073876992
 2394 0d68 40140040 		.word	1073747008
 2395 0d6c 03002002 		.word	35651587
 2396 0d70 003C30C0 		.word	-1070580736
 2397 0d74 083C30C0 		.word	-1070580728
 2398 0d78 00000000 		.word	usb_lld_pump
 2399              		.cfi_endproc
 2400              	.LFE284:
 2401              		.size	usb_lld_start, .-usb_lld_start
 2402              		.align	2
 2403 0d7c AFF30080 		.p2align 4,,15
 2404              		.global	usb_lld_stop
 2405              		.thumb
 2406              		.thumb_func
 2407              		.type	usb_lld_stop, %function
 2408              	usb_lld_stop:
 2409              	.LFB285:
 2410              		.loc 7 896 0
 2411              		.cfi_startproc
 2412              		@ args = 0, pretend = 0, frame = 16
 2413              		@ frame_needed = 0, uses_anonymous_args = 0
 2414 0d80 00B5     		push	{lr}
 2415              		.cfi_def_cfa_offset 4
 2416              		.cfi_offset 14, -4
 2417 0d82 85B0     		sub	sp, sp, #20
 2418              		.cfi_def_cfa_offset 24
 2419 0d84 0190     		str	r0, [sp, #4]
 2420              		.loc 7 897 0
 2421 0d86 019B     		ldr	r3, [sp, #4]
 2422 0d88 DB6E     		ldr	r3, [r3, #108]
ARM GAS  /tmp/ccD2hNvo.s 			page 44


 2423 0d8a 0393     		str	r3, [sp, #12]
 2424              		.loc 7 900 0
 2425 0d8c 019B     		ldr	r3, [sp, #4]
 2426 0d8e 1B78     		ldrb	r3, [r3]	@ zero_extendqisi2
 2427 0d90 012B     		cmp	r3, #1
 2428 0d92 1CD0     		beq	.L109
 2429              		.loc 7 904 0
 2430 0d94 0198     		ldr	r0, [sp, #4]
 2431 0d96 FFF703FA 		bl	otg_disable_ep
 2432              		.loc 7 906 0
 2433 0d9a 019B     		ldr	r3, [sp, #4]
 2434 0d9c 0022     		movs	r2, #0
 2435 0d9e 9A67     		str	r2, [r3, #120]
 2436              		.loc 7 908 0
 2437 0da0 039B     		ldr	r3, [sp, #12]
 2438 0da2 0022     		movs	r2, #0
 2439 0da4 C3F81C28 		str	r2, [r3, #2076]
 2440              		.loc 7 909 0
 2441 0da8 039B     		ldr	r3, [sp, #12]
 2442 0daa 0022     		movs	r2, #0
 2443 0dac 9A60     		str	r2, [r3, #8]
 2444              		.loc 7 910 0
 2445 0dae 039B     		ldr	r3, [sp, #12]
 2446 0db0 0022     		movs	r2, #0
 2447 0db2 9A63     		str	r2, [r3, #56]
 2448              		.loc 7 913 0
 2449 0db4 019A     		ldr	r2, [sp, #4]
 2450 0db6 074B     		ldr	r3, .L111
 2451 0db8 9A42     		cmp	r2, r3
 2452 0dba 08D1     		bne	.L109
 2453              		.loc 7 914 0
 2454 0dbc 4320     		movs	r0, #67
 2455 0dbe FFF7FEFF 		bl	nvicDisableVector
 2456              		.loc 7 915 0
 2457 0dc2 054B     		ldr	r3, .L111+4
 2458 0dc4 044A     		ldr	r2, .L111+4
 2459 0dc6 D26C     		ldr	r2, [r2, #76]
 2460 0dc8 22F48052 		bic	r2, r2, #4096
 2461 0dcc DA64     		str	r2, [r3, #76]
 2462              	.L109:
 2463              		.loc 7 929 0
 2464 0dce 05B0     		add	sp, sp, #20
 2465              		@ sp needed
 2466 0dd0 5DF804FB 		ldr	pc, [sp], #4
 2467              	.L112:
 2468              		.align	2
 2469              	.L111:
 2470 0dd4 00000000 		.word	USBD1
 2471 0dd8 00100240 		.word	1073876992
 2472              		.cfi_endproc
 2473              	.LFE285:
 2474              		.size	usb_lld_stop, .-usb_lld_stop
 2475              		.align	2
 2476 0ddc AFF30080 		.p2align 4,,15
 2477              		.global	usb_lld_reset
 2478              		.thumb
 2479              		.thumb_func
ARM GAS  /tmp/ccD2hNvo.s 			page 45


 2480              		.type	usb_lld_reset, %function
 2481              	usb_lld_reset:
 2482              	.LFB286:
 2483              		.loc 7 938 0
 2484              		.cfi_startproc
 2485              		@ args = 0, pretend = 0, frame = 16
 2486              		@ frame_needed = 0, uses_anonymous_args = 0
 2487 0de0 10B5     		push	{r4, lr}
 2488              		.cfi_def_cfa_offset 8
 2489              		.cfi_offset 4, -8
 2490              		.cfi_offset 14, -4
 2491 0de2 84B0     		sub	sp, sp, #16
 2492              		.cfi_def_cfa_offset 24
 2493 0de4 0190     		str	r0, [sp, #4]
 2494              		.loc 7 940 0
 2495 0de6 019B     		ldr	r3, [sp, #4]
 2496 0de8 DB6E     		ldr	r3, [r3, #108]
 2497 0dea 0293     		str	r3, [sp, #8]
 2498              		.loc 7 943 0
 2499 0dec 0198     		ldr	r0, [sp, #4]
 2500 0dee 0021     		movs	r1, #0
 2501 0df0 FFF736FA 		bl	otg_txfifo_flush
 2502              		.loc 7 946 0
 2503 0df4 029B     		ldr	r3, [sp, #8]
 2504 0df6 0022     		movs	r2, #0
 2505 0df8 C3F83428 		str	r2, [r3, #2100]
 2506              		.loc 7 947 0
 2507 0dfc 029B     		ldr	r3, [sp, #8]
 2508 0dfe 4FF00112 		mov	r2, #65537
 2509 0e02 C3F81C28 		str	r2, [r3, #2076]
 2510              		.loc 7 950 0
 2511 0e06 0023     		movs	r3, #0
 2512 0e08 0393     		str	r3, [sp, #12]
 2513 0e0a 24E0     		b	.L114
 2514              	.L115:
 2515              		.loc 7 951 0 discriminator 2
 2516 0e0c 029A     		ldr	r2, [sp, #8]
 2517 0e0e 039B     		ldr	r3, [sp, #12]
 2518 0e10 4833     		adds	r3, r3, #72
 2519 0e12 5B01     		lsls	r3, r3, #5
 2520 0e14 1344     		add	r3, r3, r2
 2521 0e16 4FF00062 		mov	r2, #134217728
 2522 0e1a 1A60     		str	r2, [r3]
 2523              		.loc 7 952 0 discriminator 2
 2524 0e1c 029A     		ldr	r2, [sp, #8]
 2525 0e1e 039B     		ldr	r3, [sp, #12]
 2526 0e20 5833     		adds	r3, r3, #88
 2527 0e22 5B01     		lsls	r3, r3, #5
 2528 0e24 1344     		add	r3, r3, r2
 2529 0e26 4FF00062 		mov	r2, #134217728
 2530 0e2a 1A60     		str	r2, [r3]
 2531              		.loc 7 953 0 discriminator 2
 2532 0e2c 029A     		ldr	r2, [sp, #8]
 2533 0e2e 039B     		ldr	r3, [sp, #12]
 2534 0e30 5B01     		lsls	r3, r3, #5
 2535 0e32 1344     		add	r3, r3, r2
 2536 0e34 03F60813 		addw	r3, r3, #2312
ARM GAS  /tmp/ccD2hNvo.s 			page 46


 2537 0e38 4FF0FF32 		mov	r2, #-1
 2538 0e3c 1A60     		str	r2, [r3]
 2539              		.loc 7 954 0 discriminator 2
 2540 0e3e 029A     		ldr	r2, [sp, #8]
 2541 0e40 039B     		ldr	r3, [sp, #12]
 2542 0e42 5B01     		lsls	r3, r3, #5
 2543 0e44 1344     		add	r3, r3, r2
 2544 0e46 03F60833 		addw	r3, r3, #2824
 2545 0e4a 4FF0FF32 		mov	r2, #-1
 2546 0e4e 1A60     		str	r2, [r3]
 2547              		.loc 7 950 0 discriminator 2
 2548 0e50 039B     		ldr	r3, [sp, #12]
 2549 0e52 0133     		adds	r3, r3, #1
 2550 0e54 0393     		str	r3, [sp, #12]
 2551              	.L114:
 2552              		.loc 7 950 0 is_stmt 0 discriminator 1
 2553 0e56 019B     		ldr	r3, [sp, #4]
 2554 0e58 1B6F     		ldr	r3, [r3, #112]
 2555 0e5a 9A68     		ldr	r2, [r3, #8]
 2556 0e5c 039B     		ldr	r3, [sp, #12]
 2557 0e5e 9A42     		cmp	r2, r3
 2558 0e60 D4D2     		bcs	.L115
 2559              		.loc 7 958 0 is_stmt 1
 2560 0e62 0198     		ldr	r0, [sp, #4]
 2561 0e64 FFF71CFA 		bl	otg_ram_reset
 2562              		.loc 7 961 0
 2563 0e68 019B     		ldr	r3, [sp, #4]
 2564 0e6a 1B6F     		ldr	r3, [r3, #112]
 2565 0e6c 1A68     		ldr	r2, [r3]
 2566 0e6e 029B     		ldr	r3, [sp, #8]
 2567 0e70 5A62     		str	r2, [r3, #36]
 2568              		.loc 7 962 0
 2569 0e72 0198     		ldr	r0, [sp, #4]
 2570 0e74 FFF7DCF9 		bl	otg_rxfifo_flush
 2571              		.loc 7 965 0
 2572 0e78 029B     		ldr	r3, [sp, #8]
 2573 0e7a D3F80038 		ldr	r3, [r3, #2048]
 2574 0e7e 23F4FE62 		bic	r2, r3, #2032
 2575 0e82 029B     		ldr	r3, [sp, #8]
 2576 0e84 C3F80028 		str	r2, [r3, #2048]
 2577              		.loc 7 968 0
 2578 0e88 029B     		ldr	r3, [sp, #8]
 2579 0e8a 9B69     		ldr	r3, [r3, #24]
 2580 0e8c 43F44023 		orr	r3, r3, #786432
 2581 0e90 43F01003 		orr	r3, r3, #16
 2582 0e94 029A     		ldr	r2, [sp, #8]
 2583 0e96 9361     		str	r3, [r2, #24]
 2584              		.loc 7 969 0
 2585 0e98 029B     		ldr	r3, [sp, #8]
 2586 0e9a 0922     		movs	r2, #9
 2587 0e9c C3F81028 		str	r2, [r3, #2064]
 2588              		.loc 7 970 0
 2589 0ea0 029B     		ldr	r3, [sp, #8]
 2590 0ea2 0922     		movs	r2, #9
 2591 0ea4 C3F81428 		str	r2, [r3, #2068]
 2592              		.loc 7 973 0
 2593 0ea8 019B     		ldr	r3, [sp, #4]
ARM GAS  /tmp/ccD2hNvo.s 			page 47


 2594 0eaa 164A     		ldr	r2, .L116
 2595 0eac DA60     		str	r2, [r3, #12]
 2596              		.loc 7 974 0
 2597 0eae 029B     		ldr	r3, [sp, #8]
 2598 0eb0 0022     		movs	r2, #0
 2599 0eb2 C3F8102B 		str	r2, [r3, #2832]
 2600              		.loc 7 976 0
 2601 0eb6 4023     		movs	r3, #64
 2602              		.loc 7 975 0
 2603 0eb8 43F08053 		orr	r3, r3, #268435456
 2604 0ebc 43F40043 		orr	r3, r3, #32768
 2605 0ec0 029A     		ldr	r2, [sp, #8]
 2606 0ec2 C2F8003B 		str	r3, [r2, #2816]
 2607              		.loc 7 977 0
 2608 0ec6 029B     		ldr	r3, [sp, #8]
 2609 0ec8 0022     		movs	r2, #0
 2610 0eca C3F81029 		str	r2, [r3, #2320]
 2611              		.loc 7 979 0
 2612 0ece 4023     		movs	r3, #64
 2613 0ed0 43F08053 		orr	r3, r3, #268435456
 2614 0ed4 43F40043 		orr	r3, r3, #32768
 2615              		.loc 7 978 0
 2616 0ed8 029A     		ldr	r2, [sp, #8]
 2617 0eda C2F80039 		str	r3, [r2, #2304]
 2618              		.loc 7 980 0
 2619 0ede 4023     		movs	r3, #64
 2620 0ee0 9B08     		lsrs	r3, r3, #2
 2621 0ee2 9BB2     		uxth	r3, r3
 2622 0ee4 1B04     		lsls	r3, r3, #16
 2623 0ee6 1C46     		mov	r4, r3
 2624              		.loc 7 981 0
 2625 0ee8 4023     		movs	r3, #64
 2626 0eea 9B08     		lsrs	r3, r3, #2
 2627 0eec 9BB2     		uxth	r3, r3
 2628 0eee 0198     		ldr	r0, [sp, #4]
 2629 0ef0 1946     		mov	r1, r3
 2630 0ef2 FFF7E5F9 		bl	otg_ram_alloc
 2631 0ef6 0346     		mov	r3, r0
 2632              		.loc 7 980 0
 2633 0ef8 44EA0302 		orr	r2, r4, r3
 2634 0efc 029B     		ldr	r3, [sp, #8]
 2635 0efe 9A62     		str	r2, [r3, #40]
 2636              		.loc 7 983 0
 2637 0f00 04B0     		add	sp, sp, #16
 2638              		@ sp needed
 2639 0f02 10BD     		pop	{r4, pc}
 2640              	.L117:
 2641              		.align	2
 2642              	.L116:
 2643 0f04 00000000 		.word	ep0config
 2644              		.cfi_endproc
 2645              	.LFE286:
 2646              		.size	usb_lld_reset, .-usb_lld_reset
 2647              		.align	2
 2648 0f08 AFF30080 		.p2align 4,,15
 2648      AFF30080 
 2649              		.global	usb_lld_set_address
ARM GAS  /tmp/ccD2hNvo.s 			page 48


 2650              		.thumb
 2651              		.thumb_func
 2652              		.type	usb_lld_set_address, %function
 2653              	usb_lld_set_address:
 2654              	.LFB287:
 2655              		.loc 7 992 0
 2656              		.cfi_startproc
 2657              		@ args = 0, pretend = 0, frame = 16
 2658              		@ frame_needed = 0, uses_anonymous_args = 0
 2659              		@ link register save eliminated.
 2660 0f10 84B0     		sub	sp, sp, #16
 2661              		.cfi_def_cfa_offset 16
 2662 0f12 0190     		str	r0, [sp, #4]
 2663              		.loc 7 993 0
 2664 0f14 019B     		ldr	r3, [sp, #4]
 2665 0f16 DB6E     		ldr	r3, [r3, #108]
 2666 0f18 0393     		str	r3, [sp, #12]
 2667              		.loc 7 995 0
 2668 0f1a 039B     		ldr	r3, [sp, #12]
 2669 0f1c D3F80038 		ldr	r3, [r3, #2048]
 2670 0f20 23F4FE62 		bic	r2, r3, #2032
 2671 0f24 019B     		ldr	r3, [sp, #4]
 2672 0f26 93F86630 		ldrb	r3, [r3, #102]	@ zero_extendqisi2
 2673 0f2a 1B01     		lsls	r3, r3, #4
 2674 0f2c 1A43     		orrs	r2, r2, r3
 2675 0f2e 039B     		ldr	r3, [sp, #12]
 2676 0f30 C3F80028 		str	r2, [r3, #2048]
 2677              		.loc 7 996 0
 2678 0f34 04B0     		add	sp, sp, #16
 2679              		@ sp needed
 2680 0f36 7047     		bx	lr
 2681              		.cfi_endproc
 2682              	.LFE287:
 2683              		.size	usb_lld_set_address, .-usb_lld_set_address
 2684              		.align	2
 2685 0f38 AFF30080 		.p2align 4,,15
 2685      AFF30080 
 2686              		.global	usb_lld_init_endpoint
 2687              		.thumb
 2688              		.thumb_func
 2689              		.type	usb_lld_init_endpoint, %function
 2690              	usb_lld_init_endpoint:
 2691              	.LFB288:
 2692              		.loc 7 1006 0
 2693              		.cfi_startproc
 2694              		@ args = 0, pretend = 0, frame = 24
 2695              		@ frame_needed = 0, uses_anonymous_args = 0
 2696 0f40 30B5     		push	{r4, r5, lr}
 2697              		.cfi_def_cfa_offset 12
 2698              		.cfi_offset 4, -12
 2699              		.cfi_offset 5, -8
 2700              		.cfi_offset 14, -4
 2701 0f42 87B0     		sub	sp, sp, #28
 2702              		.cfi_def_cfa_offset 40
 2703 0f44 0190     		str	r0, [sp, #4]
 2704 0f46 0B46     		mov	r3, r1
 2705 0f48 8DF80330 		strb	r3, [sp, #3]
ARM GAS  /tmp/ccD2hNvo.s 			page 49


 2706              		.loc 7 1008 0
 2707 0f4c 019B     		ldr	r3, [sp, #4]
 2708 0f4e DB6E     		ldr	r3, [r3, #108]
 2709 0f50 0393     		str	r3, [sp, #12]
 2710              		.loc 7 1011 0
 2711 0f52 9DF80330 		ldrb	r3, [sp, #3]	@ zero_extendqisi2
 2712 0f56 019A     		ldr	r2, [sp, #4]
 2713 0f58 0233     		adds	r3, r3, #2
 2714 0f5a 9B00     		lsls	r3, r3, #2
 2715 0f5c 1344     		add	r3, r3, r2
 2716 0f5e 5B68     		ldr	r3, [r3, #4]
 2717 0f60 1B68     		ldr	r3, [r3]
 2718 0f62 03F00303 		and	r3, r3, #3
 2719 0f66 032B     		cmp	r3, #3
 2720 0f68 00F20881 		bhi	.L132
 2721 0f6c 01A2     		adr	r2, .L122
 2722 0f6e 52F823F0 		ldr	pc, [r2, r3, lsl #2]
 2723 0f72 00BF     		.p2align 2
 2724              	.L122:
 2725 0f74 850F0000 		.word	.L121+1
 2726 0f78 8B0F0000 		.word	.L123+1
 2727 0f7c 910F0000 		.word	.L124+1
 2728 0f80 970F0000 		.word	.L125+1
 2729              		.p2align 1
 2730              	.L121:
 2731              		.loc 7 1013 0
 2732 0f84 7F4B     		ldr	r3, .L133
 2733 0f86 0593     		str	r3, [sp, #20]
 2734              		.loc 7 1014 0
 2735 0f88 08E0     		b	.L126
 2736              	.L123:
 2737              		.loc 7 1016 0
 2738 0f8a 7F4B     		ldr	r3, .L133+4
 2739 0f8c 0593     		str	r3, [sp, #20]
 2740              		.loc 7 1017 0
 2741 0f8e 05E0     		b	.L126
 2742              	.L124:
 2743              		.loc 7 1019 0
 2744 0f90 7E4B     		ldr	r3, .L133+8
 2745 0f92 0593     		str	r3, [sp, #20]
 2746              		.loc 7 1020 0
 2747 0f94 02E0     		b	.L126
 2748              	.L125:
 2749              		.loc 7 1022 0
 2750 0f96 7E4B     		ldr	r3, .L133+12
 2751 0f98 0593     		str	r3, [sp, #20]
 2752              		.loc 7 1023 0
 2753 0f9a 00BF     		nop
 2754              	.L126:
 2755              		.loc 7 1029 0
 2756 0f9c 9DF80330 		ldrb	r3, [sp, #3]	@ zero_extendqisi2
 2757 0fa0 039A     		ldr	r2, [sp, #12]
 2758 0fa2 5B01     		lsls	r3, r3, #5
 2759 0fa4 1344     		add	r3, r3, r2
 2760 0fa6 03F53163 		add	r3, r3, #2832
 2761 0faa 0022     		movs	r2, #0
 2762 0fac 1A60     		str	r2, [r3]
ARM GAS  /tmp/ccD2hNvo.s 			page 50


 2763              		.loc 7 1030 0
 2764 0fae 9DF80330 		ldrb	r3, [sp, #3]	@ zero_extendqisi2
 2765 0fb2 019A     		ldr	r2, [sp, #4]
 2766 0fb4 0233     		adds	r3, r3, #2
 2767 0fb6 9B00     		lsls	r3, r3, #2
 2768 0fb8 1344     		add	r3, r3, r2
 2769 0fba 5B68     		ldr	r3, [r3, #4]
 2770 0fbc 9B69     		ldr	r3, [r3, #24]
 2771 0fbe 002B     		cmp	r3, #0
 2772 0fc0 20D0     		beq	.L128
 2773              		.loc 7 1031 0
 2774 0fc2 9DF80300 		ldrb	r0, [sp, #3]	@ zero_extendqisi2
 2775 0fc6 9DF80330 		ldrb	r3, [sp, #3]	@ zero_extendqisi2
 2776 0fca 019A     		ldr	r2, [sp, #4]
 2777 0fcc 0233     		adds	r3, r3, #2
 2778 0fce 9B00     		lsls	r3, r3, #2
 2779 0fd0 1344     		add	r3, r3, r2
 2780 0fd2 5B68     		ldr	r3, [r3, #4]
 2781 0fd4 5B8A     		ldrh	r3, [r3, #18]
 2782 0fd6 1A46     		mov	r2, r3
 2783 0fd8 059B     		ldr	r3, [sp, #20]
 2784 0fda 1A43     		orrs	r2, r2, r3
 2785 0fdc 0399     		ldr	r1, [sp, #12]
 2786 0fde 00F15803 		add	r3, r0, #88
 2787 0fe2 5B01     		lsls	r3, r3, #5
 2788 0fe4 0B44     		add	r3, r3, r1
 2789 0fe6 1A60     		str	r2, [r3]
 2790              		.loc 7 1032 0
 2791 0fe8 039B     		ldr	r3, [sp, #12]
 2792 0fea D3F81C28 		ldr	r2, [r3, #2076]
 2793 0fee 9DF80330 		ldrb	r3, [sp, #3]	@ zero_extendqisi2
 2794 0ff2 1033     		adds	r3, r3, #16
 2795 0ff4 0121     		movs	r1, #1
 2796 0ff6 01FA03F3 		lsl	r3, r1, r3
 2797 0ffa 1A43     		orrs	r2, r2, r3
 2798 0ffc 039B     		ldr	r3, [sp, #12]
 2799 0ffe C3F81C28 		str	r2, [r3, #2076]
 2800 1002 1DE0     		b	.L129
 2801              	.L128:
 2802              		.loc 7 1035 0
 2803 1004 9DF80330 		ldrb	r3, [sp, #3]	@ zero_extendqisi2
 2804 1008 9DF80320 		ldrb	r2, [sp, #3]	@ zero_extendqisi2
 2805 100c 0399     		ldr	r1, [sp, #12]
 2806 100e 5832     		adds	r2, r2, #88
 2807 1010 5201     		lsls	r2, r2, #5
 2808 1012 0A44     		add	r2, r2, r1
 2809 1014 1268     		ldr	r2, [r2]
 2810 1016 22F40042 		bic	r2, r2, #32768
 2811 101a 0399     		ldr	r1, [sp, #12]
 2812 101c 5833     		adds	r3, r3, #88
 2813 101e 5B01     		lsls	r3, r3, #5
 2814 1020 0B44     		add	r3, r3, r1
 2815 1022 1A60     		str	r2, [r3]
 2816              		.loc 7 1036 0
 2817 1024 039B     		ldr	r3, [sp, #12]
 2818 1026 D3F81C28 		ldr	r2, [r3, #2076]
 2819 102a 9DF80330 		ldrb	r3, [sp, #3]	@ zero_extendqisi2
ARM GAS  /tmp/ccD2hNvo.s 			page 51


 2820 102e 1033     		adds	r3, r3, #16
 2821 1030 0121     		movs	r1, #1
 2822 1032 01FA03F3 		lsl	r3, r1, r3
 2823 1036 DB43     		mvns	r3, r3
 2824 1038 1A40     		ands	r2, r2, r3
 2825 103a 039B     		ldr	r3, [sp, #12]
 2826 103c C3F81C28 		str	r2, [r3, #2076]
 2827              	.L129:
 2828              		.loc 7 1040 0
 2829 1040 9DF80330 		ldrb	r3, [sp, #3]	@ zero_extendqisi2
 2830 1044 039A     		ldr	r2, [sp, #12]
 2831 1046 5B01     		lsls	r3, r3, #5
 2832 1048 1344     		add	r3, r3, r2
 2833 104a 03F51163 		add	r3, r3, #2320
 2834 104e 0022     		movs	r2, #0
 2835 1050 1A60     		str	r2, [r3]
 2836              		.loc 7 1041 0
 2837 1052 9DF80330 		ldrb	r3, [sp, #3]	@ zero_extendqisi2
 2838 1056 019A     		ldr	r2, [sp, #4]
 2839 1058 0233     		adds	r3, r3, #2
 2840 105a 9B00     		lsls	r3, r3, #2
 2841 105c 1344     		add	r3, r3, r2
 2842 105e 5B68     		ldr	r3, [r3, #4]
 2843 1060 5B69     		ldr	r3, [r3, #20]
 2844 1062 002B     		cmp	r3, #0
 2845 1064 5DD0     		beq	.L130
 2846              		.loc 7 1043 0
 2847 1066 9DF80330 		ldrb	r3, [sp, #3]	@ zero_extendqisi2
 2848 106a 019A     		ldr	r2, [sp, #4]
 2849 106c 0233     		adds	r3, r3, #2
 2850 106e 9B00     		lsls	r3, r3, #2
 2851 1070 1344     		add	r3, r3, r2
 2852 1072 5B68     		ldr	r3, [r3, #4]
 2853 1074 1B8A     		ldrh	r3, [r3, #16]
 2854 1076 9B08     		lsrs	r3, r3, #2
 2855 1078 9BB2     		uxth	r3, r3
 2856 107a 0493     		str	r3, [sp, #16]
 2857              		.loc 7 1044 0
 2858 107c 9DF80330 		ldrb	r3, [sp, #3]	@ zero_extendqisi2
 2859 1080 019A     		ldr	r2, [sp, #4]
 2860 1082 0233     		adds	r3, r3, #2
 2861 1084 9B00     		lsls	r3, r3, #2
 2862 1086 1344     		add	r3, r3, r2
 2863 1088 5B68     		ldr	r3, [r3, #4]
 2864 108a 9B8B     		ldrh	r3, [r3, #28]
 2865 108c 012B     		cmp	r3, #1
 2866 108e 0CD9     		bls	.L131
 2867              		.loc 7 1045 0
 2868 1090 9DF80330 		ldrb	r3, [sp, #3]	@ zero_extendqisi2
 2869 1094 019A     		ldr	r2, [sp, #4]
 2870 1096 0233     		adds	r3, r3, #2
 2871 1098 9B00     		lsls	r3, r3, #2
 2872 109a 1344     		add	r3, r3, r2
 2873 109c 5B68     		ldr	r3, [r3, #4]
 2874 109e 9B8B     		ldrh	r3, [r3, #28]
 2875 10a0 1A46     		mov	r2, r3
 2876 10a2 049B     		ldr	r3, [sp, #16]
ARM GAS  /tmp/ccD2hNvo.s 			page 52


 2877 10a4 02FB03F3 		mul	r3, r2, r3
 2878 10a8 0493     		str	r3, [sp, #16]
 2879              	.L131:
 2880              		.loc 7 1046 0
 2881 10aa 9DF80330 		ldrb	r3, [sp, #3]	@ zero_extendqisi2
 2882 10ae 5C1E     		subs	r4, r3, #1
 2883 10b0 049B     		ldr	r3, [sp, #16]
 2884 10b2 1D04     		lsls	r5, r3, #16
 2885              		.loc 7 1047 0
 2886 10b4 0198     		ldr	r0, [sp, #4]
 2887 10b6 0499     		ldr	r1, [sp, #16]
 2888 10b8 FFF702F9 		bl	otg_ram_alloc
 2889 10bc 0346     		mov	r3, r0
 2890              		.loc 7 1046 0
 2891 10be 45EA0302 		orr	r2, r5, r3
 2892 10c2 0399     		ldr	r1, [sp, #12]
 2893 10c4 04F14003 		add	r3, r4, #64
 2894 10c8 9B00     		lsls	r3, r3, #2
 2895 10ca 0B44     		add	r3, r3, r1
 2896 10cc 5A60     		str	r2, [r3, #4]
 2897              		.loc 7 1048 0
 2898 10ce 9DF80330 		ldrb	r3, [sp, #3]	@ zero_extendqisi2
 2899 10d2 0198     		ldr	r0, [sp, #4]
 2900 10d4 1946     		mov	r1, r3
 2901 10d6 FFF7C3F8 		bl	otg_txfifo_flush
 2902              		.loc 7 1050 0
 2903 10da 9DF80300 		ldrb	r0, [sp, #3]	@ zero_extendqisi2
 2904              		.loc 7 1051 0
 2905 10de 9DF80330 		ldrb	r3, [sp, #3]	@ zero_extendqisi2
 2906 10e2 9B05     		lsls	r3, r3, #22
 2907              		.loc 7 1050 0
 2908 10e4 1A46     		mov	r2, r3
 2909 10e6 059B     		ldr	r3, [sp, #20]
 2910 10e8 1A43     		orrs	r2, r2, r3
 2911              		.loc 7 1052 0
 2912 10ea 9DF80330 		ldrb	r3, [sp, #3]	@ zero_extendqisi2
 2913 10ee 0199     		ldr	r1, [sp, #4]
 2914 10f0 0233     		adds	r3, r3, #2
 2915 10f2 9B00     		lsls	r3, r3, #2
 2916 10f4 0B44     		add	r3, r3, r1
 2917 10f6 5B68     		ldr	r3, [r3, #4]
 2918 10f8 1B8A     		ldrh	r3, [r3, #16]
 2919              		.loc 7 1051 0
 2920 10fa 1A43     		orrs	r2, r2, r3
 2921              		.loc 7 1050 0
 2922 10fc 0399     		ldr	r1, [sp, #12]
 2923 10fe 00F14803 		add	r3, r0, #72
 2924 1102 5B01     		lsls	r3, r3, #5
 2925 1104 0B44     		add	r3, r3, r1
 2926 1106 1A60     		str	r2, [r3]
 2927              		.loc 7 1053 0
 2928 1108 039B     		ldr	r3, [sp, #12]
 2929 110a D3F81C28 		ldr	r2, [r3, #2076]
 2930 110e 9DF80330 		ldrb	r3, [sp, #3]	@ zero_extendqisi2
 2931 1112 0121     		movs	r1, #1
 2932 1114 01FA03F3 		lsl	r3, r1, r3
 2933 1118 1A43     		orrs	r2, r2, r3
ARM GAS  /tmp/ccD2hNvo.s 			page 53


 2934 111a 039B     		ldr	r3, [sp, #12]
 2935 111c C3F81C28 		str	r2, [r3, #2076]
 2936 1120 2DE0     		b	.L119
 2937              	.L130:
 2938              		.loc 7 1056 0
 2939 1122 9DF80330 		ldrb	r3, [sp, #3]	@ zero_extendqisi2
 2940 1126 013B     		subs	r3, r3, #1
 2941 1128 039A     		ldr	r2, [sp, #12]
 2942 112a 4033     		adds	r3, r3, #64
 2943 112c 9B00     		lsls	r3, r3, #2
 2944 112e 1344     		add	r3, r3, r2
 2945 1130 184A     		ldr	r2, .L133+16
 2946 1132 5A60     		str	r2, [r3, #4]
 2947              		.loc 7 1057 0
 2948 1134 9DF80330 		ldrb	r3, [sp, #3]	@ zero_extendqisi2
 2949 1138 0198     		ldr	r0, [sp, #4]
 2950 113a 1946     		mov	r1, r3
 2951 113c FFF790F8 		bl	otg_txfifo_flush
 2952              		.loc 7 1058 0
 2953 1140 9DF80330 		ldrb	r3, [sp, #3]	@ zero_extendqisi2
 2954 1144 9DF80320 		ldrb	r2, [sp, #3]	@ zero_extendqisi2
 2955 1148 0399     		ldr	r1, [sp, #12]
 2956 114a 4832     		adds	r2, r2, #72
 2957 114c 5201     		lsls	r2, r2, #5
 2958 114e 0A44     		add	r2, r2, r1
 2959 1150 1268     		ldr	r2, [r2]
 2960 1152 22F40042 		bic	r2, r2, #32768
 2961 1156 0399     		ldr	r1, [sp, #12]
 2962 1158 4833     		adds	r3, r3, #72
 2963 115a 5B01     		lsls	r3, r3, #5
 2964 115c 0B44     		add	r3, r3, r1
 2965 115e 1A60     		str	r2, [r3]
 2966              		.loc 7 1059 0
 2967 1160 039B     		ldr	r3, [sp, #12]
 2968 1162 D3F81C28 		ldr	r2, [r3, #2076]
 2969 1166 9DF80330 		ldrb	r3, [sp, #3]	@ zero_extendqisi2
 2970 116a 0121     		movs	r1, #1
 2971 116c 01FA03F3 		lsl	r3, r1, r3
 2972 1170 DB43     		mvns	r3, r3
 2973 1172 1A40     		ands	r2, r2, r3
 2974 1174 039B     		ldr	r3, [sp, #12]
 2975 1176 C3F81C28 		str	r2, [r3, #2076]
 2976 117a 00E0     		b	.L119
 2977              	.L132:
 2978              		.loc 7 1025 0
 2979 117c 00BF     		nop
 2980              	.L119:
 2981              		.loc 7 1061 0
 2982 117e 07B0     		add	sp, sp, #28
 2983              		@ sp needed
 2984 1180 30BD     		pop	{r4, r5, pc}
 2985              	.L134:
 2986 1182 00BF     		.align	2
 2987              	.L133:
 2988 1184 00800010 		.word	268468224
 2989 1188 00800410 		.word	268730368
 2990 118c 00800810 		.word	268992512
ARM GAS  /tmp/ccD2hNvo.s 			page 54


 2991 1190 00800C10 		.word	269254656
 2992 1194 00040002 		.word	33555456
 2993              		.cfi_endproc
 2994              	.LFE288:
 2995              		.size	usb_lld_init_endpoint, .-usb_lld_init_endpoint
 2996              		.align	2
 2997 1198 AFF30080 		.p2align 4,,15
 2997      AFF30080 
 2998              		.global	usb_lld_disable_endpoints
 2999              		.thumb
 3000              		.thumb_func
 3001              		.type	usb_lld_disable_endpoints, %function
 3002              	usb_lld_disable_endpoints:
 3003              	.LFB289:
 3004              		.loc 7 1070 0
 3005              		.cfi_startproc
 3006              		@ args = 0, pretend = 0, frame = 8
 3007              		@ frame_needed = 0, uses_anonymous_args = 0
 3008 11a0 00B5     		push	{lr}
 3009              		.cfi_def_cfa_offset 4
 3010              		.cfi_offset 14, -4
 3011 11a2 83B0     		sub	sp, sp, #12
 3012              		.cfi_def_cfa_offset 16
 3013 11a4 0190     		str	r0, [sp, #4]
 3014              		.loc 7 1073 0
 3015 11a6 0198     		ldr	r0, [sp, #4]
 3016 11a8 FFF77AF8 		bl	otg_ram_reset
 3017              		.loc 7 1076 0
 3018 11ac 0198     		ldr	r0, [sp, #4]
 3019 11ae FEF7F7FF 		bl	otg_disable_ep
 3020              		.loc 7 1077 0
 3021 11b2 03B0     		add	sp, sp, #12
 3022              		@ sp needed
 3023 11b4 5DF804FB 		ldr	pc, [sp], #4
 3024              		.cfi_endproc
 3025              	.LFE289:
 3026              		.size	usb_lld_disable_endpoints, .-usb_lld_disable_endpoints
 3027              		.align	2
 3028 11b8 AFF30080 		.p2align 4,,15
 3028      AFF30080 
 3029              		.global	usb_lld_get_status_out
 3030              		.thumb
 3031              		.thumb_func
 3032              		.type	usb_lld_get_status_out, %function
 3033              	usb_lld_get_status_out:
 3034              	.LFB290:
 3035              		.loc 7 1091 0
 3036              		.cfi_startproc
 3037              		@ args = 0, pretend = 0, frame = 16
 3038              		@ frame_needed = 0, uses_anonymous_args = 0
 3039              		@ link register save eliminated.
 3040 11c0 84B0     		sub	sp, sp, #16
 3041              		.cfi_def_cfa_offset 16
 3042 11c2 0190     		str	r0, [sp, #4]
 3043 11c4 0B46     		mov	r3, r1
 3044 11c6 8DF80330 		strb	r3, [sp, #3]
 3045              		.loc 7 1096 0
ARM GAS  /tmp/ccD2hNvo.s 			page 55


 3046 11ca 019B     		ldr	r3, [sp, #4]
 3047 11cc DA6E     		ldr	r2, [r3, #108]
 3048 11ce 9DF80330 		ldrb	r3, [sp, #3]	@ zero_extendqisi2
 3049 11d2 5833     		adds	r3, r3, #88
 3050 11d4 5B01     		lsls	r3, r3, #5
 3051 11d6 1344     		add	r3, r3, r2
 3052 11d8 1B68     		ldr	r3, [r3]
 3053 11da 0393     		str	r3, [sp, #12]
 3054              		.loc 7 1097 0
 3055 11dc 039B     		ldr	r3, [sp, #12]
 3056 11de 03F40043 		and	r3, r3, #32768
 3057 11e2 002B     		cmp	r3, #0
 3058 11e4 01D1     		bne	.L137
 3059              		.loc 7 1098 0
 3060 11e6 0023     		movs	r3, #0
 3061 11e8 07E0     		b	.L138
 3062              	.L137:
 3063              		.loc 7 1099 0
 3064 11ea 039B     		ldr	r3, [sp, #12]
 3065 11ec 03F40013 		and	r3, r3, #2097152
 3066 11f0 002B     		cmp	r3, #0
 3067 11f2 01D0     		beq	.L139
 3068              		.loc 7 1100 0
 3069 11f4 0123     		movs	r3, #1
 3070 11f6 00E0     		b	.L138
 3071              	.L139:
 3072              		.loc 7 1101 0
 3073 11f8 0223     		movs	r3, #2
 3074              	.L138:
 3075              		.loc 7 1102 0
 3076 11fa 1846     		mov	r0, r3
 3077 11fc 04B0     		add	sp, sp, #16
 3078              		@ sp needed
 3079 11fe 7047     		bx	lr
 3080              		.cfi_endproc
 3081              	.LFE290:
 3082              		.size	usb_lld_get_status_out, .-usb_lld_get_status_out
 3083              		.align	2
 3084              		.p2align 4,,15
 3085              		.global	usb_lld_get_status_in
 3086              		.thumb
 3087              		.thumb_func
 3088              		.type	usb_lld_get_status_in, %function
 3089              	usb_lld_get_status_in:
 3090              	.LFB291:
 3091              		.loc 7 1116 0
 3092              		.cfi_startproc
 3093              		@ args = 0, pretend = 0, frame = 16
 3094              		@ frame_needed = 0, uses_anonymous_args = 0
 3095              		@ link register save eliminated.
 3096 1200 84B0     		sub	sp, sp, #16
 3097              		.cfi_def_cfa_offset 16
 3098 1202 0190     		str	r0, [sp, #4]
 3099 1204 0B46     		mov	r3, r1
 3100 1206 8DF80330 		strb	r3, [sp, #3]
 3101              		.loc 7 1121 0
 3102 120a 019B     		ldr	r3, [sp, #4]
ARM GAS  /tmp/ccD2hNvo.s 			page 56


 3103 120c DA6E     		ldr	r2, [r3, #108]
 3104 120e 9DF80330 		ldrb	r3, [sp, #3]	@ zero_extendqisi2
 3105 1212 4833     		adds	r3, r3, #72
 3106 1214 5B01     		lsls	r3, r3, #5
 3107 1216 1344     		add	r3, r3, r2
 3108 1218 1B68     		ldr	r3, [r3]
 3109 121a 0393     		str	r3, [sp, #12]
 3110              		.loc 7 1122 0
 3111 121c 039B     		ldr	r3, [sp, #12]
 3112 121e 03F40043 		and	r3, r3, #32768
 3113 1222 002B     		cmp	r3, #0
 3114 1224 01D1     		bne	.L141
 3115              		.loc 7 1123 0
 3116 1226 0023     		movs	r3, #0
 3117 1228 07E0     		b	.L142
 3118              	.L141:
 3119              		.loc 7 1124 0
 3120 122a 039B     		ldr	r3, [sp, #12]
 3121 122c 03F40013 		and	r3, r3, #2097152
 3122 1230 002B     		cmp	r3, #0
 3123 1232 01D0     		beq	.L143
 3124              		.loc 7 1125 0
 3125 1234 0123     		movs	r3, #1
 3126 1236 00E0     		b	.L142
 3127              	.L143:
 3128              		.loc 7 1126 0
 3129 1238 0223     		movs	r3, #2
 3130              	.L142:
 3131              		.loc 7 1127 0
 3132 123a 1846     		mov	r0, r3
 3133 123c 04B0     		add	sp, sp, #16
 3134              		@ sp needed
 3135 123e 7047     		bx	lr
 3136              		.cfi_endproc
 3137              	.LFE291:
 3138              		.size	usb_lld_get_status_in, .-usb_lld_get_status_in
 3139              		.align	2
 3140              		.p2align 4,,15
 3141              		.global	usb_lld_read_setup
 3142              		.thumb
 3143              		.thumb_func
 3144              		.type	usb_lld_read_setup, %function
 3145              	usb_lld_read_setup:
 3146              	.LFB292:
 3147              		.loc 7 1143 0
 3148              		.cfi_startproc
 3149              		@ args = 0, pretend = 0, frame = 16
 3150              		@ frame_needed = 0, uses_anonymous_args = 0
 3151 1240 00B5     		push	{lr}
 3152              		.cfi_def_cfa_offset 4
 3153              		.cfi_offset 14, -4
 3154 1242 85B0     		sub	sp, sp, #20
 3155              		.cfi_def_cfa_offset 24
 3156 1244 0390     		str	r0, [sp, #12]
 3157 1246 0B46     		mov	r3, r1
 3158 1248 0192     		str	r2, [sp, #4]
 3159 124a 8DF80B30 		strb	r3, [sp, #11]
ARM GAS  /tmp/ccD2hNvo.s 			page 57


 3160              		.loc 7 1145 0
 3161 124e 9DF80B30 		ldrb	r3, [sp, #11]	@ zero_extendqisi2
 3162 1252 039A     		ldr	r2, [sp, #12]
 3163 1254 0233     		adds	r3, r3, #2
 3164 1256 9B00     		lsls	r3, r3, #2
 3165 1258 1344     		add	r3, r3, r2
 3166 125a 5B68     		ldr	r3, [r3, #4]
 3167 125c 1B6A     		ldr	r3, [r3, #32]
 3168 125e 0198     		ldr	r0, [sp, #4]
 3169 1260 1946     		mov	r1, r3
 3170 1262 0822     		movs	r2, #8
 3171 1264 FFF7FEFF 		bl	memcpy
 3172              		.loc 7 1146 0
 3173 1268 05B0     		add	sp, sp, #20
 3174              		@ sp needed
 3175 126a 5DF804FB 		ldr	pc, [sp], #4
 3176              		.cfi_endproc
 3177              	.LFE292:
 3178              		.size	usb_lld_read_setup, .-usb_lld_read_setup
 3179 126e 00BF     		.align	2
 3180              		.p2align 4,,15
 3181              		.global	usb_lld_start_out
 3182              		.thumb
 3183              		.thumb_func
 3184              		.type	usb_lld_start_out, %function
 3185              	usb_lld_start_out:
 3186              	.LFB293:
 3187              		.loc 7 1156 0
 3188              		.cfi_startproc
 3189              		@ args = 0, pretend = 0, frame = 24
 3190              		@ frame_needed = 0, uses_anonymous_args = 0
 3191              		@ link register save eliminated.
 3192 1270 86B0     		sub	sp, sp, #24
 3193              		.cfi_def_cfa_offset 24
 3194 1272 0190     		str	r0, [sp, #4]
 3195 1274 0B46     		mov	r3, r1
 3196 1276 8DF80330 		strb	r3, [sp, #3]
 3197              		.loc 7 1158 0
 3198 127a 9DF80330 		ldrb	r3, [sp, #3]	@ zero_extendqisi2
 3199 127e 019A     		ldr	r2, [sp, #4]
 3200 1280 0233     		adds	r3, r3, #2
 3201 1282 9B00     		lsls	r3, r3, #2
 3202 1284 1344     		add	r3, r3, r2
 3203 1286 5B68     		ldr	r3, [r3, #4]
 3204 1288 9B69     		ldr	r3, [r3, #24]
 3205 128a 0593     		str	r3, [sp, #20]
 3206              		.loc 7 1161 0
 3207 128c 059B     		ldr	r3, [sp, #20]
 3208 128e 1A68     		ldr	r2, [r3]
 3209 1290 059B     		ldr	r3, [sp, #20]
 3210 1292 DA60     		str	r2, [r3, #12]
 3211              		.loc 7 1162 0
 3212 1294 9DF80330 		ldrb	r3, [sp, #3]	@ zero_extendqisi2
 3213 1298 002B     		cmp	r3, #0
 3214 129a 06D1     		bne	.L146
 3215              		.loc 7 1162 0 is_stmt 0 discriminator 1
 3216 129c 059B     		ldr	r3, [sp, #20]
ARM GAS  /tmp/ccD2hNvo.s 			page 58


 3217 129e 1B68     		ldr	r3, [r3]
 3218 12a0 402B     		cmp	r3, #64
 3219 12a2 02D9     		bls	.L146
 3220              		.loc 7 1163 0 is_stmt 1
 3221 12a4 059B     		ldr	r3, [sp, #20]
 3222 12a6 4022     		movs	r2, #64
 3223 12a8 1A60     		str	r2, [r3]
 3224              	.L146:
 3225              		.loc 7 1170 0
 3226 12aa 059B     		ldr	r3, [sp, #20]
 3227 12ac 1A68     		ldr	r2, [r3]
 3228 12ae 9DF80330 		ldrb	r3, [sp, #3]	@ zero_extendqisi2
 3229 12b2 0199     		ldr	r1, [sp, #4]
 3230 12b4 0233     		adds	r3, r3, #2
 3231 12b6 9B00     		lsls	r3, r3, #2
 3232 12b8 0B44     		add	r3, r3, r1
 3233 12ba 5B68     		ldr	r3, [r3, #4]
 3234 12bc 5B8A     		ldrh	r3, [r3, #18]
 3235 12be 1344     		add	r3, r3, r2
 3236 12c0 5A1E     		subs	r2, r3, #1
 3237              		.loc 7 1171 0
 3238 12c2 9DF80330 		ldrb	r3, [sp, #3]	@ zero_extendqisi2
 3239 12c6 0199     		ldr	r1, [sp, #4]
 3240 12c8 0233     		adds	r3, r3, #2
 3241 12ca 9B00     		lsls	r3, r3, #2
 3242 12cc 0B44     		add	r3, r3, r1
 3243 12ce 5B68     		ldr	r3, [r3, #4]
 3244 12d0 5B8A     		ldrh	r3, [r3, #18]
 3245              		.loc 7 1170 0
 3246 12d2 B2FBF3F3 		udiv	r3, r2, r3
 3247 12d6 0493     		str	r3, [sp, #16]
 3248              		.loc 7 1172 0
 3249 12d8 9DF80330 		ldrb	r3, [sp, #3]	@ zero_extendqisi2
 3250 12dc 019A     		ldr	r2, [sp, #4]
 3251 12de 0233     		adds	r3, r3, #2
 3252 12e0 9B00     		lsls	r3, r3, #2
 3253 12e2 1344     		add	r3, r3, r2
 3254 12e4 5B68     		ldr	r3, [r3, #4]
 3255 12e6 5B8A     		ldrh	r3, [r3, #18]
 3256 12e8 049A     		ldr	r2, [sp, #16]
 3257 12ea 02FB03F3 		mul	r3, r2, r3
 3258 12ee 0333     		adds	r3, r3, #3
 3259 12f0 23F00303 		bic	r3, r3, #3
 3260 12f4 0393     		str	r3, [sp, #12]
 3261              		.loc 7 1175 0
 3262 12f6 019B     		ldr	r3, [sp, #4]
 3263 12f8 D96E     		ldr	r1, [r3, #108]
 3264 12fa 9DF80330 		ldrb	r3, [sp, #3]	@ zero_extendqisi2
 3265 12fe 049A     		ldr	r2, [sp, #16]
 3266 1300 D004     		lsls	r0, r2, #19
 3267 1302 039A     		ldr	r2, [sp, #12]
 3268 1304 0243     		orrs	r2, r2, r0
 3269 1306 42F0C042 		orr	r2, r2, #1610612736
 3270 130a 5B01     		lsls	r3, r3, #5
 3271 130c 0B44     		add	r3, r3, r1
 3272 130e 03F53163 		add	r3, r3, #2832
 3273 1312 1A60     		str	r2, [r3]
ARM GAS  /tmp/ccD2hNvo.s 			page 59


 3274              		.loc 7 1179 0
 3275 1314 9DF80330 		ldrb	r3, [sp, #3]	@ zero_extendqisi2
 3276 1318 019A     		ldr	r2, [sp, #4]
 3277 131a 0233     		adds	r3, r3, #2
 3278 131c 9B00     		lsls	r3, r3, #2
 3279 131e 1344     		add	r3, r3, r2
 3280 1320 5B68     		ldr	r3, [r3, #4]
 3281 1322 1B68     		ldr	r3, [r3]
 3282 1324 03F00303 		and	r3, r3, #3
 3283 1328 012B     		cmp	r3, #1
 3284 132a 2CD1     		bne	.L147
 3285              		.loc 7 1181 0
 3286 132c 019B     		ldr	r3, [sp, #4]
 3287 132e DB6E     		ldr	r3, [r3, #108]
 3288 1330 D3F80838 		ldr	r3, [r3, #2056]
 3289 1334 03F48073 		and	r3, r3, #256
 3290 1338 002B     		cmp	r3, #0
 3291 133a 12D0     		beq	.L148
 3292              		.loc 7 1182 0
 3293 133c 019B     		ldr	r3, [sp, #4]
 3294 133e D96E     		ldr	r1, [r3, #108]
 3295 1340 9DF80330 		ldrb	r3, [sp, #3]	@ zero_extendqisi2
 3296 1344 019A     		ldr	r2, [sp, #4]
 3297 1346 D06E     		ldr	r0, [r2, #108]
 3298 1348 9DF80320 		ldrb	r2, [sp, #3]	@ zero_extendqisi2
 3299 134c 5832     		adds	r2, r2, #88
 3300 134e 5201     		lsls	r2, r2, #5
 3301 1350 0244     		add	r2, r2, r0
 3302 1352 1268     		ldr	r2, [r2]
 3303 1354 42F08052 		orr	r2, r2, #268435456
 3304 1358 5833     		adds	r3, r3, #88
 3305 135a 5B01     		lsls	r3, r3, #5
 3306 135c 0B44     		add	r3, r3, r1
 3307 135e 1A60     		str	r2, [r3]
 3308 1360 11E0     		b	.L147
 3309              	.L148:
 3310              		.loc 7 1184 0
 3311 1362 019B     		ldr	r3, [sp, #4]
 3312 1364 D96E     		ldr	r1, [r3, #108]
 3313 1366 9DF80330 		ldrb	r3, [sp, #3]	@ zero_extendqisi2
 3314 136a 019A     		ldr	r2, [sp, #4]
 3315 136c D06E     		ldr	r0, [r2, #108]
 3316 136e 9DF80320 		ldrb	r2, [sp, #3]	@ zero_extendqisi2
 3317 1372 5832     		adds	r2, r2, #88
 3318 1374 5201     		lsls	r2, r2, #5
 3319 1376 0244     		add	r2, r2, r0
 3320 1378 1268     		ldr	r2, [r2]
 3321 137a 42F00052 		orr	r2, r2, #536870912
 3322 137e 5833     		adds	r3, r3, #88
 3323 1380 5B01     		lsls	r3, r3, #5
 3324 1382 0B44     		add	r3, r3, r1
 3325 1384 1A60     		str	r2, [r3]
 3326              	.L147:
 3327              		.loc 7 1188 0
 3328 1386 019B     		ldr	r3, [sp, #4]
 3329 1388 D96E     		ldr	r1, [r3, #108]
 3330 138a 9DF80330 		ldrb	r3, [sp, #3]	@ zero_extendqisi2
ARM GAS  /tmp/ccD2hNvo.s 			page 60


 3331 138e 019A     		ldr	r2, [sp, #4]
 3332 1390 D06E     		ldr	r0, [r2, #108]
 3333 1392 9DF80320 		ldrb	r2, [sp, #3]	@ zero_extendqisi2
 3334 1396 5832     		adds	r2, r2, #88
 3335 1398 5201     		lsls	r2, r2, #5
 3336 139a 0244     		add	r2, r2, r0
 3337 139c 1268     		ldr	r2, [r2]
 3338 139e 42F00442 		orr	r2, r2, #-2080374784
 3339 13a2 5833     		adds	r3, r3, #88
 3340 13a4 5B01     		lsls	r3, r3, #5
 3341 13a6 0B44     		add	r3, r3, r1
 3342 13a8 1A60     		str	r2, [r3]
 3343              		.loc 7 1189 0
 3344 13aa 06B0     		add	sp, sp, #24
 3345              		@ sp needed
 3346 13ac 7047     		bx	lr
 3347              		.cfi_endproc
 3348              	.LFE293:
 3349              		.size	usb_lld_start_out, .-usb_lld_start_out
 3350 13ae 00BF     		.align	2
 3351              		.p2align 4,,15
 3352              		.global	usb_lld_start_in
 3353              		.thumb
 3354              		.thumb_func
 3355              		.type	usb_lld_start_in, %function
 3356              	usb_lld_start_in:
 3357              	.LFB294:
 3358              		.loc 7 1199 0
 3359              		.cfi_startproc
 3360              		@ args = 0, pretend = 0, frame = 16
 3361              		@ frame_needed = 0, uses_anonymous_args = 0
 3362              		@ link register save eliminated.
 3363 13b0 84B0     		sub	sp, sp, #16
 3364              		.cfi_def_cfa_offset 16
 3365 13b2 0190     		str	r0, [sp, #4]
 3366 13b4 0B46     		mov	r3, r1
 3367 13b6 8DF80330 		strb	r3, [sp, #3]
 3368              		.loc 7 1200 0
 3369 13ba 9DF80330 		ldrb	r3, [sp, #3]	@ zero_extendqisi2
 3370 13be 019A     		ldr	r2, [sp, #4]
 3371 13c0 0233     		adds	r3, r3, #2
 3372 13c2 9B00     		lsls	r3, r3, #2
 3373 13c4 1344     		add	r3, r3, r2
 3374 13c6 5B68     		ldr	r3, [r3, #4]
 3375 13c8 5B69     		ldr	r3, [r3, #20]
 3376 13ca 0393     		str	r3, [sp, #12]
 3377              		.loc 7 1203 0
 3378 13cc 039B     		ldr	r3, [sp, #12]
 3379 13ce 1A68     		ldr	r2, [r3]
 3380 13d0 039B     		ldr	r3, [sp, #12]
 3381 13d2 DA60     		str	r2, [r3, #12]
 3382              		.loc 7 1204 0
 3383 13d4 039B     		ldr	r3, [sp, #12]
 3384 13d6 1B68     		ldr	r3, [r3]
 3385 13d8 002B     		cmp	r3, #0
 3386 13da 0BD1     		bne	.L150
 3387              		.loc 7 1206 0
ARM GAS  /tmp/ccD2hNvo.s 			page 61


 3388 13dc 019B     		ldr	r3, [sp, #4]
 3389 13de DA6E     		ldr	r2, [r3, #108]
 3390 13e0 9DF80330 		ldrb	r3, [sp, #3]	@ zero_extendqisi2
 3391 13e4 5B01     		lsls	r3, r3, #5
 3392 13e6 1344     		add	r3, r3, r2
 3393 13e8 03F51163 		add	r3, r3, #2320
 3394 13ec 4FF40022 		mov	r2, #524288
 3395 13f0 1A60     		str	r2, [r3]
 3396 13f2 31E0     		b	.L151
 3397              	.L150:
 3398              	.LBB13:
 3399              		.loc 7 1209 0
 3400 13f4 9DF80330 		ldrb	r3, [sp, #3]	@ zero_extendqisi2
 3401 13f8 002B     		cmp	r3, #0
 3402 13fa 06D1     		bne	.L152
 3403              		.loc 7 1209 0 is_stmt 0 discriminator 1
 3404 13fc 039B     		ldr	r3, [sp, #12]
 3405 13fe 1B68     		ldr	r3, [r3]
 3406 1400 402B     		cmp	r3, #64
 3407 1402 02D9     		bls	.L152
 3408              		.loc 7 1210 0 is_stmt 1
 3409 1404 039B     		ldr	r3, [sp, #12]
 3410 1406 4022     		movs	r2, #64
 3411 1408 1A60     		str	r2, [r3]
 3412              	.L152:
 3413              		.loc 7 1213 0
 3414 140a 039B     		ldr	r3, [sp, #12]
 3415 140c 1A68     		ldr	r2, [r3]
 3416 140e 9DF80330 		ldrb	r3, [sp, #3]	@ zero_extendqisi2
 3417 1412 0199     		ldr	r1, [sp, #4]
 3418 1414 0233     		adds	r3, r3, #2
 3419 1416 9B00     		lsls	r3, r3, #2
 3420 1418 0B44     		add	r3, r3, r1
 3421 141a 5B68     		ldr	r3, [r3, #4]
 3422 141c 1B8A     		ldrh	r3, [r3, #16]
 3423 141e 1344     		add	r3, r3, r2
 3424 1420 5A1E     		subs	r2, r3, #1
 3425              		.loc 7 1214 0
 3426 1422 9DF80330 		ldrb	r3, [sp, #3]	@ zero_extendqisi2
 3427 1426 0199     		ldr	r1, [sp, #4]
 3428 1428 0233     		adds	r3, r3, #2
 3429 142a 9B00     		lsls	r3, r3, #2
 3430 142c 0B44     		add	r3, r3, r1
 3431 142e 5B68     		ldr	r3, [r3, #4]
 3432 1430 1B8A     		ldrh	r3, [r3, #16]
 3433              		.loc 7 1213 0
 3434 1432 B2FBF3F3 		udiv	r3, r2, r3
 3435 1436 0293     		str	r3, [sp, #8]
 3436              		.loc 7 1216 0
 3437 1438 019B     		ldr	r3, [sp, #4]
 3438 143a D96E     		ldr	r1, [r3, #108]
 3439 143c 9DF80330 		ldrb	r3, [sp, #3]	@ zero_extendqisi2
 3440 1440 029A     		ldr	r2, [sp, #8]
 3441 1442 D004     		lsls	r0, r2, #19
 3442              		.loc 7 1217 0
 3443 1444 039A     		ldr	r2, [sp, #12]
 3444 1446 1268     		ldr	r2, [r2]
ARM GAS  /tmp/ccD2hNvo.s 			page 62


 3445              		.loc 7 1216 0
 3446 1448 0243     		orrs	r2, r2, r0
 3447 144a 42F00052 		orr	r2, r2, #536870912
 3448 144e 5B01     		lsls	r3, r3, #5
 3449 1450 0B44     		add	r3, r3, r1
 3450 1452 03F51163 		add	r3, r3, #2320
 3451 1456 1A60     		str	r2, [r3]
 3452              	.L151:
 3453              	.LBE13:
 3454              		.loc 7 1221 0
 3455 1458 9DF80330 		ldrb	r3, [sp, #3]	@ zero_extendqisi2
 3456 145c 019A     		ldr	r2, [sp, #4]
 3457 145e 0233     		adds	r3, r3, #2
 3458 1460 9B00     		lsls	r3, r3, #2
 3459 1462 1344     		add	r3, r3, r2
 3460 1464 5B68     		ldr	r3, [r3, #4]
 3461 1466 1B68     		ldr	r3, [r3]
 3462 1468 03F00303 		and	r3, r3, #3
 3463 146c 012B     		cmp	r3, #1
 3464 146e 2CD1     		bne	.L153
 3465              		.loc 7 1223 0
 3466 1470 019B     		ldr	r3, [sp, #4]
 3467 1472 DB6E     		ldr	r3, [r3, #108]
 3468 1474 D3F80838 		ldr	r3, [r3, #2056]
 3469 1478 03F48073 		and	r3, r3, #256
 3470 147c 002B     		cmp	r3, #0
 3471 147e 12D0     		beq	.L154
 3472              		.loc 7 1224 0
 3473 1480 019B     		ldr	r3, [sp, #4]
 3474 1482 D96E     		ldr	r1, [r3, #108]
 3475 1484 9DF80330 		ldrb	r3, [sp, #3]	@ zero_extendqisi2
 3476 1488 019A     		ldr	r2, [sp, #4]
 3477 148a D06E     		ldr	r0, [r2, #108]
 3478 148c 9DF80320 		ldrb	r2, [sp, #3]	@ zero_extendqisi2
 3479 1490 4832     		adds	r2, r2, #72
 3480 1492 5201     		lsls	r2, r2, #5
 3481 1494 0244     		add	r2, r2, r0
 3482 1496 1268     		ldr	r2, [r2]
 3483 1498 42F08052 		orr	r2, r2, #268435456
 3484 149c 4833     		adds	r3, r3, #72
 3485 149e 5B01     		lsls	r3, r3, #5
 3486 14a0 0B44     		add	r3, r3, r1
 3487 14a2 1A60     		str	r2, [r3]
 3488 14a4 11E0     		b	.L153
 3489              	.L154:
 3490              		.loc 7 1226 0
 3491 14a6 019B     		ldr	r3, [sp, #4]
 3492 14a8 D96E     		ldr	r1, [r3, #108]
 3493 14aa 9DF80330 		ldrb	r3, [sp, #3]	@ zero_extendqisi2
 3494 14ae 019A     		ldr	r2, [sp, #4]
 3495 14b0 D06E     		ldr	r0, [r2, #108]
 3496 14b2 9DF80320 		ldrb	r2, [sp, #3]	@ zero_extendqisi2
 3497 14b6 4832     		adds	r2, r2, #72
 3498 14b8 5201     		lsls	r2, r2, #5
 3499 14ba 0244     		add	r2, r2, r0
 3500 14bc 1268     		ldr	r2, [r2]
 3501 14be 42F00052 		orr	r2, r2, #536870912
ARM GAS  /tmp/ccD2hNvo.s 			page 63


 3502 14c2 4833     		adds	r3, r3, #72
 3503 14c4 5B01     		lsls	r3, r3, #5
 3504 14c6 0B44     		add	r3, r3, r1
 3505 14c8 1A60     		str	r2, [r3]
 3506              	.L153:
 3507              		.loc 7 1230 0
 3508 14ca 019B     		ldr	r3, [sp, #4]
 3509 14cc D96E     		ldr	r1, [r3, #108]
 3510 14ce 9DF80330 		ldrb	r3, [sp, #3]	@ zero_extendqisi2
 3511 14d2 019A     		ldr	r2, [sp, #4]
 3512 14d4 D06E     		ldr	r0, [r2, #108]
 3513 14d6 9DF80320 		ldrb	r2, [sp, #3]	@ zero_extendqisi2
 3514 14da 4832     		adds	r2, r2, #72
 3515 14dc 5201     		lsls	r2, r2, #5
 3516 14de 0244     		add	r2, r2, r0
 3517 14e0 1268     		ldr	r2, [r2]
 3518 14e2 42F00442 		orr	r2, r2, #-2080374784
 3519 14e6 4833     		adds	r3, r3, #72
 3520 14e8 5B01     		lsls	r3, r3, #5
 3521 14ea 0B44     		add	r3, r3, r1
 3522 14ec 1A60     		str	r2, [r3]
 3523              		.loc 7 1231 0
 3524 14ee 019B     		ldr	r3, [sp, #4]
 3525 14f0 DB6E     		ldr	r3, [r3, #108]
 3526 14f2 019A     		ldr	r2, [sp, #4]
 3527 14f4 D26E     		ldr	r2, [r2, #108]
 3528 14f6 D2F83418 		ldr	r1, [r2, #2100]
 3529 14fa 9DF80320 		ldrb	r2, [sp, #3]	@ zero_extendqisi2
 3530 14fe 0120     		movs	r0, #1
 3531 1500 00FA02F2 		lsl	r2, r0, r2
 3532 1504 0A43     		orrs	r2, r2, r1
 3533 1506 C3F83428 		str	r2, [r3, #2100]
 3534              		.loc 7 1232 0
 3535 150a 04B0     		add	sp, sp, #16
 3536              		@ sp needed
 3537 150c 7047     		bx	lr
 3538              		.cfi_endproc
 3539              	.LFE294:
 3540              		.size	usb_lld_start_in, .-usb_lld_start_in
 3541 150e 00BF     		.align	2
 3542              		.p2align 4,,15
 3543              		.global	usb_lld_stall_out
 3544              		.thumb
 3545              		.thumb_func
 3546              		.type	usb_lld_stall_out, %function
 3547              	usb_lld_stall_out:
 3548              	.LFB295:
 3549              		.loc 7 1242 0
 3550              		.cfi_startproc
 3551              		@ args = 0, pretend = 0, frame = 8
 3552              		@ frame_needed = 0, uses_anonymous_args = 0
 3553              		@ link register save eliminated.
 3554 1510 82B0     		sub	sp, sp, #8
 3555              		.cfi_def_cfa_offset 8
 3556 1512 0190     		str	r0, [sp, #4]
 3557 1514 0B46     		mov	r3, r1
 3558 1516 8DF80330 		strb	r3, [sp, #3]
ARM GAS  /tmp/ccD2hNvo.s 			page 64


 3559              		.loc 7 1244 0
 3560 151a 019B     		ldr	r3, [sp, #4]
 3561 151c D96E     		ldr	r1, [r3, #108]
 3562 151e 9DF80330 		ldrb	r3, [sp, #3]	@ zero_extendqisi2
 3563 1522 019A     		ldr	r2, [sp, #4]
 3564 1524 D06E     		ldr	r0, [r2, #108]
 3565 1526 9DF80320 		ldrb	r2, [sp, #3]	@ zero_extendqisi2
 3566 152a 5832     		adds	r2, r2, #88
 3567 152c 5201     		lsls	r2, r2, #5
 3568 152e 0244     		add	r2, r2, r0
 3569 1530 1268     		ldr	r2, [r2]
 3570 1532 42F40012 		orr	r2, r2, #2097152
 3571 1536 5833     		adds	r3, r3, #88
 3572 1538 5B01     		lsls	r3, r3, #5
 3573 153a 0B44     		add	r3, r3, r1
 3574 153c 1A60     		str	r2, [r3]
 3575              		.loc 7 1245 0
 3576 153e 02B0     		add	sp, sp, #8
 3577              		@ sp needed
 3578 1540 7047     		bx	lr
 3579              		.cfi_endproc
 3580              	.LFE295:
 3581              		.size	usb_lld_stall_out, .-usb_lld_stall_out
 3582 1542 00BF     		.align	2
 3583 1544 AFF30080 		.p2align 4,,15
 3583      AFF30080 
 3583      AFF30080 
 3584              		.global	usb_lld_stall_in
 3585              		.thumb
 3586              		.thumb_func
 3587              		.type	usb_lld_stall_in, %function
 3588              	usb_lld_stall_in:
 3589              	.LFB296:
 3590              		.loc 7 1255 0
 3591              		.cfi_startproc
 3592              		@ args = 0, pretend = 0, frame = 8
 3593              		@ frame_needed = 0, uses_anonymous_args = 0
 3594              		@ link register save eliminated.
 3595 1550 82B0     		sub	sp, sp, #8
 3596              		.cfi_def_cfa_offset 8
 3597 1552 0190     		str	r0, [sp, #4]
 3598 1554 0B46     		mov	r3, r1
 3599 1556 8DF80330 		strb	r3, [sp, #3]
 3600              		.loc 7 1257 0
 3601 155a 019B     		ldr	r3, [sp, #4]
 3602 155c D96E     		ldr	r1, [r3, #108]
 3603 155e 9DF80330 		ldrb	r3, [sp, #3]	@ zero_extendqisi2
 3604 1562 019A     		ldr	r2, [sp, #4]
 3605 1564 D06E     		ldr	r0, [r2, #108]
 3606 1566 9DF80320 		ldrb	r2, [sp, #3]	@ zero_extendqisi2
 3607 156a 4832     		adds	r2, r2, #72
 3608 156c 5201     		lsls	r2, r2, #5
 3609 156e 0244     		add	r2, r2, r0
 3610 1570 1268     		ldr	r2, [r2]
 3611 1572 42F40012 		orr	r2, r2, #2097152
 3612 1576 4833     		adds	r3, r3, #72
 3613 1578 5B01     		lsls	r3, r3, #5
ARM GAS  /tmp/ccD2hNvo.s 			page 65


 3614 157a 0B44     		add	r3, r3, r1
 3615 157c 1A60     		str	r2, [r3]
 3616              		.loc 7 1258 0
 3617 157e 02B0     		add	sp, sp, #8
 3618              		@ sp needed
 3619 1580 7047     		bx	lr
 3620              		.cfi_endproc
 3621              	.LFE296:
 3622              		.size	usb_lld_stall_in, .-usb_lld_stall_in
 3623 1582 00BF     		.align	2
 3624 1584 AFF30080 		.p2align 4,,15
 3624      AFF30080 
 3624      AFF30080 
 3625              		.global	usb_lld_clear_out
 3626              		.thumb
 3627              		.thumb_func
 3628              		.type	usb_lld_clear_out, %function
 3629              	usb_lld_clear_out:
 3630              	.LFB297:
 3631              		.loc 7 1268 0
 3632              		.cfi_startproc
 3633              		@ args = 0, pretend = 0, frame = 8
 3634              		@ frame_needed = 0, uses_anonymous_args = 0
 3635              		@ link register save eliminated.
 3636 1590 82B0     		sub	sp, sp, #8
 3637              		.cfi_def_cfa_offset 8
 3638 1592 0190     		str	r0, [sp, #4]
 3639 1594 0B46     		mov	r3, r1
 3640 1596 8DF80330 		strb	r3, [sp, #3]
 3641              		.loc 7 1270 0
 3642 159a 019B     		ldr	r3, [sp, #4]
 3643 159c D96E     		ldr	r1, [r3, #108]
 3644 159e 9DF80330 		ldrb	r3, [sp, #3]	@ zero_extendqisi2
 3645 15a2 019A     		ldr	r2, [sp, #4]
 3646 15a4 D06E     		ldr	r0, [r2, #108]
 3647 15a6 9DF80320 		ldrb	r2, [sp, #3]	@ zero_extendqisi2
 3648 15aa 5832     		adds	r2, r2, #88
 3649 15ac 5201     		lsls	r2, r2, #5
 3650 15ae 0244     		add	r2, r2, r0
 3651 15b0 1268     		ldr	r2, [r2]
 3652 15b2 22F40012 		bic	r2, r2, #2097152
 3653 15b6 5833     		adds	r3, r3, #88
 3654 15b8 5B01     		lsls	r3, r3, #5
 3655 15ba 0B44     		add	r3, r3, r1
 3656 15bc 1A60     		str	r2, [r3]
 3657              		.loc 7 1271 0
 3658 15be 02B0     		add	sp, sp, #8
 3659              		@ sp needed
 3660 15c0 7047     		bx	lr
 3661              		.cfi_endproc
 3662              	.LFE297:
 3663              		.size	usb_lld_clear_out, .-usb_lld_clear_out
 3664 15c2 00BF     		.align	2
 3665 15c4 AFF30080 		.p2align 4,,15
 3665      AFF30080 
 3665      AFF30080 
 3666              		.global	usb_lld_clear_in
ARM GAS  /tmp/ccD2hNvo.s 			page 66


 3667              		.thumb
 3668              		.thumb_func
 3669              		.type	usb_lld_clear_in, %function
 3670              	usb_lld_clear_in:
 3671              	.LFB298:
 3672              		.loc 7 1281 0
 3673              		.cfi_startproc
 3674              		@ args = 0, pretend = 0, frame = 8
 3675              		@ frame_needed = 0, uses_anonymous_args = 0
 3676              		@ link register save eliminated.
 3677 15d0 82B0     		sub	sp, sp, #8
 3678              		.cfi_def_cfa_offset 8
 3679 15d2 0190     		str	r0, [sp, #4]
 3680 15d4 0B46     		mov	r3, r1
 3681 15d6 8DF80330 		strb	r3, [sp, #3]
 3682              		.loc 7 1283 0
 3683 15da 019B     		ldr	r3, [sp, #4]
 3684 15dc D96E     		ldr	r1, [r3, #108]
 3685 15de 9DF80330 		ldrb	r3, [sp, #3]	@ zero_extendqisi2
 3686 15e2 019A     		ldr	r2, [sp, #4]
 3687 15e4 D06E     		ldr	r0, [r2, #108]
 3688 15e6 9DF80320 		ldrb	r2, [sp, #3]	@ zero_extendqisi2
 3689 15ea 4832     		adds	r2, r2, #72
 3690 15ec 5201     		lsls	r2, r2, #5
 3691 15ee 0244     		add	r2, r2, r0
 3692 15f0 1268     		ldr	r2, [r2]
 3693 15f2 22F40012 		bic	r2, r2, #2097152
 3694 15f6 4833     		adds	r3, r3, #72
 3695 15f8 5B01     		lsls	r3, r3, #5
 3696 15fa 0B44     		add	r3, r3, r1
 3697 15fc 1A60     		str	r2, [r3]
 3698              		.loc 7 1284 0
 3699 15fe 02B0     		add	sp, sp, #8
 3700              		@ sp needed
 3701 1600 7047     		bx	lr
 3702              		.cfi_endproc
 3703              	.LFE298:
 3704              		.size	usb_lld_clear_in, .-usb_lld_clear_in
 3705              		.section	.rodata
 3706              		.align	2
 3707              	.LC0:
 3708 0030 7573625F 		.ascii	"usb_lld_pump\000"
 3708      6C6C645F 
 3708      70756D70 
 3708      00
 3709 003d 000000   		.text
 3710 1602 00BF     		.align	2
 3711 1604 AFF30080 		.p2align 4,,15
 3711      AFF30080 
 3711      AFF30080 
 3712              		.global	usb_lld_pump
 3713              		.thumb
 3714              		.thumb_func
 3715              		.type	usb_lld_pump, %function
 3716              	usb_lld_pump:
 3717              	.LFB299:
 3718              		.loc 7 1297 0
ARM GAS  /tmp/ccD2hNvo.s 			page 67


 3719              		.cfi_startproc
 3720              		@ args = 0, pretend = 0, frame = 32
 3721              		@ frame_needed = 0, uses_anonymous_args = 0
 3722 1610 00B5     		push	{lr}
 3723              		.cfi_def_cfa_offset 4
 3724              		.cfi_offset 14, -4
 3725 1612 89B0     		sub	sp, sp, #36
 3726              		.cfi_def_cfa_offset 40
 3727 1614 0190     		str	r0, [sp, #4]
 3728              		.loc 7 1298 0
 3729 1616 019B     		ldr	r3, [sp, #4]
 3730 1618 0693     		str	r3, [sp, #24]
 3731              		.loc 7 1299 0
 3732 161a 069B     		ldr	r3, [sp, #24]
 3733 161c DB6E     		ldr	r3, [r3, #108]
 3734 161e 0593     		str	r3, [sp, #20]
 3735              		.loc 7 1302 0
 3736 1620 3D48     		ldr	r0, .L169
 3737 1622 FEF73DFD 		bl	chRegSetThreadName
 3738              		.loc 7 1304 0
 3739 1626 FEF74BFD 		bl	osalSysLock
 3740              	.L168:
 3741              	.LBB14:
 3742              		.loc 7 1310 0
 3743 162a 069B     		ldr	r3, [sp, #24]
 3744 162c 1B78     		ldrb	r3, [r3]	@ zero_extendqisi2
 3745 162e 012B     		cmp	r3, #1
 3746 1630 09D0     		beq	.L160
 3747              		.loc 7 1311 0 discriminator 1
 3748 1632 069B     		ldr	r3, [sp, #24]
 3749 1634 9B6F     		ldr	r3, [r3, #120]
 3750              		.loc 7 1310 0 discriminator 1
 3751 1636 002B     		cmp	r3, #0
 3752 1638 10D1     		bne	.L161
 3753              		.loc 7 1311 0
 3754 163a 059B     		ldr	r3, [sp, #20]
 3755 163c 5B69     		ldr	r3, [r3, #20]
 3756 163e 03F01003 		and	r3, r3, #16
 3757 1642 002B     		cmp	r3, #0
 3758 1644 0AD1     		bne	.L161
 3759              	.L160:
 3760              		.loc 7 1312 0
 3761 1646 059B     		ldr	r3, [sp, #20]
 3762 1648 9B69     		ldr	r3, [r3, #24]
 3763 164a 43F01002 		orr	r2, r3, #16
 3764 164e 059B     		ldr	r3, [sp, #20]
 3765 1650 9A61     		str	r2, [r3, #24]
 3766              		.loc 7 1313 0
 3767 1652 069B     		ldr	r3, [sp, #24]
 3768 1654 7C33     		adds	r3, r3, #124
 3769 1656 1846     		mov	r0, r3
 3770 1658 FEF762FD 		bl	osalThreadSuspendS
 3771              	.L161:
 3772              		.loc 7 1315 0
 3773 165c FEF738FD 		bl	osalSysUnlock
 3774              		.loc 7 1318 0
 3775 1660 0023     		movs	r3, #0
ARM GAS  /tmp/ccD2hNvo.s 			page 68


 3776 1662 8DF81F30 		strb	r3, [sp, #31]
 3777 1666 4DE0     		b	.L162
 3778              	.L167:
 3779              		.loc 7 1321 0
 3780 1668 02E0     		b	.L163
 3781              	.L164:
 3782              		.loc 7 1322 0
 3783 166a 0698     		ldr	r0, [sp, #24]
 3784 166c FEF778FE 		bl	otg_rxfifo_handler
 3785              	.L163:
 3786              		.loc 7 1321 0 discriminator 1
 3787 1670 059B     		ldr	r3, [sp, #20]
 3788 1672 5B69     		ldr	r3, [r3, #20]
 3789 1674 03F01003 		and	r3, r3, #16
 3790 1678 002B     		cmp	r3, #0
 3791 167a F6D1     		bne	.L164
 3792              		.loc 7 1325 0
 3793 167c 9DF81F30 		ldrb	r3, [sp, #31]	@ zero_extendqisi2
 3794 1680 0122     		movs	r2, #1
 3795 1682 02FA03F3 		lsl	r3, r2, r3
 3796 1686 0493     		str	r3, [sp, #16]
 3797              		.loc 7 1326 0
 3798 1688 069B     		ldr	r3, [sp, #24]
 3799 168a 9A6F     		ldr	r2, [r3, #120]
 3800 168c 049B     		ldr	r3, [sp, #16]
 3801 168e 1340     		ands	r3, r3, r2
 3802 1690 002B     		cmp	r3, #0
 3803 1692 32D0     		beq	.L165
 3804              	.LBB15:
 3805              		.loc 7 1329 0
 3806 1694 FEF714FD 		bl	osalSysLock
 3807              		.loc 7 1337 0
 3808 1698 059B     		ldr	r3, [sp, #20]
 3809 169a 9B68     		ldr	r3, [r3, #8]
 3810 169c 23F00102 		bic	r2, r3, #1
 3811 16a0 059B     		ldr	r3, [sp, #20]
 3812 16a2 9A60     		str	r2, [r3, #8]
 3813              		.loc 7 1338 0
 3814 16a4 069B     		ldr	r3, [sp, #24]
 3815 16a6 9A6F     		ldr	r2, [r3, #120]
 3816 16a8 049B     		ldr	r3, [sp, #16]
 3817 16aa DB43     		mvns	r3, r3
 3818 16ac 1A40     		ands	r2, r2, r3
 3819 16ae 069B     		ldr	r3, [sp, #24]
 3820 16b0 9A67     		str	r2, [r3, #120]
 3821              		.loc 7 1339 0
 3822 16b2 FEF70DFD 		bl	osalSysUnlock
 3823              		.loc 7 1341 0
 3824 16b6 9DF81F30 		ldrb	r3, [sp, #31]	@ zero_extendqisi2
 3825 16ba 0698     		ldr	r0, [sp, #24]
 3826 16bc 1946     		mov	r1, r3
 3827 16be FEF7D7FE 		bl	otg_txfifo_handler
 3828 16c2 0346     		mov	r3, r0
 3829 16c4 8DF80F30 		strb	r3, [sp, #15]
 3830              		.loc 7 1343 0
 3831 16c8 FEF7FAFC 		bl	osalSysLock
 3832              		.loc 7 1344 0
ARM GAS  /tmp/ccD2hNvo.s 			page 69


 3833 16cc 059B     		ldr	r3, [sp, #20]
 3834 16ce 9B68     		ldr	r3, [r3, #8]
 3835 16d0 43F00102 		orr	r2, r3, #1
 3836 16d4 059B     		ldr	r3, [sp, #20]
 3837 16d6 9A60     		str	r2, [r3, #8]
 3838              		.loc 7 1345 0
 3839 16d8 9DF80F30 		ldrb	r3, [sp, #15]
 3840 16dc 83F00103 		eor	r3, r3, #1
 3841 16e0 DBB2     		uxtb	r3, r3
 3842 16e2 002B     		cmp	r3, #0
 3843 16e4 07D0     		beq	.L166
 3844              		.loc 7 1346 0
 3845 16e6 059B     		ldr	r3, [sp, #20]
 3846 16e8 D3F83428 		ldr	r2, [r3, #2100]
 3847 16ec 049B     		ldr	r3, [sp, #16]
 3848 16ee 1A43     		orrs	r2, r2, r3
 3849 16f0 059B     		ldr	r3, [sp, #20]
 3850 16f2 C3F83428 		str	r2, [r3, #2100]
 3851              	.L166:
 3852              		.loc 7 1347 0
 3853 16f6 FEF7EBFC 		bl	osalSysUnlock
 3854              	.L165:
 3855              	.LBE15:
 3856              		.loc 7 1318 0
 3857 16fa 9DF81F30 		ldrb	r3, [sp, #31]	@ zero_extendqisi2
 3858 16fe 0133     		adds	r3, r3, #1
 3859 1700 8DF81F30 		strb	r3, [sp, #31]
 3860              	.L162:
 3861              		.loc 7 1318 0 is_stmt 0 discriminator 1
 3862 1704 9DF81F20 		ldrb	r2, [sp, #31]	@ zero_extendqisi2
 3863 1708 069B     		ldr	r3, [sp, #24]
 3864 170a 1B6F     		ldr	r3, [r3, #112]
 3865 170c 9B68     		ldr	r3, [r3, #8]
 3866 170e 9A42     		cmp	r2, r3
 3867 1710 AAD9     		bls	.L167
 3868              		.loc 7 1350 0 is_stmt 1
 3869 1712 FEF7D5FC 		bl	osalSysLock
 3870              	.LBE14:
 3871              		.loc 7 1351 0
 3872 1716 88E7     		b	.L168
 3873              	.L170:
 3874              		.align	2
 3875              	.L169:
 3876 1718 30000000 		.word	.LC0
 3877              		.cfi_endproc
 3878              	.LFE299:
 3879              		.size	usb_lld_pump, .-usb_lld_pump
 3880              	.Letext0:
 3881              		.file 8 "/nfs/nfs5/home/research/hardware/arm2/gcc-arm-embedded/gcc-arm-none-eabi-4_8-2014q2/lib/g
 3882              		.file 9 "/nfs/nfs5/home/research/hardware/arm2/gcc-arm-embedded/gcc-arm-none-eabi-4_8-2014q2/arm-n
 3883              		.file 10 "/nfs/nfs5/home/research/hardware/arm2/gcc-arm-embedded/gcc-arm-none-eabi-4_8-2014q2/arm-
 3884              		.file 11 "../../ChibiOS/os/rt/ports/ARMCMx/compilers/GCC/chtypes.h"
 3885              		.file 12 "../../ChibiOS/os/rt/include/chsystypes.h"
 3886              		.file 13 "../../ChibiOS/os/rt/include/chschd.h"
 3887              		.file 14 "../../ChibiOS/os/ext/CMSIS/ST/STM32L4xx/stm32l476xx.h"
 3888              		.file 15 "../../ChibiOS/os/rt/ports/ARMCMx/chcore.h"
 3889              		.file 16 "../../ChibiOS/os/rt/include/chtm.h"
ARM GAS  /tmp/ccD2hNvo.s 			page 70


 3890              		.file 17 "../../ChibiOS/os/rt/include/chsem.h"
 3891              		.file 18 "../../ChibiOS/os/rt/include/chmtx.h"
 3892              		.file 19 "../../ChibiOS/os/hal/include/usb.h"
 3893              		.file 20 "../../ChibiOS/os/hal/ports/STM32/LLD/OTGv1/usb_lld.h"
 3894              		.file 21 "../../ChibiOS/os/hal/ports/STM32/LLD/OTGv1/stm32_otg.h"
 3895              		.file 22 "../../ChibiOS/os/ext/CMSIS/include/core_cm4.h"
 3896 171c AFF30080 		.section	.debug_info,"",%progbits
 3897              	.Ldebug_info0:
 3898 0000 A71E0000 		.4byte	0x1ea7
 3899 0004 0400     		.2byte	0x4
 3900 0006 00000000 		.4byte	.Ldebug_abbrev0
 3901 000a 04       		.byte	0x4
 3902 000b 01       		.uleb128 0x1
 3903 000c 59000000 		.4byte	.LASF375
 3904 0010 01       		.byte	0x1
 3905 0011 A2070000 		.4byte	.LASF376
 3906 0015 14040000 		.4byte	.LASF377
 3907 0019 00000000 		.4byte	.Ltext0
 3908 001d 1C170000 		.4byte	.Letext0-.Ltext0
 3909 0021 00000000 		.4byte	.Ldebug_line0
 3910 0025 02       		.uleb128 0x2
 3911 0026 04       		.byte	0x4
 3912 0027 05       		.byte	0x5
 3913 0028 696E7400 		.ascii	"int\000"
 3914 002c 03       		.uleb128 0x3
 3915 002d 26060000 		.4byte	.LASF2
 3916 0031 08       		.byte	0x8
 3917 0032 D4       		.byte	0xd4
 3918 0033 37000000 		.4byte	0x37
 3919 0037 04       		.uleb128 0x4
 3920 0038 04       		.byte	0x4
 3921 0039 07       		.byte	0x7
 3922 003a E6010000 		.4byte	.LASF0
 3923 003e 04       		.uleb128 0x4
 3924 003f 01       		.byte	0x1
 3925 0040 06       		.byte	0x6
 3926 0041 C5030000 		.4byte	.LASF1
 3927 0045 03       		.uleb128 0x3
 3928 0046 300D0000 		.4byte	.LASF3
 3929 004a 09       		.byte	0x9
 3930 004b 1C       		.byte	0x1c
 3931 004c 50000000 		.4byte	0x50
 3932 0050 04       		.uleb128 0x4
 3933 0051 01       		.byte	0x1
 3934 0052 08       		.byte	0x8
 3935 0053 9A0B0000 		.4byte	.LASF4
 3936 0057 04       		.uleb128 0x4
 3937 0058 02       		.byte	0x2
 3938 0059 05       		.byte	0x5
 3939 005a 01070000 		.4byte	.LASF5
 3940 005e 03       		.uleb128 0x3
 3941 005f 52050000 		.4byte	.LASF6
 3942 0063 09       		.byte	0x9
 3943 0064 26       		.byte	0x26
 3944 0065 69000000 		.4byte	0x69
 3945 0069 04       		.uleb128 0x4
 3946 006a 02       		.byte	0x2
ARM GAS  /tmp/ccD2hNvo.s 			page 71


 3947 006b 07       		.byte	0x7
 3948 006c C10F0000 		.4byte	.LASF7
 3949 0070 03       		.uleb128 0x3
 3950 0071 87070000 		.4byte	.LASF8
 3951 0075 09       		.byte	0x9
 3952 0076 37       		.byte	0x37
 3953 0077 7B000000 		.4byte	0x7b
 3954 007b 04       		.uleb128 0x4
 3955 007c 04       		.byte	0x4
 3956 007d 05       		.byte	0x5
 3957 007e 270C0000 		.4byte	.LASF9
 3958 0082 03       		.uleb128 0x3
 3959 0083 3E050000 		.4byte	.LASF10
 3960 0087 09       		.byte	0x9
 3961 0088 38       		.byte	0x38
 3962 0089 8D000000 		.4byte	0x8d
 3963 008d 04       		.uleb128 0x4
 3964 008e 04       		.byte	0x4
 3965 008f 07       		.byte	0x7
 3966 0090 DA0D0000 		.4byte	.LASF11
 3967 0094 04       		.uleb128 0x4
 3968 0095 08       		.byte	0x8
 3969 0096 05       		.byte	0x5
 3970 0097 DA040000 		.4byte	.LASF12
 3971 009b 03       		.uleb128 0x3
 3972 009c 05080000 		.4byte	.LASF13
 3973 00a0 09       		.byte	0x9
 3974 00a1 4E       		.byte	0x4e
 3975 00a2 A6000000 		.4byte	0xa6
 3976 00a6 04       		.uleb128 0x4
 3977 00a7 08       		.byte	0x8
 3978 00a8 07       		.byte	0x7
 3979 00a9 E8040000 		.4byte	.LASF14
 3980 00ad 04       		.uleb128 0x4
 3981 00ae 04       		.byte	0x4
 3982 00af 07       		.byte	0x7
 3983 00b0 C90D0000 		.4byte	.LASF15
 3984 00b4 05       		.uleb128 0x5
 3985 00b5 04       		.byte	0x4
 3986 00b6 04       		.uleb128 0x4
 3987 00b7 01       		.byte	0x1
 3988 00b8 08       		.byte	0x8
 3989 00b9 900B0000 		.4byte	.LASF16
 3990 00bd 06       		.uleb128 0x6
 3991 00be 04       		.byte	0x4
 3992 00bf C3000000 		.4byte	0xc3
 3993 00c3 07       		.uleb128 0x7
 3994 00c4 B6000000 		.4byte	0xb6
 3995 00c8 03       		.uleb128 0x3
 3996 00c9 28080000 		.4byte	.LASF17
 3997 00cd 0A       		.byte	0xa
 3998 00ce 2A       		.byte	0x2a
 3999 00cf 45000000 		.4byte	0x45
 4000 00d3 03       		.uleb128 0x3
 4001 00d4 150B0000 		.4byte	.LASF18
 4002 00d8 0A       		.byte	0xa
 4003 00d9 36       		.byte	0x36
ARM GAS  /tmp/ccD2hNvo.s 			page 72


 4004 00da 5E000000 		.4byte	0x5e
 4005 00de 03       		.uleb128 0x3
 4006 00df 180E0000 		.4byte	.LASF19
 4007 00e3 0A       		.byte	0xa
 4008 00e4 41       		.byte	0x41
 4009 00e5 70000000 		.4byte	0x70
 4010 00e9 03       		.uleb128 0x3
 4011 00ea 0B020000 		.4byte	.LASF20
 4012 00ee 0A       		.byte	0xa
 4013 00ef 42       		.byte	0x42
 4014 00f0 82000000 		.4byte	0x82
 4015 00f4 03       		.uleb128 0x3
 4016 00f5 CA0C0000 		.4byte	.LASF21
 4017 00f9 0A       		.byte	0xa
 4018 00fa 4E       		.byte	0x4e
 4019 00fb 9B000000 		.4byte	0x9b
 4020 00ff 03       		.uleb128 0x3
 4021 0100 7F0B0000 		.4byte	.LASF22
 4022 0104 0B       		.byte	0xb
 4023 0105 39       		.byte	0x39
 4024 0106 E9000000 		.4byte	0xe9
 4025 010a 03       		.uleb128 0x3
 4026 010b A10A0000 		.4byte	.LASF23
 4027 010f 0B       		.byte	0xb
 4028 0110 3C       		.byte	0x3c
 4029 0111 C8000000 		.4byte	0xc8
 4030 0115 03       		.uleb128 0x3
 4031 0116 E5070000 		.4byte	.LASF24
 4032 011a 0B       		.byte	0xb
 4033 011b 3D       		.byte	0x3d
 4034 011c C8000000 		.4byte	0xc8
 4035 0120 03       		.uleb128 0x3
 4036 0121 D20D0000 		.4byte	.LASF25
 4037 0125 0B       		.byte	0xb
 4038 0126 3E       		.byte	0x3e
 4039 0127 C8000000 		.4byte	0xc8
 4040 012b 03       		.uleb128 0x3
 4041 012c 000A0000 		.4byte	.LASF26
 4042 0130 0B       		.byte	0xb
 4043 0131 3F       		.byte	0x3f
 4044 0132 C8000000 		.4byte	0xc8
 4045 0136 03       		.uleb128 0x3
 4046 0137 86040000 		.4byte	.LASF27
 4047 013b 0B       		.byte	0xb
 4048 013c 40       		.byte	0x40
 4049 013d E9000000 		.4byte	0xe9
 4050 0141 03       		.uleb128 0x3
 4051 0142 0A090000 		.4byte	.LASF28
 4052 0146 0B       		.byte	0xb
 4053 0147 41       		.byte	0x41
 4054 0148 DE000000 		.4byte	0xde
 4055 014c 03       		.uleb128 0x3
 4056 014d EF030000 		.4byte	.LASF29
 4057 0151 0B       		.byte	0xb
 4058 0152 43       		.byte	0x43
 4059 0153 E9000000 		.4byte	0xe9
 4060 0157 03       		.uleb128 0x3
ARM GAS  /tmp/ccD2hNvo.s 			page 73


 4061 0158 5D050000 		.4byte	.LASF30
 4062 015c 0B       		.byte	0xb
 4063 015d 45       		.byte	0x45
 4064 015e DE000000 		.4byte	0xde
 4065 0162 03       		.uleb128 0x3
 4066 0163 82010000 		.4byte	.LASF31
 4067 0167 0C       		.byte	0xc
 4068 0168 33       		.byte	0x33
 4069 0169 E9000000 		.4byte	0xe9
 4070 016d 03       		.uleb128 0x3
 4071 016e F3050000 		.4byte	.LASF32
 4072 0172 0C       		.byte	0xc
 4073 0173 3F       		.byte	0x3f
 4074 0174 78010000 		.4byte	0x178
 4075 0178 08       		.uleb128 0x8
 4076 0179 89080000 		.4byte	.LASF53
 4077 017d 44       		.byte	0x44
 4078 017e 0D       		.byte	0xd
 4079 017f C2       		.byte	0xc2
 4080 0180 71020000 		.4byte	0x271
 4081 0184 09       		.uleb128 0x9
 4082 0185 B40C0000 		.4byte	.LASF33
 4083 0189 0D       		.byte	0xd
 4084 018a C3       		.byte	0xc3
 4085 018b 7C020000 		.4byte	0x27c
 4086 018f 00       		.byte	0
 4087 0190 09       		.uleb128 0x9
 4088 0191 970C0000 		.4byte	.LASF34
 4089 0195 0D       		.byte	0xd
 4090 0196 C5       		.byte	0xc5
 4091 0197 7C020000 		.4byte	0x27c
 4092 019b 04       		.byte	0x4
 4093 019c 09       		.uleb128 0x9
 4094 019d 14010000 		.4byte	.LASF35
 4095 01a1 0D       		.byte	0xd
 4096 01a2 C7       		.byte	0xc7
 4097 01a3 36010000 		.4byte	0x136
 4098 01a7 08       		.byte	0x8
 4099 01a8 09       		.uleb128 0x9
 4100 01a9 D30C0000 		.4byte	.LASF36
 4101 01ad 0D       		.byte	0xd
 4102 01ae C8       		.byte	0xc8
 4103 01af CB060000 		.4byte	0x6cb
 4104 01b3 0C       		.byte	0xc
 4105 01b4 09       		.uleb128 0x9
 4106 01b5 91050000 		.4byte	.LASF37
 4107 01b9 0D       		.byte	0xd
 4108 01ba CA       		.byte	0xca
 4109 01bb 7C020000 		.4byte	0x27c
 4110 01bf 10       		.byte	0x10
 4111 01c0 09       		.uleb128 0x9
 4112 01c1 10080000 		.4byte	.LASF38
 4113 01c5 0D       		.byte	0xd
 4114 01c6 CB       		.byte	0xcb
 4115 01c7 7C020000 		.4byte	0x27c
 4116 01cb 14       		.byte	0x14
 4117 01cc 09       		.uleb128 0x9
ARM GAS  /tmp/ccD2hNvo.s 			page 74


 4118 01cd 31070000 		.4byte	.LASF39
 4119 01d1 0D       		.byte	0xd
 4120 01d2 D2       		.byte	0xd2
 4121 01d3 BD000000 		.4byte	0xbd
 4122 01d7 18       		.byte	0x18
 4123 01d8 09       		.uleb128 0x9
 4124 01d9 18080000 		.4byte	.LASF40
 4125 01dd 0D       		.byte	0xd
 4126 01de DD       		.byte	0xdd
 4127 01df 15010000 		.4byte	0x115
 4128 01e3 1C       		.byte	0x1c
 4129 01e4 09       		.uleb128 0x9
 4130 01e5 42090000 		.4byte	.LASF41
 4131 01e9 0D       		.byte	0xd
 4132 01ea E1       		.byte	0xe1
 4133 01eb 0A010000 		.4byte	0x10a
 4134 01ef 1D       		.byte	0x1d
 4135 01f0 09       		.uleb128 0x9
 4136 01f1 AE0E0000 		.4byte	.LASF42
 4137 01f5 0D       		.byte	0xd
 4138 01f6 E6       		.byte	0xe6
 4139 01f7 20010000 		.4byte	0x120
 4140 01fb 1E       		.byte	0x1e
 4141 01fc 09       		.uleb128 0x9
 4142 01fd E70E0000 		.4byte	.LASF43
 4143 0201 0D       		.byte	0xd
 4144 0202 EC       		.byte	0xec
 4145 0203 2B010000 		.4byte	0x12b
 4146 0207 1F       		.byte	0x1f
 4147 0208 0A       		.uleb128 0xa
 4148 0209 705F7500 		.ascii	"p_u\000"
 4149 020d 0D       		.byte	0xd
 4150 020e 3101     		.2byte	0x131
 4151 0210 85070000 		.4byte	0x785
 4152 0214 20       		.byte	0x20
 4153 0215 0B       		.uleb128 0xb
 4154 0216 2B020000 		.4byte	.LASF44
 4155 021a 0D       		.byte	0xd
 4156 021b 3601     		.2byte	0x136
 4157 021d 82020000 		.4byte	0x282
 4158 0221 24       		.byte	0x24
 4159 0222 0B       		.uleb128 0xb
 4160 0223 C6010000 		.4byte	.LASF45
 4161 0227 0D       		.byte	0xd
 4162 0228 3C01     		.2byte	0x13c
 4163 022a A6020000 		.4byte	0x2a6
 4164 022e 28       		.byte	0x28
 4165 022f 0B       		.uleb128 0xb
 4166 0230 9B0A0000 		.4byte	.LASF46
 4167 0234 0D       		.byte	0xd
 4168 0235 4001     		.2byte	0x140
 4169 0237 41010000 		.4byte	0x141
 4170 023b 30       		.byte	0x30
 4171 023c 0B       		.uleb128 0xb
 4172 023d 320F0000 		.4byte	.LASF47
 4173 0241 0D       		.byte	0xd
 4174 0242 4601     		.2byte	0x146
ARM GAS  /tmp/ccD2hNvo.s 			page 75


 4175 0244 4C010000 		.4byte	0x14c
 4176 0248 34       		.byte	0x34
 4177 0249 0B       		.uleb128 0xb
 4178 024a 6A080000 		.4byte	.LASF48
 4179 024e 0D       		.byte	0xd
 4180 024f 4D01     		.2byte	0x14d
 4181 0251 44080000 		.4byte	0x844
 4182 0255 38       		.byte	0x38
 4183 0256 0B       		.uleb128 0xb
 4184 0257 AF0B0000 		.4byte	.LASF49
 4185 025b 0D       		.byte	0xd
 4186 025c 5101     		.2byte	0x151
 4187 025e 36010000 		.4byte	0x136
 4188 0262 3C       		.byte	0x3c
 4189 0263 0B       		.uleb128 0xb
 4190 0264 4E080000 		.4byte	.LASF50
 4191 0268 0D       		.byte	0xd
 4192 0269 5801     		.2byte	0x158
 4193 026b B4000000 		.4byte	0xb4
 4194 026f 40       		.byte	0x40
 4195 0270 00       		.byte	0
 4196 0271 03       		.uleb128 0x3
 4197 0272 46000000 		.4byte	.LASF51
 4198 0276 0C       		.byte	0xc
 4199 0277 44       		.byte	0x44
 4200 0278 7C020000 		.4byte	0x27c
 4201 027c 06       		.uleb128 0x6
 4202 027d 04       		.byte	0x4
 4203 027e 6D010000 		.4byte	0x16d
 4204 0282 03       		.uleb128 0x3
 4205 0283 1C020000 		.4byte	.LASF52
 4206 0287 0C       		.byte	0xc
 4207 0288 49       		.byte	0x49
 4208 0289 8D020000 		.4byte	0x28d
 4209 028d 08       		.uleb128 0x8
 4210 028e 00000000 		.4byte	.LASF54
 4211 0292 04       		.byte	0x4
 4212 0293 0D       		.byte	0xd
 4213 0294 B0       		.byte	0xb0
 4214 0295 A6020000 		.4byte	0x2a6
 4215 0299 09       		.uleb128 0x9
 4216 029a B40C0000 		.4byte	.LASF33
 4217 029e 0D       		.byte	0xd
 4218 029f B1       		.byte	0xb1
 4219 02a0 7C020000 		.4byte	0x27c
 4220 02a4 00       		.byte	0
 4221 02a5 00       		.byte	0
 4222 02a6 03       		.uleb128 0x3
 4223 02a7 15000000 		.4byte	.LASF55
 4224 02ab 0C       		.byte	0xc
 4225 02ac 50       		.byte	0x50
 4226 02ad B1020000 		.4byte	0x2b1
 4227 02b1 08       		.uleb128 0x8
 4228 02b2 D6080000 		.4byte	.LASF56
 4229 02b6 08       		.byte	0x8
 4230 02b7 0D       		.byte	0xd
 4231 02b8 B7       		.byte	0xb7
ARM GAS  /tmp/ccD2hNvo.s 			page 76


 4232 02b9 D6020000 		.4byte	0x2d6
 4233 02bd 09       		.uleb128 0x9
 4234 02be B40C0000 		.4byte	.LASF33
 4235 02c2 0D       		.byte	0xd
 4236 02c3 B8       		.byte	0xb8
 4237 02c4 7C020000 		.4byte	0x27c
 4238 02c8 00       		.byte	0
 4239 02c9 09       		.uleb128 0x9
 4240 02ca 970C0000 		.4byte	.LASF34
 4241 02ce 0D       		.byte	0xd
 4242 02cf B9       		.byte	0xb9
 4243 02d0 7C020000 		.4byte	0x27c
 4244 02d4 04       		.byte	0x4
 4245 02d5 00       		.byte	0
 4246 02d6 03       		.uleb128 0x3
 4247 02d7 840E0000 		.4byte	.LASF57
 4248 02db 0C       		.byte	0xc
 4249 02dc 57       		.byte	0x57
 4250 02dd E1020000 		.4byte	0x2e1
 4251 02e1 0C       		.uleb128 0xc
 4252 02e2 DC020000 		.4byte	.LASF58
 4253 02e6 1C       		.byte	0x1c
 4254 02e7 0D       		.byte	0xd
 4255 02e8 9001     		.2byte	0x190
 4256 02ea 3D030000 		.4byte	0x33d
 4257 02ee 0B       		.uleb128 0xb
 4258 02ef EA100000 		.4byte	.LASF59
 4259 02f3 0D       		.byte	0xd
 4260 02f4 9101     		.2byte	0x191
 4261 02f6 A6020000 		.4byte	0x2a6
 4262 02fa 00       		.byte	0
 4263 02fb 0B       		.uleb128 0xb
 4264 02fc FB030000 		.4byte	.LASF60
 4265 0300 0D       		.byte	0xd
 4266 0301 9201     		.2byte	0x192
 4267 0303 36010000 		.4byte	0x136
 4268 0307 08       		.byte	0x8
 4269 0308 0B       		.uleb128 0xb
 4270 0309 D40F0000 		.4byte	.LASF61
 4271 030d 0D       		.byte	0xd
 4272 030e 9401     		.2byte	0x194
 4273 0310 CB060000 		.4byte	0x6cb
 4274 0314 0C       		.byte	0xc
 4275 0315 0B       		.uleb128 0xb
 4276 0316 91070000 		.4byte	.LASF62
 4277 031a 0D       		.byte	0xd
 4278 031b 9701     		.2byte	0x197
 4279 031d 7C020000 		.4byte	0x27c
 4280 0321 10       		.byte	0x10
 4281 0322 0B       		.uleb128 0xb
 4282 0323 0A0A0000 		.4byte	.LASF63
 4283 0327 0D       		.byte	0xd
 4284 0328 9801     		.2byte	0x198
 4285 032a 7C020000 		.4byte	0x27c
 4286 032e 14       		.byte	0x14
 4287 032f 0B       		.uleb128 0xb
 4288 0330 FC0B0000 		.4byte	.LASF64
ARM GAS  /tmp/ccD2hNvo.s 			page 77


 4289 0334 0D       		.byte	0xd
 4290 0335 9B01     		.2byte	0x19b
 4291 0337 7C020000 		.4byte	0x27c
 4292 033b 18       		.byte	0x18
 4293 033c 00       		.byte	0
 4294 033d 03       		.uleb128 0x3
 4295 033e 6E030000 		.4byte	.LASF65
 4296 0342 0C       		.byte	0xc
 4297 0343 5C       		.byte	0x5c
 4298 0344 48030000 		.4byte	0x348
 4299 0348 06       		.uleb128 0x6
 4300 0349 04       		.byte	0x4
 4301 034a 4E030000 		.4byte	0x34e
 4302 034e 0D       		.uleb128 0xd
 4303 034f 59030000 		.4byte	0x359
 4304 0353 0E       		.uleb128 0xe
 4305 0354 B4000000 		.4byte	0xb4
 4306 0358 00       		.byte	0
 4307 0359 03       		.uleb128 0x3
 4308 035a 54090000 		.4byte	.LASF66
 4309 035e 0C       		.byte	0xc
 4310 035f 61       		.byte	0x61
 4311 0360 64030000 		.4byte	0x364
 4312 0364 0C       		.uleb128 0xc
 4313 0365 B0040000 		.4byte	.LASF67
 4314 0369 14       		.byte	0x14
 4315 036a 0D       		.byte	0xd
 4316 036b 6B01     		.2byte	0x16b
 4317 036d B3030000 		.4byte	0x3b3
 4318 0371 0B       		.uleb128 0xb
 4319 0372 3D0F0000 		.4byte	.LASF68
 4320 0376 0D       		.byte	0xd
 4321 0377 6C01     		.2byte	0x16c
 4322 0379 4A080000 		.4byte	0x84a
 4323 037d 00       		.byte	0
 4324 037e 0B       		.uleb128 0xb
 4325 037f 5A100000 		.4byte	.LASF69
 4326 0383 0D       		.byte	0xd
 4327 0384 6D01     		.2byte	0x16d
 4328 0386 4A080000 		.4byte	0x84a
 4329 038a 04       		.byte	0x4
 4330 038b 0B       		.uleb128 0xb
 4331 038c 75070000 		.4byte	.LASF70
 4332 0390 0D       		.byte	0xd
 4333 0391 6E01     		.2byte	0x16e
 4334 0393 62010000 		.4byte	0x162
 4335 0397 08       		.byte	0x8
 4336 0398 0B       		.uleb128 0xb
 4337 0399 26100000 		.4byte	.LASF71
 4338 039d 0D       		.byte	0xd
 4339 039e 6F01     		.2byte	0x16f
 4340 03a0 3D030000 		.4byte	0x33d
 4341 03a4 0C       		.byte	0xc
 4342 03a5 0B       		.uleb128 0xb
 4343 03a6 0D040000 		.4byte	.LASF72
 4344 03aa 0D       		.byte	0xd
 4345 03ab 7101     		.2byte	0x171
ARM GAS  /tmp/ccD2hNvo.s 			page 78


 4346 03ad B4000000 		.4byte	0xb4
 4347 03b1 10       		.byte	0x10
 4348 03b2 00       		.byte	0
 4349 03b3 03       		.uleb128 0x3
 4350 03b4 690B0000 		.4byte	.LASF73
 4351 03b8 0C       		.byte	0xc
 4352 03b9 66       		.byte	0x66
 4353 03ba BE030000 		.4byte	0x3be
 4354 03be 0C       		.uleb128 0xc
 4355 03bf 9F050000 		.4byte	.LASF74
 4356 03c3 10       		.byte	0x10
 4357 03c4 0D       		.byte	0xd
 4358 03c5 7B01     		.2byte	0x17b
 4359 03c7 00040000 		.4byte	0x400
 4360 03cb 0B       		.uleb128 0xb
 4361 03cc 3D0F0000 		.4byte	.LASF68
 4362 03d0 0D       		.byte	0xd
 4363 03d1 7C01     		.2byte	0x17c
 4364 03d3 4A080000 		.4byte	0x84a
 4365 03d7 00       		.byte	0
 4366 03d8 0B       		.uleb128 0xb
 4367 03d9 5A100000 		.4byte	.LASF69
 4368 03dd 0D       		.byte	0xd
 4369 03de 7E01     		.2byte	0x17e
 4370 03e0 4A080000 		.4byte	0x84a
 4371 03e4 04       		.byte	0x4
 4372 03e5 0B       		.uleb128 0xb
 4373 03e6 75070000 		.4byte	.LASF70
 4374 03ea 0D       		.byte	0xd
 4375 03eb 8001     		.2byte	0x180
 4376 03ed 62010000 		.4byte	0x162
 4377 03f1 08       		.byte	0x8
 4378 03f2 0B       		.uleb128 0xb
 4379 03f3 B3010000 		.4byte	.LASF75
 4380 03f7 0D       		.byte	0xd
 4381 03f8 8201     		.2byte	0x182
 4382 03fa 50080000 		.4byte	0x850
 4383 03fe 0C       		.byte	0xc
 4384 03ff 00       		.byte	0
 4385 0400 03       		.uleb128 0x3
 4386 0401 C7080000 		.4byte	.LASF76
 4387 0405 0C       		.byte	0xc
 4388 0406 6B       		.byte	0x6b
 4389 0407 0B040000 		.4byte	0x40b
 4390 040b 0C       		.uleb128 0xc
 4391 040c 57030000 		.4byte	.LASF77
 4392 0410 04       		.byte	0x4
 4393 0411 0D       		.byte	0xd
 4394 0412 A201     		.2byte	0x1a2
 4395 0414 26040000 		.4byte	0x426
 4396 0418 0B       		.uleb128 0xb
 4397 0419 7E0A0000 		.4byte	.LASF78
 4398 041d 0D       		.byte	0xd
 4399 041e AA01     		.2byte	0x1aa
 4400 0420 55080000 		.4byte	0x855
 4401 0424 00       		.byte	0
 4402 0425 00       		.byte	0
ARM GAS  /tmp/ccD2hNvo.s 			page 79


 4403 0426 03       		.uleb128 0x3
 4404 0427 520F0000 		.4byte	.LASF79
 4405 042b 0C       		.byte	0xc
 4406 042c 70       		.byte	0x70
 4407 042d 31040000 		.4byte	0x431
 4408 0431 0F       		.uleb128 0xf
 4409 0432 8D0C0000 		.4byte	.LASF80
 4410 0436 5001     		.2byte	0x150
 4411 0438 0D       		.byte	0xd
 4412 0439 C201     		.2byte	0x1c2
 4413 043b 8D040000 		.4byte	0x48d
 4414 043f 0B       		.uleb128 0xb
 4415 0440 F60C0000 		.4byte	.LASF81
 4416 0444 0D       		.byte	0xd
 4417 0445 C601     		.2byte	0x1c6
 4418 0447 D6020000 		.4byte	0x2d6
 4419 044b 00       		.byte	0
 4420 044c 0B       		.uleb128 0xb
 4421 044d A4020000 		.4byte	.LASF82
 4422 0451 0D       		.byte	0xd
 4423 0452 CA01     		.2byte	0x1ca
 4424 0454 B3030000 		.4byte	0x3b3
 4425 0458 1C       		.byte	0x1c
 4426 0459 0A       		.uleb128 0xa
 4427 045a 64626700 		.ascii	"dbg\000"
 4428 045e 0D       		.byte	0xd
 4429 045f CE01     		.2byte	0x1ce
 4430 0461 00040000 		.4byte	0x400
 4431 0465 2C       		.byte	0x2c
 4432 0466 0B       		.uleb128 0xb
 4433 0467 D10A0000 		.4byte	.LASF83
 4434 046b 0D       		.byte	0xd
 4435 046c D201     		.2byte	0x1d2
 4436 046e 6D010000 		.4byte	0x16d
 4437 0472 30       		.byte	0x30
 4438 0473 0A       		.uleb128 0xa
 4439 0474 746D00   		.ascii	"tm\000"
 4440 0477 0D       		.byte	0xd
 4441 0478 D701     		.2byte	0x1d7
 4442 047a 7A070000 		.4byte	0x77a
 4443 047e 74       		.byte	0x74
 4444 047f 0B       		.uleb128 0xb
 4445 0480 EA020000 		.4byte	.LASF84
 4446 0484 0D       		.byte	0xd
 4447 0485 E301     		.2byte	0x1e3
 4448 0487 5A080000 		.4byte	0x85a
 4449 048b 78       		.byte	0x78
 4450 048c 00       		.byte	0
 4451 048d 10       		.uleb128 0x10
 4452 048e E9000000 		.4byte	0xe9
 4453 0492 11       		.uleb128 0x11
 4454 0493 E9000000 		.4byte	0xe9
 4455 0497 A2040000 		.4byte	0x4a2
 4456 049b 12       		.uleb128 0x12
 4457 049c AD000000 		.4byte	0xad
 4458 04a0 0E       		.byte	0xe
 4459 04a1 00       		.byte	0
ARM GAS  /tmp/ccD2hNvo.s 			page 80


 4460 04a2 11       		.uleb128 0x11
 4461 04a3 E9000000 		.4byte	0xe9
 4462 04a7 B2040000 		.4byte	0x4b2
 4463 04ab 12       		.uleb128 0x12
 4464 04ac AD000000 		.4byte	0xad
 4465 04b0 0F       		.byte	0xf
 4466 04b1 00       		.byte	0
 4467 04b2 13       		.uleb128 0x13
 4468 04b3 98       		.byte	0x98
 4469 04b4 0E       		.byte	0xe
 4470 04b5 C002     		.2byte	0x2c0
 4471 04b7 A9060000 		.4byte	0x6a9
 4472 04bb 0A       		.uleb128 0xa
 4473 04bc 435200   		.ascii	"CR\000"
 4474 04bf 0E       		.byte	0xe
 4475 04c0 C202     		.2byte	0x2c2
 4476 04c2 8D040000 		.4byte	0x48d
 4477 04c6 00       		.byte	0
 4478 04c7 0B       		.uleb128 0xb
 4479 04c8 84030000 		.4byte	.LASF85
 4480 04cc 0E       		.byte	0xe
 4481 04cd C302     		.2byte	0x2c3
 4482 04cf 8D040000 		.4byte	0x48d
 4483 04d3 04       		.byte	0x4
 4484 04d4 0B       		.uleb128 0xb
 4485 04d5 F10C0000 		.4byte	.LASF86
 4486 04d9 0E       		.byte	0xe
 4487 04da C402     		.2byte	0x2c4
 4488 04dc 8D040000 		.4byte	0x48d
 4489 04e0 08       		.byte	0x8
 4490 04e1 0B       		.uleb128 0xb
 4491 04e2 20080000 		.4byte	.LASF87
 4492 04e6 0E       		.byte	0xe
 4493 04e7 C502     		.2byte	0x2c5
 4494 04e9 8D040000 		.4byte	0x48d
 4495 04ed 0C       		.byte	0xc
 4496 04ee 0B       		.uleb128 0xb
 4497 04ef 7C090000 		.4byte	.LASF88
 4498 04f3 0E       		.byte	0xe
 4499 04f4 C602     		.2byte	0x2c6
 4500 04f6 8D040000 		.4byte	0x48d
 4501 04fa 10       		.byte	0x10
 4502 04fb 0B       		.uleb128 0xb
 4503 04fc E3030000 		.4byte	.LASF89
 4504 0500 0E       		.byte	0xe
 4505 0501 C702     		.2byte	0x2c7
 4506 0503 8D040000 		.4byte	0x48d
 4507 0507 14       		.byte	0x14
 4508 0508 0B       		.uleb128 0xb
 4509 0509 C1040000 		.4byte	.LASF90
 4510 050d 0E       		.byte	0xe
 4511 050e C802     		.2byte	0x2c8
 4512 0510 8D040000 		.4byte	0x48d
 4513 0514 18       		.byte	0x18
 4514 0515 0B       		.uleb128 0xb
 4515 0516 C70E0000 		.4byte	.LASF91
 4516 051a 0E       		.byte	0xe
ARM GAS  /tmp/ccD2hNvo.s 			page 81


 4517 051b C902     		.2byte	0x2c9
 4518 051d 8D040000 		.4byte	0x48d
 4519 0521 1C       		.byte	0x1c
 4520 0522 0B       		.uleb128 0xb
 4521 0523 950B0000 		.4byte	.LASF92
 4522 0527 0E       		.byte	0xe
 4523 0528 CA02     		.2byte	0x2ca
 4524 052a 8D040000 		.4byte	0x48d
 4525 052e 20       		.byte	0x20
 4526 052f 0B       		.uleb128 0xb
 4527 0530 D1010000 		.4byte	.LASF93
 4528 0534 0E       		.byte	0xe
 4529 0535 CB02     		.2byte	0x2cb
 4530 0537 E9000000 		.4byte	0xe9
 4531 053b 24       		.byte	0x24
 4532 053c 0B       		.uleb128 0xb
 4533 053d 21110000 		.4byte	.LASF94
 4534 0541 0E       		.byte	0xe
 4535 0542 CC02     		.2byte	0x2cc
 4536 0544 8D040000 		.4byte	0x48d
 4537 0548 28       		.byte	0x28
 4538 0549 0B       		.uleb128 0xb
 4539 054a 4D0B0000 		.4byte	.LASF95
 4540 054e 0E       		.byte	0xe
 4541 054f CD02     		.2byte	0x2cd
 4542 0551 8D040000 		.4byte	0x48d
 4543 0555 2C       		.byte	0x2c
 4544 0556 0B       		.uleb128 0xb
 4545 0557 88050000 		.4byte	.LASF96
 4546 055b 0E       		.byte	0xe
 4547 055c CE02     		.2byte	0x2ce
 4548 055e 8D040000 		.4byte	0x48d
 4549 0562 30       		.byte	0x30
 4550 0563 0B       		.uleb128 0xb
 4551 0564 BA0B0000 		.4byte	.LASF97
 4552 0568 0E       		.byte	0xe
 4553 0569 CF02     		.2byte	0x2cf
 4554 056b E9000000 		.4byte	0xe9
 4555 056f 34       		.byte	0x34
 4556 0570 0B       		.uleb128 0xb
 4557 0571 47060000 		.4byte	.LASF98
 4558 0575 0E       		.byte	0xe
 4559 0576 D002     		.2byte	0x2d0
 4560 0578 8D040000 		.4byte	0x48d
 4561 057c 38       		.byte	0x38
 4562 057d 0B       		.uleb128 0xb
 4563 057e 51060000 		.4byte	.LASF99
 4564 0582 0E       		.byte	0xe
 4565 0583 D102     		.2byte	0x2d1
 4566 0585 8D040000 		.4byte	0x48d
 4567 0589 3C       		.byte	0x3c
 4568 058a 0B       		.uleb128 0xb
 4569 058b 3C010000 		.4byte	.LASF100
 4570 058f 0E       		.byte	0xe
 4571 0590 D202     		.2byte	0x2d2
 4572 0592 8D040000 		.4byte	0x48d
 4573 0596 40       		.byte	0x40
ARM GAS  /tmp/ccD2hNvo.s 			page 82


 4574 0597 0B       		.uleb128 0xb
 4575 0598 C40B0000 		.4byte	.LASF101
 4576 059c 0E       		.byte	0xe
 4577 059d D302     		.2byte	0x2d3
 4578 059f E9000000 		.4byte	0xe9
 4579 05a3 44       		.byte	0x44
 4580 05a4 0B       		.uleb128 0xb
 4581 05a5 7E040000 		.4byte	.LASF102
 4582 05a9 0E       		.byte	0xe
 4583 05aa D402     		.2byte	0x2d4
 4584 05ac 8D040000 		.4byte	0x48d
 4585 05b0 48       		.byte	0x48
 4586 05b1 0B       		.uleb128 0xb
 4587 05b2 100E0000 		.4byte	.LASF103
 4588 05b6 0E       		.byte	0xe
 4589 05b7 D502     		.2byte	0x2d5
 4590 05b9 8D040000 		.4byte	0x48d
 4591 05bd 4C       		.byte	0x4c
 4592 05be 0B       		.uleb128 0xb
 4593 05bf 0B070000 		.4byte	.LASF104
 4594 05c3 0E       		.byte	0xe
 4595 05c4 D602     		.2byte	0x2d6
 4596 05c6 8D040000 		.4byte	0x48d
 4597 05ca 50       		.byte	0x50
 4598 05cb 0B       		.uleb128 0xb
 4599 05cc CE0B0000 		.4byte	.LASF105
 4600 05d0 0E       		.byte	0xe
 4601 05d1 D702     		.2byte	0x2d7
 4602 05d3 E9000000 		.4byte	0xe9
 4603 05d7 54       		.byte	0x54
 4604 05d8 0B       		.uleb128 0xb
 4605 05d9 3A0D0000 		.4byte	.LASF106
 4606 05dd 0E       		.byte	0xe
 4607 05de D802     		.2byte	0x2d8
 4608 05e0 8D040000 		.4byte	0x48d
 4609 05e4 58       		.byte	0x58
 4610 05e5 0B       		.uleb128 0xb
 4611 05e6 430D0000 		.4byte	.LASF107
 4612 05ea 0E       		.byte	0xe
 4613 05eb D902     		.2byte	0x2d9
 4614 05ed 8D040000 		.4byte	0x48d
 4615 05f1 5C       		.byte	0x5c
 4616 05f2 0B       		.uleb128 0xb
 4617 05f3 9E0C0000 		.4byte	.LASF108
 4618 05f7 0E       		.byte	0xe
 4619 05f8 DA02     		.2byte	0x2da
 4620 05fa 8D040000 		.4byte	0x48d
 4621 05fe 60       		.byte	0x60
 4622 05ff 0B       		.uleb128 0xb
 4623 0600 D80B0000 		.4byte	.LASF109
 4624 0604 0E       		.byte	0xe
 4625 0605 DB02     		.2byte	0x2db
 4626 0607 E9000000 		.4byte	0xe9
 4627 060b 64       		.byte	0x64
 4628 060c 0B       		.uleb128 0xb
 4629 060d 70060000 		.4byte	.LASF110
 4630 0611 0E       		.byte	0xe
ARM GAS  /tmp/ccD2hNvo.s 			page 83


 4631 0612 DC02     		.2byte	0x2dc
 4632 0614 8D040000 		.4byte	0x48d
 4633 0618 68       		.byte	0x68
 4634 0619 0B       		.uleb128 0xb
 4635 061a D2100000 		.4byte	.LASF111
 4636 061e 0E       		.byte	0xe
 4637 061f DD02     		.2byte	0x2dd
 4638 0621 8D040000 		.4byte	0x48d
 4639 0625 6C       		.byte	0x6c
 4640 0626 0B       		.uleb128 0xb
 4641 0627 110D0000 		.4byte	.LASF112
 4642 062b 0E       		.byte	0xe
 4643 062c DE02     		.2byte	0x2de
 4644 062e 8D040000 		.4byte	0x48d
 4645 0632 70       		.byte	0x70
 4646 0633 0B       		.uleb128 0xb
 4647 0634 E20B0000 		.4byte	.LASF113
 4648 0638 0E       		.byte	0xe
 4649 0639 DF02     		.2byte	0x2df
 4650 063b E9000000 		.4byte	0xe9
 4651 063f 74       		.byte	0x74
 4652 0640 0B       		.uleb128 0xb
 4653 0641 A90A0000 		.4byte	.LASF114
 4654 0645 0E       		.byte	0xe
 4655 0646 E002     		.2byte	0x2e0
 4656 0648 8D040000 		.4byte	0x48d
 4657 064c 78       		.byte	0x78
 4658 064d 0B       		.uleb128 0xb
 4659 064e B40A0000 		.4byte	.LASF115
 4660 0652 0E       		.byte	0xe
 4661 0653 E102     		.2byte	0x2e1
 4662 0655 8D040000 		.4byte	0x48d
 4663 0659 7C       		.byte	0x7c
 4664 065a 0B       		.uleb128 0xb
 4665 065b 090F0000 		.4byte	.LASF116
 4666 065f 0E       		.byte	0xe
 4667 0660 E202     		.2byte	0x2e2
 4668 0662 8D040000 		.4byte	0x48d
 4669 0666 80       		.byte	0x80
 4670 0667 0B       		.uleb128 0xb
 4671 0668 EC0B0000 		.4byte	.LASF117
 4672 066c 0E       		.byte	0xe
 4673 066d E302     		.2byte	0x2e3
 4674 066f E9000000 		.4byte	0xe9
 4675 0673 84       		.byte	0x84
 4676 0674 0B       		.uleb128 0xb
 4677 0675 DC0A0000 		.4byte	.LASF118
 4678 0679 0E       		.byte	0xe
 4679 067a E402     		.2byte	0x2e4
 4680 067c 8D040000 		.4byte	0x48d
 4681 0680 88       		.byte	0x88
 4682 0681 0B       		.uleb128 0xb
 4683 0682 94100000 		.4byte	.LASF119
 4684 0686 0E       		.byte	0xe
 4685 0687 E502     		.2byte	0x2e5
 4686 0689 8D040000 		.4byte	0x48d
 4687 068d 8C       		.byte	0x8c
ARM GAS  /tmp/ccD2hNvo.s 			page 84


 4688 068e 0B       		.uleb128 0xb
 4689 068f 35020000 		.4byte	.LASF120
 4690 0693 0E       		.byte	0xe
 4691 0694 E602     		.2byte	0x2e6
 4692 0696 8D040000 		.4byte	0x48d
 4693 069a 90       		.byte	0x90
 4694 069b 0A       		.uleb128 0xa
 4695 069c 43535200 		.ascii	"CSR\000"
 4696 06a0 0E       		.byte	0xe
 4697 06a1 E702     		.2byte	0x2e7
 4698 06a3 8D040000 		.4byte	0x48d
 4699 06a7 94       		.byte	0x94
 4700 06a8 00       		.byte	0
 4701 06a9 14       		.uleb128 0x14
 4702 06aa 80020000 		.4byte	.LASF121
 4703 06ae 0E       		.byte	0xe
 4704 06af E802     		.2byte	0x2e8
 4705 06b1 B2040000 		.4byte	0x4b2
 4706 06b5 03       		.uleb128 0x3
 4707 06b6 03010000 		.4byte	.LASF122
 4708 06ba 0F       		.byte	0xf
 4709 06bb 65       		.byte	0x65
 4710 06bc B4000000 		.4byte	0xb4
 4711 06c0 03       		.uleb128 0x3
 4712 06c1 DA0F0000 		.4byte	.LASF123
 4713 06c5 0F       		.byte	0xf
 4714 06c6 6D       		.byte	0x6d
 4715 06c7 F4000000 		.4byte	0xf4
 4716 06cb 08       		.uleb128 0x8
 4717 06cc 25090000 		.4byte	.LASF124
 4718 06d0 04       		.byte	0x4
 4719 06d1 0F       		.byte	0xf
 4720 06d2 89       		.byte	0x89
 4721 06d3 E4060000 		.4byte	0x6e4
 4722 06d7 15       		.uleb128 0x15
 4723 06d8 72313300 		.ascii	"r13\000"
 4724 06dc 0F       		.byte	0xf
 4725 06dd 8A       		.byte	0x8a
 4726 06de 5F070000 		.4byte	0x75f
 4727 06e2 00       		.byte	0
 4728 06e3 00       		.byte	0
 4729 06e4 08       		.uleb128 0x8
 4730 06e5 300C0000 		.4byte	.LASF125
 4731 06e9 24       		.byte	0x24
 4732 06ea 01       		.byte	0x1
 4733 06eb FD       		.byte	0xfd
 4734 06ec 5F070000 		.4byte	0x75f
 4735 06f0 0A       		.uleb128 0xa
 4736 06f1 723400   		.ascii	"r4\000"
 4737 06f4 01       		.byte	0x1
 4738 06f5 1001     		.2byte	0x110
 4739 06f7 B5060000 		.4byte	0x6b5
 4740 06fb 00       		.byte	0
 4741 06fc 0A       		.uleb128 0xa
 4742 06fd 723500   		.ascii	"r5\000"
 4743 0700 01       		.byte	0x1
 4744 0701 1101     		.2byte	0x111
ARM GAS  /tmp/ccD2hNvo.s 			page 85


 4745 0703 B5060000 		.4byte	0x6b5
 4746 0707 04       		.byte	0x4
 4747 0708 0A       		.uleb128 0xa
 4748 0709 723600   		.ascii	"r6\000"
 4749 070c 01       		.byte	0x1
 4750 070d 1201     		.2byte	0x112
 4751 070f B5060000 		.4byte	0x6b5
 4752 0713 08       		.byte	0x8
 4753 0714 0A       		.uleb128 0xa
 4754 0715 723700   		.ascii	"r7\000"
 4755 0718 01       		.byte	0x1
 4756 0719 1301     		.2byte	0x113
 4757 071b B5060000 		.4byte	0x6b5
 4758 071f 0C       		.byte	0xc
 4759 0720 0A       		.uleb128 0xa
 4760 0721 723800   		.ascii	"r8\000"
 4761 0724 01       		.byte	0x1
 4762 0725 1401     		.2byte	0x114
 4763 0727 B5060000 		.4byte	0x6b5
 4764 072b 10       		.byte	0x10
 4765 072c 0A       		.uleb128 0xa
 4766 072d 723900   		.ascii	"r9\000"
 4767 0730 01       		.byte	0x1
 4768 0731 1501     		.2byte	0x115
 4769 0733 B5060000 		.4byte	0x6b5
 4770 0737 14       		.byte	0x14
 4771 0738 0A       		.uleb128 0xa
 4772 0739 72313000 		.ascii	"r10\000"
 4773 073d 01       		.byte	0x1
 4774 073e 1601     		.2byte	0x116
 4775 0740 B5060000 		.4byte	0x6b5
 4776 0744 18       		.byte	0x18
 4777 0745 0A       		.uleb128 0xa
 4778 0746 72313100 		.ascii	"r11\000"
 4779 074a 01       		.byte	0x1
 4780 074b 1701     		.2byte	0x117
 4781 074d B5060000 		.4byte	0x6b5
 4782 0751 1C       		.byte	0x1c
 4783 0752 0A       		.uleb128 0xa
 4784 0753 6C7200   		.ascii	"lr\000"
 4785 0756 01       		.byte	0x1
 4786 0757 1801     		.2byte	0x118
 4787 0759 B5060000 		.4byte	0x6b5
 4788 075d 20       		.byte	0x20
 4789 075e 00       		.byte	0
 4790 075f 06       		.uleb128 0x6
 4791 0760 04       		.byte	0x4
 4792 0761 E4060000 		.4byte	0x6e4
 4793 0765 16       		.uleb128 0x16
 4794 0766 04       		.byte	0x4
 4795 0767 10       		.byte	0x10
 4796 0768 38       		.byte	0x38
 4797 0769 7A070000 		.4byte	0x77a
 4798 076d 09       		.uleb128 0x9
 4799 076e 5B060000 		.4byte	.LASF126
 4800 0772 10       		.byte	0x10
 4801 0773 3C       		.byte	0x3c
ARM GAS  /tmp/ccD2hNvo.s 			page 86


 4802 0774 FF000000 		.4byte	0xff
 4803 0778 00       		.byte	0
 4804 0779 00       		.byte	0
 4805 077a 03       		.uleb128 0x3
 4806 077b 35000000 		.4byte	.LASF127
 4807 077f 10       		.byte	0x10
 4808 0780 3D       		.byte	0x3d
 4809 0781 65070000 		.4byte	0x765
 4810 0785 17       		.uleb128 0x17
 4811 0786 04       		.byte	0x4
 4812 0787 0D       		.byte	0xd
 4813 0788 FA       		.byte	0xfa
 4814 0789 E2070000 		.4byte	0x7e2
 4815 078d 18       		.uleb128 0x18
 4816 078e 2D060000 		.4byte	.LASF128
 4817 0792 0D       		.byte	0xd
 4818 0793 0101     		.2byte	0x101
 4819 0795 41010000 		.4byte	0x141
 4820 0799 18       		.uleb128 0x18
 4821 079a FC100000 		.4byte	.LASF129
 4822 079e 0D       		.byte	0xd
 4823 079f 0801     		.2byte	0x108
 4824 07a1 41010000 		.4byte	0x141
 4825 07a5 18       		.uleb128 0x18
 4826 07a6 94020000 		.4byte	.LASF130
 4827 07aa 0D       		.byte	0xd
 4828 07ab 0F01     		.2byte	0x10f
 4829 07ad B4000000 		.4byte	0xb4
 4830 07b1 18       		.uleb128 0x18
 4831 07b2 5E0F0000 		.4byte	.LASF131
 4832 07b6 0D       		.byte	0xd
 4833 07b7 1601     		.2byte	0x116
 4834 07b9 E2070000 		.4byte	0x7e2
 4835 07bd 18       		.uleb128 0x18
 4836 07be 330E0000 		.4byte	.LASF132
 4837 07c2 0D       		.byte	0xd
 4838 07c3 1E01     		.2byte	0x11e
 4839 07c5 0D080000 		.4byte	0x80d
 4840 07c9 18       		.uleb128 0x18
 4841 07ca 2E000000 		.4byte	.LASF133
 4842 07ce 0D       		.byte	0xd
 4843 07cf 2701     		.2byte	0x127
 4844 07d1 44080000 		.4byte	0x844
 4845 07d5 18       		.uleb128 0x18
 4846 07d6 0E030000 		.4byte	.LASF134
 4847 07da 0D       		.byte	0xd
 4848 07db 2F01     		.2byte	0x12f
 4849 07dd 4C010000 		.4byte	0x14c
 4850 07e1 00       		.byte	0
 4851 07e2 06       		.uleb128 0x6
 4852 07e3 04       		.byte	0x4
 4853 07e4 71020000 		.4byte	0x271
 4854 07e8 08       		.uleb128 0x8
 4855 07e9 3A0E0000 		.4byte	.LASF135
 4856 07ed 0C       		.byte	0xc
 4857 07ee 11       		.byte	0x11
 4858 07ef 34       		.byte	0x34
ARM GAS  /tmp/ccD2hNvo.s 			page 87


 4859 07f0 0D080000 		.4byte	0x80d
 4860 07f4 09       		.uleb128 0x9
 4861 07f5 1B0D0000 		.4byte	.LASF136
 4862 07f9 11       		.byte	0x11
 4863 07fa 35       		.byte	0x35
 4864 07fb A6020000 		.4byte	0x2a6
 4865 07ff 00       		.byte	0
 4866 0800 09       		.uleb128 0x9
 4867 0801 A0030000 		.4byte	.LASF137
 4868 0805 11       		.byte	0x11
 4869 0806 37       		.byte	0x37
 4870 0807 57010000 		.4byte	0x157
 4871 080b 08       		.byte	0x8
 4872 080c 00       		.byte	0
 4873 080d 06       		.uleb128 0x6
 4874 080e 04       		.byte	0x4
 4875 080f E8070000 		.4byte	0x7e8
 4876 0813 08       		.uleb128 0x8
 4877 0814 98060000 		.4byte	.LASF138
 4878 0818 10       		.byte	0x10
 4879 0819 12       		.byte	0x12
 4880 081a 39       		.byte	0x39
 4881 081b 44080000 		.4byte	0x844
 4882 081f 09       		.uleb128 0x9
 4883 0820 110C0000 		.4byte	.LASF139
 4884 0824 12       		.byte	0x12
 4885 0825 3A       		.byte	0x3a
 4886 0826 A6020000 		.4byte	0x2a6
 4887 082a 00       		.byte	0
 4888 082b 09       		.uleb128 0x9
 4889 082c 9A010000 		.4byte	.LASF140
 4890 0830 12       		.byte	0x12
 4891 0831 3C       		.byte	0x3c
 4892 0832 7C020000 		.4byte	0x27c
 4893 0836 08       		.byte	0x8
 4894 0837 09       		.uleb128 0x9
 4895 0838 870F0000 		.4byte	.LASF141
 4896 083c 12       		.byte	0x12
 4897 083d 3E       		.byte	0x3e
 4898 083e 75080000 		.4byte	0x875
 4899 0842 0C       		.byte	0xc
 4900 0843 00       		.byte	0
 4901 0844 06       		.uleb128 0x6
 4902 0845 04       		.byte	0x4
 4903 0846 13080000 		.4byte	0x813
 4904 084a 06       		.uleb128 0x6
 4905 084b 04       		.byte	0x4
 4906 084c 59030000 		.4byte	0x359
 4907 0850 10       		.uleb128 0x10
 4908 0851 62010000 		.4byte	0x162
 4909 0855 10       		.uleb128 0x10
 4910 0856 BD000000 		.4byte	0xbd
 4911 085a 11       		.uleb128 0x11
 4912 085b C0060000 		.4byte	0x6c0
 4913 085f 6A080000 		.4byte	0x86a
 4914 0863 12       		.uleb128 0x12
 4915 0864 AD000000 		.4byte	0xad
ARM GAS  /tmp/ccD2hNvo.s 			page 88


 4916 0868 1A       		.byte	0x1a
 4917 0869 00       		.byte	0
 4918 086a 03       		.uleb128 0x3
 4919 086b 510E0000 		.4byte	.LASF142
 4920 086f 12       		.byte	0x12
 4921 0870 34       		.byte	0x34
 4922 0871 13080000 		.4byte	0x813
 4923 0875 06       		.uleb128 0x6
 4924 0876 04       		.byte	0x4
 4925 0877 6A080000 		.4byte	0x86a
 4926 087b 06       		.uleb128 0x6
 4927 087c 04       		.byte	0x4
 4928 087d C8000000 		.4byte	0xc8
 4929 0881 06       		.uleb128 0x6
 4930 0882 04       		.byte	0x4
 4931 0883 87080000 		.4byte	0x887
 4932 0887 07       		.uleb128 0x7
 4933 0888 C8000000 		.4byte	0xc8
 4934 088c 06       		.uleb128 0x6
 4935 088d 04       		.byte	0x4
 4936 088e 8D040000 		.4byte	0x48d
 4937 0892 04       		.uleb128 0x4
 4938 0893 01       		.byte	0x1
 4939 0894 02       		.byte	0x2
 4940 0895 7A060000 		.4byte	.LASF143
 4941 0899 14       		.uleb128 0x14
 4942 089a AE0F0000 		.4byte	.LASF144
 4943 089e 13       		.byte	0x13
 4944 089f 0001     		.2byte	0x100
 4945 08a1 A5080000 		.4byte	0x8a5
 4946 08a5 0F       		.uleb128 0xf
 4947 08a6 AE0F0000 		.4byte	.LASF144
 4948 08aa D001     		.2byte	0x1d0
 4949 08ac 14       		.byte	0x14
 4950 08ad 9501     		.2byte	0x195
 4951 08af DE090000 		.4byte	0x9de
 4952 08b3 0B       		.uleb128 0xb
 4953 08b4 240F0000 		.4byte	.LASF145
 4954 08b8 14       		.byte	0x14
 4955 08b9 9901     		.2byte	0x199
 4956 08bb 180A0000 		.4byte	0xa18
 4957 08bf 00       		.byte	0
 4958 08c0 0B       		.uleb128 0xb
 4959 08c1 A80B0000 		.4byte	.LASF146
 4960 08c5 14       		.byte	0x14
 4961 08c6 9D01     		.2byte	0x19d
 4962 08c8 9F120000 		.4byte	0x129f
 4963 08cc 04       		.byte	0x4
 4964 08cd 0B       		.uleb128 0xb
 4965 08ce 1F050000 		.4byte	.LASF147
 4966 08d2 14       		.byte	0x14
 4967 08d3 A101     		.2byte	0x1a1
 4968 08d5 D3000000 		.4byte	0xd3
 4969 08d9 08       		.byte	0x8
 4970 08da 0B       		.uleb128 0xb
 4971 08db 4A090000 		.4byte	.LASF148
 4972 08df 14       		.byte	0x14
ARM GAS  /tmp/ccD2hNvo.s 			page 89


 4973 08e0 A501     		.2byte	0x1a5
 4974 08e2 D3000000 		.4byte	0xd3
 4975 08e6 0A       		.byte	0xa
 4976 08e7 0A       		.uleb128 0xa
 4977 08e8 65706300 		.ascii	"epc\000"
 4978 08ec 14       		.byte	0x14
 4979 08ed A901     		.2byte	0x1a9
 4980 08ef AA120000 		.4byte	0x12aa
 4981 08f3 0C       		.byte	0xc
 4982 08f4 0B       		.uleb128 0xb
 4983 08f5 88090000 		.4byte	.LASF149
 4984 08f9 14       		.byte	0x14
 4985 08fa B001     		.2byte	0x1b0
 4986 08fc C5120000 		.4byte	0x12c5
 4987 0900 24       		.byte	0x24
 4988 0901 0B       		.uleb128 0xb
 4989 0902 060C0000 		.4byte	.LASF150
 4990 0906 14       		.byte	0x14
 4991 0907 B701     		.2byte	0x1b7
 4992 0909 C5120000 		.4byte	0x12c5
 4993 090d 38       		.byte	0x38
 4994 090e 0B       		.uleb128 0xb
 4995 090f F30A0000 		.4byte	.LASF151
 4996 0913 14       		.byte	0x14
 4997 0914 BB01     		.2byte	0x1bb
 4998 0916 800A0000 		.4byte	0xa80
 4999 091a 4C       		.byte	0x4c
 5000 091b 0B       		.uleb128 0xb
 5001 091c EE070000 		.4byte	.LASF152
 5002 0920 14       		.byte	0x14
 5003 0921 BF01     		.2byte	0x1bf
 5004 0923 7B080000 		.4byte	0x87b
 5005 0927 50       		.byte	0x50
 5006 0928 0B       		.uleb128 0xb
 5007 0929 2D090000 		.4byte	.LASF153
 5008 092d 14       		.byte	0x14
 5009 092e C301     		.2byte	0x1c3
 5010 0930 2C000000 		.4byte	0x2c
 5011 0934 54       		.byte	0x54
 5012 0935 0B       		.uleb128 0xb
 5013 0936 9B020000 		.4byte	.LASF154
 5014 093a 14       		.byte	0x14
 5015 093b C701     		.2byte	0x1c7
 5016 093d FC0A0000 		.4byte	0xafc
 5017 0941 58       		.byte	0x58
 5018 0942 0B       		.uleb128 0xb
 5019 0943 97040000 		.4byte	.LASF155
 5020 0947 14       		.byte	0x14
 5021 0948 CB01     		.2byte	0x1cb
 5022 094a D5120000 		.4byte	0x12d5
 5023 094e 5C       		.byte	0x5c
 5024 094f 0B       		.uleb128 0xb
 5025 0950 30080000 		.4byte	.LASF156
 5026 0954 14       		.byte	0x14
 5027 0955 CF01     		.2byte	0x1cf
 5028 0957 D3000000 		.4byte	0xd3
 5029 095b 64       		.byte	0x64
ARM GAS  /tmp/ccD2hNvo.s 			page 90


 5030 095c 0B       		.uleb128 0xb
 5031 095d EC0D0000 		.4byte	.LASF157
 5032 0961 14       		.byte	0x14
 5033 0962 D301     		.2byte	0x1d3
 5034 0964 C8000000 		.4byte	0xc8
 5035 0968 66       		.byte	0x66
 5036 0969 0B       		.uleb128 0xb
 5037 096a 62060000 		.4byte	.LASF158
 5038 096e 14       		.byte	0x14
 5039 096f D701     		.2byte	0x1d7
 5040 0971 C8000000 		.4byte	0xc8
 5041 0975 67       		.byte	0x67
 5042 0976 0B       		.uleb128 0xb
 5043 0977 650C0000 		.4byte	.LASF159
 5044 097b 14       		.byte	0x14
 5045 097c DB01     		.2byte	0x1db
 5046 097e 180A0000 		.4byte	0xa18
 5047 0982 68       		.byte	0x68
 5048 0983 0A       		.uleb128 0xa
 5049 0984 6F746700 		.ascii	"otg\000"
 5050 0988 14       		.byte	0x14
 5051 0989 E301     		.2byte	0x1e3
 5052 098b E5120000 		.4byte	0x12e5
 5053 098f 6C       		.byte	0x6c
 5054 0990 0B       		.uleb128 0xb
 5055 0991 FF0F0000 		.4byte	.LASF160
 5056 0995 14       		.byte	0x14
 5057 0996 E701     		.2byte	0x1e7
 5058 0998 EB120000 		.4byte	0x12eb
 5059 099c 70       		.byte	0x70
 5060 099d 0B       		.uleb128 0xb
 5061 099e 7D0E0000 		.4byte	.LASF161
 5062 09a2 14       		.byte	0x14
 5063 09a3 EB01     		.2byte	0x1eb
 5064 09a5 E9000000 		.4byte	0xe9
 5065 09a9 74       		.byte	0x74
 5066 09aa 0B       		.uleb128 0xb
 5067 09ab BD0E0000 		.4byte	.LASF162
 5068 09af 14       		.byte	0x14
 5069 09b0 EF01     		.2byte	0x1ef
 5070 09b2 E9000000 		.4byte	0xe9
 5071 09b6 78       		.byte	0x78
 5072 09b7 0B       		.uleb128 0xb
 5073 09b8 620A0000 		.4byte	.LASF163
 5074 09bc 14       		.byte	0x14
 5075 09bd F301     		.2byte	0x1f3
 5076 09bf 71020000 		.4byte	0x271
 5077 09c3 7C       		.byte	0x7c
 5078 09c4 0A       		.uleb128 0xa
 5079 09c5 747200   		.ascii	"tr\000"
 5080 09c8 14       		.byte	0x14
 5081 09c9 F801     		.2byte	0x1f8
 5082 09cb 71020000 		.4byte	0x271
 5083 09cf 80       		.byte	0x80
 5084 09d0 0B       		.uleb128 0xb
 5085 09d1 75100000 		.4byte	.LASF164
 5086 09d5 14       		.byte	0x14
ARM GAS  /tmp/ccD2hNvo.s 			page 91


 5087 09d6 FC01     		.2byte	0x1fc
 5088 09d8 F6120000 		.4byte	0x12f6
 5089 09dc 88       		.byte	0x88
 5090 09dd 00       		.byte	0
 5091 09de 14       		.uleb128 0x14
 5092 09df B50E0000 		.4byte	.LASF165
 5093 09e3 13       		.byte	0x13
 5094 09e4 0501     		.2byte	0x105
 5095 09e6 C8000000 		.4byte	0xc8
 5096 09ea 19       		.uleb128 0x19
 5097 09eb 01       		.byte	0x1
 5098 09ec 13       		.byte	0x13
 5099 09ed 0A01     		.2byte	0x10a
 5100 09ef 180A0000 		.4byte	0xa18
 5101 09f3 1A       		.uleb128 0x1a
 5102 09f4 20010000 		.4byte	.LASF166
 5103 09f8 00       		.sleb128 0
 5104 09f9 1A       		.uleb128 0x1a
 5105 09fa 05110000 		.4byte	.LASF167
 5106 09fe 01       		.sleb128 1
 5107 09ff 1A       		.uleb128 0x1a
 5108 0a00 4C010000 		.4byte	.LASF168
 5109 0a04 02       		.sleb128 2
 5110 0a05 1A       		.uleb128 0x1a
 5111 0a06 230D0000 		.4byte	.LASF169
 5112 0a0a 03       		.sleb128 3
 5113 0a0b 1A       		.uleb128 0x1a
 5114 0a0c 1C070000 		.4byte	.LASF170
 5115 0a10 04       		.sleb128 4
 5116 0a11 1A       		.uleb128 0x1a
 5117 0a12 170A0000 		.4byte	.LASF171
 5118 0a16 05       		.sleb128 5
 5119 0a17 00       		.byte	0
 5120 0a18 14       		.uleb128 0x14
 5121 0a19 B7080000 		.4byte	.LASF172
 5122 0a1d 13       		.byte	0x13
 5123 0a1e 1101     		.2byte	0x111
 5124 0a20 EA090000 		.4byte	0x9ea
 5125 0a24 19       		.uleb128 0x19
 5126 0a25 01       		.byte	0x1
 5127 0a26 13       		.byte	0x13
 5128 0a27 1601     		.2byte	0x116
 5129 0a29 400A0000 		.4byte	0xa40
 5130 0a2d 1A       		.uleb128 0x1a
 5131 0a2e 9D040000 		.4byte	.LASF173
 5132 0a32 00       		.sleb128 0
 5133 0a33 1A       		.uleb128 0x1a
 5134 0a34 05050000 		.4byte	.LASF174
 5135 0a38 01       		.sleb128 1
 5136 0a39 1A       		.uleb128 0x1a
 5137 0a3a 610D0000 		.4byte	.LASF175
 5138 0a3e 02       		.sleb128 2
 5139 0a3f 00       		.byte	0
 5140 0a40 14       		.uleb128 0x14
 5141 0a41 D7070000 		.4byte	.LASF176
 5142 0a45 13       		.byte	0x13
 5143 0a46 1A01     		.2byte	0x11a
ARM GAS  /tmp/ccD2hNvo.s 			page 92


 5144 0a48 240A0000 		.4byte	0xa24
 5145 0a4c 19       		.uleb128 0x19
 5146 0a4d 01       		.byte	0x1
 5147 0a4e 13       		.byte	0x13
 5148 0a4f 1F01     		.2byte	0x11f
 5149 0a51 800A0000 		.4byte	0xa80
 5150 0a55 1A       		.uleb128 0x1a
 5151 0a56 8A030000 		.4byte	.LASF177
 5152 0a5a 00       		.sleb128 0
 5153 0a5b 1A       		.uleb128 0x1a
 5154 0a5c DB010000 		.4byte	.LASF178
 5155 0a60 01       		.sleb128 1
 5156 0a61 1A       		.uleb128 0x1a
 5157 0a62 C6040000 		.4byte	.LASF179
 5158 0a66 02       		.sleb128 2
 5159 0a67 1A       		.uleb128 0x1a
 5160 0a68 B6060000 		.4byte	.LASF180
 5161 0a6c 03       		.sleb128 3
 5162 0a6d 1A       		.uleb128 0x1a
 5163 0a6e A7100000 		.4byte	.LASF181
 5164 0a72 04       		.sleb128 4
 5165 0a73 1A       		.uleb128 0x1a
 5166 0a74 2E100000 		.4byte	.LASF182
 5167 0a78 05       		.sleb128 5
 5168 0a79 1A       		.uleb128 0x1a
 5169 0a7a 9A0E0000 		.4byte	.LASF183
 5170 0a7e 06       		.sleb128 6
 5171 0a7f 00       		.byte	0
 5172 0a80 14       		.uleb128 0x14
 5173 0a81 C4100000 		.4byte	.LASF184
 5174 0a85 13       		.byte	0x13
 5175 0a86 2701     		.2byte	0x127
 5176 0a88 4C0A0000 		.4byte	0xa4c
 5177 0a8c 19       		.uleb128 0x19
 5178 0a8d 01       		.byte	0x1
 5179 0a8e 13       		.byte	0x13
 5180 0a8f 2C01     		.2byte	0x12c
 5181 0a91 C00A0000 		.4byte	0xac0
 5182 0a95 1A       		.uleb128 0x1a
 5183 0a96 47030000 		.4byte	.LASF185
 5184 0a9a 00       		.sleb128 0
 5185 0a9b 1A       		.uleb128 0x1a
 5186 0a9c 49070000 		.4byte	.LASF186
 5187 0aa0 01       		.sleb128 1
 5188 0aa1 1A       		.uleb128 0x1a
 5189 0aa2 74080000 		.4byte	.LASF187
 5190 0aa6 02       		.sleb128 2
 5191 0aa7 1A       		.uleb128 0x1a
 5192 0aa8 670A0000 		.4byte	.LASF188
 5193 0aac 03       		.sleb128 3
 5194 0aad 1A       		.uleb128 0x1a
 5195 0aae 5D010000 		.4byte	.LASF189
 5196 0ab2 04       		.sleb128 4
 5197 0ab3 1A       		.uleb128 0x1a
 5198 0ab4 130F0000 		.4byte	.LASF190
 5199 0ab8 05       		.sleb128 5
 5200 0ab9 1A       		.uleb128 0x1a
ARM GAS  /tmp/ccD2hNvo.s 			page 93


 5201 0aba DD090000 		.4byte	.LASF191
 5202 0abe 06       		.sleb128 6
 5203 0abf 00       		.byte	0
 5204 0ac0 14       		.uleb128 0x14
 5205 0ac1 84100000 		.4byte	.LASF192
 5206 0ac5 13       		.byte	0x13
 5207 0ac6 3401     		.2byte	0x134
 5208 0ac8 8C0A0000 		.4byte	0xa8c
 5209 0acc 13       		.uleb128 0x13
 5210 0acd 08       		.byte	0x8
 5211 0ace 13       		.byte	0x13
 5212 0acf 3901     		.2byte	0x139
 5213 0ad1 F00A0000 		.4byte	0xaf0
 5214 0ad5 0B       		.uleb128 0xb
 5215 0ad6 AB020000 		.4byte	.LASF193
 5216 0ada 13       		.byte	0x13
 5217 0adb 3D01     		.2byte	0x13d
 5218 0add 2C000000 		.4byte	0x2c
 5219 0ae1 00       		.byte	0
 5220 0ae2 0B       		.uleb128 0xb
 5221 0ae3 FA0E0000 		.4byte	.LASF194
 5222 0ae7 13       		.byte	0x13
 5223 0ae8 4101     		.2byte	0x141
 5224 0aea 81080000 		.4byte	0x881
 5225 0aee 04       		.byte	0x4
 5226 0aef 00       		.byte	0
 5227 0af0 14       		.uleb128 0x14
 5228 0af1 880A0000 		.4byte	.LASF195
 5229 0af5 13       		.byte	0x13
 5230 0af6 4201     		.2byte	0x142
 5231 0af8 CC0A0000 		.4byte	0xacc
 5232 0afc 14       		.uleb128 0x14
 5233 0afd DC100000 		.4byte	.LASF196
 5234 0b01 13       		.byte	0x13
 5235 0b02 4A01     		.2byte	0x14a
 5236 0b04 080B0000 		.4byte	0xb08
 5237 0b08 06       		.uleb128 0x6
 5238 0b09 04       		.byte	0x4
 5239 0b0a 0E0B0000 		.4byte	0xb0e
 5240 0b0e 0D       		.uleb128 0xd
 5241 0b0f 190B0000 		.4byte	0xb19
 5242 0b13 0E       		.uleb128 0xe
 5243 0b14 190B0000 		.4byte	0xb19
 5244 0b18 00       		.byte	0
 5245 0b19 06       		.uleb128 0x6
 5246 0b1a 04       		.byte	0x4
 5247 0b1b 99080000 		.4byte	0x899
 5248 0b1f 14       		.uleb128 0x14
 5249 0b20 510D0000 		.4byte	.LASF197
 5250 0b24 13       		.byte	0x13
 5251 0b25 5301     		.2byte	0x153
 5252 0b27 2B0B0000 		.4byte	0xb2b
 5253 0b2b 06       		.uleb128 0x6
 5254 0b2c 04       		.byte	0x4
 5255 0b2d 310B0000 		.4byte	0xb31
 5256 0b31 0D       		.uleb128 0xd
 5257 0b32 410B0000 		.4byte	0xb41
ARM GAS  /tmp/ccD2hNvo.s 			page 94


 5258 0b36 0E       		.uleb128 0xe
 5259 0b37 190B0000 		.4byte	0xb19
 5260 0b3b 0E       		.uleb128 0xe
 5261 0b3c DE090000 		.4byte	0x9de
 5262 0b40 00       		.byte	0
 5263 0b41 14       		.uleb128 0x14
 5264 0b42 B3020000 		.4byte	.LASF198
 5265 0b46 13       		.byte	0x13
 5266 0b47 5C01     		.2byte	0x15c
 5267 0b49 4D0B0000 		.4byte	0xb4d
 5268 0b4d 06       		.uleb128 0x6
 5269 0b4e 04       		.byte	0x4
 5270 0b4f 530B0000 		.4byte	0xb53
 5271 0b53 0D       		.uleb128 0xd
 5272 0b54 630B0000 		.4byte	0xb63
 5273 0b58 0E       		.uleb128 0xe
 5274 0b59 190B0000 		.4byte	0xb19
 5275 0b5d 0E       		.uleb128 0xe
 5276 0b5e C00A0000 		.4byte	0xac0
 5277 0b62 00       		.byte	0
 5278 0b63 14       		.uleb128 0x14
 5279 0b64 30110000 		.4byte	.LASF199
 5280 0b68 13       		.byte	0x13
 5281 0b69 6801     		.2byte	0x168
 5282 0b6b 6F0B0000 		.4byte	0xb6f
 5283 0b6f 06       		.uleb128 0x6
 5284 0b70 04       		.byte	0x4
 5285 0b71 750B0000 		.4byte	0xb75
 5286 0b75 1B       		.uleb128 0x1b
 5287 0b76 92080000 		.4byte	0x892
 5288 0b7a 840B0000 		.4byte	0xb84
 5289 0b7e 0E       		.uleb128 0xe
 5290 0b7f 190B0000 		.4byte	0xb19
 5291 0b83 00       		.byte	0
 5292 0b84 14       		.uleb128 0x14
 5293 0b85 7A0C0000 		.4byte	.LASF200
 5294 0b89 13       		.byte	0x13
 5295 0b8a 6D01     		.2byte	0x16d
 5296 0b8c 900B0000 		.4byte	0xb90
 5297 0b90 06       		.uleb128 0x6
 5298 0b91 04       		.byte	0x4
 5299 0b92 960B0000 		.4byte	0xb96
 5300 0b96 1B       		.uleb128 0x1b
 5301 0b97 B40B0000 		.4byte	0xbb4
 5302 0b9b B40B0000 		.4byte	0xbb4
 5303 0b9f 0E       		.uleb128 0xe
 5304 0ba0 190B0000 		.4byte	0xb19
 5305 0ba4 0E       		.uleb128 0xe
 5306 0ba5 C8000000 		.4byte	0xc8
 5307 0ba9 0E       		.uleb128 0xe
 5308 0baa C8000000 		.4byte	0xc8
 5309 0bae 0E       		.uleb128 0xe
 5310 0baf D3000000 		.4byte	0xd3
 5311 0bb3 00       		.byte	0
 5312 0bb4 06       		.uleb128 0x6
 5313 0bb5 04       		.byte	0x4
 5314 0bb6 BA0B0000 		.4byte	0xbba
ARM GAS  /tmp/ccD2hNvo.s 			page 95


 5315 0bba 07       		.uleb128 0x7
 5316 0bbb F00A0000 		.4byte	0xaf0
 5317 0bbf 16       		.uleb128 0x16
 5318 0bc0 20       		.byte	0x20
 5319 0bc1 15       		.byte	0x15
 5320 0bc2 35       		.byte	0x35
 5321 0bc3 280C0000 		.4byte	0xc28
 5322 0bc7 09       		.uleb128 0x9
 5323 0bc8 A1060000 		.4byte	.LASF201
 5324 0bcc 15       		.byte	0x15
 5325 0bcd 36       		.byte	0x36
 5326 0bce 8D040000 		.4byte	0x48d
 5327 0bd2 00       		.byte	0
 5328 0bd3 09       		.uleb128 0x9
 5329 0bd4 56010000 		.4byte	.LASF202
 5330 0bd8 15       		.byte	0x15
 5331 0bd9 38       		.byte	0x38
 5332 0bda 8D040000 		.4byte	0x48d
 5333 0bde 04       		.byte	0x4
 5334 0bdf 09       		.uleb128 0x9
 5335 0be0 F60B0000 		.4byte	.LASF203
 5336 0be4 15       		.byte	0x15
 5337 0be5 39       		.byte	0x39
 5338 0be6 8D040000 		.4byte	0x48d
 5339 0bea 08       		.byte	0x8
 5340 0beb 09       		.uleb128 0x9
 5341 0bec 7E070000 		.4byte	.LASF204
 5342 0bf0 15       		.byte	0x15
 5343 0bf1 3A       		.byte	0x3a
 5344 0bf2 8D040000 		.4byte	0x48d
 5345 0bf6 0C       		.byte	0xc
 5346 0bf7 09       		.uleb128 0x9
 5347 0bf8 8C010000 		.4byte	.LASF205
 5348 0bfc 15       		.byte	0x15
 5349 0bfd 3C       		.byte	0x3c
 5350 0bfe 8D040000 		.4byte	0x48d
 5351 0c02 10       		.byte	0x10
 5352 0c03 09       		.uleb128 0x9
 5353 0c04 3A020000 		.4byte	.LASF206
 5354 0c08 15       		.byte	0x15
 5355 0c09 3E       		.byte	0x3e
 5356 0c0a 8D040000 		.4byte	0x48d
 5357 0c0e 14       		.byte	0x14
 5358 0c0f 09       		.uleb128 0x9
 5359 0c10 4A020000 		.4byte	.LASF207
 5360 0c14 15       		.byte	0x15
 5361 0c15 3F       		.byte	0x3f
 5362 0c16 8D040000 		.4byte	0x48d
 5363 0c1a 18       		.byte	0x18
 5364 0c1b 09       		.uleb128 0x9
 5365 0c1c 15030000 		.4byte	.LASF208
 5366 0c20 15       		.byte	0x15
 5367 0c21 40       		.byte	0x40
 5368 0c22 8D040000 		.4byte	0x48d
 5369 0c26 1C       		.byte	0x1c
 5370 0c27 00       		.byte	0
 5371 0c28 03       		.uleb128 0x3
ARM GAS  /tmp/ccD2hNvo.s 			page 96


 5372 0c29 A6090000 		.4byte	.LASF209
 5373 0c2d 15       		.byte	0x15
 5374 0c2e 41       		.byte	0x41
 5375 0c2f BF0B0000 		.4byte	0xbbf
 5376 0c33 16       		.uleb128 0x16
 5377 0c34 20       		.byte	0x20
 5378 0c35 15       		.byte	0x15
 5379 0c36 46       		.byte	0x46
 5380 0c37 9C0C0000 		.4byte	0xc9c
 5381 0c3b 09       		.uleb128 0x9
 5382 0c3c 5D0C0000 		.4byte	.LASF210
 5383 0c40 15       		.byte	0x15
 5384 0c41 47       		.byte	0x47
 5385 0c42 8D040000 		.4byte	0x48d
 5386 0c46 00       		.byte	0
 5387 0c47 09       		.uleb128 0x9
 5388 0c48 45010000 		.4byte	.LASF211
 5389 0c4c 15       		.byte	0x15
 5390 0c4d 49       		.byte	0x49
 5391 0c4e 8D040000 		.4byte	0x48d
 5392 0c52 04       		.byte	0x4
 5393 0c53 09       		.uleb128 0x9
 5394 0c54 2A0F0000 		.4byte	.LASF212
 5395 0c58 15       		.byte	0x15
 5396 0c59 4A       		.byte	0x4a
 5397 0c5a 8D040000 		.4byte	0x48d
 5398 0c5e 08       		.byte	0x8
 5399 0c5f 09       		.uleb128 0x9
 5400 0c60 93010000 		.4byte	.LASF213
 5401 0c64 15       		.byte	0x15
 5402 0c65 4C       		.byte	0x4c
 5403 0c66 8D040000 		.4byte	0x48d
 5404 0c6a 0C       		.byte	0xc
 5405 0c6b 09       		.uleb128 0x9
 5406 0c6c 25000000 		.4byte	.LASF214
 5407 0c70 15       		.byte	0x15
 5408 0c71 4D       		.byte	0x4d
 5409 0c72 8D040000 		.4byte	0x48d
 5410 0c76 10       		.byte	0x10
 5411 0c77 09       		.uleb128 0x9
 5412 0c78 3A020000 		.4byte	.LASF206
 5413 0c7c 15       		.byte	0x15
 5414 0c7d 4F       		.byte	0x4f
 5415 0c7e 8D040000 		.4byte	0x48d
 5416 0c82 14       		.byte	0x14
 5417 0c83 09       		.uleb128 0x9
 5418 0c84 92090000 		.4byte	.LASF215
 5419 0c88 15       		.byte	0x15
 5420 0c89 50       		.byte	0x50
 5421 0c8a 8D040000 		.4byte	0x48d
 5422 0c8e 18       		.byte	0x18
 5423 0c8f 09       		.uleb128 0x9
 5424 0c90 58020000 		.4byte	.LASF216
 5425 0c94 15       		.byte	0x15
 5426 0c95 52       		.byte	0x52
 5427 0c96 8D040000 		.4byte	0x48d
 5428 0c9a 1C       		.byte	0x1c
ARM GAS  /tmp/ccD2hNvo.s 			page 97


 5429 0c9b 00       		.byte	0
 5430 0c9c 03       		.uleb128 0x3
 5431 0c9d 0F060000 		.4byte	.LASF217
 5432 0ca1 15       		.byte	0x15
 5433 0ca2 53       		.byte	0x53
 5434 0ca3 330C0000 		.4byte	0xc33
 5435 0ca7 16       		.uleb128 0x16
 5436 0ca8 20       		.byte	0x20
 5437 0ca9 15       		.byte	0x15
 5438 0caa 58       		.byte	0x58
 5439 0cab 100D0000 		.4byte	0xd10
 5440 0caf 09       		.uleb128 0x9
 5441 0cb0 EF080000 		.4byte	.LASF218
 5442 0cb4 15       		.byte	0x15
 5443 0cb5 59       		.byte	0x59
 5444 0cb6 8D040000 		.4byte	0x48d
 5445 0cba 00       		.byte	0
 5446 0cbb 09       		.uleb128 0x9
 5447 0cbc 45010000 		.4byte	.LASF211
 5448 0cc0 15       		.byte	0x15
 5449 0cc1 5B       		.byte	0x5b
 5450 0cc2 8D040000 		.4byte	0x48d
 5451 0cc6 04       		.byte	0x4
 5452 0cc7 09       		.uleb128 0x9
 5453 0cc8 E7080000 		.4byte	.LASF219
 5454 0ccc 15       		.byte	0x15
 5455 0ccd 5C       		.byte	0x5c
 5456 0cce 8D040000 		.4byte	0x48d
 5457 0cd2 08       		.byte	0x8
 5458 0cd3 09       		.uleb128 0x9
 5459 0cd4 93010000 		.4byte	.LASF213
 5460 0cd8 15       		.byte	0x15
 5461 0cd9 5E       		.byte	0x5e
 5462 0cda 8D040000 		.4byte	0x48d
 5463 0cde 0C       		.byte	0xc
 5464 0cdf 09       		.uleb128 0x9
 5465 0ce0 DA030000 		.4byte	.LASF220
 5466 0ce4 15       		.byte	0x15
 5467 0ce5 5F       		.byte	0x5f
 5468 0ce6 8D040000 		.4byte	0x48d
 5469 0cea 10       		.byte	0x10
 5470 0ceb 09       		.uleb128 0x9
 5471 0cec 3A020000 		.4byte	.LASF206
 5472 0cf0 15       		.byte	0x15
 5473 0cf1 61       		.byte	0x61
 5474 0cf2 8D040000 		.4byte	0x48d
 5475 0cf6 14       		.byte	0x14
 5476 0cf7 09       		.uleb128 0x9
 5477 0cf8 4A020000 		.4byte	.LASF207
 5478 0cfc 15       		.byte	0x15
 5479 0cfd 62       		.byte	0x62
 5480 0cfe 8D040000 		.4byte	0x48d
 5481 0d02 18       		.byte	0x18
 5482 0d03 09       		.uleb128 0x9
 5483 0d04 58020000 		.4byte	.LASF216
 5484 0d08 15       		.byte	0x15
 5485 0d09 63       		.byte	0x63
ARM GAS  /tmp/ccD2hNvo.s 			page 98


 5486 0d0a 8D040000 		.4byte	0x48d
 5487 0d0e 1C       		.byte	0x1c
 5488 0d0f 00       		.byte	0
 5489 0d10 03       		.uleb128 0x3
 5490 0d11 200E0000 		.4byte	.LASF221
 5491 0d15 15       		.byte	0x15
 5492 0d16 64       		.byte	0x64
 5493 0d17 A70C0000 		.4byte	0xca7
 5494 0d1b 1C       		.uleb128 0x1c
 5495 0d1c 00100100 		.4byte	0x11000
 5496 0d20 15       		.byte	0x15
 5497 0d21 69       		.byte	0x69
 5498 0d22 F80F0000 		.4byte	0xff8
 5499 0d26 09       		.uleb128 0x9
 5500 0d27 830D0000 		.4byte	.LASF222
 5501 0d2b 15       		.byte	0x15
 5502 0d2c 6A       		.byte	0x6a
 5503 0d2d 8D040000 		.4byte	0x48d
 5504 0d31 00       		.byte	0
 5505 0d32 09       		.uleb128 0x9
 5506 0d33 7B0D0000 		.4byte	.LASF223
 5507 0d37 15       		.byte	0x15
 5508 0d38 6B       		.byte	0x6b
 5509 0d39 8D040000 		.4byte	0x48d
 5510 0d3d 04       		.byte	0x4
 5511 0d3e 09       		.uleb128 0x9
 5512 0d3f 1E0B0000 		.4byte	.LASF224
 5513 0d43 15       		.byte	0x15
 5514 0d44 6C       		.byte	0x6c
 5515 0d45 8D040000 		.4byte	0x48d
 5516 0d49 08       		.byte	0x8
 5517 0d4a 09       		.uleb128 0x9
 5518 0d4b 3F030000 		.4byte	.LASF225
 5519 0d4f 15       		.byte	0x15
 5520 0d50 6D       		.byte	0x6d
 5521 0d51 8D040000 		.4byte	0x48d
 5522 0d55 0C       		.byte	0xc
 5523 0d56 09       		.uleb128 0x9
 5524 0d57 BE010000 		.4byte	.LASF226
 5525 0d5b 15       		.byte	0x15
 5526 0d5c 6E       		.byte	0x6e
 5527 0d5d 8D040000 		.4byte	0x48d
 5528 0d61 10       		.byte	0x10
 5529 0d62 09       		.uleb128 0x9
 5530 0d63 42020000 		.4byte	.LASF227
 5531 0d67 15       		.byte	0x15
 5532 0d68 6F       		.byte	0x6f
 5533 0d69 8D040000 		.4byte	0x48d
 5534 0d6d 14       		.byte	0x14
 5535 0d6e 09       		.uleb128 0x9
 5536 0d6f 1D030000 		.4byte	.LASF228
 5537 0d73 15       		.byte	0x15
 5538 0d74 70       		.byte	0x70
 5539 0d75 8D040000 		.4byte	0x48d
 5540 0d79 18       		.byte	0x18
 5541 0d7a 09       		.uleb128 0x9
 5542 0d7b FC0D0000 		.4byte	.LASF229
ARM GAS  /tmp/ccD2hNvo.s 			page 99


 5543 0d7f 15       		.byte	0x15
 5544 0d80 71       		.byte	0x71
 5545 0d81 8D040000 		.4byte	0x48d
 5546 0d85 1C       		.byte	0x1c
 5547 0d86 09       		.uleb128 0x9
 5548 0d87 F40D0000 		.4byte	.LASF230
 5549 0d8b 15       		.byte	0x15
 5550 0d8c 73       		.byte	0x73
 5551 0d8d 8D040000 		.4byte	0x48d
 5552 0d91 20       		.byte	0x20
 5553 0d92 09       		.uleb128 0x9
 5554 0d93 17050000 		.4byte	.LASF231
 5555 0d97 15       		.byte	0x15
 5556 0d98 75       		.byte	0x75
 5557 0d99 8D040000 		.4byte	0x48d
 5558 0d9d 24       		.byte	0x24
 5559 0d9e 09       		.uleb128 0x9
 5560 0d9f 720D0000 		.4byte	.LASF232
 5561 0da3 15       		.byte	0x15
 5562 0da4 76       		.byte	0x76
 5563 0da5 8D040000 		.4byte	0x48d
 5564 0da9 28       		.byte	0x28
 5565 0daa 09       		.uleb128 0x9
 5566 0dab BB090000 		.4byte	.LASF233
 5567 0daf 15       		.byte	0x15
 5568 0db0 78       		.byte	0x78
 5569 0db1 8D040000 		.4byte	0x48d
 5570 0db5 2C       		.byte	0x2c
 5571 0db6 09       		.uleb128 0x9
 5572 0db7 76040000 		.4byte	.LASF234
 5573 0dbb 15       		.byte	0x15
 5574 0dbc 7A       		.byte	0x7a
 5575 0dbd 8D040000 		.4byte	0x48d
 5576 0dc1 30       		.byte	0x30
 5577 0dc2 09       		.uleb128 0x9
 5578 0dc3 14020000 		.4byte	.LASF235
 5579 0dc7 15       		.byte	0x15
 5580 0dc8 7B       		.byte	0x7b
 5581 0dc9 8D040000 		.4byte	0x48d
 5582 0dcd 34       		.byte	0x34
 5583 0dce 09       		.uleb128 0x9
 5584 0dcf 52020000 		.4byte	.LASF236
 5585 0dd3 15       		.byte	0x15
 5586 0dd4 7C       		.byte	0x7c
 5587 0dd5 8D040000 		.4byte	0x48d
 5588 0dd9 38       		.byte	0x38
 5589 0dda 15       		.uleb128 0x15
 5590 0ddb 43494400 		.ascii	"CID\000"
 5591 0ddf 15       		.byte	0x15
 5592 0de0 7D       		.byte	0x7d
 5593 0de1 8D040000 		.4byte	0x48d
 5594 0de5 3C       		.byte	0x3c
 5595 0de6 09       		.uleb128 0x9
 5596 0de7 A8060000 		.4byte	.LASF237
 5597 0deb 15       		.byte	0x15
 5598 0dec 7E       		.byte	0x7e
 5599 0ded 08100000 		.4byte	0x1008
ARM GAS  /tmp/ccD2hNvo.s 			page 100


 5600 0df1 40       		.byte	0x40
 5601 0df2 1D       		.uleb128 0x1d
 5602 0df3 870B0000 		.4byte	.LASF238
 5603 0df7 15       		.byte	0x15
 5604 0df8 7F       		.byte	0x7f
 5605 0df9 8D040000 		.4byte	0x48d
 5606 0dfd 0001     		.2byte	0x100
 5607 0dff 1D       		.uleb128 0x1d
 5608 0e00 4A0F0000 		.4byte	.LASF239
 5609 0e04 15       		.byte	0x15
 5610 0e05 81       		.byte	0x81
 5611 0e06 0D100000 		.4byte	0x100d
 5612 0e0a 0401     		.2byte	0x104
 5613 0e0c 1D       		.uleb128 0x1d
 5614 0e0d D1030000 		.4byte	.LASF240
 5615 0e11 15       		.byte	0x15
 5616 0e12 83       		.byte	0x83
 5617 0e13 22100000 		.4byte	0x1022
 5618 0e17 4001     		.2byte	0x140
 5619 0e19 1D       		.uleb128 0x1d
 5620 0e1a 8D060000 		.4byte	.LASF241
 5621 0e1e 15       		.byte	0x15
 5622 0e1f 84       		.byte	0x84
 5623 0e20 8D040000 		.4byte	0x48d
 5624 0e24 0004     		.2byte	0x400
 5625 0e26 1D       		.uleb128 0x1d
 5626 0e27 450F0000 		.4byte	.LASF242
 5627 0e2b 15       		.byte	0x15
 5628 0e2c 85       		.byte	0x85
 5629 0e2d 8D040000 		.4byte	0x48d
 5630 0e31 0404     		.2byte	0x404
 5631 0e33 1D       		.uleb128 0x1d
 5632 0e34 A80E0000 		.4byte	.LASF243
 5633 0e38 15       		.byte	0x15
 5634 0e39 86       		.byte	0x86
 5635 0e3a 8D040000 		.4byte	0x48d
 5636 0e3e 0804     		.2byte	0x408
 5637 0e40 1D       		.uleb128 0x1d
 5638 0e41 F9020000 		.4byte	.LASF244
 5639 0e45 15       		.byte	0x15
 5640 0e46 88       		.byte	0x88
 5641 0e47 8D040000 		.4byte	0x48d
 5642 0e4b 0C04     		.2byte	0x40c
 5643 0e4d 1D       		.uleb128 0x1d
 5644 0e4e C4090000 		.4byte	.LASF245
 5645 0e52 15       		.byte	0x15
 5646 0e53 89       		.byte	0x89
 5647 0e54 8D040000 		.4byte	0x48d
 5648 0e58 1004     		.2byte	0x410
 5649 0e5a 1D       		.uleb128 0x1d
 5650 0e5b 32090000 		.4byte	.LASF246
 5651 0e5f 15       		.byte	0x15
 5652 0e60 8B       		.byte	0x8b
 5653 0e61 8D040000 		.4byte	0x48d
 5654 0e65 1404     		.2byte	0x414
 5655 0e67 1D       		.uleb128 0x1d
 5656 0e68 5B070000 		.4byte	.LASF247
ARM GAS  /tmp/ccD2hNvo.s 			page 101


 5657 0e6c 15       		.byte	0x15
 5658 0e6d 8D       		.byte	0x8d
 5659 0e6e 8D040000 		.4byte	0x48d
 5660 0e72 1804     		.2byte	0x418
 5661 0e74 1D       		.uleb128 0x1d
 5662 0e75 710C0000 		.4byte	.LASF248
 5663 0e79 15       		.byte	0x15
 5664 0e7a 8F       		.byte	0x8f
 5665 0e7b 37100000 		.4byte	0x1037
 5666 0e7f 1C04     		.2byte	0x41c
 5667 0e81 1D       		.uleb128 0x1d
 5668 0e82 BD050000 		.4byte	.LASF249
 5669 0e86 15       		.byte	0x15
 5670 0e87 90       		.byte	0x90
 5671 0e88 8D040000 		.4byte	0x48d
 5672 0e8c 4004     		.2byte	0x440
 5673 0e8e 1D       		.uleb128 0x1d
 5674 0e8f 13070000 		.4byte	.LASF250
 5675 0e93 15       		.byte	0x15
 5676 0e94 92       		.byte	0x92
 5677 0e95 4C100000 		.4byte	0x104c
 5678 0e99 4404     		.2byte	0x444
 5679 0e9b 1E       		.uleb128 0x1e
 5680 0e9c 686300   		.ascii	"hc\000"
 5681 0e9f 15       		.byte	0x15
 5682 0ea0 93       		.byte	0x93
 5683 0ea1 51100000 		.4byte	0x1051
 5684 0ea5 0005     		.2byte	0x500
 5685 0ea7 1D       		.uleb128 0x1d
 5686 0ea8 DE050000 		.4byte	.LASF251
 5687 0eac 15       		.byte	0x15
 5688 0ead 94       		.byte	0x94
 5689 0eae 71100000 		.4byte	0x1071
 5690 0eb2 0007     		.2byte	0x700
 5691 0eb4 1D       		.uleb128 0x1d
 5692 0eb5 1B010000 		.4byte	.LASF252
 5693 0eb9 15       		.byte	0x15
 5694 0eba 95       		.byte	0x95
 5695 0ebb 8D040000 		.4byte	0x48d
 5696 0ebf 0008     		.2byte	0x800
 5697 0ec1 1D       		.uleb128 0x1d
 5698 0ec2 8F100000 		.4byte	.LASF253
 5699 0ec6 15       		.byte	0x15
 5700 0ec7 96       		.byte	0x96
 5701 0ec8 8D040000 		.4byte	0x48d
 5702 0ecc 0408     		.2byte	0x804
 5703 0ece 1D       		.uleb128 0x1d
 5704 0ecf 21060000 		.4byte	.LASF254
 5705 0ed3 15       		.byte	0x15
 5706 0ed4 97       		.byte	0x97
 5707 0ed5 8D040000 		.4byte	0x48d
 5708 0ed9 0808     		.2byte	0x808
 5709 0edb 1D       		.uleb128 0x1d
 5710 0edc C10C0000 		.4byte	.LASF255
 5711 0ee0 15       		.byte	0x15
 5712 0ee1 98       		.byte	0x98
 5713 0ee2 8D040000 		.4byte	0x48d
ARM GAS  /tmp/ccD2hNvo.s 			page 102


 5714 0ee6 0C08     		.2byte	0x80c
 5715 0ee8 1D       		.uleb128 0x1d
 5716 0ee9 BC0D0000 		.4byte	.LASF256
 5717 0eed 15       		.byte	0x15
 5718 0eee 99       		.byte	0x99
 5719 0eef 8D040000 		.4byte	0x48d
 5720 0ef3 1008     		.2byte	0x810
 5721 0ef5 1D       		.uleb128 0x1d
 5722 0ef6 41070000 		.4byte	.LASF257
 5723 0efa 15       		.byte	0x15
 5724 0efb 9B       		.byte	0x9b
 5725 0efc 8D040000 		.4byte	0x48d
 5726 0f00 1408     		.2byte	0x814
 5727 0f02 1D       		.uleb128 0x1d
 5728 0f03 20100000 		.4byte	.LASF258
 5729 0f07 15       		.byte	0x15
 5730 0f08 9D       		.byte	0x9d
 5731 0f09 8D040000 		.4byte	0x48d
 5732 0f0d 1808     		.2byte	0x818
 5733 0f0f 1D       		.uleb128 0x1d
 5734 0f10 8B0D0000 		.4byte	.LASF259
 5735 0f14 15       		.byte	0x15
 5736 0f15 9F       		.byte	0x9f
 5737 0f16 8D040000 		.4byte	0x48d
 5738 0f1a 1C08     		.2byte	0x81c
 5739 0f1c 1D       		.uleb128 0x1d
 5740 0f1d 740E0000 		.4byte	.LASF260
 5741 0f21 15       		.byte	0x15
 5742 0f22 A1       		.byte	0xa1
 5743 0f23 8D040000 		.4byte	0x48d
 5744 0f27 2008     		.2byte	0x820
 5745 0f29 1D       		.uleb128 0x1d
 5746 0f2a 910E0000 		.4byte	.LASF261
 5747 0f2e 15       		.byte	0x15
 5748 0f2f A2       		.byte	0xa2
 5749 0f30 8D040000 		.4byte	0x48d
 5750 0f34 2408     		.2byte	0x824
 5751 0f36 1D       		.uleb128 0x1d
 5752 0f37 36030000 		.4byte	.LASF262
 5753 0f3b 15       		.byte	0x15
 5754 0f3c A3       		.byte	0xa3
 5755 0f3d 8D040000 		.4byte	0x48d
 5756 0f41 2808     		.2byte	0x828
 5757 0f43 1D       		.uleb128 0x1d
 5758 0f44 4D0A0000 		.4byte	.LASF263
 5759 0f48 15       		.byte	0x15
 5760 0f49 A5       		.byte	0xa5
 5761 0f4a 8D040000 		.4byte	0x48d
 5762 0f4e 2C08     		.2byte	0x82c
 5763 0f50 1D       		.uleb128 0x1d
 5764 0f51 700F0000 		.4byte	.LASF264
 5765 0f55 15       		.byte	0x15
 5766 0f56 A7       		.byte	0xa7
 5767 0f57 8D040000 		.4byte	0x48d
 5768 0f5b 3008     		.2byte	0x830
 5769 0f5d 1D       		.uleb128 0x1d
 5770 0f5e 02040000 		.4byte	.LASF265
ARM GAS  /tmp/ccD2hNvo.s 			page 103


 5771 0f62 15       		.byte	0x15
 5772 0f63 A8       		.byte	0xa8
 5773 0f64 8D040000 		.4byte	0x48d
 5774 0f68 3408     		.2byte	0x834
 5775 0f6a 1D       		.uleb128 0x1d
 5776 0f6b 38070000 		.4byte	.LASF266
 5777 0f6f 15       		.byte	0x15
 5778 0f70 AA       		.byte	0xaa
 5779 0f71 8D040000 		.4byte	0x48d
 5780 0f75 3808     		.2byte	0x838
 5781 0f77 1D       		.uleb128 0x1d
 5782 0f78 B80F0000 		.4byte	.LASF267
 5783 0f7c 15       		.byte	0x15
 5784 0f7d AB       		.byte	0xab
 5785 0f7e 8D040000 		.4byte	0x48d
 5786 0f82 3C08     		.2byte	0x83c
 5787 0f84 1D       		.uleb128 0x1d
 5788 0f85 9E100000 		.4byte	.LASF268
 5789 0f89 15       		.byte	0x15
 5790 0f8a AC       		.byte	0xac
 5791 0f8b 76100000 		.4byte	0x1076
 5792 0f8f 4008     		.2byte	0x840
 5793 0f91 1D       		.uleb128 0x1d
 5794 0f92 8E040000 		.4byte	.LASF269
 5795 0f96 15       		.byte	0x15
 5796 0f97 AD       		.byte	0xad
 5797 0f98 7B100000 		.4byte	0x107b
 5798 0f9c 8008     		.2byte	0x880
 5799 0f9e 1D       		.uleb128 0x1d
 5800 0f9f 6C100000 		.4byte	.LASF270
 5801 0fa3 15       		.byte	0x15
 5802 0fa4 AE       		.byte	0xae
 5803 0fa5 80100000 		.4byte	0x1080
 5804 0fa9 C008     		.2byte	0x8c0
 5805 0fab 1E       		.uleb128 0x1e
 5806 0fac 696500   		.ascii	"ie\000"
 5807 0faf 15       		.byte	0x15
 5808 0fb0 AF       		.byte	0xaf
 5809 0fb1 85100000 		.4byte	0x1085
 5810 0fb5 0009     		.2byte	0x900
 5811 0fb7 1E       		.uleb128 0x1e
 5812 0fb8 6F6500   		.ascii	"oe\000"
 5813 0fbb 15       		.byte	0x15
 5814 0fbc B0       		.byte	0xb0
 5815 0fbd 95100000 		.4byte	0x1095
 5816 0fc1 000B     		.2byte	0xb00
 5817 0fc3 1D       		.uleb128 0x1d
 5818 0fc4 45080000 		.4byte	.LASF271
 5819 0fc8 15       		.byte	0x15
 5820 0fc9 B1       		.byte	0xb1
 5821 0fca A5100000 		.4byte	0x10a5
 5822 0fce 000D     		.2byte	0xd00
 5823 0fd0 1D       		.uleb128 0x1d
 5824 0fd1 790F0000 		.4byte	.LASF272
 5825 0fd5 15       		.byte	0x15
 5826 0fd6 B2       		.byte	0xb2
 5827 0fd7 8D040000 		.4byte	0x48d
ARM GAS  /tmp/ccD2hNvo.s 			page 104


 5828 0fdb 000E     		.2byte	0xe00
 5829 0fdd 1D       		.uleb128 0x1d
 5830 0fde F10E0000 		.4byte	.LASF273
 5831 0fe2 15       		.byte	0x15
 5832 0fe3 B4       		.byte	0xb4
 5833 0fe4 BA100000 		.4byte	0x10ba
 5834 0fe8 040E     		.2byte	0xe04
 5835 0fea 1D       		.uleb128 0x1d
 5836 0feb 120A0000 		.4byte	.LASF274
 5837 0fef 15       		.byte	0x15
 5838 0ff0 B5       		.byte	0xb5
 5839 0ff1 D6100000 		.4byte	0x10d6
 5840 0ff5 0010     		.2byte	0x1000
 5841 0ff7 00       		.byte	0
 5842 0ff8 11       		.uleb128 0x11
 5843 0ff9 E9000000 		.4byte	0xe9
 5844 0ffd 08100000 		.4byte	0x1008
 5845 1001 12       		.uleb128 0x12
 5846 1002 AD000000 		.4byte	0xad
 5847 1006 2F       		.byte	0x2f
 5848 1007 00       		.byte	0
 5849 1008 10       		.uleb128 0x10
 5850 1009 F80F0000 		.4byte	0xff8
 5851 100d 10       		.uleb128 0x10
 5852 100e 92040000 		.4byte	0x492
 5853 1012 11       		.uleb128 0x11
 5854 1013 E9000000 		.4byte	0xe9
 5855 1017 22100000 		.4byte	0x1022
 5856 101b 12       		.uleb128 0x12
 5857 101c AD000000 		.4byte	0xad
 5858 1020 AF       		.byte	0xaf
 5859 1021 00       		.byte	0
 5860 1022 10       		.uleb128 0x10
 5861 1023 12100000 		.4byte	0x1012
 5862 1027 11       		.uleb128 0x11
 5863 1028 E9000000 		.4byte	0xe9
 5864 102c 37100000 		.4byte	0x1037
 5865 1030 12       		.uleb128 0x12
 5866 1031 AD000000 		.4byte	0xad
 5867 1035 08       		.byte	0x8
 5868 1036 00       		.byte	0
 5869 1037 10       		.uleb128 0x10
 5870 1038 27100000 		.4byte	0x1027
 5871 103c 11       		.uleb128 0x11
 5872 103d E9000000 		.4byte	0xe9
 5873 1041 4C100000 		.4byte	0x104c
 5874 1045 12       		.uleb128 0x12
 5875 1046 AD000000 		.4byte	0xad
 5876 104a 2E       		.byte	0x2e
 5877 104b 00       		.byte	0
 5878 104c 10       		.uleb128 0x10
 5879 104d 3C100000 		.4byte	0x103c
 5880 1051 11       		.uleb128 0x11
 5881 1052 280C0000 		.4byte	0xc28
 5882 1056 61100000 		.4byte	0x1061
 5883 105a 12       		.uleb128 0x12
 5884 105b AD000000 		.4byte	0xad
ARM GAS  /tmp/ccD2hNvo.s 			page 105


 5885 105f 0F       		.byte	0xf
 5886 1060 00       		.byte	0
 5887 1061 11       		.uleb128 0x11
 5888 1062 E9000000 		.4byte	0xe9
 5889 1066 71100000 		.4byte	0x1071
 5890 106a 12       		.uleb128 0x12
 5891 106b AD000000 		.4byte	0xad
 5892 106f 3F       		.byte	0x3f
 5893 1070 00       		.byte	0
 5894 1071 10       		.uleb128 0x10
 5895 1072 61100000 		.4byte	0x1061
 5896 1076 10       		.uleb128 0x10
 5897 1077 A2040000 		.4byte	0x4a2
 5898 107b 10       		.uleb128 0x10
 5899 107c A2040000 		.4byte	0x4a2
 5900 1080 10       		.uleb128 0x10
 5901 1081 A2040000 		.4byte	0x4a2
 5902 1085 11       		.uleb128 0x11
 5903 1086 9C0C0000 		.4byte	0xc9c
 5904 108a 95100000 		.4byte	0x1095
 5905 108e 12       		.uleb128 0x12
 5906 108f AD000000 		.4byte	0xad
 5907 1093 0F       		.byte	0xf
 5908 1094 00       		.byte	0
 5909 1095 11       		.uleb128 0x11
 5910 1096 100D0000 		.4byte	0xd10
 5911 109a A5100000 		.4byte	0x10a5
 5912 109e 12       		.uleb128 0x12
 5913 109f AD000000 		.4byte	0xad
 5914 10a3 0F       		.byte	0xf
 5915 10a4 00       		.byte	0
 5916 10a5 10       		.uleb128 0x10
 5917 10a6 61100000 		.4byte	0x1061
 5918 10aa 11       		.uleb128 0x11
 5919 10ab E9000000 		.4byte	0xe9
 5920 10af BA100000 		.4byte	0x10ba
 5921 10b3 12       		.uleb128 0x12
 5922 10b4 AD000000 		.4byte	0xad
 5923 10b8 7E       		.byte	0x7e
 5924 10b9 00       		.byte	0
 5925 10ba 10       		.uleb128 0x10
 5926 10bb AA100000 		.4byte	0x10aa
 5927 10bf 11       		.uleb128 0x11
 5928 10c0 E9000000 		.4byte	0xe9
 5929 10c4 D6100000 		.4byte	0x10d6
 5930 10c8 12       		.uleb128 0x12
 5931 10c9 AD000000 		.4byte	0xad
 5932 10cd 0F       		.byte	0xf
 5933 10ce 1F       		.uleb128 0x1f
 5934 10cf AD000000 		.4byte	0xad
 5935 10d3 FF03     		.2byte	0x3ff
 5936 10d5 00       		.byte	0
 5937 10d6 10       		.uleb128 0x10
 5938 10d7 BF100000 		.4byte	0x10bf
 5939 10db 03       		.uleb128 0x3
 5940 10dc 260B0000 		.4byte	.LASF275
 5941 10e0 15       		.byte	0x15
ARM GAS  /tmp/ccD2hNvo.s 			page 106


 5942 10e1 B6       		.byte	0xb6
 5943 10e2 1B0D0000 		.4byte	0xd1b
 5944 10e6 16       		.uleb128 0x16
 5945 10e7 0C       		.byte	0xc
 5946 10e8 14       		.byte	0x14
 5947 10e9 F4       		.byte	0xf4
 5948 10ea 13110000 		.4byte	0x1113
 5949 10ee 09       		.uleb128 0x9
 5950 10ef 80060000 		.4byte	.LASF276
 5951 10f3 14       		.byte	0x14
 5952 10f4 F5       		.byte	0xf5
 5953 10f5 E9000000 		.4byte	0xe9
 5954 10f9 00       		.byte	0
 5955 10fa 09       		.uleb128 0x9
 5956 10fb 60020000 		.4byte	.LASF277
 5957 10ff 14       		.byte	0x14
 5958 1100 F6       		.byte	0xf6
 5959 1101 E9000000 		.4byte	0xe9
 5960 1105 04       		.byte	0x4
 5961 1106 09       		.uleb128 0x9
 5962 1107 A6030000 		.4byte	.LASF278
 5963 110b 14       		.byte	0x14
 5964 110c F7       		.byte	0xf7
 5965 110d E9000000 		.4byte	0xe9
 5966 1111 08       		.byte	0x8
 5967 1112 00       		.byte	0
 5968 1113 03       		.uleb128 0x3
 5969 1114 F7080000 		.4byte	.LASF279
 5970 1118 14       		.byte	0x14
 5971 1119 F8       		.byte	0xf8
 5972 111a E6100000 		.4byte	0x10e6
 5973 111e 16       		.uleb128 0x16
 5974 111f 10       		.byte	0x10
 5975 1120 14       		.byte	0x14
 5976 1121 FD       		.byte	0xfd
 5977 1122 5B110000 		.4byte	0x115b
 5978 1126 0B       		.uleb128 0xb
 5979 1127 1E090000 		.4byte	.LASF280
 5980 112b 14       		.byte	0x14
 5981 112c 0101     		.2byte	0x101
 5982 112e 2C000000 		.4byte	0x2c
 5983 1132 00       		.byte	0
 5984 1133 0B       		.uleb128 0xb
 5985 1134 FF040000 		.4byte	.LASF281
 5986 1138 14       		.byte	0x14
 5987 1139 0501     		.2byte	0x105
 5988 113b 2C000000 		.4byte	0x2c
 5989 113f 04       		.byte	0x4
 5990 1140 0B       		.uleb128 0xb
 5991 1141 BB0C0000 		.4byte	.LASF282
 5992 1145 14       		.byte	0x14
 5993 1146 0901     		.2byte	0x109
 5994 1148 81080000 		.4byte	0x881
 5995 114c 08       		.byte	0x8
 5996 114d 0B       		.uleb128 0xb
 5997 114e 0C010000 		.4byte	.LASF283
 5998 1152 14       		.byte	0x14
ARM GAS  /tmp/ccD2hNvo.s 			page 107


 5999 1153 1401     		.2byte	0x114
 6000 1155 2C000000 		.4byte	0x2c
 6001 1159 0C       		.byte	0xc
 6002 115a 00       		.byte	0
 6003 115b 14       		.uleb128 0x14
 6004 115c 9B0F0000 		.4byte	.LASF284
 6005 1160 14       		.byte	0x14
 6006 1161 1501     		.2byte	0x115
 6007 1163 1E110000 		.4byte	0x111e
 6008 1167 13       		.uleb128 0x13
 6009 1168 10       		.byte	0x10
 6010 1169 14       		.byte	0x14
 6011 116a 1A01     		.2byte	0x11a
 6012 116c A5110000 		.4byte	0x11a5
 6013 1170 0B       		.uleb128 0xb
 6014 1171 67030000 		.4byte	.LASF285
 6015 1175 14       		.byte	0x14
 6016 1176 1E01     		.2byte	0x11e
 6017 1178 2C000000 		.4byte	0x2c
 6018 117c 00       		.byte	0
 6019 117d 0B       		.uleb128 0xb
 6020 117e 54100000 		.4byte	.LASF286
 6021 1182 14       		.byte	0x14
 6022 1183 2201     		.2byte	0x122
 6023 1185 2C000000 		.4byte	0x2c
 6024 1189 04       		.byte	0x4
 6025 118a 0B       		.uleb128 0xb
 6026 118b 2A110000 		.4byte	.LASF287
 6027 118f 14       		.byte	0x14
 6028 1190 2601     		.2byte	0x126
 6029 1192 7B080000 		.4byte	0x87b
 6030 1196 08       		.byte	0x8
 6031 1197 0B       		.uleb128 0xb
 6032 1198 0C010000 		.4byte	.LASF283
 6033 119c 14       		.byte	0x14
 6034 119d 3101     		.2byte	0x131
 6035 119f 2C000000 		.4byte	0x2c
 6036 11a3 0C       		.byte	0xc
 6037 11a4 00       		.byte	0
 6038 11a5 14       		.uleb128 0x14
 6039 11a6 3C0C0000 		.4byte	.LASF288
 6040 11aa 14       		.byte	0x14
 6041 11ab 3201     		.2byte	0x132
 6042 11ad 67110000 		.4byte	0x1167
 6043 11b1 13       		.uleb128 0x13
 6044 11b2 24       		.byte	0x24
 6045 11b3 14       		.byte	0x14
 6046 11b4 3801     		.2byte	0x138
 6047 11b6 3D120000 		.4byte	0x123d
 6048 11ba 0B       		.uleb128 0xb
 6049 11bb 8C020000 		.4byte	.LASF289
 6050 11bf 14       		.byte	0x14
 6051 11c0 3C01     		.2byte	0x13c
 6052 11c2 E9000000 		.4byte	0xe9
 6053 11c6 00       		.byte	0
 6054 11c7 0B       		.uleb128 0xb
 6055 11c8 CC0E0000 		.4byte	.LASF290
ARM GAS  /tmp/ccD2hNvo.s 			page 108


 6056 11cc 14       		.byte	0x14
 6057 11cd 4701     		.2byte	0x147
 6058 11cf 1F0B0000 		.4byte	0xb1f
 6059 11d3 04       		.byte	0x4
 6060 11d4 0B       		.uleb128 0xb
 6061 11d5 A60D0000 		.4byte	.LASF291
 6062 11d9 14       		.byte	0x14
 6063 11da 4C01     		.2byte	0x14c
 6064 11dc 1F0B0000 		.4byte	0xb1f
 6065 11e0 08       		.byte	0x8
 6066 11e1 0B       		.uleb128 0xb
 6067 11e2 B6050000 		.4byte	.LASF292
 6068 11e6 14       		.byte	0x14
 6069 11e7 5101     		.2byte	0x151
 6070 11e9 1F0B0000 		.4byte	0xb1f
 6071 11ed 0C       		.byte	0xc
 6072 11ee 0B       		.uleb128 0xb
 6073 11ef 63050000 		.4byte	.LASF293
 6074 11f3 14       		.byte	0x14
 6075 11f4 5601     		.2byte	0x156
 6076 11f6 D3000000 		.4byte	0xd3
 6077 11fa 10       		.byte	0x10
 6078 11fb 0B       		.uleb128 0xb
 6079 11fc 640F0000 		.4byte	.LASF294
 6080 1200 14       		.byte	0x14
 6081 1201 5B01     		.2byte	0x15b
 6082 1203 D3000000 		.4byte	0xd3
 6083 1207 12       		.byte	0x12
 6084 1208 0B       		.uleb128 0xb
 6085 1209 99070000 		.4byte	.LASF295
 6086 120d 14       		.byte	0x14
 6087 120e 6101     		.2byte	0x161
 6088 1210 3D120000 		.4byte	0x123d
 6089 1214 14       		.byte	0x14
 6090 1215 0B       		.uleb128 0xb
 6091 1216 38090000 		.4byte	.LASF296
 6092 121a 14       		.byte	0x14
 6093 121b 6701     		.2byte	0x167
 6094 121d 43120000 		.4byte	0x1243
 6095 1221 18       		.byte	0x18
 6096 1222 0B       		.uleb128 0xb
 6097 1223 09100000 		.4byte	.LASF297
 6098 1227 14       		.byte	0x14
 6099 1228 6E01     		.2byte	0x16e
 6100 122a D3000000 		.4byte	0xd3
 6101 122e 1C       		.byte	0x1c
 6102 122f 0B       		.uleb128 0xb
 6103 1230 430A0000 		.4byte	.LASF298
 6104 1234 14       		.byte	0x14
 6105 1235 7401     		.2byte	0x174
 6106 1237 7B080000 		.4byte	0x87b
 6107 123b 20       		.byte	0x20
 6108 123c 00       		.byte	0
 6109 123d 06       		.uleb128 0x6
 6110 123e 04       		.byte	0x4
 6111 123f 5B110000 		.4byte	0x115b
 6112 1243 06       		.uleb128 0x6
ARM GAS  /tmp/ccD2hNvo.s 			page 109


 6113 1244 04       		.byte	0x4
 6114 1245 A5110000 		.4byte	0x11a5
 6115 1249 14       		.uleb128 0x14
 6116 124a 2C050000 		.4byte	.LASF299
 6117 124e 14       		.byte	0x14
 6118 124f 7501     		.2byte	0x175
 6119 1251 B1110000 		.4byte	0x11b1
 6120 1255 13       		.uleb128 0x13
 6121 1256 10       		.byte	0x10
 6122 1257 14       		.byte	0x14
 6123 1258 7A01     		.2byte	0x17a
 6124 125a 93120000 		.4byte	0x1293
 6125 125e 0B       		.uleb128 0xb
 6126 125f 49050000 		.4byte	.LASF300
 6127 1263 14       		.byte	0x14
 6128 1264 7F01     		.2byte	0x17f
 6129 1266 410B0000 		.4byte	0xb41
 6130 126a 00       		.byte	0
 6131 126b 0B       		.uleb128 0xb
 6132 126c D50E0000 		.4byte	.LASF301
 6133 1270 14       		.byte	0x14
 6134 1271 8401     		.2byte	0x184
 6135 1273 840B0000 		.4byte	0xb84
 6136 1277 04       		.byte	0x4
 6137 1278 0B       		.uleb128 0xb
 6138 1279 A2010000 		.4byte	.LASF302
 6139 127d 14       		.byte	0x14
 6140 127e 8A01     		.2byte	0x18a
 6141 1280 630B0000 		.4byte	0xb63
 6142 1284 08       		.byte	0x8
 6143 1285 0B       		.uleb128 0xb
 6144 1286 9A090000 		.4byte	.LASF303
 6145 128a 14       		.byte	0x14
 6146 128b 8E01     		.2byte	0x18e
 6147 128d FC0A0000 		.4byte	0xafc
 6148 1291 0C       		.byte	0xc
 6149 1292 00       		.byte	0
 6150 1293 14       		.uleb128 0x14
 6151 1294 FC0A0000 		.4byte	.LASF304
 6152 1298 14       		.byte	0x14
 6153 1299 9001     		.2byte	0x190
 6154 129b 55120000 		.4byte	0x1255
 6155 129f 06       		.uleb128 0x6
 6156 12a0 04       		.byte	0x4
 6157 12a1 A5120000 		.4byte	0x12a5
 6158 12a5 07       		.uleb128 0x7
 6159 12a6 93120000 		.4byte	0x1293
 6160 12aa 11       		.uleb128 0x11
 6161 12ab BA120000 		.4byte	0x12ba
 6162 12af BA120000 		.4byte	0x12ba
 6163 12b3 12       		.uleb128 0x12
 6164 12b4 AD000000 		.4byte	0xad
 6165 12b8 05       		.byte	0x5
 6166 12b9 00       		.byte	0
 6167 12ba 06       		.uleb128 0x6
 6168 12bb 04       		.byte	0x4
 6169 12bc C0120000 		.4byte	0x12c0
ARM GAS  /tmp/ccD2hNvo.s 			page 110


 6170 12c0 07       		.uleb128 0x7
 6171 12c1 49120000 		.4byte	0x1249
 6172 12c5 11       		.uleb128 0x11
 6173 12c6 B4000000 		.4byte	0xb4
 6174 12ca D5120000 		.4byte	0x12d5
 6175 12ce 12       		.uleb128 0x12
 6176 12cf AD000000 		.4byte	0xad
 6177 12d3 04       		.byte	0x4
 6178 12d4 00       		.byte	0
 6179 12d5 11       		.uleb128 0x11
 6180 12d6 C8000000 		.4byte	0xc8
 6181 12da E5120000 		.4byte	0x12e5
 6182 12de 12       		.uleb128 0x12
 6183 12df AD000000 		.4byte	0xad
 6184 12e3 07       		.byte	0x7
 6185 12e4 00       		.byte	0
 6186 12e5 06       		.uleb128 0x6
 6187 12e6 04       		.byte	0x4
 6188 12e7 DB100000 		.4byte	0x10db
 6189 12eb 06       		.uleb128 0x6
 6190 12ec 04       		.byte	0x4
 6191 12ed F1120000 		.4byte	0x12f1
 6192 12f1 07       		.uleb128 0x7
 6193 12f2 13110000 		.4byte	0x1113
 6194 12f6 11       		.uleb128 0x11
 6195 12f7 C0060000 		.4byte	0x6c0
 6196 12fb 06130000 		.4byte	0x1306
 6197 12ff 12       		.uleb128 0x12
 6198 1300 AD000000 		.4byte	0xad
 6199 1304 28       		.byte	0x28
 6200 1305 00       		.byte	0
 6201 1306 17       		.uleb128 0x17
 6202 1307 10       		.byte	0x10
 6203 1308 07       		.byte	0x7
 6204 1309 52       		.byte	0x52
 6205 130a 24130000 		.4byte	0x1324
 6206 130e 20       		.uleb128 0x20
 6207 130f 696E00   		.ascii	"in\000"
 6208 1312 07       		.byte	0x7
 6209 1313 56       		.byte	0x56
 6210 1314 5B110000 		.4byte	0x115b
 6211 1318 20       		.uleb128 0x20
 6212 1319 6F757400 		.ascii	"out\000"
 6213 131d 07       		.byte	0x7
 6214 131e 5A       		.byte	0x5a
 6215 131f A5110000 		.4byte	0x11a5
 6216 1323 00       		.byte	0
 6217 1324 21       		.uleb128 0x21
 6218 1325 A60C0000 		.4byte	.LASF378
 6219 1329 02       		.byte	0x2
 6220 132a 2202     		.2byte	0x222
 6221 132c 03       		.byte	0x3
 6222 132d 3E130000 		.4byte	0x133e
 6223 1331 22       		.uleb128 0x22
 6224 1332 99050000 		.4byte	.LASF379
 6225 1336 02       		.byte	0x2
 6226 1337 2202     		.2byte	0x222
ARM GAS  /tmp/ccD2hNvo.s 			page 111


 6227 1339 E9000000 		.4byte	0xe9
 6228 133d 00       		.byte	0
 6229 133e 23       		.uleb128 0x23
 6230 133f F2100000 		.4byte	.LASF305
 6231 1343 01       		.byte	0x1
 6232 1344 C801     		.2byte	0x1c8
 6233 1346 00000000 		.4byte	.LFB127
 6234 134a 10000000 		.4byte	.LFE127-.LFB127
 6235 134e 01       		.uleb128 0x1
 6236 134f 9C       		.byte	0x9c
 6237 1350 6E130000 		.4byte	0x136e
 6238 1354 24       		.uleb128 0x24
 6239 1355 24130000 		.4byte	0x1324
 6240 1359 06000000 		.4byte	.LBB6
 6241 135d 06000000 		.4byte	.LBE6-.LBB6
 6242 1361 01       		.byte	0x1
 6243 1362 D001     		.2byte	0x1d0
 6244 1364 25       		.uleb128 0x25
 6245 1365 31130000 		.4byte	0x1331
 6246 1369 02       		.uleb128 0x2
 6247 136a 91       		.byte	0x91
 6248 136b 7C       		.sleb128 -4
 6249 136c 00       		.byte	0
 6250 136d 00       		.byte	0
 6251 136e 23       		.uleb128 0x23
 6252 136f E7050000 		.4byte	.LASF306
 6253 1373 01       		.byte	0x1
 6254 1374 E001     		.2byte	0x1e0
 6255 1376 10000000 		.4byte	.LFB128
 6256 137a 10000000 		.4byte	.LFE128-.LFB128
 6257 137e 01       		.uleb128 0x1
 6258 137f 9C       		.byte	0x9c
 6259 1380 9E130000 		.4byte	0x139e
 6260 1384 24       		.uleb128 0x24
 6261 1385 24130000 		.4byte	0x1324
 6262 1389 16000000 		.4byte	.LBB8
 6263 138d 06000000 		.4byte	.LBE8-.LBB8
 6264 1391 01       		.byte	0x1
 6265 1392 E301     		.2byte	0x1e3
 6266 1394 25       		.uleb128 0x25
 6267 1395 31130000 		.4byte	0x1331
 6268 1399 02       		.uleb128 0x2
 6269 139a 91       		.byte	0x91
 6270 139b 7C       		.sleb128 -4
 6271 139c 00       		.byte	0
 6272 139d 00       		.byte	0
 6273 139e 26       		.uleb128 0x26
 6274 139f C0020000 		.4byte	.LASF307
 6275 13a3 01       		.byte	0x1
 6276 13a4 EF01     		.2byte	0x1ef
 6277 13a6 20000000 		.4byte	.LFB129
 6278 13aa 08000000 		.4byte	.LFE129-.LFB129
 6279 13ae 01       		.uleb128 0x1
 6280 13af 9C       		.byte	0x9c
 6281 13b0 26       		.uleb128 0x26
 6282 13b1 590E0000 		.4byte	.LASF308
 6283 13b5 01       		.byte	0x1
ARM GAS  /tmp/ccD2hNvo.s 			page 112


 6284 13b6 FA01     		.2byte	0x1fa
 6285 13b8 30000000 		.4byte	.LFB130
 6286 13bc 08000000 		.4byte	.LFE130-.LFB130
 6287 13c0 01       		.uleb128 0x1
 6288 13c1 9C       		.byte	0x9c
 6289 13c2 26       		.uleb128 0x26
 6290 13c3 27070000 		.4byte	.LASF309
 6291 13c7 03       		.byte	0x3
 6292 13c8 5A01     		.2byte	0x15a
 6293 13ca 40000000 		.4byte	.LFB156
 6294 13ce 08000000 		.4byte	.LFE156-.LFB156
 6295 13d2 01       		.uleb128 0x1
 6296 13d3 9C       		.byte	0x9c
 6297 13d4 27       		.uleb128 0x27
 6298 13d5 6E050000 		.4byte	.LASF310
 6299 13d9 03       		.byte	0x3
 6300 13da 6601     		.2byte	0x166
 6301 13dc 50000000 		.4byte	.LFB157
 6302 13e0 08000000 		.4byte	.LFE157-.LFB157
 6303 13e4 01       		.uleb128 0x1
 6304 13e5 9C       		.byte	0x9c
 6305 13e6 F4130000 		.4byte	0x13f4
 6306 13ea 28       		.uleb128 0x28
 6307 13eb 17100000 		.4byte	.LASF313
 6308 13ef 04140000 		.4byte	0x1404
 6309 13f3 00       		.byte	0
 6310 13f4 11       		.uleb128 0x11
 6311 13f5 B6000000 		.4byte	0xb6
 6312 13f9 04140000 		.4byte	0x1404
 6313 13fd 12       		.uleb128 0x12
 6314 13fe AD000000 		.4byte	0xad
 6315 1402 0B       		.byte	0xb
 6316 1403 00       		.byte	0
 6317 1404 07       		.uleb128 0x7
 6318 1405 F4130000 		.4byte	0x13f4
 6319 1409 26       		.uleb128 0x26
 6320 140a 25030000 		.4byte	.LASF311
 6321 140e 03       		.byte	0x3
 6322 140f 8201     		.2byte	0x182
 6323 1411 60000000 		.4byte	.LFB158
 6324 1415 08000000 		.4byte	.LFE158-.LFB158
 6325 1419 01       		.uleb128 0x1
 6326 141a 9C       		.byte	0x9c
 6327 141b 26       		.uleb128 0x26
 6328 141c FC050000 		.4byte	.LASF312
 6329 1420 03       		.byte	0x3
 6330 1421 9601     		.2byte	0x196
 6331 1423 70000000 		.4byte	.LFB159
 6332 1427 08000000 		.4byte	.LFE159-.LFB159
 6333 142b 01       		.uleb128 0x1
 6334 142c 9C       		.byte	0x9c
 6335 142d 29       		.uleb128 0x29
 6336 142e 02030000 		.4byte	.LASF322
 6337 1432 04       		.byte	0x4
 6338 1433 F5       		.byte	0xf5
 6339 1434 7C020000 		.4byte	0x27c
 6340 1438 80000000 		.4byte	.LFB182
ARM GAS  /tmp/ccD2hNvo.s 			page 113


 6341 143c 16000000 		.4byte	.LFE182-.LFB182
 6342 1440 01       		.uleb128 0x1
 6343 1441 9C       		.byte	0x9c
 6344 1442 5D140000 		.4byte	0x145d
 6345 1446 2A       		.uleb128 0x2a
 6346 1447 747000   		.ascii	"tp\000"
 6347 144a 04       		.byte	0x4
 6348 144b F5       		.byte	0xf5
 6349 144c 7C020000 		.4byte	0x27c
 6350 1450 02       		.uleb128 0x2
 6351 1451 91       		.byte	0x91
 6352 1452 74       		.sleb128 -12
 6353 1453 28       		.uleb128 0x28
 6354 1454 17100000 		.4byte	.LASF313
 6355 1458 5D140000 		.4byte	0x145d
 6356 145c 00       		.byte	0
 6357 145d 07       		.uleb128 0x7
 6358 145e F4130000 		.4byte	0x13f4
 6359 1462 2B       		.uleb128 0x2b
 6360 1463 560B0000 		.4byte	.LASF314
 6361 1467 05       		.byte	0x5
 6362 1468 84       		.byte	0x84
 6363 1469 A0000000 		.4byte	.LFB187
 6364 146d 14000000 		.4byte	.LFE187-.LFB187
 6365 1471 01       		.uleb128 0x1
 6366 1472 9C       		.byte	0x9c
 6367 1473 86140000 		.4byte	0x1486
 6368 1477 2C       		.uleb128 0x2c
 6369 1478 4C0D0000 		.4byte	.LASF315
 6370 147c 05       		.byte	0x5
 6371 147d 84       		.byte	0x84
 6372 147e BD000000 		.4byte	0xbd
 6373 1482 02       		.uleb128 0x2
 6374 1483 91       		.byte	0x91
 6375 1484 7C       		.sleb128 -4
 6376 1485 00       		.byte	0
 6377 1486 26       		.uleb128 0x26
 6378 1487 040E0000 		.4byte	.LASF316
 6379 148b 06       		.byte	0x6
 6380 148c EB01     		.2byte	0x1eb
 6381 148e C0000000 		.4byte	.LFB234
 6382 1492 08000000 		.4byte	.LFE234-.LFB234
 6383 1496 01       		.uleb128 0x1
 6384 1497 9C       		.byte	0x9c
 6385 1498 26       		.uleb128 0x26
 6386 1499 7A050000 		.4byte	.LASF317
 6387 149d 06       		.byte	0x6
 6388 149e F601     		.2byte	0x1f6
 6389 14a0 D0000000 		.4byte	.LFB235
 6390 14a4 08000000 		.4byte	.LFE235-.LFB235
 6391 14a8 01       		.uleb128 0x1
 6392 14a9 9C       		.byte	0x9c
 6393 14aa 26       		.uleb128 0x26
 6394 14ab 34060000 		.4byte	.LASF318
 6395 14af 06       		.byte	0x6
 6396 14b0 0102     		.2byte	0x201
 6397 14b2 E0000000 		.4byte	.LFB236
ARM GAS  /tmp/ccD2hNvo.s 			page 114


 6398 14b6 08000000 		.4byte	.LFE236-.LFB236
 6399 14ba 01       		.uleb128 0x1
 6400 14bb 9C       		.byte	0x9c
 6401 14bc 26       		.uleb128 0x26
 6402 14bd FC0C0000 		.4byte	.LASF319
 6403 14c1 06       		.byte	0x6
 6404 14c2 0C02     		.2byte	0x20c
 6405 14c4 F0000000 		.4byte	.LFB237
 6406 14c8 08000000 		.4byte	.LFE237-.LFB237
 6407 14cc 01       		.uleb128 0x1
 6408 14cd 9C       		.byte	0x9c
 6409 14ce 27       		.uleb128 0x27
 6410 14cf CA060000 		.4byte	.LASF320
 6411 14d3 06       		.byte	0x6
 6412 14d4 3B02     		.2byte	0x23b
 6413 14d6 00010000 		.4byte	.LFB240
 6414 14da 12000000 		.4byte	.LFE240-.LFB240
 6415 14de 01       		.uleb128 0x1
 6416 14df 9C       		.byte	0x9c
 6417 14e0 F4140000 		.4byte	0x14f4
 6418 14e4 2D       		.uleb128 0x2d
 6419 14e5 7D100000 		.4byte	.LASF321
 6420 14e9 06       		.byte	0x6
 6421 14ea 3B02     		.2byte	0x23b
 6422 14ec FF000000 		.4byte	0xff
 6423 14f0 02       		.uleb128 0x2
 6424 14f1 91       		.byte	0x91
 6425 14f2 74       		.sleb128 -12
 6426 14f3 00       		.byte	0
 6427 14f4 2E       		.uleb128 0x2e
 6428 14f5 0E110000 		.4byte	.LASF323
 6429 14f9 06       		.byte	0x6
 6430 14fa AE02     		.2byte	0x2ae
 6431 14fc 41010000 		.4byte	0x141
 6432 1500 20010000 		.4byte	.LFB247
 6433 1504 16000000 		.4byte	.LFE247-.LFB247
 6434 1508 01       		.uleb128 0x1
 6435 1509 9C       		.byte	0x9c
 6436 150a 1E150000 		.4byte	0x151e
 6437 150e 2F       		.uleb128 0x2f
 6438 150f 74727000 		.ascii	"trp\000"
 6439 1513 06       		.byte	0x6
 6440 1514 AE02     		.2byte	0x2ae
 6441 1516 E2070000 		.4byte	0x7e2
 6442 151a 02       		.uleb128 0x2
 6443 151b 91       		.byte	0x91
 6444 151c 74       		.sleb128 -12
 6445 151d 00       		.byte	0
 6446 151e 27       		.uleb128 0x27
 6447 151f 42100000 		.4byte	.LASF324
 6448 1523 06       		.byte	0x6
 6449 1524 D602     		.2byte	0x2d6
 6450 1526 40010000 		.4byte	.LFB249
 6451 152a 16000000 		.4byte	.LFE249-.LFB249
 6452 152e 01       		.uleb128 0x1
 6453 152f 9C       		.byte	0x9c
 6454 1530 53150000 		.4byte	0x1553
ARM GAS  /tmp/ccD2hNvo.s 			page 115


 6455 1534 2F       		.uleb128 0x2f
 6456 1535 74727000 		.ascii	"trp\000"
 6457 1539 06       		.byte	0x6
 6458 153a D602     		.2byte	0x2d6
 6459 153c E2070000 		.4byte	0x7e2
 6460 1540 02       		.uleb128 0x2
 6461 1541 91       		.byte	0x91
 6462 1542 74       		.sleb128 -12
 6463 1543 2F       		.uleb128 0x2f
 6464 1544 6D736700 		.ascii	"msg\000"
 6465 1548 06       		.byte	0x6
 6466 1549 D602     		.2byte	0x2d6
 6467 154b 41010000 		.4byte	0x141
 6468 154f 02       		.uleb128 0x2
 6469 1550 91       		.byte	0x91
 6470 1551 70       		.sleb128 -16
 6471 1552 00       		.byte	0
 6472 1553 30       		.uleb128 0x30
 6473 1554 060B0000 		.4byte	.LASF325
 6474 1558 07       		.byte	0x7
 6475 1559 86       		.byte	0x86
 6476 155a 60010000 		.4byte	.LFB267
 6477 155e 3C000000 		.4byte	.LFE267-.LFB267
 6478 1562 01       		.uleb128 0x1
 6479 1563 9C       		.byte	0x9c
 6480 1564 85150000 		.4byte	0x1585
 6481 1568 2C       		.uleb128 0x2c
 6482 1569 10000000 		.4byte	.LASF326
 6483 156d 07       		.byte	0x7
 6484 156e 86       		.byte	0x86
 6485 156f 190B0000 		.4byte	0xb19
 6486 1573 02       		.uleb128 0x2
 6487 1574 91       		.byte	0x91
 6488 1575 6C       		.sleb128 -20
 6489 1576 31       		.uleb128 0x31
 6490 1577 C2080000 		.4byte	.LASF328
 6491 157b 07       		.byte	0x7
 6492 157c 87       		.byte	0x87
 6493 157d E5120000 		.4byte	0x12e5
 6494 1581 02       		.uleb128 0x2
 6495 1582 91       		.byte	0x91
 6496 1583 74       		.sleb128 -12
 6497 1584 00       		.byte	0
 6498 1585 2B       		.uleb128 0x2b
 6499 1586 F6070000 		.4byte	.LASF327
 6500 158a 07       		.byte	0x7
 6501 158b 97       		.byte	0x97
 6502 158c A0010000 		.4byte	.LFB268
 6503 1590 90000000 		.4byte	.LFE268-.LFB268
 6504 1594 01       		.uleb128 0x1
 6505 1595 9C       		.byte	0x9c
 6506 1596 C3150000 		.4byte	0x15c3
 6507 159a 2C       		.uleb128 0x2c
 6508 159b 10000000 		.4byte	.LASF326
 6509 159f 07       		.byte	0x7
 6510 15a0 97       		.byte	0x97
 6511 15a1 190B0000 		.4byte	0xb19
ARM GAS  /tmp/ccD2hNvo.s 			page 116


 6512 15a5 02       		.uleb128 0x2
 6513 15a6 91       		.byte	0x91
 6514 15a7 74       		.sleb128 -12
 6515 15a8 31       		.uleb128 0x31
 6516 15a9 C2080000 		.4byte	.LASF328
 6517 15ad 07       		.byte	0x7
 6518 15ae 98       		.byte	0x98
 6519 15af E5120000 		.4byte	0x12e5
 6520 15b3 02       		.uleb128 0x2
 6521 15b4 91       		.byte	0x91
 6522 15b5 78       		.sleb128 -8
 6523 15b6 32       		.uleb128 0x32
 6524 15b7 6900     		.ascii	"i\000"
 6525 15b9 07       		.byte	0x7
 6526 15ba 99       		.byte	0x99
 6527 15bb 37000000 		.4byte	0x37
 6528 15bf 02       		.uleb128 0x2
 6529 15c0 91       		.byte	0x91
 6530 15c1 7C       		.sleb128 -4
 6531 15c2 00       		.byte	0
 6532 15c3 30       		.uleb128 0x30
 6533 15c4 E20A0000 		.4byte	.LASF329
 6534 15c8 07       		.byte	0x7
 6535 15c9 A7       		.byte	0xa7
 6536 15ca 30020000 		.4byte	.LFB269
 6537 15ce 2C000000 		.4byte	.LFE269-.LFB269
 6538 15d2 01       		.uleb128 0x1
 6539 15d3 9C       		.byte	0x9c
 6540 15d4 F5150000 		.4byte	0x15f5
 6541 15d8 2C       		.uleb128 0x2c
 6542 15d9 10000000 		.4byte	.LASF326
 6543 15dd 07       		.byte	0x7
 6544 15de A7       		.byte	0xa7
 6545 15df 190B0000 		.4byte	0xb19
 6546 15e3 02       		.uleb128 0x2
 6547 15e4 91       		.byte	0x91
 6548 15e5 6C       		.sleb128 -20
 6549 15e6 31       		.uleb128 0x31
 6550 15e7 C2080000 		.4byte	.LASF328
 6551 15eb 07       		.byte	0x7
 6552 15ec A8       		.byte	0xa8
 6553 15ed E5120000 		.4byte	0x12e5
 6554 15f1 02       		.uleb128 0x2
 6555 15f2 91       		.byte	0x91
 6556 15f3 74       		.sleb128 -12
 6557 15f4 00       		.byte	0
 6558 15f5 30       		.uleb128 0x30
 6559 15f6 B4030000 		.4byte	.LASF330
 6560 15fa 07       		.byte	0x7
 6561 15fb B1       		.byte	0xb1
 6562 15fc 60020000 		.4byte	.LFB270
 6563 1600 34000000 		.4byte	.LFE270-.LFB270
 6564 1604 01       		.uleb128 0x1
 6565 1605 9C       		.byte	0x9c
 6566 1606 35160000 		.4byte	0x1635
 6567 160a 2C       		.uleb128 0x2c
 6568 160b 10000000 		.4byte	.LASF326
ARM GAS  /tmp/ccD2hNvo.s 			page 117


 6569 160f 07       		.byte	0x7
 6570 1610 B1       		.byte	0xb1
 6571 1611 190B0000 		.4byte	0xb19
 6572 1615 02       		.uleb128 0x2
 6573 1616 91       		.byte	0x91
 6574 1617 6C       		.sleb128 -20
 6575 1618 2C       		.uleb128 0x2c
 6576 1619 040F0000 		.4byte	.LASF331
 6577 161d 07       		.byte	0x7
 6578 161e B1       		.byte	0xb1
 6579 161f E9000000 		.4byte	0xe9
 6580 1623 02       		.uleb128 0x2
 6581 1624 91       		.byte	0x91
 6582 1625 68       		.sleb128 -24
 6583 1626 31       		.uleb128 0x31
 6584 1627 C2080000 		.4byte	.LASF328
 6585 162b 07       		.byte	0x7
 6586 162c B2       		.byte	0xb2
 6587 162d E5120000 		.4byte	0x12e5
 6588 1631 02       		.uleb128 0x2
 6589 1632 91       		.byte	0x91
 6590 1633 74       		.sleb128 -12
 6591 1634 00       		.byte	0
 6592 1635 2B       		.uleb128 0x2b
 6593 1636 190C0000 		.4byte	.LASF332
 6594 163a 07       		.byte	0x7
 6595 163b C2       		.byte	0xc2
 6596 163c A0020000 		.4byte	.LFB271
 6597 1640 12000000 		.4byte	.LFE271-.LFB271
 6598 1644 01       		.uleb128 0x1
 6599 1645 9C       		.byte	0x9c
 6600 1646 59160000 		.4byte	0x1659
 6601 164a 2C       		.uleb128 0x2c
 6602 164b 10000000 		.4byte	.LASF326
 6603 164f 07       		.byte	0x7
 6604 1650 C2       		.byte	0xc2
 6605 1651 190B0000 		.4byte	0xb19
 6606 1655 02       		.uleb128 0x2
 6607 1656 91       		.byte	0x91
 6608 1657 7C       		.sleb128 -4
 6609 1658 00       		.byte	0
 6610 1659 33       		.uleb128 0x33
 6611 165a 10090000 		.4byte	.LASF333
 6612 165e 07       		.byte	0x7
 6613 165f CF       		.byte	0xcf
 6614 1660 E9000000 		.4byte	0xe9
 6615 1664 C0020000 		.4byte	.LFB272
 6616 1668 20000000 		.4byte	.LFE272-.LFB272
 6617 166c 01       		.uleb128 0x1
 6618 166d 9C       		.byte	0x9c
 6619 166e A6160000 		.4byte	0x16a6
 6620 1672 2C       		.uleb128 0x2c
 6621 1673 10000000 		.4byte	.LASF326
 6622 1677 07       		.byte	0x7
 6623 1678 CF       		.byte	0xcf
 6624 1679 190B0000 		.4byte	0xb19
 6625 167d 02       		.uleb128 0x2
ARM GAS  /tmp/ccD2hNvo.s 			page 118


 6626 167e 91       		.byte	0x91
 6627 167f 74       		.sleb128 -12
 6628 1680 2C       		.uleb128 0x2c
 6629 1681 A1090000 		.4byte	.LASF334
 6630 1685 07       		.byte	0x7
 6631 1686 CF       		.byte	0xcf
 6632 1687 2C000000 		.4byte	0x2c
 6633 168b 02       		.uleb128 0x2
 6634 168c 91       		.byte	0x91
 6635 168d 70       		.sleb128 -16
 6636 168e 31       		.uleb128 0x31
 6637 168f F3010000 		.4byte	.LASF335
 6638 1693 07       		.byte	0x7
 6639 1694 D0       		.byte	0xd0
 6640 1695 E9000000 		.4byte	0xe9
 6641 1699 02       		.uleb128 0x2
 6642 169a 91       		.byte	0x91
 6643 169b 7C       		.sleb128 -4
 6644 169c 28       		.uleb128 0x28
 6645 169d 17100000 		.4byte	.LASF313
 6646 16a1 B6160000 		.4byte	0x16b6
 6647 16a5 00       		.byte	0
 6648 16a6 11       		.uleb128 0x11
 6649 16a7 B6000000 		.4byte	0xb6
 6650 16ab B6160000 		.4byte	0x16b6
 6651 16af 12       		.uleb128 0x12
 6652 16b0 AD000000 		.4byte	0xad
 6653 16b4 0D       		.byte	0xd
 6654 16b5 00       		.byte	0
 6655 16b6 07       		.uleb128 0x7
 6656 16b7 A6160000 		.4byte	0x16a6
 6657 16bb 2B       		.uleb128 0x2b
 6658 16bc 5B040000 		.4byte	.LASF336
 6659 16c0 07       		.byte	0x7
 6660 16c1 E2       		.byte	0xe2
 6661 16c2 E0020000 		.4byte	.LFB273
 6662 16c6 2A000000 		.4byte	.LFE273-.LFB273
 6663 16ca 01       		.uleb128 0x1
 6664 16cb 9C       		.byte	0x9c
 6665 16cc 02170000 		.4byte	0x1702
 6666 16d0 2C       		.uleb128 0x2c
 6667 16d1 6E0E0000 		.4byte	.LASF337
 6668 16d5 07       		.byte	0x7
 6669 16d6 E2       		.byte	0xe2
 6670 16d7 8C080000 		.4byte	0x88c
 6671 16db 02       		.uleb128 0x2
 6672 16dc 91       		.byte	0x91
 6673 16dd 7C       		.sleb128 -4
 6674 16de 2A       		.uleb128 0x2a
 6675 16df 62756600 		.ascii	"buf\000"
 6676 16e3 07       		.byte	0x7
 6677 16e4 E3       		.byte	0xe3
 6678 16e5 81080000 		.4byte	0x881
 6679 16e9 02       		.uleb128 0x2
 6680 16ea 91       		.byte	0x91
 6681 16eb 78       		.sleb128 -8
 6682 16ec 2A       		.uleb128 0x2a
ARM GAS  /tmp/ccD2hNvo.s 			page 119


 6683 16ed 6E00     		.ascii	"n\000"
 6684 16ef 07       		.byte	0x7
 6685 16f0 E4       		.byte	0xe4
 6686 16f1 2C000000 		.4byte	0x2c
 6687 16f5 02       		.uleb128 0x2
 6688 16f6 91       		.byte	0x91
 6689 16f7 74       		.sleb128 -12
 6690 16f8 28       		.uleb128 0x28
 6691 16f9 17100000 		.4byte	.LASF313
 6692 16fd 12170000 		.4byte	0x1712
 6693 1701 00       		.byte	0
 6694 1702 11       		.uleb128 0x11
 6695 1703 B6000000 		.4byte	0xb6
 6696 1707 12170000 		.4byte	0x1712
 6697 170b 12       		.uleb128 0x12
 6698 170c AD000000 		.4byte	0xad
 6699 1710 1A       		.byte	0x1a
 6700 1711 00       		.byte	0
 6701 1712 07       		.uleb128 0x7
 6702 1713 02170000 		.4byte	0x1702
 6703 1717 2B       		.uleb128 0x2b
 6704 1718 D90C0000 		.4byte	.LASF338
 6705 171c 07       		.byte	0x7
 6706 171d FC       		.byte	0xfc
 6707 171e 10030000 		.4byte	.LFB274
 6708 1722 50000000 		.4byte	.LFE274-.LFB274
 6709 1726 01       		.uleb128 0x1
 6710 1727 9C       		.byte	0x9c
 6711 1728 7D170000 		.4byte	0x177d
 6712 172c 2C       		.uleb128 0x2c
 6713 172d 6E0E0000 		.4byte	.LASF337
 6714 1731 07       		.byte	0x7
 6715 1732 FC       		.byte	0xfc
 6716 1733 8C080000 		.4byte	0x88c
 6717 1737 02       		.uleb128 0x2
 6718 1738 91       		.byte	0x91
 6719 1739 74       		.sleb128 -12
 6720 173a 2A       		.uleb128 0x2a
 6721 173b 62756600 		.ascii	"buf\000"
 6722 173f 07       		.byte	0x7
 6723 1740 FD       		.byte	0xfd
 6724 1741 7B080000 		.4byte	0x87b
 6725 1745 02       		.uleb128 0x2
 6726 1746 91       		.byte	0x91
 6727 1747 70       		.sleb128 -16
 6728 1748 2A       		.uleb128 0x2a
 6729 1749 6E00     		.ascii	"n\000"
 6730 174b 07       		.byte	0x7
 6731 174c FE       		.byte	0xfe
 6732 174d 2C000000 		.4byte	0x2c
 6733 1751 02       		.uleb128 0x2
 6734 1752 91       		.byte	0x91
 6735 1753 6C       		.sleb128 -20
 6736 1754 2A       		.uleb128 0x2a
 6737 1755 6D617800 		.ascii	"max\000"
 6738 1759 07       		.byte	0x7
 6739 175a FF       		.byte	0xff
ARM GAS  /tmp/ccD2hNvo.s 			page 120


 6740 175b 2C000000 		.4byte	0x2c
 6741 175f 02       		.uleb128 0x2
 6742 1760 91       		.byte	0x91
 6743 1761 68       		.sleb128 -24
 6744 1762 34       		.uleb128 0x34
 6745 1763 7700     		.ascii	"w\000"
 6746 1765 07       		.byte	0x7
 6747 1766 0001     		.2byte	0x100
 6748 1768 E9000000 		.4byte	0xe9
 6749 176c 02       		.uleb128 0x2
 6750 176d 91       		.byte	0x91
 6751 176e 7C       		.sleb128 -4
 6752 176f 34       		.uleb128 0x34
 6753 1770 6900     		.ascii	"i\000"
 6754 1772 07       		.byte	0x7
 6755 1773 0101     		.2byte	0x101
 6756 1775 2C000000 		.4byte	0x2c
 6757 1779 02       		.uleb128 0x2
 6758 177a 91       		.byte	0x91
 6759 177b 78       		.sleb128 -8
 6760 177c 00       		.byte	0
 6761 177d 27       		.uleb128 0x27
 6762 177e F8010000 		.4byte	.LASF339
 6763 1782 07       		.byte	0x7
 6764 1783 1601     		.2byte	0x116
 6765 1785 60030000 		.4byte	.LFB275
 6766 1789 0A010000 		.4byte	.LFE275-.LFB275
 6767 178d 01       		.uleb128 0x1
 6768 178e 9C       		.byte	0x9c
 6769 178f CF170000 		.4byte	0x17cf
 6770 1793 2D       		.uleb128 0x2d
 6771 1794 10000000 		.4byte	.LASF326
 6772 1798 07       		.byte	0x7
 6773 1799 1601     		.2byte	0x116
 6774 179b 190B0000 		.4byte	0xb19
 6775 179f 02       		.uleb128 0x2
 6776 17a0 91       		.byte	0x91
 6777 17a1 64       		.sleb128 -28
 6778 17a2 34       		.uleb128 0x34
 6779 17a3 73747300 		.ascii	"sts\000"
 6780 17a7 07       		.byte	0x7
 6781 17a8 1701     		.2byte	0x117
 6782 17aa E9000000 		.4byte	0xe9
 6783 17ae 02       		.uleb128 0x2
 6784 17af 91       		.byte	0x91
 6785 17b0 74       		.sleb128 -12
 6786 17b1 34       		.uleb128 0x34
 6787 17b2 636E7400 		.ascii	"cnt\000"
 6788 17b6 07       		.byte	0x7
 6789 17b7 1701     		.2byte	0x117
 6790 17b9 E9000000 		.4byte	0xe9
 6791 17bd 02       		.uleb128 0x2
 6792 17be 91       		.byte	0x91
 6793 17bf 70       		.sleb128 -16
 6794 17c0 34       		.uleb128 0x34
 6795 17c1 657000   		.ascii	"ep\000"
 6796 17c4 07       		.byte	0x7
ARM GAS  /tmp/ccD2hNvo.s 			page 121


 6797 17c5 1701     		.2byte	0x117
 6798 17c7 E9000000 		.4byte	0xe9
 6799 17cb 02       		.uleb128 0x2
 6800 17cc 91       		.byte	0x91
 6801 17cd 6C       		.sleb128 -20
 6802 17ce 00       		.byte	0
 6803 17cf 2E       		.uleb128 0x2e
 6804 17d0 6D020000 		.4byte	.LASF340
 6805 17d4 07       		.byte	0x7
 6806 17d5 3D01     		.2byte	0x13d
 6807 17d7 92080000 		.4byte	0x892
 6808 17db 70040000 		.4byte	.LFB276
 6809 17df 2E010000 		.4byte	.LFE276-.LFB276
 6810 17e3 01       		.uleb128 0x1
 6811 17e4 9C       		.byte	0x9c
 6812 17e5 1E180000 		.4byte	0x181e
 6813 17e9 2D       		.uleb128 0x2d
 6814 17ea 10000000 		.4byte	.LASF326
 6815 17ee 07       		.byte	0x7
 6816 17ef 3D01     		.2byte	0x13d
 6817 17f1 190B0000 		.4byte	0xb19
 6818 17f5 02       		.uleb128 0x2
 6819 17f6 91       		.byte	0x91
 6820 17f7 6C       		.sleb128 -20
 6821 17f8 2F       		.uleb128 0x2f
 6822 17f9 657000   		.ascii	"ep\000"
 6823 17fc 07       		.byte	0x7
 6824 17fd 3D01     		.2byte	0x13d
 6825 17ff DE090000 		.4byte	0x9de
 6826 1803 02       		.uleb128 0x2
 6827 1804 91       		.byte	0x91
 6828 1805 6B       		.sleb128 -21
 6829 1806 35       		.uleb128 0x35
 6830 1807 7C040000 		.4byte	.LBB10
 6831 180b 18010000 		.4byte	.LBE10-.LBB10
 6832 180f 34       		.uleb128 0x34
 6833 1810 6E00     		.ascii	"n\000"
 6834 1812 07       		.byte	0x7
 6835 1813 4101     		.2byte	0x141
 6836 1815 E9000000 		.4byte	0xe9
 6837 1819 02       		.uleb128 0x2
 6838 181a 91       		.byte	0x91
 6839 181b 74       		.sleb128 -12
 6840 181c 00       		.byte	0
 6841 181d 00       		.byte	0
 6842 181e 27       		.uleb128 0x27
 6843 181f 64070000 		.4byte	.LASF341
 6844 1823 07       		.byte	0x7
 6845 1824 6701     		.2byte	0x167
 6846 1826 A0050000 		.4byte	.LFB277
 6847 182a 4C010000 		.4byte	.LFE277-.LFB277
 6848 182e 01       		.uleb128 0x1
 6849 182f 9C       		.byte	0x9c
 6850 1830 89180000 		.4byte	0x1889
 6851 1834 2D       		.uleb128 0x2d
 6852 1835 10000000 		.4byte	.LASF326
 6853 1839 07       		.byte	0x7
ARM GAS  /tmp/ccD2hNvo.s 			page 122


 6854 183a 6701     		.2byte	0x167
 6855 183c 190B0000 		.4byte	0xb19
 6856 1840 02       		.uleb128 0x2
 6857 1841 91       		.byte	0x91
 6858 1842 64       		.sleb128 -28
 6859 1843 2F       		.uleb128 0x2f
 6860 1844 657000   		.ascii	"ep\000"
 6861 1847 07       		.byte	0x7
 6862 1848 6701     		.2byte	0x167
 6863 184a DE090000 		.4byte	0x9de
 6864 184e 02       		.uleb128 0x2
 6865 184f 91       		.byte	0x91
 6866 1850 63       		.sleb128 -29
 6867 1851 36       		.uleb128 0x36
 6868 1852 C2080000 		.4byte	.LASF328
 6869 1856 07       		.byte	0x7
 6870 1857 6801     		.2byte	0x168
 6871 1859 E5120000 		.4byte	0x12e5
 6872 185d 02       		.uleb128 0x2
 6873 185e 91       		.byte	0x91
 6874 185f 74       		.sleb128 -12
 6875 1860 36       		.uleb128 0x36
 6876 1861 92060000 		.4byte	.LASF342
 6877 1865 07       		.byte	0x7
 6878 1866 6901     		.2byte	0x169
 6879 1868 E9000000 		.4byte	0xe9
 6880 186c 02       		.uleb128 0x2
 6881 186d 91       		.byte	0x91
 6882 186e 70       		.sleb128 -16
 6883 186f 35       		.uleb128 0x35
 6884 1870 EE050000 		.4byte	.LBB11
 6885 1874 96000000 		.4byte	.LBE11-.LBB11
 6886 1878 34       		.uleb128 0x34
 6887 1879 69737000 		.ascii	"isp\000"
 6888 187d 07       		.byte	0x7
 6889 187e 7201     		.2byte	0x172
 6890 1880 3D120000 		.4byte	0x123d
 6891 1884 02       		.uleb128 0x2
 6892 1885 91       		.byte	0x91
 6893 1886 6C       		.sleb128 -20
 6894 1887 00       		.byte	0
 6895 1888 00       		.byte	0
 6896 1889 27       		.uleb128 0x27
 6897 188a BF0A0000 		.4byte	.LASF343
 6898 188e 07       		.byte	0x7
 6899 188f 9601     		.2byte	0x196
 6900 1891 F0060000 		.4byte	.LFB278
 6901 1895 52010000 		.4byte	.LFE278-.LFB278
 6902 1899 01       		.uleb128 0x1
 6903 189a 9C       		.byte	0x9c
 6904 189b F4180000 		.4byte	0x18f4
 6905 189f 2D       		.uleb128 0x2d
 6906 18a0 10000000 		.4byte	.LASF326
 6907 18a4 07       		.byte	0x7
 6908 18a5 9601     		.2byte	0x196
 6909 18a7 190B0000 		.4byte	0xb19
 6910 18ab 02       		.uleb128 0x2
ARM GAS  /tmp/ccD2hNvo.s 			page 123


 6911 18ac 91       		.byte	0x91
 6912 18ad 64       		.sleb128 -28
 6913 18ae 2F       		.uleb128 0x2f
 6914 18af 657000   		.ascii	"ep\000"
 6915 18b2 07       		.byte	0x7
 6916 18b3 9601     		.2byte	0x196
 6917 18b5 DE090000 		.4byte	0x9de
 6918 18b9 02       		.uleb128 0x2
 6919 18ba 91       		.byte	0x91
 6920 18bb 63       		.sleb128 -29
 6921 18bc 36       		.uleb128 0x36
 6922 18bd C2080000 		.4byte	.LASF328
 6923 18c1 07       		.byte	0x7
 6924 18c2 9701     		.2byte	0x197
 6925 18c4 E5120000 		.4byte	0x12e5
 6926 18c8 02       		.uleb128 0x2
 6927 18c9 91       		.byte	0x91
 6928 18ca 74       		.sleb128 -12
 6929 18cb 36       		.uleb128 0x36
 6930 18cc 92060000 		.4byte	.LASF342
 6931 18d0 07       		.byte	0x7
 6932 18d1 9801     		.2byte	0x198
 6933 18d3 E9000000 		.4byte	0xe9
 6934 18d7 02       		.uleb128 0x2
 6935 18d8 91       		.byte	0x91
 6936 18d9 70       		.sleb128 -16
 6937 18da 35       		.uleb128 0x35
 6938 18db 70070000 		.4byte	.LBB12
 6939 18df CC000000 		.4byte	.LBE12-.LBB12
 6940 18e3 34       		.uleb128 0x34
 6941 18e4 6F737000 		.ascii	"osp\000"
 6942 18e8 07       		.byte	0x7
 6943 18e9 A301     		.2byte	0x1a3
 6944 18eb 43120000 		.4byte	0x1243
 6945 18ef 02       		.uleb128 0x2
 6946 18f0 91       		.byte	0x91
 6947 18f1 6C       		.sleb128 -20
 6948 18f2 00       		.byte	0
 6949 18f3 00       		.byte	0
 6950 18f4 27       		.uleb128 0x27
 6951 18f5 320B0000 		.4byte	.LASF344
 6952 18f9 07       		.byte	0x7
 6953 18fa C701     		.2byte	0x1c7
 6954 18fc 50080000 		.4byte	.LFB279
 6955 1900 2E010000 		.4byte	.LFE279-.LFB279
 6956 1904 01       		.uleb128 0x1
 6957 1905 9C       		.byte	0x9c
 6958 1906 37190000 		.4byte	0x1937
 6959 190a 2D       		.uleb128 0x2d
 6960 190b 10000000 		.4byte	.LASF326
 6961 190f 07       		.byte	0x7
 6962 1910 C701     		.2byte	0x1c7
 6963 1912 190B0000 		.4byte	0xb19
 6964 1916 02       		.uleb128 0x2
 6965 1917 91       		.byte	0x91
 6966 1918 6C       		.sleb128 -20
 6967 1919 34       		.uleb128 0x34
ARM GAS  /tmp/ccD2hNvo.s 			page 124


 6968 191a 657000   		.ascii	"ep\000"
 6969 191d 07       		.byte	0x7
 6970 191e C801     		.2byte	0x1c8
 6971 1920 DE090000 		.4byte	0x9de
 6972 1924 02       		.uleb128 0x2
 6973 1925 91       		.byte	0x91
 6974 1926 77       		.sleb128 -9
 6975 1927 36       		.uleb128 0x36
 6976 1928 C2080000 		.4byte	.LASF328
 6977 192c 07       		.byte	0x7
 6978 192d C901     		.2byte	0x1c9
 6979 192f E5120000 		.4byte	0x12e5
 6980 1933 02       		.uleb128 0x2
 6981 1934 91       		.byte	0x91
 6982 1935 70       		.sleb128 -16
 6983 1936 00       		.byte	0
 6984 1937 27       		.uleb128 0x27
 6985 1938 C2050000 		.4byte	.LASF345
 6986 193c 07       		.byte	0x7
 6987 193d EB01     		.2byte	0x1eb
 6988 193f 80090000 		.4byte	.LFB280
 6989 1943 AA000000 		.4byte	.LFE280-.LFB280
 6990 1947 01       		.uleb128 0x1
 6991 1948 9C       		.byte	0x9c
 6992 1949 7A190000 		.4byte	0x197a
 6993 194d 2D       		.uleb128 0x2d
 6994 194e 10000000 		.4byte	.LASF326
 6995 1952 07       		.byte	0x7
 6996 1953 EB01     		.2byte	0x1eb
 6997 1955 190B0000 		.4byte	0xb19
 6998 1959 02       		.uleb128 0x2
 6999 195a 91       		.byte	0x91
 7000 195b 6C       		.sleb128 -20
 7001 195c 34       		.uleb128 0x34
 7002 195d 657000   		.ascii	"ep\000"
 7003 1960 07       		.byte	0x7
 7004 1961 EC01     		.2byte	0x1ec
 7005 1963 DE090000 		.4byte	0x9de
 7006 1967 02       		.uleb128 0x2
 7007 1968 91       		.byte	0x91
 7008 1969 77       		.sleb128 -9
 7009 196a 36       		.uleb128 0x36
 7010 196b C2080000 		.4byte	.LASF328
 7011 196f 07       		.byte	0x7
 7012 1970 ED01     		.2byte	0x1ed
 7013 1972 E5120000 		.4byte	0x12e5
 7014 1976 02       		.uleb128 0x2
 7015 1977 91       		.byte	0x91
 7016 1978 70       		.sleb128 -16
 7017 1979 00       		.byte	0
 7018 197a 27       		.uleb128 0x27
 7019 197b 64090000 		.4byte	.LASF346
 7020 197f 07       		.byte	0x7
 7021 1980 0502     		.2byte	0x205
 7022 1982 300A0000 		.4byte	.LFB281
 7023 1986 DE010000 		.4byte	.LFE281-.LFB281
 7024 198a 01       		.uleb128 0x1
ARM GAS  /tmp/ccD2hNvo.s 			page 125


 7025 198b 9C       		.byte	0x9c
 7026 198c CD190000 		.4byte	0x19cd
 7027 1990 2D       		.uleb128 0x2d
 7028 1991 10000000 		.4byte	.LASF326
 7029 1995 07       		.byte	0x7
 7030 1996 0502     		.2byte	0x205
 7031 1998 190B0000 		.4byte	0xb19
 7032 199c 02       		.uleb128 0x2
 7033 199d 91       		.byte	0x91
 7034 199e 64       		.sleb128 -28
 7035 199f 36       		.uleb128 0x36
 7036 19a0 C2080000 		.4byte	.LASF328
 7037 19a4 07       		.byte	0x7
 7038 19a5 0602     		.2byte	0x206
 7039 19a7 E5120000 		.4byte	0x12e5
 7040 19ab 02       		.uleb128 0x2
 7041 19ac 91       		.byte	0x91
 7042 19ad 74       		.sleb128 -12
 7043 19ae 34       		.uleb128 0x34
 7044 19af 73747300 		.ascii	"sts\000"
 7045 19b3 07       		.byte	0x7
 7046 19b4 0702     		.2byte	0x207
 7047 19b6 E9000000 		.4byte	0xe9
 7048 19ba 02       		.uleb128 0x2
 7049 19bb 91       		.byte	0x91
 7050 19bc 70       		.sleb128 -16
 7051 19bd 34       		.uleb128 0x34
 7052 19be 73726300 		.ascii	"src\000"
 7053 19c2 07       		.byte	0x7
 7054 19c3 0702     		.2byte	0x207
 7055 19c5 E9000000 		.4byte	0xe9
 7056 19c9 02       		.uleb128 0x2
 7057 19ca 91       		.byte	0x91
 7058 19cb 6C       		.sleb128 -20
 7059 19cc 00       		.byte	0
 7060 19cd 37       		.uleb128 0x37
 7061 19ce 470E0000 		.4byte	.LASF347
 7062 19d2 07       		.byte	0x7
 7063 19d3 8A02     		.2byte	0x28a
 7064 19d5 100C0000 		.4byte	.LFB282
 7065 19d9 14000000 		.4byte	.LFE282-.LFB282
 7066 19dd 01       		.uleb128 0x1
 7067 19de 9C       		.byte	0x9c
 7068 19df 37       		.uleb128 0x37
 7069 19e0 77030000 		.4byte	.LASF348
 7070 19e4 07       		.byte	0x7
 7071 19e5 B002     		.2byte	0x2b0
 7072 19e7 300C0000 		.4byte	.LFB283
 7073 19eb 30000000 		.4byte	.LFE283-.LFB283
 7074 19ef 01       		.uleb128 0x1
 7075 19f0 9C       		.byte	0x9c
 7076 19f1 38       		.uleb128 0x38
 7077 19f2 A9080000 		.4byte	.LASF349
 7078 19f6 07       		.byte	0x7
 7079 19f7 EE02     		.2byte	0x2ee
 7080 19f9 600C0000 		.4byte	.LFB284
 7081 19fd 1C010000 		.4byte	.LFE284-.LFB284
ARM GAS  /tmp/ccD2hNvo.s 			page 126


 7082 1a01 01       		.uleb128 0x1
 7083 1a02 9C       		.byte	0x9c
 7084 1a03 261A0000 		.4byte	0x1a26
 7085 1a07 2D       		.uleb128 0x2d
 7086 1a08 10000000 		.4byte	.LASF326
 7087 1a0c 07       		.byte	0x7
 7088 1a0d EE02     		.2byte	0x2ee
 7089 1a0f 190B0000 		.4byte	0xb19
 7090 1a13 02       		.uleb128 0x2
 7091 1a14 91       		.byte	0x91
 7092 1a15 6C       		.sleb128 -20
 7093 1a16 36       		.uleb128 0x36
 7094 1a17 C2080000 		.4byte	.LASF328
 7095 1a1b 07       		.byte	0x7
 7096 1a1c EF02     		.2byte	0x2ef
 7097 1a1e E5120000 		.4byte	0x12e5
 7098 1a22 02       		.uleb128 0x2
 7099 1a23 91       		.byte	0x91
 7100 1a24 74       		.sleb128 -12
 7101 1a25 00       		.byte	0
 7102 1a26 38       		.uleb128 0x38
 7103 1a27 DE060000 		.4byte	.LASF350
 7104 1a2b 07       		.byte	0x7
 7105 1a2c 8003     		.2byte	0x380
 7106 1a2e 800D0000 		.4byte	.LFB285
 7107 1a32 5C000000 		.4byte	.LFE285-.LFB285
 7108 1a36 01       		.uleb128 0x1
 7109 1a37 9C       		.byte	0x9c
 7110 1a38 5B1A0000 		.4byte	0x1a5b
 7111 1a3c 2D       		.uleb128 0x2d
 7112 1a3d 10000000 		.4byte	.LASF326
 7113 1a41 07       		.byte	0x7
 7114 1a42 8003     		.2byte	0x380
 7115 1a44 190B0000 		.4byte	0xb19
 7116 1a48 02       		.uleb128 0x2
 7117 1a49 91       		.byte	0x91
 7118 1a4a 6C       		.sleb128 -20
 7119 1a4b 36       		.uleb128 0x36
 7120 1a4c C2080000 		.4byte	.LASF328
 7121 1a50 07       		.byte	0x7
 7122 1a51 8103     		.2byte	0x381
 7123 1a53 E5120000 		.4byte	0x12e5
 7124 1a57 02       		.uleb128 0x2
 7125 1a58 91       		.byte	0x91
 7126 1a59 74       		.sleb128 -12
 7127 1a5a 00       		.byte	0
 7128 1a5b 38       		.uleb128 0x38
 7129 1a5c 37080000 		.4byte	.LASF351
 7130 1a60 07       		.byte	0x7
 7131 1a61 AA03     		.2byte	0x3aa
 7132 1a63 E00D0000 		.4byte	.LFB286
 7133 1a67 28010000 		.4byte	.LFE286-.LFB286
 7134 1a6b 01       		.uleb128 0x1
 7135 1a6c 9C       		.byte	0x9c
 7136 1a6d 9D1A0000 		.4byte	0x1a9d
 7137 1a71 2D       		.uleb128 0x2d
 7138 1a72 10000000 		.4byte	.LASF326
ARM GAS  /tmp/ccD2hNvo.s 			page 127


 7139 1a76 07       		.byte	0x7
 7140 1a77 AA03     		.2byte	0x3aa
 7141 1a79 190B0000 		.4byte	0xb19
 7142 1a7d 02       		.uleb128 0x2
 7143 1a7e 91       		.byte	0x91
 7144 1a7f 6C       		.sleb128 -20
 7145 1a80 34       		.uleb128 0x34
 7146 1a81 6900     		.ascii	"i\000"
 7147 1a83 07       		.byte	0x7
 7148 1a84 AB03     		.2byte	0x3ab
 7149 1a86 37000000 		.4byte	0x37
 7150 1a8a 02       		.uleb128 0x2
 7151 1a8b 91       		.byte	0x91
 7152 1a8c 74       		.sleb128 -12
 7153 1a8d 36       		.uleb128 0x36
 7154 1a8e C2080000 		.4byte	.LASF328
 7155 1a92 07       		.byte	0x7
 7156 1a93 AC03     		.2byte	0x3ac
 7157 1a95 E5120000 		.4byte	0x12e5
 7158 1a99 02       		.uleb128 0x2
 7159 1a9a 91       		.byte	0x91
 7160 1a9b 70       		.sleb128 -16
 7161 1a9c 00       		.byte	0
 7162 1a9d 39       		.uleb128 0x39
 7163 1a9e 56080000 		.4byte	.LASF352
 7164 1aa2 07       		.byte	0x7
 7165 1aa3 E003     		.2byte	0x3e0
 7166 1aa5 100F0000 		.4byte	.LFB287
 7167 1aa9 28000000 		.4byte	.LFE287-.LFB287
 7168 1aad 01       		.uleb128 0x1
 7169 1aae 9C       		.byte	0x9c
 7170 1aaf D21A0000 		.4byte	0x1ad2
 7171 1ab3 2D       		.uleb128 0x2d
 7172 1ab4 10000000 		.4byte	.LASF326
 7173 1ab8 07       		.byte	0x7
 7174 1ab9 E003     		.2byte	0x3e0
 7175 1abb 190B0000 		.4byte	0xb19
 7176 1abf 02       		.uleb128 0x2
 7177 1ac0 91       		.byte	0x91
 7178 1ac1 74       		.sleb128 -12
 7179 1ac2 36       		.uleb128 0x36
 7180 1ac3 C2080000 		.4byte	.LASF328
 7181 1ac7 07       		.byte	0x7
 7182 1ac8 E103     		.2byte	0x3e1
 7183 1aca E5120000 		.4byte	0x12e5
 7184 1ace 02       		.uleb128 0x2
 7185 1acf 91       		.byte	0x91
 7186 1ad0 7C       		.sleb128 -4
 7187 1ad1 00       		.byte	0
 7188 1ad2 38       		.uleb128 0x38
 7189 1ad3 93080000 		.4byte	.LASF353
 7190 1ad7 07       		.byte	0x7
 7191 1ad8 EE03     		.2byte	0x3ee
 7192 1ada 400F0000 		.4byte	.LFB288
 7193 1ade 58020000 		.4byte	.LFE288-.LFB288
 7194 1ae2 01       		.uleb128 0x1
 7195 1ae3 9C       		.byte	0x9c
ARM GAS  /tmp/ccD2hNvo.s 			page 128


 7196 1ae4 331B0000 		.4byte	0x1b33
 7197 1ae8 2D       		.uleb128 0x2d
 7198 1ae9 10000000 		.4byte	.LASF326
 7199 1aed 07       		.byte	0x7
 7200 1aee EE03     		.2byte	0x3ee
 7201 1af0 190B0000 		.4byte	0xb19
 7202 1af4 02       		.uleb128 0x2
 7203 1af5 91       		.byte	0x91
 7204 1af6 5C       		.sleb128 -36
 7205 1af7 2F       		.uleb128 0x2f
 7206 1af8 657000   		.ascii	"ep\000"
 7207 1afb 07       		.byte	0x7
 7208 1afc EE03     		.2byte	0x3ee
 7209 1afe DE090000 		.4byte	0x9de
 7210 1b02 02       		.uleb128 0x2
 7211 1b03 91       		.byte	0x91
 7212 1b04 5B       		.sleb128 -37
 7213 1b05 34       		.uleb128 0x34
 7214 1b06 63746C00 		.ascii	"ctl\000"
 7215 1b0a 07       		.byte	0x7
 7216 1b0b EF03     		.2byte	0x3ef
 7217 1b0d E9000000 		.4byte	0xe9
 7218 1b11 02       		.uleb128 0x2
 7219 1b12 91       		.byte	0x91
 7220 1b13 6C       		.sleb128 -20
 7221 1b14 36       		.uleb128 0x36
 7222 1b15 B0060000 		.4byte	.LASF354
 7223 1b19 07       		.byte	0x7
 7224 1b1a EF03     		.2byte	0x3ef
 7225 1b1c E9000000 		.4byte	0xe9
 7226 1b20 02       		.uleb128 0x2
 7227 1b21 91       		.byte	0x91
 7228 1b22 68       		.sleb128 -24
 7229 1b23 36       		.uleb128 0x36
 7230 1b24 C2080000 		.4byte	.LASF328
 7231 1b28 07       		.byte	0x7
 7232 1b29 F003     		.2byte	0x3f0
 7233 1b2b E5120000 		.4byte	0x12e5
 7234 1b2f 02       		.uleb128 0x2
 7235 1b30 91       		.byte	0x91
 7236 1b31 64       		.sleb128 -28
 7237 1b32 00       		.byte	0
 7238 1b33 38       		.uleb128 0x38
 7239 1b34 E50F0000 		.4byte	.LASF355
 7240 1b38 07       		.byte	0x7
 7241 1b39 2E04     		.2byte	0x42e
 7242 1b3b A0110000 		.4byte	.LFB289
 7243 1b3f 18000000 		.4byte	.LFE289-.LFB289
 7244 1b43 01       		.uleb128 0x1
 7245 1b44 9C       		.byte	0x9c
 7246 1b45 591B0000 		.4byte	0x1b59
 7247 1b49 2D       		.uleb128 0x2d
 7248 1b4a 10000000 		.4byte	.LASF326
 7249 1b4e 07       		.byte	0x7
 7250 1b4f 2E04     		.2byte	0x42e
 7251 1b51 190B0000 		.4byte	0xb19
 7252 1b55 02       		.uleb128 0x2
ARM GAS  /tmp/ccD2hNvo.s 			page 129


 7253 1b56 91       		.byte	0x91
 7254 1b57 74       		.sleb128 -12
 7255 1b58 00       		.byte	0
 7256 1b59 3A       		.uleb128 0x3a
 7257 1b5a 2C0A0000 		.4byte	.LASF356
 7258 1b5e 07       		.byte	0x7
 7259 1b5f 4304     		.2byte	0x443
 7260 1b61 400A0000 		.4byte	0xa40
 7261 1b65 C0110000 		.4byte	.LFB290
 7262 1b69 40000000 		.4byte	.LFE290-.LFB290
 7263 1b6d 01       		.uleb128 0x1
 7264 1b6e 9C       		.byte	0x9c
 7265 1b6f A01B0000 		.4byte	0x1ba0
 7266 1b73 2D       		.uleb128 0x2d
 7267 1b74 10000000 		.4byte	.LASF326
 7268 1b78 07       		.byte	0x7
 7269 1b79 4304     		.2byte	0x443
 7270 1b7b 190B0000 		.4byte	0xb19
 7271 1b7f 02       		.uleb128 0x2
 7272 1b80 91       		.byte	0x91
 7273 1b81 74       		.sleb128 -12
 7274 1b82 2F       		.uleb128 0x2f
 7275 1b83 657000   		.ascii	"ep\000"
 7276 1b86 07       		.byte	0x7
 7277 1b87 4304     		.2byte	0x443
 7278 1b89 DE090000 		.4byte	0x9de
 7279 1b8d 02       		.uleb128 0x2
 7280 1b8e 91       		.byte	0x91
 7281 1b8f 73       		.sleb128 -13
 7282 1b90 34       		.uleb128 0x34
 7283 1b91 63746C00 		.ascii	"ctl\000"
 7284 1b95 07       		.byte	0x7
 7285 1b96 4404     		.2byte	0x444
 7286 1b98 E9000000 		.4byte	0xe9
 7287 1b9c 02       		.uleb128 0x2
 7288 1b9d 91       		.byte	0x91
 7289 1b9e 7C       		.sleb128 -4
 7290 1b9f 00       		.byte	0
 7291 1ba0 3A       		.uleb128 0x3a
 7292 1ba1 EB060000 		.4byte	.LASF357
 7293 1ba5 07       		.byte	0x7
 7294 1ba6 5C04     		.2byte	0x45c
 7295 1ba8 400A0000 		.4byte	0xa40
 7296 1bac 00120000 		.4byte	.LFB291
 7297 1bb0 40000000 		.4byte	.LFE291-.LFB291
 7298 1bb4 01       		.uleb128 0x1
 7299 1bb5 9C       		.byte	0x9c
 7300 1bb6 E71B0000 		.4byte	0x1be7
 7301 1bba 2D       		.uleb128 0x2d
 7302 1bbb 10000000 		.4byte	.LASF326
 7303 1bbf 07       		.byte	0x7
 7304 1bc0 5C04     		.2byte	0x45c
 7305 1bc2 190B0000 		.4byte	0xb19
 7306 1bc6 02       		.uleb128 0x2
 7307 1bc7 91       		.byte	0x91
 7308 1bc8 74       		.sleb128 -12
 7309 1bc9 2F       		.uleb128 0x2f
ARM GAS  /tmp/ccD2hNvo.s 			page 130


 7310 1bca 657000   		.ascii	"ep\000"
 7311 1bcd 07       		.byte	0x7
 7312 1bce 5C04     		.2byte	0x45c
 7313 1bd0 DE090000 		.4byte	0x9de
 7314 1bd4 02       		.uleb128 0x2
 7315 1bd5 91       		.byte	0x91
 7316 1bd6 73       		.sleb128 -13
 7317 1bd7 34       		.uleb128 0x34
 7318 1bd8 63746C00 		.ascii	"ctl\000"
 7319 1bdc 07       		.byte	0x7
 7320 1bdd 5D04     		.2byte	0x45d
 7321 1bdf E9000000 		.4byte	0xe9
 7322 1be3 02       		.uleb128 0x2
 7323 1be4 91       		.byte	0x91
 7324 1be5 7C       		.sleb128 -4
 7325 1be6 00       		.byte	0
 7326 1be7 38       		.uleb128 0x38
 7327 1be8 6F010000 		.4byte	.LASF358
 7328 1bec 07       		.byte	0x7
 7329 1bed 7704     		.2byte	0x477
 7330 1bef 40120000 		.4byte	.LFB292
 7331 1bf3 2E000000 		.4byte	.LFE292-.LFB292
 7332 1bf7 01       		.uleb128 0x1
 7333 1bf8 9C       		.byte	0x9c
 7334 1bf9 2A1C0000 		.4byte	0x1c2a
 7335 1bfd 2D       		.uleb128 0x2d
 7336 1bfe 10000000 		.4byte	.LASF326
 7337 1c02 07       		.byte	0x7
 7338 1c03 7704     		.2byte	0x477
 7339 1c05 190B0000 		.4byte	0xb19
 7340 1c09 02       		.uleb128 0x2
 7341 1c0a 91       		.byte	0x91
 7342 1c0b 74       		.sleb128 -12
 7343 1c0c 2F       		.uleb128 0x2f
 7344 1c0d 657000   		.ascii	"ep\000"
 7345 1c10 07       		.byte	0x7
 7346 1c11 7704     		.2byte	0x477
 7347 1c13 DE090000 		.4byte	0x9de
 7348 1c17 02       		.uleb128 0x2
 7349 1c18 91       		.byte	0x91
 7350 1c19 73       		.sleb128 -13
 7351 1c1a 2F       		.uleb128 0x2f
 7352 1c1b 62756600 		.ascii	"buf\000"
 7353 1c1f 07       		.byte	0x7
 7354 1c20 7704     		.2byte	0x477
 7355 1c22 7B080000 		.4byte	0x87b
 7356 1c26 02       		.uleb128 0x2
 7357 1c27 91       		.byte	0x91
 7358 1c28 6C       		.sleb128 -20
 7359 1c29 00       		.byte	0
 7360 1c2a 39       		.uleb128 0x39
 7361 1c2b 940D0000 		.4byte	.LASF359
 7362 1c2f 07       		.byte	0x7
 7363 1c30 8404     		.2byte	0x484
 7364 1c32 70120000 		.4byte	.LFB293
 7365 1c36 3E010000 		.4byte	.LFE293-.LFB293
 7366 1c3a 01       		.uleb128 0x1
ARM GAS  /tmp/ccD2hNvo.s 			page 131


 7367 1c3b 9C       		.byte	0x9c
 7368 1c3c 8B1C0000 		.4byte	0x1c8b
 7369 1c40 2D       		.uleb128 0x2d
 7370 1c41 10000000 		.4byte	.LASF326
 7371 1c45 07       		.byte	0x7
 7372 1c46 8404     		.2byte	0x484
 7373 1c48 190B0000 		.4byte	0xb19
 7374 1c4c 02       		.uleb128 0x2
 7375 1c4d 91       		.byte	0x91
 7376 1c4e 6C       		.sleb128 -20
 7377 1c4f 2F       		.uleb128 0x2f
 7378 1c50 657000   		.ascii	"ep\000"
 7379 1c53 07       		.byte	0x7
 7380 1c54 8404     		.2byte	0x484
 7381 1c56 DE090000 		.4byte	0x9de
 7382 1c5a 02       		.uleb128 0x2
 7383 1c5b 91       		.byte	0x91
 7384 1c5c 6B       		.sleb128 -21
 7385 1c5d 36       		.uleb128 0x36
 7386 1c5e C40D0000 		.4byte	.LASF360
 7387 1c62 07       		.byte	0x7
 7388 1c63 8504     		.2byte	0x485
 7389 1c65 E9000000 		.4byte	0xe9
 7390 1c69 02       		.uleb128 0x2
 7391 1c6a 91       		.byte	0x91
 7392 1c6b 78       		.sleb128 -8
 7393 1c6c 36       		.uleb128 0x36
 7394 1c6d 67030000 		.4byte	.LASF285
 7395 1c71 07       		.byte	0x7
 7396 1c72 8504     		.2byte	0x485
 7397 1c74 E9000000 		.4byte	0xe9
 7398 1c78 02       		.uleb128 0x2
 7399 1c79 91       		.byte	0x91
 7400 1c7a 74       		.sleb128 -12
 7401 1c7b 34       		.uleb128 0x34
 7402 1c7c 6F737000 		.ascii	"osp\000"
 7403 1c80 07       		.byte	0x7
 7404 1c81 8604     		.2byte	0x486
 7405 1c83 43120000 		.4byte	0x1243
 7406 1c87 02       		.uleb128 0x2
 7407 1c88 91       		.byte	0x91
 7408 1c89 7C       		.sleb128 -4
 7409 1c8a 00       		.byte	0
 7410 1c8b 39       		.uleb128 0x39
 7411 1c8c CC090000 		.4byte	.LASF361
 7412 1c90 07       		.byte	0x7
 7413 1c91 AF04     		.2byte	0x4af
 7414 1c93 B0130000 		.4byte	.LFB294
 7415 1c97 5E010000 		.4byte	.LFE294-.LFB294
 7416 1c9b 01       		.uleb128 0x1
 7417 1c9c 9C       		.byte	0x9c
 7418 1c9d E71C0000 		.4byte	0x1ce7
 7419 1ca1 2D       		.uleb128 0x2d
 7420 1ca2 10000000 		.4byte	.LASF326
 7421 1ca6 07       		.byte	0x7
 7422 1ca7 AF04     		.2byte	0x4af
 7423 1ca9 190B0000 		.4byte	0xb19
ARM GAS  /tmp/ccD2hNvo.s 			page 132


 7424 1cad 02       		.uleb128 0x2
 7425 1cae 91       		.byte	0x91
 7426 1caf 74       		.sleb128 -12
 7427 1cb0 2F       		.uleb128 0x2f
 7428 1cb1 657000   		.ascii	"ep\000"
 7429 1cb4 07       		.byte	0x7
 7430 1cb5 AF04     		.2byte	0x4af
 7431 1cb7 DE090000 		.4byte	0x9de
 7432 1cbb 02       		.uleb128 0x2
 7433 1cbc 91       		.byte	0x91
 7434 1cbd 73       		.sleb128 -13
 7435 1cbe 34       		.uleb128 0x34
 7436 1cbf 69737000 		.ascii	"isp\000"
 7437 1cc3 07       		.byte	0x7
 7438 1cc4 B004     		.2byte	0x4b0
 7439 1cc6 3D120000 		.4byte	0x123d
 7440 1cca 02       		.uleb128 0x2
 7441 1ccb 91       		.byte	0x91
 7442 1ccc 7C       		.sleb128 -4
 7443 1ccd 35       		.uleb128 0x35
 7444 1cce F4130000 		.4byte	.LBB13
 7445 1cd2 64000000 		.4byte	.LBE13-.LBB13
 7446 1cd6 36       		.uleb128 0x36
 7447 1cd7 C40D0000 		.4byte	.LASF360
 7448 1cdb 07       		.byte	0x7
 7449 1cdc BD04     		.2byte	0x4bd
 7450 1cde E9000000 		.4byte	0xe9
 7451 1ce2 02       		.uleb128 0x2
 7452 1ce3 91       		.byte	0x91
 7453 1ce4 78       		.sleb128 -8
 7454 1ce5 00       		.byte	0
 7455 1ce6 00       		.byte	0
 7456 1ce7 39       		.uleb128 0x39
 7457 1ce8 40110000 		.4byte	.LASF362
 7458 1cec 07       		.byte	0x7
 7459 1ced DA04     		.2byte	0x4da
 7460 1cef 10150000 		.4byte	.LFB295
 7461 1cf3 32000000 		.4byte	.LFE295-.LFB295
 7462 1cf7 01       		.uleb128 0x1
 7463 1cf8 9C       		.byte	0x9c
 7464 1cf9 1B1D0000 		.4byte	0x1d1b
 7465 1cfd 2D       		.uleb128 0x2d
 7466 1cfe 10000000 		.4byte	.LASF326
 7467 1d02 07       		.byte	0x7
 7468 1d03 DA04     		.2byte	0x4da
 7469 1d05 190B0000 		.4byte	0xb19
 7470 1d09 02       		.uleb128 0x2
 7471 1d0a 91       		.byte	0x91
 7472 1d0b 7C       		.sleb128 -4
 7473 1d0c 2F       		.uleb128 0x2f
 7474 1d0d 657000   		.ascii	"ep\000"
 7475 1d10 07       		.byte	0x7
 7476 1d11 DA04     		.2byte	0x4da
 7477 1d13 DE090000 		.4byte	0x9de
 7478 1d17 02       		.uleb128 0x2
 7479 1d18 91       		.byte	0x91
 7480 1d19 7B       		.sleb128 -5
ARM GAS  /tmp/ccD2hNvo.s 			page 133


 7481 1d1a 00       		.byte	0
 7482 1d1b 39       		.uleb128 0x39
 7483 1d1c 2B010000 		.4byte	.LASF363
 7484 1d20 07       		.byte	0x7
 7485 1d21 E704     		.2byte	0x4e7
 7486 1d23 50150000 		.4byte	.LFB296
 7487 1d27 32000000 		.4byte	.LFE296-.LFB296
 7488 1d2b 01       		.uleb128 0x1
 7489 1d2c 9C       		.byte	0x9c
 7490 1d2d 4F1D0000 		.4byte	0x1d4f
 7491 1d31 2D       		.uleb128 0x2d
 7492 1d32 10000000 		.4byte	.LASF326
 7493 1d36 07       		.byte	0x7
 7494 1d37 E704     		.2byte	0x4e7
 7495 1d39 190B0000 		.4byte	0xb19
 7496 1d3d 02       		.uleb128 0x2
 7497 1d3e 91       		.byte	0x91
 7498 1d3f 7C       		.sleb128 -4
 7499 1d40 2F       		.uleb128 0x2f
 7500 1d41 657000   		.ascii	"ep\000"
 7501 1d44 07       		.byte	0x7
 7502 1d45 E704     		.2byte	0x4e7
 7503 1d47 DE090000 		.4byte	0x9de
 7504 1d4b 02       		.uleb128 0x2
 7505 1d4c 91       		.byte	0x91
 7506 1d4d 7B       		.sleb128 -5
 7507 1d4e 00       		.byte	0
 7508 1d4f 39       		.uleb128 0x39
 7509 1d50 B2100000 		.4byte	.LASF364
 7510 1d54 07       		.byte	0x7
 7511 1d55 F404     		.2byte	0x4f4
 7512 1d57 90150000 		.4byte	.LFB297
 7513 1d5b 32000000 		.4byte	.LFE297-.LFB297
 7514 1d5f 01       		.uleb128 0x1
 7515 1d60 9C       		.byte	0x9c
 7516 1d61 831D0000 		.4byte	0x1d83
 7517 1d65 2D       		.uleb128 0x2d
 7518 1d66 10000000 		.4byte	.LASF326
 7519 1d6a 07       		.byte	0x7
 7520 1d6b F404     		.2byte	0x4f4
 7521 1d6d 190B0000 		.4byte	0xb19
 7522 1d71 02       		.uleb128 0x2
 7523 1d72 91       		.byte	0x91
 7524 1d73 7C       		.sleb128 -4
 7525 1d74 2F       		.uleb128 0x2f
 7526 1d75 657000   		.ascii	"ep\000"
 7527 1d78 07       		.byte	0x7
 7528 1d79 F404     		.2byte	0x4f4
 7529 1d7b DE090000 		.4byte	0x9de
 7530 1d7f 02       		.uleb128 0x2
 7531 1d80 91       		.byte	0x91
 7532 1d81 7B       		.sleb128 -5
 7533 1d82 00       		.byte	0
 7534 1d83 39       		.uleb128 0x39
 7535 1d84 EF090000 		.4byte	.LASF365
 7536 1d88 07       		.byte	0x7
 7537 1d89 0105     		.2byte	0x501
ARM GAS  /tmp/ccD2hNvo.s 			page 134


 7538 1d8b D0150000 		.4byte	.LFB298
 7539 1d8f 32000000 		.4byte	.LFE298-.LFB298
 7540 1d93 01       		.uleb128 0x1
 7541 1d94 9C       		.byte	0x9c
 7542 1d95 B71D0000 		.4byte	0x1db7
 7543 1d99 2D       		.uleb128 0x2d
 7544 1d9a 10000000 		.4byte	.LASF326
 7545 1d9e 07       		.byte	0x7
 7546 1d9f 0105     		.2byte	0x501
 7547 1da1 190B0000 		.4byte	0xb19
 7548 1da5 02       		.uleb128 0x2
 7549 1da6 91       		.byte	0x91
 7550 1da7 7C       		.sleb128 -4
 7551 1da8 2F       		.uleb128 0x2f
 7552 1da9 657000   		.ascii	"ep\000"
 7553 1dac 07       		.byte	0x7
 7554 1dad 0105     		.2byte	0x501
 7555 1daf DE090000 		.4byte	0x9de
 7556 1db3 02       		.uleb128 0x2
 7557 1db4 91       		.byte	0x91
 7558 1db5 7B       		.sleb128 -5
 7559 1db6 00       		.byte	0
 7560 1db7 38       		.uleb128 0x38
 7561 1db8 8E0F0000 		.4byte	.LASF366
 7562 1dbc 07       		.byte	0x7
 7563 1dbd 1105     		.2byte	0x511
 7564 1dbf 10160000 		.4byte	.LFB299
 7565 1dc3 0C010000 		.4byte	.LFE299-.LFB299
 7566 1dc7 01       		.uleb128 0x1
 7567 1dc8 9C       		.byte	0x9c
 7568 1dc9 391E0000 		.4byte	0x1e39
 7569 1dcd 2F       		.uleb128 0x2f
 7570 1dce 7000     		.ascii	"p\000"
 7571 1dd0 07       		.byte	0x7
 7572 1dd1 1105     		.2byte	0x511
 7573 1dd3 B4000000 		.4byte	0xb4
 7574 1dd7 02       		.uleb128 0x2
 7575 1dd8 91       		.byte	0x91
 7576 1dd9 5C       		.sleb128 -36
 7577 1dda 36       		.uleb128 0x36
 7578 1ddb 10000000 		.4byte	.LASF326
 7579 1ddf 07       		.byte	0x7
 7580 1de0 1205     		.2byte	0x512
 7581 1de2 190B0000 		.4byte	0xb19
 7582 1de6 02       		.uleb128 0x2
 7583 1de7 91       		.byte	0x91
 7584 1de8 70       		.sleb128 -16
 7585 1de9 36       		.uleb128 0x36
 7586 1dea C2080000 		.4byte	.LASF328
 7587 1dee 07       		.byte	0x7
 7588 1def 1305     		.2byte	0x513
 7589 1df1 E5120000 		.4byte	0x12e5
 7590 1df5 02       		.uleb128 0x2
 7591 1df6 91       		.byte	0x91
 7592 1df7 6C       		.sleb128 -20
 7593 1df8 35       		.uleb128 0x35
 7594 1df9 2A160000 		.4byte	.LBB14
ARM GAS  /tmp/ccD2hNvo.s 			page 135


 7595 1dfd EC000000 		.4byte	.LBE14-.LBB14
 7596 1e01 34       		.uleb128 0x34
 7597 1e02 657000   		.ascii	"ep\000"
 7598 1e05 07       		.byte	0x7
 7599 1e06 1A05     		.2byte	0x51a
 7600 1e08 DE090000 		.4byte	0x9de
 7601 1e0c 02       		.uleb128 0x2
 7602 1e0d 91       		.byte	0x91
 7603 1e0e 77       		.sleb128 -9
 7604 1e0f 36       		.uleb128 0x36
 7605 1e10 250A0000 		.4byte	.LASF367
 7606 1e14 07       		.byte	0x7
 7607 1e15 1B05     		.2byte	0x51b
 7608 1e17 E9000000 		.4byte	0xe9
 7609 1e1b 02       		.uleb128 0x2
 7610 1e1c 91       		.byte	0x91
 7611 1e1d 68       		.sleb128 -24
 7612 1e1e 35       		.uleb128 0x35
 7613 1e1f 94160000 		.4byte	.LBB15
 7614 1e23 66000000 		.4byte	.LBE15-.LBB15
 7615 1e27 36       		.uleb128 0x36
 7616 1e28 960A0000 		.4byte	.LASF368
 7617 1e2c 07       		.byte	0x7
 7618 1e2d 2F05     		.2byte	0x52f
 7619 1e2f 92080000 		.4byte	0x892
 7620 1e33 02       		.uleb128 0x2
 7621 1e34 91       		.byte	0x91
 7622 1e35 67       		.sleb128 -25
 7623 1e36 00       		.byte	0
 7624 1e37 00       		.byte	0
 7625 1e38 00       		.byte	0
 7626 1e39 31       		.uleb128 0x31
 7627 1e3a 62100000 		.4byte	.LASF369
 7628 1e3e 07       		.byte	0x7
 7629 1e3f 5B       		.byte	0x5b
 7630 1e40 06130000 		.4byte	0x1306
 7631 1e44 05       		.uleb128 0x5
 7632 1e45 03       		.byte	0x3
 7633 1e46 00000000 		.4byte	ep0_state
 7634 1e4a 31       		.uleb128 0x31
 7635 1e4b AC0D0000 		.4byte	.LASF370
 7636 1e4f 07       		.byte	0x7
 7637 1e50 60       		.byte	0x60
 7638 1e51 D5120000 		.4byte	0x12d5
 7639 1e55 05       		.uleb128 0x5
 7640 1e56 03       		.byte	0x3
 7641 1e57 10000000 		.4byte	ep0setup_buffer
 7642 1e5b 31       		.uleb128 0x31
 7643 1e5c 580A0000 		.4byte	.LASF371
 7644 1e60 07       		.byte	0x7
 7645 1e61 65       		.byte	0x65
 7646 1e62 C0120000 		.4byte	0x12c0
 7647 1e66 05       		.uleb128 0x5
 7648 1e67 03       		.byte	0x3
 7649 1e68 00000000 		.4byte	ep0config
 7650 1e6c 31       		.uleb128 0x31
 7651 1e6d D3020000 		.4byte	.LASF372
ARM GAS  /tmp/ccD2hNvo.s 			page 136


 7652 1e71 07       		.byte	0x7
 7653 1e72 73       		.byte	0x73
 7654 1e73 F1120000 		.4byte	0x12f1
 7655 1e77 05       		.uleb128 0x5
 7656 1e78 03       		.byte	0x3
 7657 1e79 24000000 		.4byte	fsparams
 7658 1e7d 3B       		.uleb128 0x3b
 7659 1e7e 500C0000 		.4byte	.LASF373
 7660 1e82 16       		.byte	0x16
 7661 1e83 FA06     		.2byte	0x6fa
 7662 1e85 891E0000 		.4byte	0x1e89
 7663 1e89 10       		.uleb128 0x10
 7664 1e8a DE000000 		.4byte	0xde
 7665 1e8e 3C       		.uleb128 0x3c
 7666 1e8f 636800   		.ascii	"ch\000"
 7667 1e92 0D       		.byte	0xd
 7668 1e93 0902     		.2byte	0x209
 7669 1e95 26040000 		.4byte	0x426
 7670 1e99 3D       		.uleb128 0x3d
 7671 1e9a 810F0000 		.4byte	.LASF374
 7672 1e9e 07       		.byte	0x7
 7673 1e9f 41       		.byte	0x41
 7674 1ea0 99080000 		.4byte	0x899
 7675 1ea4 05       		.uleb128 0x5
 7676 1ea5 03       		.byte	0x3
 7677 1ea6 00000000 		.4byte	USBD1
 7678 1eaa 00       		.byte	0
 7679              		.section	.debug_abbrev,"",%progbits
 7680              	.Ldebug_abbrev0:
 7681 0000 01       		.uleb128 0x1
 7682 0001 11       		.uleb128 0x11
 7683 0002 01       		.byte	0x1
 7684 0003 25       		.uleb128 0x25
 7685 0004 0E       		.uleb128 0xe
 7686 0005 13       		.uleb128 0x13
 7687 0006 0B       		.uleb128 0xb
 7688 0007 03       		.uleb128 0x3
 7689 0008 0E       		.uleb128 0xe
 7690 0009 1B       		.uleb128 0x1b
 7691 000a 0E       		.uleb128 0xe
 7692 000b 11       		.uleb128 0x11
 7693 000c 01       		.uleb128 0x1
 7694 000d 12       		.uleb128 0x12
 7695 000e 06       		.uleb128 0x6
 7696 000f 10       		.uleb128 0x10
 7697 0010 17       		.uleb128 0x17
 7698 0011 00       		.byte	0
 7699 0012 00       		.byte	0
 7700 0013 02       		.uleb128 0x2
 7701 0014 24       		.uleb128 0x24
 7702 0015 00       		.byte	0
 7703 0016 0B       		.uleb128 0xb
 7704 0017 0B       		.uleb128 0xb
 7705 0018 3E       		.uleb128 0x3e
 7706 0019 0B       		.uleb128 0xb
 7707 001a 03       		.uleb128 0x3
 7708 001b 08       		.uleb128 0x8
ARM GAS  /tmp/ccD2hNvo.s 			page 137


 7709 001c 00       		.byte	0
 7710 001d 00       		.byte	0
 7711 001e 03       		.uleb128 0x3
 7712 001f 16       		.uleb128 0x16
 7713 0020 00       		.byte	0
 7714 0021 03       		.uleb128 0x3
 7715 0022 0E       		.uleb128 0xe
 7716 0023 3A       		.uleb128 0x3a
 7717 0024 0B       		.uleb128 0xb
 7718 0025 3B       		.uleb128 0x3b
 7719 0026 0B       		.uleb128 0xb
 7720 0027 49       		.uleb128 0x49
 7721 0028 13       		.uleb128 0x13
 7722 0029 00       		.byte	0
 7723 002a 00       		.byte	0
 7724 002b 04       		.uleb128 0x4
 7725 002c 24       		.uleb128 0x24
 7726 002d 00       		.byte	0
 7727 002e 0B       		.uleb128 0xb
 7728 002f 0B       		.uleb128 0xb
 7729 0030 3E       		.uleb128 0x3e
 7730 0031 0B       		.uleb128 0xb
 7731 0032 03       		.uleb128 0x3
 7732 0033 0E       		.uleb128 0xe
 7733 0034 00       		.byte	0
 7734 0035 00       		.byte	0
 7735 0036 05       		.uleb128 0x5
 7736 0037 0F       		.uleb128 0xf
 7737 0038 00       		.byte	0
 7738 0039 0B       		.uleb128 0xb
 7739 003a 0B       		.uleb128 0xb
 7740 003b 00       		.byte	0
 7741 003c 00       		.byte	0
 7742 003d 06       		.uleb128 0x6
 7743 003e 0F       		.uleb128 0xf
 7744 003f 00       		.byte	0
 7745 0040 0B       		.uleb128 0xb
 7746 0041 0B       		.uleb128 0xb
 7747 0042 49       		.uleb128 0x49
 7748 0043 13       		.uleb128 0x13
 7749 0044 00       		.byte	0
 7750 0045 00       		.byte	0
 7751 0046 07       		.uleb128 0x7
 7752 0047 26       		.uleb128 0x26
 7753 0048 00       		.byte	0
 7754 0049 49       		.uleb128 0x49
 7755 004a 13       		.uleb128 0x13
 7756 004b 00       		.byte	0
 7757 004c 00       		.byte	0
 7758 004d 08       		.uleb128 0x8
 7759 004e 13       		.uleb128 0x13
 7760 004f 01       		.byte	0x1
 7761 0050 03       		.uleb128 0x3
 7762 0051 0E       		.uleb128 0xe
 7763 0052 0B       		.uleb128 0xb
 7764 0053 0B       		.uleb128 0xb
 7765 0054 3A       		.uleb128 0x3a
ARM GAS  /tmp/ccD2hNvo.s 			page 138


 7766 0055 0B       		.uleb128 0xb
 7767 0056 3B       		.uleb128 0x3b
 7768 0057 0B       		.uleb128 0xb
 7769 0058 01       		.uleb128 0x1
 7770 0059 13       		.uleb128 0x13
 7771 005a 00       		.byte	0
 7772 005b 00       		.byte	0
 7773 005c 09       		.uleb128 0x9
 7774 005d 0D       		.uleb128 0xd
 7775 005e 00       		.byte	0
 7776 005f 03       		.uleb128 0x3
 7777 0060 0E       		.uleb128 0xe
 7778 0061 3A       		.uleb128 0x3a
 7779 0062 0B       		.uleb128 0xb
 7780 0063 3B       		.uleb128 0x3b
 7781 0064 0B       		.uleb128 0xb
 7782 0065 49       		.uleb128 0x49
 7783 0066 13       		.uleb128 0x13
 7784 0067 38       		.uleb128 0x38
 7785 0068 0B       		.uleb128 0xb
 7786 0069 00       		.byte	0
 7787 006a 00       		.byte	0
 7788 006b 0A       		.uleb128 0xa
 7789 006c 0D       		.uleb128 0xd
 7790 006d 00       		.byte	0
 7791 006e 03       		.uleb128 0x3
 7792 006f 08       		.uleb128 0x8
 7793 0070 3A       		.uleb128 0x3a
 7794 0071 0B       		.uleb128 0xb
 7795 0072 3B       		.uleb128 0x3b
 7796 0073 05       		.uleb128 0x5
 7797 0074 49       		.uleb128 0x49
 7798 0075 13       		.uleb128 0x13
 7799 0076 38       		.uleb128 0x38
 7800 0077 0B       		.uleb128 0xb
 7801 0078 00       		.byte	0
 7802 0079 00       		.byte	0
 7803 007a 0B       		.uleb128 0xb
 7804 007b 0D       		.uleb128 0xd
 7805 007c 00       		.byte	0
 7806 007d 03       		.uleb128 0x3
 7807 007e 0E       		.uleb128 0xe
 7808 007f 3A       		.uleb128 0x3a
 7809 0080 0B       		.uleb128 0xb
 7810 0081 3B       		.uleb128 0x3b
 7811 0082 05       		.uleb128 0x5
 7812 0083 49       		.uleb128 0x49
 7813 0084 13       		.uleb128 0x13
 7814 0085 38       		.uleb128 0x38
 7815 0086 0B       		.uleb128 0xb
 7816 0087 00       		.byte	0
 7817 0088 00       		.byte	0
 7818 0089 0C       		.uleb128 0xc
 7819 008a 13       		.uleb128 0x13
 7820 008b 01       		.byte	0x1
 7821 008c 03       		.uleb128 0x3
 7822 008d 0E       		.uleb128 0xe
ARM GAS  /tmp/ccD2hNvo.s 			page 139


 7823 008e 0B       		.uleb128 0xb
 7824 008f 0B       		.uleb128 0xb
 7825 0090 3A       		.uleb128 0x3a
 7826 0091 0B       		.uleb128 0xb
 7827 0092 3B       		.uleb128 0x3b
 7828 0093 05       		.uleb128 0x5
 7829 0094 01       		.uleb128 0x1
 7830 0095 13       		.uleb128 0x13
 7831 0096 00       		.byte	0
 7832 0097 00       		.byte	0
 7833 0098 0D       		.uleb128 0xd
 7834 0099 15       		.uleb128 0x15
 7835 009a 01       		.byte	0x1
 7836 009b 27       		.uleb128 0x27
 7837 009c 19       		.uleb128 0x19
 7838 009d 01       		.uleb128 0x1
 7839 009e 13       		.uleb128 0x13
 7840 009f 00       		.byte	0
 7841 00a0 00       		.byte	0
 7842 00a1 0E       		.uleb128 0xe
 7843 00a2 05       		.uleb128 0x5
 7844 00a3 00       		.byte	0
 7845 00a4 49       		.uleb128 0x49
 7846 00a5 13       		.uleb128 0x13
 7847 00a6 00       		.byte	0
 7848 00a7 00       		.byte	0
 7849 00a8 0F       		.uleb128 0xf
 7850 00a9 13       		.uleb128 0x13
 7851 00aa 01       		.byte	0x1
 7852 00ab 03       		.uleb128 0x3
 7853 00ac 0E       		.uleb128 0xe
 7854 00ad 0B       		.uleb128 0xb
 7855 00ae 05       		.uleb128 0x5
 7856 00af 3A       		.uleb128 0x3a
 7857 00b0 0B       		.uleb128 0xb
 7858 00b1 3B       		.uleb128 0x3b
 7859 00b2 05       		.uleb128 0x5
 7860 00b3 01       		.uleb128 0x1
 7861 00b4 13       		.uleb128 0x13
 7862 00b5 00       		.byte	0
 7863 00b6 00       		.byte	0
 7864 00b7 10       		.uleb128 0x10
 7865 00b8 35       		.uleb128 0x35
 7866 00b9 00       		.byte	0
 7867 00ba 49       		.uleb128 0x49
 7868 00bb 13       		.uleb128 0x13
 7869 00bc 00       		.byte	0
 7870 00bd 00       		.byte	0
 7871 00be 11       		.uleb128 0x11
 7872 00bf 01       		.uleb128 0x1
 7873 00c0 01       		.byte	0x1
 7874 00c1 49       		.uleb128 0x49
 7875 00c2 13       		.uleb128 0x13
 7876 00c3 01       		.uleb128 0x1
 7877 00c4 13       		.uleb128 0x13
 7878 00c5 00       		.byte	0
 7879 00c6 00       		.byte	0
ARM GAS  /tmp/ccD2hNvo.s 			page 140


 7880 00c7 12       		.uleb128 0x12
 7881 00c8 21       		.uleb128 0x21
 7882 00c9 00       		.byte	0
 7883 00ca 49       		.uleb128 0x49
 7884 00cb 13       		.uleb128 0x13
 7885 00cc 2F       		.uleb128 0x2f
 7886 00cd 0B       		.uleb128 0xb
 7887 00ce 00       		.byte	0
 7888 00cf 00       		.byte	0
 7889 00d0 13       		.uleb128 0x13
 7890 00d1 13       		.uleb128 0x13
 7891 00d2 01       		.byte	0x1
 7892 00d3 0B       		.uleb128 0xb
 7893 00d4 0B       		.uleb128 0xb
 7894 00d5 3A       		.uleb128 0x3a
 7895 00d6 0B       		.uleb128 0xb
 7896 00d7 3B       		.uleb128 0x3b
 7897 00d8 05       		.uleb128 0x5
 7898 00d9 01       		.uleb128 0x1
 7899 00da 13       		.uleb128 0x13
 7900 00db 00       		.byte	0
 7901 00dc 00       		.byte	0
 7902 00dd 14       		.uleb128 0x14
 7903 00de 16       		.uleb128 0x16
 7904 00df 00       		.byte	0
 7905 00e0 03       		.uleb128 0x3
 7906 00e1 0E       		.uleb128 0xe
 7907 00e2 3A       		.uleb128 0x3a
 7908 00e3 0B       		.uleb128 0xb
 7909 00e4 3B       		.uleb128 0x3b
 7910 00e5 05       		.uleb128 0x5
 7911 00e6 49       		.uleb128 0x49
 7912 00e7 13       		.uleb128 0x13
 7913 00e8 00       		.byte	0
 7914 00e9 00       		.byte	0
 7915 00ea 15       		.uleb128 0x15
 7916 00eb 0D       		.uleb128 0xd
 7917 00ec 00       		.byte	0
 7918 00ed 03       		.uleb128 0x3
 7919 00ee 08       		.uleb128 0x8
 7920 00ef 3A       		.uleb128 0x3a
 7921 00f0 0B       		.uleb128 0xb
 7922 00f1 3B       		.uleb128 0x3b
 7923 00f2 0B       		.uleb128 0xb
 7924 00f3 49       		.uleb128 0x49
 7925 00f4 13       		.uleb128 0x13
 7926 00f5 38       		.uleb128 0x38
 7927 00f6 0B       		.uleb128 0xb
 7928 00f7 00       		.byte	0
 7929 00f8 00       		.byte	0
 7930 00f9 16       		.uleb128 0x16
 7931 00fa 13       		.uleb128 0x13
 7932 00fb 01       		.byte	0x1
 7933 00fc 0B       		.uleb128 0xb
 7934 00fd 0B       		.uleb128 0xb
 7935 00fe 3A       		.uleb128 0x3a
 7936 00ff 0B       		.uleb128 0xb
ARM GAS  /tmp/ccD2hNvo.s 			page 141


 7937 0100 3B       		.uleb128 0x3b
 7938 0101 0B       		.uleb128 0xb
 7939 0102 01       		.uleb128 0x1
 7940 0103 13       		.uleb128 0x13
 7941 0104 00       		.byte	0
 7942 0105 00       		.byte	0
 7943 0106 17       		.uleb128 0x17
 7944 0107 17       		.uleb128 0x17
 7945 0108 01       		.byte	0x1
 7946 0109 0B       		.uleb128 0xb
 7947 010a 0B       		.uleb128 0xb
 7948 010b 3A       		.uleb128 0x3a
 7949 010c 0B       		.uleb128 0xb
 7950 010d 3B       		.uleb128 0x3b
 7951 010e 0B       		.uleb128 0xb
 7952 010f 01       		.uleb128 0x1
 7953 0110 13       		.uleb128 0x13
 7954 0111 00       		.byte	0
 7955 0112 00       		.byte	0
 7956 0113 18       		.uleb128 0x18
 7957 0114 0D       		.uleb128 0xd
 7958 0115 00       		.byte	0
 7959 0116 03       		.uleb128 0x3
 7960 0117 0E       		.uleb128 0xe
 7961 0118 3A       		.uleb128 0x3a
 7962 0119 0B       		.uleb128 0xb
 7963 011a 3B       		.uleb128 0x3b
 7964 011b 05       		.uleb128 0x5
 7965 011c 49       		.uleb128 0x49
 7966 011d 13       		.uleb128 0x13
 7967 011e 00       		.byte	0
 7968 011f 00       		.byte	0
 7969 0120 19       		.uleb128 0x19
 7970 0121 04       		.uleb128 0x4
 7971 0122 01       		.byte	0x1
 7972 0123 0B       		.uleb128 0xb
 7973 0124 0B       		.uleb128 0xb
 7974 0125 3A       		.uleb128 0x3a
 7975 0126 0B       		.uleb128 0xb
 7976 0127 3B       		.uleb128 0x3b
 7977 0128 05       		.uleb128 0x5
 7978 0129 01       		.uleb128 0x1
 7979 012a 13       		.uleb128 0x13
 7980 012b 00       		.byte	0
 7981 012c 00       		.byte	0
 7982 012d 1A       		.uleb128 0x1a
 7983 012e 28       		.uleb128 0x28
 7984 012f 00       		.byte	0
 7985 0130 03       		.uleb128 0x3
 7986 0131 0E       		.uleb128 0xe
 7987 0132 1C       		.uleb128 0x1c
 7988 0133 0D       		.uleb128 0xd
 7989 0134 00       		.byte	0
 7990 0135 00       		.byte	0
 7991 0136 1B       		.uleb128 0x1b
 7992 0137 15       		.uleb128 0x15
 7993 0138 01       		.byte	0x1
ARM GAS  /tmp/ccD2hNvo.s 			page 142


 7994 0139 27       		.uleb128 0x27
 7995 013a 19       		.uleb128 0x19
 7996 013b 49       		.uleb128 0x49
 7997 013c 13       		.uleb128 0x13
 7998 013d 01       		.uleb128 0x1
 7999 013e 13       		.uleb128 0x13
 8000 013f 00       		.byte	0
 8001 0140 00       		.byte	0
 8002 0141 1C       		.uleb128 0x1c
 8003 0142 13       		.uleb128 0x13
 8004 0143 01       		.byte	0x1
 8005 0144 0B       		.uleb128 0xb
 8006 0145 06       		.uleb128 0x6
 8007 0146 3A       		.uleb128 0x3a
 8008 0147 0B       		.uleb128 0xb
 8009 0148 3B       		.uleb128 0x3b
 8010 0149 0B       		.uleb128 0xb
 8011 014a 01       		.uleb128 0x1
 8012 014b 13       		.uleb128 0x13
 8013 014c 00       		.byte	0
 8014 014d 00       		.byte	0
 8015 014e 1D       		.uleb128 0x1d
 8016 014f 0D       		.uleb128 0xd
 8017 0150 00       		.byte	0
 8018 0151 03       		.uleb128 0x3
 8019 0152 0E       		.uleb128 0xe
 8020 0153 3A       		.uleb128 0x3a
 8021 0154 0B       		.uleb128 0xb
 8022 0155 3B       		.uleb128 0x3b
 8023 0156 0B       		.uleb128 0xb
 8024 0157 49       		.uleb128 0x49
 8025 0158 13       		.uleb128 0x13
 8026 0159 38       		.uleb128 0x38
 8027 015a 05       		.uleb128 0x5
 8028 015b 00       		.byte	0
 8029 015c 00       		.byte	0
 8030 015d 1E       		.uleb128 0x1e
 8031 015e 0D       		.uleb128 0xd
 8032 015f 00       		.byte	0
 8033 0160 03       		.uleb128 0x3
 8034 0161 08       		.uleb128 0x8
 8035 0162 3A       		.uleb128 0x3a
 8036 0163 0B       		.uleb128 0xb
 8037 0164 3B       		.uleb128 0x3b
 8038 0165 0B       		.uleb128 0xb
 8039 0166 49       		.uleb128 0x49
 8040 0167 13       		.uleb128 0x13
 8041 0168 38       		.uleb128 0x38
 8042 0169 05       		.uleb128 0x5
 8043 016a 00       		.byte	0
 8044 016b 00       		.byte	0
 8045 016c 1F       		.uleb128 0x1f
 8046 016d 21       		.uleb128 0x21
 8047 016e 00       		.byte	0
 8048 016f 49       		.uleb128 0x49
 8049 0170 13       		.uleb128 0x13
 8050 0171 2F       		.uleb128 0x2f
ARM GAS  /tmp/ccD2hNvo.s 			page 143


 8051 0172 05       		.uleb128 0x5
 8052 0173 00       		.byte	0
 8053 0174 00       		.byte	0
 8054 0175 20       		.uleb128 0x20
 8055 0176 0D       		.uleb128 0xd
 8056 0177 00       		.byte	0
 8057 0178 03       		.uleb128 0x3
 8058 0179 08       		.uleb128 0x8
 8059 017a 3A       		.uleb128 0x3a
 8060 017b 0B       		.uleb128 0xb
 8061 017c 3B       		.uleb128 0x3b
 8062 017d 0B       		.uleb128 0xb
 8063 017e 49       		.uleb128 0x49
 8064 017f 13       		.uleb128 0x13
 8065 0180 00       		.byte	0
 8066 0181 00       		.byte	0
 8067 0182 21       		.uleb128 0x21
 8068 0183 2E       		.uleb128 0x2e
 8069 0184 01       		.byte	0x1
 8070 0185 03       		.uleb128 0x3
 8071 0186 0E       		.uleb128 0xe
 8072 0187 3A       		.uleb128 0x3a
 8073 0188 0B       		.uleb128 0xb
 8074 0189 3B       		.uleb128 0x3b
 8075 018a 05       		.uleb128 0x5
 8076 018b 27       		.uleb128 0x27
 8077 018c 19       		.uleb128 0x19
 8078 018d 20       		.uleb128 0x20
 8079 018e 0B       		.uleb128 0xb
 8080 018f 01       		.uleb128 0x1
 8081 0190 13       		.uleb128 0x13
 8082 0191 00       		.byte	0
 8083 0192 00       		.byte	0
 8084 0193 22       		.uleb128 0x22
 8085 0194 05       		.uleb128 0x5
 8086 0195 00       		.byte	0
 8087 0196 03       		.uleb128 0x3
 8088 0197 0E       		.uleb128 0xe
 8089 0198 3A       		.uleb128 0x3a
 8090 0199 0B       		.uleb128 0xb
 8091 019a 3B       		.uleb128 0x3b
 8092 019b 05       		.uleb128 0x5
 8093 019c 49       		.uleb128 0x49
 8094 019d 13       		.uleb128 0x13
 8095 019e 00       		.byte	0
 8096 019f 00       		.byte	0
 8097 01a0 23       		.uleb128 0x23
 8098 01a1 2E       		.uleb128 0x2e
 8099 01a2 01       		.byte	0x1
 8100 01a3 03       		.uleb128 0x3
 8101 01a4 0E       		.uleb128 0xe
 8102 01a5 3A       		.uleb128 0x3a
 8103 01a6 0B       		.uleb128 0xb
 8104 01a7 3B       		.uleb128 0x3b
 8105 01a8 05       		.uleb128 0x5
 8106 01a9 27       		.uleb128 0x27
 8107 01aa 19       		.uleb128 0x19
ARM GAS  /tmp/ccD2hNvo.s 			page 144


 8108 01ab 11       		.uleb128 0x11
 8109 01ac 01       		.uleb128 0x1
 8110 01ad 12       		.uleb128 0x12
 8111 01ae 06       		.uleb128 0x6
 8112 01af 40       		.uleb128 0x40
 8113 01b0 18       		.uleb128 0x18
 8114 01b1 9742     		.uleb128 0x2117
 8115 01b3 19       		.uleb128 0x19
 8116 01b4 01       		.uleb128 0x1
 8117 01b5 13       		.uleb128 0x13
 8118 01b6 00       		.byte	0
 8119 01b7 00       		.byte	0
 8120 01b8 24       		.uleb128 0x24
 8121 01b9 1D       		.uleb128 0x1d
 8122 01ba 01       		.byte	0x1
 8123 01bb 31       		.uleb128 0x31
 8124 01bc 13       		.uleb128 0x13
 8125 01bd 11       		.uleb128 0x11
 8126 01be 01       		.uleb128 0x1
 8127 01bf 12       		.uleb128 0x12
 8128 01c0 06       		.uleb128 0x6
 8129 01c1 58       		.uleb128 0x58
 8130 01c2 0B       		.uleb128 0xb
 8131 01c3 59       		.uleb128 0x59
 8132 01c4 05       		.uleb128 0x5
 8133 01c5 00       		.byte	0
 8134 01c6 00       		.byte	0
 8135 01c7 25       		.uleb128 0x25
 8136 01c8 05       		.uleb128 0x5
 8137 01c9 00       		.byte	0
 8138 01ca 31       		.uleb128 0x31
 8139 01cb 13       		.uleb128 0x13
 8140 01cc 02       		.uleb128 0x2
 8141 01cd 18       		.uleb128 0x18
 8142 01ce 00       		.byte	0
 8143 01cf 00       		.byte	0
 8144 01d0 26       		.uleb128 0x26
 8145 01d1 2E       		.uleb128 0x2e
 8146 01d2 00       		.byte	0
 8147 01d3 03       		.uleb128 0x3
 8148 01d4 0E       		.uleb128 0xe
 8149 01d5 3A       		.uleb128 0x3a
 8150 01d6 0B       		.uleb128 0xb
 8151 01d7 3B       		.uleb128 0x3b
 8152 01d8 05       		.uleb128 0x5
 8153 01d9 27       		.uleb128 0x27
 8154 01da 19       		.uleb128 0x19
 8155 01db 11       		.uleb128 0x11
 8156 01dc 01       		.uleb128 0x1
 8157 01dd 12       		.uleb128 0x12
 8158 01de 06       		.uleb128 0x6
 8159 01df 40       		.uleb128 0x40
 8160 01e0 18       		.uleb128 0x18
 8161 01e1 9642     		.uleb128 0x2116
 8162 01e3 19       		.uleb128 0x19
 8163 01e4 00       		.byte	0
 8164 01e5 00       		.byte	0
ARM GAS  /tmp/ccD2hNvo.s 			page 145


 8165 01e6 27       		.uleb128 0x27
 8166 01e7 2E       		.uleb128 0x2e
 8167 01e8 01       		.byte	0x1
 8168 01e9 03       		.uleb128 0x3
 8169 01ea 0E       		.uleb128 0xe
 8170 01eb 3A       		.uleb128 0x3a
 8171 01ec 0B       		.uleb128 0xb
 8172 01ed 3B       		.uleb128 0x3b
 8173 01ee 05       		.uleb128 0x5
 8174 01ef 27       		.uleb128 0x27
 8175 01f0 19       		.uleb128 0x19
 8176 01f1 11       		.uleb128 0x11
 8177 01f2 01       		.uleb128 0x1
 8178 01f3 12       		.uleb128 0x12
 8179 01f4 06       		.uleb128 0x6
 8180 01f5 40       		.uleb128 0x40
 8181 01f6 18       		.uleb128 0x18
 8182 01f7 9642     		.uleb128 0x2116
 8183 01f9 19       		.uleb128 0x19
 8184 01fa 01       		.uleb128 0x1
 8185 01fb 13       		.uleb128 0x13
 8186 01fc 00       		.byte	0
 8187 01fd 00       		.byte	0
 8188 01fe 28       		.uleb128 0x28
 8189 01ff 34       		.uleb128 0x34
 8190 0200 00       		.byte	0
 8191 0201 03       		.uleb128 0x3
 8192 0202 0E       		.uleb128 0xe
 8193 0203 49       		.uleb128 0x49
 8194 0204 13       		.uleb128 0x13
 8195 0205 34       		.uleb128 0x34
 8196 0206 19       		.uleb128 0x19
 8197 0207 00       		.byte	0
 8198 0208 00       		.byte	0
 8199 0209 29       		.uleb128 0x29
 8200 020a 2E       		.uleb128 0x2e
 8201 020b 01       		.byte	0x1
 8202 020c 03       		.uleb128 0x3
 8203 020d 0E       		.uleb128 0xe
 8204 020e 3A       		.uleb128 0x3a
 8205 020f 0B       		.uleb128 0xb
 8206 0210 3B       		.uleb128 0x3b
 8207 0211 0B       		.uleb128 0xb
 8208 0212 27       		.uleb128 0x27
 8209 0213 19       		.uleb128 0x19
 8210 0214 49       		.uleb128 0x49
 8211 0215 13       		.uleb128 0x13
 8212 0216 11       		.uleb128 0x11
 8213 0217 01       		.uleb128 0x1
 8214 0218 12       		.uleb128 0x12
 8215 0219 06       		.uleb128 0x6
 8216 021a 40       		.uleb128 0x40
 8217 021b 18       		.uleb128 0x18
 8218 021c 9642     		.uleb128 0x2116
 8219 021e 19       		.uleb128 0x19
 8220 021f 01       		.uleb128 0x1
 8221 0220 13       		.uleb128 0x13
ARM GAS  /tmp/ccD2hNvo.s 			page 146


 8222 0221 00       		.byte	0
 8223 0222 00       		.byte	0
 8224 0223 2A       		.uleb128 0x2a
 8225 0224 05       		.uleb128 0x5
 8226 0225 00       		.byte	0
 8227 0226 03       		.uleb128 0x3
 8228 0227 08       		.uleb128 0x8
 8229 0228 3A       		.uleb128 0x3a
 8230 0229 0B       		.uleb128 0xb
 8231 022a 3B       		.uleb128 0x3b
 8232 022b 0B       		.uleb128 0xb
 8233 022c 49       		.uleb128 0x49
 8234 022d 13       		.uleb128 0x13
 8235 022e 02       		.uleb128 0x2
 8236 022f 18       		.uleb128 0x18
 8237 0230 00       		.byte	0
 8238 0231 00       		.byte	0
 8239 0232 2B       		.uleb128 0x2b
 8240 0233 2E       		.uleb128 0x2e
 8241 0234 01       		.byte	0x1
 8242 0235 03       		.uleb128 0x3
 8243 0236 0E       		.uleb128 0xe
 8244 0237 3A       		.uleb128 0x3a
 8245 0238 0B       		.uleb128 0xb
 8246 0239 3B       		.uleb128 0x3b
 8247 023a 0B       		.uleb128 0xb
 8248 023b 27       		.uleb128 0x27
 8249 023c 19       		.uleb128 0x19
 8250 023d 11       		.uleb128 0x11
 8251 023e 01       		.uleb128 0x1
 8252 023f 12       		.uleb128 0x12
 8253 0240 06       		.uleb128 0x6
 8254 0241 40       		.uleb128 0x40
 8255 0242 18       		.uleb128 0x18
 8256 0243 9742     		.uleb128 0x2117
 8257 0245 19       		.uleb128 0x19
 8258 0246 01       		.uleb128 0x1
 8259 0247 13       		.uleb128 0x13
 8260 0248 00       		.byte	0
 8261 0249 00       		.byte	0
 8262 024a 2C       		.uleb128 0x2c
 8263 024b 05       		.uleb128 0x5
 8264 024c 00       		.byte	0
 8265 024d 03       		.uleb128 0x3
 8266 024e 0E       		.uleb128 0xe
 8267 024f 3A       		.uleb128 0x3a
 8268 0250 0B       		.uleb128 0xb
 8269 0251 3B       		.uleb128 0x3b
 8270 0252 0B       		.uleb128 0xb
 8271 0253 49       		.uleb128 0x49
 8272 0254 13       		.uleb128 0x13
 8273 0255 02       		.uleb128 0x2
 8274 0256 18       		.uleb128 0x18
 8275 0257 00       		.byte	0
 8276 0258 00       		.byte	0
 8277 0259 2D       		.uleb128 0x2d
 8278 025a 05       		.uleb128 0x5
ARM GAS  /tmp/ccD2hNvo.s 			page 147


 8279 025b 00       		.byte	0
 8280 025c 03       		.uleb128 0x3
 8281 025d 0E       		.uleb128 0xe
 8282 025e 3A       		.uleb128 0x3a
 8283 025f 0B       		.uleb128 0xb
 8284 0260 3B       		.uleb128 0x3b
 8285 0261 05       		.uleb128 0x5
 8286 0262 49       		.uleb128 0x49
 8287 0263 13       		.uleb128 0x13
 8288 0264 02       		.uleb128 0x2
 8289 0265 18       		.uleb128 0x18
 8290 0266 00       		.byte	0
 8291 0267 00       		.byte	0
 8292 0268 2E       		.uleb128 0x2e
 8293 0269 2E       		.uleb128 0x2e
 8294 026a 01       		.byte	0x1
 8295 026b 03       		.uleb128 0x3
 8296 026c 0E       		.uleb128 0xe
 8297 026d 3A       		.uleb128 0x3a
 8298 026e 0B       		.uleb128 0xb
 8299 026f 3B       		.uleb128 0x3b
 8300 0270 05       		.uleb128 0x5
 8301 0271 27       		.uleb128 0x27
 8302 0272 19       		.uleb128 0x19
 8303 0273 49       		.uleb128 0x49
 8304 0274 13       		.uleb128 0x13
 8305 0275 11       		.uleb128 0x11
 8306 0276 01       		.uleb128 0x1
 8307 0277 12       		.uleb128 0x12
 8308 0278 06       		.uleb128 0x6
 8309 0279 40       		.uleb128 0x40
 8310 027a 18       		.uleb128 0x18
 8311 027b 9642     		.uleb128 0x2116
 8312 027d 19       		.uleb128 0x19
 8313 027e 01       		.uleb128 0x1
 8314 027f 13       		.uleb128 0x13
 8315 0280 00       		.byte	0
 8316 0281 00       		.byte	0
 8317 0282 2F       		.uleb128 0x2f
 8318 0283 05       		.uleb128 0x5
 8319 0284 00       		.byte	0
 8320 0285 03       		.uleb128 0x3
 8321 0286 08       		.uleb128 0x8
 8322 0287 3A       		.uleb128 0x3a
 8323 0288 0B       		.uleb128 0xb
 8324 0289 3B       		.uleb128 0x3b
 8325 028a 05       		.uleb128 0x5
 8326 028b 49       		.uleb128 0x49
 8327 028c 13       		.uleb128 0x13
 8328 028d 02       		.uleb128 0x2
 8329 028e 18       		.uleb128 0x18
 8330 028f 00       		.byte	0
 8331 0290 00       		.byte	0
 8332 0291 30       		.uleb128 0x30
 8333 0292 2E       		.uleb128 0x2e
 8334 0293 01       		.byte	0x1
 8335 0294 03       		.uleb128 0x3
ARM GAS  /tmp/ccD2hNvo.s 			page 148


 8336 0295 0E       		.uleb128 0xe
 8337 0296 3A       		.uleb128 0x3a
 8338 0297 0B       		.uleb128 0xb
 8339 0298 3B       		.uleb128 0x3b
 8340 0299 0B       		.uleb128 0xb
 8341 029a 27       		.uleb128 0x27
 8342 029b 19       		.uleb128 0x19
 8343 029c 11       		.uleb128 0x11
 8344 029d 01       		.uleb128 0x1
 8345 029e 12       		.uleb128 0x12
 8346 029f 06       		.uleb128 0x6
 8347 02a0 40       		.uleb128 0x40
 8348 02a1 18       		.uleb128 0x18
 8349 02a2 9642     		.uleb128 0x2116
 8350 02a4 19       		.uleb128 0x19
 8351 02a5 01       		.uleb128 0x1
 8352 02a6 13       		.uleb128 0x13
 8353 02a7 00       		.byte	0
 8354 02a8 00       		.byte	0
 8355 02a9 31       		.uleb128 0x31
 8356 02aa 34       		.uleb128 0x34
 8357 02ab 00       		.byte	0
 8358 02ac 03       		.uleb128 0x3
 8359 02ad 0E       		.uleb128 0xe
 8360 02ae 3A       		.uleb128 0x3a
 8361 02af 0B       		.uleb128 0xb
 8362 02b0 3B       		.uleb128 0x3b
 8363 02b1 0B       		.uleb128 0xb
 8364 02b2 49       		.uleb128 0x49
 8365 02b3 13       		.uleb128 0x13
 8366 02b4 02       		.uleb128 0x2
 8367 02b5 18       		.uleb128 0x18
 8368 02b6 00       		.byte	0
 8369 02b7 00       		.byte	0
 8370 02b8 32       		.uleb128 0x32
 8371 02b9 34       		.uleb128 0x34
 8372 02ba 00       		.byte	0
 8373 02bb 03       		.uleb128 0x3
 8374 02bc 08       		.uleb128 0x8
 8375 02bd 3A       		.uleb128 0x3a
 8376 02be 0B       		.uleb128 0xb
 8377 02bf 3B       		.uleb128 0x3b
 8378 02c0 0B       		.uleb128 0xb
 8379 02c1 49       		.uleb128 0x49
 8380 02c2 13       		.uleb128 0x13
 8381 02c3 02       		.uleb128 0x2
 8382 02c4 18       		.uleb128 0x18
 8383 02c5 00       		.byte	0
 8384 02c6 00       		.byte	0
 8385 02c7 33       		.uleb128 0x33
 8386 02c8 2E       		.uleb128 0x2e
 8387 02c9 01       		.byte	0x1
 8388 02ca 03       		.uleb128 0x3
 8389 02cb 0E       		.uleb128 0xe
 8390 02cc 3A       		.uleb128 0x3a
 8391 02cd 0B       		.uleb128 0xb
 8392 02ce 3B       		.uleb128 0x3b
ARM GAS  /tmp/ccD2hNvo.s 			page 149


 8393 02cf 0B       		.uleb128 0xb
 8394 02d0 27       		.uleb128 0x27
 8395 02d1 19       		.uleb128 0x19
 8396 02d2 49       		.uleb128 0x49
 8397 02d3 13       		.uleb128 0x13
 8398 02d4 11       		.uleb128 0x11
 8399 02d5 01       		.uleb128 0x1
 8400 02d6 12       		.uleb128 0x12
 8401 02d7 06       		.uleb128 0x6
 8402 02d8 40       		.uleb128 0x40
 8403 02d9 18       		.uleb128 0x18
 8404 02da 9742     		.uleb128 0x2117
 8405 02dc 19       		.uleb128 0x19
 8406 02dd 01       		.uleb128 0x1
 8407 02de 13       		.uleb128 0x13
 8408 02df 00       		.byte	0
 8409 02e0 00       		.byte	0
 8410 02e1 34       		.uleb128 0x34
 8411 02e2 34       		.uleb128 0x34
 8412 02e3 00       		.byte	0
 8413 02e4 03       		.uleb128 0x3
 8414 02e5 08       		.uleb128 0x8
 8415 02e6 3A       		.uleb128 0x3a
 8416 02e7 0B       		.uleb128 0xb
 8417 02e8 3B       		.uleb128 0x3b
 8418 02e9 05       		.uleb128 0x5
 8419 02ea 49       		.uleb128 0x49
 8420 02eb 13       		.uleb128 0x13
 8421 02ec 02       		.uleb128 0x2
 8422 02ed 18       		.uleb128 0x18
 8423 02ee 00       		.byte	0
 8424 02ef 00       		.byte	0
 8425 02f0 35       		.uleb128 0x35
 8426 02f1 0B       		.uleb128 0xb
 8427 02f2 01       		.byte	0x1
 8428 02f3 11       		.uleb128 0x11
 8429 02f4 01       		.uleb128 0x1
 8430 02f5 12       		.uleb128 0x12
 8431 02f6 06       		.uleb128 0x6
 8432 02f7 00       		.byte	0
 8433 02f8 00       		.byte	0
 8434 02f9 36       		.uleb128 0x36
 8435 02fa 34       		.uleb128 0x34
 8436 02fb 00       		.byte	0
 8437 02fc 03       		.uleb128 0x3
 8438 02fd 0E       		.uleb128 0xe
 8439 02fe 3A       		.uleb128 0x3a
 8440 02ff 0B       		.uleb128 0xb
 8441 0300 3B       		.uleb128 0x3b
 8442 0301 05       		.uleb128 0x5
 8443 0302 49       		.uleb128 0x49
 8444 0303 13       		.uleb128 0x13
 8445 0304 02       		.uleb128 0x2
 8446 0305 18       		.uleb128 0x18
 8447 0306 00       		.byte	0
 8448 0307 00       		.byte	0
 8449 0308 37       		.uleb128 0x37
ARM GAS  /tmp/ccD2hNvo.s 			page 150


 8450 0309 2E       		.uleb128 0x2e
 8451 030a 00       		.byte	0
 8452 030b 3F       		.uleb128 0x3f
 8453 030c 19       		.uleb128 0x19
 8454 030d 03       		.uleb128 0x3
 8455 030e 0E       		.uleb128 0xe
 8456 030f 3A       		.uleb128 0x3a
 8457 0310 0B       		.uleb128 0xb
 8458 0311 3B       		.uleb128 0x3b
 8459 0312 05       		.uleb128 0x5
 8460 0313 27       		.uleb128 0x27
 8461 0314 19       		.uleb128 0x19
 8462 0315 11       		.uleb128 0x11
 8463 0316 01       		.uleb128 0x1
 8464 0317 12       		.uleb128 0x12
 8465 0318 06       		.uleb128 0x6
 8466 0319 40       		.uleb128 0x40
 8467 031a 18       		.uleb128 0x18
 8468 031b 9642     		.uleb128 0x2116
 8469 031d 19       		.uleb128 0x19
 8470 031e 00       		.byte	0
 8471 031f 00       		.byte	0
 8472 0320 38       		.uleb128 0x38
 8473 0321 2E       		.uleb128 0x2e
 8474 0322 01       		.byte	0x1
 8475 0323 3F       		.uleb128 0x3f
 8476 0324 19       		.uleb128 0x19
 8477 0325 03       		.uleb128 0x3
 8478 0326 0E       		.uleb128 0xe
 8479 0327 3A       		.uleb128 0x3a
 8480 0328 0B       		.uleb128 0xb
 8481 0329 3B       		.uleb128 0x3b
 8482 032a 05       		.uleb128 0x5
 8483 032b 27       		.uleb128 0x27
 8484 032c 19       		.uleb128 0x19
 8485 032d 11       		.uleb128 0x11
 8486 032e 01       		.uleb128 0x1
 8487 032f 12       		.uleb128 0x12
 8488 0330 06       		.uleb128 0x6
 8489 0331 40       		.uleb128 0x40
 8490 0332 18       		.uleb128 0x18
 8491 0333 9642     		.uleb128 0x2116
 8492 0335 19       		.uleb128 0x19
 8493 0336 01       		.uleb128 0x1
 8494 0337 13       		.uleb128 0x13
 8495 0338 00       		.byte	0
 8496 0339 00       		.byte	0
 8497 033a 39       		.uleb128 0x39
 8498 033b 2E       		.uleb128 0x2e
 8499 033c 01       		.byte	0x1
 8500 033d 3F       		.uleb128 0x3f
 8501 033e 19       		.uleb128 0x19
 8502 033f 03       		.uleb128 0x3
 8503 0340 0E       		.uleb128 0xe
 8504 0341 3A       		.uleb128 0x3a
 8505 0342 0B       		.uleb128 0xb
 8506 0343 3B       		.uleb128 0x3b
ARM GAS  /tmp/ccD2hNvo.s 			page 151


 8507 0344 05       		.uleb128 0x5
 8508 0345 27       		.uleb128 0x27
 8509 0346 19       		.uleb128 0x19
 8510 0347 11       		.uleb128 0x11
 8511 0348 01       		.uleb128 0x1
 8512 0349 12       		.uleb128 0x12
 8513 034a 06       		.uleb128 0x6
 8514 034b 40       		.uleb128 0x40
 8515 034c 18       		.uleb128 0x18
 8516 034d 9742     		.uleb128 0x2117
 8517 034f 19       		.uleb128 0x19
 8518 0350 01       		.uleb128 0x1
 8519 0351 13       		.uleb128 0x13
 8520 0352 00       		.byte	0
 8521 0353 00       		.byte	0
 8522 0354 3A       		.uleb128 0x3a
 8523 0355 2E       		.uleb128 0x2e
 8524 0356 01       		.byte	0x1
 8525 0357 3F       		.uleb128 0x3f
 8526 0358 19       		.uleb128 0x19
 8527 0359 03       		.uleb128 0x3
 8528 035a 0E       		.uleb128 0xe
 8529 035b 3A       		.uleb128 0x3a
 8530 035c 0B       		.uleb128 0xb
 8531 035d 3B       		.uleb128 0x3b
 8532 035e 05       		.uleb128 0x5
 8533 035f 27       		.uleb128 0x27
 8534 0360 19       		.uleb128 0x19
 8535 0361 49       		.uleb128 0x49
 8536 0362 13       		.uleb128 0x13
 8537 0363 11       		.uleb128 0x11
 8538 0364 01       		.uleb128 0x1
 8539 0365 12       		.uleb128 0x12
 8540 0366 06       		.uleb128 0x6
 8541 0367 40       		.uleb128 0x40
 8542 0368 18       		.uleb128 0x18
 8543 0369 9742     		.uleb128 0x2117
 8544 036b 19       		.uleb128 0x19
 8545 036c 01       		.uleb128 0x1
 8546 036d 13       		.uleb128 0x13
 8547 036e 00       		.byte	0
 8548 036f 00       		.byte	0
 8549 0370 3B       		.uleb128 0x3b
 8550 0371 34       		.uleb128 0x34
 8551 0372 00       		.byte	0
 8552 0373 03       		.uleb128 0x3
 8553 0374 0E       		.uleb128 0xe
 8554 0375 3A       		.uleb128 0x3a
 8555 0376 0B       		.uleb128 0xb
 8556 0377 3B       		.uleb128 0x3b
 8557 0378 05       		.uleb128 0x5
 8558 0379 49       		.uleb128 0x49
 8559 037a 13       		.uleb128 0x13
 8560 037b 3F       		.uleb128 0x3f
 8561 037c 19       		.uleb128 0x19
 8562 037d 3C       		.uleb128 0x3c
 8563 037e 19       		.uleb128 0x19
ARM GAS  /tmp/ccD2hNvo.s 			page 152


 8564 037f 00       		.byte	0
 8565 0380 00       		.byte	0
 8566 0381 3C       		.uleb128 0x3c
 8567 0382 34       		.uleb128 0x34
 8568 0383 00       		.byte	0
 8569 0384 03       		.uleb128 0x3
 8570 0385 08       		.uleb128 0x8
 8571 0386 3A       		.uleb128 0x3a
 8572 0387 0B       		.uleb128 0xb
 8573 0388 3B       		.uleb128 0x3b
 8574 0389 05       		.uleb128 0x5
 8575 038a 49       		.uleb128 0x49
 8576 038b 13       		.uleb128 0x13
 8577 038c 3F       		.uleb128 0x3f
 8578 038d 19       		.uleb128 0x19
 8579 038e 3C       		.uleb128 0x3c
 8580 038f 19       		.uleb128 0x19
 8581 0390 00       		.byte	0
 8582 0391 00       		.byte	0
 8583 0392 3D       		.uleb128 0x3d
 8584 0393 34       		.uleb128 0x34
 8585 0394 00       		.byte	0
 8586 0395 03       		.uleb128 0x3
 8587 0396 0E       		.uleb128 0xe
 8588 0397 3A       		.uleb128 0x3a
 8589 0398 0B       		.uleb128 0xb
 8590 0399 3B       		.uleb128 0x3b
 8591 039a 0B       		.uleb128 0xb
 8592 039b 49       		.uleb128 0x49
 8593 039c 13       		.uleb128 0x13
 8594 039d 3F       		.uleb128 0x3f
 8595 039e 19       		.uleb128 0x19
 8596 039f 02       		.uleb128 0x2
 8597 03a0 18       		.uleb128 0x18
 8598 03a1 00       		.byte	0
 8599 03a2 00       		.byte	0
 8600 03a3 00       		.byte	0
 8601              		.section	.debug_aranges,"",%progbits
 8602 0000 1C000000 		.4byte	0x1c
 8603 0004 0200     		.2byte	0x2
 8604 0006 00000000 		.4byte	.Ldebug_info0
 8605 000a 04       		.byte	0x4
 8606 000b 00       		.byte	0
 8607 000c 0000     		.2byte	0
 8608 000e 0000     		.2byte	0
 8609 0010 00000000 		.4byte	.Ltext0
 8610 0014 1C170000 		.4byte	.Letext0-.Ltext0
 8611 0018 00000000 		.4byte	0
 8612 001c 00000000 		.4byte	0
 8613              		.section	.debug_line,"",%progbits
 8614              	.Ldebug_line0:
 8615 0000 51070000 		.section	.debug_str,"MS",%progbits,1
 8615      0200AA03 
 8615      00000201 
 8615      FB0E0D00 
 8615      01010101 
 8616              	.LASF54:
ARM GAS  /tmp/ccD2hNvo.s 			page 153


 8617 0000 63685F74 		.ascii	"ch_threads_list\000"
 8617      68726561 
 8617      64735F6C 
 8617      69737400 
 8618              	.LASF326:
 8619 0010 75736270 		.ascii	"usbp\000"
 8619      00
 8620              	.LASF55:
 8621 0015 74687265 		.ascii	"threads_queue_t\000"
 8621      6164735F 
 8621      71756575 
 8621      655F7400 
 8622              	.LASF214:
 8623 0025 44494550 		.ascii	"DIEPTSIZ\000"
 8623      5453495A 
 8623      00
 8624              	.LASF133:
 8625 002e 77746D74 		.ascii	"wtmtxp\000"
 8625      787000
 8626              	.LASF127:
 8627 0035 746D5F63 		.ascii	"tm_calibration_t\000"
 8627      616C6962 
 8627      72617469 
 8627      6F6E5F74 
 8627      00
 8628              	.LASF51:
 8629 0046 74687265 		.ascii	"thread_reference_t\000"
 8629      61645F72 
 8629      65666572 
 8629      656E6365 
 8629      5F7400
 8630              	.LASF375:
 8631 0059 474E5520 		.ascii	"GNU C 4.8.4 20140526 (release) [ARM/embedded-4_8-br"
 8631      4320342E 
 8631      382E3420 
 8631      32303134 
 8631      30353236 
 8632 008c 616E6368 		.ascii	"anch revision 211358] -mcpu=cortex-m4 -mno-thumb-in"
 8632      20726576 
 8632      6973696F 
 8632      6E203231 
 8632      31333538 
 8633 00bf 74657277 		.ascii	"terwork -mthumb -ggdb -O0 -fomit-frame-pointer -fal"
 8633      6F726B20 
 8633      2D6D7468 
 8633      756D6220 
 8633      2D676764 
 8634 00f2 69676E2D 		.ascii	"ign-functions=16\000"
 8634      66756E63 
 8634      74696F6E 
 8634      733D3136 
 8634      00
 8635              	.LASF122:
 8636 0103 72656761 		.ascii	"regarm_t\000"
 8636      726D5F74 
 8636      00
 8637              	.LASF283:
ARM GAS  /tmp/ccD2hNvo.s 			page 154


 8638 010c 746F7473 		.ascii	"totsize\000"
 8638      697A6500 
 8639              	.LASF35:
 8640 0114 705F7072 		.ascii	"p_prio\000"
 8640      696F00
 8641              	.LASF252:
 8642 011b 44434647 		.ascii	"DCFG\000"
 8642      00
 8643              	.LASF166:
 8644 0120 5553425F 		.ascii	"USB_UNINIT\000"
 8644      554E494E 
 8644      495400
 8645              	.LASF363:
 8646 012b 7573625F 		.ascii	"usb_lld_stall_in\000"
 8646      6C6C645F 
 8646      7374616C 
 8646      6C5F696E 
 8646      00
 8647              	.LASF100:
 8648 013c 41504232 		.ascii	"APB2RSTR\000"
 8648      52535452 
 8648      00
 8649              	.LASF211:
 8650 0145 72657376 		.ascii	"resvd4\000"
 8650      643400
 8651              	.LASF168:
 8652 014c 5553425F 		.ascii	"USB_READY\000"
 8652      52454144 
 8652      5900
 8653              	.LASF202:
 8654 0156 72657376 		.ascii	"resvd8\000"
 8654      643800
 8655              	.LASF189:
 8656 015d 5553425F 		.ascii	"USB_EVENT_SUSPEND\000"
 8656      4556454E 
 8656      545F5355 
 8656      5350454E 
 8656      4400
 8657              	.LASF358:
 8658 016f 7573625F 		.ascii	"usb_lld_read_setup\000"
 8658      6C6C645F 
 8658      72656164 
 8658      5F736574 
 8658      757000
 8659              	.LASF31:
 8660 0182 73797374 		.ascii	"systime_t\000"
 8660      696D655F 
 8660      7400
 8661              	.LASF205:
 8662 018c 48435453 		.ascii	"HCTSIZ\000"
 8662      495A00
 8663              	.LASF213:
 8664 0193 72657376 		.ascii	"resvdC\000"
 8664      644300
 8665              	.LASF140:
 8666 019a 6D5F6F77 		.ascii	"m_owner\000"
 8666      6E657200 
ARM GAS  /tmp/ccD2hNvo.s 			page 155


 8667              	.LASF302:
 8668 01a2 72657175 		.ascii	"requests_hook_cb\000"
 8668      65737473 
 8668      5F686F6F 
 8668      6B5F6362 
 8668      00
 8669              	.LASF75:
 8670 01b3 76745F73 		.ascii	"vt_systime\000"
 8670      79737469 
 8670      6D6500
 8671              	.LASF226:
 8672 01be 47525354 		.ascii	"GRSTCTL\000"
 8672      43544C00 
 8673              	.LASF45:
 8674 01c6 705F6D73 		.ascii	"p_msgqueue\000"
 8674      67717565 
 8674      756500
 8675              	.LASF93:
 8676 01d1 52455345 		.ascii	"RESERVED0\000"
 8676      52564544 
 8676      3000
 8677              	.LASF178:
 8678 01db 5553425F 		.ascii	"USB_EP0_TX\000"
 8678      4550305F 
 8678      545800
 8679              	.LASF0:
 8680 01e6 756E7369 		.ascii	"unsigned int\000"
 8680      676E6564 
 8680      20696E74 
 8680      00
 8681              	.LASF335:
 8682 01f3 6E657874 		.ascii	"next\000"
 8682      00
 8683              	.LASF339:
 8684 01f8 6F74675F 		.ascii	"otg_rxfifo_handler\000"
 8684      72786669 
 8684      666F5F68 
 8684      616E646C 
 8684      657200
 8685              	.LASF20:
 8686 020b 75696E74 		.ascii	"uint32_t\000"
 8686      33325F74 
 8686      00
 8687              	.LASF235:
 8688 0214 72657376 		.ascii	"resvd34\000"
 8688      64333400 
 8689              	.LASF52:
 8690 021c 74687265 		.ascii	"threads_list_t\000"
 8690      6164735F 
 8690      6C697374 
 8690      5F7400
 8691              	.LASF44:
 8692 022b 705F7761 		.ascii	"p_waiting\000"
 8692      6974696E 
 8692      6700
 8693              	.LASF120:
 8694 0235 42444352 		.ascii	"BDCR\000"
ARM GAS  /tmp/ccD2hNvo.s 			page 156


 8694      00
 8695              	.LASF206:
 8696 023a 72657376 		.ascii	"resvd14\000"
 8696      64313400 
 8697              	.LASF227:
 8698 0242 47494E54 		.ascii	"GINTSTS\000"
 8698      53545300 
 8699              	.LASF207:
 8700 024a 72657376 		.ascii	"resvd18\000"
 8700      64313800 
 8701              	.LASF236:
 8702 0252 47434346 		.ascii	"GCCFG\000"
 8702      4700
 8703              	.LASF216:
 8704 0258 72657376 		.ascii	"resvd1C\000"
 8704      64314300 
 8705              	.LASF277:
 8706 0260 6F74675F 		.ascii	"otg_ram_size\000"
 8706      72616D5F 
 8706      73697A65 
 8706      00
 8707              	.LASF340:
 8708 026d 6F74675F 		.ascii	"otg_txfifo_handler\000"
 8708      74786669 
 8708      666F5F68 
 8708      616E646C 
 8708      657200
 8709              	.LASF121:
 8710 0280 5243435F 		.ascii	"RCC_TypeDef\000"
 8710      54797065 
 8710      44656600 
 8711              	.LASF289:
 8712 028c 65705F6D 		.ascii	"ep_mode\000"
 8712      6F646500 
 8713              	.LASF130:
 8714 0294 77746F62 		.ascii	"wtobjp\000"
 8714      6A7000
 8715              	.LASF154:
 8716 029b 65703065 		.ascii	"ep0endcb\000"
 8716      6E646362 
 8716      00
 8717              	.LASF82:
 8718 02a4 76746C69 		.ascii	"vtlist\000"
 8718      737400
 8719              	.LASF193:
 8720 02ab 75645F73 		.ascii	"ud_size\000"
 8720      697A6500 
 8721              	.LASF198:
 8722 02b3 75736265 		.ascii	"usbeventcb_t\000"
 8722      76656E74 
 8722      63625F74 
 8722      00
 8723              	.LASF307:
 8724 02c0 706F7274 		.ascii	"port_lock_from_isr\000"
 8724      5F6C6F63 
 8724      6B5F6672 
 8724      6F6D5F69 
ARM GAS  /tmp/ccD2hNvo.s 			page 157


 8724      737200
 8725              	.LASF372:
 8726 02d3 66737061 		.ascii	"fsparams\000"
 8726      72616D73 
 8726      00
 8727              	.LASF58:
 8728 02dc 63685F72 		.ascii	"ch_ready_list\000"
 8728      65616479 
 8728      5F6C6973 
 8728      7400
 8729              	.LASF84:
 8730 02ea 69646C65 		.ascii	"idle_thread_wa\000"
 8730      5F746872 
 8730      6561645F 
 8730      776100
 8731              	.LASF244:
 8732 02f9 72657376 		.ascii	"resvd40C\000"
 8732      64343043 
 8732      00
 8733              	.LASF322:
 8734 0302 63685468 		.ascii	"chThdStartI\000"
 8734      64537461 
 8734      72744900 
 8735              	.LASF134:
 8736 030e 65776D61 		.ascii	"ewmask\000"
 8736      736B00
 8737              	.LASF208:
 8738 0315 72657376 		.ascii	"resvd1c\000"
 8738      64316300 
 8739              	.LASF228:
 8740 031d 47494E54 		.ascii	"GINTMSK\000"
 8740      4D534B00 
 8741              	.LASF311:
 8742 0325 63685379 		.ascii	"chSysLockFromISR\000"
 8742      734C6F63 
 8742      6B46726F 
 8742      6D495352 
 8742      00
 8743              	.LASF262:
 8744 0336 44564255 		.ascii	"DVBUSDIS\000"
 8744      53444953 
 8744      00
 8745              	.LASF225:
 8746 033f 47555342 		.ascii	"GUSBCFG\000"
 8746      43464700 
 8747              	.LASF185:
 8748 0347 5553425F 		.ascii	"USB_EVENT_RESET\000"
 8748      4556454E 
 8748      545F5245 
 8748      53455400 
 8749              	.LASF77:
 8750 0357 63685F73 		.ascii	"ch_system_debug\000"
 8750      79737465 
 8750      6D5F6465 
 8750      62756700 
 8751              	.LASF285:
 8752 0367 72787369 		.ascii	"rxsize\000"
ARM GAS  /tmp/ccD2hNvo.s 			page 158


 8752      7A6500
 8753              	.LASF65:
 8754 036e 76746675 		.ascii	"vtfunc_t\000"
 8754      6E635F74 
 8754      00
 8755              	.LASF348:
 8756 0377 7573625F 		.ascii	"usb_lld_init\000"
 8756      6C6C645F 
 8756      696E6974 
 8756      00
 8757              	.LASF85:
 8758 0384 49435343 		.ascii	"ICSCR\000"
 8758      5200
 8759              	.LASF177:
 8760 038a 5553425F 		.ascii	"USB_EP0_WAITING_SETUP\000"
 8760      4550305F 
 8760      57414954 
 8760      494E475F 
 8760      53455455 
 8761              	.LASF137:
 8762 03a0 735F636E 		.ascii	"s_cnt\000"
 8762      7400
 8763              	.LASF278:
 8764 03a6 6E756D5F 		.ascii	"num_endpoints\000"
 8764      656E6470 
 8764      6F696E74 
 8764      7300
 8765              	.LASF330:
 8766 03b4 6F74675F 		.ascii	"otg_txfifo_flush\000"
 8766      74786669 
 8766      666F5F66 
 8766      6C757368 
 8766      00
 8767              	.LASF1:
 8768 03c5 7369676E 		.ascii	"signed char\000"
 8768      65642063 
 8768      68617200 
 8769              	.LASF240:
 8770 03d1 72657376 		.ascii	"resvd140\000"
 8770      64313430 
 8770      00
 8771              	.LASF220:
 8772 03da 444F4550 		.ascii	"DOEPTSIZ\000"
 8772      5453495A 
 8772      00
 8773              	.LASF89:
 8774 03e3 504C4C53 		.ascii	"PLLSAI2CFGR\000"
 8774      41493243 
 8774      46475200 
 8775              	.LASF29:
 8776 03ef 6576656E 		.ascii	"eventmask_t\000"
 8776      746D6173 
 8776      6B5F7400 
 8777              	.LASF60:
 8778 03fb 725F7072 		.ascii	"r_prio\000"
 8778      696F00
 8779              	.LASF265:
ARM GAS  /tmp/ccD2hNvo.s 			page 159


 8780 0402 44494550 		.ascii	"DIEPEMPMSK\000"
 8780      454D504D 
 8780      534B00
 8781              	.LASF72:
 8782 040d 76745F70 		.ascii	"vt_par\000"
 8782      617200
 8783              	.LASF377:
 8784 0414 2F6E6673 		.ascii	"/nfs/nfs7/home/vvedanta/P442/p442-submissions/senso"
 8784      2F6E6673 
 8784      372F686F 
 8784      6D652F76 
 8784      76656461 
 8785 0447 7274696C 		.ascii	"rtile/final_project\000"
 8785      652F6669 
 8785      6E616C5F 
 8785      70726F6A 
 8785      65637400 
 8786              	.LASF336:
 8787 045b 6F74675F 		.ascii	"otg_fifo_write_from_buffer\000"
 8787      6669666F 
 8787      5F777269 
 8787      74655F66 
 8787      726F6D5F 
 8788              	.LASF234:
 8789 0476 72657376 		.ascii	"resvd30\000"
 8789      64333000 
 8790              	.LASF102:
 8791 047e 41484231 		.ascii	"AHB1ENR\000"
 8791      454E5200 
 8792              	.LASF27:
 8793 0486 74707269 		.ascii	"tprio_t\000"
 8793      6F5F7400 
 8794              	.LASF269:
 8795 048e 72657376 		.ascii	"resvd880\000"
 8795      64383830 
 8795      00
 8796              	.LASF155:
 8797 0497 73657475 		.ascii	"setup\000"
 8797      7000
 8798              	.LASF173:
 8799 049d 45505F53 		.ascii	"EP_STATUS_DISABLED\000"
 8799      54415455 
 8799      535F4449 
 8799      5341424C 
 8799      454400
 8800              	.LASF67:
 8801 04b0 63685F76 		.ascii	"ch_virtual_timer\000"
 8801      69727475 
 8801      616C5F74 
 8801      696D6572 
 8801      00
 8802              	.LASF90:
 8803 04c1 43494552 		.ascii	"CIER\000"
 8803      00
 8804              	.LASF179:
 8805 04c6 5553425F 		.ascii	"USB_EP0_WAITING_TX0\000"
 8805      4550305F 
ARM GAS  /tmp/ccD2hNvo.s 			page 160


 8805      57414954 
 8805      494E475F 
 8805      54583000 
 8806              	.LASF12:
 8807 04da 6C6F6E67 		.ascii	"long long int\000"
 8807      206C6F6E 
 8807      6720696E 
 8807      7400
 8808              	.LASF14:
 8809 04e8 6C6F6E67 		.ascii	"long long unsigned int\000"
 8809      206C6F6E 
 8809      6720756E 
 8809      7369676E 
 8809      65642069 
 8810              	.LASF281:
 8811 04ff 7478636E 		.ascii	"txcnt\000"
 8811      7400
 8812              	.LASF174:
 8813 0505 45505F53 		.ascii	"EP_STATUS_STALLED\000"
 8813      54415455 
 8813      535F5354 
 8813      414C4C45 
 8813      4400
 8814              	.LASF231:
 8815 0517 47525846 		.ascii	"GRXFSIZ\000"
 8815      53495A00 
 8816              	.LASF147:
 8817 051f 7472616E 		.ascii	"transmitting\000"
 8817      736D6974 
 8817      74696E67 
 8817      00
 8818              	.LASF299:
 8819 052c 55534245 		.ascii	"USBEndpointConfig\000"
 8819      6E64706F 
 8819      696E7443 
 8819      6F6E6669 
 8819      6700
 8820              	.LASF10:
 8821 053e 5F5F7569 		.ascii	"__uint32_t\000"
 8821      6E743332 
 8821      5F7400
 8822              	.LASF300:
 8823 0549 6576656E 		.ascii	"event_cb\000"
 8823      745F6362 
 8823      00
 8824              	.LASF6:
 8825 0552 5F5F7569 		.ascii	"__uint16_t\000"
 8825      6E743136 
 8825      5F7400
 8826              	.LASF30:
 8827 055d 636E745F 		.ascii	"cnt_t\000"
 8827      7400
 8828              	.LASF293:
 8829 0563 696E5F6D 		.ascii	"in_maxsize\000"
 8829      61787369 
 8829      7A6500
 8830              	.LASF310:
ARM GAS  /tmp/ccD2hNvo.s 			page 161


 8831 056e 63685379 		.ascii	"chSysUnlock\000"
 8831      73556E6C 
 8831      6F636B00 
 8832              	.LASF317:
 8833 057a 6F73616C 		.ascii	"osalSysUnlock\000"
 8833      53797355 
 8833      6E6C6F63 
 8833      6B00
 8834              	.LASF96:
 8835 0588 41484233 		.ascii	"AHB3RSTR\000"
 8835      52535452 
 8835      00
 8836              	.LASF37:
 8837 0591 705F6E65 		.ascii	"p_newer\000"
 8837      77657200 
 8838              	.LASF379:
 8839 0599 76616C75 		.ascii	"value\000"
 8839      6500
 8840              	.LASF74:
 8841 059f 63685F76 		.ascii	"ch_virtual_timers_list\000"
 8841      69727475 
 8841      616C5F74 
 8841      696D6572 
 8841      735F6C69 
 8842              	.LASF292:
 8843 05b6 6F75745F 		.ascii	"out_cb\000"
 8843      636200
 8844              	.LASF249:
 8845 05bd 48505254 		.ascii	"HPRT\000"
 8845      00
 8846              	.LASF345:
 8847 05c2 6F74675F 		.ascii	"otg_isoc_out_failed_handler\000"
 8847      69736F63 
 8847      5F6F7574 
 8847      5F666169 
 8847      6C65645F 
 8848              	.LASF251:
 8849 05de 72657376 		.ascii	"resvd700\000"
 8849      64373030 
 8849      00
 8850              	.LASF306:
 8851 05e7 706F7274 		.ascii	"port_unlock\000"
 8851      5F756E6C 
 8851      6F636B00 
 8852              	.LASF32:
 8853 05f3 74687265 		.ascii	"thread_t\000"
 8853      61645F74 
 8853      00
 8854              	.LASF312:
 8855 05fc 63685379 		.ascii	"chSysUnlockFromISR\000"
 8855      73556E6C 
 8855      6F636B46 
 8855      726F6D49 
 8855      535200
 8856              	.LASF217:
 8857 060f 73746D33 		.ascii	"stm32_otg_in_ep_t\000"
 8857      325F6F74 
ARM GAS  /tmp/ccD2hNvo.s 			page 162


 8857      675F696E 
 8857      5F65705F 
 8857      7400
 8858              	.LASF254:
 8859 0621 44535453 		.ascii	"DSTS\000"
 8859      00
 8860              	.LASF2:
 8861 0626 73697A65 		.ascii	"size_t\000"
 8861      5F7400
 8862              	.LASF128:
 8863 062d 7264796D 		.ascii	"rdymsg\000"
 8863      736700
 8864              	.LASF318:
 8865 0634 6F73616C 		.ascii	"osalSysLockFromISR\000"
 8865      5379734C 
 8865      6F636B46 
 8865      726F6D49 
 8865      535200
 8866              	.LASF98:
 8867 0647 41504231 		.ascii	"APB1RSTR1\000"
 8867      52535452 
 8867      3100
 8868              	.LASF99:
 8869 0651 41504231 		.ascii	"APB1RSTR2\000"
 8869      52535452 
 8869      3200
 8870              	.LASF126:
 8871 065b 6F666673 		.ascii	"offset\000"
 8871      657400
 8872              	.LASF158:
 8873 0662 636F6E66 		.ascii	"configuration\000"
 8873      69677572 
 8873      6174696F 
 8873      6E00
 8874              	.LASF110:
 8875 0670 41484231 		.ascii	"AHB1SMENR\000"
 8875      534D454E 
 8875      5200
 8876              	.LASF143:
 8877 067a 5F426F6F 		.ascii	"_Bool\000"
 8877      6C00
 8878              	.LASF276:
 8879 0680 72785F66 		.ascii	"rx_fifo_size\000"
 8879      69666F5F 
 8879      73697A65 
 8879      00
 8880              	.LASF241:
 8881 068d 48434647 		.ascii	"HCFG\000"
 8881      00
 8882              	.LASF342:
 8883 0692 6570696E 		.ascii	"epint\000"
 8883      7400
 8884              	.LASF138:
 8885 0698 63685F6D 		.ascii	"ch_mutex\000"
 8885      75746578 
 8885      00
 8886              	.LASF201:
ARM GAS  /tmp/ccD2hNvo.s 			page 163


 8887 06a1 48434348 		.ascii	"HCCHAR\000"
 8887      415200
 8888              	.LASF237:
 8889 06a8 72657376 		.ascii	"resvd58\000"
 8889      64353800 
 8890              	.LASF354:
 8891 06b0 6673697A 		.ascii	"fsize\000"
 8891      6500
 8892              	.LASF180:
 8893 06b6 5553425F 		.ascii	"USB_EP0_WAITING_STS\000"
 8893      4550305F 
 8893      57414954 
 8893      494E475F 
 8893      53545300 
 8894              	.LASF320:
 8895 06ca 6F73616C 		.ascii	"osalSysPolledDelayX\000"
 8895      53797350 
 8895      6F6C6C65 
 8895      6444656C 
 8895      61795800 
 8896              	.LASF350:
 8897 06de 7573625F 		.ascii	"usb_lld_stop\000"
 8897      6C6C645F 
 8897      73746F70 
 8897      00
 8898              	.LASF357:
 8899 06eb 7573625F 		.ascii	"usb_lld_get_status_in\000"
 8899      6C6C645F 
 8899      6765745F 
 8899      73746174 
 8899      75735F69 
 8900              	.LASF5:
 8901 0701 73686F72 		.ascii	"short int\000"
 8901      7420696E 
 8901      7400
 8902              	.LASF104:
 8903 070b 41484233 		.ascii	"AHB3ENR\000"
 8903      454E5200 
 8904              	.LASF250:
 8905 0713 72657376 		.ascii	"resvd444\000"
 8905      64343434 
 8905      00
 8906              	.LASF170:
 8907 071c 5553425F 		.ascii	"USB_ACTIVE\000"
 8907      41435449 
 8907      564500
 8908              	.LASF309:
 8909 0727 63685379 		.ascii	"chSysLock\000"
 8909      734C6F63 
 8909      6B00
 8910              	.LASF39:
 8911 0731 705F6E61 		.ascii	"p_name\000"
 8911      6D6500
 8912              	.LASF266:
 8913 0738 72657376 		.ascii	"resvd838\000"
 8913      64383338 
 8913      00
ARM GAS  /tmp/ccD2hNvo.s 			page 164


 8914              	.LASF257:
 8915 0741 444F4550 		.ascii	"DOEPMSK\000"
 8915      4D534B00 
 8916              	.LASF186:
 8917 0749 5553425F 		.ascii	"USB_EVENT_ADDRESS\000"
 8917      4556454E 
 8917      545F4144 
 8917      44524553 
 8917      5300
 8918              	.LASF247:
 8919 075b 4841494E 		.ascii	"HAINTMSK\000"
 8919      544D534B 
 8919      00
 8920              	.LASF341:
 8921 0764 6F74675F 		.ascii	"otg_epin_handler\000"
 8921      6570696E 
 8921      5F68616E 
 8921      646C6572 
 8921      00
 8922              	.LASF70:
 8923 0775 76745F64 		.ascii	"vt_delta\000"
 8923      656C7461 
 8923      00
 8924              	.LASF204:
 8925 077e 4843494E 		.ascii	"HCINTMSK\000"
 8925      544D534B 
 8925      00
 8926              	.LASF8:
 8927 0787 5F5F696E 		.ascii	"__int32_t\000"
 8927      7433325F 
 8927      7400
 8928              	.LASF62:
 8929 0791 725F6E65 		.ascii	"r_newer\000"
 8929      77657200 
 8930              	.LASF295:
 8931 0799 696E5F73 		.ascii	"in_state\000"
 8931      74617465 
 8931      00
 8932              	.LASF376:
 8933 07a2 2E2E2F2E 		.ascii	"../../ChibiOS/os/hal/ports/STM32/LLD/OTGv1/usb_lld."
 8933      2E2F4368 
 8933      6962694F 
 8933      532F6F73 
 8933      2F68616C 
 8934 07d5 6300     		.ascii	"c\000"
 8935              	.LASF176:
 8936 07d7 75736265 		.ascii	"usbepstatus_t\000"
 8936      70737461 
 8936      7475735F 
 8936      7400
 8937              	.LASF24:
 8938 07e5 74737461 		.ascii	"tstate_t\000"
 8938      74655F74 
 8938      00
 8939              	.LASF152:
 8940 07ee 6570306E 		.ascii	"ep0next\000"
 8940      65787400 
ARM GAS  /tmp/ccD2hNvo.s 			page 165


 8941              	.LASF327:
 8942 07f6 6F74675F 		.ascii	"otg_disable_ep\000"
 8942      64697361 
 8942      626C655F 
 8942      657000
 8943              	.LASF13:
 8944 0805 5F5F7569 		.ascii	"__uint64_t\000"
 8944      6E743634 
 8944      5F7400
 8945              	.LASF38:
 8946 0810 705F6F6C 		.ascii	"p_older\000"
 8946      64657200 
 8947              	.LASF40:
 8948 0818 705F7374 		.ascii	"p_state\000"
 8948      61746500 
 8949              	.LASF87:
 8950 0820 504C4C43 		.ascii	"PLLCFGR\000"
 8950      46475200 
 8951              	.LASF17:
 8952 0828 75696E74 		.ascii	"uint8_t\000"
 8952      385F7400 
 8953              	.LASF156:
 8954 0830 73746174 		.ascii	"status\000"
 8954      757300
 8955              	.LASF351:
 8956 0837 7573625F 		.ascii	"usb_lld_reset\000"
 8956      6C6C645F 
 8956      72657365 
 8956      7400
 8957              	.LASF271:
 8958 0845 72657376 		.ascii	"resvdD00\000"
 8958      64443030 
 8958      00
 8959              	.LASF50:
 8960 084e 705F6D70 		.ascii	"p_mpool\000"
 8960      6F6F6C00 
 8961              	.LASF352:
 8962 0856 7573625F 		.ascii	"usb_lld_set_address\000"
 8962      6C6C645F 
 8962      7365745F 
 8962      61646472 
 8962      65737300 
 8963              	.LASF48:
 8964 086a 705F6D74 		.ascii	"p_mtxlist\000"
 8964      786C6973 
 8964      7400
 8965              	.LASF187:
 8966 0874 5553425F 		.ascii	"USB_EVENT_CONFIGURED\000"
 8966      4556454E 
 8966      545F434F 
 8966      4E464947 
 8966      55524544 
 8967              	.LASF53:
 8968 0889 63685F74 		.ascii	"ch_thread\000"
 8968      68726561 
 8968      6400
 8969              	.LASF353:
ARM GAS  /tmp/ccD2hNvo.s 			page 166


 8970 0893 7573625F 		.ascii	"usb_lld_init_endpoint\000"
 8970      6C6C645F 
 8970      696E6974 
 8970      5F656E64 
 8970      706F696E 
 8971              	.LASF349:
 8972 08a9 7573625F 		.ascii	"usb_lld_start\000"
 8972      6C6C645F 
 8972      73746172 
 8972      7400
 8973              	.LASF172:
 8974 08b7 75736273 		.ascii	"usbstate_t\000"
 8974      74617465 
 8974      5F7400
 8975              	.LASF328:
 8976 08c2 6F746770 		.ascii	"otgp\000"
 8976      00
 8977              	.LASF76:
 8978 08c7 73797374 		.ascii	"system_debug_t\000"
 8978      656D5F64 
 8978      65627567 
 8978      5F7400
 8979              	.LASF56:
 8980 08d6 63685F74 		.ascii	"ch_threads_queue\000"
 8980      68726561 
 8980      64735F71 
 8980      75657565 
 8980      00
 8981              	.LASF219:
 8982 08e7 444F4550 		.ascii	"DOEPINT\000"
 8982      494E5400 
 8983              	.LASF218:
 8984 08ef 444F4550 		.ascii	"DOEPCTL\000"
 8984      43544C00 
 8985              	.LASF279:
 8986 08f7 73746D33 		.ascii	"stm32_otg_params_t\000"
 8986      325F6F74 
 8986      675F7061 
 8986      72616D73 
 8986      5F7400
 8987              	.LASF28:
 8988 090a 6D73675F 		.ascii	"msg_t\000"
 8988      7400
 8989              	.LASF333:
 8990 0910 6F74675F 		.ascii	"otg_ram_alloc\000"
 8990      72616D5F 
 8990      616C6C6F 
 8990      6300
 8991              	.LASF280:
 8992 091e 74787369 		.ascii	"txsize\000"
 8992      7A6500
 8993              	.LASF124:
 8994 0925 636F6E74 		.ascii	"context\000"
 8994      65787400 
 8995              	.LASF153:
 8996 092d 6570306E 		.ascii	"ep0n\000"
 8996      00
ARM GAS  /tmp/ccD2hNvo.s 			page 167


 8997              	.LASF246:
 8998 0932 4841494E 		.ascii	"HAINT\000"
 8998      5400
 8999              	.LASF296:
 9000 0938 6F75745F 		.ascii	"out_state\000"
 9000      73746174 
 9000      6500
 9001              	.LASF41:
 9002 0942 705F666C 		.ascii	"p_flags\000"
 9002      61677300 
 9003              	.LASF148:
 9004 094a 72656365 		.ascii	"receiving\000"
 9004      6976696E 
 9004      6700
 9005              	.LASF66:
 9006 0954 76697274 		.ascii	"virtual_timer_t\000"
 9006      75616C5F 
 9006      74696D65 
 9006      725F7400 
 9007              	.LASF346:
 9008 0964 7573625F 		.ascii	"usb_lld_serve_interrupt\000"
 9008      6C6C645F 
 9008      73657276 
 9008      655F696E 
 9008      74657272 
 9009              	.LASF88:
 9010 097c 504C4C53 		.ascii	"PLLSAI1CFGR\000"
 9010      41493143 
 9010      46475200 
 9011              	.LASF149:
 9012 0988 696E5F70 		.ascii	"in_params\000"
 9012      6172616D 
 9012      7300
 9013              	.LASF215:
 9014 0992 44545846 		.ascii	"DTXFSTS\000"
 9014      53545300 
 9015              	.LASF303:
 9016 099a 736F665F 		.ascii	"sof_cb\000"
 9016      636200
 9017              	.LASF334:
 9018 09a1 73697A65 		.ascii	"size\000"
 9018      00
 9019              	.LASF209:
 9020 09a6 73746D33 		.ascii	"stm32_otg_host_chn_t\000"
 9020      325F6F74 
 9020      675F686F 
 9020      73745F63 
 9020      686E5F74 
 9021              	.LASF233:
 9022 09bb 484E5054 		.ascii	"HNPTXSTS\000"
 9022      58535453 
 9022      00
 9023              	.LASF245:
 9024 09c4 48505458 		.ascii	"HPTXSTS\000"
 9024      53545300 
 9025              	.LASF361:
 9026 09cc 7573625F 		.ascii	"usb_lld_start_in\000"
ARM GAS  /tmp/ccD2hNvo.s 			page 168


 9026      6C6C645F 
 9026      73746172 
 9026      745F696E 
 9026      00
 9027              	.LASF191:
 9028 09dd 5553425F 		.ascii	"USB_EVENT_STALLED\000"
 9028      4556454E 
 9028      545F5354 
 9028      414C4C45 
 9028      4400
 9029              	.LASF365:
 9030 09ef 7573625F 		.ascii	"usb_lld_clear_in\000"
 9030      6C6C645F 
 9030      636C6561 
 9030      725F696E 
 9030      00
 9031              	.LASF26:
 9032 0a00 74736C69 		.ascii	"tslices_t\000"
 9032      6365735F 
 9032      7400
 9033              	.LASF63:
 9034 0a0a 725F6F6C 		.ascii	"r_older\000"
 9034      64657200 
 9035              	.LASF274:
 9036 0a12 4649464F 		.ascii	"FIFO\000"
 9036      00
 9037              	.LASF171:
 9038 0a17 5553425F 		.ascii	"USB_SUSPENDED\000"
 9038      53555350 
 9038      454E4445 
 9038      4400
 9039              	.LASF367:
 9040 0a25 65706D61 		.ascii	"epmask\000"
 9040      736B00
 9041              	.LASF356:
 9042 0a2c 7573625F 		.ascii	"usb_lld_get_status_out\000"
 9042      6C6C645F 
 9042      6765745F 
 9042      73746174 
 9042      75735F6F 
 9043              	.LASF298:
 9044 0a43 73657475 		.ascii	"setup_buf\000"
 9044      705F6275 
 9044      6600
 9045              	.LASF263:
 9046 0a4d 44564255 		.ascii	"DVBUSPULSE\000"
 9046      5350554C 
 9046      534500
 9047              	.LASF371:
 9048 0a58 65703063 		.ascii	"ep0config\000"
 9048      6F6E6669 
 9048      6700
 9049              	.LASF163:
 9050 0a62 77616974 		.ascii	"wait\000"
 9050      00
 9051              	.LASF188:
 9052 0a67 5553425F 		.ascii	"USB_EVENT_UNCONFIGURED\000"
ARM GAS  /tmp/ccD2hNvo.s 			page 169


 9052      4556454E 
 9052      545F554E 
 9052      434F4E46 
 9052      49475552 
 9053              	.LASF78:
 9054 0a7e 70616E69 		.ascii	"panic_msg\000"
 9054      635F6D73 
 9054      6700
 9055              	.LASF195:
 9056 0a88 55534244 		.ascii	"USBDescriptor\000"
 9056      65736372 
 9056      6970746F 
 9056      7200
 9057              	.LASF368:
 9058 0a96 646F6E65 		.ascii	"done\000"
 9058      00
 9059              	.LASF46:
 9060 0a9b 705F6D73 		.ascii	"p_msg\000"
 9060      6700
 9061              	.LASF23:
 9062 0aa1 746D6F64 		.ascii	"tmode_t\000"
 9062      655F7400 
 9063              	.LASF114:
 9064 0aa9 41504231 		.ascii	"APB1SMENR1\000"
 9064      534D454E 
 9064      523100
 9065              	.LASF115:
 9066 0ab4 41504231 		.ascii	"APB1SMENR2\000"
 9066      534D454E 
 9066      523200
 9067              	.LASF343:
 9068 0abf 6F74675F 		.ascii	"otg_epout_handler\000"
 9068      65706F75 
 9068      745F6861 
 9068      6E646C65 
 9068      7200
 9069              	.LASF83:
 9070 0ad1 6D61696E 		.ascii	"mainthread\000"
 9070      74687265 
 9070      616400
 9071              	.LASF118:
 9072 0adc 43434950 		.ascii	"CCIPR\000"
 9072      5200
 9073              	.LASF329:
 9074 0ae2 6F74675F 		.ascii	"otg_rxfifo_flush\000"
 9074      72786669 
 9074      666F5F66 
 9074      6C757368 
 9074      00
 9075              	.LASF151:
 9076 0af3 65703073 		.ascii	"ep0state\000"
 9076      74617465 
 9076      00
 9077              	.LASF304:
 9078 0afc 55534243 		.ascii	"USBConfig\000"
 9078      6F6E6669 
 9078      6700
ARM GAS  /tmp/ccD2hNvo.s 			page 170


 9079              	.LASF325:
 9080 0b06 6F74675F 		.ascii	"otg_core_reset\000"
 9080      636F7265 
 9080      5F726573 
 9080      657400
 9081              	.LASF18:
 9082 0b15 75696E74 		.ascii	"uint16_t\000"
 9082      31365F74 
 9082      00
 9083              	.LASF224:
 9084 0b1e 47414842 		.ascii	"GAHBCFG\000"
 9084      43464700 
 9085              	.LASF275:
 9086 0b26 73746D33 		.ascii	"stm32_otg_t\000"
 9086      325F6F74 
 9086      675F7400 
 9087              	.LASF344:
 9088 0b32 6F74675F 		.ascii	"otg_isoc_in_failed_handler\000"
 9088      69736F63 
 9088      5F696E5F 
 9088      6661696C 
 9088      65645F68 
 9089              	.LASF95:
 9090 0b4d 41484232 		.ascii	"AHB2RSTR\000"
 9090      52535452 
 9090      00
 9091              	.LASF314:
 9092 0b56 63685265 		.ascii	"chRegSetThreadName\000"
 9092      67536574 
 9092      54687265 
 9092      61644E61 
 9092      6D6500
 9093              	.LASF73:
 9094 0b69 76697274 		.ascii	"virtual_timers_list_t\000"
 9094      75616C5F 
 9094      74696D65 
 9094      72735F6C 
 9094      6973745F 
 9095              	.LASF22:
 9096 0b7f 7274636E 		.ascii	"rtcnt_t\000"
 9096      745F7400 
 9097              	.LASF238:
 9098 0b87 48505458 		.ascii	"HPTXFSIZ\000"
 9098      4653495A 
 9098      00
 9099              	.LASF16:
 9100 0b90 63686172 		.ascii	"char\000"
 9100      00
 9101              	.LASF92:
 9102 0b95 43494352 		.ascii	"CICR\000"
 9102      00
 9103              	.LASF4:
 9104 0b9a 756E7369 		.ascii	"unsigned char\000"
 9104      676E6564 
 9104      20636861 
 9104      7200
 9105              	.LASF146:
ARM GAS  /tmp/ccD2hNvo.s 			page 171


 9106 0ba8 636F6E66 		.ascii	"config\000"
 9106      696700
 9107              	.LASF49:
 9108 0baf 705F7265 		.ascii	"p_realprio\000"
 9108      616C7072 
 9108      696F00
 9109              	.LASF97:
 9110 0bba 52455345 		.ascii	"RESERVED1\000"
 9110      52564544 
 9110      3100
 9111              	.LASF101:
 9112 0bc4 52455345 		.ascii	"RESERVED2\000"
 9112      52564544 
 9112      3200
 9113              	.LASF105:
 9114 0bce 52455345 		.ascii	"RESERVED3\000"
 9114      52564544 
 9114      3300
 9115              	.LASF109:
 9116 0bd8 52455345 		.ascii	"RESERVED4\000"
 9116      52564544 
 9116      3400
 9117              	.LASF113:
 9118 0be2 52455345 		.ascii	"RESERVED5\000"
 9118      52564544 
 9118      3500
 9119              	.LASF117:
 9120 0bec 52455345 		.ascii	"RESERVED6\000"
 9120      52564544 
 9120      3600
 9121              	.LASF203:
 9122 0bf6 4843494E 		.ascii	"HCINT\000"
 9122      5400
 9123              	.LASF64:
 9124 0bfc 725F6375 		.ascii	"r_current\000"
 9124      7272656E 
 9124      7400
 9125              	.LASF150:
 9126 0c06 6F75745F 		.ascii	"out_params\000"
 9126      70617261 
 9126      6D7300
 9127              	.LASF139:
 9128 0c11 6D5F7175 		.ascii	"m_queue\000"
 9128      65756500 
 9129              	.LASF332:
 9130 0c19 6F74675F 		.ascii	"otg_ram_reset\000"
 9130      72616D5F 
 9130      72657365 
 9130      7400
 9131              	.LASF9:
 9132 0c27 6C6F6E67 		.ascii	"long int\000"
 9132      20696E74 
 9132      00
 9133              	.LASF125:
 9134 0c30 706F7274 		.ascii	"port_intctx\000"
 9134      5F696E74 
 9134      63747800 
ARM GAS  /tmp/ccD2hNvo.s 			page 172


 9135              	.LASF288:
 9136 0c3c 5553424F 		.ascii	"USBOutEndpointState\000"
 9136      7574456E 
 9136      64706F69 
 9136      6E745374 
 9136      61746500 
 9137              	.LASF373:
 9138 0c50 49544D5F 		.ascii	"ITM_RxBuffer\000"
 9138      52784275 
 9138      66666572 
 9138      00
 9139              	.LASF210:
 9140 0c5d 44494550 		.ascii	"DIEPCTL\000"
 9140      43544C00 
 9141              	.LASF159:
 9142 0c65 73617665 		.ascii	"saved_state\000"
 9142      645F7374 
 9142      61746500 
 9143              	.LASF248:
 9144 0c71 72657376 		.ascii	"resvd41C\000"
 9144      64343143 
 9144      00
 9145              	.LASF200:
 9146 0c7a 75736267 		.ascii	"usbgetdescriptor_t\000"
 9146      65746465 
 9146      73637269 
 9146      70746F72 
 9146      5F7400
 9147              	.LASF80:
 9148 0c8d 63685F73 		.ascii	"ch_system\000"
 9148      79737465 
 9148      6D00
 9149              	.LASF34:
 9150 0c97 705F7072 		.ascii	"p_prev\000"
 9150      657600
 9151              	.LASF108:
 9152 0c9e 41504232 		.ascii	"APB2ENR\000"
 9152      454E5200 
 9153              	.LASF378:
 9154 0ca6 5F5F7365 		.ascii	"__set_BASEPRI\000"
 9154      745F4241 
 9154      53455052 
 9154      4900
 9155              	.LASF33:
 9156 0cb4 705F6E65 		.ascii	"p_next\000"
 9156      787400
 9157              	.LASF282:
 9158 0cbb 74786275 		.ascii	"txbuf\000"
 9158      6600
 9159              	.LASF255:
 9160 0cc1 72657376 		.ascii	"resvd80C\000"
 9160      64383043 
 9160      00
 9161              	.LASF21:
 9162 0cca 75696E74 		.ascii	"uint64_t\000"
 9162      36345F74 
 9162      00
ARM GAS  /tmp/ccD2hNvo.s 			page 173


 9163              	.LASF36:
 9164 0cd3 705F6374 		.ascii	"p_ctx\000"
 9164      7800
 9165              	.LASF338:
 9166 0cd9 6F74675F 		.ascii	"otg_fifo_read_to_buffer\000"
 9166      6669666F 
 9166      5F726561 
 9166      645F746F 
 9166      5F627566 
 9167              	.LASF86:
 9168 0cf1 43464752 		.ascii	"CFGR\000"
 9168      00
 9169              	.LASF81:
 9170 0cf6 726C6973 		.ascii	"rlist\000"
 9170      7400
 9171              	.LASF319:
 9172 0cfc 6F73616C 		.ascii	"osalSysUnlockFromISR\000"
 9172      53797355 
 9172      6E6C6F63 
 9172      6B46726F 
 9172      6D495352 
 9173              	.LASF112:
 9174 0d11 41484233 		.ascii	"AHB3SMENR\000"
 9174      534D454E 
 9174      5200
 9175              	.LASF136:
 9176 0d1b 735F7175 		.ascii	"s_queue\000"
 9176      65756500 
 9177              	.LASF169:
 9178 0d23 5553425F 		.ascii	"USB_SELECTED\000"
 9178      53454C45 
 9178      43544544 
 9178      00
 9179              	.LASF3:
 9180 0d30 5F5F7569 		.ascii	"__uint8_t\000"
 9180      6E74385F 
 9180      7400
 9181              	.LASF106:
 9182 0d3a 41504231 		.ascii	"APB1ENR1\000"
 9182      454E5231 
 9182      00
 9183              	.LASF107:
 9184 0d43 41504231 		.ascii	"APB1ENR2\000"
 9184      454E5232 
 9184      00
 9185              	.LASF315:
 9186 0d4c 6E616D65 		.ascii	"name\000"
 9186      00
 9187              	.LASF197:
 9188 0d51 75736265 		.ascii	"usbepcallback_t\000"
 9188      7063616C 
 9188      6C626163 
 9188      6B5F7400 
 9189              	.LASF175:
 9190 0d61 45505F53 		.ascii	"EP_STATUS_ACTIVE\000"
 9190      54415455 
 9190      535F4143 
ARM GAS  /tmp/ccD2hNvo.s 			page 174


 9190      54495645 
 9190      00
 9191              	.LASF232:
 9192 0d72 44494550 		.ascii	"DIEPTXF0\000"
 9192      54584630 
 9192      00
 9193              	.LASF223:
 9194 0d7b 474F5447 		.ascii	"GOTGINT\000"
 9194      494E5400 
 9195              	.LASF222:
 9196 0d83 474F5447 		.ascii	"GOTGCTL\000"
 9196      43544C00 
 9197              	.LASF259:
 9198 0d8b 4441494E 		.ascii	"DAINTMSK\000"
 9198      544D534B 
 9198      00
 9199              	.LASF359:
 9200 0d94 7573625F 		.ascii	"usb_lld_start_out\000"
 9200      6C6C645F 
 9200      73746172 
 9200      745F6F75 
 9200      7400
 9201              	.LASF291:
 9202 0da6 696E5F63 		.ascii	"in_cb\000"
 9202      6200
 9203              	.LASF370:
 9204 0dac 65703073 		.ascii	"ep0setup_buffer\000"
 9204      65747570 
 9204      5F627566 
 9204      66657200 
 9205              	.LASF256:
 9206 0dbc 44494550 		.ascii	"DIEPMSK\000"
 9206      4D534B00 
 9207              	.LASF360:
 9208 0dc4 70636E74 		.ascii	"pcnt\000"
 9208      00
 9209              	.LASF15:
 9210 0dc9 73697A65 		.ascii	"sizetype\000"
 9210      74797065 
 9210      00
 9211              	.LASF25:
 9212 0dd2 74726566 		.ascii	"trefs_t\000"
 9212      735F7400 
 9213              	.LASF11:
 9214 0dda 6C6F6E67 		.ascii	"long unsigned int\000"
 9214      20756E73 
 9214      69676E65 
 9214      6420696E 
 9214      7400
 9215              	.LASF157:
 9216 0dec 61646472 		.ascii	"address\000"
 9216      65737300 
 9217              	.LASF230:
 9218 0df4 47525853 		.ascii	"GRXSTSP\000"
 9218      54535000 
 9219              	.LASF229:
 9220 0dfc 47525853 		.ascii	"GRXSTSR\000"
ARM GAS  /tmp/ccD2hNvo.s 			page 175


 9220      54535200 
 9221              	.LASF316:
 9222 0e04 6F73616C 		.ascii	"osalSysLock\000"
 9222      5379734C 
 9222      6F636B00 
 9223              	.LASF103:
 9224 0e10 41484232 		.ascii	"AHB2ENR\000"
 9224      454E5200 
 9225              	.LASF19:
 9226 0e18 696E7433 		.ascii	"int32_t\000"
 9226      325F7400 
 9227              	.LASF221:
 9228 0e20 73746D33 		.ascii	"stm32_otg_out_ep_t\000"
 9228      325F6F74 
 9228      675F6F75 
 9228      745F6570 
 9228      5F7400
 9229              	.LASF132:
 9230 0e33 77747365 		.ascii	"wtsemp\000"
 9230      6D7000
 9231              	.LASF135:
 9232 0e3a 63685F73 		.ascii	"ch_semaphore\000"
 9232      656D6170 
 9232      686F7265 
 9232      00
 9233              	.LASF347:
 9234 0e47 56656374 		.ascii	"Vector14C\000"
 9234      6F723134 
 9234      4300
 9235              	.LASF142:
 9236 0e51 6D757465 		.ascii	"mutex_t\000"
 9236      785F7400 
 9237              	.LASF308:
 9238 0e59 706F7274 		.ascii	"port_unlock_from_isr\000"
 9238      5F756E6C 
 9238      6F636B5F 
 9238      66726F6D 
 9238      5F697372 
 9239              	.LASF337:
 9240 0e6e 6669666F 		.ascii	"fifop\000"
 9240      7000
 9241              	.LASF260:
 9242 0e74 72657376 		.ascii	"resvd820\000"
 9242      64383230 
 9242      00
 9243              	.LASF161:
 9244 0e7d 706D6E65 		.ascii	"pmnext\000"
 9244      787400
 9245              	.LASF57:
 9246 0e84 72656164 		.ascii	"ready_list_t\000"
 9246      795F6C69 
 9246      73745F74 
 9246      00
 9247              	.LASF261:
 9248 0e91 72657376 		.ascii	"resvd824\000"
 9248      64383234 
 9248      00
ARM GAS  /tmp/ccD2hNvo.s 			page 176


 9249              	.LASF183:
 9250 0e9a 5553425F 		.ascii	"USB_EP0_ERROR\000"
 9250      4550305F 
 9250      4552524F 
 9250      5200
 9251              	.LASF243:
 9252 0ea8 48464E55 		.ascii	"HFNUM\000"
 9252      4D00
 9253              	.LASF42:
 9254 0eae 705F7265 		.ascii	"p_refs\000"
 9254      667300
 9255              	.LASF165:
 9256 0eb5 75736265 		.ascii	"usbep_t\000"
 9256      705F7400 
 9257              	.LASF162:
 9258 0ebd 74787065 		.ascii	"txpending\000"
 9258      6E64696E 
 9258      6700
 9259              	.LASF91:
 9260 0ec7 43494652 		.ascii	"CIFR\000"
 9260      00
 9261              	.LASF290:
 9262 0ecc 73657475 		.ascii	"setup_cb\000"
 9262      705F6362 
 9262      00
 9263              	.LASF301:
 9264 0ed5 6765745F 		.ascii	"get_descriptor_cb\000"
 9264      64657363 
 9264      72697074 
 9264      6F725F63 
 9264      6200
 9265              	.LASF43:
 9266 0ee7 705F7072 		.ascii	"p_preempt\000"
 9266      65656D70 
 9266      7400
 9267              	.LASF273:
 9268 0ef1 72657376 		.ascii	"resvdE04\000"
 9268      64453034 
 9268      00
 9269              	.LASF194:
 9270 0efa 75645F73 		.ascii	"ud_string\000"
 9270      7472696E 
 9270      6700
 9271              	.LASF331:
 9272 0f04 6669666F 		.ascii	"fifo\000"
 9272      00
 9273              	.LASF116:
 9274 0f09 41504232 		.ascii	"APB2SMENR\000"
 9274      534D454E 
 9274      5200
 9275              	.LASF190:
 9276 0f13 5553425F 		.ascii	"USB_EVENT_WAKEUP\000"
 9276      4556454E 
 9276      545F5741 
 9276      4B455550 
 9276      00
 9277              	.LASF145:
ARM GAS  /tmp/ccD2hNvo.s 			page 177


 9278 0f24 73746174 		.ascii	"state\000"
 9278      6500
 9279              	.LASF212:
 9280 0f2a 44494550 		.ascii	"DIEPINT\000"
 9280      494E5400 
 9281              	.LASF47:
 9282 0f32 705F6570 		.ascii	"p_epending\000"
 9282      656E6469 
 9282      6E6700
 9283              	.LASF68:
 9284 0f3d 76745F6E 		.ascii	"vt_next\000"
 9284      65787400 
 9285              	.LASF242:
 9286 0f45 48464952 		.ascii	"HFIR\000"
 9286      00
 9287              	.LASF239:
 9288 0f4a 44494550 		.ascii	"DIEPTXF\000"
 9288      54584600 
 9289              	.LASF79:
 9290 0f52 63685F73 		.ascii	"ch_system_t\000"
 9290      79737465 
 9290      6D5F7400 
 9291              	.LASF131:
 9292 0f5e 77747472 		.ascii	"wttrp\000"
 9292      7000
 9293              	.LASF294:
 9294 0f64 6F75745F 		.ascii	"out_maxsize\000"
 9294      6D617873 
 9294      697A6500 
 9295              	.LASF264:
 9296 0f70 72657376 		.ascii	"resvd830\000"
 9296      64383330 
 9296      00
 9297              	.LASF272:
 9298 0f79 50434743 		.ascii	"PCGCCTL\000"
 9298      43544C00 
 9299              	.LASF374:
 9300 0f81 55534244 		.ascii	"USBD1\000"
 9300      3100
 9301              	.LASF141:
 9302 0f87 6D5F6E65 		.ascii	"m_next\000"
 9302      787400
 9303              	.LASF366:
 9304 0f8e 7573625F 		.ascii	"usb_lld_pump\000"
 9304      6C6C645F 
 9304      70756D70 
 9304      00
 9305              	.LASF284:
 9306 0f9b 55534249 		.ascii	"USBInEndpointState\000"
 9306      6E456E64 
 9306      706F696E 
 9306      74537461 
 9306      746500
 9307              	.LASF144:
 9308 0fae 55534244 		.ascii	"USBDriver\000"
 9308      72697665 
 9308      7200
ARM GAS  /tmp/ccD2hNvo.s 			page 178


 9309              	.LASF267:
 9310 0fb8 72657376 		.ascii	"resvd83C\000"
 9310      64383343 
 9310      00
 9311              	.LASF7:
 9312 0fc1 73686F72 		.ascii	"short unsigned int\000"
 9312      7420756E 
 9312      7369676E 
 9312      65642069 
 9312      6E7400
 9313              	.LASF61:
 9314 0fd4 725F6374 		.ascii	"r_ctx\000"
 9314      7800
 9315              	.LASF123:
 9316 0fda 73746B61 		.ascii	"stkalign_t\000"
 9316      6C69676E 
 9316      5F7400
 9317              	.LASF355:
 9318 0fe5 7573625F 		.ascii	"usb_lld_disable_endpoints\000"
 9318      6C6C645F 
 9318      64697361 
 9318      626C655F 
 9318      656E6470 
 9319              	.LASF160:
 9320 0fff 6F746770 		.ascii	"otgparams\000"
 9320      6172616D 
 9320      7300
 9321              	.LASF297:
 9322 1009 696E5F6D 		.ascii	"in_multiplier\000"
 9322      756C7469 
 9322      706C6965 
 9322      7200
 9323              	.LASF313:
 9324 1017 5F5F6675 		.ascii	"__func__\000"
 9324      6E635F5F 
 9324      00
 9325              	.LASF258:
 9326 1020 4441494E 		.ascii	"DAINT\000"
 9326      5400
 9327              	.LASF71:
 9328 1026 76745F66 		.ascii	"vt_func\000"
 9328      756E6300 
 9329              	.LASF182:
 9330 102e 5553425F 		.ascii	"USB_EP0_SENDING_STS\000"
 9330      4550305F 
 9330      53454E44 
 9330      494E475F 
 9330      53545300 
 9331              	.LASF324:
 9332 1042 6F73616C 		.ascii	"osalThreadResumeI\000"
 9332      54687265 
 9332      61645265 
 9332      73756D65 
 9332      4900
 9333              	.LASF286:
 9334 1054 7278636E 		.ascii	"rxcnt\000"
 9334      7400
ARM GAS  /tmp/ccD2hNvo.s 			page 179


 9335              	.LASF69:
 9336 105a 76745F70 		.ascii	"vt_prev\000"
 9336      72657600 
 9337              	.LASF369:
 9338 1062 6570305F 		.ascii	"ep0_state\000"
 9338      73746174 
 9338      6500
 9339              	.LASF270:
 9340 106c 72657376 		.ascii	"resvd8C0\000"
 9340      64384330 
 9340      00
 9341              	.LASF164:
 9342 1075 77615F70 		.ascii	"wa_pump\000"
 9342      756D7000 
 9343              	.LASF321:
 9344 107d 6379636C 		.ascii	"cycles\000"
 9344      657300
 9345              	.LASF192:
 9346 1084 75736265 		.ascii	"usbevent_t\000"
 9346      76656E74 
 9346      5F7400
 9347              	.LASF253:
 9348 108f 4443544C 		.ascii	"DCTL\000"
 9348      00
 9349              	.LASF119:
 9350 1094 52455345 		.ascii	"RESERVED7\000"
 9350      52564544 
 9350      3700
 9351              	.LASF268:
 9352 109e 72657376 		.ascii	"resvd840\000"
 9352      64383430 
 9352      00
 9353              	.LASF181:
 9354 10a7 5553425F 		.ascii	"USB_EP0_RX\000"
 9354      4550305F 
 9354      525800
 9355              	.LASF364:
 9356 10b2 7573625F 		.ascii	"usb_lld_clear_out\000"
 9356      6C6C645F 
 9356      636C6561 
 9356      725F6F75 
 9356      7400
 9357              	.LASF184:
 9358 10c4 75736265 		.ascii	"usbep0state_t\000"
 9358      70307374 
 9358      6174655F 
 9358      7400
 9359              	.LASF111:
 9360 10d2 41484232 		.ascii	"AHB2SMENR\000"
 9360      534D454E 
 9360      5200
 9361              	.LASF196:
 9362 10dc 75736263 		.ascii	"usbcallback_t\000"
 9362      616C6C62 
 9362      61636B5F 
 9362      7400
 9363              	.LASF59:
ARM GAS  /tmp/ccD2hNvo.s 			page 180


 9364 10ea 725F7175 		.ascii	"r_queue\000"
 9364      65756500 
 9365              	.LASF305:
 9366 10f2 706F7274 		.ascii	"port_lock\000"
 9366      5F6C6F63 
 9366      6B00
 9367              	.LASF129:
 9368 10fc 65786974 		.ascii	"exitcode\000"
 9368      636F6465 
 9368      00
 9369              	.LASF167:
 9370 1105 5553425F 		.ascii	"USB_STOP\000"
 9370      53544F50 
 9370      00
 9371              	.LASF323:
 9372 110e 6F73616C 		.ascii	"osalThreadSuspendS\000"
 9372      54687265 
 9372      61645375 
 9372      7370656E 
 9372      645300
 9373              	.LASF94:
 9374 1121 41484231 		.ascii	"AHB1RSTR\000"
 9374      52535452 
 9374      00
 9375              	.LASF287:
 9376 112a 72786275 		.ascii	"rxbuf\000"
 9376      6600
 9377              	.LASF199:
 9378 1130 75736272 		.ascii	"usbreqhandler_t\000"
 9378      65716861 
 9378      6E646C65 
 9378      725F7400 
 9379              	.LASF362:
 9380 1140 7573625F 		.ascii	"usb_lld_stall_out\000"
 9380      6C6C645F 
 9380      7374616C 
 9380      6C5F6F75 
 9380      7400
 9381              		.ident	"GCC: (GNU Tools for ARM Embedded Processors) 4.8.4 20140526 (release) [ARM/embedded-4_8-br
ARM GAS  /tmp/ccD2hNvo.s 			page 181


DEFINED SYMBOLS
                            *ABS*:00000000 usb_lld.c
     /tmp/ccD2hNvo.s:18     .text:00000000 $t
     /tmp/ccD2hNvo.s:23     .text:00000000 port_lock
     /tmp/ccD2hNvo.s:58     .text:00000010 port_unlock
     /tmp/ccD2hNvo.s:91     .text:00000020 port_lock_from_isr
     /tmp/ccD2hNvo.s:113    .text:00000030 port_unlock_from_isr
     /tmp/ccD2hNvo.s:135    .text:00000040 chSysLock
     /tmp/ccD2hNvo.s:158    .text:00000050 chSysUnlock
     /tmp/ccD2hNvo.s:180    .text:00000060 chSysLockFromISR
     /tmp/ccD2hNvo.s:202    .text:00000070 chSysUnlockFromISR
     /tmp/ccD2hNvo.s:224    .text:00000080 chThdStartI
     /tmp/ccD2hNvo.s:254    .text:000000a0 chRegSetThreadName
     /tmp/ccD2hNvo.s:277    .text:000000b0 $d
     /tmp/ccD2hNvo.s:281    .text:000000b4 $t
     /tmp/ccD2hNvo.s:286    .text:000000c0 osalSysLock
     /tmp/ccD2hNvo.s:309    .text:000000d0 osalSysUnlock
     /tmp/ccD2hNvo.s:331    .text:000000e0 osalSysLockFromISR
     /tmp/ccD2hNvo.s:353    .text:000000f0 osalSysUnlockFromISR
     /tmp/ccD2hNvo.s:375    .text:00000100 osalSysPolledDelayX
     /tmp/ccD2hNvo.s:402    .text:00000120 osalThreadSuspendS
     /tmp/ccD2hNvo.s:431    .text:00000140 osalThreadResumeI
                            *COM*:000001d0 USBD1
     /tmp/ccD2hNvo.s:457    .bss:00000000 $d
     /tmp/ccD2hNvo.s:458    .bss:00000000 ep0_state
     /tmp/ccD2hNvo.s:461    .bss:00000010 ep0setup_buffer
     /tmp/ccD2hNvo.s:464    .rodata:00000000 $d
     /tmp/ccD2hNvo.s:467    .rodata:00000000 ep0config
     /tmp/ccD2hNvo.s:482    .rodata:00000024 fsparams
     /tmp/ccD2hNvo.s:492    .text:00000160 otg_core_reset
     /tmp/ccD2hNvo.s:548    .text:000001a0 otg_disable_ep
     /tmp/ccD2hNvo.s:643    .text:00000230 otg_rxfifo_flush
     /tmp/ccD2hNvo.s:687    .text:00000260 otg_txfifo_flush
     /tmp/ccD2hNvo.s:734    .text:000002a0 otg_ram_reset
     /tmp/ccD2hNvo.s:762    .text:000002c0 otg_ram_alloc
     /tmp/ccD2hNvo.s:799    .text:000002e0 otg_fifo_write_from_buffer
     /tmp/ccD2hNvo.s:847    .text:00000310 otg_fifo_read_to_buffer
     /tmp/ccD2hNvo.s:918    .text:00000360 otg_rxfifo_handler
     /tmp/ccD2hNvo.s:1081   .text:00000470 otg_txfifo_handler
     /tmp/ccD2hNvo.s:1254   .text:000005a0 otg_epin_handler
     /tmp/ccD2hNvo.s:3356   .text:000013b0 usb_lld_start_in
     /tmp/ccD2hNvo.s:1434   .text:000006f0 otg_epout_handler
     /tmp/ccD2hNvo.s:3185   .text:00001270 usb_lld_start_out
     /tmp/ccD2hNvo.s:1621   .text:00000850 otg_isoc_in_failed_handler
     /tmp/ccD2hNvo.s:1784   .text:00000980 otg_isoc_out_failed_handler
     /tmp/ccD2hNvo.s:1886   .text:00000a30 usb_lld_serve_interrupt
     /tmp/ccD2hNvo.s:2164   .text:00000c10 Vector14C
     /tmp/ccD2hNvo.s:2184   .text:00000c20 $d
     /tmp/ccD2hNvo.s:2188   .text:00000c24 $t
     /tmp/ccD2hNvo.s:2194   .text:00000c30 usb_lld_init
     /tmp/ccD2hNvo.s:2228   .text:00000c58 $d
     /tmp/ccD2hNvo.s:2233   .text:00000c60 $t
     /tmp/ccD2hNvo.s:2239   .text:00000c60 usb_lld_start
     /tmp/ccD2hNvo.s:2392   .text:00000d60 $d
     /tmp/ccD2hNvo.s:3716   .text:00001610 usb_lld_pump
     /tmp/ccD2hNvo.s:2402   .text:00000d7c $t
     /tmp/ccD2hNvo.s:2408   .text:00000d80 usb_lld_stop
ARM GAS  /tmp/ccD2hNvo.s 			page 182


     /tmp/ccD2hNvo.s:2470   .text:00000dd4 $d
     /tmp/ccD2hNvo.s:2475   .text:00000ddc $t
     /tmp/ccD2hNvo.s:2481   .text:00000de0 usb_lld_reset
     /tmp/ccD2hNvo.s:2643   .text:00000f04 $d
     /tmp/ccD2hNvo.s:2647   .text:00000f08 $t
     /tmp/ccD2hNvo.s:2653   .text:00000f10 usb_lld_set_address
     /tmp/ccD2hNvo.s:2690   .text:00000f40 usb_lld_init_endpoint
     /tmp/ccD2hNvo.s:2725   .text:00000f74 $d
     /tmp/ccD2hNvo.s:2729   .text:00000f84 $t
     /tmp/ccD2hNvo.s:2988   .text:00001184 $d
     /tmp/ccD2hNvo.s:2996   .text:00001198 $t
     /tmp/ccD2hNvo.s:3002   .text:000011a0 usb_lld_disable_endpoints
     /tmp/ccD2hNvo.s:3033   .text:000011c0 usb_lld_get_status_out
     /tmp/ccD2hNvo.s:3089   .text:00001200 usb_lld_get_status_in
     /tmp/ccD2hNvo.s:3145   .text:00001240 usb_lld_read_setup
     /tmp/ccD2hNvo.s:3547   .text:00001510 usb_lld_stall_out
     /tmp/ccD2hNvo.s:3588   .text:00001550 usb_lld_stall_in
     /tmp/ccD2hNvo.s:3629   .text:00001590 usb_lld_clear_out
     /tmp/ccD2hNvo.s:3670   .text:000015d0 usb_lld_clear_in
     /tmp/ccD2hNvo.s:3876   .text:00001718 $d
                     .debug_frame:00000010 $d
     /tmp/ccD2hNvo.s:3896   .text:0000171c $t

UNDEFINED SYMBOLS
chSchReadyI
ch
chSysPolledDelayX
chThdSuspendS
chThdResumeI
_usb_ep0setup
_usb_ep0in
_usb_ep0out
_usb_reset
_usb_wakeup
_usb_suspend
_port_irq_epilogue
usbObjectInit
nvicEnableVector
chThdCreateI
chSchRescheduleS
nvicDisableVector
memcpy
