ARM GAS  /tmp/ccD2hNvo.s 			page 1


   1              		.syntax unified
   2              		.cpu cortex-m4
   3              		.fpu softvfp
   4              		.eabi_attribute 20, 1
   5              		.eabi_attribute 21, 1
   6              		.eabi_attribute 23, 3
   7              		.eabi_attribute 24, 1
   8              		.eabi_attribute 25, 1
   9              		.eabi_attribute 26, 1
  10              		.eabi_attribute 30, 6
  11              		.eabi_attribute 34, 1
  12              		.eabi_attribute 18, 4
  13              		.thumb
  14              		.file	"usb_lld.c"
  15              		.text
  16              	.Ltext0:
  17              		.cfi_sections	.debug_frame
  18              		.align	2
  19              		.p2align 4,,15
  20              		.thumb
  21              		.thumb_func
  22              		.type	port_lock, %function
  23              	port_lock:
  24              	.LFB127:
  25              		.file 1 "../../ChibiOS/os/rt/ports/ARMCMx/chcore_v7m.h"
  26              		.loc 1 456 0
  27              		.cfi_startproc
  28              		@ args = 0, pretend = 0, frame = 8
  29              		@ frame_needed = 0, uses_anonymous_args = 0
  30              		@ link register save eliminated.
  31 0000 82B0     		sub	sp, sp, #8
  32              		.cfi_def_cfa_offset 8
  33 0002 2023     		movs	r3, #32
  34 0004 0193     		str	r3, [sp, #4]
  35              	.LBB6:
  36              	.LBB7:
  37              		.file 2 "../../ChibiOS/os/ext/CMSIS/include/core_cmFunc.h"
  38              		.loc 2 548 0
  39 0006 019B     		ldr	r3, [sp, #4]
  40              	@ 548 "../../ChibiOS/os/ext/CMSIS/include/core_cmFunc.h" 1
  41 0008 83F31188 		MSR basepri, r3
  42              	@ 0 "" 2
  43              		.thumb
  44              	.LBE7:
  45              	.LBE6:
  46              		.loc 1 473 0
  47 000c 02B0     		add	sp, sp, #8
  48              		@ sp needed
  49 000e 7047     		bx	lr
  50              		.cfi_endproc
  51              	.LFE127:
  52              		.size	port_lock, .-port_lock
  53              		.align	2
  54              		.p2align 4,,15
  55              		.thumb
  56              		.thumb_func
  57              		.type	port_unlock, %function
ARM GAS  /tmp/ccD2hNvo.s 			page 2


  58              	port_unlock:
  59              	.LFB128:
  60              		.loc 1 480 0
  61              		.cfi_startproc
  62              		@ args = 0, pretend = 0, frame = 8
  63              		@ frame_needed = 0, uses_anonymous_args = 0
  64              		@ link register save eliminated.
  65 0010 82B0     		sub	sp, sp, #8
  66              		.cfi_def_cfa_offset 8
  67 0012 0023     		movs	r3, #0
  68 0014 0193     		str	r3, [sp, #4]
  69              	.LBB8:
  70              	.LBB9:
  71              		.loc 2 548 0
  72 0016 019B     		ldr	r3, [sp, #4]
  73              	@ 548 "../../ChibiOS/os/ext/CMSIS/include/core_cmFunc.h" 1
  74 0018 83F31188 		MSR basepri, r3
  75              	@ 0 "" 2
  76              		.thumb
  77              	.LBE9:
  78              	.LBE8:
  79              		.loc 1 487 0
  80 001c 02B0     		add	sp, sp, #8
  81              		@ sp needed
  82 001e 7047     		bx	lr
  83              		.cfi_endproc
  84              	.LFE128:
  85              		.size	port_unlock, .-port_unlock
  86              		.align	2
  87              		.p2align 4,,15
  88              		.thumb
  89              		.thumb_func
  90              		.type	port_lock_from_isr, %function
  91              	port_lock_from_isr:
  92              	.LFB129:
  93              		.loc 1 495 0
  94              		.cfi_startproc
  95              		@ args = 0, pretend = 0, frame = 0
  96              		@ frame_needed = 0, uses_anonymous_args = 0
  97 0020 08B5     		push	{r3, lr}
  98              		.cfi_def_cfa_offset 8
  99              		.cfi_offset 3, -8
 100              		.cfi_offset 14, -4
 101              		.loc 1 497 0
 102 0022 FFF7EDFF 		bl	port_lock
 103              		.loc 1 498 0
 104 0026 08BD     		pop	{r3, pc}
 105              		.cfi_endproc
 106              	.LFE129:
 107              		.size	port_lock_from_isr, .-port_lock_from_isr
 108              		.align	2
 109 0028 AFF30080 		.p2align 4,,15
 109      AFF30080 
 110              		.thumb
 111              		.thumb_func
 112              		.type	port_unlock_from_isr, %function
 113              	port_unlock_from_isr:
ARM GAS  /tmp/ccD2hNvo.s 			page 3


 114              	.LFB130:
 115              		.loc 1 506 0
 116              		.cfi_startproc
 117              		@ args = 0, pretend = 0, frame = 0
 118              		@ frame_needed = 0, uses_anonymous_args = 0
 119 0030 08B5     		push	{r3, lr}
 120              		.cfi_def_cfa_offset 8
 121              		.cfi_offset 3, -8
 122              		.cfi_offset 14, -4
 123              		.loc 1 508 0
 124 0032 FFF7EDFF 		bl	port_unlock
 125              		.loc 1 509 0
 126 0036 08BD     		pop	{r3, pc}
 127              		.cfi_endproc
 128              	.LFE130:
 129              		.size	port_unlock_from_isr, .-port_unlock_from_isr
 130              		.align	2
 131 0038 AFF30080 		.p2align 4,,15
 131      AFF30080 
 132              		.thumb
 133              		.thumb_func
 134              		.type	chSysLock, %function
 135              	chSysLock:
 136              	.LFB156:
 137              		.file 3 "../../ChibiOS/os/rt/include/chsys.h"
 138              		.loc 3 346 0
 139              		.cfi_startproc
 140              		@ args = 0, pretend = 0, frame = 0
 141              		@ frame_needed = 0, uses_anonymous_args = 0
 142 0040 08B5     		push	{r3, lr}
 143              		.cfi_def_cfa_offset 8
 144              		.cfi_offset 3, -8
 145              		.cfi_offset 14, -4
 146              		.loc 3 348 0
 147 0042 FFF7DDFF 		bl	port_lock
 148              		.loc 3 351 0
 149 0046 08BD     		pop	{r3, pc}
 150              		.cfi_endproc
 151              	.LFE156:
 152              		.size	chSysLock, .-chSysLock
 153              		.align	2
 154 0048 AFF30080 		.p2align 4,,15
 154      AFF30080 
 155              		.thumb
 156              		.thumb_func
 157              		.type	chSysUnlock, %function
 158              	chSysUnlock:
 159              	.LFB157:
 160              		.loc 3 358 0
 161              		.cfi_startproc
 162              		@ args = 0, pretend = 0, frame = 0
 163              		@ frame_needed = 0, uses_anonymous_args = 0
 164 0050 08B5     		push	{r3, lr}
 165              		.cfi_def_cfa_offset 8
 166              		.cfi_offset 3, -8
 167              		.cfi_offset 14, -4
 168              		.loc 3 371 0
ARM GAS  /tmp/ccD2hNvo.s 			page 4


 169 0052 FFF7DDFF 		bl	port_unlock
 170              		.loc 3 372 0
 171 0056 08BD     		pop	{r3, pc}
 172              		.cfi_endproc
 173              	.LFE157:
 174              		.size	chSysUnlock, .-chSysUnlock
 175              		.align	2
 176 0058 AFF30080 		.p2align 4,,15
 176      AFF30080 
 177              		.thumb
 178              		.thumb_func
 179              		.type	chSysLockFromISR, %function
 180              	chSysLockFromISR:
 181              	.LFB158:
 182              		.loc 3 386 0
 183              		.cfi_startproc
 184              		@ args = 0, pretend = 0, frame = 0
 185              		@ frame_needed = 0, uses_anonymous_args = 0
 186 0060 08B5     		push	{r3, lr}
 187              		.cfi_def_cfa_offset 8
 188              		.cfi_offset 3, -8
 189              		.cfi_offset 14, -4
 190              		.loc 3 388 0
 191 0062 FFF7DDFF 		bl	port_lock_from_isr
 192              		.loc 3 391 0
 193 0066 08BD     		pop	{r3, pc}
 194              		.cfi_endproc
 195              	.LFE158:
 196              		.size	chSysLockFromISR, .-chSysLockFromISR
 197              		.align	2
 198 0068 AFF30080 		.p2align 4,,15
 198      AFF30080 
 199              		.thumb
 200              		.thumb_func
 201              		.type	chSysUnlockFromISR, %function
 202              	chSysUnlockFromISR:
 203              	.LFB159:
 204              		.loc 3 406 0
 205              		.cfi_startproc
 206              		@ args = 0, pretend = 0, frame = 0
 207              		@ frame_needed = 0, uses_anonymous_args = 0
 208 0070 08B5     		push	{r3, lr}
 209              		.cfi_def_cfa_offset 8
 210              		.cfi_offset 3, -8
 211              		.cfi_offset 14, -4
 212              		.loc 3 410 0
 213 0072 FFF7DDFF 		bl	port_unlock_from_isr
 214              		.loc 3 411 0
 215 0076 08BD     		pop	{r3, pc}
 216              		.cfi_endproc
 217              	.LFE159:
 218              		.size	chSysUnlockFromISR, .-chSysUnlockFromISR
 219              		.align	2
 220 0078 AFF30080 		.p2align 4,,15
 220      AFF30080 
 221              		.thumb
 222              		.thumb_func
ARM GAS  /tmp/ccD2hNvo.s 			page 5


 223              		.type	chThdStartI, %function
 224              	chThdStartI:
 225              	.LFB182:
 226              		.file 4 "../../ChibiOS/os/rt/include/chthreads.h"
 227              		.loc 4 245 0
 228              		.cfi_startproc
 229              		@ args = 0, pretend = 0, frame = 8
 230              		@ frame_needed = 0, uses_anonymous_args = 0
 231 0080 00B5     		push	{lr}
 232              		.cfi_def_cfa_offset 4
 233              		.cfi_offset 14, -4
 234 0082 83B0     		sub	sp, sp, #12
 235              		.cfi_def_cfa_offset 16
 236 0084 0190     		str	r0, [sp, #4]
 237              		.loc 4 249 0
 238 0086 0198     		ldr	r0, [sp, #4]
 239 0088 FFF7FEFF 		bl	chSchReadyI
 240 008c 0346     		mov	r3, r0
 241              		.loc 4 250 0
 242 008e 1846     		mov	r0, r3
 243 0090 03B0     		add	sp, sp, #12
 244              		@ sp needed
 245 0092 5DF804FB 		ldr	pc, [sp], #4
 246              		.cfi_endproc
 247              	.LFE182:
 248              		.size	chThdStartI, .-chThdStartI
 249 0096 00BF     		.align	2
 250 0098 AFF30080 		.p2align 4,,15
 250      AFF30080 
 251              		.thumb
 252              		.thumb_func
 253              		.type	chRegSetThreadName, %function
 254              	chRegSetThreadName:
 255              	.LFB187:
 256              		.file 5 "../../ChibiOS/os/rt/include/chregistry.h"
 257              		.loc 5 132 0
 258              		.cfi_startproc
 259              		@ args = 0, pretend = 0, frame = 8
 260              		@ frame_needed = 0, uses_anonymous_args = 0
 261              		@ link register save eliminated.
 262 00a0 82B0     		sub	sp, sp, #8
 263              		.cfi_def_cfa_offset 8
 264 00a2 0190     		str	r0, [sp, #4]
 265              		.loc 5 135 0
 266 00a4 024B     		ldr	r3, .L12
 267 00a6 9B69     		ldr	r3, [r3, #24]
 268 00a8 019A     		ldr	r2, [sp, #4]
 269 00aa 9A61     		str	r2, [r3, #24]
 270              		.loc 5 139 0
 271 00ac 02B0     		add	sp, sp, #8
 272              		@ sp needed
 273 00ae 7047     		bx	lr
 274              	.L13:
 275              		.align	2
 276              	.L12:
 277 00b0 00000000 		.word	ch
 278              		.cfi_endproc
ARM GAS  /tmp/ccD2hNvo.s 			page 6


 279              	.LFE187:
 280              		.size	chRegSetThreadName, .-chRegSetThreadName
 281              		.align	2
 282 00b4 AFF30080 		.p2align 4,,15
 282      AFF30080 
 282      AFF30080 
 283              		.thumb
 284              		.thumb_func
 285              		.type	osalSysLock, %function
 286              	osalSysLock:
 287              	.LFB234:
 288              		.file 6 "../../ChibiOS/os/hal/osal/rt/osal.h"
 289              		.loc 6 491 0
 290              		.cfi_startproc
 291              		@ args = 0, pretend = 0, frame = 0
 292              		@ frame_needed = 0, uses_anonymous_args = 0
 293 00c0 08B5     		push	{r3, lr}
 294              		.cfi_def_cfa_offset 8
 295              		.cfi_offset 3, -8
 296              		.cfi_offset 14, -4
 297              		.loc 6 493 0
 298 00c2 FFF7BDFF 		bl	chSysLock
 299              		.loc 6 494 0
 300 00c6 08BD     		pop	{r3, pc}
 301              		.cfi_endproc
 302              	.LFE234:
 303              		.size	osalSysLock, .-osalSysLock
 304              		.align	2
 305 00c8 AFF30080 		.p2align 4,,15
 305      AFF30080 
 306              		.thumb
 307              		.thumb_func
 308              		.type	osalSysUnlock, %function
 309              	osalSysUnlock:
 310              	.LFB235:
 311              		.loc 6 502 0
 312              		.cfi_startproc
 313              		@ args = 0, pretend = 0, frame = 0
 314              		@ frame_needed = 0, uses_anonymous_args = 0
 315 00d0 08B5     		push	{r3, lr}
 316              		.cfi_def_cfa_offset 8
 317              		.cfi_offset 3, -8
 318              		.cfi_offset 14, -4
 319              		.loc 6 504 0
 320 00d2 FFF7BDFF 		bl	chSysUnlock
 321              		.loc 6 505 0
 322 00d6 08BD     		pop	{r3, pc}
 323              		.cfi_endproc
 324              	.LFE235:
 325              		.size	osalSysUnlock, .-osalSysUnlock
 326              		.align	2
 327 00d8 AFF30080 		.p2align 4,,15
 327      AFF30080 
 328              		.thumb
 329              		.thumb_func
 330              		.type	osalSysLockFromISR, %function
 331              	osalSysLockFromISR:
ARM GAS  /tmp/ccD2hNvo.s 			page 7


 332              	.LFB236:
 333              		.loc 6 513 0
 334              		.cfi_startproc
 335              		@ args = 0, pretend = 0, frame = 0
 336              		@ frame_needed = 0, uses_anonymous_args = 0
 337 00e0 08B5     		push	{r3, lr}
 338              		.cfi_def_cfa_offset 8
 339              		.cfi_offset 3, -8
 340              		.cfi_offset 14, -4
 341              		.loc 6 515 0
 342 00e2 FFF7BDFF 		bl	chSysLockFromISR
 343              		.loc 6 516 0
 344 00e6 08BD     		pop	{r3, pc}
 345              		.cfi_endproc
 346              	.LFE236:
 347              		.size	osalSysLockFromISR, .-osalSysLockFromISR
 348              		.align	2
 349 00e8 AFF30080 		.p2align 4,,15
 349      AFF30080 
 350              		.thumb
 351              		.thumb_func
 352              		.type	osalSysUnlockFromISR, %function
 353              	osalSysUnlockFromISR:
 354              	.LFB237:
 355              		.loc 6 524 0
 356              		.cfi_startproc
 357              		@ args = 0, pretend = 0, frame = 0
 358              		@ frame_needed = 0, uses_anonymous_args = 0
 359 00f0 08B5     		push	{r3, lr}
 360              		.cfi_def_cfa_offset 8
 361              		.cfi_offset 3, -8
 362              		.cfi_offset 14, -4
 363              		.loc 6 526 0
 364 00f2 FFF7BDFF 		bl	chSysUnlockFromISR
 365              		.loc 6 527 0
 366 00f6 08BD     		pop	{r3, pc}
 367              		.cfi_endproc
 368              	.LFE237:
 369              		.size	osalSysUnlockFromISR, .-osalSysUnlockFromISR
 370              		.align	2
 371 00f8 AFF30080 		.p2align 4,,15
 371      AFF30080 
 372              		.thumb
 373              		.thumb_func
 374              		.type	osalSysPolledDelayX, %function
 375              	osalSysPolledDelayX:
 376              	.LFB240:
 377              		.loc 6 571 0
 378              		.cfi_startproc
 379              		@ args = 0, pretend = 0, frame = 8
 380              		@ frame_needed = 0, uses_anonymous_args = 0
 381 0100 00B5     		push	{lr}
 382              		.cfi_def_cfa_offset 4
 383              		.cfi_offset 14, -4
 384 0102 83B0     		sub	sp, sp, #12
 385              		.cfi_def_cfa_offset 16
 386 0104 0190     		str	r0, [sp, #4]
ARM GAS  /tmp/ccD2hNvo.s 			page 8


 387              		.loc 6 573 0
 388 0106 0198     		ldr	r0, [sp, #4]
 389 0108 FFF7FEFF 		bl	chSysPolledDelayX
 390              		.loc 6 574 0
 391 010c 03B0     		add	sp, sp, #12
 392              		@ sp needed
 393 010e 5DF804FB 		ldr	pc, [sp], #4
 394              		.cfi_endproc
 395              	.LFE240:
 396              		.size	osalSysPolledDelayX, .-osalSysPolledDelayX
 397 0112 00BF     		.align	2
 398 0114 AFF30080 		.p2align 4,,15
 398      AFF30080 
 398      AFF30080 
 399              		.thumb
 400              		.thumb_func
 401              		.type	osalThreadSuspendS, %function
 402              	osalThreadSuspendS:
 403              	.LFB247:
 404              		.loc 6 686 0
 405              		.cfi_startproc
 406              		@ args = 0, pretend = 0, frame = 8
 407              		@ frame_needed = 0, uses_anonymous_args = 0
 408 0120 00B5     		push	{lr}
 409              		.cfi_def_cfa_offset 4
 410              		.cfi_offset 14, -4
 411 0122 83B0     		sub	sp, sp, #12
 412              		.cfi_def_cfa_offset 16
 413 0124 0190     		str	r0, [sp, #4]
 414              		.loc 6 688 0
 415 0126 0198     		ldr	r0, [sp, #4]
 416 0128 FFF7FEFF 		bl	chThdSuspendS
 417 012c 0346     		mov	r3, r0
 418              		.loc 6 689 0
 419 012e 1846     		mov	r0, r3
 420 0130 03B0     		add	sp, sp, #12
 421              		@ sp needed
 422 0132 5DF804FB 		ldr	pc, [sp], #4
 423              		.cfi_endproc
 424              	.LFE247:
 425              		.size	osalThreadSuspendS, .-osalThreadSuspendS
 426 0136 00BF     		.align	2
 427 0138 AFF30080 		.p2align 4,,15
 427      AFF30080 
 428              		.thumb
 429              		.thumb_func
 430              		.type	osalThreadResumeI, %function
 431              	osalThreadResumeI:
 432              	.LFB249:
 433              		.loc 6 726 0
 434              		.cfi_startproc
 435              		@ args = 0, pretend = 0, frame = 8
 436              		@ frame_needed = 0, uses_anonymous_args = 0
 437 0140 00B5     		push	{lr}
 438              		.cfi_def_cfa_offset 4
 439              		.cfi_offset 14, -4
 440 0142 83B0     		sub	sp, sp, #12
ARM GAS  /tmp/ccD2hNvo.s 			page 9


 441              		.cfi_def_cfa_offset 16
 442 0144 0190     		str	r0, [sp, #4]
 443 0146 0091     		str	r1, [sp]
 444              		.loc 6 728 0
 445 0148 0198     		ldr	r0, [sp, #4]
 446 014a 0099     		ldr	r1, [sp]
 447 014c FFF7FEFF 		bl	chThdResumeI
 448              		.loc 6 729 0
 449 0150 03B0     		add	sp, sp, #12
 450              		@ sp needed
 451 0152 5DF804FB 		ldr	pc, [sp], #4
 452              		.cfi_endproc
 453              	.LFE249:
 454              		.size	osalThreadResumeI, .-osalThreadResumeI
 455              		.comm	USBD1,464,8
 456              		.bss
 457              		.align	2
 458              	ep0_state:
 459 0000 00000000 		.space	16
 459      00000000 
 459      00000000 
 459      00000000 
 460              		.align	2
 461              	ep0setup_buffer:
 462 0010 00000000 		.space	8
 462      00000000 
 463              		.section	.rodata
 464              		.align	2
 465              		.type	ep0config, %object
 466              		.size	ep0config, 36
 467              	ep0config:
 468 0000 00000000 		.word	0
 469 0004 00000000 		.word	_usb_ep0setup
 470 0008 00000000 		.word	_usb_ep0in
 471 000c 00000000 		.word	_usb_ep0out
 472 0010 4000     		.short	64
 473 0012 4000     		.short	64
 474 0014 00000000 		.word	ep0_state
 475 0018 00000000 		.word	ep0_state
 476 001c 0100     		.short	1
 477 001e 0000     		.space	2
 478 0020 10000000 		.word	ep0setup_buffer
 479              		.align	2
 480              		.type	fsparams, %object
 481              		.size	fsparams, 12
 482              	fsparams:
 483 0024 80000000 		.word	128
 484 0028 40010000 		.word	320
 485 002c 03000000 		.word	3
 486              		.text
 487 0156 00BF     		.align	2
 488 0158 AFF30080 		.p2align 4,,15
 488      AFF30080 
 489              		.thumb
 490              		.thumb_func
 491              		.type	otg_core_reset, %function
 492              	otg_core_reset:
ARM GAS  /tmp/ccD2hNvo.s 			page 10


 493              	.LFB267:
 494              		.file 7 "../../ChibiOS/os/hal/ports/STM32/LLD/OTGv1/usb_lld.c"
 495              		.loc 7 134 0
 496              		.cfi_startproc
 497              		@ args = 0, pretend = 0, frame = 16
 498              		@ frame_needed = 0, uses_anonymous_args = 0
 499 0160 00B5     		push	{lr}
 500              		.cfi_def_cfa_offset 4
 501              		.cfi_offset 14, -4
 502 0162 85B0     		sub	sp, sp, #20
 503              		.cfi_def_cfa_offset 24
 504 0164 0190     		str	r0, [sp, #4]
 505              		.loc 7 135 0
 506 0166 019B     		ldr	r3, [sp, #4]
 507 0168 DB6E     		ldr	r3, [r3, #108]
 508 016a 0393     		str	r3, [sp, #12]
 509              		.loc 7 137 0
 510 016c 2020     		movs	r0, #32
 511 016e FFF7C7FF 		bl	osalSysPolledDelayX
 512              		.loc 7 140 0
 513 0172 039B     		ldr	r3, [sp, #12]
 514 0174 0122     		movs	r2, #1
 515 0176 1A61     		str	r2, [r3, #16]
 516              		.loc 7 141 0
 517 0178 00BF     		nop
 518              	.L23:
 519              		.loc 7 141 0 is_stmt 0 discriminator 1
 520 017a 039B     		ldr	r3, [sp, #12]
 521 017c 1B69     		ldr	r3, [r3, #16]
 522 017e 03F00103 		and	r3, r3, #1
 523 0182 002B     		cmp	r3, #0
 524 0184 F9D1     		bne	.L23
 525              		.loc 7 144 0 is_stmt 1
 526 0186 1220     		movs	r0, #18
 527 0188 FFF7BAFF 		bl	osalSysPolledDelayX
 528              		.loc 7 147 0
 529 018c 00BF     		nop
 530              	.L24:
 531              		.loc 7 147 0 is_stmt 0 discriminator 1
 532 018e 039B     		ldr	r3, [sp, #12]
 533 0190 1B69     		ldr	r3, [r3, #16]
 534 0192 002B     		cmp	r3, #0
 535 0194 FBDA     		bge	.L24
 536              		.loc 7 149 0 is_stmt 1
 537 0196 05B0     		add	sp, sp, #20
 538              		@ sp needed
 539 0198 5DF804FB 		ldr	pc, [sp], #4
 540              		.cfi_endproc
 541              	.LFE267:
 542              		.size	otg_core_reset, .-otg_core_reset
 543              		.align	2
 544 019c AFF30080 		.p2align 4,,15
 545              		.thumb
 546              		.thumb_func
 547              		.type	otg_disable_ep, %function
 548              	otg_disable_ep:
 549              	.LFB268:
ARM GAS  /tmp/ccD2hNvo.s 			page 11


 550              		.loc 7 151 0
 551              		.cfi_startproc
 552              		@ args = 0, pretend = 0, frame = 16
 553              		@ frame_needed = 0, uses_anonymous_args = 0
 554              		@ link register save eliminated.
 555 01a0 84B0     		sub	sp, sp, #16
 556              		.cfi_def_cfa_offset 16
 557 01a2 0190     		str	r0, [sp, #4]
 558              		.loc 7 152 0
 559 01a4 019B     		ldr	r3, [sp, #4]
 560 01a6 DB6E     		ldr	r3, [r3, #108]
 561 01a8 0293     		str	r3, [sp, #8]
 562              		.loc 7 155 0
 563 01aa 0023     		movs	r3, #0
 564 01ac 0393     		str	r3, [sp, #12]
 565 01ae 32E0     		b	.L26
 566              	.L27:
 567              		.loc 7 156 0 discriminator 2
 568 01b0 029A     		ldr	r2, [sp, #8]
 569 01b2 039B     		ldr	r3, [sp, #12]
 570 01b4 4833     		adds	r3, r3, #72
 571 01b6 5B01     		lsls	r3, r3, #5
 572 01b8 1344     		add	r3, r3, r2
 573 01ba 0022     		movs	r2, #0
 574 01bc 1A60     		str	r2, [r3]
 575              		.loc 7 157 0 discriminator 2
 576 01be 029A     		ldr	r2, [sp, #8]
 577 01c0 039B     		ldr	r3, [sp, #12]
 578 01c2 5B01     		lsls	r3, r3, #5
 579 01c4 1344     		add	r3, r3, r2
 580 01c6 03F51163 		add	r3, r3, #2320
 581 01ca 0022     		movs	r2, #0
 582 01cc 1A60     		str	r2, [r3]
 583              		.loc 7 158 0 discriminator 2
 584 01ce 029A     		ldr	r2, [sp, #8]
 585 01d0 039B     		ldr	r3, [sp, #12]
 586 01d2 5B01     		lsls	r3, r3, #5
 587 01d4 1344     		add	r3, r3, r2
 588 01d6 03F60813 		addw	r3, r3, #2312
 589 01da 4FF0FF32 		mov	r2, #-1
 590 01de 1A60     		str	r2, [r3]
 591              		.loc 7 160 0 discriminator 2
 592 01e0 029A     		ldr	r2, [sp, #8]
 593 01e2 039B     		ldr	r3, [sp, #12]
 594 01e4 5833     		adds	r3, r3, #88
 595 01e6 5B01     		lsls	r3, r3, #5
 596 01e8 1344     		add	r3, r3, r2
 597 01ea 0022     		movs	r2, #0
 598 01ec 1A60     		str	r2, [r3]
 599              		.loc 7 161 0 discriminator 2
 600 01ee 029A     		ldr	r2, [sp, #8]
 601 01f0 039B     		ldr	r3, [sp, #12]
 602 01f2 5B01     		lsls	r3, r3, #5
 603 01f4 1344     		add	r3, r3, r2
 604 01f6 03F53163 		add	r3, r3, #2832
 605 01fa 0022     		movs	r2, #0
 606 01fc 1A60     		str	r2, [r3]
ARM GAS  /tmp/ccD2hNvo.s 			page 12


 607              		.loc 7 162 0 discriminator 2
 608 01fe 029A     		ldr	r2, [sp, #8]
 609 0200 039B     		ldr	r3, [sp, #12]
 610 0202 5B01     		lsls	r3, r3, #5
 611 0204 1344     		add	r3, r3, r2
 612 0206 03F60833 		addw	r3, r3, #2824
 613 020a 4FF0FF32 		mov	r2, #-1
 614 020e 1A60     		str	r2, [r3]
 615              		.loc 7 155 0 discriminator 2
 616 0210 039B     		ldr	r3, [sp, #12]
 617 0212 0133     		adds	r3, r3, #1
 618 0214 0393     		str	r3, [sp, #12]
 619              	.L26:
 620              		.loc 7 155 0 is_stmt 0 discriminator 1
 621 0216 019B     		ldr	r3, [sp, #4]
 622 0218 1B6F     		ldr	r3, [r3, #112]
 623 021a 9A68     		ldr	r2, [r3, #8]
 624 021c 039B     		ldr	r3, [sp, #12]
 625 021e 9A42     		cmp	r2, r3
 626 0220 C6D2     		bcs	.L27
 627              		.loc 7 164 0 is_stmt 1
 628 0222 029B     		ldr	r3, [sp, #8]
 629 0224 4FF00112 		mov	r2, #65537
 630 0228 C3F81C28 		str	r2, [r3, #2076]
 631              		.loc 7 165 0
 632 022c 04B0     		add	sp, sp, #16
 633              		@ sp needed
 634 022e 7047     		bx	lr
 635              		.cfi_endproc
 636              	.LFE268:
 637              		.size	otg_disable_ep, .-otg_disable_ep
 638              		.align	2
 639              		.p2align 4,,15
 640              		.thumb
 641              		.thumb_func
 642              		.type	otg_rxfifo_flush, %function
 643              	otg_rxfifo_flush:
 644              	.LFB269:
 645              		.loc 7 167 0
 646              		.cfi_startproc
 647              		@ args = 0, pretend = 0, frame = 16
 648              		@ frame_needed = 0, uses_anonymous_args = 0
 649 0230 00B5     		push	{lr}
 650              		.cfi_def_cfa_offset 4
 651              		.cfi_offset 14, -4
 652 0232 85B0     		sub	sp, sp, #20
 653              		.cfi_def_cfa_offset 24
 654 0234 0190     		str	r0, [sp, #4]
 655              		.loc 7 168 0
 656 0236 019B     		ldr	r3, [sp, #4]
 657 0238 DB6E     		ldr	r3, [r3, #108]
 658 023a 0393     		str	r3, [sp, #12]
 659              		.loc 7 170 0
 660 023c 039B     		ldr	r3, [sp, #12]
 661 023e 1022     		movs	r2, #16
 662 0240 1A61     		str	r2, [r3, #16]
 663              		.loc 7 171 0
ARM GAS  /tmp/ccD2hNvo.s 			page 13


 664 0242 00BF     		nop
 665              	.L29:
 666              		.loc 7 171 0 is_stmt 0 discriminator 1
 667 0244 039B     		ldr	r3, [sp, #12]
 668 0246 1B69     		ldr	r3, [r3, #16]
 669 0248 03F01003 		and	r3, r3, #16
 670 024c 002B     		cmp	r3, #0
 671 024e F9D1     		bne	.L29
 672              		.loc 7 174 0 is_stmt 1
 673 0250 1220     		movs	r0, #18
 674 0252 FFF755FF 		bl	osalSysPolledDelayX
 675              		.loc 7 175 0
 676 0256 05B0     		add	sp, sp, #20
 677              		@ sp needed
 678 0258 5DF804FB 		ldr	pc, [sp], #4
 679              		.cfi_endproc
 680              	.LFE269:
 681              		.size	otg_rxfifo_flush, .-otg_rxfifo_flush
 682              		.align	2
 683 025c AFF30080 		.p2align 4,,15
 684              		.thumb
 685              		.thumb_func
 686              		.type	otg_txfifo_flush, %function
 687              	otg_txfifo_flush:
 688              	.LFB270:
 689              		.loc 7 177 0
 690              		.cfi_startproc
 691              		@ args = 0, pretend = 0, frame = 16
 692              		@ frame_needed = 0, uses_anonymous_args = 0
 693 0260 00B5     		push	{lr}
 694              		.cfi_def_cfa_offset 4
 695              		.cfi_offset 14, -4
 696 0262 85B0     		sub	sp, sp, #20
 697              		.cfi_def_cfa_offset 24
 698 0264 0190     		str	r0, [sp, #4]
 699 0266 0091     		str	r1, [sp]
 700              		.loc 7 178 0
 701 0268 019B     		ldr	r3, [sp, #4]
 702 026a DB6E     		ldr	r3, [r3, #108]
 703 026c 0393     		str	r3, [sp, #12]
 704              		.loc 7 180 0
 705 026e 009B     		ldr	r3, [sp]
 706 0270 9B01     		lsls	r3, r3, #6
 707 0272 43F02002 		orr	r2, r3, #32
 708 0276 039B     		ldr	r3, [sp, #12]
 709 0278 1A61     		str	r2, [r3, #16]
 710              		.loc 7 181 0
 711 027a 00BF     		nop
 712              	.L31:
 713              		.loc 7 181 0 is_stmt 0 discriminator 1
 714 027c 039B     		ldr	r3, [sp, #12]
 715 027e 1B69     		ldr	r3, [r3, #16]
 716 0280 03F02003 		and	r3, r3, #32
 717 0284 002B     		cmp	r3, #0
 718 0286 F9D1     		bne	.L31
 719              		.loc 7 184 0 is_stmt 1
 720 0288 1220     		movs	r0, #18
ARM GAS  /tmp/ccD2hNvo.s 			page 14


 721 028a FFF739FF 		bl	osalSysPolledDelayX
 722              		.loc 7 185 0
 723 028e 05B0     		add	sp, sp, #20
 724              		@ sp needed
 725 0290 5DF804FB 		ldr	pc, [sp], #4
 726              		.cfi_endproc
 727              	.LFE270:
 728              		.size	otg_txfifo_flush, .-otg_txfifo_flush
 729              		.align	2
 730 0294 AFF30080 		.p2align 4,,15
 730      AFF30080 
 730      AFF30080 
 731              		.thumb
 732              		.thumb_func
 733              		.type	otg_ram_reset, %function
 734              	otg_ram_reset:
 735              	.LFB271:
 736              		.loc 7 194 0
 737              		.cfi_startproc
 738              		@ args = 0, pretend = 0, frame = 8
 739              		@ frame_needed = 0, uses_anonymous_args = 0
 740              		@ link register save eliminated.
 741 02a0 82B0     		sub	sp, sp, #8
 742              		.cfi_def_cfa_offset 8
 743 02a2 0190     		str	r0, [sp, #4]
 744              		.loc 7 196 0
 745 02a4 019B     		ldr	r3, [sp, #4]
 746 02a6 1B6F     		ldr	r3, [r3, #112]
 747 02a8 1A68     		ldr	r2, [r3]
 748 02aa 019B     		ldr	r3, [sp, #4]
 749 02ac 5A67     		str	r2, [r3, #116]
 750              		.loc 7 197 0
 751 02ae 02B0     		add	sp, sp, #8
 752              		@ sp needed
 753 02b0 7047     		bx	lr
 754              		.cfi_endproc
 755              	.LFE271:
 756              		.size	otg_ram_reset, .-otg_ram_reset
 757 02b2 00BF     		.align	2
 758 02b4 AFF30080 		.p2align 4,,15
 758      AFF30080 
 758      AFF30080 
 759              		.thumb
 760              		.thumb_func
 761              		.type	otg_ram_alloc, %function
 762              	otg_ram_alloc:
 763              	.LFB272:
 764              		.loc 7 207 0
 765              		.cfi_startproc
 766              		@ args = 0, pretend = 0, frame = 16
 767              		@ frame_needed = 0, uses_anonymous_args = 0
 768              		@ link register save eliminated.
 769 02c0 84B0     		sub	sp, sp, #16
 770              		.cfi_def_cfa_offset 16
 771 02c2 0190     		str	r0, [sp, #4]
 772 02c4 0091     		str	r1, [sp]
 773              		.loc 7 210 0
ARM GAS  /tmp/ccD2hNvo.s 			page 15


 774 02c6 019B     		ldr	r3, [sp, #4]
 775 02c8 5B6F     		ldr	r3, [r3, #116]
 776 02ca 0393     		str	r3, [sp, #12]
 777              		.loc 7 211 0
 778 02cc 019B     		ldr	r3, [sp, #4]
 779 02ce 5A6F     		ldr	r2, [r3, #116]
 780 02d0 009B     		ldr	r3, [sp]
 781 02d2 1A44     		add	r2, r2, r3
 782 02d4 019B     		ldr	r3, [sp, #4]
 783 02d6 5A67     		str	r2, [r3, #116]
 784              		.loc 7 214 0
 785 02d8 039B     		ldr	r3, [sp, #12]
 786              		.loc 7 215 0
 787 02da 1846     		mov	r0, r3
 788 02dc 04B0     		add	sp, sp, #16
 789              		@ sp needed
 790 02de 7047     		bx	lr
 791              		.cfi_endproc
 792              	.LFE272:
 793              		.size	otg_ram_alloc, .-otg_ram_alloc
 794              		.align	2
 795              		.p2align 4,,15
 796              		.thumb
 797              		.thumb_func
 798              		.type	otg_fifo_write_from_buffer, %function
 799              	otg_fifo_write_from_buffer:
 800              	.LFB273:
 801              		.loc 7 228 0
 802              		.cfi_startproc
 803              		@ args = 0, pretend = 0, frame = 16
 804              		@ frame_needed = 0, uses_anonymous_args = 0
 805              		@ link register save eliminated.
 806 02e0 84B0     		sub	sp, sp, #16
 807              		.cfi_def_cfa_offset 16
 808 02e2 0390     		str	r0, [sp, #12]
 809 02e4 0291     		str	r1, [sp, #8]
 810 02e6 0192     		str	r2, [sp, #4]
 811              	.L38:
 812              		.loc 7 233 0
 813 02e8 029B     		ldr	r3, [sp, #8]
 814 02ea 1A68     		ldr	r2, [r3]
 815 02ec 039B     		ldr	r3, [sp, #12]
 816 02ee 1A60     		str	r2, [r3]
 817              		.loc 7 234 0
 818 02f0 019B     		ldr	r3, [sp, #4]
 819 02f2 042B     		cmp	r3, #4
 820 02f4 00D8     		bhi	.L36
 821              		.loc 7 235 0
 822 02f6 06E0     		b	.L39
 823              	.L36:
 824              		.loc 7 237 0
 825 02f8 019B     		ldr	r3, [sp, #4]
 826 02fa 043B     		subs	r3, r3, #4
 827 02fc 0193     		str	r3, [sp, #4]
 828              		.loc 7 238 0
 829 02fe 029B     		ldr	r3, [sp, #8]
 830 0300 0433     		adds	r3, r3, #4
ARM GAS  /tmp/ccD2hNvo.s 			page 16


 831 0302 0293     		str	r3, [sp, #8]
 832              		.loc 7 239 0
 833 0304 F0E7     		b	.L38
 834              	.L39:
 835              		.loc 7 240 0
 836 0306 04B0     		add	sp, sp, #16
 837              		@ sp needed
 838 0308 7047     		bx	lr
 839              		.cfi_endproc
 840              	.LFE273:
 841              		.size	otg_fifo_write_from_buffer, .-otg_fifo_write_from_buffer
 842 030a 00BF     		.align	2
 843 030c AFF30080 		.p2align 4,,15
 844              		.thumb
 845              		.thumb_func
 846              		.type	otg_fifo_read_to_buffer, %function
 847              	otg_fifo_read_to_buffer:
 848              	.LFB274:
 849              		.loc 7 255 0
 850              		.cfi_startproc
 851              		@ args = 0, pretend = 0, frame = 24
 852              		@ frame_needed = 0, uses_anonymous_args = 0
 853              		@ link register save eliminated.
 854 0310 86B0     		sub	sp, sp, #24
 855              		.cfi_def_cfa_offset 24
 856 0312 0390     		str	r0, [sp, #12]
 857 0314 0291     		str	r1, [sp, #8]
 858 0316 0192     		str	r2, [sp, #4]
 859 0318 0093     		str	r3, [sp]
 860              		.loc 7 256 0
 861 031a 0023     		movs	r3, #0
 862 031c 0593     		str	r3, [sp, #20]
 863              		.loc 7 257 0
 864 031e 0023     		movs	r3, #0
 865 0320 0493     		str	r3, [sp, #16]
 866              		.loc 7 259 0
 867 0322 17E0     		b	.L41
 868              	.L44:
 869              		.loc 7 260 0
 870 0324 049B     		ldr	r3, [sp, #16]
 871 0326 03F00303 		and	r3, r3, #3
 872 032a 002B     		cmp	r3, #0
 873 032c 02D1     		bne	.L42
 874              		.loc 7 261 0
 875 032e 039B     		ldr	r3, [sp, #12]
 876 0330 1B68     		ldr	r3, [r3]
 877 0332 0593     		str	r3, [sp, #20]
 878              	.L42:
 879              		.loc 7 263 0
 880 0334 049A     		ldr	r2, [sp, #16]
 881 0336 009B     		ldr	r3, [sp]
 882 0338 9A42     		cmp	r2, r3
 883 033a 08D2     		bcs	.L43
 884              		.loc 7 264 0
 885 033c 029B     		ldr	r3, [sp, #8]
 886 033e 5A1C     		adds	r2, r3, #1
 887 0340 0292     		str	r2, [sp, #8]
ARM GAS  /tmp/ccD2hNvo.s 			page 17


 888 0342 059A     		ldr	r2, [sp, #20]
 889 0344 D2B2     		uxtb	r2, r2
 890 0346 1A70     		strb	r2, [r3]
 891              		.loc 7 265 0
 892 0348 059B     		ldr	r3, [sp, #20]
 893 034a 1B0A     		lsrs	r3, r3, #8
 894 034c 0593     		str	r3, [sp, #20]
 895              	.L43:
 896              		.loc 7 267 0
 897 034e 049B     		ldr	r3, [sp, #16]
 898 0350 0133     		adds	r3, r3, #1
 899 0352 0493     		str	r3, [sp, #16]
 900              	.L41:
 901              		.loc 7 259 0 discriminator 1
 902 0354 049A     		ldr	r2, [sp, #16]
 903 0356 019B     		ldr	r3, [sp, #4]
 904 0358 9A42     		cmp	r2, r3
 905 035a E3D3     		bcc	.L44
 906              		.loc 7 269 0
 907 035c 06B0     		add	sp, sp, #24
 908              		@ sp needed
 909 035e 7047     		bx	lr
 910              		.cfi_endproc
 911              	.LFE274:
 912              		.size	otg_fifo_read_to_buffer, .-otg_fifo_read_to_buffer
 913              		.align	2
 914              		.p2align 4,,15
 915              		.thumb
 916              		.thumb_func
 917              		.type	otg_rxfifo_handler, %function
 918              	otg_rxfifo_handler:
 919              	.LFB275:
 920              		.loc 7 278 0
 921              		.cfi_startproc
 922              		@ args = 0, pretend = 0, frame = 24
 923              		@ frame_needed = 0, uses_anonymous_args = 0
 924 0360 10B5     		push	{r4, lr}
 925              		.cfi_def_cfa_offset 8
 926              		.cfi_offset 4, -8
 927              		.cfi_offset 14, -4
 928 0362 86B0     		sub	sp, sp, #24
 929              		.cfi_def_cfa_offset 32
 930 0364 0190     		str	r0, [sp, #4]
 931              		.loc 7 281 0
 932 0366 019B     		ldr	r3, [sp, #4]
 933 0368 DB6E     		ldr	r3, [r3, #108]
 934 036a 1B6A     		ldr	r3, [r3, #32]
 935 036c 0593     		str	r3, [sp, #20]
 936              		.loc 7 282 0
 937 036e 059B     		ldr	r3, [sp, #20]
 938 0370 03F4F013 		and	r3, r3, #1966080
 939 0374 B3F5002F 		cmp	r3, #524288
 940 0378 74D0     		beq	.L50
 941 037a B3F5402F 		cmp	r3, #786432
 942 037e 03D0     		beq	.L48
 943 0380 B3F5802F 		cmp	r3, #262144
 944 0384 1CD0     		beq	.L49
ARM GAS  /tmp/ccD2hNvo.s 			page 18


 945 0386 6EE0     		b	.L45
 946              	.L48:
 947              		.loc 7 286 0
 948 0388 059A     		ldr	r2, [sp, #20]
 949 038a 47F6F073 		movw	r3, #32752
 950 038e 1340     		ands	r3, r3, r2
 951 0390 1B09     		lsrs	r3, r3, #4
 952 0392 0493     		str	r3, [sp, #16]
 953              		.loc 7 287 0
 954 0394 059B     		ldr	r3, [sp, #20]
 955 0396 03F00F03 		and	r3, r3, #15
 956 039a 0393     		str	r3, [sp, #12]
 957              		.loc 7 288 0
 958 039c 019B     		ldr	r3, [sp, #4]
 959 039e DB6E     		ldr	r3, [r3, #108]
 960 03a0 03F58052 		add	r2, r3, #4096
 961 03a4 0199     		ldr	r1, [sp, #4]
 962 03a6 039B     		ldr	r3, [sp, #12]
 963 03a8 0233     		adds	r3, r3, #2
 964 03aa 9B00     		lsls	r3, r3, #2
 965 03ac 0B44     		add	r3, r3, r1
 966 03ae 5B68     		ldr	r3, [r3, #4]
 967 03b0 1B6A     		ldr	r3, [r3, #32]
 968 03b2 1046     		mov	r0, r2
 969 03b4 1946     		mov	r1, r3
 970 03b6 049A     		ldr	r2, [sp, #16]
 971 03b8 0823     		movs	r3, #8
 972 03ba FFF7A9FF 		bl	otg_fifo_read_to_buffer
 973              		.loc 7 290 0
 974 03be 52E0     		b	.L45
 975              	.L49:
 976              		.loc 7 292 0
 977 03c0 059A     		ldr	r2, [sp, #20]
 978 03c2 47F6F073 		movw	r3, #32752
 979 03c6 1340     		ands	r3, r3, r2
 980 03c8 1B09     		lsrs	r3, r3, #4
 981 03ca 0493     		str	r3, [sp, #16]
 982              		.loc 7 293 0
 983 03cc 059B     		ldr	r3, [sp, #20]
 984 03ce 03F00F03 		and	r3, r3, #15
 985 03d2 0393     		str	r3, [sp, #12]
 986              		.loc 7 294 0
 987 03d4 019B     		ldr	r3, [sp, #4]
 988 03d6 DB6E     		ldr	r3, [r3, #108]
 989 03d8 03F58051 		add	r1, r3, #4096
 990              		.loc 7 295 0
 991 03dc 019A     		ldr	r2, [sp, #4]
 992 03de 039B     		ldr	r3, [sp, #12]
 993 03e0 0233     		adds	r3, r3, #2
 994 03e2 9B00     		lsls	r3, r3, #2
 995 03e4 1344     		add	r3, r3, r2
 996 03e6 5B68     		ldr	r3, [r3, #4]
 997 03e8 9B69     		ldr	r3, [r3, #24]
 998              		.loc 7 294 0
 999 03ea 9A68     		ldr	r2, [r3, #8]
 1000              		.loc 7 297 0
 1001 03ec 0198     		ldr	r0, [sp, #4]
ARM GAS  /tmp/ccD2hNvo.s 			page 19


 1002 03ee 039B     		ldr	r3, [sp, #12]
 1003 03f0 0233     		adds	r3, r3, #2
 1004 03f2 9B00     		lsls	r3, r3, #2
 1005 03f4 0344     		add	r3, r3, r0
 1006 03f6 5B68     		ldr	r3, [r3, #4]
 1007 03f8 9B69     		ldr	r3, [r3, #24]
 1008 03fa 1868     		ldr	r0, [r3]
 1009              		.loc 7 298 0
 1010 03fc 019C     		ldr	r4, [sp, #4]
 1011 03fe 039B     		ldr	r3, [sp, #12]
 1012 0400 0233     		adds	r3, r3, #2
 1013 0402 9B00     		lsls	r3, r3, #2
 1014 0404 2344     		add	r3, r3, r4
 1015 0406 5B68     		ldr	r3, [r3, #4]
 1016 0408 9B69     		ldr	r3, [r3, #24]
 1017 040a 5B68     		ldr	r3, [r3, #4]
 1018              		.loc 7 294 0
 1019 040c C31A     		subs	r3, r0, r3
 1020 040e 0846     		mov	r0, r1
 1021 0410 1146     		mov	r1, r2
 1022 0412 049A     		ldr	r2, [sp, #16]
 1023 0414 FFF77CFF 		bl	otg_fifo_read_to_buffer
 1024              		.loc 7 299 0
 1025 0418 019A     		ldr	r2, [sp, #4]
 1026 041a 039B     		ldr	r3, [sp, #12]
 1027 041c 0233     		adds	r3, r3, #2
 1028 041e 9B00     		lsls	r3, r3, #2
 1029 0420 1344     		add	r3, r3, r2
 1030 0422 5B68     		ldr	r3, [r3, #4]
 1031 0424 9A69     		ldr	r2, [r3, #24]
 1032 0426 0199     		ldr	r1, [sp, #4]
 1033 0428 039B     		ldr	r3, [sp, #12]
 1034 042a 0233     		adds	r3, r3, #2
 1035 042c 9B00     		lsls	r3, r3, #2
 1036 042e 0B44     		add	r3, r3, r1
 1037 0430 5B68     		ldr	r3, [r3, #4]
 1038 0432 9B69     		ldr	r3, [r3, #24]
 1039 0434 9968     		ldr	r1, [r3, #8]
 1040 0436 049B     		ldr	r3, [sp, #16]
 1041 0438 0B44     		add	r3, r3, r1
 1042 043a 9360     		str	r3, [r2, #8]
 1043              		.loc 7 300 0
 1044 043c 019A     		ldr	r2, [sp, #4]
 1045 043e 039B     		ldr	r3, [sp, #12]
 1046 0440 0233     		adds	r3, r3, #2
 1047 0442 9B00     		lsls	r3, r3, #2
 1048 0444 1344     		add	r3, r3, r2
 1049 0446 5B68     		ldr	r3, [r3, #4]
 1050 0448 9A69     		ldr	r2, [r3, #24]
 1051 044a 0199     		ldr	r1, [sp, #4]
 1052 044c 039B     		ldr	r3, [sp, #12]
 1053 044e 0233     		adds	r3, r3, #2
 1054 0450 9B00     		lsls	r3, r3, #2
 1055 0452 0B44     		add	r3, r3, r1
 1056 0454 5B68     		ldr	r3, [r3, #4]
 1057 0456 9B69     		ldr	r3, [r3, #24]
 1058 0458 5968     		ldr	r1, [r3, #4]
ARM GAS  /tmp/ccD2hNvo.s 			page 20


 1059 045a 049B     		ldr	r3, [sp, #16]
 1060 045c 0B44     		add	r3, r3, r1
 1061 045e 5360     		str	r3, [r2, #4]
 1062              		.loc 7 301 0
 1063 0460 00BF     		nop
 1064 0462 00E0     		b	.L45
 1065              	.L50:
 1066              		.loc 7 284 0
 1067 0464 00BF     		nop
 1068              	.L45:
 1069              		.loc 7 307 0
 1070 0466 06B0     		add	sp, sp, #24
 1071              		@ sp needed
 1072 0468 10BD     		pop	{r4, pc}
 1073              		.cfi_endproc
 1074              	.LFE275:
 1075              		.size	otg_rxfifo_handler, .-otg_rxfifo_handler
 1076 046a 00BF     		.align	2
 1077 046c AFF30080 		.p2align 4,,15
 1078              		.thumb
 1079              		.thumb_func
 1080              		.type	otg_txfifo_handler, %function
 1081              	otg_txfifo_handler:
 1082              	.LFB276:
 1083              		.loc 7 317 0
 1084              		.cfi_startproc
 1085              		@ args = 0, pretend = 0, frame = 16
 1086              		@ frame_needed = 0, uses_anonymous_args = 0
 1087 0470 00B5     		push	{lr}
 1088              		.cfi_def_cfa_offset 4
 1089              		.cfi_offset 14, -4
 1090 0472 85B0     		sub	sp, sp, #20
 1091              		.cfi_def_cfa_offset 24
 1092 0474 0190     		str	r0, [sp, #4]
 1093 0476 0B46     		mov	r3, r1
 1094 0478 8DF80330 		strb	r3, [sp, #3]
 1095              	.L56:
 1096              	.LBB10:
 1097              		.loc 7 324 0
 1098 047c 9DF80330 		ldrb	r3, [sp, #3]	@ zero_extendqisi2
 1099 0480 019A     		ldr	r2, [sp, #4]
 1100 0482 0233     		adds	r3, r3, #2
 1101 0484 9B00     		lsls	r3, r3, #2
 1102 0486 1344     		add	r3, r3, r2
 1103 0488 5B68     		ldr	r3, [r3, #4]
 1104 048a 5B69     		ldr	r3, [r3, #20]
 1105 048c 5A68     		ldr	r2, [r3, #4]
 1106 048e 9DF80330 		ldrb	r3, [sp, #3]	@ zero_extendqisi2
 1107 0492 0199     		ldr	r1, [sp, #4]
 1108 0494 0233     		adds	r3, r3, #2
 1109 0496 9B00     		lsls	r3, r3, #2
 1110 0498 0B44     		add	r3, r3, r1
 1111 049a 5B68     		ldr	r3, [r3, #4]
 1112 049c 5B69     		ldr	r3, [r3, #20]
 1113 049e 1B68     		ldr	r3, [r3]
 1114 04a0 9A42     		cmp	r2, r3
 1115 04a2 01D3     		bcc	.L52
ARM GAS  /tmp/ccD2hNvo.s 			page 21


 1116              		.loc 7 325 0
 1117 04a4 0123     		movs	r3, #1
 1118 04a6 76E0     		b	.L53
 1119              	.L52:
 1120              		.loc 7 328 0
 1121 04a8 9DF80330 		ldrb	r3, [sp, #3]	@ zero_extendqisi2
 1122 04ac 019A     		ldr	r2, [sp, #4]
 1123 04ae 0233     		adds	r3, r3, #2
 1124 04b0 9B00     		lsls	r3, r3, #2
 1125 04b2 1344     		add	r3, r3, r2
 1126 04b4 5B68     		ldr	r3, [r3, #4]
 1127 04b6 5B69     		ldr	r3, [r3, #20]
 1128 04b8 1A68     		ldr	r2, [r3]
 1129 04ba 9DF80330 		ldrb	r3, [sp, #3]	@ zero_extendqisi2
 1130 04be 0199     		ldr	r1, [sp, #4]
 1131 04c0 0233     		adds	r3, r3, #2
 1132 04c2 9B00     		lsls	r3, r3, #2
 1133 04c4 0B44     		add	r3, r3, r1
 1134 04c6 5B68     		ldr	r3, [r3, #4]
 1135 04c8 5B69     		ldr	r3, [r3, #20]
 1136 04ca 5B68     		ldr	r3, [r3, #4]
 1137 04cc D31A     		subs	r3, r2, r3
 1138 04ce 0393     		str	r3, [sp, #12]
 1139              		.loc 7 329 0
 1140 04d0 9DF80330 		ldrb	r3, [sp, #3]	@ zero_extendqisi2
 1141 04d4 019A     		ldr	r2, [sp, #4]
 1142 04d6 0233     		adds	r3, r3, #2
 1143 04d8 9B00     		lsls	r3, r3, #2
 1144 04da 1344     		add	r3, r3, r2
 1145 04dc 5B68     		ldr	r3, [r3, #4]
 1146 04de 1B8A     		ldrh	r3, [r3, #16]
 1147 04e0 1A46     		mov	r2, r3
 1148 04e2 039B     		ldr	r3, [sp, #12]
 1149 04e4 9A42     		cmp	r2, r3
 1150 04e6 08D2     		bcs	.L54
 1151              		.loc 7 330 0
 1152 04e8 9DF80330 		ldrb	r3, [sp, #3]	@ zero_extendqisi2
 1153 04ec 019A     		ldr	r2, [sp, #4]
 1154 04ee 0233     		adds	r3, r3, #2
 1155 04f0 9B00     		lsls	r3, r3, #2
 1156 04f2 1344     		add	r3, r3, r2
 1157 04f4 5B68     		ldr	r3, [r3, #4]
 1158 04f6 1B8A     		ldrh	r3, [r3, #16]
 1159 04f8 0393     		str	r3, [sp, #12]
 1160              	.L54:
 1161              		.loc 7 334 0
 1162 04fa 019B     		ldr	r3, [sp, #4]
 1163 04fc DA6E     		ldr	r2, [r3, #108]
 1164 04fe 9DF80330 		ldrb	r3, [sp, #3]	@ zero_extendqisi2
 1165 0502 5B01     		lsls	r3, r3, #5
 1166 0504 1344     		add	r3, r3, r2
 1167 0506 03F61813 		addw	r3, r3, #2328
 1168 050a 1B68     		ldr	r3, [r3]
 1169 050c 9BB2     		uxth	r3, r3
 1170 050e 9A00     		lsls	r2, r3, #2
 1171 0510 039B     		ldr	r3, [sp, #12]
 1172 0512 9A42     		cmp	r2, r3
ARM GAS  /tmp/ccD2hNvo.s 			page 22


 1173 0514 01D2     		bcs	.L55
 1174              		.loc 7 335 0
 1175 0516 0023     		movs	r3, #0
 1176 0518 3DE0     		b	.L53
 1177              	.L55:
 1178              		.loc 7 340 0
 1179 051a 019B     		ldr	r3, [sp, #4]
 1180 051c DA6E     		ldr	r2, [r3, #108]
 1181 051e 9DF80330 		ldrb	r3, [sp, #3]	@ zero_extendqisi2
 1182 0522 0133     		adds	r3, r3, #1
 1183 0524 1B03     		lsls	r3, r3, #12
 1184 0526 1A44     		add	r2, r2, r3
 1185              		.loc 7 341 0
 1186 0528 9DF80330 		ldrb	r3, [sp, #3]	@ zero_extendqisi2
 1187 052c 0199     		ldr	r1, [sp, #4]
 1188 052e 0233     		adds	r3, r3, #2
 1189 0530 9B00     		lsls	r3, r3, #2
 1190 0532 0B44     		add	r3, r3, r1
 1191 0534 5B68     		ldr	r3, [r3, #4]
 1192 0536 5B69     		ldr	r3, [r3, #20]
 1193              		.loc 7 340 0
 1194 0538 9B68     		ldr	r3, [r3, #8]
 1195 053a 1046     		mov	r0, r2
 1196 053c 1946     		mov	r1, r3
 1197 053e 039A     		ldr	r2, [sp, #12]
 1198 0540 FFF7CEFE 		bl	otg_fifo_write_from_buffer
 1199              		.loc 7 343 0
 1200 0544 9DF80330 		ldrb	r3, [sp, #3]	@ zero_extendqisi2
 1201 0548 019A     		ldr	r2, [sp, #4]
 1202 054a 0233     		adds	r3, r3, #2
 1203 054c 9B00     		lsls	r3, r3, #2
 1204 054e 1344     		add	r3, r3, r2
 1205 0550 5B68     		ldr	r3, [r3, #4]
 1206 0552 5A69     		ldr	r2, [r3, #20]
 1207 0554 9DF80330 		ldrb	r3, [sp, #3]	@ zero_extendqisi2
 1208 0558 0199     		ldr	r1, [sp, #4]
 1209 055a 0233     		adds	r3, r3, #2
 1210 055c 9B00     		lsls	r3, r3, #2
 1211 055e 0B44     		add	r3, r3, r1
 1212 0560 5B68     		ldr	r3, [r3, #4]
 1213 0562 5B69     		ldr	r3, [r3, #20]
 1214 0564 9968     		ldr	r1, [r3, #8]
 1215 0566 039B     		ldr	r3, [sp, #12]
 1216 0568 0B44     		add	r3, r3, r1
 1217 056a 9360     		str	r3, [r2, #8]
 1218              		.loc 7 347 0
 1219 056c 9DF80330 		ldrb	r3, [sp, #3]	@ zero_extendqisi2
 1220 0570 019A     		ldr	r2, [sp, #4]
 1221 0572 0233     		adds	r3, r3, #2
 1222 0574 9B00     		lsls	r3, r3, #2
 1223 0576 1344     		add	r3, r3, r2
 1224 0578 5B68     		ldr	r3, [r3, #4]
 1225 057a 5A69     		ldr	r2, [r3, #20]
 1226 057c 9DF80330 		ldrb	r3, [sp, #3]	@ zero_extendqisi2
 1227 0580 0199     		ldr	r1, [sp, #4]
 1228 0582 0233     		adds	r3, r3, #2
 1229 0584 9B00     		lsls	r3, r3, #2
ARM GAS  /tmp/ccD2hNvo.s 			page 23


 1230 0586 0B44     		add	r3, r3, r1
 1231 0588 5B68     		ldr	r3, [r3, #4]
 1232 058a 5B69     		ldr	r3, [r3, #20]
 1233 058c 5968     		ldr	r1, [r3, #4]
 1234 058e 039B     		ldr	r3, [sp, #12]
 1235 0590 0B44     		add	r3, r3, r1
 1236 0592 5360     		str	r3, [r2, #4]
 1237              	.LBE10:
 1238              		.loc 7 348 0
 1239 0594 72E7     		b	.L56
 1240              	.L53:
 1241              		.loc 7 349 0
 1242 0596 1846     		mov	r0, r3
 1243 0598 05B0     		add	sp, sp, #20
 1244              		@ sp needed
 1245 059a 5DF804FB 		ldr	pc, [sp], #4
 1246              		.cfi_endproc
 1247              	.LFE276:
 1248              		.size	otg_txfifo_handler, .-otg_txfifo_handler
 1249 059e 00BF     		.align	2
 1250              		.p2align 4,,15
 1251              		.thumb
 1252              		.thumb_func
 1253              		.type	otg_epin_handler, %function
 1254              	otg_epin_handler:
 1255              	.LFB277:
 1256              		.loc 7 359 0
 1257              		.cfi_startproc
 1258              		@ args = 0, pretend = 0, frame = 24
 1259              		@ frame_needed = 0, uses_anonymous_args = 0
 1260 05a0 00B5     		push	{lr}
 1261              		.cfi_def_cfa_offset 4
 1262              		.cfi_offset 14, -4
 1263 05a2 87B0     		sub	sp, sp, #28
 1264              		.cfi_def_cfa_offset 32
 1265 05a4 0190     		str	r0, [sp, #4]
 1266 05a6 0B46     		mov	r3, r1
 1267 05a8 8DF80330 		strb	r3, [sp, #3]
 1268              		.loc 7 360 0
 1269 05ac 019B     		ldr	r3, [sp, #4]
 1270 05ae DB6E     		ldr	r3, [r3, #108]
 1271 05b0 0593     		str	r3, [sp, #20]
 1272              		.loc 7 361 0
 1273 05b2 9DF80330 		ldrb	r3, [sp, #3]	@ zero_extendqisi2
 1274 05b6 059A     		ldr	r2, [sp, #20]
 1275 05b8 5B01     		lsls	r3, r3, #5
 1276 05ba 1344     		add	r3, r3, r2
 1277 05bc 03F60813 		addw	r3, r3, #2312
 1278 05c0 1B68     		ldr	r3, [r3]
 1279 05c2 0493     		str	r3, [sp, #16]
 1280              		.loc 7 363 0
 1281 05c4 9DF80330 		ldrb	r3, [sp, #3]	@ zero_extendqisi2
 1282 05c8 059A     		ldr	r2, [sp, #20]
 1283 05ca 5B01     		lsls	r3, r3, #5
 1284 05cc 1344     		add	r3, r3, r2
 1285 05ce 03F60813 		addw	r3, r3, #2312
 1286 05d2 049A     		ldr	r2, [sp, #16]
ARM GAS  /tmp/ccD2hNvo.s 			page 24


 1287 05d4 1A60     		str	r2, [r3]
 1288              		.loc 7 368 0
 1289 05d6 049B     		ldr	r3, [sp, #16]
 1290 05d8 03F00103 		and	r3, r3, #1
 1291 05dc 002B     		cmp	r3, #0
 1292 05de 51D0     		beq	.L58
 1293              		.loc 7 368 0 is_stmt 0 discriminator 1
 1294 05e0 059B     		ldr	r3, [sp, #20]
 1295 05e2 D3F81038 		ldr	r3, [r3, #2064]
 1296 05e6 03F00103 		and	r3, r3, #1
 1297 05ea 002B     		cmp	r3, #0
 1298 05ec 4AD0     		beq	.L58
 1299              	.LBB11:
 1300              		.loc 7 370 0 is_stmt 1
 1301 05ee 9DF80330 		ldrb	r3, [sp, #3]	@ zero_extendqisi2
 1302 05f2 019A     		ldr	r2, [sp, #4]
 1303 05f4 0233     		adds	r3, r3, #2
 1304 05f6 9B00     		lsls	r3, r3, #2
 1305 05f8 1344     		add	r3, r3, r2
 1306 05fa 5B68     		ldr	r3, [r3, #4]
 1307 05fc 5B69     		ldr	r3, [r3, #20]
 1308 05fe 0393     		str	r3, [sp, #12]
 1309              		.loc 7 372 0
 1310 0600 039B     		ldr	r3, [sp, #12]
 1311 0602 1A68     		ldr	r2, [r3]
 1312 0604 039B     		ldr	r3, [sp, #12]
 1313 0606 DB68     		ldr	r3, [r3, #12]
 1314 0608 9A42     		cmp	r2, r3
 1315 060a 14D2     		bcs	.L59
 1316              		.loc 7 376 0
 1317 060c 039B     		ldr	r3, [sp, #12]
 1318 060e DA68     		ldr	r2, [r3, #12]
 1319 0610 039B     		ldr	r3, [sp, #12]
 1320 0612 1B68     		ldr	r3, [r3]
 1321 0614 D21A     		subs	r2, r2, r3
 1322 0616 039B     		ldr	r3, [sp, #12]
 1323 0618 1A60     		str	r2, [r3]
 1324              		.loc 7 377 0
 1325 061a 039B     		ldr	r3, [sp, #12]
 1326 061c 0022     		movs	r2, #0
 1327 061e 5A60     		str	r2, [r3, #4]
 1328              		.loc 7 378 0
 1329 0620 FFF75EFD 		bl	osalSysLockFromISR
 1330              		.loc 7 379 0
 1331 0624 9DF80330 		ldrb	r3, [sp, #3]	@ zero_extendqisi2
 1332 0628 0198     		ldr	r0, [sp, #4]
 1333 062a 1946     		mov	r1, r3
 1334 062c FFF7FEFF 		bl	usb_lld_start_in
 1335              		.loc 7 380 0
 1336 0630 FFF75EFD 		bl	osalSysUnlockFromISR
 1337 0634 26E0     		b	.L58
 1338              	.L59:
 1339              		.loc 7 384 0
 1340 0636 019B     		ldr	r3, [sp, #4]
 1341 0638 1B89     		ldrh	r3, [r3, #8]
 1342 063a 9AB2     		uxth	r2, r3
 1343 063c 9DF80330 		ldrb	r3, [sp, #3]	@ zero_extendqisi2
ARM GAS  /tmp/ccD2hNvo.s 			page 25


 1344 0640 0121     		movs	r1, #1
 1345 0642 01FA03F3 		lsl	r3, r1, r3
 1346 0646 9BB2     		uxth	r3, r3
 1347 0648 DB43     		mvns	r3, r3
 1348 064a 9BB2     		uxth	r3, r3
 1349 064c 1340     		ands	r3, r3, r2
 1350 064e 9BB2     		uxth	r3, r3
 1351 0650 9AB2     		uxth	r2, r3
 1352 0652 019B     		ldr	r3, [sp, #4]
 1353 0654 1A81     		strh	r2, [r3, #8]	@ movhi
 1354 0656 9DF80330 		ldrb	r3, [sp, #3]	@ zero_extendqisi2
 1355 065a 019A     		ldr	r2, [sp, #4]
 1356 065c 0233     		adds	r3, r3, #2
 1357 065e 9B00     		lsls	r3, r3, #2
 1358 0660 1344     		add	r3, r3, r2
 1359 0662 5B68     		ldr	r3, [r3, #4]
 1360 0664 9B68     		ldr	r3, [r3, #8]
 1361 0666 002B     		cmp	r3, #0
 1362 0668 0CD0     		beq	.L58
 1363              		.loc 7 384 0 is_stmt 0 discriminator 1
 1364 066a 9DF80330 		ldrb	r3, [sp, #3]	@ zero_extendqisi2
 1365 066e 019A     		ldr	r2, [sp, #4]
 1366 0670 0233     		adds	r3, r3, #2
 1367 0672 9B00     		lsls	r3, r3, #2
 1368 0674 1344     		add	r3, r3, r2
 1369 0676 5B68     		ldr	r3, [r3, #4]
 1370 0678 9B68     		ldr	r3, [r3, #8]
 1371 067a 9DF80320 		ldrb	r2, [sp, #3]	@ zero_extendqisi2
 1372 067e 0198     		ldr	r0, [sp, #4]
 1373 0680 1146     		mov	r1, r2
 1374 0682 9847     		blx	r3
 1375              	.L58:
 1376              	.LBE11:
 1377              		.loc 7 387 0 is_stmt 1
 1378 0684 049B     		ldr	r3, [sp, #16]
 1379 0686 03F08003 		and	r3, r3, #128
 1380 068a 002B     		cmp	r3, #0
 1381 068c 2BD0     		beq	.L57
 1382              		.loc 7 388 0 discriminator 1
 1383 068e 059B     		ldr	r3, [sp, #20]
 1384 0690 D3F83428 		ldr	r2, [r3, #2100]
 1385 0694 9DF80330 		ldrb	r3, [sp, #3]	@ zero_extendqisi2
 1386 0698 0121     		movs	r1, #1
 1387 069a 01FA03F3 		lsl	r3, r1, r3
 1388 069e 1340     		ands	r3, r3, r2
 1389              		.loc 7 387 0 discriminator 1
 1390 06a0 002B     		cmp	r3, #0
 1391 06a2 20D0     		beq	.L57
 1392              		.loc 7 390 0
 1393 06a4 FFF71CFD 		bl	osalSysLockFromISR
 1394              		.loc 7 391 0
 1395 06a8 019B     		ldr	r3, [sp, #4]
 1396 06aa 9A6F     		ldr	r2, [r3, #120]
 1397 06ac 9DF80330 		ldrb	r3, [sp, #3]	@ zero_extendqisi2
 1398 06b0 0121     		movs	r1, #1
 1399 06b2 01FA03F3 		lsl	r3, r1, r3
 1400 06b6 1A43     		orrs	r2, r2, r3
ARM GAS  /tmp/ccD2hNvo.s 			page 26


 1401 06b8 019B     		ldr	r3, [sp, #4]
 1402 06ba 9A67     		str	r2, [r3, #120]
 1403              		.loc 7 392 0
 1404 06bc 059B     		ldr	r3, [sp, #20]
 1405 06be D3F83428 		ldr	r2, [r3, #2100]
 1406 06c2 9DF80330 		ldrb	r3, [sp, #3]	@ zero_extendqisi2
 1407 06c6 0121     		movs	r1, #1
 1408 06c8 01FA03F3 		lsl	r3, r1, r3
 1409 06cc DB43     		mvns	r3, r3
 1410 06ce 1A40     		ands	r2, r2, r3
 1411 06d0 059B     		ldr	r3, [sp, #20]
 1412 06d2 C3F83428 		str	r2, [r3, #2100]
 1413              		.loc 7 393 0
 1414 06d6 019B     		ldr	r3, [sp, #4]
 1415 06d8 7C33     		adds	r3, r3, #124
 1416 06da 1846     		mov	r0, r3
 1417 06dc 0021     		movs	r1, #0
 1418 06de FFF72FFD 		bl	osalThreadResumeI
 1419              		.loc 7 394 0
 1420 06e2 FFF705FD 		bl	osalSysUnlockFromISR
 1421              	.L57:
 1422              		.loc 7 396 0
 1423 06e6 07B0     		add	sp, sp, #28
 1424              		@ sp needed
 1425 06e8 5DF804FB 		ldr	pc, [sp], #4
 1426              		.cfi_endproc
 1427              	.LFE277:
 1428              		.size	otg_epin_handler, .-otg_epin_handler
 1429              		.align	2
 1430 06ec AFF30080 		.p2align 4,,15
 1431              		.thumb
 1432              		.thumb_func
 1433              		.type	otg_epout_handler, %function
 1434              	otg_epout_handler:
 1435              	.LFB278:
 1436              		.loc 7 406 0
 1437              		.cfi_startproc
 1438              		@ args = 0, pretend = 0, frame = 24
 1439              		@ frame_needed = 0, uses_anonymous_args = 0
 1440 06f0 00B5     		push	{lr}
 1441              		.cfi_def_cfa_offset 4
 1442              		.cfi_offset 14, -4
 1443 06f2 87B0     		sub	sp, sp, #28
 1444              		.cfi_def_cfa_offset 32
 1445 06f4 0190     		str	r0, [sp, #4]
 1446 06f6 0B46     		mov	r3, r1
 1447 06f8 8DF80330 		strb	r3, [sp, #3]
 1448              		.loc 7 407 0
 1449 06fc 019B     		ldr	r3, [sp, #4]
 1450 06fe DB6E     		ldr	r3, [r3, #108]
 1451 0700 0593     		str	r3, [sp, #20]
 1452              		.loc 7 408 0
 1453 0702 9DF80330 		ldrb	r3, [sp, #3]	@ zero_extendqisi2
 1454 0706 059A     		ldr	r2, [sp, #20]
 1455 0708 5B01     		lsls	r3, r3, #5
 1456 070a 1344     		add	r3, r3, r2
 1457 070c 03F60833 		addw	r3, r3, #2824
ARM GAS  /tmp/ccD2hNvo.s 			page 27


 1458 0710 1B68     		ldr	r3, [r3]
 1459 0712 0493     		str	r3, [sp, #16]
 1460              		.loc 7 411 0
 1461 0714 9DF80330 		ldrb	r3, [sp, #3]	@ zero_extendqisi2
 1462 0718 059A     		ldr	r2, [sp, #20]
 1463 071a 5B01     		lsls	r3, r3, #5
 1464 071c 1344     		add	r3, r3, r2
 1465 071e 03F60833 		addw	r3, r3, #2824
 1466 0722 049A     		ldr	r2, [sp, #16]
 1467 0724 1A60     		str	r2, [r3]
 1468              		.loc 7 413 0
 1469 0726 049B     		ldr	r3, [sp, #16]
 1470 0728 03F00803 		and	r3, r3, #8
 1471 072c 002B     		cmp	r3, #0
 1472 072e 13D0     		beq	.L62
 1473              		.loc 7 413 0 is_stmt 0 discriminator 1
 1474 0730 059B     		ldr	r3, [sp, #20]
 1475 0732 D3F81438 		ldr	r3, [r3, #2068]
 1476 0736 03F00803 		and	r3, r3, #8
 1477 073a 002B     		cmp	r3, #0
 1478 073c 0CD0     		beq	.L62
 1479              		.loc 7 416 0 is_stmt 1
 1480 073e 9DF80330 		ldrb	r3, [sp, #3]	@ zero_extendqisi2
 1481 0742 019A     		ldr	r2, [sp, #4]
 1482 0744 0233     		adds	r3, r3, #2
 1483 0746 9B00     		lsls	r3, r3, #2
 1484 0748 1344     		add	r3, r3, r2
 1485 074a 5B68     		ldr	r3, [r3, #4]
 1486 074c 5B68     		ldr	r3, [r3, #4]
 1487 074e 9DF80320 		ldrb	r2, [sp, #3]	@ zero_extendqisi2
 1488 0752 0198     		ldr	r0, [sp, #4]
 1489 0754 1146     		mov	r1, r2
 1490 0756 9847     		blx	r3
 1491              	.L62:
 1492              		.loc 7 418 0
 1493 0758 049B     		ldr	r3, [sp, #16]
 1494 075a 03F00103 		and	r3, r3, #1
 1495 075e 002B     		cmp	r3, #0
 1496 0760 6CD0     		beq	.L61
 1497              		.loc 7 418 0 is_stmt 0 discriminator 1
 1498 0762 059B     		ldr	r3, [sp, #20]
 1499 0764 D3F81438 		ldr	r3, [r3, #2068]
 1500 0768 03F00103 		and	r3, r3, #1
 1501 076c 002B     		cmp	r3, #0
 1502 076e 65D0     		beq	.L61
 1503              	.LBB12:
 1504              		.loc 7 423 0 is_stmt 1
 1505 0770 9DF80330 		ldrb	r3, [sp, #3]	@ zero_extendqisi2
 1506 0774 002B     		cmp	r3, #0
 1507 0776 05D1     		bne	.L64
 1508              		.loc 7 423 0 is_stmt 0 discriminator 1
 1509 0778 019B     		ldr	r3, [sp, #4]
 1510 077a 93F84C30 		ldrb	r3, [r3, #76]	@ zero_extendqisi2
 1511 077e 002B     		cmp	r3, #0
 1512 0780 00D1     		bne	.L64
 1513              		.loc 7 424 0 is_stmt 1
 1514 0782 5BE0     		b	.L61
ARM GAS  /tmp/ccD2hNvo.s 			page 28


 1515              	.L64:
 1516              		.loc 7 427 0
 1517 0784 9DF80330 		ldrb	r3, [sp, #3]	@ zero_extendqisi2
 1518 0788 019A     		ldr	r2, [sp, #4]
 1519 078a 0233     		adds	r3, r3, #2
 1520 078c 9B00     		lsls	r3, r3, #2
 1521 078e 1344     		add	r3, r3, r2
 1522 0790 5B68     		ldr	r3, [r3, #4]
 1523 0792 9B69     		ldr	r3, [r3, #24]
 1524 0794 0393     		str	r3, [sp, #12]
 1525              		.loc 7 430 0
 1526 0796 039B     		ldr	r3, [sp, #12]
 1527 0798 5A68     		ldr	r2, [r3, #4]
 1528 079a 9DF80330 		ldrb	r3, [sp, #3]	@ zero_extendqisi2
 1529 079e 0199     		ldr	r1, [sp, #4]
 1530 07a0 0233     		adds	r3, r3, #2
 1531 07a2 9B00     		lsls	r3, r3, #2
 1532 07a4 0B44     		add	r3, r3, r1
 1533 07a6 5B68     		ldr	r3, [r3, #4]
 1534 07a8 5B8A     		ldrh	r3, [r3, #18]
 1535 07aa B2FBF3F1 		udiv	r1, r2, r3
 1536 07ae 03FB01F3 		mul	r3, r3, r1
 1537 07b2 D31A     		subs	r3, r2, r3
 1538 07b4 002B     		cmp	r3, #0
 1539 07b6 1AD1     		bne	.L65
 1540              		.loc 7 431 0 discriminator 1
 1541 07b8 039B     		ldr	r3, [sp, #12]
 1542 07ba 1A68     		ldr	r2, [r3]
 1543 07bc 039B     		ldr	r3, [sp, #12]
 1544 07be DB68     		ldr	r3, [r3, #12]
 1545              		.loc 7 430 0 discriminator 1
 1546 07c0 9A42     		cmp	r2, r3
 1547 07c2 14D2     		bcs	.L65
 1548              		.loc 7 435 0
 1549 07c4 039B     		ldr	r3, [sp, #12]
 1550 07c6 DA68     		ldr	r2, [r3, #12]
 1551 07c8 039B     		ldr	r3, [sp, #12]
 1552 07ca 1B68     		ldr	r3, [r3]
 1553 07cc D21A     		subs	r2, r2, r3
 1554 07ce 039B     		ldr	r3, [sp, #12]
 1555 07d0 1A60     		str	r2, [r3]
 1556              		.loc 7 436 0
 1557 07d2 039B     		ldr	r3, [sp, #12]
 1558 07d4 0022     		movs	r2, #0
 1559 07d6 5A60     		str	r2, [r3, #4]
 1560              		.loc 7 437 0
 1561 07d8 FFF782FC 		bl	osalSysLockFromISR
 1562              		.loc 7 438 0
 1563 07dc 9DF80330 		ldrb	r3, [sp, #3]	@ zero_extendqisi2
 1564 07e0 0198     		ldr	r0, [sp, #4]
 1565 07e2 1946     		mov	r1, r3
 1566 07e4 FFF7FEFF 		bl	usb_lld_start_out
 1567              		.loc 7 439 0
 1568 07e8 FFF782FC 		bl	osalSysUnlockFromISR
 1569 07ec 26E0     		b	.L61
 1570              	.L65:
 1571              		.loc 7 443 0
ARM GAS  /tmp/ccD2hNvo.s 			page 29


 1572 07ee 019B     		ldr	r3, [sp, #4]
 1573 07f0 5B89     		ldrh	r3, [r3, #10]
 1574 07f2 9AB2     		uxth	r2, r3
 1575 07f4 9DF80330 		ldrb	r3, [sp, #3]	@ zero_extendqisi2
 1576 07f8 0121     		movs	r1, #1
 1577 07fa 01FA03F3 		lsl	r3, r1, r3
 1578 07fe 9BB2     		uxth	r3, r3
 1579 0800 DB43     		mvns	r3, r3
 1580 0802 9BB2     		uxth	r3, r3
 1581 0804 1340     		ands	r3, r3, r2
 1582 0806 9BB2     		uxth	r3, r3
 1583 0808 9AB2     		uxth	r2, r3
 1584 080a 019B     		ldr	r3, [sp, #4]
 1585 080c 5A81     		strh	r2, [r3, #10]	@ movhi
 1586 080e 9DF80330 		ldrb	r3, [sp, #3]	@ zero_extendqisi2
 1587 0812 019A     		ldr	r2, [sp, #4]
 1588 0814 0233     		adds	r3, r3, #2
 1589 0816 9B00     		lsls	r3, r3, #2
 1590 0818 1344     		add	r3, r3, r2
 1591 081a 5B68     		ldr	r3, [r3, #4]
 1592 081c DB68     		ldr	r3, [r3, #12]
 1593 081e 002B     		cmp	r3, #0
 1594 0820 0CD0     		beq	.L61
 1595              		.loc 7 443 0 is_stmt 0 discriminator 1
 1596 0822 9DF80330 		ldrb	r3, [sp, #3]	@ zero_extendqisi2
 1597 0826 019A     		ldr	r2, [sp, #4]
 1598 0828 0233     		adds	r3, r3, #2
 1599 082a 9B00     		lsls	r3, r3, #2
 1600 082c 1344     		add	r3, r3, r2
 1601 082e 5B68     		ldr	r3, [r3, #4]
 1602 0830 DB68     		ldr	r3, [r3, #12]
 1603 0832 9DF80320 		ldrb	r2, [sp, #3]	@ zero_extendqisi2
 1604 0836 0198     		ldr	r0, [sp, #4]
 1605 0838 1146     		mov	r1, r2
 1606 083a 9847     		blx	r3
 1607              	.L61:
 1608              	.LBE12:
 1609              		.loc 7 446 0 is_stmt 1
 1610 083c 07B0     		add	sp, sp, #28
 1611              		@ sp needed
 1612 083e 5DF804FB 		ldr	pc, [sp], #4
 1613              		.cfi_endproc
 1614              	.LFE278:
 1615              		.size	otg_epout_handler, .-otg_epout_handler
 1616 0842 00BF     		.align	2
 1617 0844 AFF30080 		.p2align 4,,15
 1617      AFF30080 
 1617      AFF30080 
 1618              		.thumb
 1619              		.thumb_func
 1620              		.type	otg_isoc_in_failed_handler, %function
 1621              	otg_isoc_in_failed_handler:
 1622              	.LFB279:
 1623              		.loc 7 455 0
 1624              		.cfi_startproc
 1625              		@ args = 0, pretend = 0, frame = 16
 1626              		@ frame_needed = 0, uses_anonymous_args = 0
ARM GAS  /tmp/ccD2hNvo.s 			page 30


 1627 0850 00B5     		push	{lr}
 1628              		.cfi_def_cfa_offset 4
 1629              		.cfi_offset 14, -4
 1630 0852 85B0     		sub	sp, sp, #20
 1631              		.cfi_def_cfa_offset 24
 1632 0854 0190     		str	r0, [sp, #4]
 1633              		.loc 7 457 0
 1634 0856 019B     		ldr	r3, [sp, #4]
 1635 0858 DB6E     		ldr	r3, [r3, #108]
 1636 085a 0293     		str	r3, [sp, #8]
 1637              		.loc 7 459 0
 1638 085c 0023     		movs	r3, #0
 1639 085e 8DF80F30 		strb	r3, [sp, #15]
 1640 0862 81E0     		b	.L67
 1641              	.L71:
 1642              		.loc 7 460 0
 1643 0864 9DF80F30 		ldrb	r3, [sp, #15]	@ zero_extendqisi2
 1644 0868 029A     		ldr	r2, [sp, #8]
 1645 086a 4833     		adds	r3, r3, #72
 1646 086c 5B01     		lsls	r3, r3, #5
 1647 086e 1344     		add	r3, r3, r2
 1648 0870 1B68     		ldr	r3, [r3]
 1649 0872 03F44023 		and	r3, r3, #786432
 1650 0876 B3F5802F 		cmp	r3, #262144
 1651 087a 70D1     		bne	.L68
 1652              		.loc 7 461 0 discriminator 1
 1653 087c 9DF80F30 		ldrb	r3, [sp, #15]	@ zero_extendqisi2
 1654 0880 029A     		ldr	r2, [sp, #8]
 1655 0882 4833     		adds	r3, r3, #72
 1656 0884 5B01     		lsls	r3, r3, #5
 1657 0886 1344     		add	r3, r3, r2
 1658 0888 1B68     		ldr	r3, [r3]
 1659              		.loc 7 460 0 discriminator 1
 1660 088a 002B     		cmp	r3, #0
 1661 088c 67DA     		bge	.L68
 1662              		.loc 7 464 0
 1663 088e 9DF80F30 		ldrb	r3, [sp, #15]	@ zero_extendqisi2
 1664 0892 9DF80F20 		ldrb	r2, [sp, #15]	@ zero_extendqisi2
 1665 0896 0299     		ldr	r1, [sp, #8]
 1666 0898 4832     		adds	r2, r2, #72
 1667 089a 5201     		lsls	r2, r2, #5
 1668 089c 0A44     		add	r2, r2, r1
 1669 089e 1268     		ldr	r2, [r2]
 1670 08a0 42F09042 		orr	r2, r2, #1207959552
 1671 08a4 0299     		ldr	r1, [sp, #8]
 1672 08a6 4833     		adds	r3, r3, #72
 1673 08a8 5B01     		lsls	r3, r3, #5
 1674 08aa 0B44     		add	r3, r3, r1
 1675 08ac 1A60     		str	r2, [r3]
 1676              		.loc 7 465 0
 1677 08ae 00BF     		nop
 1678              	.L69:
 1679              		.loc 7 465 0 is_stmt 0 discriminator 1
 1680 08b0 9DF80F30 		ldrb	r3, [sp, #15]	@ zero_extendqisi2
 1681 08b4 029A     		ldr	r2, [sp, #8]
 1682 08b6 4833     		adds	r3, r3, #72
 1683 08b8 5B01     		lsls	r3, r3, #5
ARM GAS  /tmp/ccD2hNvo.s 			page 31


 1684 08ba 1344     		add	r3, r3, r2
 1685 08bc 1B68     		ldr	r3, [r3]
 1686 08be 002B     		cmp	r3, #0
 1687 08c0 F6DB     		blt	.L69
 1688              		.loc 7 469 0 is_stmt 1
 1689 08c2 9DF80F30 		ldrb	r3, [sp, #15]	@ zero_extendqisi2
 1690 08c6 0198     		ldr	r0, [sp, #4]
 1691 08c8 1946     		mov	r1, r3
 1692 08ca FFF7C9FC 		bl	otg_txfifo_flush
 1693              		.loc 7 472 0
 1694 08ce 019B     		ldr	r3, [sp, #4]
 1695 08d0 1B89     		ldrh	r3, [r3, #8]
 1696 08d2 9AB2     		uxth	r2, r3
 1697 08d4 9DF80F30 		ldrb	r3, [sp, #15]	@ zero_extendqisi2
 1698 08d8 0121     		movs	r1, #1
 1699 08da 01FA03F3 		lsl	r3, r1, r3
 1700 08de 9BB2     		uxth	r3, r3
 1701 08e0 DB43     		mvns	r3, r3
 1702 08e2 9BB2     		uxth	r3, r3
 1703 08e4 1340     		ands	r3, r3, r2
 1704 08e6 9BB2     		uxth	r3, r3
 1705 08e8 9AB2     		uxth	r2, r3
 1706 08ea 019B     		ldr	r3, [sp, #4]
 1707 08ec 1A81     		strh	r2, [r3, #8]	@ movhi
 1708 08ee 9DF80F30 		ldrb	r3, [sp, #15]	@ zero_extendqisi2
 1709 08f2 019A     		ldr	r2, [sp, #4]
 1710 08f4 0233     		adds	r3, r3, #2
 1711 08f6 9B00     		lsls	r3, r3, #2
 1712 08f8 1344     		add	r3, r3, r2
 1713 08fa 5B68     		ldr	r3, [r3, #4]
 1714 08fc 9B68     		ldr	r3, [r3, #8]
 1715 08fe 002B     		cmp	r3, #0
 1716 0900 0CD0     		beq	.L70
 1717              		.loc 7 472 0 is_stmt 0 discriminator 1
 1718 0902 9DF80F30 		ldrb	r3, [sp, #15]	@ zero_extendqisi2
 1719 0906 019A     		ldr	r2, [sp, #4]
 1720 0908 0233     		adds	r3, r3, #2
 1721 090a 9B00     		lsls	r3, r3, #2
 1722 090c 1344     		add	r3, r3, r2
 1723 090e 5B68     		ldr	r3, [r3, #4]
 1724 0910 9B68     		ldr	r3, [r3, #8]
 1725 0912 9DF80F20 		ldrb	r2, [sp, #15]	@ zero_extendqisi2
 1726 0916 0198     		ldr	r0, [sp, #4]
 1727 0918 1146     		mov	r1, r2
 1728 091a 9847     		blx	r3
 1729              	.L70:
 1730              		.loc 7 475 0 is_stmt 1
 1731 091c FFF7E0FB 		bl	osalSysLockFromISR
 1732              		.loc 7 476 0
 1733 0920 029B     		ldr	r3, [sp, #8]
 1734 0922 D3F83428 		ldr	r2, [r3, #2100]
 1735 0926 9DF80F30 		ldrb	r3, [sp, #15]	@ zero_extendqisi2
 1736 092a 0121     		movs	r1, #1
 1737 092c 01FA03F3 		lsl	r3, r1, r3
 1738 0930 DB43     		mvns	r3, r3
 1739 0932 1A40     		ands	r2, r2, r3
 1740 0934 029B     		ldr	r3, [sp, #8]
ARM GAS  /tmp/ccD2hNvo.s 			page 32


 1741 0936 C3F83428 		str	r2, [r3, #2100]
 1742              		.loc 7 477 0
 1743 093a 019B     		ldr	r3, [sp, #4]
 1744 093c 9A6F     		ldr	r2, [r3, #120]
 1745 093e 9DF80F30 		ldrb	r3, [sp, #15]	@ zero_extendqisi2
 1746 0942 0121     		movs	r1, #1
 1747 0944 01FA03F3 		lsl	r3, r1, r3
 1748 0948 1A43     		orrs	r2, r2, r3
 1749 094a 019B     		ldr	r3, [sp, #4]
 1750 094c 9A67     		str	r2, [r3, #120]
 1751              		.loc 7 478 0
 1752 094e 019B     		ldr	r3, [sp, #4]
 1753 0950 7C33     		adds	r3, r3, #124
 1754 0952 1846     		mov	r0, r3
 1755 0954 0021     		movs	r1, #0
 1756 0956 FFF7F3FB 		bl	osalThreadResumeI
 1757              		.loc 7 479 0
 1758 095a FFF7C9FB 		bl	osalSysUnlockFromISR
 1759              	.L68:
 1760              		.loc 7 459 0
 1761 095e 9DF80F30 		ldrb	r3, [sp, #15]	@ zero_extendqisi2
 1762 0962 0133     		adds	r3, r3, #1
 1763 0964 8DF80F30 		strb	r3, [sp, #15]
 1764              	.L67:
 1765              		.loc 7 459 0 is_stmt 0 discriminator 1
 1766 0968 9DF80F20 		ldrb	r2, [sp, #15]	@ zero_extendqisi2
 1767 096c 019B     		ldr	r3, [sp, #4]
 1768 096e 1B6F     		ldr	r3, [r3, #112]
 1769 0970 9B68     		ldr	r3, [r3, #8]
 1770 0972 9A42     		cmp	r2, r3
 1771 0974 7FF676AF 		bls	.L71
 1772              		.loc 7 482 0 is_stmt 1
 1773 0978 05B0     		add	sp, sp, #20
 1774              		@ sp needed
 1775 097a 5DF804FB 		ldr	pc, [sp], #4
 1776              		.cfi_endproc
 1777              	.LFE279:
 1778              		.size	otg_isoc_in_failed_handler, .-otg_isoc_in_failed_handler
 1779 097e 00BF     		.align	2
 1780              		.p2align 4,,15
 1781              		.thumb
 1782              		.thumb_func
 1783              		.type	otg_isoc_out_failed_handler, %function
 1784              	otg_isoc_out_failed_handler:
 1785              	.LFB280:
 1786              		.loc 7 491 0
 1787              		.cfi_startproc
 1788              		@ args = 0, pretend = 0, frame = 16
 1789              		@ frame_needed = 0, uses_anonymous_args = 0
 1790 0980 00B5     		push	{lr}
 1791              		.cfi_def_cfa_offset 4
 1792              		.cfi_offset 14, -4
 1793 0982 85B0     		sub	sp, sp, #20
 1794              		.cfi_def_cfa_offset 24
 1795 0984 0190     		str	r0, [sp, #4]
 1796              		.loc 7 493 0
 1797 0986 019B     		ldr	r3, [sp, #4]
ARM GAS  /tmp/ccD2hNvo.s 			page 33


 1798 0988 DB6E     		ldr	r3, [r3, #108]
 1799 098a 0293     		str	r3, [sp, #8]
 1800              		.loc 7 495 0
 1801 098c 0023     		movs	r3, #0
 1802 098e 8DF80F30 		strb	r3, [sp, #15]
 1803 0992 40E0     		b	.L73
 1804              	.L75:
 1805              		.loc 7 496 0
 1806 0994 9DF80F30 		ldrb	r3, [sp, #15]	@ zero_extendqisi2
 1807 0998 029A     		ldr	r2, [sp, #8]
 1808 099a 5833     		adds	r3, r3, #88
 1809 099c 5B01     		lsls	r3, r3, #5
 1810 099e 1344     		add	r3, r3, r2
 1811 09a0 1B68     		ldr	r3, [r3]
 1812 09a2 03F44023 		and	r3, r3, #786432
 1813 09a6 B3F5802F 		cmp	r3, #262144
 1814 09aa 2FD1     		bne	.L74
 1815              		.loc 7 497 0 discriminator 1
 1816 09ac 9DF80F30 		ldrb	r3, [sp, #15]	@ zero_extendqisi2
 1817 09b0 029A     		ldr	r2, [sp, #8]
 1818 09b2 5833     		adds	r3, r3, #88
 1819 09b4 5B01     		lsls	r3, r3, #5
 1820 09b6 1344     		add	r3, r3, r2
 1821 09b8 1B68     		ldr	r3, [r3]
 1822              		.loc 7 496 0 discriminator 1
 1823 09ba 002B     		cmp	r3, #0
 1824 09bc 26DA     		bge	.L74
 1825              		.loc 7 505 0
 1826 09be 019B     		ldr	r3, [sp, #4]
 1827 09c0 5B89     		ldrh	r3, [r3, #10]
 1828 09c2 9AB2     		uxth	r2, r3
 1829 09c4 9DF80F30 		ldrb	r3, [sp, #15]	@ zero_extendqisi2
 1830 09c8 0121     		movs	r1, #1
 1831 09ca 01FA03F3 		lsl	r3, r1, r3
 1832 09ce 9BB2     		uxth	r3, r3
 1833 09d0 DB43     		mvns	r3, r3
 1834 09d2 9BB2     		uxth	r3, r3
 1835 09d4 1340     		ands	r3, r3, r2
 1836 09d6 9BB2     		uxth	r3, r3
 1837 09d8 9AB2     		uxth	r2, r3
 1838 09da 019B     		ldr	r3, [sp, #4]
 1839 09dc 5A81     		strh	r2, [r3, #10]	@ movhi
 1840 09de 9DF80F30 		ldrb	r3, [sp, #15]	@ zero_extendqisi2
 1841 09e2 019A     		ldr	r2, [sp, #4]
 1842 09e4 0233     		adds	r3, r3, #2
 1843 09e6 9B00     		lsls	r3, r3, #2
 1844 09e8 1344     		add	r3, r3, r2
 1845 09ea 5B68     		ldr	r3, [r3, #4]
 1846 09ec DB68     		ldr	r3, [r3, #12]
 1847 09ee 002B     		cmp	r3, #0
 1848 09f0 0CD0     		beq	.L74
 1849              		.loc 7 505 0 is_stmt 0 discriminator 1
 1850 09f2 9DF80F30 		ldrb	r3, [sp, #15]	@ zero_extendqisi2
 1851 09f6 019A     		ldr	r2, [sp, #4]
 1852 09f8 0233     		adds	r3, r3, #2
 1853 09fa 9B00     		lsls	r3, r3, #2
 1854 09fc 1344     		add	r3, r3, r2
ARM GAS  /tmp/ccD2hNvo.s 			page 34


 1855 09fe 5B68     		ldr	r3, [r3, #4]
 1856 0a00 DB68     		ldr	r3, [r3, #12]
 1857 0a02 9DF80F20 		ldrb	r2, [sp, #15]	@ zero_extendqisi2
 1858 0a06 0198     		ldr	r0, [sp, #4]
 1859 0a08 1146     		mov	r1, r2
 1860 0a0a 9847     		blx	r3
 1861              	.L74:
 1862              		.loc 7 495 0 is_stmt 1
 1863 0a0c 9DF80F30 		ldrb	r3, [sp, #15]	@ zero_extendqisi2
 1864 0a10 0133     		adds	r3, r3, #1
 1865 0a12 8DF80F30 		strb	r3, [sp, #15]
 1866              	.L73:
 1867              		.loc 7 495 0 is_stmt 0 discriminator 1
 1868 0a16 9DF80F20 		ldrb	r2, [sp, #15]	@ zero_extendqisi2
 1869 0a1a 019B     		ldr	r3, [sp, #4]
 1870 0a1c 1B6F     		ldr	r3, [r3, #112]
 1871 0a1e 9B68     		ldr	r3, [r3, #8]
 1872 0a20 9A42     		cmp	r2, r3
 1873 0a22 B7D9     		bls	.L75
 1874              		.loc 7 508 0 is_stmt 1
 1875 0a24 05B0     		add	sp, sp, #20
 1876              		@ sp needed
 1877 0a26 5DF804FB 		ldr	pc, [sp], #4
 1878              		.cfi_endproc
 1879              	.LFE280:
 1880              		.size	otg_isoc_out_failed_handler, .-otg_isoc_out_failed_handler
 1881 0a2a 00BF     		.align	2
 1882 0a2c AFF30080 		.p2align 4,,15
 1883              		.thumb
 1884              		.thumb_func
 1885              		.type	usb_lld_serve_interrupt, %function
 1886              	usb_lld_serve_interrupt:
 1887              	.LFB281:
 1888              		.loc 7 517 0
 1889              		.cfi_startproc
 1890              		@ args = 0, pretend = 0, frame = 24
 1891              		@ frame_needed = 0, uses_anonymous_args = 0
 1892 0a30 00B5     		push	{lr}
 1893              		.cfi_def_cfa_offset 4
 1894              		.cfi_offset 14, -4
 1895 0a32 87B0     		sub	sp, sp, #28
 1896              		.cfi_def_cfa_offset 32
 1897 0a34 0190     		str	r0, [sp, #4]
 1898              		.loc 7 518 0
 1899 0a36 019B     		ldr	r3, [sp, #4]
 1900 0a38 DB6E     		ldr	r3, [r3, #108]
 1901 0a3a 0593     		str	r3, [sp, #20]
 1902              		.loc 7 521 0
 1903 0a3c 059B     		ldr	r3, [sp, #20]
 1904 0a3e 5B69     		ldr	r3, [r3, #20]
 1905 0a40 0493     		str	r3, [sp, #16]
 1906              		.loc 7 522 0
 1907 0a42 059B     		ldr	r3, [sp, #20]
 1908 0a44 9B69     		ldr	r3, [r3, #24]
 1909 0a46 049A     		ldr	r2, [sp, #16]
 1910 0a48 1340     		ands	r3, r3, r2
 1911 0a4a 0493     		str	r3, [sp, #16]
ARM GAS  /tmp/ccD2hNvo.s 			page 35


 1912              		.loc 7 523 0
 1913 0a4c 059B     		ldr	r3, [sp, #20]
 1914 0a4e 049A     		ldr	r2, [sp, #16]
 1915 0a50 5A61     		str	r2, [r3, #20]
 1916              		.loc 7 526 0
 1917 0a52 049B     		ldr	r3, [sp, #16]
 1918 0a54 03F48053 		and	r3, r3, #4096
 1919 0a58 002B     		cmp	r3, #0
 1920 0a5a 06D0     		beq	.L77
 1921              		.loc 7 529 0
 1922 0a5c 019B     		ldr	r3, [sp, #4]
 1923 0a5e 0022     		movs	r2, #0
 1924 0a60 9A67     		str	r2, [r3, #120]
 1925              		.loc 7 532 0
 1926 0a62 0198     		ldr	r0, [sp, #4]
 1927 0a64 FFF7FEFF 		bl	_usb_reset
 1928              		.loc 7 535 0
 1929 0a68 CEE0     		b	.L76
 1930              	.L77:
 1931              		.loc 7 539 0
 1932 0a6a 049B     		ldr	r3, [sp, #16]
 1933 0a6c 002B     		cmp	r3, #0
 1934 0a6e 19DA     		bge	.L79
 1935              		.loc 7 542 0
 1936 0a70 059B     		ldr	r3, [sp, #20]
 1937 0a72 D3F8003E 		ldr	r3, [r3, #3584]
 1938 0a76 03F00303 		and	r3, r3, #3
 1939 0a7a 002B     		cmp	r3, #0
 1940 0a7c 07D0     		beq	.L80
 1941              		.loc 7 544 0
 1942 0a7e 059B     		ldr	r3, [sp, #20]
 1943 0a80 D3F8003E 		ldr	r3, [r3, #3584]
 1944 0a84 23F00302 		bic	r2, r3, #3
 1945 0a88 059B     		ldr	r3, [sp, #20]
 1946 0a8a C3F8002E 		str	r2, [r3, #3584]
 1947              	.L80:
 1948              		.loc 7 548 0
 1949 0a8e 059B     		ldr	r3, [sp, #20]
 1950 0a90 D3F80438 		ldr	r3, [r3, #2052]
 1951 0a94 43F00102 		orr	r2, r3, #1
 1952 0a98 059B     		ldr	r3, [sp, #20]
 1953 0a9a C3F80428 		str	r2, [r3, #2052]
 1954              		.loc 7 550 0
 1955 0a9e 0198     		ldr	r0, [sp, #4]
 1956 0aa0 FFF7FEFF 		bl	_usb_wakeup
 1957              	.L79:
 1958              		.loc 7 554 0
 1959 0aa4 049B     		ldr	r3, [sp, #16]
 1960 0aa6 03F40063 		and	r3, r3, #2048
 1961 0aaa 002B     		cmp	r3, #0
 1962 0aac 05D0     		beq	.L81
 1963              		.loc 7 557 0
 1964 0aae 019B     		ldr	r3, [sp, #4]
 1965 0ab0 0022     		movs	r2, #0
 1966 0ab2 9A67     		str	r2, [r3, #120]
 1967              		.loc 7 560 0
 1968 0ab4 0198     		ldr	r0, [sp, #4]
ARM GAS  /tmp/ccD2hNvo.s 			page 36


 1969 0ab6 FFF7FEFF 		bl	_usb_suspend
 1970              	.L81:
 1971              		.loc 7 564 0
 1972 0aba 049B     		ldr	r3, [sp, #16]
 1973 0abc 03F40053 		and	r3, r3, #8192
 1974 0ac0 002B     		cmp	r3, #0
 1975 0ac2 17D0     		beq	.L82
 1976              		.loc 7 566 0
 1977 0ac4 059B     		ldr	r3, [sp, #20]
 1978 0ac6 D3F80838 		ldr	r3, [r3, #2056]
 1979 0aca 03F00603 		and	r3, r3, #6
 1980 0ace 002B     		cmp	r3, #0
 1981 0ad0 08D1     		bne	.L83
 1982              		.loc 7 567 0
 1983 0ad2 059B     		ldr	r3, [sp, #20]
 1984 0ad4 DB68     		ldr	r3, [r3, #12]
 1985 0ad6 23F47053 		bic	r3, r3, #15360
 1986 0ada 43F41052 		orr	r2, r3, #9216
 1987 0ade 059B     		ldr	r3, [sp, #20]
 1988 0ae0 DA60     		str	r2, [r3, #12]
 1989 0ae2 07E0     		b	.L82
 1990              	.L83:
 1991              		.loc 7 571 0
 1992 0ae4 059B     		ldr	r3, [sp, #20]
 1993 0ae6 DB68     		ldr	r3, [r3, #12]
 1994 0ae8 23F47053 		bic	r3, r3, #15360
 1995 0aec 43F4A052 		orr	r2, r3, #5120
 1996 0af0 059B     		ldr	r3, [sp, #20]
 1997 0af2 DA60     		str	r2, [r3, #12]
 1998              	.L82:
 1999              		.loc 7 577 0
 2000 0af4 049B     		ldr	r3, [sp, #16]
 2001 0af6 03F00803 		and	r3, r3, #8
 2002 0afa 002B     		cmp	r3, #0
 2003 0afc 09D0     		beq	.L84
 2004              		.loc 7 578 0
 2005 0afe 019B     		ldr	r3, [sp, #4]
 2006 0b00 5B68     		ldr	r3, [r3, #4]
 2007 0b02 DB68     		ldr	r3, [r3, #12]
 2008 0b04 002B     		cmp	r3, #0
 2009 0b06 04D0     		beq	.L84
 2010              		.loc 7 578 0 is_stmt 0 discriminator 1
 2011 0b08 019B     		ldr	r3, [sp, #4]
 2012 0b0a 5B68     		ldr	r3, [r3, #4]
 2013 0b0c DB68     		ldr	r3, [r3, #12]
 2014 0b0e 0198     		ldr	r0, [sp, #4]
 2015 0b10 9847     		blx	r3
 2016              	.L84:
 2017              		.loc 7 582 0 is_stmt 1
 2018 0b12 049B     		ldr	r3, [sp, #16]
 2019 0b14 03F48013 		and	r3, r3, #1048576
 2020 0b18 002B     		cmp	r3, #0
 2021 0b1a 02D0     		beq	.L85
 2022              		.loc 7 583 0
 2023 0b1c 0198     		ldr	r0, [sp, #4]
 2024 0b1e FFF797FE 		bl	otg_isoc_in_failed_handler
 2025              	.L85:
ARM GAS  /tmp/ccD2hNvo.s 			page 37


 2026              		.loc 7 587 0
 2027 0b22 049B     		ldr	r3, [sp, #16]
 2028 0b24 03F40013 		and	r3, r3, #2097152
 2029 0b28 002B     		cmp	r3, #0
 2030 0b2a 02D0     		beq	.L86
 2031              		.loc 7 588 0
 2032 0b2c 0198     		ldr	r0, [sp, #4]
 2033 0b2e FFF727FF 		bl	otg_isoc_out_failed_handler
 2034              	.L86:
 2035              		.loc 7 592 0
 2036 0b32 049B     		ldr	r3, [sp, #16]
 2037 0b34 03F01003 		and	r3, r3, #16
 2038 0b38 002B     		cmp	r3, #0
 2039 0b3a 0FD0     		beq	.L87
 2040              		.loc 7 595 0
 2041 0b3c FFF7D0FA 		bl	osalSysLockFromISR
 2042              		.loc 7 596 0
 2043 0b40 059B     		ldr	r3, [sp, #20]
 2044 0b42 9B69     		ldr	r3, [r3, #24]
 2045 0b44 23F01002 		bic	r2, r3, #16
 2046 0b48 059B     		ldr	r3, [sp, #20]
 2047 0b4a 9A61     		str	r2, [r3, #24]
 2048              		.loc 7 597 0
 2049 0b4c 019B     		ldr	r3, [sp, #4]
 2050 0b4e 7C33     		adds	r3, r3, #124
 2051 0b50 1846     		mov	r0, r3
 2052 0b52 0021     		movs	r1, #0
 2053 0b54 FFF7F4FA 		bl	osalThreadResumeI
 2054              		.loc 7 598 0
 2055 0b58 FFF7CAFA 		bl	osalSysUnlockFromISR
 2056              	.L87:
 2057              		.loc 7 602 0
 2058 0b5c 059B     		ldr	r3, [sp, #20]
 2059 0b5e D3F81838 		ldr	r3, [r3, #2072]
 2060 0b62 0393     		str	r3, [sp, #12]
 2061              		.loc 7 603 0
 2062 0b64 049B     		ldr	r3, [sp, #16]
 2063 0b66 03F48023 		and	r3, r3, #262144
 2064 0b6a 002B     		cmp	r3, #0
 2065 0b6c 23D0     		beq	.L88
 2066              		.loc 7 604 0
 2067 0b6e 039B     		ldr	r3, [sp, #12]
 2068 0b70 03F00103 		and	r3, r3, #1
 2069 0b74 002B     		cmp	r3, #0
 2070 0b76 03D0     		beq	.L89
 2071              		.loc 7 605 0
 2072 0b78 0198     		ldr	r0, [sp, #4]
 2073 0b7a 0021     		movs	r1, #0
 2074 0b7c FFF710FD 		bl	otg_epin_handler
 2075              	.L89:
 2076              		.loc 7 606 0
 2077 0b80 039B     		ldr	r3, [sp, #12]
 2078 0b82 03F00203 		and	r3, r3, #2
 2079 0b86 002B     		cmp	r3, #0
 2080 0b88 03D0     		beq	.L90
 2081              		.loc 7 607 0
 2082 0b8a 0198     		ldr	r0, [sp, #4]
ARM GAS  /tmp/ccD2hNvo.s 			page 38


 2083 0b8c 0121     		movs	r1, #1
 2084 0b8e FFF707FD 		bl	otg_epin_handler
 2085              	.L90:
 2086              		.loc 7 608 0
 2087 0b92 039B     		ldr	r3, [sp, #12]
 2088 0b94 03F00403 		and	r3, r3, #4
 2089 0b98 002B     		cmp	r3, #0
 2090 0b9a 03D0     		beq	.L91
 2091              		.loc 7 609 0
 2092 0b9c 0198     		ldr	r0, [sp, #4]
 2093 0b9e 0221     		movs	r1, #2
 2094 0ba0 FFF7FEFC 		bl	otg_epin_handler
 2095              	.L91:
 2096              		.loc 7 610 0
 2097 0ba4 039B     		ldr	r3, [sp, #12]
 2098 0ba6 03F00803 		and	r3, r3, #8
 2099 0baa 002B     		cmp	r3, #0
 2100 0bac 03D0     		beq	.L88
 2101              		.loc 7 611 0
 2102 0bae 0198     		ldr	r0, [sp, #4]
 2103 0bb0 0321     		movs	r1, #3
 2104 0bb2 FFF7F5FC 		bl	otg_epin_handler
 2105              	.L88:
 2106              		.loc 7 619 0
 2107 0bb6 049B     		ldr	r3, [sp, #16]
 2108 0bb8 03F40023 		and	r3, r3, #524288
 2109 0bbc 002B     		cmp	r3, #0
 2110 0bbe 23D0     		beq	.L76
 2111              		.loc 7 620 0
 2112 0bc0 039B     		ldr	r3, [sp, #12]
 2113 0bc2 03F48033 		and	r3, r3, #65536
 2114 0bc6 002B     		cmp	r3, #0
 2115 0bc8 03D0     		beq	.L92
 2116              		.loc 7 621 0
 2117 0bca 0198     		ldr	r0, [sp, #4]
 2118 0bcc 0021     		movs	r1, #0
 2119 0bce FFF78FFD 		bl	otg_epout_handler
 2120              	.L92:
 2121              		.loc 7 622 0
 2122 0bd2 039B     		ldr	r3, [sp, #12]
 2123 0bd4 03F40033 		and	r3, r3, #131072
 2124 0bd8 002B     		cmp	r3, #0
 2125 0bda 03D0     		beq	.L93
 2126              		.loc 7 623 0
 2127 0bdc 0198     		ldr	r0, [sp, #4]
 2128 0bde 0121     		movs	r1, #1
 2129 0be0 FFF786FD 		bl	otg_epout_handler
 2130              	.L93:
 2131              		.loc 7 624 0
 2132 0be4 039B     		ldr	r3, [sp, #12]
 2133 0be6 03F48023 		and	r3, r3, #262144
 2134 0bea 002B     		cmp	r3, #0
 2135 0bec 03D0     		beq	.L94
 2136              		.loc 7 625 0
 2137 0bee 0198     		ldr	r0, [sp, #4]
 2138 0bf0 0221     		movs	r1, #2
 2139 0bf2 FFF77DFD 		bl	otg_epout_handler
ARM GAS  /tmp/ccD2hNvo.s 			page 39


 2140              	.L94:
 2141              		.loc 7 626 0
 2142 0bf6 039B     		ldr	r3, [sp, #12]
 2143 0bf8 03F40023 		and	r3, r3, #524288
 2144 0bfc 002B     		cmp	r3, #0
 2145 0bfe 03D0     		beq	.L76
 2146              		.loc 7 627 0
 2147 0c00 0198     		ldr	r0, [sp, #4]
 2148 0c02 0321     		movs	r1, #3
 2149 0c04 FFF774FD 		bl	otg_epout_handler
 2150              	.L76:
 2151              		.loc 7 635 0
 2152 0c08 07B0     		add	sp, sp, #28
 2153              		@ sp needed
 2154 0c0a 5DF804FB 		ldr	pc, [sp], #4
 2155              		.cfi_endproc
 2156              	.LFE281:
 2157              		.size	usb_lld_serve_interrupt, .-usb_lld_serve_interrupt
 2158 0c0e 00BF     		.align	2
 2159              		.p2align 4,,15
 2160              		.global	Vector14C
 2161              		.thumb
 2162              		.thumb_func
 2163              		.type	Vector14C, %function
 2164              	Vector14C:
 2165              	.LFB282:
 2166              		.loc 7 650 0
 2167              		.cfi_startproc
 2168              		@ args = 0, pretend = 0, frame = 0
 2169              		@ frame_needed = 0, uses_anonymous_args = 0
 2170 0c10 08B5     		push	{r3, lr}
 2171              		.cfi_def_cfa_offset 8
 2172              		.cfi_offset 3, -8
 2173              		.cfi_offset 14, -4
 2174              		.loc 7 654 0
 2175 0c12 0348     		ldr	r0, .L96
 2176 0c14 FFF70CFF 		bl	usb_lld_serve_interrupt
 2177              		.loc 7 656 0
 2178 0c18 FFF7FEFF 		bl	_port_irq_epilogue
 2179              		.loc 7 657 0
 2180 0c1c 08BD     		pop	{r3, pc}
 2181              	.L97:
 2182 0c1e 00BF     		.align	2
 2183              	.L96:
 2184 0c20 00000000 		.word	USBD1
 2185              		.cfi_endproc
 2186              	.LFE282:
 2187              		.size	Vector14C, .-Vector14C
 2188              		.align	2
 2189 0c24 AFF30080 		.p2align 4,,15
 2189      AFF30080 
 2189      AFF30080 
 2190              		.global	usb_lld_init
 2191              		.thumb
 2192              		.thumb_func
 2193              		.type	usb_lld_init, %function
 2194              	usb_lld_init:
ARM GAS  /tmp/ccD2hNvo.s 			page 40


 2195              	.LFB283:
 2196              		.loc 7 688 0
 2197              		.cfi_startproc
 2198              		@ args = 0, pretend = 0, frame = 0
 2199              		@ frame_needed = 0, uses_anonymous_args = 0
 2200 0c30 08B5     		push	{r3, lr}
 2201              		.cfi_def_cfa_offset 8
 2202              		.cfi_offset 3, -8
 2203              		.cfi_offset 14, -4
 2204              		.loc 7 692 0
 2205 0c32 0948     		ldr	r0, .L99
 2206 0c34 FFF7FEFF 		bl	usbObjectInit
 2207              		.loc 7 693 0
 2208 0c38 074B     		ldr	r3, .L99
 2209 0c3a 0022     		movs	r2, #0
 2210 0c3c DA67     		str	r2, [r3, #124]
 2211              		.loc 7 694 0
 2212 0c3e 064B     		ldr	r3, .L99
 2213 0c40 4FF0A042 		mov	r2, #1342177280
 2214 0c44 DA66     		str	r2, [r3, #108]
 2215              		.loc 7 695 0
 2216 0c46 044B     		ldr	r3, .L99
 2217 0c48 044A     		ldr	r2, .L99+4
 2218 0c4a 1A67     		str	r2, [r3, #112]
 2219              		.loc 7 698 0
 2220 0c4c 024B     		ldr	r3, .L99
 2221 0c4e 0022     		movs	r2, #0
 2222 0c50 C3F88020 		str	r2, [r3, #128]
 2223              		.loc 7 738 0
 2224 0c54 08BD     		pop	{r3, pc}
 2225              	.L100:
 2226 0c56 00BF     		.align	2
 2227              	.L99:
 2228 0c58 00000000 		.word	USBD1
 2229 0c5c 24000000 		.word	fsparams
 2230              		.cfi_endproc
 2231              	.LFE283:
 2232              		.size	usb_lld_init, .-usb_lld_init
 2233              		.align	2
 2234              		.p2align 4,,15
 2235              		.global	usb_lld_start
 2236              		.thumb
 2237              		.thumb_func
 2238              		.type	usb_lld_start, %function
 2239              	usb_lld_start:
 2240              	.LFB284:
 2241              		.loc 7 750 0
 2242              		.cfi_startproc
 2243              		@ args = 0, pretend = 0, frame = 16
 2244              		@ frame_needed = 0, uses_anonymous_args = 0
 2245 0c60 00B5     		push	{lr}
 2246              		.cfi_def_cfa_offset 4
 2247              		.cfi_offset 14, -4
 2248 0c62 87B0     		sub	sp, sp, #28
 2249              		.cfi_def_cfa_offset 32
 2250 0c64 0390     		str	r0, [sp, #12]
 2251              		.loc 7 751 0
ARM GAS  /tmp/ccD2hNvo.s 			page 41


 2252 0c66 039B     		ldr	r3, [sp, #12]
 2253 0c68 DB6E     		ldr	r3, [r3, #108]
 2254 0c6a 0593     		str	r3, [sp, #20]
 2255              		.loc 7 753 0
 2256 0c6c 039B     		ldr	r3, [sp, #12]
 2257 0c6e 1B78     		ldrb	r3, [r3]	@ zero_extendqisi2
 2258 0c70 012B     		cmp	r3, #1
 2259 0c72 72D1     		bne	.L101
 2260              		.loc 7 757 0
 2261 0c74 039A     		ldr	r2, [sp, #12]
 2262 0c76 3A4B     		ldr	r3, .L107
 2263 0c78 9A42     		cmp	r2, r3
 2264 0c7a 19D1     		bne	.L103
 2265              		.loc 7 759 0
 2266 0c7c 394B     		ldr	r3, .L107+4
 2267 0c7e 394A     		ldr	r2, .L107+4
 2268 0c80 D26C     		ldr	r2, [r2, #76]
 2269 0c82 42F48052 		orr	r2, r2, #4096
 2270 0c86 DA64     		str	r2, [r3, #76]
 2271              		.loc 7 760 0
 2272 0c88 364B     		ldr	r3, .L107+4
 2273 0c8a 364A     		ldr	r2, .L107+4
 2274 0c8c D26A     		ldr	r2, [r2, #44]
 2275 0c8e 42F48052 		orr	r2, r2, #4096
 2276 0c92 DA62     		str	r2, [r3, #44]
 2277 0c94 334B     		ldr	r3, .L107+4
 2278 0c96 0022     		movs	r2, #0
 2279 0c98 DA62     		str	r2, [r3, #44]
 2280              		.loc 7 763 0
 2281 0c9a 4320     		movs	r0, #67
 2282 0c9c 0E21     		movs	r1, #14
 2283 0c9e FFF7FEFF 		bl	nvicEnableVector
 2284              		.loc 7 768 0
 2285 0ca2 059B     		ldr	r3, [sp, #20]
 2286 0ca4 304A     		ldr	r2, .L107+8
 2287 0ca6 DA60     		str	r2, [r3, #12]
 2288              		.loc 7 772 0
 2289 0ca8 059B     		ldr	r3, [sp, #20]
 2290 0caa 304A     		ldr	r2, .L107+12
 2291 0cac C3F80028 		str	r2, [r3, #2048]
 2292              	.L103:
 2293              		.loc 7 822 0
 2294 0cb0 039B     		ldr	r3, [sp, #12]
 2295 0cb2 0022     		movs	r2, #0
 2296 0cb4 9A67     		str	r2, [r3, #120]
 2297              		.loc 7 825 0
 2298 0cb6 059B     		ldr	r3, [sp, #20]
 2299 0cb8 0022     		movs	r2, #0
 2300 0cba C3F8002E 		str	r2, [r3, #3584]
 2301              		.loc 7 828 0
 2302 0cbe 059B     		ldr	r3, [sp, #20]
 2303 0cc0 C022     		movs	r2, #192
 2304 0cc2 1A60     		str	r2, [r3]
 2305              		.loc 7 843 0
 2306 0cc4 059B     		ldr	r3, [sp, #20]
 2307 0cc6 4FF40412 		mov	r2, #2162688
 2308 0cca 9A63     		str	r2, [r3, #56]
ARM GAS  /tmp/ccD2hNvo.s 			page 42


 2309              		.loc 7 847 0
 2310 0ccc 0398     		ldr	r0, [sp, #12]
 2311 0cce FFF747FA 		bl	otg_core_reset
 2312              		.loc 7 850 0
 2313 0cd2 059B     		ldr	r3, [sp, #20]
 2314 0cd4 0022     		movs	r2, #0
 2315 0cd6 9A60     		str	r2, [r3, #8]
 2316              		.loc 7 853 0
 2317 0cd8 0398     		ldr	r0, [sp, #12]
 2318 0cda FFF761FA 		bl	otg_disable_ep
 2319              		.loc 7 857 0
 2320 0cde 059B     		ldr	r3, [sp, #20]
 2321 0ce0 0022     		movs	r2, #0
 2322 0ce2 C3F81028 		str	r2, [r3, #2064]
 2323              		.loc 7 858 0
 2324 0ce6 059B     		ldr	r3, [sp, #20]
 2325 0ce8 0022     		movs	r2, #0
 2326 0cea C3F81428 		str	r2, [r3, #2068]
 2327              		.loc 7 859 0
 2328 0cee 059B     		ldr	r3, [sp, #20]
 2329 0cf0 0022     		movs	r2, #0
 2330 0cf2 C3F81C28 		str	r2, [r3, #2076]
 2331              		.loc 7 860 0
 2332 0cf6 039B     		ldr	r3, [sp, #12]
 2333 0cf8 5B68     		ldr	r3, [r3, #4]
 2334 0cfa DB68     		ldr	r3, [r3, #12]
 2335 0cfc 002B     		cmp	r3, #0
 2336 0cfe 03D1     		bne	.L104
 2337              		.loc 7 861 0
 2338 0d00 059B     		ldr	r3, [sp, #20]
 2339 0d02 1B4A     		ldr	r2, .L107+16
 2340 0d04 9A61     		str	r2, [r3, #24]
 2341 0d06 02E0     		b	.L105
 2342              	.L104:
 2343              		.loc 7 865 0
 2344 0d08 059B     		ldr	r3, [sp, #20]
 2345 0d0a 1A4A     		ldr	r2, .L107+20
 2346 0d0c 9A61     		str	r2, [r3, #24]
 2347              	.L105:
 2348              		.loc 7 871 0
 2349 0d0e 059B     		ldr	r3, [sp, #20]
 2350 0d10 4FF0FF32 		mov	r2, #-1
 2351 0d14 5A61     		str	r2, [r3, #20]
 2352              		.loc 7 875 0
 2353 0d16 039B     		ldr	r3, [sp, #12]
 2354 0d18 D3F88030 		ldr	r3, [r3, #128]
 2355 0d1c 002B     		cmp	r3, #0
 2356 0d1e 16D1     		bne	.L106
 2357              		.loc 7 876 0
 2358 0d20 039B     		ldr	r3, [sp, #12]
 2359 0d22 8833     		adds	r3, r3, #136
 2360 0d24 039A     		ldr	r2, [sp, #12]
 2361 0d26 0092     		str	r2, [sp]
 2362 0d28 1846     		mov	r0, r3
 2363 0d2a 4FF4A471 		mov	r1, #328
 2364 0d2e 0222     		movs	r2, #2
 2365 0d30 114B     		ldr	r3, .L107+24
ARM GAS  /tmp/ccD2hNvo.s 			page 43


 2366 0d32 FFF7FEFF 		bl	chThdCreateI
 2367 0d36 0246     		mov	r2, r0
 2368 0d38 039B     		ldr	r3, [sp, #12]
 2369 0d3a C3F88020 		str	r2, [r3, #128]
 2370              		.loc 7 879 0
 2371 0d3e 039B     		ldr	r3, [sp, #12]
 2372 0d40 D3F88030 		ldr	r3, [r3, #128]
 2373 0d44 1846     		mov	r0, r3
 2374 0d46 FFF79BF9 		bl	chThdStartI
 2375              		.loc 7 880 0
 2376 0d4a FFF7FEFF 		bl	chSchRescheduleS
 2377              	.L106:
 2378              		.loc 7 885 0
 2379 0d4e 059B     		ldr	r3, [sp, #20]
 2380 0d50 9B68     		ldr	r3, [r3, #8]
 2381 0d52 43F00102 		orr	r2, r3, #1
 2382 0d56 059B     		ldr	r3, [sp, #20]
 2383 0d58 9A60     		str	r2, [r3, #8]
 2384              	.L101:
 2385              		.loc 7 887 0
 2386 0d5a 07B0     		add	sp, sp, #28
 2387              		@ sp needed
 2388 0d5c 5DF804FB 		ldr	pc, [sp], #4
 2389              	.L108:
 2390              		.align	2
 2391              	.L107:
 2392 0d60 00000000 		.word	USBD1
 2393 0d64 00100240 		.word	1073876992
 2394 0d68 40140040 		.word	1073747008
 2395 0d6c 03002002 		.word	35651587
 2396 0d70 003C30C0 		.word	-1070580736
 2397 0d74 083C30C0 		.word	-1070580728
 2398 0d78 00000000 		.word	usb_lld_pump
 2399              		.cfi_endproc
 2400              	.LFE284:
 2401              		.size	usb_lld_start, .-usb_lld_start
 2402              		.align	2
 2403 0d7c AFF30080 		.p2align 4,,15
 2404              		.global	usb_lld_stop
 2405              		.thumb
 2406              		.thumb_func
 2407              		.type	usb_lld_stop, %function
 2408              	usb_lld_stop:
 2409              	.LFB285:
 2410              		.loc 7 896 0
 2411              		.cfi_startproc
 2412              		@ args = 0, pretend = 0, frame = 16
 2413              		@ frame_needed = 0, uses_anonymous_args = 0
 2414 0d80 00B5     		push	{lr}
 2415              		.cfi_def_cfa_offset 4
 2416              		.cfi_offset 14, -4
 2417 0d82 85B0     		sub	sp, sp, #20
 2418              		.cfi_def_cfa_offset 24
 2419 0d84 0190     		str	r0, [sp, #4]
 2420              		.loc 7 897 0
 2421 0d86 019B     		ldr	r3, [sp, #4]
 2422 0d88 DB6E     		ldr	r3, [r3, #108]
ARM GAS  /tmp/ccD2hNvo.s 			page 44


 2423 0d8a 0393     		str	r3, [sp, #12]
 2424              		.loc 7 900 0
 2425 0d8c 019B     		ldr	r3, [sp, #4]
 2426 0d8e 1B78     		ldrb	r3, [r3]	@ zero_extendqisi2
 2427 0d90 012B     		cmp	r3, #1
 2428 0d92 1CD0     		beq	.L109
 2429              		.loc 7 904 0
 2430 0d94 0198     		ldr	r0, [sp, #4]
 2431 0d96 FFF703FA 		bl	otg_disable_ep
 2432              		.loc 7 906 0
 2433 0d9a 019B     		ldr	r3, [sp, #4]
 2434 0d9c 0022     		movs	r2, #0
 2435 0d9e 9A67     		str	r2, [r3, #120]
 2436              		.loc 7 908 0
 2437 0da0 039B     		ldr	r3, [sp, #12]
 2438 0da2 0022     		movs	r2, #0
 2439 0da4 C3F81C28 		str	r2, [r3, #2076]
 2440              		.loc 7 909 0
 2441 0da8 039B     		ldr	r3, [sp, #12]
 2442 0daa 0022     		movs	r2, #0
 2443 0dac 9A60     		str	r2, [r3, #8]
 2444              		.loc 7 910 0
 2445 0dae 039B     		ldr	r3, [sp, #12]
 2446 0db0 0022     		movs	r2, #0
 2447 0db2 9A63     		str	r2, [r3, #56]
 2448              		.loc 7 913 0
 2449 0db4 019A     		ldr	r2, [sp, #4]
 2450 0db6 074B     		ldr	r3, .L111
 2451 0db8 9A42     		cmp	r2, r3
 2452 0dba 08D1     		bne	.L109
 2453              		.loc 7 914 0
 2454 0dbc 4320     		movs	r0, #67
 2455 0dbe FFF7FEFF 		bl	nvicDisableVector
 2456              		.loc 7 915 0
 2457 0dc2 054B     		ldr	r3, .L111+4
 2458 0dc4 044A     		ldr	r2, .L111+4
 2459 0dc6 D26C     		ldr	r2, [r2, #76]
 2460 0dc8 22F48052 		bic	r2, r2, #4096
 2461 0dcc DA64     		str	r2, [r3, #76]
 2462              	.L109:
 2463              		.loc 7 929 0
 2464 0dce 05B0     		add	sp, sp, #20
 2465              		@ sp needed
 2466 0dd0 5DF804FB 		ldr	pc, [sp], #4
 2467              	.L112:
 2468              		.align	2
 2469              	.L111:
 2470 0dd4 00000000 		.word	USBD1
 2471 0dd8 00100240 		.word	1073876992
 2472              		.cfi_endproc
 2473              	.LFE285:
 2474              		.size	usb_lld_stop, .-usb_lld_stop
 2475              		.align	2
 2476 0ddc AFF30080 		.p2align 4,,15
 2477              		.global	usb_lld_reset
 2478              		.thumb
 2479              		.thumb_func
ARM GAS  /tmp/ccD2hNvo.s 			page 45


 2480              		.type	usb_lld_reset, %function
 2481              	usb_lld_reset:
 2482              	.LFB286:
 2483              		.loc 7 938 0
 2484              		.cfi_startproc
 2485              		@ args = 0, pretend = 0, frame = 16
 2486              		@ frame_needed = 0, uses_anonymous_args = 0
 2487 0de0 10B5     		push	{r4, lr}
 2488              		.cfi_def_cfa_offset 8
 2489              		.cfi_offset 4, -8
 2490              		.cfi_offset 14, -4
 2491 0de2 84B0     		sub	sp, sp, #16
 2492              		.cfi_def_cfa_offset 24
 2493 0de4 0190     		str	r0, [sp, #4]
 2494              		.loc 7 940 0
 2495 0de6 019B     		ldr	r3, [sp, #4]
 2496 0de8 DB6E     		ldr	r3, [r3, #108]
 2497 0dea 0293     		str	r3, [sp, #8]
 2498              		.loc 7 943 0
 2499 0dec 0198     		ldr	r0, [sp, #4]
 2500 0dee 0021     		movs	r1, #0
 2501 0df0 FFF736FA 		bl	otg_txfifo_flush
 2502              		.loc 7 946 0
 2503 0df4 029B     		ldr	r3, [sp, #8]
 2504 0df6 0022     		movs	r2, #0
 2505 0df8 C3F83428 		str	r2, [r3, #2100]
 2506              		.loc 7 947 0
 2507 0dfc 029B     		ldr	r3, [sp, #8]
 2508 0dfe 4FF00112 		mov	r2, #65537
 2509 0e02 C3F81C28 		str	r2, [r3, #2076]
 2510              		.loc 7 950 0
 2511 0e06 0023     		movs	r3, #0
 2512 0e08 0393     		str	r3, [sp, #12]
 2513 0e0a 24E0     		b	.L114
 2514              	.L115:
 2515              		.loc 7 951 0 discriminator 2
 2516 0e0c 029A     		ldr	r2, [sp, #8]
 2517 0e0e 039B     		ldr	r3, [sp, #12]
 2518 0e10 4833     		adds	r3, r3, #72
 2519 0e12 5B01     		lsls	r3, r3, #5
 2520 0e14 1344     		add	r3, r3, r2
 2521 0e16 4FF00062 		mov	r2, #134217728
 2522 0e1a 1A60     		str	r2, [r3]
 2523              		.loc 7 952 0 discriminator 2
 2524 0e1c 029A     		ldr	r2, [sp, #8]
 2525 0e1e 039B     		ldr	r3, [sp, #12]
 2526 0e20 5833     		adds	r3, r3, #88
 2527 0e22 5B01     		lsls	r3, r3, #5
 2528 0e24 1344     		add	r3, r3, r2
 2529 0e26 4FF00062 		mov	r2, #134217728
 2530 0e2a 1A60     		str	r2, [r3]
 2531              		.loc 7 953 0 discriminator 2
 2532 0e2c 029A     		ldr	r2, [sp, #8]
 2533 0e2e 039B     		ldr	r3, [sp, #12]
 2534 0e30 5B01     		lsls	r3, r3, #5
 2535 0e32 1344     		add	r3, r3, r2
 2536 0e34 03F60813 		addw	r3, r3, #2312
ARM GAS  /tmp/ccD2hNvo.s 			page 46


 2537 0e38 4FF0FF32 		mov	r2, #-1
 2538 0e3c 1A60     		str	r2, [r3]
 2539              		.loc 7 954 0 discriminator 2
 2540 0e3e 029A     		ldr	r2, [sp, #8]
 2541 0e40 039B     		ldr	r3, [sp, #12]
 2542 0e42 5B01     		lsls	r3, r3, #5
 2543 0e44 1344     		add	r3, r3, r2
 2544 0e46 03F60833 		addw	r3, r3, #2824
 2545 0e4a 4FF0FF32 		mov	r2, #-1
 2546 0e4e 1A60     		str	r2, [r3]
 2547              		.loc 7 950 0 discriminator 2
 2548 0e50 039B     		ldr	r3, [sp, #12]
 2549 0e52 0133     		adds	r3, r3, #1
 2550 0e54 0393     		str	r3, [sp, #12]
 2551              	.L114:
 2552              		.loc 7 950 0 is_stmt 0 discriminator 1
 2553 0e56 019B     		ldr	r3, [sp, #4]
 2554 0e58 1B6F     		ldr	r3, [r3, #112]
 2555 0e5a 9A68     		ldr	r2, [r3, #8]
 2556 0e5c 039B     		ldr	r3, [sp, #12]
 2557 0e5e 9A42     		cmp	r2, r3
 2558 0e60 D4D2     		bcs	.L115
 2559              		.loc 7 958 0 is_stmt 1
 2560 0e62 0198     		ldr	r0, [sp, #4]
 2561 0e64 FFF71CFA 		bl	otg_ram_reset
 2562              		.loc 7 961 0
 2563 0e68 019B     		ldr	r3, [sp, #4]
 2564 0e6a 1B6F     		ldr	r3, [r3, #112]
 2565 0e6c 1A68     		ldr	r2, [r3]
 2566 0e6e 029B     		ldr	r3, [sp, #8]
 2567 0e70 5A62     		str	r2, [r3, #36]
 2568              		.loc 7 962 0
 2569 0e72 0198     		ldr	r0, [sp, #4]
 2570 0e74 FFF7DCF9 		bl	otg_rxfifo_flush
 2571              		.loc 7 965 0
 2572 0e78 029B     		ldr	r3, [sp, #8]
 2573 0e7a D3F80038 		ldr	r3, [r3, #2048]
 2574 0e7e 23F4FE62 		bic	r2, r3, #2032
 2575 0e82 029B     		ldr	r3, [sp, #8]
 2576 0e84 C3F80028 		str	r2, [r3, #2048]
 2577              		.loc 7 968 0
 2578 0e88 029B     		ldr	r3, [sp, #8]
 2579 0e8a 9B69     		ldr	r3, [r3, #24]
 2580 0e8c 43F44023 		orr	r3, r3, #786432
 2581 0e90 43F01003 		orr	r3, r3, #16
 2582 0e94 029A     		ldr	r2, [sp, #8]
 2583 0e96 9361     		str	r3, [r2, #24]
 2584              		.loc 7 969 0
 2585 0e98 029B     		ldr	r3, [sp, #8]
 2586 0e9a 0922     		movs	r2, #9
 2587 0e9c C3F81028 		str	r2, [r3, #2064]
 2588              		.loc 7 970 0
 2589 0ea0 029B     		ldr	r3, [sp, #8]
 2590 0ea2 0922     		movs	r2, #9
 2591 0ea4 C3F81428 		str	r2, [r3, #2068]
 2592              		.loc 7 973 0
 2593 0ea8 019B     		ldr	r3, [sp, #4]
ARM GAS  /tmp/ccD2hNvo.s 			page 47


 2594 0eaa 164A     		ldr	r2, .L116
 2595 0eac DA60     		str	r2, [r3, #12]
 2596              		.loc 7 974 0
 2597 0eae 029B     		ldr	r3, [sp, #8]
 2598 0eb0 0022     		movs	r2, #0
 2599 0eb2 C3F8102B 		str	r2, [r3, #2832]
 2600              		.loc 7 976 0
 2601 0eb6 4023     		movs	r3, #64
 2602              		.loc 7 975 0
 2603 0eb8 43F08053 		orr	r3, r3, #268435456
 2604 0ebc 43F40043 		orr	r3, r3, #32768
 2605 0ec0 029A     		ldr	r2, [sp, #8]
 2606 0ec2 C2F8003B 		str	r3, [r2, #2816]
 2607              		.loc 7 977 0
 2608 0ec6 029B     		ldr	r3, [sp, #8]
 2609 0ec8 0022     		movs	r2, #0
 2610 0eca C3F81029 		str	r2, [r3, #2320]
 2611              		.loc 7 979 0
 2612 0ece 4023     		movs	r3, #64
 2613 0ed0 43F08053 		orr	r3, r3, #268435456
 2614 0ed4 43F40043 		orr	r3, r3, #32768
 2615              		.loc 7 978 0
 2616 0ed8 029A     		ldr	r2, [sp, #8]
 2617 0eda C2F80039 		str	r3, [r2, #2304]
 2618              		.loc 7 980 0
 2619 0ede 4023     		movs	r3, #64
 2620 0ee0 9B08     		lsrs	r3, r3, #2
 2621 0ee2 9BB2     		uxth	r3, r3
 2622 0ee4 1B04     		lsls	r3, r3, #16
 2623 0ee6 1C46     		mov	r4, r3
 2624              		.loc 7 981 0
 2625 0ee8 4023     		movs	r3, #64
 2626 0eea 9B08     		lsrs	r3, r3, #2
 2627 0eec 9BB2     		uxth	r3, r3
 2628 0eee 0198     		ldr	r0, [sp, #4]
 2629 0ef0 1946     		mov	r1, r3
 2630 0ef2 FFF7E5F9 		bl	otg_ram_alloc
 2631 0ef6 0346     		mov	r3, r0
 2632              		.loc 7 980 0
 2633 0ef8 44EA0302 		orr	r2, r4, r3
 2634 0efc 029B     		ldr	r3, [sp, #8]
 2635 0efe 9A62     		str	r2, [r3, #40]
 2636              		.loc 7 983 0
 2637 0f00 04B0     		add	sp, sp, #16
 2638              		@ sp needed
 2639 0f02 10BD     		pop	{r4, pc}
 2640              	.L117:
 2641              		.align	2
 2642              	.L116:
 2643 0f04 00000000 		.word	ep0config
 2644              		.cfi_endproc
 2645              	.LFE286:
 2646              		.size	usb_lld_reset, .-usb_lld_reset
 2647              		.align	2
 2648 0f08 AFF30080 		.p2align 4,,15
 2648      AFF30080 
 2649              		.global	usb_lld_set_address
ARM GAS  /tmp/ccD2hNvo.s 			page 48


 2650              		.thumb
 2651              		.thumb_func
 2652              		.type	usb_lld_set_address, %function
 2653              	usb_lld_set_address:
 2654              	.LFB287:
 2655              		.loc 7 992 0
 2656              		.cfi_startproc
 2657              		@ args = 0, pretend = 0, frame = 16
 2658              		@ frame_needed = 0, uses_anonymous_args = 0
 2659              		@ link register save eliminated.
 2660 0f10 84B0     		sub	sp, sp, #16
 2661              		.cfi_def_cfa_offset 16
 2662 0f12 0190     		str	r0, [sp, #4]
 2663              		.loc 7 993 0
 2664 0f14 019B     		ldr	r3, [sp, #4]
 2665 0f16 DB6E     		ldr	r3, [r3, #108]
 2666 0f18 0393     		str	r3, [sp, #12]
 2667              		.loc 7 995 0
 2668 0f1a 039B     		ldr	r3, [sp, #12]
 2669 0f1c D3F80038 		ldr	r3, [r3, #2048]
 2670 0f20 23F4FE62 		bic	r2, r3, #2032
 2671 0f24 019B     		ldr	r3, [sp, #4]
 2672 0f26 93F86630 		ldrb	r3, [r3, #102]	@ zero_extendqisi2
 2673 0f2a 1B01     		lsls	r3, r3, #4
 2674 0f2c 1A43     		orrs	r2, r2, r3
 2675 0f2e 039B     		ldr	r3, [sp, #12]
 2676 0f30 C3F80028 		str	r2, [r3, #2048]
 2677              		.loc 7 996 0
 2678 0f34 04B0     		add	sp, sp, #16
 2679              		@ sp needed
 2680 0f36 7047     		bx	lr
 2681              		.cfi_endproc
 2682              	.LFE287:
 2683              		.size	usb_lld_set_address, .-usb_lld_set_address
 2684              		.align	2
 2685 0f38 AFF30080 		.p2align 4,,15
 2685      AFF30080 
 2686              		.global	usb_lld_init_endpoint
 2687              		.thumb
 2688              		.thumb_func
 2689              		.type	usb_lld_init_endpoint, %function
 2690              	usb_lld_init_endpoint:
 2691              	.LFB288:
 2692              		.loc 7 1006 0
 2693              		.cfi_startproc
 2694              		@ args = 0, pretend = 0, frame = 24
 2695              		@ frame_needed = 0, uses_anonymous_args = 0
 2696 0f40 30B5     		push	{r4, r5, lr}
 2697              		.cfi_def_cfa_offset 12
 2698              		.cfi_offset 4, -12
 2699              		.cfi_offset 5, -8
 2700              		.cfi_offset 14, -4
 2701 0f42 87B0     		sub	sp, sp, #28
 2702              		.cfi_def_cfa_offset 40
 2703 0f44 0190     		str	r0, [sp, #4]
 2704 0f46 0B46     		mov	r3, r1
 2705 0f48 8DF80330 		strb	r3, [sp, #3]
ARM GAS  /tmp/ccD2hNvo.s 			page 49


 2706              		.loc 7 1008 0
 2707 0f4c 019B     		ldr	r3, [sp, #4]
 2708 0f4e DB6E     		ldr	r3, [r3, #108]
 2709 0f50 0393     		str	r3, [sp, #12]
 2710              		.loc 7 1011 0
 2711 0f52 9DF80330 		ldrb	r3, [sp, #3]	@ zero_extendqisi2
 2712 0f56 019A     		ldr	r2, [sp, #4]
 2713 0f58 0233     		adds	r3, r3, #2
 2714 0f5a 9B00     		lsls	r3, r3, #2
 2715 0f5c 1344     		add	r3, r3, r2
 2716 0f5e 5B68     		ldr	r3, [r3, #4]
 2717 0f60 1B68     		ldr	r3, [r3]
 2718 0f62 03F00303 		and	r3, r3, #3
 2719 0f66 032B     		cmp	r3, #3
 2720 0f68 00F20881 		bhi	.L132
 2721 0f6c 01A2     		adr	r2, .L122
 2722 0f6e 52F823F0 		ldr	pc, [r2, r3, lsl #2]
 2723 0f72 00BF     		.p2align 2
 2724              	.L122:
 2725 0f74 850F0000 		.word	.L121+1
 2726 0f78 8B0F0000 		.word	.L123+1
 2727 0f7c 910F0000 		.word	.L124+1
 2728 0f80 970F0000 		.word	.L125+1
 2729              		.p2align 1
 2730              	.L121:
 2731              		.loc 7 1013 0
 2732 0f84 7F4B     		ldr	r3, .L133
 2733 0f86 0593     		str	r3, [sp, #20]
 2734              		.loc 7 1014 0
 2735 0f88 08E0     		b	.L126
 2736              	.L123:
 2737              		.loc 7 1016 0
 2738 0f8a 7F4B     		ldr	r3, .L133+4
 2739 0f8c 0593     		str	r3, [sp, #20]
 2740              		.loc 7 1017 0
 2741 0f8e 05E0     		b	.L126
 2742              	.L124:
 2743              		.loc 7 1019 0
 2744 0f90 7E4B     		ldr	r3, .L133+8
 2745 0f92 0593     		str	r3, [sp, #20]
 2746              		.loc 7 1020 0
 2747 0f94 02E0     		b	.L126
 2748              	.L125:
 2749              		.loc 7 1022 0
 2750 0f96 7E4B     		ldr	r3, .L133+12
 2751 0f98 0593     		str	r3, [sp, #20]
 2752              		.loc 7 1023 0
 2753 0f9a 00BF     		nop
 2754              	.L126:
 2755              		.loc 7 1029 0
 2756 0f9c 9DF80330 		ldrb	r3, [sp, #3]	@ zero_extendqisi2
 2757 0fa0 039A     		ldr	r2, [sp, #12]
 2758 0fa2 5B01     		lsls	r3, r3, #5
 2759 0fa4 1344     		add	r3, r3, r2
 2760 0fa6 03F53163 		add	r3, r3, #2832
 2761 0faa 0022     		movs	r2, #0
 2762 0fac 1A60     		str	r2, [r3]
ARM GAS  /tmp/ccD2hNvo.s 			page 50


 2763              		.loc 7 1030 0
 2764 0fae 9DF80330 		ldrb	r3, [sp, #3]	@ zero_extendqisi2
 2765 0fb2 019A     		ldr	r2, [sp, #4]
 2766 0fb4 0233     		adds	r3, r3, #2
 2767 0fb6 9B00     		lsls	r3, r3, #2
 2768 0fb8 1344     		add	r3, r3, r2
 2769 0fba 5B68     		ldr	r3, [r3, #4]
 2770 0fbc 9B69     		ldr	r3, [r3, #24]
 2771 0fbe 002B     		cmp	r3, #0
 2772 0fc0 20D0     		beq	.L128
 2773              		.loc 7 1031 0
 2774 0fc2 9DF80300 		ldrb	r0, [sp, #3]	@ zero_extendqisi2
 2775 0fc6 9DF80330 		ldrb	r3, [sp, #3]	@ zero_extendqisi2
 2776 0fca 019A     		ldr	r2, [sp, #4]
 2777 0fcc 0233     		adds	r3, r3, #2
 2778 0fce 9B00     		lsls	r3, r3, #2
 2779 0fd0 1344     		add	r3, r3, r2
 2780 0fd2 5B68     		ldr	r3, [r3, #4]
 2781 0fd4 5B8A     		ldrh	r3, [r3, #18]
 2782 0fd6 1A46     		mov	r2, r3
 2783 0fd8 059B     		ldr	r3, [sp, #20]
 2784 0fda 1A43     		orrs	r2, r2, r3
 2785 0fdc 0399     		ldr	r1, [sp, #12]
 2786 0fde 00F15803 		add	r3, r0, #88
 2787 0fe2 5B01     		lsls	r3, r3, #5
 2788 0fe4 0B44     		add	r3, r3, r1
 2789 0fe6 1A60     		str	r2, [r3]
 2790              		.loc 7 1032 0
 2791 0fe8 039B     		ldr	r3, [sp, #12]
 2792 0fea D3F81C28 		ldr	r2, [r3, #2076]
 2793 0fee 9DF80330 		ldrb	r3, [sp, #3]	@ zero_extendqisi2
 2794 0ff2 1033     		adds	r3, r3, #16
 2795 0ff4 0121     		movs	r1, #1
 2796 0ff6 01FA03F3 		lsl	r3, r1, r3
 2797 0ffa 1A43     		orrs	r2, r2, r3
 2798 0ffc 039B     		ldr	r3, [sp, #12]
 2799 0ffe C3F81C28 		str	r2, [r3, #2076]
 2800 1002 1DE0     		b	.L129
 2801              	.L128:
 2802              		.loc 7 1035 0
 2803 1004 9DF80330 		ldrb	r3, [sp, #3]	@ zero_extendqisi2
 2804 1008 9DF80320 		ldrb	r2, [sp, #3]	@ zero_extendqisi2
 2805 100c 0399     		ldr	r1, [sp, #12]
 2806 100e 5832     		adds	r2, r2, #88
 2807 1010 5201     		lsls	r2, r2, #5
 2808 1012 0A44     		add	r2, r2, r1
 2809 1014 1268     		ldr	r2, [r2]
 2810 1016 22F40042 		bic	r2, r2, #32768
 2811 101a 0399     		ldr	r1, [sp, #12]
 2812 101c 5833     		adds	r3, r3, #88
 2813 101e 5B01     		lsls	r3, r3, #5
 2814 1020 0B44     		add	r3, r3, r1
 2815 1022 1A60     		str	r2, [r3]
 2816              		.loc 7 1036 0
 2817 1024 039B     		ldr	r3, [sp, #12]
 2818 1026 D3F81C28 		ldr	r2, [r3, #2076]
 2819 102a 9DF80330 		ldrb	r3, [sp, #3]	@ zero_extendqisi2
ARM GAS  /tmp/ccD2hNvo.s 			page 51


 2820 102e 1033     		adds	r3, r3, #16
 2821 1030 0121     		movs	r1, #1
 2822 1032 01FA03F3 		lsl	r3, r1, r3
 2823 1036 DB43     		mvns	r3, r3
 2824 1038 1A40     		ands	r2, r2, r3
 2825 103a 039B     		ldr	r3, [sp, #12]
 2826 103c C3F81C28 		str	r2, [r3, #2076]
 2827              	.L129:
 2828              		.loc 7 1040 0
 2829 1040 9DF80330 		ldrb	r3, [sp, #3]	@ zero_extendqisi2
 2830 1044 039A     		ldr	r2, [sp, #12]
 2831 1046 5B01     		lsls	r3, r3, #5
 2832 1048 1344     		add	r3, r3, r2
 2833 104a 03F51163 		add	r3, r3, #2320
 2834 104e 0022     		movs	r2, #0
 2835 1050 1A60     		str	r2, [r3]
 2836              		.loc 7 1041 0
 2837 1052 9DF80330 		ldrb	r3, [sp, #3]	@ zero_extendqisi2
 2838 1056 019A     		ldr	r2, [sp, #4]
 2839 1058 0233     		adds	r3, r3, #2
 2840 105a 9B00     		lsls	r3, r3, #2
 2841 105c 1344     		add	r3, r3, r2
 2842 105e 5B68     		ldr	r3, [r3, #4]
 2843 1060 5B69     		ldr	r3, [r3, #20]
 2844 1062 002B     		cmp	r3, #0
 2845 1064 5DD0     		beq	.L130
 2846              		.loc 7 1043 0
 2847 1066 9DF80330 		ldrb	r3, [sp, #3]	@ zero_extendqisi2
 2848 106a 019A     		ldr	r2, [sp, #4]
 2849 106c 0233     		adds	r3, r3, #2
 2850 106e 9B00     		lsls	r3, r3, #2
 2851 1070 1344     		add	r3, r3, r2
 2852 1072 5B68     		ldr	r3, [r3, #4]
 2853 1074 1B8A     		ldrh	r3, [r3, #16]
 2854 1076 9B08     		lsrs	r3, r3, #2
 2855 1078 9BB2     		uxth	r3, r3
 2856 107a 0493     		str	r3, [sp, #16]
 2857              		.loc 7 1044 0
 2858 107c 9DF80330 		ldrb	r3, [sp, #3]	@ zero_extendqisi2
 2859 1080 019A     		ldr	r2, [sp, #4]
 2860 1082 0233     		adds	r3, r3, #2
 2861 1084 9B00     		lsls	r3, r3, #2
 2862 1086 1344     		add	r3, r3, r2
 2863 1088 5B68     		ldr	r3, [r3, #4]
 2864 108a 9B8B     		ldrh	r3, [r3, #28]
 2865 108c 012B     		cmp	r3, #1
 2866 108e 0CD9     		bls	.L131
 2867              		.loc 7 1045 0
 2868 1090 9DF80330 		ldrb	r3, [sp, #3]	@ zero_extendqisi2
 2869 1094 019A     		ldr	r2, [sp, #4]
 2870 1096 0233     		adds	r3, r3, #2
 2871 1098 9B00     		lsls	r3, r3, #2
 2872 109a 1344     		add	r3, r3, r2
 2873 109c 5B68     		ldr	r3, [r3, #4]
 2874 109e 9B8B     		ldrh	r3, [r3, #28]
 2875 10a0 1A46     		mov	r2, r3
 2876 10a2 049B     		ldr	r3, [sp, #16]
ARM GAS  /tmp/ccD2hNvo.s 			page 52


 2877 10a4 02FB03F3 		mul	r3, r2, r3
 2878 10a8 0493     		str	r3, [sp, #16]
 2879              	.L131:
 2880              		.loc 7 1046 0
 2881 10aa 9DF80330 		ldrb	r3, [sp, #3]	@ zero_extendqisi2
 2882 10ae 5C1E     		subs	r4, r3, #1
 2883 10b0 049B     		ldr	r3, [sp, #16]
 2884 10b2 1D04     		lsls	r5, r3, #16
 2885              		.loc 7 1047 0
 2886 10b4 0198     		ldr	r0, [sp, #4]
 2887 10b6 0499     		ldr	r1, [sp, #16]
 2888 10b8 FFF702F9 		bl	otg_ram_alloc
 2889 10bc 0346     		mov	r3, r0
 2890              		.loc 7 1046 0
 2891 10be 45EA0302 		orr	r2, r5, r3
 2892 10c2 0399     		ldr	r1, [sp, #12]
 2893 10c4 04F14003 		add	r3, r4, #64
 2894 10c8 9B00     		lsls	r3, r3, #2
 2895 10ca 0B44     		add	r3, r3, r1
 2896 10cc 5A60     		str	r2, [r3, #4]
 2897              		.loc 7 1048 0
 2898 10ce 9DF80330 		ldrb	r3, [sp, #3]	@ zero_extendqisi2
 2899 10d2 0198     		ldr	r0, [sp, #4]
 2900 10d4 1946     		mov	r1, r3
 2901 10d6 FFF7C3F8 		bl	otg_txfifo_flush
 2902              		.loc 7 1050 0
 2903 10da 9DF80300 		ldrb	r0, [sp, #3]	@ zero_extendqisi2
 2904              		.loc 7 1051 0
 2905 10de 9DF80330 		ldrb	r3, [sp, #3]	@ zero_extendqisi2
 2906 10e2 9B05     		lsls	r3, r3, #22
 2907              		.loc 7 1050 0
 2908 10e4 1A46     		mov	r2, r3
 2909 10e6 059B     		ldr	r3, [sp, #20]
 2910 10e8 1A43     		orrs	r2, r2, r3
 2911              		.loc 7 1052 0
 2912 10ea 9DF80330 		ldrb	r3, [sp, #3]	@ zero_extendqisi2
 2913 10ee 0199     		ldr	r1, [sp, #4]
 2914 10f0 0233     		adds	r3, r3, #2
 2915 10f2 9B00     		lsls	r3, r3, #2
 2916 10f4 0B44     		add	r3, r3, r1
 2917 10f6 5B68     		ldr	r3, [r3, #4]
 2918 10f8 1B8A     		ldrh	r3, [r3, #16]
 2919              		.loc 7 1051 0
 2920 10fa 1A43     		orrs	r2, r2, r3
 2921              		.loc 7 1050 0
 2922 10fc 0399     		ldr	r1, [sp, #12]
 2923 10fe 00F14803 		add	r3, r0, #72
 2924 1102 5B01     		lsls	r3, r3, #5
 2925 1104 0B44     		add	r3, r3, r1
 2926 1106 1A60     		str	r2, [r3]
 2927              		.loc 7 1053 0
 2928 1108 039B     		ldr	r3, [sp, #12]
 2929 110a D3F81C28 		ldr	r2, [r3, #2076]
 2930 110e 9DF80330 		ldrb	r3, [sp, #3]	@ zero_extendqisi2
 2931 1112 0121     		movs	r1, #1
 2932 1114 01FA03F3 		lsl	r3, r1, r3
 2933 1118 1A43     		orrs	r2, r2, r3
ARM GAS  /tmp/ccD2hNvo.s 			page 53


 2934 111a 039B     		ldr	r3, [sp, #12]
 2935 111c C3F81C28 		str	r2, [r3, #2076]
 2936 1120 2DE0     		b	.L119
 2937              	.L130:
 2938              		.loc 7 1056 0
 2939 1122 9DF80330 		ldrb	r3, [sp, #3]	@ zero_extendqisi2
 2940 1126 013B     		subs	r3, r3, #1
 2941 1128 039A     		ldr	r2, [sp, #12]
 2942 112a 4033     		adds	r3, r3, #64
 2943 112c 9B00     		lsls	r3, r3, #2
 2944 112e 1344     		add	r3, r3, r2
 2945 1130 184A     		ldr	r2, .L133+16
 2946 1132 5A60     		str	r2, [r3, #4]
 2947              		.loc 7 1057 0
 2948 1134 9DF80330 		ldrb	r3, [sp, #3]	@ zero_extendqisi2
 2949 1138 0198     		ldr	r0, [sp, #4]
 2950 113a 1946     		mov	r1, r3
 2951 113c FFF790F8 		bl	otg_txfifo_flush
 2952              		.loc 7 1058 0
 2953 1140 9DF80330 		ldrb	r3, [sp, #3]	@ zero_extendqisi2
 2954 1144 9DF80320 		ldrb	r2, [sp, #3]	@ zero_extendqisi2
 2955 1148 0399     		ldr	r1, [sp, #12]
 2956 114a 4832     		adds	r2, r2, #72
 2957 114c 5201     		lsls	r2, r2, #5
 2958 114e 0A44     		add	r2, r2, r1
 2959 1150 1268     		ldr	r2, [r2]
 2960 1152 22F40042 		bic	r2, r2, #32768
 2961 1156 0399     		ldr	r1, [sp, #12]
 2962 1158 4833     		adds	r3, r3, #72
 2963 115a 5B01     		lsls	r3, r3, #5
 2964 115c 0B44     		add	r3, r3, r1
 2965 115e 1A60     		str	r2, [r3]
 2966              		.loc 7 1059 0
 2967 1160 039B     		ldr	r3, [sp, #12]
 2968 1162 D3F81C28 		ldr	r2, [r3, #2076]
 2969 1166 9DF80330 		ldrb	r3, [sp, #3]	@ zero_extendqisi2
 2970 116a 0121     		movs	r1, #1
 2971 116c 01FA03F3 		lsl	r3, r1, r3
 2972 1170 DB43     		mvns	r3, r3
 2973 1172 1A40     		ands	r2, r2, r3
 2974 1174 039B     		ldr	r3, [sp, #12]
 2975 1176 C3F81C28 		str	r2, [r3, #2076]
 2976 117a 00E0     		b	.L119
 2977              	.L132:
 2978              		.loc 7 1025 0
 2979 117c 00BF     		nop
 2980              	.L119:
 2981              		.loc 7 1061 0
 2982 117e 07B0     		add	sp, sp, #28
 2983              		@ sp needed
 2984 1180 30BD     		pop	{r4, r5, pc}
 2985              	.L134:
 2986 1182 00BF     		.align	2
 2987              	.L133:
 2988 1184 00800010 		.word	268468224
 2989 1188 00800410 		.word	268730368
 2990 118c 00800810 		.word	268992512
ARM GAS  /tmp/ccD2hNvo.s 			page 54


 2991 1190 00800C10 		.word	269254656
 2992 1194 00040002 		.word	33555456
 2993              		.cfi_endproc
 2994              	.LFE288:
 2995              		.size	usb_lld_init_endpoint, .-usb_lld_init_endpoint
 2996              		.align	2
 2997 1198 AFF30080 		.p2align 4,,15
 2997      AFF30080 
 2998              		.global	usb_lld_disable_endpoints
 2999              		.thumb
 3000              		.thumb_func
 3001              		.type	usb_lld_disable_endpoints, %function
 3002              	usb_lld_disable_endpoints:
 3003              	.LFB289:
 3004              		.loc 7 1070 0
 3005              		.cfi_startproc
 3006              		@ args = 0, pretend = 0, frame = 8
 3007              		@ frame_needed = 0, uses_anonymous_args = 0
 3008 11a0 00B5     		push	{lr}
 3009              		.cfi_def_cfa_offset 4
 3010              		.cfi_offset 14, -4
 3011 11a2 83B0     		sub	sp, sp, #12
 3012              		.cfi_def_cfa_offset 16
 3013 11a4 0190     		str	r0, [sp, #4]
 3014              		.loc 7 1073 0
 3015 11a6 0198     		ldr	r0, [sp, #4]
 3016 11a8 FFF77AF8 		bl	otg_ram_reset
 3017              		.loc 7 1076 0
 3018 11ac 0198     		ldr	r0, [sp, #4]
 3019 11ae FEF7F7FF 		bl	otg_disable_ep
 3020              		.loc 7 1077 0
 3021 11b2 03B0     		add	sp, sp, #12
 3022              		@ sp needed
 3023 11b4 5DF804FB 		ldr	pc, [sp], #4
 3024              		.cfi_endproc
 3025              	.LFE289:
 3026              		.size	usb_lld_disable_endpoints, .-usb_lld_disable_endpoints
 3027              		.align	2
 3028 11b8 AFF30080 		.p2align 4,,15
 3028      AFF30080 
 3029              		.global	usb_lld_get_status_out
 3030              		.thumb
 3031              		.thumb_func
 3032              		.type	usb_lld_get_status_out, %function
 3033              	usb_lld_get_status_out:
 3034              	.LFB290:
 3035              		.loc 7 1091 0
 3036              		.cfi_startproc
 3037              		@ args = 0, pretend = 0, frame = 16
 3038              		@ frame_needed = 0, uses_anonymous_args = 0
 3039              		@ link register save eliminated.
 3040 11c0 84B0     		sub	sp, sp, #16
 3041              		.cfi_def_cfa_offset 16
 3042 11c2 0190     		str	r0, [sp, #4]
 3043 11c4 0B46     		mov	r3, r1
 3044 11c6 8DF80330 		strb	r3, [sp, #3]
 3045              		.loc 7 1096 0
ARM GAS  /tmp/ccD2hNvo.s 			page 55


 3046 11ca 019B     		ldr	r3, [sp, #4]
 3047 11cc DA6E     		ldr	r2, [r3, #108]
 3048 11ce 9DF80330 		ldrb	r3, [sp, #3]	@ zero_extendqisi2
 3049 11d2 5833     		adds	r3, r3, #88
 3050 11d4 5B01     		lsls	r3, r3, #5
 3051 11d6 1344     		add	r3, r3, r2
 3052 11d8 1B68     		ldr	r3, [r3]
 3053 11da 0393     		str	r3, [sp, #12]
 3054              		.loc 7 1097 0
 3055 11dc 039B     		ldr	r3, [sp, #12]
 3056 11de 03F40043 		and	r3, r3, #32768
 3057 11e2 002B     		cmp	r3, #0
 3058 11e4 01D1     		bne	.L137
 3059              		.loc 7 1098 0
 3060 11e6 0023     		movs	r3, #0
 3061 11e8 07E0     		b	.L138
 3062              	.L137:
 3063              		.loc 7 1099 0
 3064 11ea 039B     		ldr	r3, [sp, #12]
 3065 11ec 03F40013 		and	r3, r3, #2097152
 3066 11f0 002B     		cmp	r3, #0
 3067 11f2 01D0     		beq	.L139
 3068              		.loc 7 1100 0
 3069 11f4 0123     		movs	r3, #1
 3070 11f6 00E0     		b	.L138
 3071              	.L139:
 3072              		.loc 7 1101 0
 3073 11f8 0223     		movs	r3, #2
 3074              	.L138:
 3075              		.loc 7 1102 0
 3076 11fa 1846     		mov	r0, r3
 3077 11fc 04B0     		add	sp, sp, #16
 3078              		@ sp needed
 3079 11fe 7047     		bx	lr
 3080              		.cfi_endproc
 3081              	.LFE290:
 3082              		.size	usb_lld_get_status_out, .-usb_lld_get_status_out
 3083              		.align	2
 3084              		.p2align 4,,15
 3085              		.global	usb_lld_get_status_in
 3086              		.thumb
 3087              		.thumb_func
 3088              		.type	usb_lld_get_status_in, %function
 3089              	usb_lld_get_status_in:
 3090              	.LFB291:
 3091              		.loc 7 1116 0
 3092              		.cfi_startproc
 3093              		@ args = 0, pretend = 0, frame = 16
 3094              		@ frame_needed = 0, uses_anonymous_args = 0
 3095              		@ link register save eliminated.
 3096 1200 84B0     		sub	sp, sp, #16
 3097              		.cfi_def_cfa_offset 16
 3098 1202 0190     		str	r0, [sp, #4]
 3099 1204 0B46     		mov	r3, r1
 3100 1206 8DF80330 		strb	r3, [sp, #3]
 3101              		.loc 7 1121 0
 3102 120a 019B     		ldr	r3, [sp, #4]
ARM GAS  /tmp/ccD2hNvo.s 			page 56


 3103 120c DA6E     		ldr	r2, [r3, #108]
 3104 120e 9DF80330 		ldrb	r3, [sp, #3]	@ zero_extendqisi2
 3105 1212 4833     		adds	r3, r3, #72
 3106 1214 5B01     		lsls	r3, r3, #5
 3107 1216 1344     		add	r3, r3, r2
 3108 1218 1B68     		ldr	r3, [r3]
 3109 121a 0393     		str	r3, [sp, #12]
 3110              		.loc 7 1122 0
 3111 121c 039B     		ldr	r3, [sp, #12]
 3112 121e 03F40043 		and	r3, r3, #32768
 3113 1222 002B     		cmp	r3, #0
 3114 1224 01D1     		bne	.L141
 3115              		.loc 7 1123 0
 3116 1226 0023     		movs	r3, #0
 3117 1228 07E0     		b	.L142
 3118              	.L141:
 3119              		.loc 7 1124 0
 3120 122a 039B     		ldr	r3, [sp, #12]
 3121 122c 03F40013 		and	r3, r3, #2097152
 3122 1230 002B     		cmp	r3, #0
 3123 1232 01D0     		beq	.L143
 3124              		.loc 7 1125 0
 3125 1234 0123     		movs	r3, #1
 3126 1236 00E0     		b	.L142
 3127              	.L143:
 3128              		.loc 7 1126 0
 3129 1238 0223     		movs	r3, #2
 3130              	.L142:
 3131              		.loc 7 1127 0
 3132 123a 1846     		mov	r0, r3
 3133 123c 04B0     		add	sp, sp, #16
 3134              		@ sp needed
 3135 123e 7047     		bx	lr
 3136              		.cfi_endproc
 3137              	.LFE291:
 3138              		.size	usb_lld_get_status_in, .-usb_lld_get_status_in
 3139              		.align	2
 3140              		.p2align 4,,15
 3141              		.global	usb_lld_read_setup
 3142              		.thumb
 3143              		.thumb_func
 3144              		.type	usb_lld_read_setup, %function
 3145              	usb_lld_read_setup:
 3146              	.LFB292:
 3147              		.loc 7 1143 0
 3148              		.cfi_startproc
 3149              		@ args = 0, pretend = 0, frame = 16
 3150              		@ frame_needed = 0, uses_anonymous_args = 0
 3151 1240 00B5     		push	{lr}
 3152              		.cfi_def_cfa_offset 4
 3153              		.cfi_offset 14, -4
 3154 1242 85B0     		sub	sp, sp, #20
 3155              		.cfi_def_cfa_offset 24
 3156 1244 0390     		str	r0, [sp, #12]
 3157 1246 0B46     		mov	r3, r1
 3158 1248 0192     		str	r2, [sp, #4]
 3159 124a 8DF80B30 		strb	r3, [sp, #11]
ARM GAS  /tmp/ccD2hNvo.s 			page 57


 3160              		.loc 7 1145 0
 3161 124e 9DF80B30 		ldrb	r3, [sp, #11]	@ zero_extendqisi2
 3162 1252 039A     		ldr	r2, [sp, #12]
 3163 1254 0233     		adds	r3, r3, #2
 3164 1256 9B00     		lsls	r3, r3, #2
 3165 1258 1344     		add	r3, r3, r2
 3166 125a 5B68     		ldr	r3, [r3, #4]
 3167 125c 1B6A     		ldr	r3, [r3, #32]
 3168 125e 0198     		ldr	r0, [sp, #4]
 3169 1260 1946     		mov	r1, r3
 3170 1262 0822     		movs	r2, #8
 3171 1264 FFF7FEFF 		bl	memcpy
 3172              		.loc 7 1146 0
 3173 1268 05B0     		add	sp, sp, #20
 3174              		@ sp needed
 3175 126a 5DF804FB 		ldr	pc, [sp], #4
 3176              		.cfi_endproc
 3177              	.LFE292:
 3178              		.size	usb_lld_read_setup, .-usb_lld_read_setup
 3179 126e 00BF     		.align	2
 3180              		.p2align 4,,15
 3181              		.global	usb_lld_start_out
 3182              		.thumb
 3183              		.thumb_func
 3184              		.type	usb_lld_start_out, %function
 3185              	usb_lld_start_out:
 3186              	.LFB293:
 3187              		.loc 7 1156 0
 3188              		.cfi_startproc
 3189              		@ args = 0, pretend = 0, frame = 24
 3190              		@ frame_needed = 0, uses_anonymous_args = 0
 3191              		@ link register save eliminated.
 3192 1270 86B0     		sub	sp, sp, #24
 3193              		.cfi_def_cfa_offset 24
 3194 1272 0190     		str	r0, [sp, #4]
 3195 1274 0B46     		mov	r3, r1
 3196 1276 8DF80330 		strb	r3, [sp, #3]
 3197              		.loc 7 1158 0
 3198 127a 9DF80330 		ldrb	r3, [sp, #3]	@ zero_extendqisi2
 3199 127e 019A     		ldr	r2, [sp, #4]
 3200 1280 0233     		adds	r3, r3, #2
 3201 1282 9B00     		lsls	r3, r3, #2
 3202 1284 1344     		add	r3, r3, r2
 3203 1286 5B68     		ldr	r3, [r3, #4]
 3204 1288 9B69     		ldr	r3, [r3, #24]
 3205 128a 0593     		str	r3, [sp, #20]
 3206              		.loc 7 1161 0
 3207 128c 059B     		ldr	r3, [sp, #20]
 3208 128e 1A68     		ldr	r2, [r3]
 3209 1290 059B     		ldr	r3, [sp, #20]
 3210 1292 DA60     		str	r2, [r3, #12]
 3211              		.loc 7 1162 0
 3212 1294 9DF80330 		ldrb	r3, [sp, #3]	@ zero_extendqisi2
 3213 1298 002B     		cmp	r3, #0
 3214 129a 06D1     		bne	.L146
 3215              		.loc 7 1162 0 is_stmt 0 discriminator 1
 3216 129c 059B     		ldr	r3, [sp, #20]
ARM GAS  /tmp/ccD2hNvo.s 			page 58


 3217 129e 1B68     		ldr	r3, [r3]
 3218 12a0 402B     		cmp	r3, #64
 3219 12a2 02D9     		bls	.L146
 3220              		.loc 7 1163 0 is_stmt 1
 3221 12a4 059B     		ldr	r3, [sp, #20]
 3222 12a6 4022     		movs	r2, #64
 3223 12a8 1A60     		str	r2, [r3]
 3224              	.L146:
 3225              		.loc 7 1170 0
 3226 12aa 059B     		ldr	r3, [sp, #20]
 3227 12ac 1A68     		ldr	r2, [r3]
 3228 12ae 9DF80330 		ldrb	r3, [sp, #3]	@ zero_extendqisi2
 3229 12b2 0199     		ldr	r1, [sp, #4]
 3230 12b4 0233     		adds	r3, r3, #2
 3231 12b6 9B00     		lsls	r3, r3, #2
 3232 12b8 0B44     		add	r3, r3, r1
 3233 12ba 5B68     		ldr	r3, [r3, #4]
 3234 12bc 5B8A     		ldrh	r3, [r3, #18]
 3235 12be 1344     		add	r3, r3, r2
 3236 12c0 5A1E     		subs	r2, r3, #1
 3237              		.loc 7 1171 0
 3238 12c2 9DF80330 		ldrb	r3, [sp, #3]	@ zero_extendqisi2
 3239 12c6 0199     		ldr	r1, [sp, #4]
 3240 12c8 0233     		adds	r3, r3, #2
 3241 12ca 9B00     		lsls	r3, r3, #2
 3242 12cc 0B44     		add	r3, r3, r1
 3243 12ce 5B68     		ldr	r3, [r3, #4]
 3244 12d0 5B8A     		ldrh	r3, [r3, #18]
 3245              		.loc 7 1170 0
 3246 12d2 B2FBF3F3 		udiv	r3, r2, r3
 3247 12d6 0493     		str	r3, [sp, #16]
 3248              		.loc 7 1172 0
 3249 12d8 9DF80330 		ldrb	r3, [sp, #3]	@ zero_extendqisi2
 3250 12dc 019A     		ldr	r2, [sp, #4]
 3251 12de 0233     		adds	r3, r3, #2
 3252 12e0 9B00     		lsls	r3, r3, #2
 3253 12e2 1344     		add	r3, r3, r2
 3254 12e4 5B68     		ldr	r3, [r3, #4]
 3255 12e6 5B8A     		ldrh	r3, [r3, #18]
 3256 12e8 049A     		ldr	r2, [sp, #16]
 3257 12ea 02FB03F3 		mul	r3, r2, r3
 3258 12ee 0333     		adds	r3, r3, #3
 3259 12f0 23F00303 		bic	r3, r3, #3
 3260 12f4 0393     		str	r3, [sp, #12]
 3261              		.loc 7 1175 0
 3262 12f6 019B     		ldr	r3, [sp, #4]
 3263 12f8 D96E     		ldr	r1, [r3, #108]
 3264 12fa 9DF80330 		ldrb	r3, [sp, #3]	@ zero_extendqisi2
 3265 12fe 049A     		ldr	r2, [sp, #16]
 3266 1300 D004     		lsls	r0, r2, #19
 3267 1302 039A     		ldr	r2, [sp, #12]
 3268 1304 0243     		orrs	r2, r2, r0
 3269 1306 42F0C042 		orr	r2, r2, #1610612736
 3270 130a 5B01     		lsls	r3, r3, #5
 3271 130c 0B44     		add	r3, r3, r1
 3272 130e 03F53163 		add	r3, r3, #2832
 3273 1312 1A60     		str	r2, [r3]
ARM GAS  /tmp/ccD2hNvo.s 			page 59


 3274              		.loc 7 1179 0
 3275 1314 9DF80330 		ldrb	r3, [sp, #3]	@ zero_extendqisi2
 3276 1318 019A     		ldr	r2, [sp, #4]
 3277 131a 0233     		adds	r3, r3, #2
 3278 131c 9B00     		lsls	r3, r3, #2
 3279 131e 1344     		add	r3, r3, r2
 3280 1320 5B68     		ldr	r3, [r3, #4]
 3281 1322 1B68     		ldr	r3, [r3]
 3282 1324 03F00303 		and	r3, r3, #3
 3283 1328 012B     		cmp	r3, #1
 3284 132a 2CD1     		bne	.L147
 3285              		.loc 7 1181 0
 3286 132c 019B     		ldr	r3, [sp, #4]
 3287 132e DB6E     		ldr	r3, [r3, #108]
 3288 1330 D3F80838 		ldr	r3, [r3, #2056]
 3289 1334 03F48073 		and	r3, r3, #256
 3290 1338 002B     		cmp	r3, #0
 3291 133a 12D0     		beq	.L148
 3292              		.loc 7 1182 0
 3293 133c 019B     		ldr	r3, [sp, #4]
 3294 133e D96E     		ldr	r1, [r3, #108]
 3295 1340 9DF80330 		ldrb	r3, [sp, #3]	@ zero_extendqisi2
 3296 1344 019A     		ldr	r2, [sp, #4]
 3297 1346 D06E     		ldr	r0, [r2, #108]
 3298 1348 9DF80320 		ldrb	r2, [sp, #3]	@ zero_extendqisi2
 3299 134c 5832     		adds	r2, r2, #88
 3300 134e 5201     		lsls	r2, r2, #5
 3301 1350 0244     		add	r2, r2, r0
 3302 1352 1268     		ldr	r2, [r2]
 3303 1354 42F08052 		orr	r2, r2, #268435456
 3304 1358 5833     		adds	r3, r3, #88
 3305 135a 5B01     		lsls	r3, r3, #5
 3306 135c 0B44     		add	r3, r3, r1
 3307 135e 1A60     		str	r2, [r3]
 3308 1360 11E0     		b	.L147
 3309              	.L148:
 3310              		.loc 7 1184 0
 3311 1362 019B     		ldr	r3, [sp, #4]
 3312 1364 D96E     		ldr	r1, [r3, #108]
 3313 1366 9DF80330 		ldrb	r3, [sp, #3]	@ zero_extendqisi2
 3314 136a 019A     		ldr	r2, [sp, #4]
 3315 136c D06E     		ldr	r0, [r2, #108]
 3316 136e 9DF80320 		ldrb	r2, [sp, #3]	@ zero_extendqisi2
 3317 1372 5832     		adds	r2, r2, #88
 3318 1374 5201     		lsls	r2, r2, #5
 3319 1376 0244     		add	r2, r2, r0
 3320 1378 1268     		ldr	r2, [r2]
 3321 137a 42F00052 		orr	r2, r2, #536870912
 3322 137e 5833     		adds	r3, r3, #88
 3323 1380 5B01     		lsls	r3, r3, #5
 3324 1382 0B44     		add	r3, r3, r1
 3325 1384 1A60     		str	r2, [r3]
 3326              	.L147:
 3327              		.loc 7 1188 0
 3328 1386 019B     		ldr	r3, [sp, #4]
 3329 1388 D96E     		ldr	r1, [r3, #108]
 3330 138a 9DF80330 		ldrb	r3, [sp, #3]	@ zero_extendqisi2
ARM GAS  /tmp/ccD2hNvo.s 			page 60


 3331 138e 019A     		ldr	r2, [sp, #4]
 3332 1390 D06E     		ldr	r0, [r2, #108]
 3333 1392 9DF80320 		ldrb	r2, [sp, #3]	@ zero_extendqisi2
 3334 1396 5832     		adds	r2, r2, #88
 3335 1398 5201     		lsls	r2, r2, #5
 3336 139a 0244     		add	r2, r2, r0
 3337 139c 1268     		ldr	r2, [r2]
 3338 139e 42F00442 		orr	r2, r2, #-2080374784
 3339 13a2 5833     		adds	r3, r3, #88
 3340 13a4 5B01     		lsls	r3, r3, #5
 3341 13a6 0B44     		add	r3, r3, r1
 3342 13a8 1A60     		str	r2, [r3]
 3343              		.loc 7 1189 0
 3344 13aa 06B0     		add	sp, sp, #24
 3345              		@ sp needed
 3346 13ac 7047     		bx	lr
 3347              		.cfi_endproc
 3348              	.LFE293:
 3349              		.size	usb_lld_start_out, .-usb_lld_start_out
 3350 13ae 00BF     		.align	2
 3351              		.p2align 4,,15
 3352              		.global	usb_lld_start_in
 3353              		.thumb
 3354              		.thumb_func
 3355              		.type	usb_lld_start_in, %function
 3356              	usb_lld_start_in:
 3357              	.LFB294:
 3358              		.loc 7 1199 0
 3359              		.cfi_startproc
 3360              		@ args = 0, pretend = 0, frame = 16
 3361              		@ frame_needed = 0, uses_anonymous_args = 0
 3362              		@ link register save eliminated.
 3363 13b0 84B0     		sub	sp, sp, #16
 3364              		.cfi_def_cfa_offset 16
 3365 13b2 0190     		str	r0, [sp, #4]
 3366 13b4 0B46     		mov	r3, r1
 3367 13b6 8DF80330 		strb	r3, [sp, #3]
 3368              		.loc 7 1200 0
 3369 13ba 9DF80330 		ldrb	r3, [sp, #3]	@ zero_extendqisi2
 3370 13be 019A     		ldr	r2, [sp, #4]
 3371 13c0 0233     		adds	r3, r3, #2
 3372 13c2 9B00     		lsls	r3, r3, #2
 3373 13c4 1344     		add	r3, r3, r2
 3374 13c6 5B68     		ldr	r3, [r3, #4]
 3375 13c8 5B69     		ldr	r3, [r3, #20]
 3376 13ca 0393     		str	r3, [sp, #12]
 3377              		.loc 7 1203 0
 3378 13cc 039B     		ldr	r3, [sp, #12]
 3379 13ce 1A68     		ldr	r2, [r3]
 3380 13d0 039B     		ldr	r3, [sp, #12]
 3381 13d2 DA60     		str	r2, [r3, #12]
 3382              		.loc 7 1204 0
 3383 13d4 039B     		ldr	r3, [sp, #12]
 3384 13d6 1B68     		ldr	r3, [r3]
 3385 13d8 002B     		cmp	r3, #0
 3386 13da 0BD1     		bne	.L150
 3387              		.loc 7 1206 0
ARM GAS  /tmp/ccD2hNvo.s 			page 61


 3388 13dc 019B     		ldr	r3, [sp, #4]
 3389 13de DA6E     		ldr	r2, [r3, #108]
 3390 13e0 9DF80330 		ldrb	r3, [sp, #3]	@ zero_extendqisi2
 3391 13e4 5B01     		lsls	r3, r3, #5
 3392 13e6 1344     		add	r3, r3, r2
 3393 13e8 03F51163 		add	r3, r3, #2320
 3394 13ec 4FF40022 		mov	r2, #524288
 3395 13f0 1A60     		str	r2, [r3]
 3396 13f2 31E0     		b	.L151
 3397              	.L150:
 3398              	.LBB13:
 3399              		.loc 7 1209 0
 3400 13f4 9DF80330 		ldrb	r3, [sp, #3]	@ zero_extendqisi2
 3401 13f8 002B     		cmp	r3, #0
 3402 13fa 06D1     		bne	.L152
 3403              		.loc 7 1209 0 is_stmt 0 discriminator 1
 3404 13fc 039B     		ldr	r3, [sp, #12]
 3405 13fe 1B68     		ldr	r3, [r3]
 3406 1400 402B     		cmp	r3, #64
 3407 1402 02D9     		bls	.L152
 3408              		.loc 7 1210 0 is_stmt 1
 3409 1404 039B     		ldr	r3, [sp, #12]
 3410 1406 4022     		movs	r2, #64
 3411 1408 1A60     		str	r2, [r3]
 3412              	.L152:
 3413              		.loc 7 1213 0
 3414 140a 039B     		ldr	r3, [sp, #12]
 3415 140c 1A68     		ldr	r2, [r3]
 3416 140e 9DF80330 		ldrb	r3, [sp, #3]	@ zero_extendqisi2
 3417 1412 0199     		ldr	r1, [sp, #4]
 3418 1414 0233     		adds	r3, r3, #2
 3419 1416 9B00     		lsls	r3, r3, #2
 3420 1418 0B44     		add	r3, r3, r1
 3421 141a 5B68     		ldr	r3, [r3, #4]
 3422 141c 1B8A     		ldrh	r3, [r3, #16]
 3423 141e 1344     		add	r3, r3, r2
 3424 1420 5A1E     		subs	r2, r3, #1
 3425              		.loc 7 1214 0
 3426 1422 9DF80330 		ldrb	r3, [sp, #3]	@ zero_extendqisi2
 3427 1426 0199     		ldr	r1, [sp, #4]
 3428 1428 0233     		adds	r3, r3, #2
 3429 142a 9B00     		lsls	r3, r3, #2
 3430 142c 0B44     		add	r3, r3, r1
 3431 142e 5B68     		ldr	r3, [r3, #4]
 3432 1430 1B8A     		ldrh	r3, [r3, #16]
 3433              		.loc 7 1213 0
 3434 1432 B2FBF3F3 		udiv	r3, r2, r3
 3435 1436 0293     		str	r3, [sp, #8]
 3436              		.loc 7 1216 0
 3437 1438 019B     		ldr	r3, [sp, #4]
 3438 143a D96E     		ldr	r1, [r3, #108]
 3439 143c 9DF80330 		ldrb	r3, [sp, #3]	@ zero_extendqisi2
 3440 1440 029A     		ldr	r2, [sp, #8]
 3441 1442 D004     		lsls	r0, r2, #19
 3442              		.loc 7 1217 0
 3443 1444 039A     		ldr	r2, [sp, #12]
 3444 1446 1268     		ldr	r2, [r2]
ARM GAS  /tmp/ccD2hNvo.s 			page 62


 3445              		.loc 7 1216 0
 3446 1448 0243     		orrs	r2, r2, r0
 3447 144a 42F00052 		orr	r2, r2, #536870912
 3448 144e 5B01     		lsls	r3, r3, #5
 3449 1450 0B44     		add	r3, r3, r1
 3450 1452 03F51163 		add	r3, r3, #2320
 3451 1456 1A60     		str	r2, [r3]
 3452              	.L151:
 3453              	.LBE13:
 3454              		.loc 7 1221 0
 3455 1458 9DF80330 		ldrb	r3, [sp, #3]	@ zero_extendqisi2
 3456 145c 019A     		ldr	r2, [sp, #4]
 3457 145e 0233     		adds	r3, r3, #2
 3458 1460 9B00     		lsls	r3, r3, #2
 3459 1462 1344     		add	r3, r3, r2
 3460 1464 5B68     		ldr	r3, [r3, #4]
 3461 1466 1B68     		ldr	r3, [r3]
 3462 1468 03F00303 		and	r3, r3, #3
 3463 146c 012B     		cmp	r3, #1
 3464 146e 2CD1     		bne	.L153
 3465              		.loc 7 1223 0
 3466 1470 019B     		ldr	r3, [sp, #4]
 3467 1472 DB6E     		ldr	r3, [r3, #108]
 3468 1474 D3F80838 		ldr	r3, [r3, #2056]
 3469 1478 03F48073 		and	r3, r3, #256
 3470 147c 002B     		cmp	r3, #0
 3471 147e 12D0     		beq	.L154
 3472              		.loc 7 1224 0
 3473 1480 019B     		ldr	r3, [sp, #4]
 3474 1482 D96E     		ldr	r1, [r3, #108]
 3475 1484 9DF80330 		ldrb	r3, [sp, #3]	@ zero_extendqisi2
 3476 1488 019A     		ldr	r2, [sp, #4]
 3477 148a D06E     		ldr	r0, [r2, #108]
 3478 148c 9DF80320 		ldrb	r2, [sp, #3]	@ zero_extendqisi2
 3479 1490 4832     		adds	r2, r2, #72
 3480 1492 5201     		lsls	r2, r2, #5
 3481 1494 0244     		add	r2, r2, r0
 3482 1496 1268     		ldr	r2, [r2]
 3483 1498 42F08052 		orr	r2, r2, #268435456
 3484 149c 4833     		adds	r3, r3, #72
 3485 149e 5B01     		lsls	r3, r3, #5
 3486 14a0 0B44     		add	r3, r3, r1
 3487 14a2 1A60     		str	r2, [r3]
 3488 14a4 11E0     		b	.L153
 3489              	.L154:
 3490              		.loc 7 1226 0
 3491 14a6 019B     		ldr	r3, [sp, #4]
 3492 14a8 D96E     		ldr	r1, [r3, #108]
 3493 14aa 9DF80330 		ldrb	r3, [sp, #3]	@ zero_extendqisi2
 3494 14ae 019A     		ldr	r2, [sp, #4]
 3495 14b0 D06E     		ldr	r0, [r2, #108]
 3496 14b2 9DF80320 		ldrb	r2, [sp, #3]	@ zero_extendqisi2
 3497 14b6 4832     		adds	r2, r2, #72
 3498 14b8 5201     		lsls	r2, r2, #5
 3499 14ba 0244     		add	r2, r2, r0
 3500 14bc 1268     		ldr	r2, [r2]
 3501 14be 42F00052 		orr	r2, r2, #536870912
ARM GAS  /tmp/ccD2hNvo.s 			page 63


 3502 14c2 4833     		adds	r3, r3, #72
 3503 14c4 5B01     		lsls	r3, r3, #5
 3504 14c6 0B44     		add	r3, r3, r1
 3505 14c8 1A60     		str	r2, [r3]
 3506              	.L153:
 3507              		.loc 7 1230 0
 3508 14ca 019B     		ldr	r3, [sp, #4]
 3509 14cc D96E     		ldr	r1, [r3, #108]
 3510 14ce 9DF80330 		ldrb	r3, [sp, #3]	@ zero_extendqisi2
 3511 14d2 019A     		ldr	r2, [sp, #4]
 3512 14d4 D06E     		ldr	r0, [r2, #108]
 3513 14d6 9DF80320 		ldrb	r2, [sp, #3]	@ zero_extendqisi2
 3514 14da 4832     		adds	r2, r2, #72
 3515 14dc 5201     		lsls	r2, r2, #5
 3516 14de 0244     		add	r2, r2, r0
 3517 14e0 1268     		ldr	r2, [r2]
 3518 14e2 42F00442 		orr	r2, r2, #-2080374784
 3519 14e6 4833     		adds	r3, r3, #72
 3520 14e8 5B01     		lsls	r3, r3, #5
 3521 14ea 0B44     		add	r3, r3, r1
 3522 14ec 1A60     		str	r2, [r3]
 3523              		.loc 7 1231 0
 3524 14ee 019B     		ldr	r3, [sp, #4]
 3525 14f0 DB6E     		ldr	r3, [r3, #108]
 3526 14f2 019A     		ldr	r2, [sp, #4]
 3527 14f4 D26E     		ldr	r2, [r2, #108]
 3528 14f6 D2F83418 		ldr	r1, [r2, #2100]
 3529 14fa 9DF80320 		ldrb	r2, [sp, #3]	@ zero_extendqisi2
 3530 14fe 0120     		movs	r0, #1
 3531 1500 00FA02F2 		lsl	r2, r0, r2
 3532 1504 0A43     		orrs	r2, r2, r1
 3533 1506 C3F83428 		str	r2, [r3, #2100]
 3534              		.loc 7 1232 0
 3535 150a 04B0     		add	sp, sp, #16
 3536              		@ sp needed
 3537 150c 7047     		bx	lr
 3538              		.cfi_endproc
 3539              	.LFE294:
 3540              		.size	usb_lld_start_in, .-usb_lld_start_in
 3541 150e 00BF     		.align	2
 3542              		.p2align 4,,15
 3543              		.global	usb_lld_stall_out
 3544              		.thumb
 3545              		.thumb_func
 3546              		.type	usb_lld_stall_out, %function
 3547              	usb_lld_stall_out:
 3548              	.LFB295:
 3549              		.loc 7 1242 0
 3550              		.cfi_startproc
 3551              		@ args = 0, pretend = 0, frame = 8
 3552              		@ frame_needed = 0, uses_anonymous_args = 0
 3553              		@ link register save eliminated.
 3554 1510 82B0     		sub	sp, sp, #8
 3555              		.cfi_def_cfa_offset 8
 3556 1512 0190     		str	r0, [sp, #4]
 3557 1514 0B46     		mov	r3, r1
 3558 1516 8DF80330 		strb	r3, [sp, #3]
ARM GAS  /tmp/ccD2hNvo.s 			page 64


 3559              		.loc 7 1244 0
 3560 151a 019B     		ldr	r3, [sp, #4]
 3561 151c D96E     		ldr	r1, [r3, #108]
 3562 151e 9DF80330 		ldrb	r3, [sp, #3]	@ zero_extendqisi2
 3563 1522 019A     		ldr	r2, [sp, #4]
 3564 1524 D06E     		ldr	r0, [r2, #108]
 3565 1526 9DF80320 		ldrb	r2, [sp, #3]	@ zero_extendqisi2
 3566 152a 5832     		adds	r2, r2, #88
 3567 152c 5201     		lsls	r2, r2, #5
 3568 152e 0244     		add	r2, r2, r0
 3569 1530 1268     		ldr	r2, [r2]
 3570 1532 42F40012 		orr	r2, r2, #2097152
 3571 1536 5833     		adds	r3, r3, #88
 3572 1538 5B01     		lsls	r3, r3, #5
 3573 153a 0B44     		add	r3, r3, r1
 3574 153c 1A60     		str	r2, [r3]
 3575              		.loc 7 1245 0
 3576 153e 02B0     		add	sp, sp, #8
 3577              		@ sp needed
 3578 1540 7047     		bx	lr
 3579              		.cfi_endproc
 3580              	.LFE295:
 3581              		.size	usb_lld_stall_out, .-usb_lld_stall_out
 3582 1542 00BF     		.align	2
 3583 1544 AFF30080 		.p2align 4,,15
 3583      AFF30080 
 3583      AFF30080 
 3584              		.global	usb_lld_stall_in
 3585              		.thumb
 3586              		.thumb_func
 3587              		.type	usb_lld_stall_in, %function
 3588              	usb_lld_stall_in:
 3589              	.LFB296:
 3590              		.loc 7 1255 0
 3591              		.cfi_startproc
 3592              		@ args = 0, pretend = 0, frame = 8
 3593              		@ frame_needed = 0, uses_anonymous_args = 0
 3594              		@ link register save eliminated.
 3595 1550 82B0     		sub	sp, sp, #8
 3596              		.cfi_def_cfa_offset 8
 3597 1552 0190     		str	r0, [sp, #4]
 3598 1554 0B46     		mov	r3, r1
 3599 1556 8DF80330 		strb	r3, [sp, #3]
 3600              		.loc 7 1257 0
 3601 155a 019B     		ldr	r3, [sp, #4]
 3602 155c D96E     		ldr	r1, [r3, #108]
 3603 155e 9DF80330 		ldrb	r3, [sp, #3]	@ zero_extendqisi2
 3604 1562 019A     		ldr	r2, [sp, #4]
 3605 1564 D06E     		ldr	r0, [r2, #108]
 3606 1566 9DF80320 		ldrb	r2, [sp, #3]	@ zero_extendqisi2
 3607 156a 4832     		adds	r2, r2, #72
 3608 156c 5201     		lsls	r2, r2, #5
 3609 156e 0244     		add	r2, r2, r0
 3610 1570 1268     		ldr	r2, [r2]
 3611 1572 42F40012 		orr	r2, r2, #2097152
 3612 1576 4833     		adds	r3, r3, #72
 3613 1578 5B01     		lsls	r3, r3, #5
ARM GAS  /tmp/ccD2hNvo.s 			page 65


 3614 157a 0B44     		add	r3, r3, r1
 3615 157c 1A60     		str	r2, [r3]
 3616              		.loc 7 1258 0
 3617 157e 02B0     		add	sp, sp, #8
 3618              		@ sp needed
 3619 1580 7047     		bx	lr
 3620              		.cfi_endproc
 3621              	.LFE296:
 3622              		.size	usb_lld_stall_in, .-usb_lld_stall_in
 3623 1582 00BF     		.align	2
 3624 1584 AFF30080 		.p2align 4,,15
 3624      AFF30080 
 3624      AFF30080 
 3625              		.global	usb_lld_clear_out
 3626              		.thumb
 3627              		.thumb_func
 3628              		.type	usb_lld_clear_out, %function
 3629              	usb_lld_clear_out:
 3630              	.LFB297:
 3631              		.loc 7 1268 0
 3632              		.cfi_startproc
 3633              		@ args = 0, pretend = 0, frame = 8
 3634              		@ frame_needed = 0, uses_anonymous_args = 0
 3635              		@ link register save eliminated.
 3636 1590 82B0     		sub	sp, sp, #8
 3637              		.cfi_def_cfa_offset 8
 3638 1592 0190     		str	r0, [sp, #4]
 3639 1594 0B46     		mov	r3, r1
 3640 1596 8DF80330 		strb	r3, [sp, #3]
 3641              		.loc 7 1270 0
 3642 159a 019B     		ldr	r3, [sp, #4]
 3643 159c D96E     		ldr	r1, [r3, #108]
 3644 159e 9DF80330 		ldrb	r3, [sp, #3]	@ zero_extendqisi2
 3645 15a2 019A     		ldr	r2, [sp, #4]
 3646 15a4 D06E     		ldr	r0, [r2, #108]
 3647 15a6 9DF80320 		ldrb	r2, [sp, #3]	@ zero_extendqisi2
 3648 15aa 5832     		adds	r2, r2, #88
 3649 15ac 5201     		lsls	r2, r2, #5
 3650 15ae 0244     		add	r2, r2, r0
 3651 15b0 1268     		ldr	r2, [r2]
 3652 15b2 22F40012 		bic	r2, r2, #2097152
 3653 15b6 5833     		adds	r3, r3, #88
 3654 15b8 5B01     		lsls	r3, r3, #5
 3655 15ba 0B44     		add	r3, r3, r1
 3656 15bc 1A60     		str	r2, [r3]
 3657              		.loc 7 1271 0
 3658 15be 02B0     		add	sp, sp, #8
 3659              		@ sp needed
 3660 15c0 7047     		bx	lr
 3661              		.cfi_endproc
 3662              	.LFE297:
 3663              		.size	usb_lld_clear_out, .-usb_lld_clear_out
 3664 15c2 00BF     		.align	2
 3665 15c4 AFF30080 		.p2align 4,,15
 3665      AFF30080 
 3665      AFF30080 
 3666              		.global	usb_lld_clear_in
ARM GAS  /tmp/ccD2hNvo.s 			page 66


 3667              		.thumb
 3668              		.thumb_func
 3669              		.type	usb_lld_clear_in, %function
 3670              	usb_lld_clear_in:
 3671              	.LFB298:
 3672              		.loc 7 1281 0
 3673              		.cfi_startproc
 3674              		@ args = 0, pretend = 0, frame = 8
 3675              		@ frame_needed = 0, uses_anonymous_args = 0
 3676              		@ link register save eliminated.
 3677 15d0 82B0     		sub	sp, sp, #8
 3678              		.cfi_def_cfa_offset 8
 3679 15d2 0190     		str	r0, [sp, #4]
 3680 15d4 0B46     		mov	r3, r1
 3681 15d6 8DF80330 		strb	r3, [sp, #3]
 3682              		.loc 7 1283 0
 3683 15da 019B     		ldr	r3, [sp, #4]
 3684 15dc D96E     		ldr	r1, [r3, #108]
 3685 15de 9DF80330 		ldrb	r3, [sp, #3]	@ zero_extendqisi2
 3686 15e2 019A     		ldr	r2, [sp, #4]
 3687 15e4 D06E     		ldr	r0, [r2, #108]
 3688 15e6 9DF80320 		ldrb	r2, [sp, #3]	@ zero_extendqisi2
 3689 15ea 4832     		adds	r2, r2, #72
 3690 15ec 5201     		lsls	r2, r2, #5
 3691 15ee 0244     		add	r2, r2, r0
 3692 15f0 1268     		ldr	r2, [r2]
 3693 15f2 22F40012 		bic	r2, r2, #2097152
 3694 15f6 4833     		adds	r3, r3, #72
 3695 15f8 5B01     		lsls	r3, r3, #5
 3696 15fa 0B44     		add	r3, r3, r1
 3697 15fc 1A60     		str	r2, [r3]
 3698              		.loc 7 1284 0
 3699 15fe 02B0     		add	sp, sp, #8
 3700              		@ sp needed
 3701 1600 7047     		bx	lr
 3702              		.cfi_endproc
 3703              	.LFE298:
 3704              		.size	usb_lld_clear_in, .-usb_lld_clear_in
 3705              		.section	.rodata
 3706              		.align	2
 3707              	.LC0:
 3708 0030 7573625F 		.ascii	"usb_lld_pump\000"
 3708      6C6C645F 
 3708      70756D70 
 3708      00
 3709 003d 000000   		.text
 3710 1602 00BF     		.align	2
 3711 1604 AFF30080 		.p2align 4,,15
 3711      AFF30080 
 3711      AFF30080 
 3712              		.global	usb_lld_pump
 3713              		.thumb
 3714              		.thumb_func
 3715              		.type	usb_lld_pump, %function
 3716              	usb_lld_pump:
 3717              	.LFB299:
 3718              		.loc 7 1297 0
ARM GAS  /tmp/ccD2hNvo.s 			page 67


 3719              		.cfi_startproc
 3720              		@ args = 0, pretend = 0, frame = 32
 3721              		@ frame_needed = 0, uses_anonymous_args = 0
 3722 1610 00B5     		push	{lr}
 3723              		.cfi_def_cfa_offset 4
 3724              		.cfi_offset 14, -4
 3725 1612 89B0     		sub	sp, sp, #36
 3726              		.cfi_def_cfa_offset 40
 3727 1614 0190     		str	r0, [sp, #4]
 3728              		.loc 7 1298 0
 3729 1616 019B     		ldr	r3, [sp, #4]
 3730 1618 0693     		str	r3, [sp, #24]
 3731              		.loc 7 1299 0
 3732 161a 069B     		ldr	r3, [sp, #24]
 3733 161c DB6E     		ldr	r3, [r3, #108]
 3734 161e 0593     		str	r3, [sp, #20]
 3735              		.loc 7 1302 0
 3736 1620 3D48     		ldr	r0, .L169
 3737 1622 FEF73DFD 		bl	chRegSetThreadName
 3738              		.loc 7 1304 0
 3739 1626 FEF74BFD 		bl	osalSysLock
 3740              	.L168:
 3741              	.LBB14:
 3742              		.loc 7 1310 0
 3743 162a 069B     		ldr	r3, [sp, #24]
 3744 162c 1B78     		ldrb	r3, [r3]	@ zero_extendqisi2
 3745 162e 012B     		cmp	r3, #1
 3746 1630 09D0     		beq	.L160
 3747              		.loc 7 1311 0 discriminator 1
 3748 1632 069B     		ldr	r3, [sp, #24]
 3749 1634 9B6F     		ldr	r3, [r3, #120]
 3750              		.loc 7 1310 0 discriminator 1
 3751 1636 002B     		cmp	r3, #0
 3752 1638 10D1     		bne	.L161
 3753              		.loc 7 1311 0
 3754 163a 059B     		ldr	r3, [sp, #20]
 3755 163c 5B69     		ldr	r3, [r3, #20]
 3756 163e 03F01003 		and	r3, r3, #16
 3757 1642 002B     		cmp	r3, #0
 3758 1644 0AD1     		bne	.L161
 3759              	.L160:
 3760              		.loc 7 1312 0
 3761 1646 059B     		ldr	r3, [sp, #20]
 3762 1648 9B69     		ldr	r3, [r3, #24]
 3763 164a 43F01002 		orr	r2, r3, #16
 3764 164e 059B     		ldr	r3, [sp, #20]
 3765 1650 9A61     		str	r2, [r3, #24]
 3766              		.loc 7 1313 0
 3767 1652 069B     		ldr	r3, [sp, #24]
 3768 1654 7C33     		adds	r3, r3, #124
 3769 1656 1846     		mov	r0, r3
 3770 1658 FEF762FD 		bl	osalThreadSuspendS
 3771              	.L161:
 3772              		.loc 7 1315 0
 3773 165c FEF738FD 		bl	osalSysUnlock
 3774              		.loc 7 1318 0
 3775 1660 0023     		movs	r3, #0
ARM GAS  /tmp/ccD2hNvo.s 			page 68


 3776 1662 8DF81F30 		strb	r3, [sp, #31]
 3777 1666 4DE0     		b	.L162
 3778              	.L167:
 3779              		.loc 7 1321 0
 3780 1668 02E0     		b	.L163
 3781              	.L164:
 3782              		.loc 7 1322 0
 3783 166a 0698     		ldr	r0, [sp, #24]
 3784 166c FEF778FE 		bl	otg_rxfifo_handler
 3785              	.L163:
 3786              		.loc 7 1321 0 discriminator 1
 3787 1670 059B     		ldr	r3, [sp, #20]
 3788 1672 5B69     		ldr	r3, [r3, #20]
 3789 1674 03F01003 		and	r3, r3, #16
 3790 1678 002B     		cmp	r3, #0
 3791 167a F6D1     		bne	.L164
 3792              		.loc 7 1325 0
 3793 167c 9DF81F30 		ldrb	r3, [sp, #31]	@ zero_extendqisi2
 3794 1680 0122     		movs	r2, #1
 3795 1682 02FA03F3 		lsl	r3, r2, r3
 3796 1686 0493     		str	r3, [sp, #16]
 3797              		.loc 7 1326 0
 3798 1688 069B     		ldr	r3, [sp, #24]
 3799 168a 9A6F     		ldr	r2, [r3, #120]
 3800 168c 049B     		ldr	r3, [sp, #16]
 3801 168e 1340     		ands	r3, r3, r2
 3802 1690 002B     		cmp	r3, #0
 3803 1692 32D0     		beq	.L165
 3804              	.LBB15:
 3805              		.loc 7 1329 0
 3806 1694 FEF714FD 		bl	osalSysLock
 3807              		.loc 7 1337 0
 3808 1698 059B     		ldr	r3, [sp, #20]
 3809 169a 9B68     		ldr	r3, [r3, #8]
 3810 169c 23F00102 		bic	r2, r3, #1
 3811 16a0 059B     		ldr	r3, [sp, #20]
 3812 16a2 9A60     		str	r2, [r3, #8]
 3813              		.loc 7 1338 0
 3814 16a4 069B     		ldr	r3, [sp, #24]
 3815 16a6 9A6F     		ldr	r2, [r3, #120]
 3816 16a8 049B     		ldr	r3, [sp, #16]
 3817 16aa DB43     		mvns	r3, r3
 3818 16ac 1A40     		ands	r2, r2, r3
 3819 16ae 069B     		ldr	r3, [sp, #24]
 3820 16b0 9A67     		str	r2, [r3, #120]
 3821              		.loc 7 1339 0
 3822 16b2 FEF70DFD 		bl	osalSysUnlock
 3823              		.loc 7 1341 0
 3824 16b6 9DF81F30 		ldrb	r3, [sp, #31]	@ zero_extendqisi2
 3825 16ba 0698     		ldr	r0, [sp, #24]
 3826 16bc 1946     		mov	r1, r3
 3827 16be FEF7D7FE 		bl	otg_txfifo_handler
 3828 16c2 0346     		mov	r3, r0
 3829 16c4 8DF80F30 		strb	r3, [sp, #15]
 3830              		.loc 7 1343 0
 3831 16c8 FEF7FAFC 		bl	osalSysLock
 3832              		.loc 7 1344 0
ARM GAS  /tmp/ccD2hNvo.s 			page 69


 3833 16cc 059B     		ldr	r3, [sp, #20]
 3834 16ce 9B68     		ldr	r3, [r3, #8]
 3835 16d0 43F00102 		orr	r2, r3, #1
 3836 16d4 059B     		ldr	r3, [sp, #20]
 3837 16d6 9A60     		str	r2, [r3, #8]
 3838              		.loc 7 1345 0
 3839 16d8 9DF80F30 		ldrb	r3, [sp, #15]
 3840 16dc 83F00103 		eor	r3, r3, #1
 3841 16e0 DBB2     		uxtb	r3, r3
 3842 16e2 002B     		cmp	r3, #0
 3843 16e4 07D0     		beq	.L166
 3844              		.loc 7 1346 0
 3845 16e6 059B     		ldr	r3, [sp, #20]
 3846 16e8 D3F83428 		ldr	r2, [r3, #2100]
 3847 16ec 049B     		ldr	r3, [sp, #16]
 3848 16ee 1A43     		orrs	r2, r2, r3
 3849 16f0 059B     		ldr	r3, [sp, #20]
 3850 16f2 C3F83428 		str	r2, [r3, #2100]
 3851              	.L166:
 3852              		.loc 7 1347 0
 3853 16f6 FEF7EBFC 		bl	osalSysUnlock
 3854              	.L165:
 3855              	.LBE15:
 3856              		.loc 7 1318 0
 3857 16fa 9DF81F30 		ldrb	r3, [sp, #31]	@ zero_extendqisi2
 3858 16fe 0133     		adds	r3, r3, #1
 3859 1700 8DF81F30 		strb	r3, [sp, #31]
 3860              	.L162:
 3861              		.loc 7 1318 0 is_stmt 0 discriminator 1
 3862 1704 9DF81F20 		ldrb	r2, [sp, #31]	@ zero_extendqisi2
 3863 1708 069B     		ldr	r3, [sp, #24]
 3864 170a 1B6F     		ldr	r3, [r3, #112]
 3865 170c 9B68     		ldr	r3, [r3, #8]
 3866 170e 9A42     		cmp	r2, r3
 3867 1710 AAD9     		bls	.L167
 3868              		.loc 7 1350 0 is_stmt 1
 3869 1712 FEF7D5FC 		bl	osalSysLock
 3870              	.LBE14:
 3871              		.loc 7 1351 0
 3872 1716 88E7     		b	.L168
 3873              	.L170:
 3874              		.align	2
 3875              	.L169:
 3876 1718 30000000 		.word	.LC0
 3877              		.cfi_endproc
 3878              	.LFE299:
 3879              		.size	usb_lld_pump, .-usb_lld_pump
 3880              	.Letext0:
 3881              		.file 8 "/nfs/nfs5/home/research/hardware/arm2/gcc-arm-embedded/gcc-arm-none-eabi-4_8-2014q2/lib/g
 3882              		.file 9 "/nfs/nfs5/home/research/hardware/arm2/gcc-arm-embedded/gcc-arm-none-eabi-4_8-2014q2/arm-n
 3883              		.file 10 "/nfs/nfs5/home/research/hardware/arm2/gcc-arm-embedded/gcc-arm-none-eabi-4_8-2014q2/arm-
 3884              		.file 11 "../../ChibiOS/os/rt/ports/ARMCMx/compilers/GCC/chtypes.h"
 3885              		.file 12 "../../ChibiOS/os/rt/include/chsystypes.h"
 3886              		.file 13 "../../ChibiOS/os/rt/include/chschd.h"
 3887              		.file 14 "../../ChibiOS/os/ext/CMSIS/ST/STM32L4xx/stm32l476xx.h"
 3888              		.file 15 "../../ChibiOS/os/rt/ports/ARMCMx/chcore.h"
 3889              		.file 16 "../../ChibiOS/os/rt/include/chtm.h"
ARM GAS  /tmp/ccD2hNvo.s 			page 70


 3890              		.file 17 "../../ChibiOS/os/rt/include/chsem.h"
 3891              		.file 18 "../../ChibiOS/os/rt/include/chmtx.h"
 3892              		.file 19 "../../ChibiOS/os/hal/include/usb.h"
 3893              		.file 20 "../../ChibiOS/os/hal/ports/STM32/LLD/OTGv1/usb_lld.h"
 3894              		.file 21 "../../ChibiOS/os/hal/ports/STM32/LLD/OTGv1/stm32_otg.h"
 3895              		.file 22 "../../ChibiOS/os/ext/CMSIS/include/core_cm4.h"